
t_absmax_val_f64:     file format elf64-x86-64


Disassembly of section .init:

0000000000001000 <_init>:
    1000:	f3 0f 1e fa          	endbr64 
    1004:	48 83 ec 08          	sub    $0x8,%rsp
    1008:	48 8b 05 d9 2f 00 00 	mov    0x2fd9(%rip),%rax        # 3fe8 <__gmon_start__@Base>
    100f:	48 85 c0             	test   %rax,%rax
    1012:	74 02                	je     1016 <_init+0x16>
    1014:	ff d0                	call   *%rax
    1016:	48 83 c4 08          	add    $0x8,%rsp
    101a:	c3                   	ret    

Disassembly of section .plt:

0000000000001020 <.plt>:
    1020:	ff 35 5a 2f 00 00    	push   0x2f5a(%rip)        # 3f80 <_GLOBAL_OFFSET_TABLE_+0x8>
    1026:	f2 ff 25 5b 2f 00 00 	bnd jmp *0x2f5b(%rip)        # 3f88 <_GLOBAL_OFFSET_TABLE_+0x10>
    102d:	0f 1f 00             	nopl   (%rax)
    1030:	f3 0f 1e fa          	endbr64 
    1034:	68 00 00 00 00       	push   $0x0
    1039:	f2 e9 e1 ff ff ff    	bnd jmp 1020 <_init+0x20>
    103f:	90                   	nop
    1040:	f3 0f 1e fa          	endbr64 
    1044:	68 01 00 00 00       	push   $0x1
    1049:	f2 e9 d1 ff ff ff    	bnd jmp 1020 <_init+0x20>
    104f:	90                   	nop
    1050:	f3 0f 1e fa          	endbr64 
    1054:	68 02 00 00 00       	push   $0x2
    1059:	f2 e9 c1 ff ff ff    	bnd jmp 1020 <_init+0x20>
    105f:	90                   	nop
    1060:	f3 0f 1e fa          	endbr64 
    1064:	68 03 00 00 00       	push   $0x3
    1069:	f2 e9 b1 ff ff ff    	bnd jmp 1020 <_init+0x20>
    106f:	90                   	nop
    1070:	f3 0f 1e fa          	endbr64 
    1074:	68 04 00 00 00       	push   $0x4
    1079:	f2 e9 a1 ff ff ff    	bnd jmp 1020 <_init+0x20>
    107f:	90                   	nop
    1080:	f3 0f 1e fa          	endbr64 
    1084:	68 05 00 00 00       	push   $0x5
    1089:	f2 e9 91 ff ff ff    	bnd jmp 1020 <_init+0x20>
    108f:	90                   	nop
    1090:	f3 0f 1e fa          	endbr64 
    1094:	68 06 00 00 00       	push   $0x6
    1099:	f2 e9 81 ff ff ff    	bnd jmp 1020 <_init+0x20>
    109f:	90                   	nop
    10a0:	f3 0f 1e fa          	endbr64 
    10a4:	68 07 00 00 00       	push   $0x7
    10a9:	f2 e9 71 ff ff ff    	bnd jmp 1020 <_init+0x20>
    10af:	90                   	nop
    10b0:	f3 0f 1e fa          	endbr64 
    10b4:	68 08 00 00 00       	push   $0x8
    10b9:	f2 e9 61 ff ff ff    	bnd jmp 1020 <_init+0x20>
    10bf:	90                   	nop

Disassembly of section .plt.got:

00000000000010c0 <__cxa_finalize@plt>:
    10c0:	f3 0f 1e fa          	endbr64 
    10c4:	f2 ff 25 2d 2f 00 00 	bnd jmp *0x2f2d(%rip)        # 3ff8 <__cxa_finalize@GLIBC_2.2.5>
    10cb:	0f 1f 44 00 00       	nopl   0x0(%rax,%rax,1)

Disassembly of section .plt.sec:

00000000000010d0 <puts@plt>:
    10d0:	f3 0f 1e fa          	endbr64 
    10d4:	f2 ff 25 b5 2e 00 00 	bnd jmp *0x2eb5(%rip)        # 3f90 <puts@GLIBC_2.2.5>
    10db:	0f 1f 44 00 00       	nopl   0x0(%rax,%rax,1)

00000000000010e0 <fread@plt>:
    10e0:	f3 0f 1e fa          	endbr64 
    10e4:	f2 ff 25 ad 2e 00 00 	bnd jmp *0x2ead(%rip)        # 3f98 <fread@GLIBC_2.2.5>
    10eb:	0f 1f 44 00 00       	nopl   0x0(%rax,%rax,1)

00000000000010f0 <fclose@plt>:
    10f0:	f3 0f 1e fa          	endbr64 
    10f4:	f2 ff 25 a5 2e 00 00 	bnd jmp *0x2ea5(%rip)        # 3fa0 <fclose@GLIBC_2.2.5>
    10fb:	0f 1f 44 00 00       	nopl   0x0(%rax,%rax,1)

0000000000001100 <__stack_chk_fail@plt>:
    1100:	f3 0f 1e fa          	endbr64 
    1104:	f2 ff 25 9d 2e 00 00 	bnd jmp *0x2e9d(%rip)        # 3fa8 <__stack_chk_fail@GLIBC_2.4>
    110b:	0f 1f 44 00 00       	nopl   0x0(%rax,%rax,1)

0000000000001110 <log10f@plt>:
    1110:	f3 0f 1e fa          	endbr64 
    1114:	f2 ff 25 95 2e 00 00 	bnd jmp *0x2e95(%rip)        # 3fb0 <log10f@GLIBC_2.2.5>
    111b:	0f 1f 44 00 00       	nopl   0x0(%rax,%rax,1)

0000000000001120 <__printf_chk@plt>:
    1120:	f3 0f 1e fa          	endbr64 
    1124:	f2 ff 25 8d 2e 00 00 	bnd jmp *0x2e8d(%rip)        # 3fb8 <__printf_chk@GLIBC_2.3.4>
    112b:	0f 1f 44 00 00       	nopl   0x0(%rax,%rax,1)

0000000000001130 <fopen@plt>:
    1130:	f3 0f 1e fa          	endbr64 
    1134:	f2 ff 25 85 2e 00 00 	bnd jmp *0x2e85(%rip)        # 3fc0 <fopen@GLIBC_2.2.5>
    113b:	0f 1f 44 00 00       	nopl   0x0(%rax,%rax,1)

0000000000001140 <sqrt@plt>:
    1140:	f3 0f 1e fa          	endbr64 
    1144:	f2 ff 25 7d 2e 00 00 	bnd jmp *0x2e7d(%rip)        # 3fc8 <sqrt@GLIBC_2.2.5>
    114b:	0f 1f 44 00 00       	nopl   0x0(%rax,%rax,1)

0000000000001150 <__sprintf_chk@plt>:
    1150:	f3 0f 1e fa          	endbr64 
    1154:	f2 ff 25 75 2e 00 00 	bnd jmp *0x2e75(%rip)        # 3fd0 <__sprintf_chk@GLIBC_2.3.4>
    115b:	0f 1f 44 00 00       	nopl   0x0(%rax,%rax,1)

Disassembly of section .text:

0000000000001160 <main>:
    1160:	f3 0f 1e fa          	endbr64 
    1164:	55                   	push   %rbp
    1165:	48 89 e5             	mov    %rsp,%rbp
    1168:	41 57                	push   %r15
    116a:	41 56                	push   %r14
    116c:	41 55                	push   %r13
    116e:	41 54                	push   %r12
    1170:	53                   	push   %rbx
    1171:	48 81 ec 88 02 00 00 	sub    $0x288,%rsp
    1178:	64 48 8b 04 25 28 00 	mov    %fs:0x28,%rax
    117f:	00 00 
    1181:	48 89 45 c8          	mov    %rax,-0x38(%rbp)
    1185:	31 c0                	xor    %eax,%eax
    1187:	48 8d 84 24 00 e0 ff 	lea    -0x2000(%rsp),%rax
    118e:	ff 
    118f:	48 39 c4             	cmp    %rax,%rsp
    1192:	74 15                	je     11a9 <main+0x49>
    1194:	48 81 ec 00 10 00 00 	sub    $0x1000,%rsp
    119b:	48 83 8c 24 f8 0f 00 	orq    $0x0,0xff8(%rsp)
    11a2:	00 00 
    11a4:	48 39 c4             	cmp    %rax,%rsp
    11a7:	75 eb                	jne    1194 <main+0x34>
    11a9:	48 81 ec 10 07 00 00 	sub    $0x710,%rsp
    11b0:	48 83 8c 24 08 07 00 	orq    $0x0,0x708(%rsp)
    11b7:	00 00 
    11b9:	49 89 e6             	mov    %rsp,%r14
    11bc:	48 8d 84 24 00 e0 ff 	lea    -0x2000(%rsp),%rax
    11c3:	ff 
    11c4:	48 39 c4             	cmp    %rax,%rsp
    11c7:	74 12                	je     11db <main+0x7b>
    11c9:	48 81 ec 00 10 00 00 	sub    $0x1000,%rsp
    11d0:	48 83 8c 24 f8 0f 00 	orq    $0x0,0xff8(%rsp)
    11d7:	00 00 
    11d9:	eb e9                	jmp    11c4 <main+0x64>
    11db:	48 81 ec 10 07 00 00 	sub    $0x710,%rsp
    11e2:	48 83 8c 24 08 07 00 	orq    $0x0,0x708(%rsp)
    11e9:	00 00 
    11eb:	4c 8d 05 16 0e 00 00 	lea    0xe16(%rip),%r8        # 2008 <_IO_stdin_used+0x8>
    11f2:	ba 00 02 00 00       	mov    $0x200,%edx
    11f7:	31 c0                	xor    %eax,%eax
    11f9:	48 8d 0d c1 0e 00 00 	lea    0xec1(%rip),%rcx        # 20c1 <_IO_stdin_used+0xc1>
    1200:	be 01 00 00 00       	mov    $0x1,%esi
    1205:	4c 8d 3d c8 0e 00 00 	lea    0xec8(%rip),%r15        # 20d4 <_IO_stdin_used+0xd4>
    120c:	4c 8d ad c0 fd ff ff 	lea    -0x240(%rbp),%r13
    1213:	48 89 a5 78 fd ff ff 	mov    %rsp,-0x288(%rbp)
    121a:	4c 89 ef             	mov    %r13,%rdi
    121d:	e8 2e ff ff ff       	call   1150 <__sprintf_chk@plt>
    1222:	4c 89 fe             	mov    %r15,%rsi
    1225:	4c 89 ef             	mov    %r13,%rdi
    1228:	e8 03 ff ff ff       	call   1130 <fopen@plt>
    122d:	49 89 c4             	mov    %rax,%r12
    1230:	48 85 c0             	test   %rax,%rax
    1233:	0f 84 35 03 00 00    	je     156e <main+0x40e>
    1239:	ba 00 02 00 00       	mov    $0x200,%edx
    123e:	be 01 00 00 00       	mov    $0x1,%esi
    1243:	4c 89 ef             	mov    %r13,%rdi
    1246:	31 c0                	xor    %eax,%eax
    1248:	4c 8d 05 b9 0d 00 00 	lea    0xdb9(%rip),%r8        # 2008 <_IO_stdin_used+0x8>
    124f:	48 8d 0d fa 0d 00 00 	lea    0xdfa(%rip),%rcx        # 2050 <_IO_stdin_used+0x50>
    1256:	e8 f5 fe ff ff       	call   1150 <__sprintf_chk@plt>
    125b:	4c 89 fe             	mov    %r15,%rsi
    125e:	4c 89 ef             	mov    %r13,%rdi
    1261:	e8 ca fe ff ff       	call   1130 <fopen@plt>
    1266:	48 89 85 70 fd ff ff 	mov    %rax,-0x290(%rbp)
    126d:	48 85 c0             	test   %rax,%rax
    1270:	0f 84 f8 02 00 00    	je     156e <main+0x40e>
    1276:	4d 89 f7             	mov    %r14,%r15
    1279:	4d 8d ae 10 27 00 00 	lea    0x2710(%r14),%r13
    1280:	48 8d 9d 80 fd ff ff 	lea    -0x280(%rbp),%rbx
    1287:	66 0f 1f 84 00 00 00 	nopw   0x0(%rax,%rax,1)
    128e:	00 00 
    1290:	4c 89 e1             	mov    %r12,%rcx
    1293:	ba 08 00 00 00       	mov    $0x8,%edx
    1298:	be 08 00 00 00       	mov    $0x8,%esi
    129d:	48 89 df             	mov    %rbx,%rdi
    12a0:	e8 3b fe ff ff       	call   10e0 <fread@plt>
    12a5:	31 f6                	xor    %esi,%esi
    12a7:	48 89 df             	mov    %rbx,%rdi
    12aa:	49 83 c7 08          	add    $0x8,%r15
    12ae:	e8 1d 04 00 00       	call   16d0 <riscv_dsp_absmax_val_f64>
    12b3:	be 08 00 00 00       	mov    $0x8,%esi
    12b8:	48 89 df             	mov    %rbx,%rdi
    12bb:	e8 10 04 00 00       	call   16d0 <riscv_dsp_absmax_val_f64>
    12c0:	f2 41 0f 11 47 f8    	movsd  %xmm0,-0x8(%r15)
    12c6:	4d 39 fd             	cmp    %r15,%r13
    12c9:	75 c5                	jne    1290 <main+0x130>
    12cb:	48 8b 8d 70 fd ff ff 	mov    -0x290(%rbp),%rcx
    12d2:	ba e2 04 00 00       	mov    $0x4e2,%edx
    12d7:	be 08 00 00 00       	mov    $0x8,%esi
    12dc:	48 8b bd 78 fd ff ff 	mov    -0x288(%rbp),%rdi
    12e3:	e8 f8 fd ff ff       	call   10e0 <fread@plt>
    12e8:	66 0f ef ff          	pxor   %xmm7,%xmm7
    12ec:	31 c0                	xor    %eax,%eax
    12ee:	66 0f 28 d7          	movapd %xmm7,%xmm2
    12f2:	eb 20                	jmp    1314 <main+0x1b4>
    12f4:	0f 1f 40 00          	nopl   0x0(%rax)
    12f8:	66 0f 28 d8          	movapd %xmm0,%xmm3
    12fc:	f2 0f 5c d9          	subsd  %xmm1,%xmm3
    1300:	f2 0f 5f da          	maxsd  %xmm2,%xmm3
    1304:	48 83 c0 08          	add    $0x8,%rax
    1308:	66 0f 28 d3          	movapd %xmm3,%xmm2
    130c:	48 3d 10 27 00 00    	cmp    $0x2710,%rax
    1312:	74 22                	je     1336 <main+0x1d6>
    1314:	48 8b 95 78 fd ff ff 	mov    -0x288(%rbp),%rdx
    131b:	f2 41 0f 10 0c 06    	movsd  (%r14,%rax,1),%xmm1
    1321:	f2 0f 10 04 02       	movsd  (%rdx,%rax,1),%xmm0
    1326:	66 0f 2f c1          	comisd %xmm1,%xmm0
    132a:	77 cc                	ja     12f8 <main+0x198>
    132c:	66 0f 28 d9          	movapd %xmm1,%xmm3
    1330:	f2 0f 5c d8          	subsd  %xmm0,%xmm3
    1334:	eb ca                	jmp    1300 <main+0x1a0>
    1336:	66 0f 28 c3          	movapd %xmm3,%xmm0
    133a:	bf 01 00 00 00       	mov    $0x1,%edi
    133f:	b8 01 00 00 00       	mov    $0x1,%eax
    1344:	48 8d 35 8b 0d 00 00 	lea    0xd8b(%rip),%rsi        # 20d6 <_IO_stdin_used+0xd6>
    134b:	e8 d0 fd ff ff       	call   1120 <__printf_chk@plt>
    1350:	4c 89 e7             	mov    %r12,%rdi
    1353:	e8 98 fd ff ff       	call   10f0 <fclose@plt>
    1358:	48 8b bd 70 fd ff ff 	mov    -0x290(%rbp),%rdi
    135f:	e8 8c fd ff ff       	call   10f0 <fclose@plt>
    1364:	66 0f ef db          	pxor   %xmm3,%xmm3
    1368:	66 0f ef ff          	pxor   %xmm7,%xmm7
    136c:	31 c0                	xor    %eax,%eax
    136e:	66 0f 28 f7          	movapd %xmm7,%xmm6
    1372:	66 0f 28 ef          	movapd %xmm7,%xmm5
    1376:	0f 28 e3             	movaps %xmm3,%xmm4
    1379:	44 0f 28 cb          	movaps %xmm3,%xmm9
    137d:	44 0f 28 c3          	movaps %xmm3,%xmm8
    1381:	eb 3f                	jmp    13c2 <main+0x262>
    1383:	0f 1f 44 00 00       	nopl   0x0(%rax,%rax,1)
    1388:	f2 0f 5c d0          	subsd  %xmm0,%xmm2
    138c:	66 0f ef c9          	pxor   %xmm1,%xmm1
    1390:	f2 0f 5a ca          	cvtsd2ss %xmm2,%xmm1
    1394:	f2 0f 59 c0          	mulsd  %xmm0,%xmm0
    1398:	0f 28 d1             	movaps %xmm1,%xmm2
    139b:	f3 0f 58 e1          	addss  %xmm1,%xmm4
    139f:	48 83 c0 08          	add    $0x8,%rax
    13a3:	f3 0f 59 c9          	mulss  %xmm1,%xmm1
    13a7:	f3 0f 5f d3          	maxss  %xmm3,%xmm2
    13ab:	0f 28 da             	movaps %xmm2,%xmm3
    13ae:	f2 0f 58 f0          	addsd  %xmm0,%xmm6
    13b2:	f3 0f 5a c9          	cvtss2sd %xmm1,%xmm1
    13b6:	f2 0f 58 e9          	addsd  %xmm1,%xmm5
    13ba:	48 3d 10 27 00 00    	cmp    $0x2710,%rax
    13c0:	74 5f                	je     1421 <main+0x2c1>
    13c2:	48 8b 8d 78 fd ff ff 	mov    -0x288(%rbp),%rcx
    13c9:	66 0f ef c9          	pxor   %xmm1,%xmm1
    13cd:	f2 41 0f 10 14 06    	movsd  (%r14,%rax,1),%xmm2
    13d3:	f3 41 0f 5a c8       	cvtss2sd %xmm8,%xmm1
    13d8:	f2 0f 10 04 01       	movsd  (%rcx,%rax,1),%xmm0
    13dd:	66 0f 2f c1          	comisd %xmm1,%xmm0
    13e1:	76 0a                	jbe    13ed <main+0x28d>
    13e3:	66 45 0f ef c0       	pxor   %xmm8,%xmm8
    13e8:	f2 44 0f 5a c0       	cvtsd2ss %xmm0,%xmm8
    13ed:	66 0f ef c9          	pxor   %xmm1,%xmm1
    13f1:	f3 41 0f 5a c9       	cvtss2sd %xmm9,%xmm1
    13f6:	66 0f 2f c8          	comisd %xmm0,%xmm1
    13fa:	76 0a                	jbe    1406 <main+0x2a6>
    13fc:	66 45 0f ef c9       	pxor   %xmm9,%xmm9
    1401:	f2 44 0f 5a c8       	cvtsd2ss %xmm0,%xmm9
    1406:	66 0f 2f d0          	comisd %xmm0,%xmm2
    140a:	0f 87 78 ff ff ff    	ja     1388 <main+0x228>
    1410:	66 0f 28 c8          	movapd %xmm0,%xmm1
    1414:	f2 0f 5c ca          	subsd  %xmm2,%xmm1
    1418:	f2 0f 5a c9          	cvtsd2ss %xmm1,%xmm1
    141c:	e9 73 ff ff ff       	jmp    1394 <main+0x234>
    1421:	66 0f 28 c5          	movapd %xmm5,%xmm0
    1425:	f2 0f 5e 05 e3 0c 00 	divsd  0xce3(%rip),%xmm0        # 2110 <_IO_stdin_used+0x110>
    142c:	00 
    142d:	66 0f 2e f8          	ucomisd %xmm0,%xmm7
    1431:	f3 0f 5e 25 cb 0c 00 	divss  0xccb(%rip),%xmm4        # 2104 <_IO_stdin_used+0x104>
    1438:	00 
    1439:	66 0f 7e e3          	movd   %xmm4,%ebx
    143d:	0f 87 35 01 00 00    	ja     1578 <main+0x418>
    1443:	f2 0f 51 c0          	sqrtsd %xmm0,%xmm0
    1447:	f3 45 0f 5c c1       	subss  %xmm9,%xmm8
    144c:	66 0f 2e ef          	ucomisd %xmm7,%xmm5
    1450:	66 0f ef c9          	pxor   %xmm1,%xmm1
    1454:	f2 0f 5a c8          	cvtsd2ss %xmm0,%xmm1
    1458:	0f 28 e1             	movaps %xmm1,%xmm4
    145b:	f3 41 0f 5e e0       	divss  %xmm8,%xmm4
    1460:	66 41 0f 7e e4       	movd   %xmm4,%r12d
    1465:	0f 8a c1 00 00 00    	jp     152c <main+0x3cc>
    146b:	f3 0f 10 25 8d 0c 00 	movss  0xc8d(%rip),%xmm4        # 2100 <_IO_stdin_used+0x100>
    1472:	00 
    1473:	0f 85 b3 00 00 00    	jne    152c <main+0x3cc>
    1479:	48 8d 3d 6a 0c 00 00 	lea    0xc6a(%rip),%rdi        # 20ea <_IO_stdin_used+0xea>
    1480:	f3 0f 11 a5 68 fd ff 	movss  %xmm4,-0x298(%rbp)
    1487:	ff 
    1488:	f3 0f 11 8d 70 fd ff 	movss  %xmm1,-0x290(%rbp)
    148f:	ff 
    1490:	f3 0f 11 9d 78 fd ff 	movss  %xmm3,-0x288(%rbp)
    1497:	ff 
    1498:	e8 33 fc ff ff       	call   10d0 <puts@plt>
    149d:	66 41 0f 6e fc       	movd   %r12d,%xmm7
    14a2:	66 0f 6e f3          	movd   %ebx,%xmm6
    14a6:	f3 0f 10 9d 78 fd ff 	movss  -0x288(%rbp),%xmm3
    14ad:	ff 
    14ae:	f3 0f 10 a5 68 fd ff 	movss  -0x298(%rbp),%xmm4
    14b5:	ff 
    14b6:	f3 0f 10 8d 70 fd ff 	movss  -0x290(%rbp),%xmm1
    14bd:	ff 
    14be:	66 0f ef d2          	pxor   %xmm2,%xmm2
    14c2:	66 0f ef c0          	pxor   %xmm0,%xmm0
    14c6:	48 8d 35 a3 0b 00 00 	lea    0xba3(%rip),%rsi        # 2070 <_IO_stdin_used+0x70>
    14cd:	f3 0f 5a d7          	cvtss2sd %xmm7,%xmm2
    14d1:	f3 0f 5a c6          	cvtss2sd %xmm6,%xmm0
    14d5:	f3 0f 5a db          	cvtss2sd %xmm3,%xmm3
    14d9:	bf 01 00 00 00       	mov    $0x1,%edi
    14de:	b8 05 00 00 00       	mov    $0x5,%eax
    14e3:	f3 0f 5a e4          	cvtss2sd %xmm4,%xmm4
    14e7:	f3 0f 5a c9          	cvtss2sd %xmm1,%xmm1
    14eb:	f2 0f 11 95 78 fd ff 	movsd  %xmm2,-0x288(%rbp)
    14f2:	ff 
    14f3:	e8 28 fc ff ff       	call   1120 <__printf_chk@plt>
    14f8:	f2 0f 10 05 18 0c 00 	movsd  0xc18(%rip),%xmm0        # 2118 <_IO_stdin_used+0x118>
    14ff:	00 
    1500:	f2 0f 10 95 78 fd ff 	movsd  -0x288(%rbp),%xmm2
    1507:	ff 
    1508:	66 0f 2f c2          	comisd %xmm2,%xmm0
    150c:	19 c0                	sbb    %eax,%eax
    150e:	48 8b 55 c8          	mov    -0x38(%rbp),%rdx
    1512:	64 48 2b 14 25 28 00 	sub    %fs:0x28,%rdx
    1519:	00 00 
    151b:	75 56                	jne    1573 <main+0x413>
    151d:	48 8d 65 d8          	lea    -0x28(%rbp),%rsp
    1521:	5b                   	pop    %rbx
    1522:	41 5c                	pop    %r12
    1524:	41 5d                	pop    %r13
    1526:	41 5e                	pop    %r14
    1528:	41 5f                	pop    %r15
    152a:	5d                   	pop    %rbp
    152b:	c3                   	ret    
    152c:	f2 0f 5e f5          	divsd  %xmm5,%xmm6
    1530:	66 0f ef c0          	pxor   %xmm0,%xmm0
    1534:	f3 0f 11 8d 70 fd ff 	movss  %xmm1,-0x290(%rbp)
    153b:	ff 
    153c:	f3 0f 11 9d 78 fd ff 	movss  %xmm3,-0x288(%rbp)
    1543:	ff 
    1544:	f2 0f 5a c6          	cvtsd2ss %xmm6,%xmm0
    1548:	e8 c3 fb ff ff       	call   1110 <log10f@plt>
    154d:	f3 0f 10 25 b3 0b 00 	movss  0xbb3(%rip),%xmm4        # 2108 <_IO_stdin_used+0x108>
    1554:	00 
    1555:	f3 0f 10 8d 70 fd ff 	movss  -0x290(%rbp),%xmm1
    155c:	ff 
    155d:	f3 0f 10 9d 78 fd ff 	movss  -0x288(%rbp),%xmm3
    1564:	ff 
    1565:	f3 0f 59 e0          	mulss  %xmm0,%xmm4
    1569:	e9 0b ff ff ff       	jmp    1479 <main+0x319>
    156e:	83 c8 ff             	or     $0xffffffff,%eax
    1571:	eb 9b                	jmp    150e <main+0x3ae>
    1573:	e8 88 fb ff ff       	call   1100 <__stack_chk_fail@plt>
    1578:	f3 44 0f 11 8d 5c fd 	movss  %xmm9,-0x2a4(%rbp)
    157f:	ff ff 
    1581:	f2 0f 11 b5 60 fd ff 	movsd  %xmm6,-0x2a0(%rbp)
    1588:	ff 
    1589:	f2 0f 11 ad 68 fd ff 	movsd  %xmm5,-0x298(%rbp)
    1590:	ff 
    1591:	f3 44 0f 11 85 78 fd 	movss  %xmm8,-0x288(%rbp)
    1598:	ff ff 
    159a:	f3 0f 11 95 70 fd ff 	movss  %xmm2,-0x290(%rbp)
    15a1:	ff 
    15a2:	e8 99 fb ff ff       	call   1140 <sqrt@plt>
    15a7:	f2 0f 10 b5 60 fd ff 	movsd  -0x2a0(%rbp),%xmm6
    15ae:	ff 
    15af:	66 0f ef ff          	pxor   %xmm7,%xmm7
    15b3:	f3 44 0f 10 8d 5c fd 	movss  -0x2a4(%rbp),%xmm9
    15ba:	ff ff 
    15bc:	f2 0f 10 ad 68 fd ff 	movsd  -0x298(%rbp),%xmm5
    15c3:	ff 
    15c4:	f3 0f 10 9d 70 fd ff 	movss  -0x290(%rbp),%xmm3
    15cb:	ff 
    15cc:	f3 44 0f 10 85 78 fd 	movss  -0x288(%rbp),%xmm8
    15d3:	ff ff 
    15d5:	e9 6d fe ff ff       	jmp    1447 <main+0x2e7>
    15da:	66 0f 1f 44 00 00    	nopw   0x0(%rax,%rax,1)

00000000000015e0 <_start>:
    15e0:	f3 0f 1e fa          	endbr64 
    15e4:	31 ed                	xor    %ebp,%ebp
    15e6:	49 89 d1             	mov    %rdx,%r9
    15e9:	5e                   	pop    %rsi
    15ea:	48 89 e2             	mov    %rsp,%rdx
    15ed:	48 83 e4 f0          	and    $0xfffffffffffffff0,%rsp
    15f1:	50                   	push   %rax
    15f2:	54                   	push   %rsp
    15f3:	45 31 c0             	xor    %r8d,%r8d
    15f6:	31 c9                	xor    %ecx,%ecx
    15f8:	48 8d 3d 61 fb ff ff 	lea    -0x49f(%rip),%rdi        # 1160 <main>
    15ff:	ff 15 d3 29 00 00    	call   *0x29d3(%rip)        # 3fd8 <__libc_start_main@GLIBC_2.34>
    1605:	f4                   	hlt    
    1606:	66 2e 0f 1f 84 00 00 	cs nopw 0x0(%rax,%rax,1)
    160d:	00 00 00 

0000000000001610 <deregister_tm_clones>:
    1610:	48 8d 3d f9 29 00 00 	lea    0x29f9(%rip),%rdi        # 4010 <__TMC_END__>
    1617:	48 8d 05 f2 29 00 00 	lea    0x29f2(%rip),%rax        # 4010 <__TMC_END__>
    161e:	48 39 f8             	cmp    %rdi,%rax
    1621:	74 15                	je     1638 <deregister_tm_clones+0x28>
    1623:	48 8b 05 b6 29 00 00 	mov    0x29b6(%rip),%rax        # 3fe0 <_ITM_deregisterTMCloneTable@Base>
    162a:	48 85 c0             	test   %rax,%rax
    162d:	74 09                	je     1638 <deregister_tm_clones+0x28>
    162f:	ff e0                	jmp    *%rax
    1631:	0f 1f 80 00 00 00 00 	nopl   0x0(%rax)
    1638:	c3                   	ret    
    1639:	0f 1f 80 00 00 00 00 	nopl   0x0(%rax)

0000000000001640 <register_tm_clones>:
    1640:	48 8d 3d c9 29 00 00 	lea    0x29c9(%rip),%rdi        # 4010 <__TMC_END__>
    1647:	48 8d 35 c2 29 00 00 	lea    0x29c2(%rip),%rsi        # 4010 <__TMC_END__>
    164e:	48 29 fe             	sub    %rdi,%rsi
    1651:	48 89 f0             	mov    %rsi,%rax
    1654:	48 c1 ee 3f          	shr    $0x3f,%rsi
    1658:	48 c1 f8 03          	sar    $0x3,%rax
    165c:	48 01 c6             	add    %rax,%rsi
    165f:	48 d1 fe             	sar    %rsi
    1662:	74 14                	je     1678 <register_tm_clones+0x38>
    1664:	48 8b 05 85 29 00 00 	mov    0x2985(%rip),%rax        # 3ff0 <_ITM_registerTMCloneTable@Base>
    166b:	48 85 c0             	test   %rax,%rax
    166e:	74 08                	je     1678 <register_tm_clones+0x38>
    1670:	ff e0                	jmp    *%rax
    1672:	66 0f 1f 44 00 00    	nopw   0x0(%rax,%rax,1)
    1678:	c3                   	ret    
    1679:	0f 1f 80 00 00 00 00 	nopl   0x0(%rax)

0000000000001680 <__do_global_dtors_aux>:
    1680:	f3 0f 1e fa          	endbr64 
    1684:	80 3d 85 29 00 00 00 	cmpb   $0x0,0x2985(%rip)        # 4010 <__TMC_END__>
    168b:	75 2b                	jne    16b8 <__do_global_dtors_aux+0x38>
    168d:	55                   	push   %rbp
    168e:	48 83 3d 62 29 00 00 	cmpq   $0x0,0x2962(%rip)        # 3ff8 <__cxa_finalize@GLIBC_2.2.5>
    1695:	00 
    1696:	48 89 e5             	mov    %rsp,%rbp
    1699:	74 0c                	je     16a7 <__do_global_dtors_aux+0x27>
    169b:	48 8b 3d 66 29 00 00 	mov    0x2966(%rip),%rdi        # 4008 <__dso_handle>
    16a2:	e8 19 fa ff ff       	call   10c0 <__cxa_finalize@plt>
    16a7:	e8 64 ff ff ff       	call   1610 <deregister_tm_clones>
    16ac:	c6 05 5d 29 00 00 01 	movb   $0x1,0x295d(%rip)        # 4010 <__TMC_END__>
    16b3:	5d                   	pop    %rbp
    16b4:	c3                   	ret    
    16b5:	0f 1f 00             	nopl   (%rax)
    16b8:	c3                   	ret    
    16b9:	0f 1f 80 00 00 00 00 	nopl   0x0(%rax)

00000000000016c0 <frame_dummy>:
    16c0:	f3 0f 1e fa          	endbr64 
    16c4:	e9 77 ff ff ff       	jmp    1640 <register_tm_clones>
    16c9:	0f 1f 80 00 00 00 00 	nopl   0x0(%rax)

00000000000016d0 <riscv_dsp_absmax_val_f64>:
    16d0:	f3 0f 1e fa          	endbr64 
    16d4:	f2 0f 10 05 44 0a 00 	movsd  0xa44(%rip),%xmm0        # 2120 <_IO_stdin_used+0x120>
    16db:	00 
    16dc:	85 f6                	test   %esi,%esi
    16de:	0f 84 cd 00 00 00    	je     17b1 <riscv_dsp_absmax_val_f64+0xe1>
    16e4:	83 ee 01             	sub    $0x1,%esi
    16e7:	f2 0f 10 07          	movsd  (%rdi),%xmm0
    16eb:	f3 0f 7e 0d 3d 0a 00 	movq   0xa3d(%rip),%xmm1        # 2130 <_IO_stdin_used+0x130>
    16f2:	00 
    16f3:	4c 8d 47 08          	lea    0x8(%rdi),%r8
    16f7:	89 f1                	mov    %esi,%ecx
    16f9:	c1 e9 02             	shr    $0x2,%ecx
    16fc:	66 0f 54 c1          	andpd  %xmm1,%xmm0
    1700:	74 6b                	je     176d <riscv_dsp_absmax_val_f64+0x9d>
    1702:	8d 41 ff             	lea    -0x1(%rcx),%eax
    1705:	48 c1 e0 05          	shl    $0x5,%rax
    1709:	48 8d 54 07 28       	lea    0x28(%rdi,%rax,1),%rdx
    170e:	4c 89 c0             	mov    %r8,%rax
    1711:	0f 1f 80 00 00 00 00 	nopl   0x0(%rax)
    1718:	f2 0f 10 10          	movsd  (%rax),%xmm2
    171c:	48 83 c0 20          	add    $0x20,%rax
    1720:	66 0f 28 ea          	movapd %xmm2,%xmm5
    1724:	f2 0f 10 50 e8       	movsd  -0x18(%rax),%xmm2
    1729:	66 0f 54 e9          	andpd  %xmm1,%xmm5
    172d:	f2 0f 5f e8          	maxsd  %xmm0,%xmm5
    1731:	66 0f 28 e2          	movapd %xmm2,%xmm4
    1735:	f2 0f 10 50 f0       	movsd  -0x10(%rax),%xmm2
    173a:	66 0f 54 e1          	andpd  %xmm1,%xmm4
    173e:	66 0f 28 da          	movapd %xmm2,%xmm3
    1742:	f2 0f 10 50 f8       	movsd  -0x8(%rax),%xmm2
    1747:	f2 0f 5f e5          	maxsd  %xmm5,%xmm4
    174b:	66 0f 54 d9          	andpd  %xmm1,%xmm3
    174f:	66 0f 54 d1          	andpd  %xmm1,%xmm2
    1753:	f2 0f 5f dc          	maxsd  %xmm4,%xmm3
    1757:	f2 0f 5f d3          	maxsd  %xmm3,%xmm2
    175b:	66 0f 28 c2          	movapd %xmm2,%xmm0
    175f:	48 39 d0             	cmp    %rdx,%rax
    1762:	75 b4                	jne    1718 <riscv_dsp_absmax_val_f64+0x48>
    1764:	89 c9                	mov    %ecx,%ecx
    1766:	48 c1 e1 05          	shl    $0x5,%rcx
    176a:	49 01 c8             	add    %rcx,%r8
    176d:	83 e6 03             	and    $0x3,%esi
    1770:	74 3f                	je     17b1 <riscv_dsp_absmax_val_f64+0xe1>
    1772:	f2 41 0f 10 10       	movsd  (%r8),%xmm2
    1777:	66 0f 54 d1          	andpd  %xmm1,%xmm2
    177b:	f2 0f 5f d0          	maxsd  %xmm0,%xmm2
    177f:	66 0f 28 c2          	movapd %xmm2,%xmm0
    1783:	83 ee 01             	sub    $0x1,%esi
    1786:	74 29                	je     17b1 <riscv_dsp_absmax_val_f64+0xe1>
    1788:	f2 41 0f 10 50 08    	movsd  0x8(%r8),%xmm2
    178e:	66 0f 54 d1          	andpd  %xmm1,%xmm2
    1792:	f2 0f 5f d0          	maxsd  %xmm0,%xmm2
    1796:	66 0f 28 c2          	movapd %xmm2,%xmm0
    179a:	83 fe 01             	cmp    $0x1,%esi
    179d:	74 12                	je     17b1 <riscv_dsp_absmax_val_f64+0xe1>
    179f:	f2 41 0f 10 50 10    	movsd  0x10(%r8),%xmm2
    17a5:	66 0f 54 ca          	andpd  %xmm2,%xmm1
    17a9:	f2 0f 5f c8          	maxsd  %xmm0,%xmm1
    17ad:	66 0f 28 c1          	movapd %xmm1,%xmm0
    17b1:	c3                   	ret    

Disassembly of section .fini:

00000000000017b4 <_fini>:
    17b4:	f3 0f 1e fa          	endbr64 
    17b8:	48 83 ec 08          	sub    $0x8,%rsp
    17bc:	48 83 c4 08          	add    $0x8,%rsp
    17c0:	c3                   	ret    
