
t_abs_q7:     file format elf64-x86-64


Disassembly of section .init:

0000000000001000 <_init>:
    1000:	f3 0f 1e fa          	endbr64 
    1004:	48 83 ec 08          	sub    $0x8,%rsp
    1008:	48 8b 05 d9 3f 00 00 	mov    0x3fd9(%rip),%rax        # 4fe8 <__gmon_start__@Base>
    100f:	48 85 c0             	test   %rax,%rax
    1012:	74 02                	je     1016 <_init+0x16>
    1014:	ff d0                	call   *%rax
    1016:	48 83 c4 08          	add    $0x8,%rsp
    101a:	c3                   	ret    

Disassembly of section .plt:

0000000000001020 <.plt>:
    1020:	ff 35 5a 3f 00 00    	push   0x3f5a(%rip)        # 4f80 <_GLOBAL_OFFSET_TABLE_+0x8>
    1026:	f2 ff 25 5b 3f 00 00 	bnd jmp *0x3f5b(%rip)        # 4f88 <_GLOBAL_OFFSET_TABLE_+0x10>
    102d:	0f 1f 00             	nopl   (%rax)
    1030:	f3 0f 1e fa          	endbr64 
    1034:	68 00 00 00 00       	push   $0x0
    1039:	f2 e9 e1 ff ff ff    	bnd jmp 1020 <_init+0x20>
    103f:	90                   	nop
    1040:	f3 0f 1e fa          	endbr64 
    1044:	68 01 00 00 00       	push   $0x1
    1049:	f2 e9 d1 ff ff ff    	bnd jmp 1020 <_init+0x20>
    104f:	90                   	nop
    1050:	f3 0f 1e fa          	endbr64 
    1054:	68 02 00 00 00       	push   $0x2
    1059:	f2 e9 c1 ff ff ff    	bnd jmp 1020 <_init+0x20>
    105f:	90                   	nop
    1060:	f3 0f 1e fa          	endbr64 
    1064:	68 03 00 00 00       	push   $0x3
    1069:	f2 e9 b1 ff ff ff    	bnd jmp 1020 <_init+0x20>
    106f:	90                   	nop
    1070:	f3 0f 1e fa          	endbr64 
    1074:	68 04 00 00 00       	push   $0x4
    1079:	f2 e9 a1 ff ff ff    	bnd jmp 1020 <_init+0x20>
    107f:	90                   	nop
    1080:	f3 0f 1e fa          	endbr64 
    1084:	68 05 00 00 00       	push   $0x5
    1089:	f2 e9 91 ff ff ff    	bnd jmp 1020 <_init+0x20>
    108f:	90                   	nop
    1090:	f3 0f 1e fa          	endbr64 
    1094:	68 06 00 00 00       	push   $0x6
    1099:	f2 e9 81 ff ff ff    	bnd jmp 1020 <_init+0x20>
    109f:	90                   	nop
    10a0:	f3 0f 1e fa          	endbr64 
    10a4:	68 07 00 00 00       	push   $0x7
    10a9:	f2 e9 71 ff ff ff    	bnd jmp 1020 <_init+0x20>
    10af:	90                   	nop
    10b0:	f3 0f 1e fa          	endbr64 
    10b4:	68 08 00 00 00       	push   $0x8
    10b9:	f2 e9 61 ff ff ff    	bnd jmp 1020 <_init+0x20>
    10bf:	90                   	nop

Disassembly of section .plt.got:

00000000000010c0 <__cxa_finalize@plt>:
    10c0:	f3 0f 1e fa          	endbr64 
    10c4:	f2 ff 25 2d 3f 00 00 	bnd jmp *0x3f2d(%rip)        # 4ff8 <__cxa_finalize@GLIBC_2.2.5>
    10cb:	0f 1f 44 00 00       	nopl   0x0(%rax,%rax,1)

Disassembly of section .plt.sec:

00000000000010d0 <puts@plt>:
    10d0:	f3 0f 1e fa          	endbr64 
    10d4:	f2 ff 25 b5 3e 00 00 	bnd jmp *0x3eb5(%rip)        # 4f90 <puts@GLIBC_2.2.5>
    10db:	0f 1f 44 00 00       	nopl   0x0(%rax,%rax,1)

00000000000010e0 <fread@plt>:
    10e0:	f3 0f 1e fa          	endbr64 
    10e4:	f2 ff 25 ad 3e 00 00 	bnd jmp *0x3ead(%rip)        # 4f98 <fread@GLIBC_2.2.5>
    10eb:	0f 1f 44 00 00       	nopl   0x0(%rax,%rax,1)

00000000000010f0 <fclose@plt>:
    10f0:	f3 0f 1e fa          	endbr64 
    10f4:	f2 ff 25 a5 3e 00 00 	bnd jmp *0x3ea5(%rip)        # 4fa0 <fclose@GLIBC_2.2.5>
    10fb:	0f 1f 44 00 00       	nopl   0x0(%rax,%rax,1)

0000000000001100 <__stack_chk_fail@plt>:
    1100:	f3 0f 1e fa          	endbr64 
    1104:	f2 ff 25 9d 3e 00 00 	bnd jmp *0x3e9d(%rip)        # 4fa8 <__stack_chk_fail@GLIBC_2.4>
    110b:	0f 1f 44 00 00       	nopl   0x0(%rax,%rax,1)

0000000000001110 <log10f@plt>:
    1110:	f3 0f 1e fa          	endbr64 
    1114:	f2 ff 25 95 3e 00 00 	bnd jmp *0x3e95(%rip)        # 4fb0 <log10f@GLIBC_2.2.5>
    111b:	0f 1f 44 00 00       	nopl   0x0(%rax,%rax,1)

0000000000001120 <__printf_chk@plt>:
    1120:	f3 0f 1e fa          	endbr64 
    1124:	f2 ff 25 8d 3e 00 00 	bnd jmp *0x3e8d(%rip)        # 4fb8 <__printf_chk@GLIBC_2.3.4>
    112b:	0f 1f 44 00 00       	nopl   0x0(%rax,%rax,1)

0000000000001130 <fopen@plt>:
    1130:	f3 0f 1e fa          	endbr64 
    1134:	f2 ff 25 85 3e 00 00 	bnd jmp *0x3e85(%rip)        # 4fc0 <fopen@GLIBC_2.2.5>
    113b:	0f 1f 44 00 00       	nopl   0x0(%rax,%rax,1)

0000000000001140 <sqrt@plt>:
    1140:	f3 0f 1e fa          	endbr64 
    1144:	f2 ff 25 7d 3e 00 00 	bnd jmp *0x3e7d(%rip)        # 4fc8 <sqrt@GLIBC_2.2.5>
    114b:	0f 1f 44 00 00       	nopl   0x0(%rax,%rax,1)

0000000000001150 <__sprintf_chk@plt>:
    1150:	f3 0f 1e fa          	endbr64 
    1154:	f2 ff 25 75 3e 00 00 	bnd jmp *0x3e75(%rip)        # 4fd0 <__sprintf_chk@GLIBC_2.3.4>
    115b:	0f 1f 44 00 00       	nopl   0x0(%rax,%rax,1)

Disassembly of section .text:

0000000000001160 <main>:
    1160:	f3 0f 1e fa          	endbr64 
    1164:	55                   	push   %rbp
    1165:	be 01 00 00 00       	mov    $0x1,%esi
    116a:	4c 8d 05 97 1e 00 00 	lea    0x1e97(%rip),%r8        # 3008 <_IO_stdin_used+0x8>
    1171:	48 8d 0d 22 1f 00 00 	lea    0x1f22(%rip),%rcx        # 309a <_IO_stdin_used+0x9a>
    1178:	ba 00 02 00 00       	mov    $0x200,%edx
    117d:	48 89 e5             	mov    %rsp,%rbp
    1180:	41 57                	push   %r15
    1182:	41 56                	push   %r14
    1184:	4c 8d 35 1f 1f 00 00 	lea    0x1f1f(%rip),%r14        # 30aa <_IO_stdin_used+0xaa>
    118b:	41 55                	push   %r13
    118d:	41 54                	push   %r12
    118f:	4c 8d a5 c0 fd ff ff 	lea    -0x240(%rbp),%r12
    1196:	53                   	push   %rbx
    1197:	4c 89 e7             	mov    %r12,%rdi
    119a:	48 81 ec 38 05 00 00 	sub    $0x538,%rsp
    11a1:	64 48 8b 04 25 28 00 	mov    %fs:0x28,%rax
    11a8:	00 00 
    11aa:	48 89 45 c8          	mov    %rax,-0x38(%rbp)
    11ae:	31 c0                	xor    %eax,%eax
    11b0:	e8 9b ff ff ff       	call   1150 <__sprintf_chk@plt>
    11b5:	4c 89 f6             	mov    %r14,%rsi
    11b8:	4c 89 e7             	mov    %r12,%rdi
    11bb:	e8 70 ff ff ff       	call   1130 <fopen@plt>
    11c0:	48 85 c0             	test   %rax,%rax
    11c3:	0f 84 06 06 00 00    	je     17cf <main+0x66f>
    11c9:	4c 89 e7             	mov    %r12,%rdi
    11cc:	ba 00 02 00 00       	mov    $0x200,%edx
    11d1:	be 01 00 00 00       	mov    $0x1,%esi
    11d6:	49 89 c5             	mov    %rax,%r13
    11d9:	4c 8d 05 28 1e 00 00 	lea    0x1e28(%rip),%r8        # 3008 <_IO_stdin_used+0x8>
    11e0:	48 8d 0d c5 1e 00 00 	lea    0x1ec5(%rip),%rcx        # 30ac <_IO_stdin_used+0xac>
    11e7:	31 c0                	xor    %eax,%eax
    11e9:	e8 62 ff ff ff       	call   1150 <__sprintf_chk@plt>
    11ee:	4c 89 e7             	mov    %r12,%rdi
    11f1:	4c 89 f6             	mov    %r14,%rsi
    11f4:	e8 37 ff ff ff       	call   1130 <fopen@plt>
    11f9:	49 89 c4             	mov    %rax,%r12
    11fc:	48 85 c0             	test   %rax,%rax
    11ff:	0f 84 ca 05 00 00    	je     17cf <main+0x66f>
    1205:	4c 8d b5 c0 fa ff ff 	lea    -0x540(%rbp),%r14
    120c:	4c 89 ee             	mov    %r13,%rsi
    120f:	4c 89 f7             	mov    %r14,%rdi
    1212:	e8 19 09 00 00       	call   1b30 <test_Fread.constprop.0.isra.0>
    1217:	48 8d 85 c0 fc ff ff 	lea    -0x340(%rbp),%rax
    121e:	4c 89 e6             	mov    %r12,%rsi
    1221:	48 89 c7             	mov    %rax,%rdi
    1224:	48 89 85 a0 fa ff ff 	mov    %rax,-0x560(%rbp)
    122b:	e8 00 09 00 00       	call   1b30 <test_Fread.constprop.0.isra.0>
    1230:	4c 89 ef             	mov    %r13,%rdi
    1233:	e8 b8 fe ff ff       	call   10f0 <fclose@plt>
    1238:	4c 89 e7             	mov    %r12,%rdi
    123b:	e8 b0 fe ff ff       	call   10f0 <fclose@plt>
    1240:	48 8d 85 c0 fb ff ff 	lea    -0x440(%rbp),%rax
    1247:	4c 89 f7             	mov    %r14,%rdi
    124a:	ba ff 00 00 00       	mov    $0xff,%edx
    124f:	48 89 c6             	mov    %rax,%rsi
    1252:	48 89 85 a8 fa ff ff 	mov    %rax,-0x558(%rbp)
    1259:	e8 f2 08 00 00       	call   1b50 <riscv_dsp_abs_q7>
    125e:	66 0f ef c0          	pxor   %xmm0,%xmm0
    1262:	66 0f 6f 8d c0 fb ff 	movdqa -0x440(%rbp),%xmm1
    1269:	ff 
    126a:	66 0f f8 8d c0 fc ff 	psubb  -0x340(%rbp),%xmm1
    1271:	ff 
    1272:	66 0f 6f d0          	movdqa %xmm0,%xmm2
    1276:	66 0f 6f d8          	movdqa %xmm0,%xmm3
    127a:	66 0f 6f e0          	movdqa %xmm0,%xmm4
    127e:	0f b6 95 b0 fc ff ff 	movzbl -0x350(%rbp),%edx
    1285:	66 0f f8 d1          	psubb  %xmm1,%xmm2
    1289:	66 0f da d1          	pminub %xmm1,%xmm2
    128d:	66 0f 6f 8d d0 fb ff 	movdqa -0x430(%rbp),%xmm1
    1294:	ff 
    1295:	66 0f f8 8d d0 fc ff 	psubb  -0x330(%rbp),%xmm1
    129c:	ff 
    129d:	66 0f f8 d9          	psubb  %xmm1,%xmm3
    12a1:	66 0f da d9          	pminub %xmm1,%xmm3
    12a5:	66 0f 6f ca          	movdqa %xmm2,%xmm1
    12a9:	66 0f 64 cb          	pcmpgtb %xmm3,%xmm1
    12ad:	66 0f db d1          	pand   %xmm1,%xmm2
    12b1:	66 0f df cb          	pandn  %xmm3,%xmm1
    12b5:	66 0f 6f 9d e0 fb ff 	movdqa -0x420(%rbp),%xmm3
    12bc:	ff 
    12bd:	66 0f f8 9d e0 fc ff 	psubb  -0x320(%rbp),%xmm3
    12c4:	ff 
    12c5:	66 0f eb ca          	por    %xmm2,%xmm1
    12c9:	66 0f 6f d0          	movdqa %xmm0,%xmm2
    12cd:	66 0f f8 d3          	psubb  %xmm3,%xmm2
    12d1:	66 0f da d3          	pminub %xmm3,%xmm2
    12d5:	66 0f 6f 9d f0 fb ff 	movdqa -0x410(%rbp),%xmm3
    12dc:	ff 
    12dd:	66 0f f8 9d f0 fc ff 	psubb  -0x310(%rbp),%xmm3
    12e4:	ff 
    12e5:	66 0f f8 e3          	psubb  %xmm3,%xmm4
    12e9:	66 0f da e3          	pminub %xmm3,%xmm4
    12ed:	66 0f 6f da          	movdqa %xmm2,%xmm3
    12f1:	66 0f 64 dc          	pcmpgtb %xmm4,%xmm3
    12f5:	66 0f db d3          	pand   %xmm3,%xmm2
    12f9:	66 0f df dc          	pandn  %xmm4,%xmm3
    12fd:	66 0f 6f e0          	movdqa %xmm0,%xmm4
    1301:	66 0f eb da          	por    %xmm2,%xmm3
    1305:	66 0f 6f d1          	movdqa %xmm1,%xmm2
    1309:	66 0f 64 d3          	pcmpgtb %xmm3,%xmm2
    130d:	66 0f db ca          	pand   %xmm2,%xmm1
    1311:	66 0f df d3          	pandn  %xmm3,%xmm2
    1315:	66 0f 6f d8          	movdqa %xmm0,%xmm3
    1319:	66 0f eb d1          	por    %xmm1,%xmm2
    131d:	66 0f 6f 8d 00 fc ff 	movdqa -0x400(%rbp),%xmm1
    1324:	ff 
    1325:	66 0f f8 8d 00 fd ff 	psubb  -0x300(%rbp),%xmm1
    132c:	ff 
    132d:	66 0f f8 d9          	psubb  %xmm1,%xmm3
    1331:	66 0f da d9          	pminub %xmm1,%xmm3
    1335:	66 0f 6f 8d 10 fc ff 	movdqa -0x3f0(%rbp),%xmm1
    133c:	ff 
    133d:	66 0f f8 8d 10 fd ff 	psubb  -0x2f0(%rbp),%xmm1
    1344:	ff 
    1345:	66 0f f8 e1          	psubb  %xmm1,%xmm4
    1349:	66 0f da e1          	pminub %xmm1,%xmm4
    134d:	66 0f 6f cb          	movdqa %xmm3,%xmm1
    1351:	66 0f 64 cc          	pcmpgtb %xmm4,%xmm1
    1355:	66 0f db d9          	pand   %xmm1,%xmm3
    1359:	66 0f df cc          	pandn  %xmm4,%xmm1
    135d:	66 0f 6f e0          	movdqa %xmm0,%xmm4
    1361:	66 0f eb cb          	por    %xmm3,%xmm1
    1365:	66 0f 6f d9          	movdqa %xmm1,%xmm3
    1369:	66 0f 64 d8          	pcmpgtb %xmm0,%xmm3
    136d:	66 0f db cb          	pand   %xmm3,%xmm1
    1371:	66 0f 6f da          	movdqa %xmm2,%xmm3
    1375:	66 0f 64 d9          	pcmpgtb %xmm1,%xmm3
    1379:	66 0f db d3          	pand   %xmm3,%xmm2
    137d:	66 0f df d9          	pandn  %xmm1,%xmm3
    1381:	66 0f eb da          	por    %xmm2,%xmm3
    1385:	66 0f 6f 95 20 fc ff 	movdqa -0x3e0(%rbp),%xmm2
    138c:	ff 
    138d:	66 0f f8 95 20 fd ff 	psubb  -0x2e0(%rbp),%xmm2
    1394:	ff 
    1395:	66 0f 6f cb          	movdqa %xmm3,%xmm1
    1399:	66 0f 6f d8          	movdqa %xmm0,%xmm3
    139d:	66 0f f8 da          	psubb  %xmm2,%xmm3
    13a1:	66 0f da da          	pminub %xmm2,%xmm3
    13a5:	66 0f 6f 95 30 fc ff 	movdqa -0x3d0(%rbp),%xmm2
    13ac:	ff 
    13ad:	66 0f f8 95 30 fd ff 	psubb  -0x2d0(%rbp),%xmm2
    13b4:	ff 
    13b5:	66 0f f8 e2          	psubb  %xmm2,%xmm4
    13b9:	66 0f da e2          	pminub %xmm2,%xmm4
    13bd:	66 0f 6f d3          	movdqa %xmm3,%xmm2
    13c1:	66 0f 64 d4          	pcmpgtb %xmm4,%xmm2
    13c5:	66 0f db da          	pand   %xmm2,%xmm3
    13c9:	66 0f df d4          	pandn  %xmm4,%xmm2
    13cd:	66 0f 6f e0          	movdqa %xmm0,%xmm4
    13d1:	66 0f eb d3          	por    %xmm3,%xmm2
    13d5:	66 0f 6f 9d 40 fc ff 	movdqa -0x3c0(%rbp),%xmm3
    13dc:	ff 
    13dd:	66 0f f8 9d 40 fd ff 	psubb  -0x2c0(%rbp),%xmm3
    13e4:	ff 
    13e5:	66 0f f8 e3          	psubb  %xmm3,%xmm4
    13e9:	66 0f da e3          	pminub %xmm3,%xmm4
    13ed:	66 0f 6f da          	movdqa %xmm2,%xmm3
    13f1:	66 0f 64 dc          	pcmpgtb %xmm4,%xmm3
    13f5:	66 0f db d3          	pand   %xmm3,%xmm2
    13f9:	66 0f df dc          	pandn  %xmm4,%xmm3
    13fd:	66 0f 6f e0          	movdqa %xmm0,%xmm4
    1401:	66 0f eb da          	por    %xmm2,%xmm3
    1405:	66 0f 6f d1          	movdqa %xmm1,%xmm2
    1409:	66 0f 64 d3          	pcmpgtb %xmm3,%xmm2
    140d:	66 0f db ca          	pand   %xmm2,%xmm1
    1411:	66 0f df d3          	pandn  %xmm3,%xmm2
    1415:	66 0f 6f d8          	movdqa %xmm0,%xmm3
    1419:	66 0f eb d1          	por    %xmm1,%xmm2
    141d:	66 0f 6f 8d 50 fc ff 	movdqa -0x3b0(%rbp),%xmm1
    1424:	ff 
    1425:	66 0f f8 8d 50 fd ff 	psubb  -0x2b0(%rbp),%xmm1
    142c:	ff 
    142d:	66 0f f8 d9          	psubb  %xmm1,%xmm3
    1431:	66 0f da d9          	pminub %xmm1,%xmm3
    1435:	66 0f 6f 8d 60 fc ff 	movdqa -0x3a0(%rbp),%xmm1
    143c:	ff 
    143d:	66 0f f8 8d 60 fd ff 	psubb  -0x2a0(%rbp),%xmm1
    1444:	ff 
    1445:	66 0f f8 e1          	psubb  %xmm1,%xmm4
    1449:	66 0f da e1          	pminub %xmm1,%xmm4
    144d:	66 0f 6f cb          	movdqa %xmm3,%xmm1
    1451:	66 0f 64 cc          	pcmpgtb %xmm4,%xmm1
    1455:	66 0f db d9          	pand   %xmm1,%xmm3
    1459:	66 0f df cc          	pandn  %xmm4,%xmm1
    145d:	66 0f 6f e0          	movdqa %xmm0,%xmm4
    1461:	66 0f eb cb          	por    %xmm3,%xmm1
    1465:	66 0f 6f 9d 70 fc ff 	movdqa -0x390(%rbp),%xmm3
    146c:	ff 
    146d:	66 0f f8 9d 70 fd ff 	psubb  -0x290(%rbp),%xmm3
    1474:	ff 
    1475:	66 0f f8 e3          	psubb  %xmm3,%xmm4
    1479:	66 0f da e3          	pminub %xmm3,%xmm4
    147d:	66 0f 6f d9          	movdqa %xmm1,%xmm3
    1481:	66 0f 64 dc          	pcmpgtb %xmm4,%xmm3
    1485:	66 0f db cb          	pand   %xmm3,%xmm1
    1489:	66 0f df dc          	pandn  %xmm4,%xmm3
    148d:	66 0f 6f e0          	movdqa %xmm0,%xmm4
    1491:	66 0f eb d9          	por    %xmm1,%xmm3
    1495:	66 0f 6f ca          	movdqa %xmm2,%xmm1
    1499:	66 0f 64 cb          	pcmpgtb %xmm3,%xmm1
    149d:	66 0f db d1          	pand   %xmm1,%xmm2
    14a1:	66 0f df cb          	pandn  %xmm3,%xmm1
    14a5:	66 0f 6f d8          	movdqa %xmm0,%xmm3
    14a9:	66 0f eb ca          	por    %xmm2,%xmm1
    14ad:	66 0f 6f 95 80 fc ff 	movdqa -0x380(%rbp),%xmm2
    14b4:	ff 
    14b5:	66 0f f8 95 80 fd ff 	psubb  -0x280(%rbp),%xmm2
    14bc:	ff 
    14bd:	66 0f f8 da          	psubb  %xmm2,%xmm3
    14c1:	66 0f da da          	pminub %xmm2,%xmm3
    14c5:	66 0f 6f 95 90 fc ff 	movdqa -0x370(%rbp),%xmm2
    14cc:	ff 
    14cd:	66 0f f8 95 90 fd ff 	psubb  -0x270(%rbp),%xmm2
    14d4:	ff 
    14d5:	66 0f f8 e2          	psubb  %xmm2,%xmm4
    14d9:	66 0f da e2          	pminub %xmm2,%xmm4
    14dd:	66 0f 6f d3          	movdqa %xmm3,%xmm2
    14e1:	66 0f 64 d4          	pcmpgtb %xmm4,%xmm2
    14e5:	66 0f db da          	pand   %xmm2,%xmm3
    14e9:	66 0f df d4          	pandn  %xmm4,%xmm2
    14ed:	66 0f eb d3          	por    %xmm3,%xmm2
    14f1:	66 0f 6f 9d a0 fc ff 	movdqa -0x360(%rbp),%xmm3
    14f8:	ff 
    14f9:	66 0f f8 9d a0 fd ff 	psubb  -0x260(%rbp),%xmm3
    1500:	ff 
    1501:	66 0f f8 c3          	psubb  %xmm3,%xmm0
    1505:	66 0f da c3          	pminub %xmm3,%xmm0
    1509:	66 0f 6f da          	movdqa %xmm2,%xmm3
    150d:	66 0f 64 d8          	pcmpgtb %xmm0,%xmm3
    1511:	66 0f db d3          	pand   %xmm3,%xmm2
    1515:	66 0f df d8          	pandn  %xmm0,%xmm3
    1519:	66 0f 6f c1          	movdqa %xmm1,%xmm0
    151d:	66 0f eb d3          	por    %xmm3,%xmm2
    1521:	66 0f 64 c2          	pcmpgtb %xmm2,%xmm0
    1525:	66 0f db c8          	pand   %xmm0,%xmm1
    1529:	66 0f df c2          	pandn  %xmm2,%xmm0
    152d:	66 0f eb c8          	por    %xmm0,%xmm1
    1531:	66 0f 6f d1          	movdqa %xmm1,%xmm2
    1535:	66 0f 73 da 08       	psrldq $0x8,%xmm2
    153a:	66 0f 6f c2          	movdqa %xmm2,%xmm0
    153e:	66 0f 64 c1          	pcmpgtb %xmm1,%xmm0
    1542:	66 0f db d0          	pand   %xmm0,%xmm2
    1546:	66 0f df c1          	pandn  %xmm1,%xmm0
    154a:	66 0f eb c2          	por    %xmm2,%xmm0
    154e:	66 0f 6f d0          	movdqa %xmm0,%xmm2
    1552:	66 0f 73 da 04       	psrldq $0x4,%xmm2
    1557:	66 0f 6f ca          	movdqa %xmm2,%xmm1
    155b:	66 0f 64 c8          	pcmpgtb %xmm0,%xmm1
    155f:	66 0f db d1          	pand   %xmm1,%xmm2
    1563:	66 0f df c8          	pandn  %xmm0,%xmm1
    1567:	66 0f eb ca          	por    %xmm2,%xmm1
    156b:	66 0f 6f d1          	movdqa %xmm1,%xmm2
    156f:	66 0f 73 da 02       	psrldq $0x2,%xmm2
    1574:	66 0f 6f c2          	movdqa %xmm2,%xmm0
    1578:	66 0f 64 c1          	pcmpgtb %xmm1,%xmm0
    157c:	66 0f db d0          	pand   %xmm0,%xmm2
    1580:	66 0f df c1          	pandn  %xmm1,%xmm0
    1584:	66 0f eb c2          	por    %xmm2,%xmm0
    1588:	66 0f 6f d0          	movdqa %xmm0,%xmm2
    158c:	66 0f 73 da 01       	psrldq $0x1,%xmm2
    1591:	66 0f 6f ca          	movdqa %xmm2,%xmm1
    1595:	66 0f 64 c8          	pcmpgtb %xmm0,%xmm1
    1599:	66 0f db d1          	pand   %xmm1,%xmm2
    159d:	66 0f df c8          	pandn  %xmm0,%xmm1
    15a1:	66 0f eb ca          	por    %xmm2,%xmm1
    15a5:	66 0f 7e 8d b0 fa ff 	movd   %xmm1,-0x550(%rbp)
    15ac:	ff 
    15ad:	2a 95 b0 fd ff ff    	sub    -0x250(%rbp),%dl
    15b3:	89 d0                	mov    %edx,%eax
    15b5:	f6 d8                	neg    %al
    15b7:	0f 48 c2             	cmovs  %edx,%eax
    15ba:	0f b6 95 b1 fc ff ff 	movzbl -0x34f(%rbp),%edx
    15c1:	2a 95 b1 fd ff ff    	sub    -0x24f(%rbp),%dl
    15c7:	41 89 d7             	mov    %edx,%r15d
    15ca:	41 f6 df             	neg    %r15b
    15cd:	44 0f 48 fa          	cmovs  %edx,%r15d
    15d1:	0f b6 95 b2 fc ff ff 	movzbl -0x34e(%rbp),%edx
    15d8:	2a 95 b2 fd ff ff    	sub    -0x24e(%rbp),%dl
    15de:	41 89 d6             	mov    %edx,%r14d
    15e1:	41 f6 de             	neg    %r14b
    15e4:	44 0f 48 f2          	cmovs  %edx,%r14d
    15e8:	0f b6 95 b3 fc ff ff 	movzbl -0x34d(%rbp),%edx
    15ef:	2a 95 b3 fd ff ff    	sub    -0x24d(%rbp),%dl
    15f5:	41 89 d5             	mov    %edx,%r13d
    15f8:	41 f6 dd             	neg    %r13b
    15fb:	44 0f 48 ea          	cmovs  %edx,%r13d
    15ff:	0f b6 95 b4 fc ff ff 	movzbl -0x34c(%rbp),%edx
    1606:	2a 95 b4 fd ff ff    	sub    -0x24c(%rbp),%dl
    160c:	41 89 d4             	mov    %edx,%r12d
    160f:	41 f6 dc             	neg    %r12b
    1612:	44 0f 48 e2          	cmovs  %edx,%r12d
    1616:	0f b6 95 b5 fc ff ff 	movzbl -0x34b(%rbp),%edx
    161d:	2a 95 b5 fd ff ff    	sub    -0x24b(%rbp),%dl
    1623:	89 d3                	mov    %edx,%ebx
    1625:	f6 db                	neg    %bl
    1627:	0f 48 da             	cmovs  %edx,%ebx
    162a:	0f b6 95 b6 fc ff ff 	movzbl -0x34a(%rbp),%edx
    1631:	2a 95 b6 fd ff ff    	sub    -0x24a(%rbp),%dl
    1637:	41 89 d3             	mov    %edx,%r11d
    163a:	41 f6 db             	neg    %r11b
    163d:	44 0f 48 da          	cmovs  %edx,%r11d
    1641:	0f b6 95 b7 fc ff ff 	movzbl -0x349(%rbp),%edx
    1648:	2a 95 b7 fd ff ff    	sub    -0x249(%rbp),%dl
    164e:	41 89 d2             	mov    %edx,%r10d
    1651:	41 f6 da             	neg    %r10b
    1654:	44 0f 48 d2          	cmovs  %edx,%r10d
    1658:	0f b6 95 b8 fc ff ff 	movzbl -0x348(%rbp),%edx
    165f:	2a 95 b8 fd ff ff    	sub    -0x248(%rbp),%dl
    1665:	41 89 d1             	mov    %edx,%r9d
    1668:	41 f6 d9             	neg    %r9b
    166b:	44 0f 48 ca          	cmovs  %edx,%r9d
    166f:	0f b6 95 b9 fc ff ff 	movzbl -0x347(%rbp),%edx
    1676:	2a 95 b9 fd ff ff    	sub    -0x247(%rbp),%dl
    167c:	89 d1                	mov    %edx,%ecx
    167e:	f6 d9                	neg    %cl
    1680:	0f 49 d1             	cmovns %ecx,%edx
    1683:	88 95 b8 fa ff ff    	mov    %dl,-0x548(%rbp)
    1689:	0f b6 95 ba fc ff ff 	movzbl -0x346(%rbp),%edx
    1690:	2a 95 ba fd ff ff    	sub    -0x246(%rbp),%dl
    1696:	89 d1                	mov    %edx,%ecx
    1698:	89 d6                	mov    %edx,%esi
    169a:	0f b6 95 bb fc ff ff 	movzbl -0x345(%rbp),%edx
    16a1:	f6 d9                	neg    %cl
    16a3:	0f 49 f1             	cmovns %ecx,%esi
    16a6:	2a 95 bb fd ff ff    	sub    -0x245(%rbp),%dl
    16ac:	41 89 d0             	mov    %edx,%r8d
    16af:	41 f6 d8             	neg    %r8b
    16b2:	40 88 b5 b4 fa ff ff 	mov    %sil,-0x54c(%rbp)
    16b9:	44 0f 48 c2          	cmovs  %edx,%r8d
    16bd:	0f b6 95 bc fc ff ff 	movzbl -0x344(%rbp),%edx
    16c4:	2a 95 bc fd ff ff    	sub    -0x244(%rbp),%dl
    16ca:	89 d7                	mov    %edx,%edi
    16cc:	40 f6 df             	neg    %dil
    16cf:	0f 48 fa             	cmovs  %edx,%edi
    16d2:	0f b6 95 bd fc ff ff 	movzbl -0x343(%rbp),%edx
    16d9:	2a 95 bd fd ff ff    	sub    -0x243(%rbp),%dl
    16df:	89 d6                	mov    %edx,%esi
    16e1:	40 f6 de             	neg    %sil
    16e4:	0f 48 f2             	cmovs  %edx,%esi
    16e7:	0f b6 95 be fc ff ff 	movzbl -0x342(%rbp),%edx
    16ee:	2a 95 be fd ff ff    	sub    -0x242(%rbp),%dl
    16f4:	89 d1                	mov    %edx,%ecx
    16f6:	f6 d9                	neg    %cl
    16f8:	0f 48 ca             	cmovs  %edx,%ecx
    16fb:	44 38 f8             	cmp    %r15b,%al
    16fe:	41 0f 4c c7          	cmovl  %r15d,%eax
    1702:	44 38 f0             	cmp    %r14b,%al
    1705:	41 0f 4c c6          	cmovl  %r14d,%eax
    1709:	44 38 e8             	cmp    %r13b,%al
    170c:	41 0f 4c c5          	cmovl  %r13d,%eax
    1710:	44 38 e0             	cmp    %r12b,%al
    1713:	41 0f 4c c4          	cmovl  %r12d,%eax
    1717:	38 d8                	cmp    %bl,%al
    1719:	0f 4d d8             	cmovge %eax,%ebx
    171c:	0f b6 85 b8 fa ff ff 	movzbl -0x548(%rbp),%eax
    1723:	44 38 db             	cmp    %r11b,%bl
    1726:	89 da                	mov    %ebx,%edx
    1728:	41 0f 4c d3          	cmovl  %r11d,%edx
    172c:	44 38 d2             	cmp    %r10b,%dl
    172f:	41 0f 4c d2          	cmovl  %r10d,%edx
    1733:	44 38 ca             	cmp    %r9b,%dl
    1736:	41 0f 4c d1          	cmovl  %r9d,%edx
    173a:	38 c2                	cmp    %al,%dl
    173c:	0f 4c d0             	cmovl  %eax,%edx
    173f:	0f b6 85 b4 fa ff ff 	movzbl -0x54c(%rbp),%eax
    1746:	38 c2                	cmp    %al,%dl
    1748:	0f 4c d0             	cmovl  %eax,%edx
    174b:	0f b6 85 b0 fa ff ff 	movzbl -0x550(%rbp),%eax
    1752:	44 38 c2             	cmp    %r8b,%dl
    1755:	41 0f 4c d0          	cmovl  %r8d,%edx
    1759:	40 38 fa             	cmp    %dil,%dl
    175c:	0f 4c d7             	cmovl  %edi,%edx
    175f:	bf 01 00 00 00       	mov    $0x1,%edi
    1764:	40 38 f2             	cmp    %sil,%dl
    1767:	0f 4c d6             	cmovl  %esi,%edx
    176a:	48 8d 35 50 19 00 00 	lea    0x1950(%rip),%rsi        # 30c1 <_IO_stdin_used+0xc1>
    1771:	38 ca                	cmp    %cl,%dl
    1773:	0f 4c d1             	cmovl  %ecx,%edx
    1776:	38 c2                	cmp    %al,%dl
    1778:	0f 4c d0             	cmovl  %eax,%edx
    177b:	31 c0                	xor    %eax,%eax
    177d:	0f be d2             	movsbl %dl,%edx
    1780:	e8 9b f9 ff ff       	call   1120 <__printf_chk@plt>
    1785:	48 89 e0             	mov    %rsp,%rax
    1788:	48 39 c4             	cmp    %rax,%rsp
    178b:	74 15                	je     17a2 <main+0x642>
    178d:	48 81 ec 00 10 00 00 	sub    $0x1000,%rsp
    1794:	48 83 8c 24 f8 0f 00 	orq    $0x0,0xff8(%rsp)
    179b:	00 00 
    179d:	48 39 c4             	cmp    %rax,%rsp
    17a0:	75 eb                	jne    178d <main+0x62d>
    17a2:	48 81 ec 00 04 00 00 	sub    $0x400,%rsp
    17a9:	48 83 8c 24 f8 03 00 	orq    $0x0,0x3f8(%rsp)
    17b0:	00 00 
    17b2:	48 89 e3             	mov    %rsp,%rbx
    17b5:	48 89 e0             	mov    %rsp,%rax
    17b8:	48 39 c4             	cmp    %rax,%rsp
    17bb:	74 37                	je     17f4 <main+0x694>
    17bd:	48 81 ec 00 10 00 00 	sub    $0x1000,%rsp
    17c4:	48 83 8c 24 f8 0f 00 	orq    $0x0,0xff8(%rsp)
    17cb:	00 00 
    17cd:	eb e9                	jmp    17b8 <main+0x658>
    17cf:	83 c8 ff             	or     $0xffffffff,%eax
    17d2:	48 8b 55 c8          	mov    -0x38(%rbp),%rdx
    17d6:	64 48 2b 14 25 28 00 	sub    %fs:0x28,%rdx
    17dd:	00 00 
    17df:	0f 85 4a 02 00 00    	jne    1a2f <main+0x8cf>
    17e5:	48 8d 65 d8          	lea    -0x28(%rbp),%rsp
    17e9:	5b                   	pop    %rbx
    17ea:	41 5c                	pop    %r12
    17ec:	41 5d                	pop    %r13
    17ee:	41 5e                	pop    %r14
    17f0:	41 5f                	pop    %r15
    17f2:	5d                   	pop    %rbp
    17f3:	c3                   	ret    
    17f4:	48 81 ec 00 04 00 00 	sub    $0x400,%rsp
    17fb:	48 83 8c 24 f8 03 00 	orq    $0x0,0x3f8(%rsp)
    1802:	00 00 
    1804:	ba ff 00 00 00       	mov    $0xff,%edx
    1809:	48 8b bd a0 fa ff ff 	mov    -0x560(%rbp),%rdi
    1810:	48 89 de             	mov    %rbx,%rsi
    1813:	49 89 e4             	mov    %rsp,%r12
    1816:	e8 85 06 00 00       	call   1ea0 <riscv_dsp_convert_q7_f32>
    181b:	48 8b bd a8 fa ff ff 	mov    -0x558(%rbp),%rdi
    1822:	ba ff 00 00 00       	mov    $0xff,%edx
    1827:	4c 89 e6             	mov    %r12,%rsi
    182a:	e8 71 06 00 00       	call   1ea0 <riscv_dsp_convert_q7_f32>
    182f:	66 0f ef db          	pxor   %xmm3,%xmm3
    1833:	66 0f ef ff          	pxor   %xmm7,%xmm7
    1837:	31 c0                	xor    %eax,%eax
    1839:	66 0f 28 f7          	movapd %xmm7,%xmm6
    183d:	0f 28 c3             	movaps %xmm3,%xmm0
    1840:	44 0f 28 c3          	movaps %xmm3,%xmm8
    1844:	f3 44 0f 10 0d b3 18 	movss  0x18b3(%rip),%xmm9        # 3100 <_IO_stdin_used+0x100>
    184b:	00 00 
    184d:	0f 28 eb             	movaps %xmm3,%xmm5
    1850:	f3 41 0f 10 0c 04    	movss  (%r12,%rax,1),%xmm1
    1856:	f3 0f 10 14 03       	movss  (%rbx,%rax,1),%xmm2
    185b:	66 0f 7e c9          	movd   %xmm1,%ecx
    185f:	81 f9 00 00 c0 7f    	cmp    $0x7fc00000,%ecx
    1865:	0f 84 64 ff ff ff    	je     17cf <main+0x66f>
    186b:	0f 28 e2             	movaps %xmm2,%xmm4
    186e:	f3 0f 5c ca          	subss  %xmm2,%xmm1
    1872:	48 83 c0 04          	add    $0x4,%rax
    1876:	f3 0f 5f e5          	maxss  %xmm5,%xmm4
    187a:	0f 28 ec             	movaps %xmm4,%xmm5
    187d:	0f 28 e2             	movaps %xmm2,%xmm4
    1880:	f3 41 0f 5d e0       	minss  %xmm8,%xmm4
    1885:	f3 0f 59 d2          	mulss  %xmm2,%xmm2
    1889:	44 0f 28 c4          	movaps %xmm4,%xmm8
    188d:	0f 28 e1             	movaps %xmm1,%xmm4
    1890:	f3 0f 59 c9          	mulss  %xmm1,%xmm1
    1894:	41 0f 54 e1          	andps  %xmm9,%xmm4
    1898:	f3 0f 58 c4          	addss  %xmm4,%xmm0
    189c:	f3 0f 5f e3          	maxss  %xmm3,%xmm4
    18a0:	f3 0f 5a d2          	cvtss2sd %xmm2,%xmm2
    18a4:	f2 0f 58 fa          	addsd  %xmm2,%xmm7
    18a8:	0f 28 dc             	movaps %xmm4,%xmm3
    18ab:	f3 0f 5a c9          	cvtss2sd %xmm1,%xmm1
    18af:	f2 0f 58 f1          	addsd  %xmm1,%xmm6
    18b3:	48 3d fc 03 00 00    	cmp    $0x3fc,%rax
    18b9:	75 95                	jne    1850 <main+0x6f0>
    18bb:	66 48 0f 7e f0       	movq   %xmm6,%rax
    18c0:	f3 0f 11 a5 a8 fa ff 	movss  %xmm4,-0x558(%rbp)
    18c7:	ff 
    18c8:	f3 44 0f 11 85 b0 fa 	movss  %xmm8,-0x550(%rbp)
    18cf:	ff ff 
    18d1:	f3 0f 11 ad b4 fa ff 	movss  %xmm5,-0x54c(%rbp)
    18d8:	ff 
    18d9:	f2 0f 11 bd b8 fa ff 	movsd  %xmm7,-0x548(%rbp)
    18e0:	ff 
    18e1:	3d 00 00 c0 7f       	cmp    $0x7fc00000,%eax
    18e6:	0f 84 e3 fe ff ff    	je     17cf <main+0x66f>
    18ec:	f3 0f 5e 05 fc 17 00 	divss  0x17fc(%rip),%xmm0        # 30f0 <_IO_stdin_used+0xf0>
    18f3:	00 
    18f4:	f2 0f 11 b5 a0 fa ff 	movsd  %xmm6,-0x560(%rbp)
    18fb:	ff 
    18fc:	66 41 0f 7e c5       	movd   %xmm0,%r13d
    1901:	66 0f 28 c6          	movapd %xmm6,%xmm0
    1905:	f2 0f 5e 05 03 18 00 	divsd  0x1803(%rip),%xmm0        # 3110 <_IO_stdin_used+0x110>
    190c:	00 
    190d:	e8 2e f8 ff ff       	call   1140 <sqrt@plt>
    1912:	f3 0f 10 ad b4 fa ff 	movss  -0x54c(%rbp),%xmm5
    1919:	ff 
    191a:	f3 44 0f 10 85 b0 fa 	movss  -0x550(%rbp),%xmm8
    1921:	ff ff 
    1923:	66 0f ef f6          	pxor   %xmm6,%xmm6
    1927:	f3 0f 10 9d a8 fa ff 	movss  -0x558(%rbp),%xmm3
    192e:	ff 
    192f:	f3 41 0f 5c e8       	subss  %xmm8,%xmm5
    1934:	f2 0f 5a f0          	cvtsd2ss %xmm0,%xmm6
    1938:	0f 28 fe             	movaps %xmm6,%xmm7
    193b:	66 0f 7e f3          	movd   %xmm6,%ebx
    193f:	f2 0f 10 b5 a0 fa ff 	movsd  -0x560(%rbp),%xmm6
    1946:	ff 
    1947:	f3 0f 5e fd          	divss  %xmm5,%xmm7
    194b:	66 41 0f 7e fc       	movd   %xmm7,%r12d
    1950:	66 0f ef ff          	pxor   %xmm7,%xmm7
    1954:	66 0f 2e f7          	ucomisd %xmm7,%xmm6
    1958:	f2 0f 10 bd b8 fa ff 	movsd  -0x548(%rbp),%xmm7
    195f:	ff 
    1960:	0f 8a 96 00 00 00    	jp     19fc <main+0x89c>
    1966:	44 8b 35 7f 17 00 00 	mov    0x177f(%rip),%r14d        # 30ec <_IO_stdin_used+0xec>
    196d:	0f 85 89 00 00 00    	jne    19fc <main+0x89c>
    1973:	48 8d 3d 5a 17 00 00 	lea    0x175a(%rip),%rdi        # 30d4 <_IO_stdin_used+0xd4>
    197a:	f3 0f 11 9d b8 fa ff 	movss  %xmm3,-0x548(%rbp)
    1981:	ff 
    1982:	e8 49 f7 ff ff       	call   10d0 <puts@plt>
    1987:	66 41 0f 6e fd       	movd   %r13d,%xmm7
    198c:	66 41 0f 6e f6       	movd   %r14d,%xmm6
    1991:	f3 0f 10 9d b8 fa ff 	movss  -0x548(%rbp),%xmm3
    1998:	ff 
    1999:	66 0f ef c0          	pxor   %xmm0,%xmm0
    199d:	66 0f ef e4          	pxor   %xmm4,%xmm4
    19a1:	66 0f ef d2          	pxor   %xmm2,%xmm2
    19a5:	bf 01 00 00 00       	mov    $0x1,%edi
    19aa:	f3 0f 5a c7          	cvtss2sd %xmm7,%xmm0
    19ae:	f3 0f 5a e6          	cvtss2sd %xmm6,%xmm4
    19b2:	66 0f ef c9          	pxor   %xmm1,%xmm1
    19b6:	66 41 0f 6e fc       	movd   %r12d,%xmm7
    19bb:	66 0f 6e f3          	movd   %ebx,%xmm6
    19bf:	48 8d 35 82 16 00 00 	lea    0x1682(%rip),%rsi        # 3048 <_IO_stdin_used+0x48>
    19c6:	f3 0f 5a d7          	cvtss2sd %xmm7,%xmm2
    19ca:	f3 0f 5a db          	cvtss2sd %xmm3,%xmm3
    19ce:	b8 05 00 00 00       	mov    $0x5,%eax
    19d3:	f3 0f 5a ce          	cvtss2sd %xmm6,%xmm1
    19d7:	e8 44 f7 ff ff       	call   1120 <__printf_chk@plt>
    19dc:	66 41 0f 6e fc       	movd   %r12d,%xmm7
    19e1:	66 0f ef f6          	pxor   %xmm6,%xmm6
    19e5:	31 c0                	xor    %eax,%eax
    19e7:	0f 2e fe             	ucomiss %xmm6,%xmm7
    19ea:	ba 01 00 00 00       	mov    $0x1,%edx
    19ef:	0f 9a c0             	setp   %al
    19f2:	0f 45 c2             	cmovne %edx,%eax
    19f5:	f7 d8                	neg    %eax
    19f7:	e9 d6 fd ff ff       	jmp    17d2 <main+0x672>
    19fc:	f2 0f 5e fe          	divsd  %xmm6,%xmm7
    1a00:	66 0f ef c0          	pxor   %xmm0,%xmm0
    1a04:	f3 0f 11 9d b8 fa ff 	movss  %xmm3,-0x548(%rbp)
    1a0b:	ff 
    1a0c:	f2 0f 5a c7          	cvtsd2ss %xmm7,%xmm0
    1a10:	e8 fb f6 ff ff       	call   1110 <log10f@plt>
    1a15:	f3 0f 59 05 d7 16 00 	mulss  0x16d7(%rip),%xmm0        # 30f4 <_IO_stdin_used+0xf4>
    1a1c:	00 
    1a1d:	f3 0f 10 9d b8 fa ff 	movss  -0x548(%rbp),%xmm3
    1a24:	ff 
    1a25:	66 41 0f 7e c6       	movd   %xmm0,%r14d
    1a2a:	e9 44 ff ff ff       	jmp    1973 <main+0x813>
    1a2f:	e8 cc f6 ff ff       	call   1100 <__stack_chk_fail@plt>
    1a34:	66 2e 0f 1f 84 00 00 	cs nopw 0x0(%rax,%rax,1)
    1a3b:	00 00 00 
    1a3e:	66 90                	xchg   %ax,%ax

0000000000001a40 <_start>:
    1a40:	f3 0f 1e fa          	endbr64 
    1a44:	31 ed                	xor    %ebp,%ebp
    1a46:	49 89 d1             	mov    %rdx,%r9
    1a49:	5e                   	pop    %rsi
    1a4a:	48 89 e2             	mov    %rsp,%rdx
    1a4d:	48 83 e4 f0          	and    $0xfffffffffffffff0,%rsp
    1a51:	50                   	push   %rax
    1a52:	54                   	push   %rsp
    1a53:	45 31 c0             	xor    %r8d,%r8d
    1a56:	31 c9                	xor    %ecx,%ecx
    1a58:	48 8d 3d 01 f7 ff ff 	lea    -0x8ff(%rip),%rdi        # 1160 <main>
    1a5f:	ff 15 73 35 00 00    	call   *0x3573(%rip)        # 4fd8 <__libc_start_main@GLIBC_2.34>
    1a65:	f4                   	hlt    
    1a66:	66 2e 0f 1f 84 00 00 	cs nopw 0x0(%rax,%rax,1)
    1a6d:	00 00 00 

0000000000001a70 <deregister_tm_clones>:
    1a70:	48 8d 3d 99 35 00 00 	lea    0x3599(%rip),%rdi        # 5010 <__TMC_END__>
    1a77:	48 8d 05 92 35 00 00 	lea    0x3592(%rip),%rax        # 5010 <__TMC_END__>
    1a7e:	48 39 f8             	cmp    %rdi,%rax
    1a81:	74 15                	je     1a98 <deregister_tm_clones+0x28>
    1a83:	48 8b 05 56 35 00 00 	mov    0x3556(%rip),%rax        # 4fe0 <_ITM_deregisterTMCloneTable@Base>
    1a8a:	48 85 c0             	test   %rax,%rax
    1a8d:	74 09                	je     1a98 <deregister_tm_clones+0x28>
    1a8f:	ff e0                	jmp    *%rax
    1a91:	0f 1f 80 00 00 00 00 	nopl   0x0(%rax)
    1a98:	c3                   	ret    
    1a99:	0f 1f 80 00 00 00 00 	nopl   0x0(%rax)

0000000000001aa0 <register_tm_clones>:
    1aa0:	48 8d 3d 69 35 00 00 	lea    0x3569(%rip),%rdi        # 5010 <__TMC_END__>
    1aa7:	48 8d 35 62 35 00 00 	lea    0x3562(%rip),%rsi        # 5010 <__TMC_END__>
    1aae:	48 29 fe             	sub    %rdi,%rsi
    1ab1:	48 89 f0             	mov    %rsi,%rax
    1ab4:	48 c1 ee 3f          	shr    $0x3f,%rsi
    1ab8:	48 c1 f8 03          	sar    $0x3,%rax
    1abc:	48 01 c6             	add    %rax,%rsi
    1abf:	48 d1 fe             	sar    %rsi
    1ac2:	74 14                	je     1ad8 <register_tm_clones+0x38>
    1ac4:	48 8b 05 25 35 00 00 	mov    0x3525(%rip),%rax        # 4ff0 <_ITM_registerTMCloneTable@Base>
    1acb:	48 85 c0             	test   %rax,%rax
    1ace:	74 08                	je     1ad8 <register_tm_clones+0x38>
    1ad0:	ff e0                	jmp    *%rax
    1ad2:	66 0f 1f 44 00 00    	nopw   0x0(%rax,%rax,1)
    1ad8:	c3                   	ret    
    1ad9:	0f 1f 80 00 00 00 00 	nopl   0x0(%rax)

0000000000001ae0 <__do_global_dtors_aux>:
    1ae0:	f3 0f 1e fa          	endbr64 
    1ae4:	80 3d 25 35 00 00 00 	cmpb   $0x0,0x3525(%rip)        # 5010 <__TMC_END__>
    1aeb:	75 2b                	jne    1b18 <__do_global_dtors_aux+0x38>
    1aed:	55                   	push   %rbp
    1aee:	48 83 3d 02 35 00 00 	cmpq   $0x0,0x3502(%rip)        # 4ff8 <__cxa_finalize@GLIBC_2.2.5>
    1af5:	00 
    1af6:	48 89 e5             	mov    %rsp,%rbp
    1af9:	74 0c                	je     1b07 <__do_global_dtors_aux+0x27>
    1afb:	48 8b 3d 06 35 00 00 	mov    0x3506(%rip),%rdi        # 5008 <__dso_handle>
    1b02:	e8 b9 f5 ff ff       	call   10c0 <__cxa_finalize@plt>
    1b07:	e8 64 ff ff ff       	call   1a70 <deregister_tm_clones>
    1b0c:	c6 05 fd 34 00 00 01 	movb   $0x1,0x34fd(%rip)        # 5010 <__TMC_END__>
    1b13:	5d                   	pop    %rbp
    1b14:	c3                   	ret    
    1b15:	0f 1f 00             	nopl   (%rax)
    1b18:	c3                   	ret    
    1b19:	0f 1f 80 00 00 00 00 	nopl   0x0(%rax)

0000000000001b20 <frame_dummy>:
    1b20:	f3 0f 1e fa          	endbr64 
    1b24:	e9 77 ff ff ff       	jmp    1aa0 <register_tm_clones>
    1b29:	0f 1f 80 00 00 00 00 	nopl   0x0(%rax)

0000000000001b30 <test_Fread.constprop.0.isra.0>:
    1b30:	48 89 f1             	mov    %rsi,%rcx
    1b33:	ba ff 00 00 00       	mov    $0xff,%edx
    1b38:	be 01 00 00 00       	mov    $0x1,%esi
    1b3d:	e9 9e f5 ff ff       	jmp    10e0 <fread@plt>
    1b42:	66 2e 0f 1f 84 00 00 	cs nopw 0x0(%rax,%rax,1)
    1b49:	00 00 00 
    1b4c:	0f 1f 40 00          	nopl   0x0(%rax)

0000000000001b50 <riscv_dsp_abs_q7>:
    1b50:	f3 0f 1e fa          	endbr64 
    1b54:	48 89 f1             	mov    %rsi,%rcx
    1b57:	85 d2                	test   %edx,%edx
    1b59:	0f 84 39 02 00 00    	je     1d98 <riscv_dsp_abs_q7+0x248>
    1b5f:	8d 42 ff             	lea    -0x1(%rdx),%eax
    1b62:	83 f8 0e             	cmp    $0xe,%eax
    1b65:	0f 86 25 03 00 00    	jbe    1e90 <riscv_dsp_abs_q7+0x340>
    1b6b:	89 d6                	mov    %edx,%esi
    1b6d:	66 0f 6f 2d ab 15 00 	movdqa 0x15ab(%rip),%xmm5        # 3120 <_IO_stdin_used+0x120>
    1b74:	00 
    1b75:	31 c0                	xor    %eax,%eax
    1b77:	66 0f ef d2          	pxor   %xmm2,%xmm2
    1b7b:	c1 ee 04             	shr    $0x4,%esi
    1b7e:	66 0f 6f 1d aa 15 00 	movdqa 0x15aa(%rip),%xmm3        # 3130 <_IO_stdin_used+0x130>
    1b85:	00 
    1b86:	66 0f 6f 25 b2 15 00 	movdqa 0x15b2(%rip),%xmm4        # 3140 <_IO_stdin_used+0x140>
    1b8d:	00 
    1b8e:	48 c1 e6 04          	shl    $0x4,%rsi
    1b92:	66 0f 1f 44 00 00    	nopw   0x0(%rax,%rax,1)
    1b98:	f3 0f 6f 34 07       	movdqu (%rdi,%rax,1),%xmm6
    1b9d:	66 0f 6f cb          	movdqa %xmm3,%xmm1
    1ba1:	66 0f 6f fa          	movdqa %xmm2,%xmm7
    1ba5:	66 0f 6f c6          	movdqa %xmm6,%xmm0
    1ba9:	66 0f f8 fe          	psubb  %xmm6,%xmm7
    1bad:	66 0f 74 c5          	pcmpeqb %xmm5,%xmm0
    1bb1:	66 0f db c8          	pand   %xmm0,%xmm1
    1bb5:	66 0f df c6          	pandn  %xmm6,%xmm0
    1bb9:	66 0f eb c1          	por    %xmm1,%xmm0
    1bbd:	66 0f 6f ca          	movdqa %xmm2,%xmm1
    1bc1:	66 0f 64 ce          	pcmpgtb %xmm6,%xmm1
    1bc5:	66 0f db c1          	pand   %xmm1,%xmm0
    1bc9:	66 0f df ce          	pandn  %xmm6,%xmm1
    1bcd:	66 0f eb c8          	por    %xmm0,%xmm1
    1bd1:	66 0f 6f c6          	movdqa %xmm6,%xmm0
    1bd5:	66 0f fc c3          	paddb  %xmm3,%xmm0
    1bd9:	66 0f d8 c4          	psubusb %xmm4,%xmm0
    1bdd:	66 0f 74 c2          	pcmpeqb %xmm2,%xmm0
    1be1:	66 0f db f8          	pand   %xmm0,%xmm7
    1be5:	66 0f df c1          	pandn  %xmm1,%xmm0
    1be9:	66 0f eb c7          	por    %xmm7,%xmm0
    1bed:	0f 11 04 01          	movups %xmm0,(%rcx,%rax,1)
    1bf1:	48 83 c0 10          	add    $0x10,%rax
    1bf5:	48 39 c6             	cmp    %rax,%rsi
    1bf8:	75 9e                	jne    1b98 <riscv_dsp_abs_q7+0x48>
    1bfa:	89 d6                	mov    %edx,%esi
    1bfc:	83 e6 f0             	and    $0xfffffff0,%esi
    1bff:	89 f0                	mov    %esi,%eax
    1c01:	48 01 c7             	add    %rax,%rdi
    1c04:	48 01 c1             	add    %rax,%rcx
    1c07:	89 d0                	mov    %edx,%eax
    1c09:	29 f0                	sub    %esi,%eax
    1c0b:	39 f2                	cmp    %esi,%edx
    1c0d:	0f 84 84 02 00 00    	je     1e97 <riscv_dsp_abs_q7+0x347>
    1c13:	0f b6 17             	movzbl (%rdi),%edx
    1c16:	84 d2                	test   %dl,%dl
    1c18:	0f 88 82 01 00 00    	js     1da0 <riscv_dsp_abs_q7+0x250>
    1c1e:	88 11                	mov    %dl,(%rcx)
    1c20:	83 f8 01             	cmp    $0x1,%eax
    1c23:	0f 84 6f 01 00 00    	je     1d98 <riscv_dsp_abs_q7+0x248>
    1c29:	0f b6 57 01          	movzbl 0x1(%rdi),%edx
    1c2d:	84 d2                	test   %dl,%dl
    1c2f:	0f 88 83 01 00 00    	js     1db8 <riscv_dsp_abs_q7+0x268>
    1c35:	88 51 01             	mov    %dl,0x1(%rcx)
    1c38:	83 f8 02             	cmp    $0x2,%eax
    1c3b:	0f 84 57 01 00 00    	je     1d98 <riscv_dsp_abs_q7+0x248>
    1c41:	0f b6 57 02          	movzbl 0x2(%rdi),%edx
    1c45:	84 d2                	test   %dl,%dl
    1c47:	0f 88 83 01 00 00    	js     1dd0 <riscv_dsp_abs_q7+0x280>
    1c4d:	88 51 02             	mov    %dl,0x2(%rcx)
    1c50:	83 f8 03             	cmp    $0x3,%eax
    1c53:	0f 84 3f 01 00 00    	je     1d98 <riscv_dsp_abs_q7+0x248>
    1c59:	0f b6 57 03          	movzbl 0x3(%rdi),%edx
    1c5d:	84 d2                	test   %dl,%dl
    1c5f:	0f 88 83 01 00 00    	js     1de8 <riscv_dsp_abs_q7+0x298>
    1c65:	88 51 03             	mov    %dl,0x3(%rcx)
    1c68:	83 f8 04             	cmp    $0x4,%eax
    1c6b:	0f 84 27 01 00 00    	je     1d98 <riscv_dsp_abs_q7+0x248>
    1c71:	0f b6 57 04          	movzbl 0x4(%rdi),%edx
    1c75:	84 d2                	test   %dl,%dl
    1c77:	0f 88 83 01 00 00    	js     1e00 <riscv_dsp_abs_q7+0x2b0>
    1c7d:	88 51 04             	mov    %dl,0x4(%rcx)
    1c80:	83 f8 05             	cmp    $0x5,%eax
    1c83:	0f 84 0f 01 00 00    	je     1d98 <riscv_dsp_abs_q7+0x248>
    1c89:	0f b6 57 05          	movzbl 0x5(%rdi),%edx
    1c8d:	84 d2                	test   %dl,%dl
    1c8f:	79 0f                	jns    1ca0 <riscv_dsp_abs_q7+0x150>
    1c91:	89 d6                	mov    %edx,%esi
    1c93:	f7 de                	neg    %esi
    1c95:	80 fa 80             	cmp    $0x80,%dl
    1c98:	ba 7f 00 00 00       	mov    $0x7f,%edx
    1c9d:	0f 45 d6             	cmovne %esi,%edx
    1ca0:	88 51 05             	mov    %dl,0x5(%rcx)
    1ca3:	83 f8 06             	cmp    $0x6,%eax
    1ca6:	0f 84 ec 00 00 00    	je     1d98 <riscv_dsp_abs_q7+0x248>
    1cac:	0f b6 57 06          	movzbl 0x6(%rdi),%edx
    1cb0:	84 d2                	test   %dl,%dl
    1cb2:	79 0f                	jns    1cc3 <riscv_dsp_abs_q7+0x173>
    1cb4:	89 d6                	mov    %edx,%esi
    1cb6:	f7 de                	neg    %esi
    1cb8:	80 fa 80             	cmp    $0x80,%dl
    1cbb:	ba 7f 00 00 00       	mov    $0x7f,%edx
    1cc0:	0f 45 d6             	cmovne %esi,%edx
    1cc3:	88 51 06             	mov    %dl,0x6(%rcx)
    1cc6:	83 f8 07             	cmp    $0x7,%eax
    1cc9:	0f 84 c9 00 00 00    	je     1d98 <riscv_dsp_abs_q7+0x248>
    1ccf:	0f b6 57 07          	movzbl 0x7(%rdi),%edx
    1cd3:	84 d2                	test   %dl,%dl
    1cd5:	79 0f                	jns    1ce6 <riscv_dsp_abs_q7+0x196>
    1cd7:	89 d6                	mov    %edx,%esi
    1cd9:	f7 de                	neg    %esi
    1cdb:	80 fa 80             	cmp    $0x80,%dl
    1cde:	ba 7f 00 00 00       	mov    $0x7f,%edx
    1ce3:	0f 45 d6             	cmovne %esi,%edx
    1ce6:	88 51 07             	mov    %dl,0x7(%rcx)
    1ce9:	83 f8 08             	cmp    $0x8,%eax
    1cec:	0f 84 a6 00 00 00    	je     1d98 <riscv_dsp_abs_q7+0x248>
    1cf2:	0f b6 57 08          	movzbl 0x8(%rdi),%edx
    1cf6:	84 d2                	test   %dl,%dl
    1cf8:	0f 88 22 01 00 00    	js     1e20 <riscv_dsp_abs_q7+0x2d0>
    1cfe:	88 51 08             	mov    %dl,0x8(%rcx)
    1d01:	83 f8 09             	cmp    $0x9,%eax
    1d04:	0f 84 8e 00 00 00    	je     1d98 <riscv_dsp_abs_q7+0x248>
    1d0a:	0f b6 57 09          	movzbl 0x9(%rdi),%edx
    1d0e:	84 d2                	test   %dl,%dl
    1d10:	0f 88 22 01 00 00    	js     1e38 <riscv_dsp_abs_q7+0x2e8>
    1d16:	88 51 09             	mov    %dl,0x9(%rcx)
    1d19:	83 f8 0a             	cmp    $0xa,%eax
    1d1c:	74 7a                	je     1d98 <riscv_dsp_abs_q7+0x248>
    1d1e:	0f b6 57 0a          	movzbl 0xa(%rdi),%edx
    1d22:	84 d2                	test   %dl,%dl
    1d24:	0f 88 26 01 00 00    	js     1e50 <riscv_dsp_abs_q7+0x300>
    1d2a:	88 51 0a             	mov    %dl,0xa(%rcx)
    1d2d:	83 f8 0b             	cmp    $0xb,%eax
    1d30:	74 66                	je     1d98 <riscv_dsp_abs_q7+0x248>
    1d32:	0f b6 57 0b          	movzbl 0xb(%rdi),%edx
    1d36:	84 d2                	test   %dl,%dl
    1d38:	0f 88 2a 01 00 00    	js     1e68 <riscv_dsp_abs_q7+0x318>
    1d3e:	88 51 0b             	mov    %dl,0xb(%rcx)
    1d41:	83 f8 0c             	cmp    $0xc,%eax
    1d44:	74 52                	je     1d98 <riscv_dsp_abs_q7+0x248>
    1d46:	0f b6 57 0c          	movzbl 0xc(%rdi),%edx
    1d4a:	84 d2                	test   %dl,%dl
    1d4c:	0f 88 2a 01 00 00    	js     1e7c <riscv_dsp_abs_q7+0x32c>
    1d52:	88 51 0c             	mov    %dl,0xc(%rcx)
    1d55:	83 f8 0d             	cmp    $0xd,%eax
    1d58:	74 3e                	je     1d98 <riscv_dsp_abs_q7+0x248>
    1d5a:	0f b6 57 0d          	movzbl 0xd(%rdi),%edx
    1d5e:	84 d2                	test   %dl,%dl
    1d60:	79 0f                	jns    1d71 <riscv_dsp_abs_q7+0x221>
    1d62:	89 d6                	mov    %edx,%esi
    1d64:	f7 de                	neg    %esi
    1d66:	80 fa 80             	cmp    $0x80,%dl
    1d69:	ba 7f 00 00 00       	mov    $0x7f,%edx
    1d6e:	0f 45 d6             	cmovne %esi,%edx
    1d71:	88 51 0d             	mov    %dl,0xd(%rcx)
    1d74:	83 f8 0e             	cmp    $0xe,%eax
    1d77:	74 1f                	je     1d98 <riscv_dsp_abs_q7+0x248>
    1d79:	0f b6 47 0e          	movzbl 0xe(%rdi),%eax
    1d7d:	84 c0                	test   %al,%al
    1d7f:	79 0e                	jns    1d8f <riscv_dsp_abs_q7+0x23f>
    1d81:	89 c2                	mov    %eax,%edx
    1d83:	f7 da                	neg    %edx
    1d85:	3c 80                	cmp    $0x80,%al
    1d87:	b8 7f 00 00 00       	mov    $0x7f,%eax
    1d8c:	0f 45 c2             	cmovne %edx,%eax
    1d8f:	88 41 0e             	mov    %al,0xe(%rcx)
    1d92:	c3                   	ret    
    1d93:	0f 1f 44 00 00       	nopl   0x0(%rax,%rax,1)
    1d98:	c3                   	ret    
    1d99:	0f 1f 80 00 00 00 00 	nopl   0x0(%rax)
    1da0:	89 d6                	mov    %edx,%esi
    1da2:	f7 de                	neg    %esi
    1da4:	80 fa 80             	cmp    $0x80,%dl
    1da7:	ba 7f 00 00 00       	mov    $0x7f,%edx
    1dac:	0f 45 d6             	cmovne %esi,%edx
    1daf:	e9 6a fe ff ff       	jmp    1c1e <riscv_dsp_abs_q7+0xce>
    1db4:	0f 1f 40 00          	nopl   0x0(%rax)
    1db8:	89 d6                	mov    %edx,%esi
    1dba:	f7 de                	neg    %esi
    1dbc:	80 fa 80             	cmp    $0x80,%dl
    1dbf:	ba 7f 00 00 00       	mov    $0x7f,%edx
    1dc4:	0f 45 d6             	cmovne %esi,%edx
    1dc7:	e9 69 fe ff ff       	jmp    1c35 <riscv_dsp_abs_q7+0xe5>
    1dcc:	0f 1f 40 00          	nopl   0x0(%rax)
    1dd0:	89 d6                	mov    %edx,%esi
    1dd2:	f7 de                	neg    %esi
    1dd4:	80 fa 80             	cmp    $0x80,%dl
    1dd7:	ba 7f 00 00 00       	mov    $0x7f,%edx
    1ddc:	0f 45 d6             	cmovne %esi,%edx
    1ddf:	e9 69 fe ff ff       	jmp    1c4d <riscv_dsp_abs_q7+0xfd>
    1de4:	0f 1f 40 00          	nopl   0x0(%rax)
    1de8:	89 d6                	mov    %edx,%esi
    1dea:	f7 de                	neg    %esi
    1dec:	80 fa 80             	cmp    $0x80,%dl
    1def:	ba 7f 00 00 00       	mov    $0x7f,%edx
    1df4:	0f 45 d6             	cmovne %esi,%edx
    1df7:	e9 69 fe ff ff       	jmp    1c65 <riscv_dsp_abs_q7+0x115>
    1dfc:	0f 1f 40 00          	nopl   0x0(%rax)
    1e00:	89 d6                	mov    %edx,%esi
    1e02:	f7 de                	neg    %esi
    1e04:	80 fa 80             	cmp    $0x80,%dl
    1e07:	ba 7f 00 00 00       	mov    $0x7f,%edx
    1e0c:	0f 45 d6             	cmovne %esi,%edx
    1e0f:	88 51 04             	mov    %dl,0x4(%rcx)
    1e12:	83 f8 05             	cmp    $0x5,%eax
    1e15:	0f 85 6e fe ff ff    	jne    1c89 <riscv_dsp_abs_q7+0x139>
    1e1b:	e9 78 ff ff ff       	jmp    1d98 <riscv_dsp_abs_q7+0x248>
    1e20:	89 d6                	mov    %edx,%esi
    1e22:	f7 de                	neg    %esi
    1e24:	80 fa 80             	cmp    $0x80,%dl
    1e27:	ba 7f 00 00 00       	mov    $0x7f,%edx
    1e2c:	0f 45 d6             	cmovne %esi,%edx
    1e2f:	e9 ca fe ff ff       	jmp    1cfe <riscv_dsp_abs_q7+0x1ae>
    1e34:	0f 1f 40 00          	nopl   0x0(%rax)
    1e38:	89 d6                	mov    %edx,%esi
    1e3a:	f7 de                	neg    %esi
    1e3c:	80 fa 80             	cmp    $0x80,%dl
    1e3f:	ba 7f 00 00 00       	mov    $0x7f,%edx
    1e44:	0f 45 d6             	cmovne %esi,%edx
    1e47:	e9 ca fe ff ff       	jmp    1d16 <riscv_dsp_abs_q7+0x1c6>
    1e4c:	0f 1f 40 00          	nopl   0x0(%rax)
    1e50:	89 d6                	mov    %edx,%esi
    1e52:	f7 de                	neg    %esi
    1e54:	80 fa 80             	cmp    $0x80,%dl
    1e57:	ba 7f 00 00 00       	mov    $0x7f,%edx
    1e5c:	0f 45 d6             	cmovne %esi,%edx
    1e5f:	e9 c6 fe ff ff       	jmp    1d2a <riscv_dsp_abs_q7+0x1da>
    1e64:	0f 1f 40 00          	nopl   0x0(%rax)
    1e68:	89 d6                	mov    %edx,%esi
    1e6a:	f7 de                	neg    %esi
    1e6c:	80 fa 80             	cmp    $0x80,%dl
    1e6f:	ba 7f 00 00 00       	mov    $0x7f,%edx
    1e74:	0f 45 d6             	cmovne %esi,%edx
    1e77:	e9 c2 fe ff ff       	jmp    1d3e <riscv_dsp_abs_q7+0x1ee>
    1e7c:	89 d6                	mov    %edx,%esi
    1e7e:	f7 de                	neg    %esi
    1e80:	80 fa 80             	cmp    $0x80,%dl
    1e83:	ba 7f 00 00 00       	mov    $0x7f,%edx
    1e88:	0f 45 d6             	cmovne %esi,%edx
    1e8b:	e9 c2 fe ff ff       	jmp    1d52 <riscv_dsp_abs_q7+0x202>
    1e90:	89 d0                	mov    %edx,%eax
    1e92:	e9 7c fd ff ff       	jmp    1c13 <riscv_dsp_abs_q7+0xc3>
    1e97:	c3                   	ret    
    1e98:	0f 1f 84 00 00 00 00 	nopl   0x0(%rax,%rax,1)
    1e9f:	00 

0000000000001ea0 <riscv_dsp_convert_q7_f32>:
    1ea0:	f3 0f 1e fa          	endbr64 
    1ea4:	85 d2                	test   %edx,%edx
    1ea6:	0f 84 76 02 00 00    	je     2122 <riscv_dsp_convert_q7_f32+0x282>
    1eac:	8d 42 ff             	lea    -0x1(%rdx),%eax
    1eaf:	83 f8 0e             	cmp    $0xe,%eax
    1eb2:	0f 86 6b 02 00 00    	jbe    2123 <riscv_dsp_convert_q7_f32+0x283>
    1eb8:	41 89 d0             	mov    %edx,%r8d
    1ebb:	0f 28 1d 8e 12 00 00 	movaps 0x128e(%rip),%xmm3        # 3150 <_IO_stdin_used+0x150>
    1ec2:	48 89 f9             	mov    %rdi,%rcx
    1ec5:	48 89 f0             	mov    %rsi,%rax
    1ec8:	41 c1 e8 04          	shr    $0x4,%r8d
    1ecc:	66 0f ef ed          	pxor   %xmm5,%xmm5
    1ed0:	66 0f ef e4          	pxor   %xmm4,%xmm4
    1ed4:	41 83 e8 01          	sub    $0x1,%r8d
    1ed8:	49 c1 e0 04          	shl    $0x4,%r8
    1edc:	4e 8d 44 07 10       	lea    0x10(%rdi,%r8,1),%r8
    1ee1:	0f 1f 80 00 00 00 00 	nopl   0x0(%rax)
    1ee8:	f3 0f 6f 01          	movdqu (%rcx),%xmm0
    1eec:	66 0f 6f d5          	movdqa %xmm5,%xmm2
    1ef0:	66 0f 6f f4          	movdqa %xmm4,%xmm6
    1ef4:	48 83 c1 10          	add    $0x10,%rcx
    1ef8:	48 83 c0 40          	add    $0x40,%rax
    1efc:	66 0f 64 d0          	pcmpgtb %xmm0,%xmm2
    1f00:	66 0f 6f c8          	movdqa %xmm0,%xmm1
    1f04:	66 0f 60 ca          	punpcklbw %xmm2,%xmm1
    1f08:	66 0f 68 c2          	punpckhbw %xmm2,%xmm0
    1f0c:	66 0f 65 f1          	pcmpgtw %xmm1,%xmm6
    1f10:	66 0f 6f d1          	movdqa %xmm1,%xmm2
    1f14:	66 0f 61 d6          	punpcklwd %xmm6,%xmm2
    1f18:	66 0f 69 ce          	punpckhwd %xmm6,%xmm1
    1f1c:	0f 5b d2             	cvtdq2ps %xmm2,%xmm2
    1f1f:	0f 59 d3             	mulps  %xmm3,%xmm2
    1f22:	0f 5b c9             	cvtdq2ps %xmm1,%xmm1
    1f25:	0f 59 cb             	mulps  %xmm3,%xmm1
    1f28:	0f 11 50 c0          	movups %xmm2,-0x40(%rax)
    1f2c:	66 0f 6f d4          	movdqa %xmm4,%xmm2
    1f30:	66 0f 65 d0          	pcmpgtw %xmm0,%xmm2
    1f34:	0f 11 48 d0          	movups %xmm1,-0x30(%rax)
    1f38:	66 0f 6f c8          	movdqa %xmm0,%xmm1
    1f3c:	66 0f 61 ca          	punpcklwd %xmm2,%xmm1
    1f40:	66 0f 69 c2          	punpckhwd %xmm2,%xmm0
    1f44:	0f 5b c9             	cvtdq2ps %xmm1,%xmm1
    1f47:	0f 5b c0             	cvtdq2ps %xmm0,%xmm0
    1f4a:	0f 59 cb             	mulps  %xmm3,%xmm1
    1f4d:	0f 59 c3             	mulps  %xmm3,%xmm0
    1f50:	0f 11 48 e0          	movups %xmm1,-0x20(%rax)
    1f54:	0f 11 40 f0          	movups %xmm0,-0x10(%rax)
    1f58:	4c 39 c1             	cmp    %r8,%rcx
    1f5b:	75 8b                	jne    1ee8 <riscv_dsp_convert_q7_f32+0x48>
    1f5d:	89 d1                	mov    %edx,%ecx
    1f5f:	83 e1 f0             	and    $0xfffffff0,%ecx
    1f62:	89 c8                	mov    %ecx,%eax
    1f64:	48 01 c7             	add    %rax,%rdi
    1f67:	48 8d 34 86          	lea    (%rsi,%rax,4),%rsi
    1f6b:	89 d0                	mov    %edx,%eax
    1f6d:	29 c8                	sub    %ecx,%eax
    1f6f:	39 ca                	cmp    %ecx,%edx
    1f71:	0f 84 b3 01 00 00    	je     212a <riscv_dsp_convert_q7_f32+0x28a>
    1f77:	0f be 17             	movsbl (%rdi),%edx
    1f7a:	66 0f ef c9          	pxor   %xmm1,%xmm1
    1f7e:	f3 0f 10 05 ca 11 00 	movss  0x11ca(%rip),%xmm0        # 3150 <_IO_stdin_used+0x150>
    1f85:	00 
    1f86:	f3 0f 2a ca          	cvtsi2ss %edx,%xmm1
    1f8a:	f3 0f 59 c8          	mulss  %xmm0,%xmm1
    1f8e:	f3 0f 11 0e          	movss  %xmm1,(%rsi)
    1f92:	83 f8 01             	cmp    $0x1,%eax
    1f95:	0f 84 87 01 00 00    	je     2122 <riscv_dsp_convert_q7_f32+0x282>
    1f9b:	0f be 57 01          	movsbl 0x1(%rdi),%edx
    1f9f:	66 0f ef c9          	pxor   %xmm1,%xmm1
    1fa3:	f3 0f 2a ca          	cvtsi2ss %edx,%xmm1
    1fa7:	f3 0f 59 c8          	mulss  %xmm0,%xmm1
    1fab:	f3 0f 11 4e 04       	movss  %xmm1,0x4(%rsi)
    1fb0:	83 f8 02             	cmp    $0x2,%eax
    1fb3:	0f 84 69 01 00 00    	je     2122 <riscv_dsp_convert_q7_f32+0x282>
    1fb9:	0f be 57 02          	movsbl 0x2(%rdi),%edx
    1fbd:	66 0f ef c9          	pxor   %xmm1,%xmm1
    1fc1:	f3 0f 2a ca          	cvtsi2ss %edx,%xmm1
    1fc5:	f3 0f 59 c8          	mulss  %xmm0,%xmm1
    1fc9:	f3 0f 11 4e 08       	movss  %xmm1,0x8(%rsi)
    1fce:	83 f8 03             	cmp    $0x3,%eax
    1fd1:	0f 84 4b 01 00 00    	je     2122 <riscv_dsp_convert_q7_f32+0x282>
    1fd7:	0f be 57 03          	movsbl 0x3(%rdi),%edx
    1fdb:	66 0f ef c9          	pxor   %xmm1,%xmm1
    1fdf:	f3 0f 2a ca          	cvtsi2ss %edx,%xmm1
    1fe3:	f3 0f 59 c8          	mulss  %xmm0,%xmm1
    1fe7:	f3 0f 11 4e 0c       	movss  %xmm1,0xc(%rsi)
    1fec:	83 f8 04             	cmp    $0x4,%eax
    1fef:	0f 84 2d 01 00 00    	je     2122 <riscv_dsp_convert_q7_f32+0x282>
    1ff5:	0f be 57 04          	movsbl 0x4(%rdi),%edx
    1ff9:	66 0f ef c9          	pxor   %xmm1,%xmm1
    1ffd:	f3 0f 2a ca          	cvtsi2ss %edx,%xmm1
    2001:	f3 0f 59 c8          	mulss  %xmm0,%xmm1
    2005:	f3 0f 11 4e 10       	movss  %xmm1,0x10(%rsi)
    200a:	83 f8 05             	cmp    $0x5,%eax
    200d:	0f 84 0f 01 00 00    	je     2122 <riscv_dsp_convert_q7_f32+0x282>
    2013:	0f be 57 05          	movsbl 0x5(%rdi),%edx
    2017:	66 0f ef c9          	pxor   %xmm1,%xmm1
    201b:	f3 0f 2a ca          	cvtsi2ss %edx,%xmm1
    201f:	f3 0f 59 c8          	mulss  %xmm0,%xmm1
    2023:	f3 0f 11 4e 14       	movss  %xmm1,0x14(%rsi)
    2028:	83 f8 06             	cmp    $0x6,%eax
    202b:	0f 84 f1 00 00 00    	je     2122 <riscv_dsp_convert_q7_f32+0x282>
    2031:	0f be 57 06          	movsbl 0x6(%rdi),%edx
    2035:	66 0f ef c9          	pxor   %xmm1,%xmm1
    2039:	f3 0f 2a ca          	cvtsi2ss %edx,%xmm1
    203d:	f3 0f 59 c8          	mulss  %xmm0,%xmm1
    2041:	f3 0f 11 4e 18       	movss  %xmm1,0x18(%rsi)
    2046:	83 f8 07             	cmp    $0x7,%eax
    2049:	0f 84 d3 00 00 00    	je     2122 <riscv_dsp_convert_q7_f32+0x282>
    204f:	0f be 57 07          	movsbl 0x7(%rdi),%edx
    2053:	66 0f ef c9          	pxor   %xmm1,%xmm1
    2057:	f3 0f 2a ca          	cvtsi2ss %edx,%xmm1
    205b:	f3 0f 59 c8          	mulss  %xmm0,%xmm1
    205f:	f3 0f 11 4e 1c       	movss  %xmm1,0x1c(%rsi)
    2064:	83 f8 08             	cmp    $0x8,%eax
    2067:	0f 84 b5 00 00 00    	je     2122 <riscv_dsp_convert_q7_f32+0x282>
    206d:	0f be 57 08          	movsbl 0x8(%rdi),%edx
    2071:	66 0f ef c9          	pxor   %xmm1,%xmm1
    2075:	f3 0f 2a ca          	cvtsi2ss %edx,%xmm1
    2079:	f3 0f 59 c8          	mulss  %xmm0,%xmm1
    207d:	f3 0f 11 4e 20       	movss  %xmm1,0x20(%rsi)
    2082:	83 f8 09             	cmp    $0x9,%eax
    2085:	0f 84 97 00 00 00    	je     2122 <riscv_dsp_convert_q7_f32+0x282>
    208b:	0f be 57 09          	movsbl 0x9(%rdi),%edx
    208f:	66 0f ef c9          	pxor   %xmm1,%xmm1
    2093:	f3 0f 2a ca          	cvtsi2ss %edx,%xmm1
    2097:	f3 0f 59 c8          	mulss  %xmm0,%xmm1
    209b:	f3 0f 11 4e 24       	movss  %xmm1,0x24(%rsi)
    20a0:	83 f8 0a             	cmp    $0xa,%eax
    20a3:	74 7d                	je     2122 <riscv_dsp_convert_q7_f32+0x282>
    20a5:	0f be 57 0a          	movsbl 0xa(%rdi),%edx
    20a9:	66 0f ef c9          	pxor   %xmm1,%xmm1
    20ad:	f3 0f 2a ca          	cvtsi2ss %edx,%xmm1
    20b1:	f3 0f 59 c8          	mulss  %xmm0,%xmm1
    20b5:	f3 0f 11 4e 28       	movss  %xmm1,0x28(%rsi)
    20ba:	83 f8 0b             	cmp    $0xb,%eax
    20bd:	74 63                	je     2122 <riscv_dsp_convert_q7_f32+0x282>
    20bf:	0f be 57 0b          	movsbl 0xb(%rdi),%edx
    20c3:	66 0f ef c9          	pxor   %xmm1,%xmm1
    20c7:	f3 0f 2a ca          	cvtsi2ss %edx,%xmm1
    20cb:	f3 0f 59 c8          	mulss  %xmm0,%xmm1
    20cf:	f3 0f 11 4e 2c       	movss  %xmm1,0x2c(%rsi)
    20d4:	83 f8 0c             	cmp    $0xc,%eax
    20d7:	74 49                	je     2122 <riscv_dsp_convert_q7_f32+0x282>
    20d9:	0f be 57 0c          	movsbl 0xc(%rdi),%edx
    20dd:	66 0f ef c9          	pxor   %xmm1,%xmm1
    20e1:	f3 0f 2a ca          	cvtsi2ss %edx,%xmm1
    20e5:	f3 0f 59 c8          	mulss  %xmm0,%xmm1
    20e9:	f3 0f 11 4e 30       	movss  %xmm1,0x30(%rsi)
    20ee:	83 f8 0d             	cmp    $0xd,%eax
    20f1:	74 2f                	je     2122 <riscv_dsp_convert_q7_f32+0x282>
    20f3:	0f be 57 0d          	movsbl 0xd(%rdi),%edx
    20f7:	66 0f ef c9          	pxor   %xmm1,%xmm1
    20fb:	f3 0f 2a ca          	cvtsi2ss %edx,%xmm1
    20ff:	f3 0f 59 c8          	mulss  %xmm0,%xmm1
    2103:	f3 0f 11 4e 34       	movss  %xmm1,0x34(%rsi)
    2108:	83 f8 0e             	cmp    $0xe,%eax
    210b:	74 15                	je     2122 <riscv_dsp_convert_q7_f32+0x282>
    210d:	0f be 47 0e          	movsbl 0xe(%rdi),%eax
    2111:	66 0f ef c9          	pxor   %xmm1,%xmm1
    2115:	f3 0f 2a c8          	cvtsi2ss %eax,%xmm1
    2119:	f3 0f 59 c8          	mulss  %xmm0,%xmm1
    211d:	f3 0f 11 4e 38       	movss  %xmm1,0x38(%rsi)
    2122:	c3                   	ret    
    2123:	89 d0                	mov    %edx,%eax
    2125:	e9 4d fe ff ff       	jmp    1f77 <riscv_dsp_convert_q7_f32+0xd7>
    212a:	c3                   	ret    

Disassembly of section .fini:

000000000000212c <_fini>:
    212c:	f3 0f 1e fa          	endbr64 
    2130:	48 83 ec 08          	sub    $0x8,%rsp
    2134:	48 83 c4 08          	add    $0x8,%rsp
    2138:	c3                   	ret    
