
t_atan2_q31:     file format elf64-x86-64


Disassembly of section .init:

0000000000001000 <_init>:
    1000:	f3 0f 1e fa          	endbr64 
    1004:	48 83 ec 08          	sub    $0x8,%rsp
    1008:	48 8b 05 d9 2f 00 00 	mov    0x2fd9(%rip),%rax        # 3fe8 <__gmon_start__@Base>
    100f:	48 85 c0             	test   %rax,%rax
    1012:	74 02                	je     1016 <_init+0x16>
    1014:	ff d0                	call   *%rax
    1016:	48 83 c4 08          	add    $0x8,%rsp
    101a:	c3                   	ret    

Disassembly of section .plt:

0000000000001020 <.plt>:
    1020:	ff 35 52 2f 00 00    	push   0x2f52(%rip)        # 3f78 <_GLOBAL_OFFSET_TABLE_+0x8>
    1026:	f2 ff 25 53 2f 00 00 	bnd jmp *0x2f53(%rip)        # 3f80 <_GLOBAL_OFFSET_TABLE_+0x10>
    102d:	0f 1f 00             	nopl   (%rax)
    1030:	f3 0f 1e fa          	endbr64 
    1034:	68 00 00 00 00       	push   $0x0
    1039:	f2 e9 e1 ff ff ff    	bnd jmp 1020 <_init+0x20>
    103f:	90                   	nop
    1040:	f3 0f 1e fa          	endbr64 
    1044:	68 01 00 00 00       	push   $0x1
    1049:	f2 e9 d1 ff ff ff    	bnd jmp 1020 <_init+0x20>
    104f:	90                   	nop
    1050:	f3 0f 1e fa          	endbr64 
    1054:	68 02 00 00 00       	push   $0x2
    1059:	f2 e9 c1 ff ff ff    	bnd jmp 1020 <_init+0x20>
    105f:	90                   	nop
    1060:	f3 0f 1e fa          	endbr64 
    1064:	68 03 00 00 00       	push   $0x3
    1069:	f2 e9 b1 ff ff ff    	bnd jmp 1020 <_init+0x20>
    106f:	90                   	nop
    1070:	f3 0f 1e fa          	endbr64 
    1074:	68 04 00 00 00       	push   $0x4
    1079:	f2 e9 a1 ff ff ff    	bnd jmp 1020 <_init+0x20>
    107f:	90                   	nop
    1080:	f3 0f 1e fa          	endbr64 
    1084:	68 05 00 00 00       	push   $0x5
    1089:	f2 e9 91 ff ff ff    	bnd jmp 1020 <_init+0x20>
    108f:	90                   	nop
    1090:	f3 0f 1e fa          	endbr64 
    1094:	68 06 00 00 00       	push   $0x6
    1099:	f2 e9 81 ff ff ff    	bnd jmp 1020 <_init+0x20>
    109f:	90                   	nop
    10a0:	f3 0f 1e fa          	endbr64 
    10a4:	68 07 00 00 00       	push   $0x7
    10a9:	f2 e9 71 ff ff ff    	bnd jmp 1020 <_init+0x20>
    10af:	90                   	nop
    10b0:	f3 0f 1e fa          	endbr64 
    10b4:	68 08 00 00 00       	push   $0x8
    10b9:	f2 e9 61 ff ff ff    	bnd jmp 1020 <_init+0x20>
    10bf:	90                   	nop
    10c0:	f3 0f 1e fa          	endbr64 
    10c4:	68 09 00 00 00       	push   $0x9
    10c9:	f2 e9 51 ff ff ff    	bnd jmp 1020 <_init+0x20>
    10cf:	90                   	nop

Disassembly of section .plt.got:

00000000000010d0 <__cxa_finalize@plt>:
    10d0:	f3 0f 1e fa          	endbr64 
    10d4:	f2 ff 25 1d 2f 00 00 	bnd jmp *0x2f1d(%rip)        # 3ff8 <__cxa_finalize@GLIBC_2.2.5>
    10db:	0f 1f 44 00 00       	nopl   0x0(%rax,%rax,1)

Disassembly of section .plt.sec:

00000000000010e0 <puts@plt>:
    10e0:	f3 0f 1e fa          	endbr64 
    10e4:	f2 ff 25 9d 2e 00 00 	bnd jmp *0x2e9d(%rip)        # 3f88 <puts@GLIBC_2.2.5>
    10eb:	0f 1f 44 00 00       	nopl   0x0(%rax,%rax,1)

00000000000010f0 <fread@plt>:
    10f0:	f3 0f 1e fa          	endbr64 
    10f4:	f2 ff 25 95 2e 00 00 	bnd jmp *0x2e95(%rip)        # 3f90 <fread@GLIBC_2.2.5>
    10fb:	0f 1f 44 00 00       	nopl   0x0(%rax,%rax,1)

0000000000001100 <fclose@plt>:
    1100:	f3 0f 1e fa          	endbr64 
    1104:	f2 ff 25 8d 2e 00 00 	bnd jmp *0x2e8d(%rip)        # 3f98 <fclose@GLIBC_2.2.5>
    110b:	0f 1f 44 00 00       	nopl   0x0(%rax,%rax,1)

0000000000001110 <__stack_chk_fail@plt>:
    1110:	f3 0f 1e fa          	endbr64 
    1114:	f2 ff 25 85 2e 00 00 	bnd jmp *0x2e85(%rip)        # 3fa0 <__stack_chk_fail@GLIBC_2.4>
    111b:	0f 1f 44 00 00       	nopl   0x0(%rax,%rax,1)

0000000000001120 <log10f@plt>:
    1120:	f3 0f 1e fa          	endbr64 
    1124:	f2 ff 25 7d 2e 00 00 	bnd jmp *0x2e7d(%rip)        # 3fa8 <log10f@GLIBC_2.2.5>
    112b:	0f 1f 44 00 00       	nopl   0x0(%rax,%rax,1)

0000000000001130 <atan2f@plt>:
    1130:	f3 0f 1e fa          	endbr64 
    1134:	f2 ff 25 75 2e 00 00 	bnd jmp *0x2e75(%rip)        # 3fb0 <atan2f@GLIBC_2.2.5>
    113b:	0f 1f 44 00 00       	nopl   0x0(%rax,%rax,1)

0000000000001140 <__printf_chk@plt>:
    1140:	f3 0f 1e fa          	endbr64 
    1144:	f2 ff 25 6d 2e 00 00 	bnd jmp *0x2e6d(%rip)        # 3fb8 <__printf_chk@GLIBC_2.3.4>
    114b:	0f 1f 44 00 00       	nopl   0x0(%rax,%rax,1)

0000000000001150 <fopen@plt>:
    1150:	f3 0f 1e fa          	endbr64 
    1154:	f2 ff 25 65 2e 00 00 	bnd jmp *0x2e65(%rip)        # 3fc0 <fopen@GLIBC_2.2.5>
    115b:	0f 1f 44 00 00       	nopl   0x0(%rax,%rax,1)

0000000000001160 <sqrt@plt>:
    1160:	f3 0f 1e fa          	endbr64 
    1164:	f2 ff 25 5d 2e 00 00 	bnd jmp *0x2e5d(%rip)        # 3fc8 <sqrt@GLIBC_2.2.5>
    116b:	0f 1f 44 00 00       	nopl   0x0(%rax,%rax,1)

0000000000001170 <__sprintf_chk@plt>:
    1170:	f3 0f 1e fa          	endbr64 
    1174:	f2 ff 25 55 2e 00 00 	bnd jmp *0x2e55(%rip)        # 3fd0 <__sprintf_chk@GLIBC_2.3.4>
    117b:	0f 1f 44 00 00       	nopl   0x0(%rax,%rax,1)

Disassembly of section .text:

0000000000001180 <main>:
    1180:	f3 0f 1e fa          	endbr64 
    1184:	55                   	push   %rbp
    1185:	48 89 e5             	mov    %rsp,%rbp
    1188:	41 57                	push   %r15
    118a:	41 56                	push   %r14
    118c:	41 55                	push   %r13
    118e:	41 54                	push   %r12
    1190:	53                   	push   %rbx
    1191:	48 81 ec 58 02 00 00 	sub    $0x258,%rsp
    1198:	64 48 8b 04 25 28 00 	mov    %fs:0x28,%rax
    119f:	00 00 
    11a1:	48 89 45 c8          	mov    %rax,-0x38(%rbp)
    11a5:	31 c0                	xor    %eax,%eax
    11a7:	48 8d 84 24 00 30 fe 	lea    -0x1d000(%rsp),%rax
    11ae:	ff 
    11af:	48 39 c4             	cmp    %rax,%rsp
    11b2:	74 15                	je     11c9 <main+0x49>
    11b4:	48 81 ec 00 10 00 00 	sub    $0x1000,%rsp
    11bb:	48 83 8c 24 f8 0f 00 	orq    $0x0,0xff8(%rsp)
    11c2:	00 00 
    11c4:	48 39 c4             	cmp    %rax,%rsp
    11c7:	75 eb                	jne    11b4 <main+0x34>
    11c9:	48 81 ec c0 04 00 00 	sub    $0x4c0,%rsp
    11d0:	48 83 8c 24 b8 04 00 	orq    $0x0,0x4b8(%rsp)
    11d7:	00 00 
    11d9:	48 89 a5 98 fd ff ff 	mov    %rsp,-0x268(%rbp)
    11e0:	48 8d 84 24 00 30 fe 	lea    -0x1d000(%rsp),%rax
    11e7:	ff 
    11e8:	48 39 c4             	cmp    %rax,%rsp
    11eb:	74 12                	je     11ff <main+0x7f>
    11ed:	48 81 ec 00 10 00 00 	sub    $0x1000,%rsp
    11f4:	48 83 8c 24 f8 0f 00 	orq    $0x0,0xff8(%rsp)
    11fb:	00 00 
    11fd:	eb e9                	jmp    11e8 <main+0x68>
    11ff:	48 81 ec c0 04 00 00 	sub    $0x4c0,%rsp
    1206:	48 83 8c 24 b8 04 00 	orq    $0x0,0x4b8(%rsp)
    120d:	00 00 
    120f:	4c 8d 05 f2 0d 00 00 	lea    0xdf2(%rip),%r8        # 2008 <_IO_stdin_used+0x8>
    1216:	ba 00 02 00 00       	mov    $0x200,%edx
    121b:	31 c0                	xor    %eax,%eax
    121d:	48 8d 0d 7e 0e 00 00 	lea    0xe7e(%rip),%rcx        # 20a2 <_IO_stdin_used+0xa2>
    1224:	be 01 00 00 00       	mov    $0x1,%esi
    1229:	4c 8d 35 85 0e 00 00 	lea    0xe85(%rip),%r14        # 20b5 <_IO_stdin_used+0xb5>
    1230:	4c 8d a5 c0 fd ff ff 	lea    -0x240(%rbp),%r12
    1237:	48 89 a5 90 fd ff ff 	mov    %rsp,-0x270(%rbp)
    123e:	4c 89 e7             	mov    %r12,%rdi
    1241:	e8 2a ff ff ff       	call   1170 <__sprintf_chk@plt>
    1246:	4c 89 f6             	mov    %r14,%rsi
    1249:	4c 89 e7             	mov    %r12,%rdi
    124c:	e8 ff fe ff ff       	call   1150 <fopen@plt>
    1251:	49 89 c5             	mov    %rax,%r13
    1254:	48 85 c0             	test   %rax,%rax
    1257:	0f 84 df 03 00 00    	je     163c <main+0x4bc>
    125d:	4c 89 e7             	mov    %r12,%rdi
    1260:	ba 00 02 00 00       	mov    $0x200,%edx
    1265:	be 01 00 00 00       	mov    $0x1,%esi
    126a:	31 c0                	xor    %eax,%eax
    126c:	4c 8d 05 95 0d 00 00 	lea    0xd95(%rip),%r8        # 2008 <_IO_stdin_used+0x8>
    1273:	48 8d 0d 3d 0e 00 00 	lea    0xe3d(%rip),%rcx        # 20b7 <_IO_stdin_used+0xb7>
    127a:	e8 f1 fe ff ff       	call   1170 <__sprintf_chk@plt>
    127f:	4c 89 e7             	mov    %r12,%rdi
    1282:	4c 89 f6             	mov    %r14,%rsi
    1285:	e8 c6 fe ff ff       	call   1150 <fopen@plt>
    128a:	49 89 c4             	mov    %rax,%r12
    128d:	48 85 c0             	test   %rax,%rax
    1290:	0f 84 a6 03 00 00    	je     163c <main+0x4bc>
    1296:	31 db                	xor    %ebx,%ebx
    1298:	4c 8d bd bc fd ff ff 	lea    -0x244(%rbp),%r15
    129f:	4c 8d b5 b8 fd ff ff 	lea    -0x248(%rbp),%r14
    12a6:	66 2e 0f 1f 84 00 00 	cs nopw 0x0(%rax,%rax,1)
    12ad:	00 00 00 
    12b0:	4c 89 e9             	mov    %r13,%rcx
    12b3:	ba 01 00 00 00       	mov    $0x1,%edx
    12b8:	be 04 00 00 00       	mov    $0x4,%esi
    12bd:	4c 89 ff             	mov    %r15,%rdi
    12c0:	e8 2b fe ff ff       	call   10f0 <fread@plt>
    12c5:	4c 89 e1             	mov    %r12,%rcx
    12c8:	ba 01 00 00 00       	mov    $0x1,%edx
    12cd:	4c 89 f7             	mov    %r14,%rdi
    12d0:	be 04 00 00 00       	mov    $0x4,%esi
    12d5:	e8 16 fe ff ff       	call   10f0 <fread@plt>
    12da:	8b bd bc fd ff ff    	mov    -0x244(%rbp),%edi
    12e0:	8b b5 b8 fd ff ff    	mov    -0x248(%rbp),%esi
    12e6:	66 0f ef c9          	pxor   %xmm1,%xmm1
    12ea:	66 0f ef c0          	pxor   %xmm0,%xmm0
    12ee:	f3 0f 2a ce          	cvtsi2ss %esi,%xmm1
    12f2:	f3 0f 59 0d fe 0d 00 	mulss  0xdfe(%rip),%xmm1        # 20f8 <_IO_stdin_used+0xf8>
    12f9:	00 
    12fa:	89 b5 a0 fd ff ff    	mov    %esi,-0x260(%rbp)
    1300:	f3 0f 2a c7          	cvtsi2ss %edi,%xmm0
    1304:	f3 0f 59 05 ec 0d 00 	mulss  0xdec(%rip),%xmm0        # 20f8 <_IO_stdin_used+0xf8>
    130b:	00 
    130c:	89 bd a8 fd ff ff    	mov    %edi,-0x258(%rbp)
    1312:	e8 19 fe ff ff       	call   1130 <atan2f@plt>
    1317:	48 8b 85 98 fd ff ff 	mov    -0x268(%rbp),%rax
    131e:	8b b5 a0 fd ff ff    	mov    -0x260(%rbp),%esi
    1324:	8b bd a8 fd ff ff    	mov    -0x258(%rbp),%edi
    132a:	f3 0f 11 04 18       	movss  %xmm0,(%rax,%rbx,1)
    132f:	e8 0c 04 00 00       	call   1740 <riscv_dsp_atan2_q31>
    1334:	66 0f ef c0          	pxor   %xmm0,%xmm0
    1338:	f3 0f 2a c0          	cvtsi2ss %eax,%xmm0
    133c:	f3 0f 59 05 b4 0d 00 	mulss  0xdb4(%rip),%xmm0        # 20f8 <_IO_stdin_used+0xf8>
    1343:	00 
    1344:	48 8b 85 90 fd ff ff 	mov    -0x270(%rbp),%rax
    134b:	f3 0f 59 05 a9 0d 00 	mulss  0xda9(%rip),%xmm0        # 20fc <_IO_stdin_used+0xfc>
    1352:	00 
    1353:	f3 0f 11 04 18       	movss  %xmm0,(%rax,%rbx,1)
    1358:	48 83 c3 04          	add    $0x4,%rbx
    135c:	48 81 fb c0 d4 01 00 	cmp    $0x1d4c0,%rbx
    1363:	0f 85 47 ff ff ff    	jne    12b0 <main+0x130>
    1369:	8b b5 b8 fd ff ff    	mov    -0x248(%rbp),%esi
    136f:	31 ff                	xor    %edi,%edi
    1371:	e8 ca 03 00 00       	call   1740 <riscv_dsp_atan2_q31>
    1376:	41 89 c6             	mov    %eax,%r14d
    1379:	85 c0                	test   %eax,%eax
    137b:	0f 85 bb 02 00 00    	jne    163c <main+0x4bc>
    1381:	31 c0                	xor    %eax,%eax
    1383:	66 0f ef c9          	pxor   %xmm1,%xmm1
    1387:	f3 0f 10 25 81 0d 00 	movss  0xd81(%rip),%xmm4        # 2110 <_IO_stdin_used+0x110>
    138e:	00 
    138f:	90                   	nop
    1390:	48 8b 8d 90 fd ff ff 	mov    -0x270(%rbp),%rcx
    1397:	48 8b 95 98 fd ff ff 	mov    -0x268(%rbp),%rdx
    139e:	f3 0f 10 04 01       	movss  (%rcx,%rax,1),%xmm0
    13a3:	f3 0f 5c 04 02       	subss  (%rdx,%rax,1),%xmm0
    13a8:	48 83 c0 04          	add    $0x4,%rax
    13ac:	0f 54 c4             	andps  %xmm4,%xmm0
    13af:	f3 0f 5f c1          	maxss  %xmm1,%xmm0
    13b3:	0f 28 c8             	movaps %xmm0,%xmm1
    13b6:	48 3d c0 d4 01 00    	cmp    $0x1d4c0,%rax
    13bc:	75 d2                	jne    1390 <main+0x210>
    13be:	48 8d 35 05 0d 00 00 	lea    0xd05(%rip),%rsi        # 20ca <_IO_stdin_used+0xca>
    13c5:	bf 01 00 00 00       	mov    $0x1,%edi
    13ca:	b8 01 00 00 00       	mov    $0x1,%eax
    13cf:	f3 0f 5a c0          	cvtss2sd %xmm0,%xmm0
    13d3:	e8 68 fd ff ff       	call   1140 <__printf_chk@plt>
    13d8:	4c 89 ef             	mov    %r13,%rdi
    13db:	e8 20 fd ff ff       	call   1100 <fclose@plt>
    13e0:	4c 89 e7             	mov    %r12,%rdi
    13e3:	e8 18 fd ff ff       	call   1100 <fclose@plt>
    13e8:	66 0f ef db          	pxor   %xmm3,%xmm3
    13ec:	66 0f ef ff          	pxor   %xmm7,%xmm7
    13f0:	31 c0                	xor    %eax,%eax
    13f2:	66 0f 28 f7          	movapd %xmm7,%xmm6
    13f6:	0f 28 eb             	movaps %xmm3,%xmm5
    13f9:	44 0f 28 c3          	movaps %xmm3,%xmm8
    13fd:	44 0f 28 cb          	movaps %xmm3,%xmm9
    1401:	f3 0f 10 25 07 0d 00 	movss  0xd07(%rip),%xmm4        # 2110 <_IO_stdin_used+0x110>
    1408:	00 
    1409:	0f 1f 80 00 00 00 00 	nopl   0x0(%rax)
    1410:	48 8b 95 90 fd ff ff 	mov    -0x270(%rbp),%rdx
    1417:	48 8b 8d 98 fd ff ff 	mov    -0x268(%rbp),%rcx
    141e:	f3 0f 10 04 02       	movss  (%rdx,%rax,1),%xmm0
    1423:	f3 0f 10 0c 01       	movss  (%rcx,%rax,1),%xmm1
    1428:	66 0f 7e c2          	movd   %xmm0,%edx
    142c:	81 fa 00 00 c0 7f    	cmp    $0x7fc00000,%edx
    1432:	0f 84 a1 01 00 00    	je     15d9 <main+0x459>
    1438:	0f 28 d1             	movaps %xmm1,%xmm2
    143b:	f3 0f 5c c1          	subss  %xmm1,%xmm0
    143f:	48 83 c0 04          	add    $0x4,%rax
    1443:	f3 41 0f 5f d1       	maxss  %xmm9,%xmm2
    1448:	44 0f 28 ca          	movaps %xmm2,%xmm9
    144c:	0f 28 d1             	movaps %xmm1,%xmm2
    144f:	f3 41 0f 5d d0       	minss  %xmm8,%xmm2
    1454:	f3 0f 59 c9          	mulss  %xmm1,%xmm1
    1458:	44 0f 28 c2          	movaps %xmm2,%xmm8
    145c:	0f 28 d0             	movaps %xmm0,%xmm2
    145f:	f3 0f 59 c0          	mulss  %xmm0,%xmm0
    1463:	0f 54 d4             	andps  %xmm4,%xmm2
    1466:	f3 0f 58 ea          	addss  %xmm2,%xmm5
    146a:	f3 0f 5f d3          	maxss  %xmm3,%xmm2
    146e:	f3 0f 5a c9          	cvtss2sd %xmm1,%xmm1
    1472:	f2 0f 58 f9          	addsd  %xmm1,%xmm7
    1476:	0f 28 da             	movaps %xmm2,%xmm3
    1479:	f3 0f 5a c0          	cvtss2sd %xmm0,%xmm0
    147d:	f2 0f 58 f0          	addsd  %xmm0,%xmm6
    1481:	48 3d c0 d4 01 00    	cmp    $0x1d4c0,%rax
    1487:	75 87                	jne    1410 <main+0x290>
    1489:	66 48 0f 7e f0       	movq   %xmm6,%rax
    148e:	f2 0f 11 bd a0 fd ff 	movsd  %xmm7,-0x260(%rbp)
    1495:	ff 
    1496:	f3 44 0f 11 85 90 fd 	movss  %xmm8,-0x270(%rbp)
    149d:	ff ff 
    149f:	f3 44 0f 11 8d 98 fd 	movss  %xmm9,-0x268(%rbp)
    14a6:	ff ff 
    14a8:	f3 0f 11 95 a8 fd ff 	movss  %xmm2,-0x258(%rbp)
    14af:	ff 
    14b0:	3d 00 00 c0 7f       	cmp    $0x7fc00000,%eax
    14b5:	0f 84 1e 01 00 00    	je     15d9 <main+0x459>
    14bb:	66 0f 28 c6          	movapd %xmm6,%xmm0
    14bf:	f3 0f 5e 2d 39 0c 00 	divss  0xc39(%rip),%xmm5        # 2100 <_IO_stdin_used+0x100>
    14c6:	00 
    14c7:	f2 0f 11 b5 88 fd ff 	movsd  %xmm6,-0x278(%rbp)
    14ce:	ff 
    14cf:	66 0f 7e eb          	movd   %xmm5,%ebx
    14d3:	f2 0f 5e 05 45 0c 00 	divsd  0xc45(%rip),%xmm0        # 2120 <_IO_stdin_used+0x120>
    14da:	00 
    14db:	e8 80 fc ff ff       	call   1160 <sqrt@plt>
    14e0:	f3 44 0f 10 8d 98 fd 	movss  -0x268(%rbp),%xmm9
    14e7:	ff ff 
    14e9:	f3 44 0f 10 85 90 fd 	movss  -0x270(%rbp),%xmm8
    14f0:	ff ff 
    14f2:	66 0f ef c9          	pxor   %xmm1,%xmm1
    14f6:	f2 0f 10 b5 88 fd ff 	movsd  -0x278(%rbp),%xmm6
    14fd:	ff 
    14fe:	66 0f ef ed          	pxor   %xmm5,%xmm5
    1502:	f3 0f 10 9d a8 fd ff 	movss  -0x258(%rbp),%xmm3
    1509:	ff 
    150a:	f2 0f 5a c8          	cvtsd2ss %xmm0,%xmm1
    150e:	41 0f 28 c1          	movaps %xmm9,%xmm0
    1512:	0f 28 f9             	movaps %xmm1,%xmm7
    1515:	f3 41 0f 5c c0       	subss  %xmm8,%xmm0
    151a:	66 0f 2e f5          	ucomisd %xmm5,%xmm6
    151e:	f3 0f 5e f8          	divss  %xmm0,%xmm7
    1522:	66 41 0f 7e fc       	movd   %xmm7,%r12d
    1527:	f2 0f 10 bd a0 fd ff 	movsd  -0x260(%rbp),%xmm7
    152e:	ff 
    152f:	0f 8a c5 00 00 00    	jp     15fa <main+0x47a>
    1535:	f3 0f 10 25 b7 0b 00 	movss  0xbb7(%rip),%xmm4        # 20f4 <_IO_stdin_used+0xf4>
    153c:	00 
    153d:	0f 85 b7 00 00 00    	jne    15fa <main+0x47a>
    1543:	48 8d 3d 93 0b 00 00 	lea    0xb93(%rip),%rdi        # 20dd <_IO_stdin_used+0xdd>
    154a:	f3 0f 11 a5 98 fd ff 	movss  %xmm4,-0x268(%rbp)
    1551:	ff 
    1552:	f3 0f 11 8d a0 fd ff 	movss  %xmm1,-0x260(%rbp)
    1559:	ff 
    155a:	f3 0f 11 9d a8 fd ff 	movss  %xmm3,-0x258(%rbp)
    1561:	ff 
    1562:	e8 79 fb ff ff       	call   10e0 <puts@plt>
    1567:	66 41 0f 6e ec       	movd   %r12d,%xmm5
    156c:	66 0f 6e f3          	movd   %ebx,%xmm6
    1570:	f3 0f 10 9d a8 fd ff 	movss  -0x258(%rbp),%xmm3
    1577:	ff 
    1578:	f3 0f 10 a5 98 fd ff 	movss  -0x268(%rbp),%xmm4
    157f:	ff 
    1580:	f3 0f 10 8d a0 fd ff 	movss  -0x260(%rbp),%xmm1
    1587:	ff 
    1588:	66 0f ef d2          	pxor   %xmm2,%xmm2
    158c:	66 0f ef c0          	pxor   %xmm0,%xmm0
    1590:	48 8d 35 b9 0a 00 00 	lea    0xab9(%rip),%rsi        # 2050 <_IO_stdin_used+0x50>
    1597:	f3 0f 5a d5          	cvtss2sd %xmm5,%xmm2
    159b:	f3 0f 5a c6          	cvtss2sd %xmm6,%xmm0
    159f:	f3 0f 5a db          	cvtss2sd %xmm3,%xmm3
    15a3:	bf 01 00 00 00       	mov    $0x1,%edi
    15a8:	b8 05 00 00 00       	mov    $0x5,%eax
    15ad:	f3 0f 5a e4          	cvtss2sd %xmm4,%xmm4
    15b1:	f3 0f 5a c9          	cvtss2sd %xmm1,%xmm1
    15b5:	f2 0f 11 95 a8 fd ff 	movsd  %xmm2,-0x258(%rbp)
    15bc:	ff 
    15bd:	e8 7e fb ff ff       	call   1140 <__printf_chk@plt>
    15c2:	f2 0f 10 05 5e 0b 00 	movsd  0xb5e(%rip),%xmm0        # 2128 <_IO_stdin_used+0x128>
    15c9:	00 
    15ca:	f2 0f 10 95 a8 fd ff 	movsd  -0x258(%rbp),%xmm2
    15d1:	ff 
    15d2:	66 0f 2f c2          	comisd %xmm2,%xmm0
    15d6:	45 19 f6             	sbb    %r14d,%r14d
    15d9:	48 8b 45 c8          	mov    -0x38(%rbp),%rax
    15dd:	64 48 2b 04 25 28 00 	sub    %fs:0x28,%rax
    15e4:	00 00 
    15e6:	75 5a                	jne    1642 <main+0x4c2>
    15e8:	48 8d 65 d8          	lea    -0x28(%rbp),%rsp
    15ec:	44 89 f0             	mov    %r14d,%eax
    15ef:	5b                   	pop    %rbx
    15f0:	41 5c                	pop    %r12
    15f2:	41 5d                	pop    %r13
    15f4:	41 5e                	pop    %r14
    15f6:	41 5f                	pop    %r15
    15f8:	5d                   	pop    %rbp
    15f9:	c3                   	ret    
    15fa:	f2 0f 5e fe          	divsd  %xmm6,%xmm7
    15fe:	66 0f ef c0          	pxor   %xmm0,%xmm0
    1602:	f3 0f 11 8d a0 fd ff 	movss  %xmm1,-0x260(%rbp)
    1609:	ff 
    160a:	f3 0f 11 9d a8 fd ff 	movss  %xmm3,-0x258(%rbp)
    1611:	ff 
    1612:	f2 0f 5a c7          	cvtsd2ss %xmm7,%xmm0
    1616:	e8 05 fb ff ff       	call   1120 <log10f@plt>
    161b:	f3 0f 10 25 e1 0a 00 	movss  0xae1(%rip),%xmm4        # 2104 <_IO_stdin_used+0x104>
    1622:	00 
    1623:	f3 0f 10 8d a0 fd ff 	movss  -0x260(%rbp),%xmm1
    162a:	ff 
    162b:	f3 0f 10 9d a8 fd ff 	movss  -0x258(%rbp),%xmm3
    1632:	ff 
    1633:	f3 0f 59 e0          	mulss  %xmm0,%xmm4
    1637:	e9 07 ff ff ff       	jmp    1543 <main+0x3c3>
    163c:	41 83 ce ff          	or     $0xffffffff,%r14d
    1640:	eb 97                	jmp    15d9 <main+0x459>
    1642:	e8 c9 fa ff ff       	call   1110 <__stack_chk_fail@plt>
    1647:	66 0f 1f 84 00 00 00 	nopw   0x0(%rax,%rax,1)
    164e:	00 00 

0000000000001650 <_start>:
    1650:	f3 0f 1e fa          	endbr64 
    1654:	31 ed                	xor    %ebp,%ebp
    1656:	49 89 d1             	mov    %rdx,%r9
    1659:	5e                   	pop    %rsi
    165a:	48 89 e2             	mov    %rsp,%rdx
    165d:	48 83 e4 f0          	and    $0xfffffffffffffff0,%rsp
    1661:	50                   	push   %rax
    1662:	54                   	push   %rsp
    1663:	45 31 c0             	xor    %r8d,%r8d
    1666:	31 c9                	xor    %ecx,%ecx
    1668:	48 8d 3d 11 fb ff ff 	lea    -0x4ef(%rip),%rdi        # 1180 <main>
    166f:	ff 15 63 29 00 00    	call   *0x2963(%rip)        # 3fd8 <__libc_start_main@GLIBC_2.34>
    1675:	f4                   	hlt    
    1676:	66 2e 0f 1f 84 00 00 	cs nopw 0x0(%rax,%rax,1)
    167d:	00 00 00 

0000000000001680 <deregister_tm_clones>:
    1680:	48 8d 3d 89 29 00 00 	lea    0x2989(%rip),%rdi        # 4010 <__TMC_END__>
    1687:	48 8d 05 82 29 00 00 	lea    0x2982(%rip),%rax        # 4010 <__TMC_END__>
    168e:	48 39 f8             	cmp    %rdi,%rax
    1691:	74 15                	je     16a8 <deregister_tm_clones+0x28>
    1693:	48 8b 05 46 29 00 00 	mov    0x2946(%rip),%rax        # 3fe0 <_ITM_deregisterTMCloneTable@Base>
    169a:	48 85 c0             	test   %rax,%rax
    169d:	74 09                	je     16a8 <deregister_tm_clones+0x28>
    169f:	ff e0                	jmp    *%rax
    16a1:	0f 1f 80 00 00 00 00 	nopl   0x0(%rax)
    16a8:	c3                   	ret    
    16a9:	0f 1f 80 00 00 00 00 	nopl   0x0(%rax)

00000000000016b0 <register_tm_clones>:
    16b0:	48 8d 3d 59 29 00 00 	lea    0x2959(%rip),%rdi        # 4010 <__TMC_END__>
    16b7:	48 8d 35 52 29 00 00 	lea    0x2952(%rip),%rsi        # 4010 <__TMC_END__>
    16be:	48 29 fe             	sub    %rdi,%rsi
    16c1:	48 89 f0             	mov    %rsi,%rax
    16c4:	48 c1 ee 3f          	shr    $0x3f,%rsi
    16c8:	48 c1 f8 03          	sar    $0x3,%rax
    16cc:	48 01 c6             	add    %rax,%rsi
    16cf:	48 d1 fe             	sar    %rsi
    16d2:	74 14                	je     16e8 <register_tm_clones+0x38>
    16d4:	48 8b 05 15 29 00 00 	mov    0x2915(%rip),%rax        # 3ff0 <_ITM_registerTMCloneTable@Base>
    16db:	48 85 c0             	test   %rax,%rax
    16de:	74 08                	je     16e8 <register_tm_clones+0x38>
    16e0:	ff e0                	jmp    *%rax
    16e2:	66 0f 1f 44 00 00    	nopw   0x0(%rax,%rax,1)
    16e8:	c3                   	ret    
    16e9:	0f 1f 80 00 00 00 00 	nopl   0x0(%rax)

00000000000016f0 <__do_global_dtors_aux>:
    16f0:	f3 0f 1e fa          	endbr64 
    16f4:	80 3d 15 29 00 00 00 	cmpb   $0x0,0x2915(%rip)        # 4010 <__TMC_END__>
    16fb:	75 2b                	jne    1728 <__do_global_dtors_aux+0x38>
    16fd:	55                   	push   %rbp
    16fe:	48 83 3d f2 28 00 00 	cmpq   $0x0,0x28f2(%rip)        # 3ff8 <__cxa_finalize@GLIBC_2.2.5>
    1705:	00 
    1706:	48 89 e5             	mov    %rsp,%rbp
    1709:	74 0c                	je     1717 <__do_global_dtors_aux+0x27>
    170b:	48 8b 3d f6 28 00 00 	mov    0x28f6(%rip),%rdi        # 4008 <__dso_handle>
    1712:	e8 b9 f9 ff ff       	call   10d0 <__cxa_finalize@plt>
    1717:	e8 64 ff ff ff       	call   1680 <deregister_tm_clones>
    171c:	c6 05 ed 28 00 00 01 	movb   $0x1,0x28ed(%rip)        # 4010 <__TMC_END__>
    1723:	5d                   	pop    %rbp
    1724:	c3                   	ret    
    1725:	0f 1f 00             	nopl   (%rax)
    1728:	c3                   	ret    
    1729:	0f 1f 80 00 00 00 00 	nopl   0x0(%rax)

0000000000001730 <frame_dummy>:
    1730:	f3 0f 1e fa          	endbr64 
    1734:	e9 77 ff ff ff       	jmp    16b0 <register_tm_clones>
    1739:	0f 1f 80 00 00 00 00 	nopl   0x0(%rax)

0000000000001740 <riscv_dsp_atan2_q31>:
    1740:	f3 0f 1e fa          	endbr64 
    1744:	89 f0                	mov    %esi,%eax
    1746:	25 00 00 00 80       	and    $0x80000000,%eax
    174b:	85 ff                	test   %edi,%edi
    174d:	0f 84 2d 01 00 00    	je     1880 <riscv_dsp_atan2_q31+0x140>
    1753:	48 63 c7             	movslq %edi,%rax
    1756:	55                   	push   %rbp
    1757:	48 63 f6             	movslq %esi,%rsi
    175a:	ba 02 00 00 00       	mov    $0x2,%edx
    175f:	53                   	push   %rbx
    1760:	45 31 c0             	xor    %r8d,%r8d
    1763:	48 85 c0             	test   %rax,%rax
    1766:	0f 88 9c 01 00 00    	js     1908 <riscv_dsp_atan2_q31+0x1c8>
    176c:	48 85 f6             	test   %rsi,%rsi
    176f:	0f 8e 73 01 00 00    	jle    18e8 <riscv_dsp_atan2_q31+0x1a8>
    1775:	48 39 c6             	cmp    %rax,%rsi
    1778:	7f 10                	jg     178a <riscv_dsp_atan2_q31+0x4a>
    177a:	48 89 c2             	mov    %rax,%rdx
    177d:	49 83 c0 01          	add    $0x1,%r8
    1781:	48 29 f2             	sub    %rsi,%rdx
    1784:	48 01 c6             	add    %rax,%rsi
    1787:	48 89 d0             	mov    %rdx,%rax
    178a:	48 89 c7             	mov    %rax,%rdi
    178d:	49 c1 e0 1d          	shl    $0x1d,%r8
    1791:	48 c1 e7 1f          	shl    $0x1f,%rdi
    1795:	85 f6                	test   %esi,%esi
    1797:	0f 84 eb 00 00 00    	je     1888 <riscv_dsp_atan2_q31+0x148>
    179d:	31 d2                	xor    %edx,%edx
    179f:	81 fe ff ff 00 00    	cmp    $0xffff,%esi
    17a5:	89 f0                	mov    %esi,%eax
    17a7:	0f 97 c2             	seta   %dl
    17aa:	c1 e2 04             	shl    $0x4,%edx
    17ad:	89 d1                	mov    %edx,%ecx
    17af:	d3 e8                	shr    %cl,%eax
    17b1:	31 c9                	xor    %ecx,%ecx
    17b3:	3d ff 00 00 00       	cmp    $0xff,%eax
    17b8:	0f 97 c1             	seta   %cl
    17bb:	c1 e1 03             	shl    $0x3,%ecx
    17be:	d3 e8                	shr    %cl,%eax
    17c0:	09 ca                	or     %ecx,%edx
    17c2:	31 c9                	xor    %ecx,%ecx
    17c4:	83 f8 0f             	cmp    $0xf,%eax
    17c7:	0f 97 c1             	seta   %cl
    17ca:	c1 e1 02             	shl    $0x2,%ecx
    17cd:	d3 e8                	shr    %cl,%eax
    17cf:	09 ca                	or     %ecx,%edx
    17d1:	31 c9                	xor    %ecx,%ecx
    17d3:	83 f8 03             	cmp    $0x3,%eax
    17d6:	0f 97 c1             	seta   %cl
    17d9:	01 c9                	add    %ecx,%ecx
    17db:	d3 e8                	shr    %cl,%eax
    17dd:	09 ca                	or     %ecx,%edx
    17df:	b9 1f 00 00 00       	mov    $0x1f,%ecx
    17e4:	d1 e8                	shr    %eax
    17e6:	09 d0                	or     %edx,%eax
    17e8:	31 d2                	xor    %edx,%edx
    17ea:	29 c1                	sub    %eax,%ecx
    17ec:	48 d3 e7             	shl    %cl,%rdi
    17ef:	d3 e6                	shl    %cl,%esi
    17f1:	41 89 f1             	mov    %esi,%r9d
    17f4:	48 89 f8             	mov    %rdi,%rax
    17f7:	44 0f b7 d6          	movzwl %si,%r10d
    17fb:	89 f9                	mov    %edi,%ecx
    17fd:	41 c1 e9 10          	shr    $0x10,%r9d
    1801:	48 c1 e8 20          	shr    $0x20,%rax
    1805:	0f b7 df             	movzwl %di,%ebx
    1808:	41 f7 f1             	div    %r9d
    180b:	c1 e9 10             	shr    $0x10,%ecx
    180e:	89 c5                	mov    %eax,%ebp
    1810:	44 89 d0             	mov    %r10d,%eax
    1813:	c1 e2 10             	shl    $0x10,%edx
    1816:	0f af c5             	imul   %ebp,%eax
    1819:	09 d1                	or     %edx,%ecx
    181b:	39 c8                	cmp    %ecx,%eax
    181d:	0f 86 23 01 00 00    	jbe    1946 <riscv_dsp_atan2_q31+0x206>
    1823:	31 d2                	xor    %edx,%edx
    1825:	01 f1                	add    %esi,%ecx
    1827:	8d 7d ff             	lea    -0x1(%rbp),%edi
    182a:	0f 92 c2             	setb   %dl
    182d:	39 c8                	cmp    %ecx,%eax
    182f:	76 08                	jbe    1839 <riscv_dsp_atan2_q31+0xf9>
    1831:	85 d2                	test   %edx,%edx
    1833:	0f 84 f7 00 00 00    	je     1930 <riscv_dsp_atan2_q31+0x1f0>
    1839:	29 c1                	sub    %eax,%ecx
    183b:	89 c8                	mov    %ecx,%eax
    183d:	31 d2                	xor    %edx,%edx
    183f:	41 f7 f1             	div    %r9d
    1842:	44 0f af d0          	imul   %eax,%r10d
    1846:	41 89 c3             	mov    %eax,%r11d
    1849:	89 c8                	mov    %ecx,%eax
    184b:	31 d2                	xor    %edx,%edx
    184d:	41 f7 f1             	div    %r9d
    1850:	c1 e2 10             	shl    $0x10,%edx
    1853:	09 da                	or     %ebx,%edx
    1855:	44 39 d2             	cmp    %r10d,%edx
    1858:	0f 83 e0 00 00 00    	jae    193e <riscv_dsp_atan2_q31+0x1fe>
    185e:	41 8d 4b ff          	lea    -0x1(%r11),%ecx
    1862:	01 d6                	add    %edx,%esi
    1864:	72 3b                	jb     18a1 <riscv_dsp_atan2_q31+0x161>
    1866:	44 39 d6             	cmp    %r10d,%esi
    1869:	0f 92 c0             	setb   %al
    186c:	41 83 eb 02          	sub    $0x2,%r11d
    1870:	84 c0                	test   %al,%al
    1872:	41 0f 45 cb          	cmovne %r11d,%ecx
    1876:	eb 29                	jmp    18a1 <riscv_dsp_atan2_q31+0x161>
    1878:	0f 1f 84 00 00 00 00 	nopl   0x0(%rax,%rax,1)
    187f:	00 
    1880:	c3                   	ret    
    1881:	0f 1f 80 00 00 00 00 	nopl   0x0(%rax)
    1888:	48 c1 e0 3f          	shl    $0x3f,%rax
    188c:	31 d2                	xor    %edx,%edx
    188e:	48 c1 e8 20          	shr    $0x20,%rax
    1892:	f7 f6                	div    %esi
    1894:	89 c7                	mov    %eax,%edi
    1896:	89 d0                	mov    %edx,%eax
    1898:	31 d2                	xor    %edx,%edx
    189a:	c1 e0 10             	shl    $0x10,%eax
    189d:	f7 f6                	div    %esi
    189f:	89 c1                	mov    %eax,%ecx
    18a1:	89 f8                	mov    %edi,%eax
    18a3:	5b                   	pop    %rbx
    18a4:	5d                   	pop    %rbp
    18a5:	c1 e0 10             	shl    $0x10,%eax
    18a8:	09 c8                	or     %ecx,%eax
    18aa:	48 8d 0d 8f 08 00 00 	lea    0x88f(%rip),%rcx        # 2140 <g>
    18b1:	89 c6                	mov    %eax,%esi
    18b3:	48 63 d0             	movslq %eax,%rdx
    18b6:	c1 fe 1b             	sar    $0x1b,%esi
    18b9:	89 f0                	mov    %esi,%eax
    18bb:	8d 7e 10             	lea    0x10(%rsi),%edi
    18be:	48 63 04 81          	movslq (%rcx,%rax,4),%rax
    18c2:	48 63 3c b9          	movslq (%rcx,%rdi,4),%rdi
    18c6:	48 0f af c2          	imul   %rdx,%rax
    18ca:	48 c1 f8 20          	sar    $0x20,%rax
    18ce:	48 01 f8             	add    %rdi,%rax
    18d1:	48 0f af c2          	imul   %rdx,%rax
    18d5:	8d 56 20             	lea    0x20(%rsi),%edx
    18d8:	48 c1 f8 20          	sar    $0x20,%rax
    18dc:	03 04 91             	add    (%rcx,%rdx,4),%eax
    18df:	44 01 c0             	add    %r8d,%eax
    18e2:	c3                   	ret    
    18e3:	0f 1f 44 00 00       	nopl   0x0(%rax,%rax,1)
    18e8:	48 89 f1             	mov    %rsi,%rcx
    18eb:	48 89 c6             	mov    %rax,%rsi
    18ee:	49 89 d0             	mov    %rdx,%r8
    18f1:	48 f7 d9             	neg    %rcx
    18f4:	48 89 c8             	mov    %rcx,%rax
    18f7:	48 39 c6             	cmp    %rax,%rsi
    18fa:	0f 8f 8a fe ff ff    	jg     178a <riscv_dsp_atan2_q31+0x4a>
    1900:	e9 75 fe ff ff       	jmp    177a <riscv_dsp_atan2_q31+0x3a>
    1905:	0f 1f 00             	nopl   (%rax)
    1908:	48 f7 de             	neg    %rsi
    190b:	48 f7 d8             	neg    %rax
    190e:	48 c7 c2 fe ff ff ff 	mov    $0xfffffffffffffffe,%rdx
    1915:	49 c7 c0 fc ff ff ff 	mov    $0xfffffffffffffffc,%r8
    191c:	48 85 f6             	test   %rsi,%rsi
    191f:	0f 8f 50 fe ff ff    	jg     1775 <riscv_dsp_atan2_q31+0x35>
    1925:	eb c1                	jmp    18e8 <riscv_dsp_atan2_q31+0x1a8>
    1927:	66 0f 1f 84 00 00 00 	nopw   0x0(%rax,%rax,1)
    192e:	00 00 
    1930:	89 f2                	mov    %esi,%edx
    1932:	8d 7d fe             	lea    -0x2(%rbp),%edi
    1935:	29 c2                	sub    %eax,%edx
    1937:	01 d1                	add    %edx,%ecx
    1939:	e9 fd fe ff ff       	jmp    183b <riscv_dsp_atan2_q31+0xfb>
    193e:	44 89 d9             	mov    %r11d,%ecx
    1941:	e9 5b ff ff ff       	jmp    18a1 <riscv_dsp_atan2_q31+0x161>
    1946:	29 c1                	sub    %eax,%ecx
    1948:	31 d2                	xor    %edx,%edx
    194a:	89 ef                	mov    %ebp,%edi
    194c:	89 c8                	mov    %ecx,%eax
    194e:	41 f7 f1             	div    %r9d
    1951:	44 0f af d0          	imul   %eax,%r10d
    1955:	41 89 c3             	mov    %eax,%r11d
    1958:	e9 ec fe ff ff       	jmp    1849 <riscv_dsp_atan2_q31+0x109>

Disassembly of section .fini:

0000000000001960 <_fini>:
    1960:	f3 0f 1e fa          	endbr64 
    1964:	48 83 ec 08          	sub    $0x8,%rsp
    1968:	48 83 c4 08          	add    $0x8,%rsp
    196c:	c3                   	ret    
