
t_bq_df1_q15:     file format elf64-x86-64


Disassembly of section .init:

0000000000001000 <_init>:
    1000:	f3 0f 1e fa          	endbr64 
    1004:	48 83 ec 08          	sub    $0x8,%rsp
    1008:	48 8b 05 d9 2f 00 00 	mov    0x2fd9(%rip),%rax        # 3fe8 <__gmon_start__@Base>
    100f:	48 85 c0             	test   %rax,%rax
    1012:	74 02                	je     1016 <_init+0x16>
    1014:	ff d0                	call   *%rax
    1016:	48 83 c4 08          	add    $0x8,%rsp
    101a:	c3                   	ret    

Disassembly of section .plt:

0000000000001020 <.plt>:
    1020:	ff 35 4a 2f 00 00    	push   0x2f4a(%rip)        # 3f70 <_GLOBAL_OFFSET_TABLE_+0x8>
    1026:	f2 ff 25 4b 2f 00 00 	bnd jmp *0x2f4b(%rip)        # 3f78 <_GLOBAL_OFFSET_TABLE_+0x10>
    102d:	0f 1f 00             	nopl   (%rax)
    1030:	f3 0f 1e fa          	endbr64 
    1034:	68 00 00 00 00       	push   $0x0
    1039:	f2 e9 e1 ff ff ff    	bnd jmp 1020 <_init+0x20>
    103f:	90                   	nop
    1040:	f3 0f 1e fa          	endbr64 
    1044:	68 01 00 00 00       	push   $0x1
    1049:	f2 e9 d1 ff ff ff    	bnd jmp 1020 <_init+0x20>
    104f:	90                   	nop
    1050:	f3 0f 1e fa          	endbr64 
    1054:	68 02 00 00 00       	push   $0x2
    1059:	f2 e9 c1 ff ff ff    	bnd jmp 1020 <_init+0x20>
    105f:	90                   	nop
    1060:	f3 0f 1e fa          	endbr64 
    1064:	68 03 00 00 00       	push   $0x3
    1069:	f2 e9 b1 ff ff ff    	bnd jmp 1020 <_init+0x20>
    106f:	90                   	nop
    1070:	f3 0f 1e fa          	endbr64 
    1074:	68 04 00 00 00       	push   $0x4
    1079:	f2 e9 a1 ff ff ff    	bnd jmp 1020 <_init+0x20>
    107f:	90                   	nop
    1080:	f3 0f 1e fa          	endbr64 
    1084:	68 05 00 00 00       	push   $0x5
    1089:	f2 e9 91 ff ff ff    	bnd jmp 1020 <_init+0x20>
    108f:	90                   	nop
    1090:	f3 0f 1e fa          	endbr64 
    1094:	68 06 00 00 00       	push   $0x6
    1099:	f2 e9 81 ff ff ff    	bnd jmp 1020 <_init+0x20>
    109f:	90                   	nop
    10a0:	f3 0f 1e fa          	endbr64 
    10a4:	68 07 00 00 00       	push   $0x7
    10a9:	f2 e9 71 ff ff ff    	bnd jmp 1020 <_init+0x20>
    10af:	90                   	nop
    10b0:	f3 0f 1e fa          	endbr64 
    10b4:	68 08 00 00 00       	push   $0x8
    10b9:	f2 e9 61 ff ff ff    	bnd jmp 1020 <_init+0x20>
    10bf:	90                   	nop
    10c0:	f3 0f 1e fa          	endbr64 
    10c4:	68 09 00 00 00       	push   $0x9
    10c9:	f2 e9 51 ff ff ff    	bnd jmp 1020 <_init+0x20>
    10cf:	90                   	nop
    10d0:	f3 0f 1e fa          	endbr64 
    10d4:	68 0a 00 00 00       	push   $0xa
    10d9:	f2 e9 41 ff ff ff    	bnd jmp 1020 <_init+0x20>
    10df:	90                   	nop

Disassembly of section .plt.got:

00000000000010e0 <__cxa_finalize@plt>:
    10e0:	f3 0f 1e fa          	endbr64 
    10e4:	f2 ff 25 0d 2f 00 00 	bnd jmp *0x2f0d(%rip)        # 3ff8 <__cxa_finalize@GLIBC_2.2.5>
    10eb:	0f 1f 44 00 00       	nopl   0x0(%rax,%rax,1)

Disassembly of section .plt.sec:

00000000000010f0 <free@plt>:
    10f0:	f3 0f 1e fa          	endbr64 
    10f4:	f2 ff 25 85 2e 00 00 	bnd jmp *0x2e85(%rip)        # 3f80 <free@GLIBC_2.2.5>
    10fb:	0f 1f 44 00 00       	nopl   0x0(%rax,%rax,1)

0000000000001100 <puts@plt>:
    1100:	f3 0f 1e fa          	endbr64 
    1104:	f2 ff 25 7d 2e 00 00 	bnd jmp *0x2e7d(%rip)        # 3f88 <puts@GLIBC_2.2.5>
    110b:	0f 1f 44 00 00       	nopl   0x0(%rax,%rax,1)

0000000000001110 <fread@plt>:
    1110:	f3 0f 1e fa          	endbr64 
    1114:	f2 ff 25 75 2e 00 00 	bnd jmp *0x2e75(%rip)        # 3f90 <fread@GLIBC_2.2.5>
    111b:	0f 1f 44 00 00       	nopl   0x0(%rax,%rax,1)

0000000000001120 <fclose@plt>:
    1120:	f3 0f 1e fa          	endbr64 
    1124:	f2 ff 25 6d 2e 00 00 	bnd jmp *0x2e6d(%rip)        # 3f98 <fclose@GLIBC_2.2.5>
    112b:	0f 1f 44 00 00       	nopl   0x0(%rax,%rax,1)

0000000000001130 <__stack_chk_fail@plt>:
    1130:	f3 0f 1e fa          	endbr64 
    1134:	f2 ff 25 65 2e 00 00 	bnd jmp *0x2e65(%rip)        # 3fa0 <__stack_chk_fail@GLIBC_2.4>
    113b:	0f 1f 44 00 00       	nopl   0x0(%rax,%rax,1)

0000000000001140 <calloc@plt>:
    1140:	f3 0f 1e fa          	endbr64 
    1144:	f2 ff 25 5d 2e 00 00 	bnd jmp *0x2e5d(%rip)        # 3fa8 <calloc@GLIBC_2.2.5>
    114b:	0f 1f 44 00 00       	nopl   0x0(%rax,%rax,1)

0000000000001150 <log10f@plt>:
    1150:	f3 0f 1e fa          	endbr64 
    1154:	f2 ff 25 55 2e 00 00 	bnd jmp *0x2e55(%rip)        # 3fb0 <log10f@GLIBC_2.2.5>
    115b:	0f 1f 44 00 00       	nopl   0x0(%rax,%rax,1)

0000000000001160 <__printf_chk@plt>:
    1160:	f3 0f 1e fa          	endbr64 
    1164:	f2 ff 25 4d 2e 00 00 	bnd jmp *0x2e4d(%rip)        # 3fb8 <__printf_chk@GLIBC_2.3.4>
    116b:	0f 1f 44 00 00       	nopl   0x0(%rax,%rax,1)

0000000000001170 <fopen@plt>:
    1170:	f3 0f 1e fa          	endbr64 
    1174:	f2 ff 25 45 2e 00 00 	bnd jmp *0x2e45(%rip)        # 3fc0 <fopen@GLIBC_2.2.5>
    117b:	0f 1f 44 00 00       	nopl   0x0(%rax,%rax,1)

0000000000001180 <sqrt@plt>:
    1180:	f3 0f 1e fa          	endbr64 
    1184:	f2 ff 25 3d 2e 00 00 	bnd jmp *0x2e3d(%rip)        # 3fc8 <sqrt@GLIBC_2.2.5>
    118b:	0f 1f 44 00 00       	nopl   0x0(%rax,%rax,1)

0000000000001190 <__sprintf_chk@plt>:
    1190:	f3 0f 1e fa          	endbr64 
    1194:	f2 ff 25 35 2e 00 00 	bnd jmp *0x2e35(%rip)        # 3fd0 <__sprintf_chk@GLIBC_2.3.4>
    119b:	0f 1f 44 00 00       	nopl   0x0(%rax,%rax,1)

Disassembly of section .text:

00000000000011a0 <main>:
    11a0:	f3 0f 1e fa          	endbr64 
    11a4:	55                   	push   %rbp
    11a5:	be 02 00 00 00       	mov    $0x2,%esi
    11aa:	bf 0c 00 00 00       	mov    $0xc,%edi
    11af:	48 89 e5             	mov    %rsp,%rbp
    11b2:	41 57                	push   %r15
    11b4:	41 56                	push   %r14
    11b6:	41 55                	push   %r13
    11b8:	41 54                	push   %r12
    11ba:	53                   	push   %rbx
    11bb:	48 81 ec 88 02 00 00 	sub    $0x288,%rsp
    11c2:	64 48 8b 04 25 28 00 	mov    %fs:0x28,%rax
    11c9:	00 00 
    11cb:	48 89 45 c8          	mov    %rax,-0x38(%rbp)
    11cf:	31 c0                	xor    %eax,%eax
    11d1:	e8 6a ff ff ff       	call   1140 <calloc@plt>
    11d6:	be 02 00 00 00       	mov    $0x2,%esi
    11db:	bf 12 00 00 00       	mov    $0x12,%edi
    11e0:	49 89 c5             	mov    %rax,%r13
    11e3:	e8 58 ff ff ff       	call   1140 <calloc@plt>
    11e8:	66 0f 6f 05 60 0f 00 	movdqa 0xf60(%rip),%xmm0        # 2150 <_IO_stdin_used+0x150>
    11ef:	00 
    11f0:	c7 85 80 fd ff ff 03 	movl   $0x3,-0x280(%rbp)
    11f7:	00 00 00 
    11fa:	49 89 c4             	mov    %rax,%r12
    11fd:	c6 85 98 fd ff ff 03 	movb   $0x3,-0x268(%rbp)
    1204:	0f 11 00             	movups %xmm0,(%rax)
    1207:	48 8b 05 62 0f 00 00 	mov    0xf62(%rip),%rax        # 2170 <_IO_stdin_used+0x170>
    120e:	66 49 0f 6e c5       	movq   %r13,%xmm0
    1213:	66 49 0f 6e fc       	movq   %r12,%xmm7
    1218:	41 c7 44 24 18 00 02 	movl   $0x200,0x18(%r12)
    121f:	00 00 
    1221:	66 0f 6c c7          	punpcklqdq %xmm7,%xmm0
    1225:	49 89 44 24 10       	mov    %rax,0x10(%r12)
    122a:	b8 00 02 00 00       	mov    $0x200,%eax
    122f:	66 41 89 44 24 1c    	mov    %ax,0x1c(%r12)
    1235:	48 89 e0             	mov    %rsp,%rax
    1238:	0f 11 85 88 fd ff ff 	movups %xmm0,-0x278(%rbp)
    123f:	48 39 c4             	cmp    %rax,%rsp
    1242:	74 15                	je     1259 <main+0xb9>
    1244:	48 81 ec 00 10 00 00 	sub    $0x1000,%rsp
    124b:	48 83 8c 24 f8 0f 00 	orq    $0x0,0xff8(%rsp)
    1252:	00 00 
    1254:	48 39 c4             	cmp    %rax,%rsp
    1257:	75 eb                	jne    1244 <main+0xa4>
    1259:	48 81 ec 00 08 00 00 	sub    $0x800,%rsp
    1260:	48 83 8c 24 f8 07 00 	orq    $0x0,0x7f8(%rsp)
    1267:	00 00 
    1269:	48 89 a5 78 fd ff ff 	mov    %rsp,-0x288(%rbp)
    1270:	48 89 e0             	mov    %rsp,%rax
    1273:	48 39 c4             	cmp    %rax,%rsp
    1276:	74 12                	je     128a <main+0xea>
    1278:	48 81 ec 00 10 00 00 	sub    $0x1000,%rsp
    127f:	48 83 8c 24 f8 0f 00 	orq    $0x0,0xff8(%rsp)
    1286:	00 00 
    1288:	eb e9                	jmp    1273 <main+0xd3>
    128a:	48 81 ec 00 08 00 00 	sub    $0x800,%rsp
    1291:	48 83 8c 24 f8 07 00 	orq    $0x0,0x7f8(%rsp)
    1298:	00 00 
    129a:	48 89 e3             	mov    %rsp,%rbx
    129d:	48 89 e0             	mov    %rsp,%rax
    12a0:	48 39 c4             	cmp    %rax,%rsp
    12a3:	74 12                	je     12b7 <main+0x117>
    12a5:	48 81 ec 00 10 00 00 	sub    $0x1000,%rsp
    12ac:	48 83 8c 24 f8 0f 00 	orq    $0x0,0xff8(%rsp)
    12b3:	00 00 
    12b5:	eb e9                	jmp    12a0 <main+0x100>
    12b7:	48 81 ec 00 08 00 00 	sub    $0x800,%rsp
    12be:	48 83 8c 24 f8 07 00 	orq    $0x0,0x7f8(%rsp)
    12c5:	00 00 
    12c7:	4c 8d 05 72 0d 00 00 	lea    0xd72(%rip),%r8        # 2040 <_IO_stdin_used+0x40>
    12ce:	ba 00 02 00 00       	mov    $0x200,%edx
    12d3:	31 c0                	xor    %eax,%eax
    12d5:	48 8d 0d 3b 0d 00 00 	lea    0xd3b(%rip),%rcx        # 2017 <_IO_stdin_used+0x17>
    12dc:	be 01 00 00 00       	mov    $0x1,%esi
    12e1:	4c 8d bd c0 fd ff ff 	lea    -0x240(%rbp),%r15
    12e8:	48 89 a5 60 fd ff ff 	mov    %rsp,-0x2a0(%rbp)
    12ef:	4c 89 ff             	mov    %r15,%rdi
    12f2:	e8 99 fe ff ff       	call   1190 <__sprintf_chk@plt>
    12f7:	48 8d 35 2a 0d 00 00 	lea    0xd2a(%rip),%rsi        # 2028 <_IO_stdin_used+0x28>
    12fe:	4c 89 ff             	mov    %r15,%rdi
    1301:	e8 6a fe ff ff       	call   1170 <fopen@plt>
    1306:	48 89 85 70 fd ff ff 	mov    %rax,-0x290(%rbp)
    130d:	48 85 c0             	test   %rax,%rax
    1310:	0f 84 e3 03 00 00    	je     16f9 <main+0x559>
    1316:	ba 00 02 00 00       	mov    $0x200,%edx
    131b:	be 01 00 00 00       	mov    $0x1,%esi
    1320:	4c 89 ff             	mov    %r15,%rdi
    1323:	31 c0                	xor    %eax,%eax
    1325:	4c 8d 05 14 0d 00 00 	lea    0xd14(%rip),%r8        # 2040 <_IO_stdin_used+0x40>
    132c:	48 8d 0d 5d 0d 00 00 	lea    0xd5d(%rip),%rcx        # 2090 <_IO_stdin_used+0x90>
    1333:	e8 58 fe ff ff       	call   1190 <__sprintf_chk@plt>
    1338:	48 8d 35 e9 0c 00 00 	lea    0xce9(%rip),%rsi        # 2028 <_IO_stdin_used+0x28>
    133f:	4c 89 ff             	mov    %r15,%rdi
    1342:	e8 29 fe ff ff       	call   1170 <fopen@plt>
    1347:	49 89 c6             	mov    %rax,%r14
    134a:	48 85 c0             	test   %rax,%rax
    134d:	0f 84 a6 03 00 00    	je     16f9 <main+0x559>
    1353:	ba 00 02 00 00       	mov    $0x200,%edx
    1358:	be 01 00 00 00       	mov    $0x1,%esi
    135d:	4c 89 ff             	mov    %r15,%rdi
    1360:	31 c0                	xor    %eax,%eax
    1362:	4c 8d 05 d7 0c 00 00 	lea    0xcd7(%rip),%r8        # 2040 <_IO_stdin_used+0x40>
    1369:	48 8d 0d 48 0d 00 00 	lea    0xd48(%rip),%rcx        # 20b8 <_IO_stdin_used+0xb8>
    1370:	e8 1b fe ff ff       	call   1190 <__sprintf_chk@plt>
    1375:	48 8d 35 ac 0c 00 00 	lea    0xcac(%rip),%rsi        # 2028 <_IO_stdin_used+0x28>
    137c:	4c 89 ff             	mov    %r15,%rdi
    137f:	e8 ec fd ff ff       	call   1170 <fopen@plt>
    1384:	48 85 c0             	test   %rax,%rax
    1387:	48 89 85 68 fd ff ff 	mov    %rax,-0x298(%rbp)
    138e:	0f 84 65 03 00 00    	je     16f9 <main+0x559>
    1394:	48 8b 95 70 fd ff ff 	mov    -0x290(%rbp),%rdx
    139b:	48 8b bd 78 fd ff ff 	mov    -0x288(%rbp),%rdi
    13a2:	be ff 03 00 00       	mov    $0x3ff,%esi
    13a7:	e8 e4 05 00 00       	call   1990 <test_Fread.constprop.0.isra.0>
    13ac:	4c 8b bd 60 fd ff ff 	mov    -0x2a0(%rbp),%r15
    13b3:	4c 89 f2             	mov    %r14,%rdx
    13b6:	be ff 03 00 00       	mov    $0x3ff,%esi
    13bb:	4c 89 ff             	mov    %r15,%rdi
    13be:	e8 cd 05 00 00       	call   1990 <test_Fread.constprop.0.isra.0>
    13c3:	4c 8d 8d a0 fd ff ff 	lea    -0x260(%rbp),%r9
    13ca:	be 0c 00 00 00       	mov    $0xc,%esi
    13cf:	48 8b 95 68 fd ff ff 	mov    -0x298(%rbp),%rdx
    13d6:	4c 89 cf             	mov    %r9,%rdi
    13d9:	4c 89 8d 68 fd ff ff 	mov    %r9,-0x298(%rbp)
    13e0:	e8 ab 05 00 00       	call   1990 <test_Fread.constprop.0.isra.0>
    13e5:	48 8b b5 78 fd ff ff 	mov    -0x288(%rbp),%rsi
    13ec:	b9 ff 03 00 00       	mov    $0x3ff,%ecx
    13f1:	48 89 da             	mov    %rbx,%rdx
    13f4:	48 8d bd 80 fd ff ff 	lea    -0x280(%rbp),%rdi
    13fb:	e8 a0 05 00 00       	call   19a0 <riscv_dsp_bq_df1_q15>
    1400:	ba ff 03 00 00       	mov    $0x3ff,%edx
    1405:	48 89 de             	mov    %rbx,%rsi
    1408:	4c 89 ff             	mov    %r15,%rdi
    140b:	e8 f0 03 00 00       	call   1800 <dump2_q15>
    1410:	48 8b bd 68 fd ff ff 	mov    -0x298(%rbp),%rdi
    1417:	ba 0c 00 00 00       	mov    $0xc,%edx
    141c:	4c 89 ee             	mov    %r13,%rsi
    141f:	e8 dc 03 00 00       	call   1800 <dump2_q15>
    1424:	66 83 f8 01          	cmp    $0x1,%ax
    1428:	0f 8f cb 02 00 00    	jg     16f9 <main+0x559>
    142e:	48 8b bd 70 fd ff ff 	mov    -0x290(%rbp),%rdi
    1435:	e8 e6 fc ff ff       	call   1120 <fclose@plt>
    143a:	4c 89 f7             	mov    %r14,%rdi
    143d:	e8 de fc ff ff       	call   1120 <fclose@plt>
    1442:	4c 89 ef             	mov    %r13,%rdi
    1445:	e8 a6 fc ff ff       	call   10f0 <free@plt>
    144a:	4c 89 e7             	mov    %r12,%rdi
    144d:	e8 9e fc ff ff       	call   10f0 <free@plt>
    1452:	48 8d 84 24 00 f0 ff 	lea    -0x1000(%rsp),%rax
    1459:	ff 
    145a:	48 39 c4             	cmp    %rax,%rsp
    145d:	74 15                	je     1474 <main+0x2d4>
    145f:	48 81 ec 00 10 00 00 	sub    $0x1000,%rsp
    1466:	48 83 8c 24 f8 0f 00 	orq    $0x0,0xff8(%rsp)
    146d:	00 00 
    146f:	48 39 c4             	cmp    %rax,%rsp
    1472:	75 eb                	jne    145f <main+0x2bf>
    1474:	49 89 e4             	mov    %rsp,%r12
    1477:	48 8d 84 24 00 f0 ff 	lea    -0x1000(%rsp),%rax
    147e:	ff 
    147f:	48 39 c4             	cmp    %rax,%rsp
    1482:	74 12                	je     1496 <main+0x2f6>
    1484:	48 81 ec 00 10 00 00 	sub    $0x1000,%rsp
    148b:	48 83 8c 24 f8 0f 00 	orq    $0x0,0xff8(%rsp)
    1492:	00 00 
    1494:	eb e9                	jmp    147f <main+0x2df>
    1496:	ba ff 03 00 00       	mov    $0x3ff,%edx
    149b:	48 8b bd 60 fd ff ff 	mov    -0x2a0(%rbp),%rdi
    14a2:	4c 89 e6             	mov    %r12,%rsi
    14a5:	49 89 e5             	mov    %rsp,%r13
    14a8:	e8 a3 06 00 00       	call   1b50 <riscv_dsp_convert_q15_f32>
    14ad:	ba ff 03 00 00       	mov    $0x3ff,%edx
    14b2:	4c 89 ee             	mov    %r13,%rsi
    14b5:	48 89 df             	mov    %rbx,%rdi
    14b8:	e8 93 06 00 00       	call   1b50 <riscv_dsp_convert_q15_f32>
    14bd:	66 0f ef db          	pxor   %xmm3,%xmm3
    14c1:	66 0f ef ff          	pxor   %xmm7,%xmm7
    14c5:	31 c0                	xor    %eax,%eax
    14c7:	66 0f 28 ef          	movapd %xmm7,%xmm5
    14cb:	0f 28 c3             	movaps %xmm3,%xmm0
    14ce:	44 0f 28 c3          	movaps %xmm3,%xmm8
    14d2:	f3 44 0f 10 0d 85 0c 	movss  0xc85(%rip),%xmm9        # 2160 <_IO_stdin_used+0x160>
    14d9:	00 00 
    14db:	0f 28 f3             	movaps %xmm3,%xmm6
    14de:	66 90                	xchg   %ax,%ax
    14e0:	f3 41 0f 10 4c 05 00 	movss  0x0(%r13,%rax,1),%xmm1
    14e7:	f3 41 0f 10 14 04    	movss  (%r12,%rax,1),%xmm2
    14ed:	66 0f 7e cb          	movd   %xmm1,%ebx
    14f1:	81 fb 00 00 c0 7f    	cmp    $0x7fc00000,%ebx
    14f7:	0f 84 b7 01 00 00    	je     16b4 <main+0x514>
    14fd:	0f 28 e2             	movaps %xmm2,%xmm4
    1500:	f3 0f 5c ca          	subss  %xmm2,%xmm1
    1504:	48 83 c0 04          	add    $0x4,%rax
    1508:	f3 0f 5f e6          	maxss  %xmm6,%xmm4
    150c:	0f 28 f4             	movaps %xmm4,%xmm6
    150f:	0f 28 e2             	movaps %xmm2,%xmm4
    1512:	f3 41 0f 5d e0       	minss  %xmm8,%xmm4
    1517:	f3 0f 59 d2          	mulss  %xmm2,%xmm2
    151b:	44 0f 28 c4          	movaps %xmm4,%xmm8
    151f:	0f 28 e1             	movaps %xmm1,%xmm4
    1522:	f3 0f 59 c9          	mulss  %xmm1,%xmm1
    1526:	41 0f 54 e1          	andps  %xmm9,%xmm4
    152a:	f3 0f 58 c4          	addss  %xmm4,%xmm0
    152e:	f3 0f 5f e3          	maxss  %xmm3,%xmm4
    1532:	f3 0f 5a d2          	cvtss2sd %xmm2,%xmm2
    1536:	f2 0f 58 fa          	addsd  %xmm2,%xmm7
    153a:	0f 28 dc             	movaps %xmm4,%xmm3
    153d:	f3 0f 5a c9          	cvtss2sd %xmm1,%xmm1
    1541:	f2 0f 58 e9          	addsd  %xmm1,%xmm5
    1545:	48 3d fc 0f 00 00    	cmp    $0xffc,%rax
    154b:	75 93                	jne    14e0 <main+0x340>
    154d:	66 48 0f 7e e8       	movq   %xmm5,%rax
    1552:	f3 0f 11 a5 60 fd ff 	movss  %xmm4,-0x2a0(%rbp)
    1559:	ff 
    155a:	f3 44 0f 11 85 68 fd 	movss  %xmm8,-0x298(%rbp)
    1561:	ff ff 
    1563:	f3 0f 11 b5 70 fd ff 	movss  %xmm6,-0x290(%rbp)
    156a:	ff 
    156b:	f2 0f 11 bd 78 fd ff 	movsd  %xmm7,-0x288(%rbp)
    1572:	ff 
    1573:	3d 00 00 c0 7f       	cmp    $0x7fc00000,%eax
    1578:	0f 84 36 01 00 00    	je     16b4 <main+0x514>
    157e:	f3 0f 5e 05 ba 0b 00 	divss  0xbba(%rip),%xmm0        # 2140 <_IO_stdin_used+0x140>
    1585:	00 
    1586:	f2 0f 11 ad 58 fd ff 	movsd  %xmm5,-0x2a8(%rbp)
    158d:	ff 
    158e:	66 0f 7e c3          	movd   %xmm0,%ebx
    1592:	66 0f 28 c5          	movapd %xmm5,%xmm0
    1596:	f2 0f 5e 05 da 0b 00 	divsd  0xbda(%rip),%xmm0        # 2178 <_IO_stdin_used+0x178>
    159d:	00 
    159e:	e8 dd fb ff ff       	call   1180 <sqrt@plt>
    15a3:	f3 0f 10 b5 70 fd ff 	movss  -0x290(%rbp),%xmm6
    15aa:	ff 
    15ab:	f3 44 0f 10 85 68 fd 	movss  -0x298(%rbp),%xmm8
    15b2:	ff ff 
    15b4:	66 0f ef c9          	pxor   %xmm1,%xmm1
    15b8:	66 0f ef ff          	pxor   %xmm7,%xmm7
    15bc:	f3 0f 10 9d 60 fd ff 	movss  -0x2a0(%rbp),%xmm3
    15c3:	ff 
    15c4:	f3 41 0f 5c f0       	subss  %xmm8,%xmm6
    15c9:	f2 0f 5a c8          	cvtsd2ss %xmm0,%xmm1
    15cd:	0f 28 e9             	movaps %xmm1,%xmm5
    15d0:	f3 0f 5e ee          	divss  %xmm6,%xmm5
    15d4:	66 41 0f 7e ec       	movd   %xmm5,%r12d
    15d9:	f2 0f 10 ad 58 fd ff 	movsd  -0x2a8(%rbp),%xmm5
    15e0:	ff 
    15e1:	66 0f 2e ef          	ucomisd %xmm7,%xmm5
    15e5:	f2 0f 10 bd 78 fd ff 	movsd  -0x288(%rbp),%xmm7
    15ec:	ff 
    15ed:	0f 8a c5 00 00 00    	jp     16b8 <main+0x518>
    15f3:	f3 0f 10 25 41 0b 00 	movss  0xb41(%rip),%xmm4        # 213c <_IO_stdin_used+0x13c>
    15fa:	00 
    15fb:	0f 85 b7 00 00 00    	jne    16b8 <main+0x518>
    1601:	48 8d 3d 22 0a 00 00 	lea    0xa22(%rip),%rdi        # 202a <_IO_stdin_used+0x2a>
    1608:	f3 0f 11 9d 68 fd ff 	movss  %xmm3,-0x298(%rbp)
    160f:	ff 
    1610:	f3 0f 11 a5 78 fd ff 	movss  %xmm4,-0x288(%rbp)
    1617:	ff 
    1618:	f3 0f 11 8d 70 fd ff 	movss  %xmm1,-0x290(%rbp)
    161f:	ff 
    1620:	e8 db fa ff ff       	call   1100 <puts@plt>
    1625:	66 41 0f 6e ec       	movd   %r12d,%xmm5
    162a:	66 0f ef d2          	pxor   %xmm2,%xmm2
    162e:	f3 0f 10 a5 78 fd ff 	movss  -0x288(%rbp),%xmm4
    1635:	ff 
    1636:	f3 0f 10 9d 68 fd ff 	movss  -0x298(%rbp),%xmm3
    163d:	ff 
    163e:	f3 0f 10 8d 70 fd ff 	movss  -0x290(%rbp),%xmm1
    1645:	ff 
    1646:	f3 0f 5a d5          	cvtss2sd %xmm5,%xmm2
    164a:	66 0f ef c0          	pxor   %xmm0,%xmm0
    164e:	66 0f 6e eb          	movd   %ebx,%xmm5
    1652:	48 8d 35 8f 0a 00 00 	lea    0xa8f(%rip),%rsi        # 20e8 <_IO_stdin_used+0xe8>
    1659:	bf 01 00 00 00       	mov    $0x1,%edi
    165e:	b8 05 00 00 00       	mov    $0x5,%eax
    1663:	f3 0f 5a c5          	cvtss2sd %xmm5,%xmm0
    1667:	f3 0f 5a e4          	cvtss2sd %xmm4,%xmm4
    166b:	f3 0f 5a db          	cvtss2sd %xmm3,%xmm3
    166f:	f3 0f 5a c9          	cvtss2sd %xmm1,%xmm1
    1673:	f2 0f 11 95 78 fd ff 	movsd  %xmm2,-0x288(%rbp)
    167a:	ff 
    167b:	e8 e0 fa ff ff       	call   1160 <__printf_chk@plt>
    1680:	f2 0f 10 05 f8 0a 00 	movsd  0xaf8(%rip),%xmm0        # 2180 <_IO_stdin_used+0x180>
    1687:	00 
    1688:	f2 0f 10 95 78 fd ff 	movsd  -0x288(%rbp),%xmm2
    168f:	ff 
    1690:	66 0f 2f c2          	comisd %xmm2,%xmm0
    1694:	19 c0                	sbb    %eax,%eax
    1696:	48 8b 55 c8          	mov    -0x38(%rbp),%rdx
    169a:	64 48 2b 14 25 28 00 	sub    %fs:0x28,%rdx
    16a1:	00 00 
    16a3:	75 59                	jne    16fe <main+0x55e>
    16a5:	48 8d 65 d8          	lea    -0x28(%rbp),%rsp
    16a9:	5b                   	pop    %rbx
    16aa:	41 5c                	pop    %r12
    16ac:	41 5d                	pop    %r13
    16ae:	41 5e                	pop    %r14
    16b0:	41 5f                	pop    %r15
    16b2:	5d                   	pop    %rbp
    16b3:	c3                   	ret    
    16b4:	31 c0                	xor    %eax,%eax
    16b6:	eb de                	jmp    1696 <main+0x4f6>
    16b8:	f2 0f 5e fd          	divsd  %xmm5,%xmm7
    16bc:	66 0f ef c0          	pxor   %xmm0,%xmm0
    16c0:	f3 0f 11 9d 70 fd ff 	movss  %xmm3,-0x290(%rbp)
    16c7:	ff 
    16c8:	f3 0f 11 8d 78 fd ff 	movss  %xmm1,-0x288(%rbp)
    16cf:	ff 
    16d0:	f2 0f 5a c7          	cvtsd2ss %xmm7,%xmm0
    16d4:	e8 77 fa ff ff       	call   1150 <log10f@plt>
    16d9:	f3 0f 59 05 63 0a 00 	mulss  0xa63(%rip),%xmm0        # 2144 <_IO_stdin_used+0x144>
    16e0:	00 
    16e1:	f3 0f 10 9d 70 fd ff 	movss  -0x290(%rbp),%xmm3
    16e8:	ff 
    16e9:	f3 0f 10 8d 78 fd ff 	movss  -0x288(%rbp),%xmm1
    16f0:	ff 
    16f1:	0f 28 e0             	movaps %xmm0,%xmm4
    16f4:	e9 08 ff ff ff       	jmp    1601 <main+0x461>
    16f9:	83 c8 ff             	or     $0xffffffff,%eax
    16fc:	eb 98                	jmp    1696 <main+0x4f6>
    16fe:	e8 2d fa ff ff       	call   1130 <__stack_chk_fail@plt>
    1703:	66 2e 0f 1f 84 00 00 	cs nopw 0x0(%rax,%rax,1)
    170a:	00 00 00 
    170d:	0f 1f 00             	nopl   (%rax)

0000000000001710 <_start>:
    1710:	f3 0f 1e fa          	endbr64 
    1714:	31 ed                	xor    %ebp,%ebp
    1716:	49 89 d1             	mov    %rdx,%r9
    1719:	5e                   	pop    %rsi
    171a:	48 89 e2             	mov    %rsp,%rdx
    171d:	48 83 e4 f0          	and    $0xfffffffffffffff0,%rsp
    1721:	50                   	push   %rax
    1722:	54                   	push   %rsp
    1723:	45 31 c0             	xor    %r8d,%r8d
    1726:	31 c9                	xor    %ecx,%ecx
    1728:	48 8d 3d 71 fa ff ff 	lea    -0x58f(%rip),%rdi        # 11a0 <main>
    172f:	ff 15 a3 28 00 00    	call   *0x28a3(%rip)        # 3fd8 <__libc_start_main@GLIBC_2.34>
    1735:	f4                   	hlt    
    1736:	66 2e 0f 1f 84 00 00 	cs nopw 0x0(%rax,%rax,1)
    173d:	00 00 00 

0000000000001740 <deregister_tm_clones>:
    1740:	48 8d 3d c9 28 00 00 	lea    0x28c9(%rip),%rdi        # 4010 <__TMC_END__>
    1747:	48 8d 05 c2 28 00 00 	lea    0x28c2(%rip),%rax        # 4010 <__TMC_END__>
    174e:	48 39 f8             	cmp    %rdi,%rax
    1751:	74 15                	je     1768 <deregister_tm_clones+0x28>
    1753:	48 8b 05 86 28 00 00 	mov    0x2886(%rip),%rax        # 3fe0 <_ITM_deregisterTMCloneTable@Base>
    175a:	48 85 c0             	test   %rax,%rax
    175d:	74 09                	je     1768 <deregister_tm_clones+0x28>
    175f:	ff e0                	jmp    *%rax
    1761:	0f 1f 80 00 00 00 00 	nopl   0x0(%rax)
    1768:	c3                   	ret    
    1769:	0f 1f 80 00 00 00 00 	nopl   0x0(%rax)

0000000000001770 <register_tm_clones>:
    1770:	48 8d 3d 99 28 00 00 	lea    0x2899(%rip),%rdi        # 4010 <__TMC_END__>
    1777:	48 8d 35 92 28 00 00 	lea    0x2892(%rip),%rsi        # 4010 <__TMC_END__>
    177e:	48 29 fe             	sub    %rdi,%rsi
    1781:	48 89 f0             	mov    %rsi,%rax
    1784:	48 c1 ee 3f          	shr    $0x3f,%rsi
    1788:	48 c1 f8 03          	sar    $0x3,%rax
    178c:	48 01 c6             	add    %rax,%rsi
    178f:	48 d1 fe             	sar    %rsi
    1792:	74 14                	je     17a8 <register_tm_clones+0x38>
    1794:	48 8b 05 55 28 00 00 	mov    0x2855(%rip),%rax        # 3ff0 <_ITM_registerTMCloneTable@Base>
    179b:	48 85 c0             	test   %rax,%rax
    179e:	74 08                	je     17a8 <register_tm_clones+0x38>
    17a0:	ff e0                	jmp    *%rax
    17a2:	66 0f 1f 44 00 00    	nopw   0x0(%rax,%rax,1)
    17a8:	c3                   	ret    
    17a9:	0f 1f 80 00 00 00 00 	nopl   0x0(%rax)

00000000000017b0 <__do_global_dtors_aux>:
    17b0:	f3 0f 1e fa          	endbr64 
    17b4:	80 3d 55 28 00 00 00 	cmpb   $0x0,0x2855(%rip)        # 4010 <__TMC_END__>
    17bb:	75 2b                	jne    17e8 <__do_global_dtors_aux+0x38>
    17bd:	55                   	push   %rbp
    17be:	48 83 3d 32 28 00 00 	cmpq   $0x0,0x2832(%rip)        # 3ff8 <__cxa_finalize@GLIBC_2.2.5>
    17c5:	00 
    17c6:	48 89 e5             	mov    %rsp,%rbp
    17c9:	74 0c                	je     17d7 <__do_global_dtors_aux+0x27>
    17cb:	48 8b 3d 36 28 00 00 	mov    0x2836(%rip),%rdi        # 4008 <__dso_handle>
    17d2:	e8 09 f9 ff ff       	call   10e0 <__cxa_finalize@plt>
    17d7:	e8 64 ff ff ff       	call   1740 <deregister_tm_clones>
    17dc:	c6 05 2d 28 00 00 01 	movb   $0x1,0x282d(%rip)        # 4010 <__TMC_END__>
    17e3:	5d                   	pop    %rbp
    17e4:	c3                   	ret    
    17e5:	0f 1f 00             	nopl   (%rax)
    17e8:	c3                   	ret    
    17e9:	0f 1f 80 00 00 00 00 	nopl   0x0(%rax)

00000000000017f0 <frame_dummy>:
    17f0:	f3 0f 1e fa          	endbr64 
    17f4:	e9 77 ff ff ff       	jmp    1770 <register_tm_clones>
    17f9:	0f 1f 80 00 00 00 00 	nopl   0x0(%rax)

0000000000001800 <dump2_q15>:
    1800:	41 54                	push   %r12
    1802:	89 d1                	mov    %edx,%ecx
    1804:	66 0f ef d2          	pxor   %xmm2,%xmm2
    1808:	c1 ea 03             	shr    $0x3,%edx
    180b:	48 c1 e2 04          	shl    $0x4,%rdx
    180f:	31 c0                	xor    %eax,%eax
    1811:	66 0f 6f da          	movdqa %xmm2,%xmm3
    1815:	0f 1f 00             	nopl   (%rax)
    1818:	f3 0f 6f 04 06       	movdqu (%rsi,%rax,1),%xmm0
    181d:	f3 0f 6f 24 07       	movdqu (%rdi,%rax,1),%xmm4
    1822:	66 0f 6f cb          	movdqa %xmm3,%xmm1
    1826:	48 83 c0 10          	add    $0x10,%rax
    182a:	66 0f f9 c4          	psubw  %xmm4,%xmm0
    182e:	66 0f f9 c8          	psubw  %xmm0,%xmm1
    1832:	66 0f ee c1          	pmaxsw %xmm1,%xmm0
    1836:	66 0f ee d0          	pmaxsw %xmm0,%xmm2
    183a:	48 39 d0             	cmp    %rdx,%rax
    183d:	75 d9                	jne    1818 <dump2_q15+0x18>
    183f:	66 0f 6f c2          	movdqa %xmm2,%xmm0
    1843:	89 c8                	mov    %ecx,%eax
    1845:	66 0f 73 d8 08       	psrldq $0x8,%xmm0
    184a:	83 e0 f8             	and    $0xfffffff8,%eax
    184d:	66 0f ee d0          	pmaxsw %xmm0,%xmm2
    1851:	89 c2                	mov    %eax,%edx
    1853:	66 0f 6f c2          	movdqa %xmm2,%xmm0
    1857:	48 01 d2             	add    %rdx,%rdx
    185a:	66 0f 73 d8 04       	psrldq $0x4,%xmm0
    185f:	48 01 d7             	add    %rdx,%rdi
    1862:	48 01 d6             	add    %rdx,%rsi
    1865:	66 0f ee d0          	pmaxsw %xmm0,%xmm2
    1869:	66 0f 6f c2          	movdqa %xmm2,%xmm0
    186d:	66 0f 73 d8 02       	psrldq $0x2,%xmm0
    1872:	66 0f ee d0          	pmaxsw %xmm0,%xmm2
    1876:	66 44 0f c5 e2 00    	pextrw $0x0,%xmm2,%r12d
    187c:	39 c1                	cmp    %eax,%ecx
    187e:	0f 84 ea 00 00 00    	je     196e <dump2_q15+0x16e>
    1884:	0f b7 16             	movzwl (%rsi),%edx
    1887:	66 2b 17             	sub    (%rdi),%dx
    188a:	41 89 d0             	mov    %edx,%r8d
    188d:	66 41 f7 d8          	neg    %r8w
    1891:	41 0f 49 d0          	cmovns %r8d,%edx
    1895:	66 41 39 d4          	cmp    %dx,%r12w
    1899:	44 0f 4c e2          	cmovl  %edx,%r12d
    189d:	8d 50 01             	lea    0x1(%rax),%edx
    18a0:	39 d1                	cmp    %edx,%ecx
    18a2:	0f 86 c6 00 00 00    	jbe    196e <dump2_q15+0x16e>
    18a8:	0f b7 56 02          	movzwl 0x2(%rsi),%edx
    18ac:	66 2b 57 02          	sub    0x2(%rdi),%dx
    18b0:	41 89 d0             	mov    %edx,%r8d
    18b3:	66 41 f7 d8          	neg    %r8w
    18b7:	41 0f 49 d0          	cmovns %r8d,%edx
    18bb:	66 41 39 d4          	cmp    %dx,%r12w
    18bf:	44 0f 4c e2          	cmovl  %edx,%r12d
    18c3:	8d 50 02             	lea    0x2(%rax),%edx
    18c6:	39 d1                	cmp    %edx,%ecx
    18c8:	0f 86 a0 00 00 00    	jbe    196e <dump2_q15+0x16e>
    18ce:	0f b7 56 04          	movzwl 0x4(%rsi),%edx
    18d2:	66 2b 57 04          	sub    0x4(%rdi),%dx
    18d6:	41 89 d0             	mov    %edx,%r8d
    18d9:	66 41 f7 d8          	neg    %r8w
    18dd:	41 0f 49 d0          	cmovns %r8d,%edx
    18e1:	66 41 39 d4          	cmp    %dx,%r12w
    18e5:	44 0f 4c e2          	cmovl  %edx,%r12d
    18e9:	8d 50 03             	lea    0x3(%rax),%edx
    18ec:	39 d1                	cmp    %edx,%ecx
    18ee:	76 7e                	jbe    196e <dump2_q15+0x16e>
    18f0:	0f b7 56 06          	movzwl 0x6(%rsi),%edx
    18f4:	66 2b 57 06          	sub    0x6(%rdi),%dx
    18f8:	41 89 d0             	mov    %edx,%r8d
    18fb:	66 41 f7 d8          	neg    %r8w
    18ff:	41 0f 49 d0          	cmovns %r8d,%edx
    1903:	66 41 39 d4          	cmp    %dx,%r12w
    1907:	44 0f 4c e2          	cmovl  %edx,%r12d
    190b:	8d 50 04             	lea    0x4(%rax),%edx
    190e:	39 d1                	cmp    %edx,%ecx
    1910:	76 5c                	jbe    196e <dump2_q15+0x16e>
    1912:	0f b7 56 08          	movzwl 0x8(%rsi),%edx
    1916:	66 2b 57 08          	sub    0x8(%rdi),%dx
    191a:	41 89 d0             	mov    %edx,%r8d
    191d:	66 41 f7 d8          	neg    %r8w
    1921:	41 0f 49 d0          	cmovns %r8d,%edx
    1925:	66 41 39 d4          	cmp    %dx,%r12w
    1929:	44 0f 4c e2          	cmovl  %edx,%r12d
    192d:	8d 50 05             	lea    0x5(%rax),%edx
    1930:	39 d1                	cmp    %edx,%ecx
    1932:	76 3a                	jbe    196e <dump2_q15+0x16e>
    1934:	0f b7 56 0a          	movzwl 0xa(%rsi),%edx
    1938:	66 2b 57 0a          	sub    0xa(%rdi),%dx
    193c:	41 89 d0             	mov    %edx,%r8d
    193f:	66 41 f7 d8          	neg    %r8w
    1943:	41 0f 49 d0          	cmovns %r8d,%edx
    1947:	66 41 39 d4          	cmp    %dx,%r12w
    194b:	44 0f 4c e2          	cmovl  %edx,%r12d
    194f:	83 c0 06             	add    $0x6,%eax
    1952:	39 c1                	cmp    %eax,%ecx
    1954:	76 18                	jbe    196e <dump2_q15+0x16e>
    1956:	0f b7 46 0c          	movzwl 0xc(%rsi),%eax
    195a:	66 2b 47 0c          	sub    0xc(%rdi),%ax
    195e:	89 c2                	mov    %eax,%edx
    1960:	66 f7 da             	neg    %dx
    1963:	0f 49 c2             	cmovns %edx,%eax
    1966:	66 41 39 c4          	cmp    %ax,%r12w
    196a:	44 0f 4c e0          	cmovl  %eax,%r12d
    196e:	41 0f bf d4          	movswl %r12w,%edx
    1972:	48 8d 35 8b 06 00 00 	lea    0x68b(%rip),%rsi        # 2004 <_IO_stdin_used+0x4>
    1979:	bf 01 00 00 00       	mov    $0x1,%edi
    197e:	31 c0                	xor    %eax,%eax
    1980:	e8 db f7 ff ff       	call   1160 <__printf_chk@plt>
    1985:	44 89 e0             	mov    %r12d,%eax
    1988:	41 5c                	pop    %r12
    198a:	c3                   	ret    
    198b:	0f 1f 44 00 00       	nopl   0x0(%rax,%rax,1)

0000000000001990 <test_Fread.constprop.0.isra.0>:
    1990:	48 89 d1             	mov    %rdx,%rcx
    1993:	89 f2                	mov    %esi,%edx
    1995:	be 02 00 00 00       	mov    $0x2,%esi
    199a:	e9 71 f7 ff ff       	jmp    1110 <fread@plt>
    199f:	90                   	nop

00000000000019a0 <riscv_dsp_bq_df1_q15>:
    19a0:	f3 0f 1e fa          	endbr64 
    19a4:	41 57                	push   %r15
    19a6:	41 56                	push   %r14
    19a8:	41 55                	push   %r13
    19aa:	41 54                	push   %r12
    19ac:	55                   	push   %rbp
    19ad:	53                   	push   %rbx
    19ae:	48 8b 47 10          	mov    0x10(%rdi),%rax
    19b2:	bb 0f 00 00 00       	mov    $0xf,%ebx
    19b7:	4c 8b 77 08          	mov    0x8(%rdi),%r14
    19bb:	48 89 54 24 e0       	mov    %rdx,-0x20(%rsp)
    19c0:	0f be 57 18          	movsbl 0x18(%rdi),%edx
    19c4:	48 89 44 24 d8       	mov    %rax,-0x28(%rsp)
    19c9:	8b 07                	mov    (%rdi),%eax
    19cb:	29 d3                	sub    %edx,%ebx
    19cd:	89 4c 24 ec          	mov    %ecx,-0x14(%rsp)
    19d1:	89 5c 24 cc          	mov    %ebx,-0x34(%rsp)
    19d5:	8d 5a 11             	lea    0x11(%rdx),%ebx
    19d8:	4c 89 74 24 d0       	mov    %r14,-0x30(%rsp)
    19dd:	89 5c 24 e8          	mov    %ebx,-0x18(%rsp)
    19e1:	85 c0                	test   %eax,%eax
    19e3:	0f 84 57 01 00 00    	je     1b40 <riscv_dsp_bq_df1_q15+0x1a0>
    19e9:	49 8d 04 c6          	lea    (%r14,%rax,8),%rax
    19ed:	48 89 44 24 f0       	mov    %rax,-0x10(%rsp)
    19f2:	8d 41 ff             	lea    -0x1(%rcx),%eax
    19f5:	48 8d 44 00 02       	lea    0x2(%rax,%rax,1),%rax
    19fa:	48 89 44 24 f8       	mov    %rax,-0x8(%rsp)
    19ff:	90                   	nop
    1a00:	48 8b 44 24 d8       	mov    -0x28(%rsp),%rax
    1a05:	44 0f bf 28          	movswl (%rax),%r13d
    1a09:	44 0f bf 60 02       	movswl 0x2(%rax),%r12d
    1a0e:	48 83 c0 0a          	add    $0xa,%rax
    1a12:	0f bf 68 fa          	movswl -0x6(%rax),%ebp
    1a16:	0f bf 58 fc          	movswl -0x4(%rax),%ebx
    1a1a:	48 89 44 24 d8       	mov    %rax,-0x28(%rsp)
    1a1f:	44 0f bf 58 fe       	movswl -0x2(%rax),%r11d
    1a24:	48 8b 44 24 d0       	mov    -0x30(%rsp),%rax
    1a29:	f3 0f 7e 00          	movq   (%rax),%xmm0
    1a2d:	8b 44 24 ec          	mov    -0x14(%rsp),%eax
    1a31:	66 0f c5 d0 03       	pextrw $0x3,%xmm0,%edx
    1a36:	66 44 0f c5 c8 02    	pextrw $0x2,%xmm0,%r9d
    1a3c:	66 0f c5 c8 01       	pextrw $0x1,%xmm0,%ecx
    1a41:	66 0f c5 f8 00       	pextrw $0x0,%xmm0,%edi
    1a46:	85 c0                	test   %eax,%eax
    1a48:	0f 84 c7 00 00 00    	je     1b15 <riscv_dsp_bq_df1_q15+0x175>
    1a4e:	48 8b 44 24 f8       	mov    -0x8(%rsp),%rax
    1a53:	4c 8b 54 24 e0       	mov    -0x20(%rsp),%r10
    1a58:	4c 8d 34 06          	lea    (%rsi,%rax,1),%r14
    1a5c:	eb 08                	jmp    1a66 <riscv_dsp_bq_df1_q15+0xc6>
    1a5e:	66 90                	xchg   %ax,%ax
    1a60:	41 89 c1             	mov    %eax,%r9d
    1a63:	44 89 c7             	mov    %r8d,%edi
    1a66:	44 0f bf 3e          	movswl (%rsi),%r15d
    1a6a:	0f bf c7             	movswl %di,%eax
    1a6d:	0f bf d2             	movswl %dx,%edx
    1a70:	48 83 c6 02          	add    $0x2,%rsi
    1a74:	41 0f af c4          	imul   %r12d,%eax
    1a78:	45 89 f8             	mov    %r15d,%r8d
    1a7b:	45 0f af fd          	imul   %r13d,%r15d
    1a7f:	41 0f af d3          	imul   %r11d,%edx
    1a83:	48 98                	cltq   
    1a85:	4d 63 ff             	movslq %r15d,%r15
    1a88:	49 01 c7             	add    %rax,%r15
    1a8b:	0f bf c1             	movswl %cx,%eax
    1a8e:	48 63 d2             	movslq %edx,%rdx
    1a91:	0f b6 4c 24 e8       	movzbl -0x18(%rsp),%ecx
    1a96:	0f af c5             	imul   %ebp,%eax
    1a99:	48 98                	cltq   
    1a9b:	4c 01 f8             	add    %r15,%rax
    1a9e:	45 0f bf f9          	movswl %r9w,%r15d
    1aa2:	44 0f af fb          	imul   %ebx,%r15d
    1aa6:	4d 63 ff             	movslq %r15d,%r15
    1aa9:	49 01 c7             	add    %rax,%r15
    1aac:	4c 01 fa             	add    %r15,%rdx
    1aaf:	48 89 d0             	mov    %rdx,%rax
    1ab2:	48 c1 e8 20          	shr    $0x20,%rax
    1ab6:	d3 e0                	shl    %cl,%eax
    1ab8:	0f b6 4c 24 cc       	movzbl -0x34(%rsp),%ecx
    1abd:	d3 ea                	shr    %cl,%edx
    1abf:	89 f9                	mov    %edi,%ecx
    1ac1:	09 d0                	or     %edx,%eax
    1ac3:	ba 00 80 ff ff       	mov    $0xffff8000,%edx
    1ac8:	39 d0                	cmp    %edx,%eax
    1aca:	0f 4c c2             	cmovl  %edx,%eax
    1acd:	ba ff 7f 00 00       	mov    $0x7fff,%edx
    1ad2:	39 d0                	cmp    %edx,%eax
    1ad4:	0f 4f c2             	cmovg  %edx,%eax
    1ad7:	49 83 c2 02          	add    $0x2,%r10
    1adb:	44 89 ca             	mov    %r9d,%edx
    1ade:	44 0f b7 f8          	movzwl %ax,%r15d
    1ae2:	66 41 89 42 fe       	mov    %ax,-0x2(%r10)
    1ae7:	4c 39 f6             	cmp    %r14,%rsi
    1aea:	0f 85 70 ff ff ff    	jne    1a60 <riscv_dsp_bq_df1_q15+0xc0>
    1af0:	41 0f b7 c1          	movzwl %r9w,%eax
    1af4:	0f b7 ff             	movzwl %di,%edi
    1af7:	45 0f b7 c0          	movzwl %r8w,%r8d
    1afb:	48 c1 e0 10          	shl    $0x10,%rax
    1aff:	4c 09 f8             	or     %r15,%rax
    1b02:	48 c1 e0 10          	shl    $0x10,%rax
    1b06:	48 09 f8             	or     %rdi,%rax
    1b09:	48 c1 e0 10          	shl    $0x10,%rax
    1b0d:	4c 09 c0             	or     %r8,%rax
    1b10:	66 48 0f 6e c0       	movq   %rax,%xmm0
    1b15:	48 83 44 24 d0 08    	addq   $0x8,-0x30(%rsp)
    1b1b:	48 8b 44 24 d0       	mov    -0x30(%rsp),%rax
    1b20:	66 0f d6 40 f8       	movq   %xmm0,-0x8(%rax)
    1b25:	48 3b 44 24 f0       	cmp    -0x10(%rsp),%rax
    1b2a:	74 14                	je     1b40 <riscv_dsp_bq_df1_q15+0x1a0>
    1b2c:	48 8b 74 24 e0       	mov    -0x20(%rsp),%rsi
    1b31:	e9 ca fe ff ff       	jmp    1a00 <riscv_dsp_bq_df1_q15+0x60>
    1b36:	66 2e 0f 1f 84 00 00 	cs nopw 0x0(%rax,%rax,1)
    1b3d:	00 00 00 
    1b40:	5b                   	pop    %rbx
    1b41:	5d                   	pop    %rbp
    1b42:	41 5c                	pop    %r12
    1b44:	41 5d                	pop    %r13
    1b46:	41 5e                	pop    %r14
    1b48:	41 5f                	pop    %r15
    1b4a:	c3                   	ret    
    1b4b:	0f 1f 44 00 00       	nopl   0x0(%rax,%rax,1)

0000000000001b50 <riscv_dsp_convert_q15_f32>:
    1b50:	f3 0f 1e fa          	endbr64 
    1b54:	48 89 f1             	mov    %rsi,%rcx
    1b57:	85 d2                	test   %edx,%edx
    1b59:	0f 84 36 01 00 00    	je     1c95 <riscv_dsp_convert_q15_f32+0x145>
    1b5f:	8d 42 ff             	lea    -0x1(%rdx),%eax
    1b62:	83 f8 06             	cmp    $0x6,%eax
    1b65:	0f 86 36 01 00 00    	jbe    1ca1 <riscv_dsp_convert_q15_f32+0x151>
    1b6b:	89 d6                	mov    %edx,%esi
    1b6d:	0f 28 1d 1c 06 00 00 	movaps 0x61c(%rip),%xmm3        # 2190 <_IO_stdin_used+0x190>
    1b74:	31 c0                	xor    %eax,%eax
    1b76:	66 0f ef e4          	pxor   %xmm4,%xmm4
    1b7a:	c1 ee 03             	shr    $0x3,%esi
    1b7d:	48 c1 e6 04          	shl    $0x4,%rsi
    1b81:	0f 1f 80 00 00 00 00 	nopl   0x0(%rax)
    1b88:	f3 0f 6f 04 07       	movdqu (%rdi,%rax,1),%xmm0
    1b8d:	66 0f 6f d4          	movdqa %xmm4,%xmm2
    1b91:	66 0f 65 d0          	pcmpgtw %xmm0,%xmm2
    1b95:	66 0f 6f c8          	movdqa %xmm0,%xmm1
    1b99:	66 0f 61 ca          	punpcklwd %xmm2,%xmm1
    1b9d:	66 0f 69 c2          	punpckhwd %xmm2,%xmm0
    1ba1:	0f 5b c9             	cvtdq2ps %xmm1,%xmm1
    1ba4:	0f 5b c0             	cvtdq2ps %xmm0,%xmm0
    1ba7:	0f 59 cb             	mulps  %xmm3,%xmm1
    1baa:	0f 59 c3             	mulps  %xmm3,%xmm0
    1bad:	0f 11 0c 41          	movups %xmm1,(%rcx,%rax,2)
    1bb1:	0f 11 44 41 10       	movups %xmm0,0x10(%rcx,%rax,2)
    1bb6:	48 83 c0 10          	add    $0x10,%rax
    1bba:	48 39 f0             	cmp    %rsi,%rax
    1bbd:	75 c9                	jne    1b88 <riscv_dsp_convert_q15_f32+0x38>
    1bbf:	89 d6                	mov    %edx,%esi
    1bc1:	83 e6 f8             	and    $0xfffffff8,%esi
    1bc4:	89 f0                	mov    %esi,%eax
    1bc6:	48 8d 3c 47          	lea    (%rdi,%rax,2),%rdi
    1bca:	48 8d 0c 81          	lea    (%rcx,%rax,4),%rcx
    1bce:	89 d0                	mov    %edx,%eax
    1bd0:	29 f0                	sub    %esi,%eax
    1bd2:	39 f2                	cmp    %esi,%edx
    1bd4:	0f 84 c6 00 00 00    	je     1ca0 <riscv_dsp_convert_q15_f32+0x150>
    1bda:	0f bf 17             	movswl (%rdi),%edx
    1bdd:	66 0f ef c9          	pxor   %xmm1,%xmm1
    1be1:	f3 0f 10 05 a7 05 00 	movss  0x5a7(%rip),%xmm0        # 2190 <_IO_stdin_used+0x190>
    1be8:	00 
    1be9:	f3 0f 2a ca          	cvtsi2ss %edx,%xmm1
    1bed:	f3 0f 59 c8          	mulss  %xmm0,%xmm1
    1bf1:	f3 0f 11 09          	movss  %xmm1,(%rcx)
    1bf5:	83 f8 01             	cmp    $0x1,%eax
    1bf8:	0f 84 97 00 00 00    	je     1c95 <riscv_dsp_convert_q15_f32+0x145>
    1bfe:	0f bf 57 02          	movswl 0x2(%rdi),%edx
    1c02:	66 0f ef c9          	pxor   %xmm1,%xmm1
    1c06:	f3 0f 2a ca          	cvtsi2ss %edx,%xmm1
    1c0a:	f3 0f 59 c8          	mulss  %xmm0,%xmm1
    1c0e:	f3 0f 11 49 04       	movss  %xmm1,0x4(%rcx)
    1c13:	83 f8 02             	cmp    $0x2,%eax
    1c16:	74 7d                	je     1c95 <riscv_dsp_convert_q15_f32+0x145>
    1c18:	0f bf 57 04          	movswl 0x4(%rdi),%edx
    1c1c:	66 0f ef c9          	pxor   %xmm1,%xmm1
    1c20:	f3 0f 2a ca          	cvtsi2ss %edx,%xmm1
    1c24:	f3 0f 59 c8          	mulss  %xmm0,%xmm1
    1c28:	f3 0f 11 49 08       	movss  %xmm1,0x8(%rcx)
    1c2d:	83 f8 03             	cmp    $0x3,%eax
    1c30:	74 63                	je     1c95 <riscv_dsp_convert_q15_f32+0x145>
    1c32:	0f bf 57 06          	movswl 0x6(%rdi),%edx
    1c36:	66 0f ef c9          	pxor   %xmm1,%xmm1
    1c3a:	f3 0f 2a ca          	cvtsi2ss %edx,%xmm1
    1c3e:	f3 0f 59 c8          	mulss  %xmm0,%xmm1
    1c42:	f3 0f 11 49 0c       	movss  %xmm1,0xc(%rcx)
    1c47:	83 f8 04             	cmp    $0x4,%eax
    1c4a:	74 49                	je     1c95 <riscv_dsp_convert_q15_f32+0x145>
    1c4c:	0f bf 57 08          	movswl 0x8(%rdi),%edx
    1c50:	66 0f ef c9          	pxor   %xmm1,%xmm1
    1c54:	f3 0f 2a ca          	cvtsi2ss %edx,%xmm1
    1c58:	f3 0f 59 c8          	mulss  %xmm0,%xmm1
    1c5c:	f3 0f 11 49 10       	movss  %xmm1,0x10(%rcx)
    1c61:	83 f8 05             	cmp    $0x5,%eax
    1c64:	74 2f                	je     1c95 <riscv_dsp_convert_q15_f32+0x145>
    1c66:	0f bf 57 0a          	movswl 0xa(%rdi),%edx
    1c6a:	66 0f ef c9          	pxor   %xmm1,%xmm1
    1c6e:	f3 0f 2a ca          	cvtsi2ss %edx,%xmm1
    1c72:	f3 0f 59 c8          	mulss  %xmm0,%xmm1
    1c76:	f3 0f 11 49 14       	movss  %xmm1,0x14(%rcx)
    1c7b:	83 f8 06             	cmp    $0x6,%eax
    1c7e:	74 15                	je     1c95 <riscv_dsp_convert_q15_f32+0x145>
    1c80:	0f bf 47 0c          	movswl 0xc(%rdi),%eax
    1c84:	66 0f ef c9          	pxor   %xmm1,%xmm1
    1c88:	f3 0f 2a c8          	cvtsi2ss %eax,%xmm1
    1c8c:	f3 0f 59 c8          	mulss  %xmm0,%xmm1
    1c90:	f3 0f 11 49 18       	movss  %xmm1,0x18(%rcx)
    1c95:	c3                   	ret    
    1c96:	66 2e 0f 1f 84 00 00 	cs nopw 0x0(%rax,%rax,1)
    1c9d:	00 00 00 
    1ca0:	c3                   	ret    
    1ca1:	89 d0                	mov    %edx,%eax
    1ca3:	e9 32 ff ff ff       	jmp    1bda <riscv_dsp_convert_q15_f32+0x8a>

Disassembly of section .fini:

0000000000001ca8 <_fini>:
    1ca8:	f3 0f 1e fa          	endbr64 
    1cac:	48 83 ec 08          	sub    $0x8,%rsp
    1cb0:	48 83 c4 08          	add    $0x8,%rsp
    1cb4:	c3                   	ret    
