
t_bq_df2T_f32:     file format elf64-x86-64


Disassembly of section .init:

0000000000001000 <_init>:
    1000:	f3 0f 1e fa          	endbr64 
    1004:	48 83 ec 08          	sub    $0x8,%rsp
    1008:	48 8b 05 d9 2f 00 00 	mov    0x2fd9(%rip),%rax        # 3fe8 <__gmon_start__@Base>
    100f:	48 85 c0             	test   %rax,%rax
    1012:	74 02                	je     1016 <_init+0x16>
    1014:	ff d0                	call   *%rax
    1016:	48 83 c4 08          	add    $0x8,%rsp
    101a:	c3                   	ret    

Disassembly of section .plt:

0000000000001020 <.plt>:
    1020:	ff 35 4a 2f 00 00    	push   0x2f4a(%rip)        # 3f70 <_GLOBAL_OFFSET_TABLE_+0x8>
    1026:	f2 ff 25 4b 2f 00 00 	bnd jmp *0x2f4b(%rip)        # 3f78 <_GLOBAL_OFFSET_TABLE_+0x10>
    102d:	0f 1f 00             	nopl   (%rax)
    1030:	f3 0f 1e fa          	endbr64 
    1034:	68 00 00 00 00       	push   $0x0
    1039:	f2 e9 e1 ff ff ff    	bnd jmp 1020 <_init+0x20>
    103f:	90                   	nop
    1040:	f3 0f 1e fa          	endbr64 
    1044:	68 01 00 00 00       	push   $0x1
    1049:	f2 e9 d1 ff ff ff    	bnd jmp 1020 <_init+0x20>
    104f:	90                   	nop
    1050:	f3 0f 1e fa          	endbr64 
    1054:	68 02 00 00 00       	push   $0x2
    1059:	f2 e9 c1 ff ff ff    	bnd jmp 1020 <_init+0x20>
    105f:	90                   	nop
    1060:	f3 0f 1e fa          	endbr64 
    1064:	68 03 00 00 00       	push   $0x3
    1069:	f2 e9 b1 ff ff ff    	bnd jmp 1020 <_init+0x20>
    106f:	90                   	nop
    1070:	f3 0f 1e fa          	endbr64 
    1074:	68 04 00 00 00       	push   $0x4
    1079:	f2 e9 a1 ff ff ff    	bnd jmp 1020 <_init+0x20>
    107f:	90                   	nop
    1080:	f3 0f 1e fa          	endbr64 
    1084:	68 05 00 00 00       	push   $0x5
    1089:	f2 e9 91 ff ff ff    	bnd jmp 1020 <_init+0x20>
    108f:	90                   	nop
    1090:	f3 0f 1e fa          	endbr64 
    1094:	68 06 00 00 00       	push   $0x6
    1099:	f2 e9 81 ff ff ff    	bnd jmp 1020 <_init+0x20>
    109f:	90                   	nop
    10a0:	f3 0f 1e fa          	endbr64 
    10a4:	68 07 00 00 00       	push   $0x7
    10a9:	f2 e9 71 ff ff ff    	bnd jmp 1020 <_init+0x20>
    10af:	90                   	nop
    10b0:	f3 0f 1e fa          	endbr64 
    10b4:	68 08 00 00 00       	push   $0x8
    10b9:	f2 e9 61 ff ff ff    	bnd jmp 1020 <_init+0x20>
    10bf:	90                   	nop
    10c0:	f3 0f 1e fa          	endbr64 
    10c4:	68 09 00 00 00       	push   $0x9
    10c9:	f2 e9 51 ff ff ff    	bnd jmp 1020 <_init+0x20>
    10cf:	90                   	nop
    10d0:	f3 0f 1e fa          	endbr64 
    10d4:	68 0a 00 00 00       	push   $0xa
    10d9:	f2 e9 41 ff ff ff    	bnd jmp 1020 <_init+0x20>
    10df:	90                   	nop

Disassembly of section .plt.got:

00000000000010e0 <__cxa_finalize@plt>:
    10e0:	f3 0f 1e fa          	endbr64 
    10e4:	f2 ff 25 0d 2f 00 00 	bnd jmp *0x2f0d(%rip)        # 3ff8 <__cxa_finalize@GLIBC_2.2.5>
    10eb:	0f 1f 44 00 00       	nopl   0x0(%rax,%rax,1)

Disassembly of section .plt.sec:

00000000000010f0 <free@plt>:
    10f0:	f3 0f 1e fa          	endbr64 
    10f4:	f2 ff 25 85 2e 00 00 	bnd jmp *0x2e85(%rip)        # 3f80 <free@GLIBC_2.2.5>
    10fb:	0f 1f 44 00 00       	nopl   0x0(%rax,%rax,1)

0000000000001100 <puts@plt>:
    1100:	f3 0f 1e fa          	endbr64 
    1104:	f2 ff 25 7d 2e 00 00 	bnd jmp *0x2e7d(%rip)        # 3f88 <puts@GLIBC_2.2.5>
    110b:	0f 1f 44 00 00       	nopl   0x0(%rax,%rax,1)

0000000000001110 <fread@plt>:
    1110:	f3 0f 1e fa          	endbr64 
    1114:	f2 ff 25 75 2e 00 00 	bnd jmp *0x2e75(%rip)        # 3f90 <fread@GLIBC_2.2.5>
    111b:	0f 1f 44 00 00       	nopl   0x0(%rax,%rax,1)

0000000000001120 <fclose@plt>:
    1120:	f3 0f 1e fa          	endbr64 
    1124:	f2 ff 25 6d 2e 00 00 	bnd jmp *0x2e6d(%rip)        # 3f98 <fclose@GLIBC_2.2.5>
    112b:	0f 1f 44 00 00       	nopl   0x0(%rax,%rax,1)

0000000000001130 <__stack_chk_fail@plt>:
    1130:	f3 0f 1e fa          	endbr64 
    1134:	f2 ff 25 65 2e 00 00 	bnd jmp *0x2e65(%rip)        # 3fa0 <__stack_chk_fail@GLIBC_2.4>
    113b:	0f 1f 44 00 00       	nopl   0x0(%rax,%rax,1)

0000000000001140 <calloc@plt>:
    1140:	f3 0f 1e fa          	endbr64 
    1144:	f2 ff 25 5d 2e 00 00 	bnd jmp *0x2e5d(%rip)        # 3fa8 <calloc@GLIBC_2.2.5>
    114b:	0f 1f 44 00 00       	nopl   0x0(%rax,%rax,1)

0000000000001150 <log10f@plt>:
    1150:	f3 0f 1e fa          	endbr64 
    1154:	f2 ff 25 55 2e 00 00 	bnd jmp *0x2e55(%rip)        # 3fb0 <log10f@GLIBC_2.2.5>
    115b:	0f 1f 44 00 00       	nopl   0x0(%rax,%rax,1)

0000000000001160 <__printf_chk@plt>:
    1160:	f3 0f 1e fa          	endbr64 
    1164:	f2 ff 25 4d 2e 00 00 	bnd jmp *0x2e4d(%rip)        # 3fb8 <__printf_chk@GLIBC_2.3.4>
    116b:	0f 1f 44 00 00       	nopl   0x0(%rax,%rax,1)

0000000000001170 <fopen@plt>:
    1170:	f3 0f 1e fa          	endbr64 
    1174:	f2 ff 25 45 2e 00 00 	bnd jmp *0x2e45(%rip)        # 3fc0 <fopen@GLIBC_2.2.5>
    117b:	0f 1f 44 00 00       	nopl   0x0(%rax,%rax,1)

0000000000001180 <sqrt@plt>:
    1180:	f3 0f 1e fa          	endbr64 
    1184:	f2 ff 25 3d 2e 00 00 	bnd jmp *0x2e3d(%rip)        # 3fc8 <sqrt@GLIBC_2.2.5>
    118b:	0f 1f 44 00 00       	nopl   0x0(%rax,%rax,1)

0000000000001190 <__sprintf_chk@plt>:
    1190:	f3 0f 1e fa          	endbr64 
    1194:	f2 ff 25 35 2e 00 00 	bnd jmp *0x2e35(%rip)        # 3fd0 <__sprintf_chk@GLIBC_2.3.4>
    119b:	0f 1f 44 00 00       	nopl   0x0(%rax,%rax,1)

Disassembly of section .text:

00000000000011a0 <main>:
    11a0:	f3 0f 1e fa          	endbr64 
    11a4:	55                   	push   %rbp
    11a5:	be 04 00 00 00       	mov    $0x4,%esi
    11aa:	bf 06 00 00 00       	mov    $0x6,%edi
    11af:	48 89 e5             	mov    %rsp,%rbp
    11b2:	41 57                	push   %r15
    11b4:	41 56                	push   %r14
    11b6:	41 55                	push   %r13
    11b8:	41 54                	push   %r12
    11ba:	53                   	push   %rbx
    11bb:	48 81 ec 88 02 00 00 	sub    $0x288,%rsp
    11c2:	64 48 8b 04 25 28 00 	mov    %fs:0x28,%rax
    11c9:	00 00 
    11cb:	48 89 45 c8          	mov    %rax,-0x38(%rbp)
    11cf:	31 c0                	xor    %eax,%eax
    11d1:	e8 6a ff ff ff       	call   1140 <calloc@plt>
    11d6:	be 04 00 00 00       	mov    $0x4,%esi
    11db:	bf 0f 00 00 00       	mov    $0xf,%edi
    11e0:	48 89 c3             	mov    %rax,%rbx
    11e3:	48 89 85 68 fd ff ff 	mov    %rax,-0x298(%rbp)
    11ea:	e8 51 ff ff ff       	call   1140 <calloc@plt>
    11ef:	0f 28 05 5a 0f 00 00 	movaps 0xf5a(%rip),%xmm0        # 2150 <_IO_stdin_used+0x150>
    11f6:	c7 85 80 fd ff ff 03 	movl   $0x3,-0x280(%rbp)
    11fd:	00 00 00 
    1200:	49 89 c4             	mov    %rax,%r12
    1203:	48 8b 05 86 0f 00 00 	mov    0xf86(%rip),%rax        # 2190 <_IO_stdin_used+0x190>
    120a:	41 0f 11 04 24       	movups %xmm0,(%r12)
    120f:	0f 28 05 4a 0f 00 00 	movaps 0xf4a(%rip),%xmm0        # 2160 <_IO_stdin_used+0x160>
    1216:	66 49 0f 6e fc       	movq   %r12,%xmm7
    121b:	49 89 44 24 30       	mov    %rax,0x30(%r12)
    1220:	48 8d 84 24 00 f0 ff 	lea    -0x1000(%rsp),%rax
    1227:	ff 
    1228:	41 0f 11 44 24 10    	movups %xmm0,0x10(%r12)
    122e:	0f 28 05 3b 0f 00 00 	movaps 0xf3b(%rip),%xmm0        # 2170 <_IO_stdin_used+0x170>
    1235:	41 c7 44 24 38 cd cc 	movl   $0xbdcccccd,0x38(%r12)
    123c:	cc bd 
    123e:	41 0f 11 44 24 20    	movups %xmm0,0x20(%r12)
    1244:	66 48 0f 6e c3       	movq   %rbx,%xmm0
    1249:	66 0f 6c c7          	punpcklqdq %xmm7,%xmm0
    124d:	0f 11 85 88 fd ff ff 	movups %xmm0,-0x278(%rbp)
    1254:	48 39 c4             	cmp    %rax,%rsp
    1257:	74 15                	je     126e <main+0xce>
    1259:	48 81 ec 00 10 00 00 	sub    $0x1000,%rsp
    1260:	48 83 8c 24 f8 0f 00 	orq    $0x0,0xff8(%rsp)
    1267:	00 00 
    1269:	48 39 c4             	cmp    %rax,%rsp
    126c:	75 eb                	jne    1259 <main+0xb9>
    126e:	48 89 a5 78 fd ff ff 	mov    %rsp,-0x288(%rbp)
    1275:	48 8d 84 24 00 f0 ff 	lea    -0x1000(%rsp),%rax
    127c:	ff 
    127d:	48 39 c4             	cmp    %rax,%rsp
    1280:	74 12                	je     1294 <main+0xf4>
    1282:	48 81 ec 00 10 00 00 	sub    $0x1000,%rsp
    1289:	48 83 8c 24 f8 0f 00 	orq    $0x0,0xff8(%rsp)
    1290:	00 00 
    1292:	eb e9                	jmp    127d <main+0xdd>
    1294:	49 89 e7             	mov    %rsp,%r15
    1297:	48 8d 84 24 00 f0 ff 	lea    -0x1000(%rsp),%rax
    129e:	ff 
    129f:	48 39 c4             	cmp    %rax,%rsp
    12a2:	74 12                	je     12b6 <main+0x116>
    12a4:	48 81 ec 00 10 00 00 	sub    $0x1000,%rsp
    12ab:	48 83 8c 24 f8 0f 00 	orq    $0x0,0xff8(%rsp)
    12b2:	00 00 
    12b4:	eb e9                	jmp    129f <main+0xff>
    12b6:	4c 8d 05 83 0d 00 00 	lea    0xd83(%rip),%r8        # 2040 <_IO_stdin_used+0x40>
    12bd:	ba 00 02 00 00       	mov    $0x200,%edx
    12c2:	31 c0                	xor    %eax,%eax
    12c4:	48 8d 0d 4c 0d 00 00 	lea    0xd4c(%rip),%rcx        # 2017 <_IO_stdin_used+0x17>
    12cb:	be 01 00 00 00       	mov    $0x1,%esi
    12d0:	48 8d 9d c0 fd ff ff 	lea    -0x240(%rbp),%rbx
    12d7:	49 89 e5             	mov    %rsp,%r13
    12da:	48 89 df             	mov    %rbx,%rdi
    12dd:	e8 ae fe ff ff       	call   1190 <__sprintf_chk@plt>
    12e2:	48 8d 35 3f 0d 00 00 	lea    0xd3f(%rip),%rsi        # 2028 <_IO_stdin_used+0x28>
    12e9:	48 89 df             	mov    %rbx,%rdi
    12ec:	e8 7f fe ff ff       	call   1170 <fopen@plt>
    12f1:	48 89 85 70 fd ff ff 	mov    %rax,-0x290(%rbp)
    12f8:	48 85 c0             	test   %rax,%rax
    12fb:	0f 84 78 03 00 00    	je     1679 <main+0x4d9>
    1301:	ba 00 02 00 00       	mov    $0x200,%edx
    1306:	be 01 00 00 00       	mov    $0x1,%esi
    130b:	48 89 df             	mov    %rbx,%rdi
    130e:	31 c0                	xor    %eax,%eax
    1310:	4c 8d 05 29 0d 00 00 	lea    0xd29(%rip),%r8        # 2040 <_IO_stdin_used+0x40>
    1317:	48 8d 0d 72 0d 00 00 	lea    0xd72(%rip),%rcx        # 2090 <_IO_stdin_used+0x90>
    131e:	e8 6d fe ff ff       	call   1190 <__sprintf_chk@plt>
    1323:	48 8d 35 fe 0c 00 00 	lea    0xcfe(%rip),%rsi        # 2028 <_IO_stdin_used+0x28>
    132a:	48 89 df             	mov    %rbx,%rdi
    132d:	e8 3e fe ff ff       	call   1170 <fopen@plt>
    1332:	49 89 c6             	mov    %rax,%r14
    1335:	48 85 c0             	test   %rax,%rax
    1338:	0f 84 3b 03 00 00    	je     1679 <main+0x4d9>
    133e:	48 89 df             	mov    %rbx,%rdi
    1341:	ba 00 02 00 00       	mov    $0x200,%edx
    1346:	be 01 00 00 00       	mov    $0x1,%esi
    134b:	31 c0                	xor    %eax,%eax
    134d:	4c 8d 05 ec 0c 00 00 	lea    0xcec(%rip),%r8        # 2040 <_IO_stdin_used+0x40>
    1354:	48 8d 0d 5d 0d 00 00 	lea    0xd5d(%rip),%rcx        # 20b8 <_IO_stdin_used+0xb8>
    135b:	e8 30 fe ff ff       	call   1190 <__sprintf_chk@plt>
    1360:	48 89 df             	mov    %rbx,%rdi
    1363:	48 8d 35 be 0c 00 00 	lea    0xcbe(%rip),%rsi        # 2028 <_IO_stdin_used+0x28>
    136a:	e8 01 fe ff ff       	call   1170 <fopen@plt>
    136f:	48 89 c3             	mov    %rax,%rbx
    1372:	48 85 c0             	test   %rax,%rax
    1375:	0f 84 fe 02 00 00    	je     1679 <main+0x4d9>
    137b:	48 8b 95 70 fd ff ff 	mov    -0x290(%rbp),%rdx
    1382:	48 8b bd 78 fd ff ff 	mov    -0x288(%rbp),%rdi
    1389:	be ff 03 00 00       	mov    $0x3ff,%esi
    138e:	e8 5d 04 00 00       	call   17f0 <test_Fread.constprop.0.isra.0>
    1393:	4c 89 f2             	mov    %r14,%rdx
    1396:	be ff 03 00 00       	mov    $0x3ff,%esi
    139b:	4c 89 ef             	mov    %r13,%rdi
    139e:	e8 4d 04 00 00       	call   17f0 <test_Fread.constprop.0.isra.0>
    13a3:	4c 8d 85 a0 fd ff ff 	lea    -0x260(%rbp),%r8
    13aa:	48 89 da             	mov    %rbx,%rdx
    13ad:	be 06 00 00 00       	mov    $0x6,%esi
    13b2:	4c 89 c7             	mov    %r8,%rdi
    13b5:	4c 89 85 60 fd ff ff 	mov    %r8,-0x2a0(%rbp)
    13bc:	e8 2f 04 00 00       	call   17f0 <test_Fread.constprop.0.isra.0>
    13c1:	48 8b b5 78 fd ff ff 	mov    -0x288(%rbp),%rsi
    13c8:	b9 ff 03 00 00       	mov    $0x3ff,%ecx
    13cd:	4c 89 fa             	mov    %r15,%rdx
    13d0:	48 8d bd 80 fd ff ff 	lea    -0x280(%rbp),%rdi
    13d7:	e8 24 04 00 00       	call   1800 <riscv_dsp_bq_df2T_f32>
    13dc:	ba ff 03 00 00       	mov    $0x3ff,%edx
    13e1:	4c 89 fe             	mov    %r15,%rsi
    13e4:	4c 89 ef             	mov    %r13,%rdi
    13e7:	e8 94 03 00 00       	call   1780 <dump2_f32>
    13ec:	48 8b 9d 68 fd ff ff 	mov    -0x298(%rbp),%rbx
    13f3:	ba 06 00 00 00       	mov    $0x6,%edx
    13f8:	48 8b bd 60 fd ff ff 	mov    -0x2a0(%rbp),%rdi
    13ff:	48 89 de             	mov    %rbx,%rsi
    1402:	e8 79 03 00 00       	call   1780 <dump2_f32>
    1407:	f3 0f 5a c0          	cvtss2sd %xmm0,%xmm0
    140b:	66 0f 2f 05 85 0d 00 	comisd 0xd85(%rip),%xmm0        # 2198 <_IO_stdin_used+0x198>
    1412:	00 
    1413:	0f 87 60 02 00 00    	ja     1679 <main+0x4d9>
    1419:	48 8b bd 70 fd ff ff 	mov    -0x290(%rbp),%rdi
    1420:	e8 fb fc ff ff       	call   1120 <fclose@plt>
    1425:	4c 89 f7             	mov    %r14,%rdi
    1428:	e8 f3 fc ff ff       	call   1120 <fclose@plt>
    142d:	48 89 df             	mov    %rbx,%rdi
    1430:	e8 bb fc ff ff       	call   10f0 <free@plt>
    1435:	4c 89 e7             	mov    %r12,%rdi
    1438:	e8 b3 fc ff ff       	call   10f0 <free@plt>
    143d:	66 0f ef db          	pxor   %xmm3,%xmm3
    1441:	66 0f ef ff          	pxor   %xmm7,%xmm7
    1445:	31 c0                	xor    %eax,%eax
    1447:	66 0f 28 ef          	movapd %xmm7,%xmm5
    144b:	0f 28 c3             	movaps %xmm3,%xmm0
    144e:	44 0f 28 c3          	movaps %xmm3,%xmm8
    1452:	f3 44 0f 10 0d e5 0c 	movss  0xce5(%rip),%xmm9        # 2140 <_IO_stdin_used+0x140>
    1459:	00 00 
    145b:	0f 28 f3             	movaps %xmm3,%xmm6
    145e:	66 90                	xchg   %ax,%ax
    1460:	f3 41 0f 10 0c 07    	movss  (%r15,%rax,1),%xmm1
    1466:	f3 41 0f 10 54 05 00 	movss  0x0(%r13,%rax,1),%xmm2
    146d:	66 0f 7e c9          	movd   %xmm1,%ecx
    1471:	81 f9 00 00 c0 7f    	cmp    $0x7fc00000,%ecx
    1477:	0f 84 b7 01 00 00    	je     1634 <main+0x494>
    147d:	0f 28 e2             	movaps %xmm2,%xmm4
    1480:	f3 0f 5c ca          	subss  %xmm2,%xmm1
    1484:	48 83 c0 04          	add    $0x4,%rax
    1488:	f3 0f 5f e6          	maxss  %xmm6,%xmm4
    148c:	0f 28 f4             	movaps %xmm4,%xmm6
    148f:	0f 28 e2             	movaps %xmm2,%xmm4
    1492:	f3 41 0f 5d e0       	minss  %xmm8,%xmm4
    1497:	f3 0f 59 d2          	mulss  %xmm2,%xmm2
    149b:	44 0f 28 c4          	movaps %xmm4,%xmm8
    149f:	0f 28 e1             	movaps %xmm1,%xmm4
    14a2:	f3 0f 59 c9          	mulss  %xmm1,%xmm1
    14a6:	41 0f 54 e1          	andps  %xmm9,%xmm4
    14aa:	f3 0f 58 c4          	addss  %xmm4,%xmm0
    14ae:	f3 0f 5f e3          	maxss  %xmm3,%xmm4
    14b2:	f3 0f 5a d2          	cvtss2sd %xmm2,%xmm2
    14b6:	f2 0f 58 fa          	addsd  %xmm2,%xmm7
    14ba:	0f 28 dc             	movaps %xmm4,%xmm3
    14bd:	f3 0f 5a c9          	cvtss2sd %xmm1,%xmm1
    14c1:	f2 0f 58 e9          	addsd  %xmm1,%xmm5
    14c5:	48 3d fc 0f 00 00    	cmp    $0xffc,%rax
    14cb:	75 93                	jne    1460 <main+0x2c0>
    14cd:	66 48 0f 7e e8       	movq   %xmm5,%rax
    14d2:	f3 0f 11 a5 60 fd ff 	movss  %xmm4,-0x2a0(%rbp)
    14d9:	ff 
    14da:	f3 44 0f 11 85 68 fd 	movss  %xmm8,-0x298(%rbp)
    14e1:	ff ff 
    14e3:	f3 0f 11 b5 70 fd ff 	movss  %xmm6,-0x290(%rbp)
    14ea:	ff 
    14eb:	f2 0f 11 bd 78 fd ff 	movsd  %xmm7,-0x288(%rbp)
    14f2:	ff 
    14f3:	3d 00 00 c0 7f       	cmp    $0x7fc00000,%eax
    14f8:	0f 84 36 01 00 00    	je     1634 <main+0x494>
    14fe:	f3 0f 5e 05 7e 0c 00 	divss  0xc7e(%rip),%xmm0        # 2184 <_IO_stdin_used+0x184>
    1505:	00 
    1506:	f2 0f 11 ad 58 fd ff 	movsd  %xmm5,-0x2a8(%rbp)
    150d:	ff 
    150e:	66 0f 7e c3          	movd   %xmm0,%ebx
    1512:	66 0f 28 c5          	movapd %xmm5,%xmm0
    1516:	f2 0f 5e 05 82 0c 00 	divsd  0xc82(%rip),%xmm0        # 21a0 <_IO_stdin_used+0x1a0>
    151d:	00 
    151e:	e8 5d fc ff ff       	call   1180 <sqrt@plt>
    1523:	f3 0f 10 b5 70 fd ff 	movss  -0x290(%rbp),%xmm6
    152a:	ff 
    152b:	f3 44 0f 10 85 68 fd 	movss  -0x298(%rbp),%xmm8
    1532:	ff ff 
    1534:	66 0f ef c9          	pxor   %xmm1,%xmm1
    1538:	66 0f ef ff          	pxor   %xmm7,%xmm7
    153c:	f3 0f 10 9d 60 fd ff 	movss  -0x2a0(%rbp),%xmm3
    1543:	ff 
    1544:	f3 41 0f 5c f0       	subss  %xmm8,%xmm6
    1549:	f2 0f 5a c8          	cvtsd2ss %xmm0,%xmm1
    154d:	0f 28 e9             	movaps %xmm1,%xmm5
    1550:	f3 0f 5e ee          	divss  %xmm6,%xmm5
    1554:	66 41 0f 7e ec       	movd   %xmm5,%r12d
    1559:	f2 0f 10 ad 58 fd ff 	movsd  -0x2a8(%rbp),%xmm5
    1560:	ff 
    1561:	66 0f 2e ef          	ucomisd %xmm7,%xmm5
    1565:	f2 0f 10 bd 78 fd ff 	movsd  -0x288(%rbp),%xmm7
    156c:	ff 
    156d:	0f 8a c5 00 00 00    	jp     1638 <main+0x498>
    1573:	f3 0f 10 25 05 0c 00 	movss  0xc05(%rip),%xmm4        # 2180 <_IO_stdin_used+0x180>
    157a:	00 
    157b:	0f 85 b7 00 00 00    	jne    1638 <main+0x498>
    1581:	48 8d 3d a2 0a 00 00 	lea    0xaa2(%rip),%rdi        # 202a <_IO_stdin_used+0x2a>
    1588:	f3 0f 11 9d 68 fd ff 	movss  %xmm3,-0x298(%rbp)
    158f:	ff 
    1590:	f3 0f 11 a5 78 fd ff 	movss  %xmm4,-0x288(%rbp)
    1597:	ff 
    1598:	f3 0f 11 8d 70 fd ff 	movss  %xmm1,-0x290(%rbp)
    159f:	ff 
    15a0:	e8 5b fb ff ff       	call   1100 <puts@plt>
    15a5:	66 41 0f 6e ec       	movd   %r12d,%xmm5
    15aa:	66 0f ef d2          	pxor   %xmm2,%xmm2
    15ae:	f3 0f 10 a5 78 fd ff 	movss  -0x288(%rbp),%xmm4
    15b5:	ff 
    15b6:	f3 0f 10 9d 68 fd ff 	movss  -0x298(%rbp),%xmm3
    15bd:	ff 
    15be:	f3 0f 10 8d 70 fd ff 	movss  -0x290(%rbp),%xmm1
    15c5:	ff 
    15c6:	f3 0f 5a d5          	cvtss2sd %xmm5,%xmm2
    15ca:	66 0f ef c0          	pxor   %xmm0,%xmm0
    15ce:	66 0f 6e eb          	movd   %ebx,%xmm5
    15d2:	48 8d 35 0f 0b 00 00 	lea    0xb0f(%rip),%rsi        # 20e8 <_IO_stdin_used+0xe8>
    15d9:	bf 01 00 00 00       	mov    $0x1,%edi
    15de:	b8 05 00 00 00       	mov    $0x5,%eax
    15e3:	f3 0f 5a c5          	cvtss2sd %xmm5,%xmm0
    15e7:	f3 0f 5a e4          	cvtss2sd %xmm4,%xmm4
    15eb:	f3 0f 5a db          	cvtss2sd %xmm3,%xmm3
    15ef:	f3 0f 5a c9          	cvtss2sd %xmm1,%xmm1
    15f3:	f2 0f 11 95 78 fd ff 	movsd  %xmm2,-0x288(%rbp)
    15fa:	ff 
    15fb:	e8 60 fb ff ff       	call   1160 <__printf_chk@plt>
    1600:	f2 0f 10 05 a0 0b 00 	movsd  0xba0(%rip),%xmm0        # 21a8 <_IO_stdin_used+0x1a8>
    1607:	00 
    1608:	f2 0f 10 95 78 fd ff 	movsd  -0x288(%rbp),%xmm2
    160f:	ff 
    1610:	66 0f 2f c2          	comisd %xmm2,%xmm0
    1614:	19 c0                	sbb    %eax,%eax
    1616:	48 8b 55 c8          	mov    -0x38(%rbp),%rdx
    161a:	64 48 2b 14 25 28 00 	sub    %fs:0x28,%rdx
    1621:	00 00 
    1623:	75 59                	jne    167e <main+0x4de>
    1625:	48 8d 65 d8          	lea    -0x28(%rbp),%rsp
    1629:	5b                   	pop    %rbx
    162a:	41 5c                	pop    %r12
    162c:	41 5d                	pop    %r13
    162e:	41 5e                	pop    %r14
    1630:	41 5f                	pop    %r15
    1632:	5d                   	pop    %rbp
    1633:	c3                   	ret    
    1634:	31 c0                	xor    %eax,%eax
    1636:	eb de                	jmp    1616 <main+0x476>
    1638:	f2 0f 5e fd          	divsd  %xmm5,%xmm7
    163c:	66 0f ef c0          	pxor   %xmm0,%xmm0
    1640:	f3 0f 11 9d 70 fd ff 	movss  %xmm3,-0x290(%rbp)
    1647:	ff 
    1648:	f3 0f 11 8d 78 fd ff 	movss  %xmm1,-0x288(%rbp)
    164f:	ff 
    1650:	f2 0f 5a c7          	cvtsd2ss %xmm7,%xmm0
    1654:	e8 f7 fa ff ff       	call   1150 <log10f@plt>
    1659:	f3 0f 59 05 27 0b 00 	mulss  0xb27(%rip),%xmm0        # 2188 <_IO_stdin_used+0x188>
    1660:	00 
    1661:	f3 0f 10 9d 70 fd ff 	movss  -0x290(%rbp),%xmm3
    1668:	ff 
    1669:	f3 0f 10 8d 78 fd ff 	movss  -0x288(%rbp),%xmm1
    1670:	ff 
    1671:	0f 28 e0             	movaps %xmm0,%xmm4
    1674:	e9 08 ff ff ff       	jmp    1581 <main+0x3e1>
    1679:	83 c8 ff             	or     $0xffffffff,%eax
    167c:	eb 98                	jmp    1616 <main+0x476>
    167e:	e8 ad fa ff ff       	call   1130 <__stack_chk_fail@plt>
    1683:	66 2e 0f 1f 84 00 00 	cs nopw 0x0(%rax,%rax,1)
    168a:	00 00 00 
    168d:	0f 1f 00             	nopl   (%rax)

0000000000001690 <_start>:
    1690:	f3 0f 1e fa          	endbr64 
    1694:	31 ed                	xor    %ebp,%ebp
    1696:	49 89 d1             	mov    %rdx,%r9
    1699:	5e                   	pop    %rsi
    169a:	48 89 e2             	mov    %rsp,%rdx
    169d:	48 83 e4 f0          	and    $0xfffffffffffffff0,%rsp
    16a1:	50                   	push   %rax
    16a2:	54                   	push   %rsp
    16a3:	45 31 c0             	xor    %r8d,%r8d
    16a6:	31 c9                	xor    %ecx,%ecx
    16a8:	48 8d 3d f1 fa ff ff 	lea    -0x50f(%rip),%rdi        # 11a0 <main>
    16af:	ff 15 23 29 00 00    	call   *0x2923(%rip)        # 3fd8 <__libc_start_main@GLIBC_2.34>
    16b5:	f4                   	hlt    
    16b6:	66 2e 0f 1f 84 00 00 	cs nopw 0x0(%rax,%rax,1)
    16bd:	00 00 00 

00000000000016c0 <deregister_tm_clones>:
    16c0:	48 8d 3d 49 29 00 00 	lea    0x2949(%rip),%rdi        # 4010 <__TMC_END__>
    16c7:	48 8d 05 42 29 00 00 	lea    0x2942(%rip),%rax        # 4010 <__TMC_END__>
    16ce:	48 39 f8             	cmp    %rdi,%rax
    16d1:	74 15                	je     16e8 <deregister_tm_clones+0x28>
    16d3:	48 8b 05 06 29 00 00 	mov    0x2906(%rip),%rax        # 3fe0 <_ITM_deregisterTMCloneTable@Base>
    16da:	48 85 c0             	test   %rax,%rax
    16dd:	74 09                	je     16e8 <deregister_tm_clones+0x28>
    16df:	ff e0                	jmp    *%rax
    16e1:	0f 1f 80 00 00 00 00 	nopl   0x0(%rax)
    16e8:	c3                   	ret    
    16e9:	0f 1f 80 00 00 00 00 	nopl   0x0(%rax)

00000000000016f0 <register_tm_clones>:
    16f0:	48 8d 3d 19 29 00 00 	lea    0x2919(%rip),%rdi        # 4010 <__TMC_END__>
    16f7:	48 8d 35 12 29 00 00 	lea    0x2912(%rip),%rsi        # 4010 <__TMC_END__>
    16fe:	48 29 fe             	sub    %rdi,%rsi
    1701:	48 89 f0             	mov    %rsi,%rax
    1704:	48 c1 ee 3f          	shr    $0x3f,%rsi
    1708:	48 c1 f8 03          	sar    $0x3,%rax
    170c:	48 01 c6             	add    %rax,%rsi
    170f:	48 d1 fe             	sar    %rsi
    1712:	74 14                	je     1728 <register_tm_clones+0x38>
    1714:	48 8b 05 d5 28 00 00 	mov    0x28d5(%rip),%rax        # 3ff0 <_ITM_registerTMCloneTable@Base>
    171b:	48 85 c0             	test   %rax,%rax
    171e:	74 08                	je     1728 <register_tm_clones+0x38>
    1720:	ff e0                	jmp    *%rax
    1722:	66 0f 1f 44 00 00    	nopw   0x0(%rax,%rax,1)
    1728:	c3                   	ret    
    1729:	0f 1f 80 00 00 00 00 	nopl   0x0(%rax)

0000000000001730 <__do_global_dtors_aux>:
    1730:	f3 0f 1e fa          	endbr64 
    1734:	80 3d d5 28 00 00 00 	cmpb   $0x0,0x28d5(%rip)        # 4010 <__TMC_END__>
    173b:	75 2b                	jne    1768 <__do_global_dtors_aux+0x38>
    173d:	55                   	push   %rbp
    173e:	48 83 3d b2 28 00 00 	cmpq   $0x0,0x28b2(%rip)        # 3ff8 <__cxa_finalize@GLIBC_2.2.5>
    1745:	00 
    1746:	48 89 e5             	mov    %rsp,%rbp
    1749:	74 0c                	je     1757 <__do_global_dtors_aux+0x27>
    174b:	48 8b 3d b6 28 00 00 	mov    0x28b6(%rip),%rdi        # 4008 <__dso_handle>
    1752:	e8 89 f9 ff ff       	call   10e0 <__cxa_finalize@plt>
    1757:	e8 64 ff ff ff       	call   16c0 <deregister_tm_clones>
    175c:	c6 05 ad 28 00 00 01 	movb   $0x1,0x28ad(%rip)        # 4010 <__TMC_END__>
    1763:	5d                   	pop    %rbp
    1764:	c3                   	ret    
    1765:	0f 1f 00             	nopl   (%rax)
    1768:	c3                   	ret    
    1769:	0f 1f 80 00 00 00 00 	nopl   0x0(%rax)

0000000000001770 <frame_dummy>:
    1770:	f3 0f 1e fa          	endbr64 
    1774:	e9 77 ff ff ff       	jmp    16f0 <register_tm_clones>
    1779:	0f 1f 80 00 00 00 00 	nopl   0x0(%rax)

0000000000001780 <dump2_f32>:
    1780:	48 83 ec 18          	sub    $0x18,%rsp
    1784:	89 d2                	mov    %edx,%edx
    1786:	66 0f ef c9          	pxor   %xmm1,%xmm1
    178a:	31 c0                	xor    %eax,%eax
    178c:	f3 0f 10 15 ac 09 00 	movss  0x9ac(%rip),%xmm2        # 2140 <_IO_stdin_used+0x140>
    1793:	00 
    1794:	0f 1f 40 00          	nopl   0x0(%rax)
    1798:	f3 0f 10 04 86       	movss  (%rsi,%rax,4),%xmm0
    179d:	f3 0f 5c 04 87       	subss  (%rdi,%rax,4),%xmm0
    17a2:	48 83 c0 01          	add    $0x1,%rax
    17a6:	0f 54 c2             	andps  %xmm2,%xmm0
    17a9:	f3 0f 5f c1          	maxss  %xmm1,%xmm0
    17ad:	0f 28 c8             	movaps %xmm0,%xmm1
    17b0:	48 39 c2             	cmp    %rax,%rdx
    17b3:	75 e3                	jne    1798 <dump2_f32+0x18>
    17b5:	48 8d 35 48 08 00 00 	lea    0x848(%rip),%rsi        # 2004 <_IO_stdin_used+0x4>
    17bc:	bf 01 00 00 00       	mov    $0x1,%edi
    17c1:	b8 01 00 00 00       	mov    $0x1,%eax
    17c6:	f3 0f 11 4c 24 0c    	movss  %xmm1,0xc(%rsp)
    17cc:	f3 0f 5a c0          	cvtss2sd %xmm0,%xmm0
    17d0:	e8 8b f9 ff ff       	call   1160 <__printf_chk@plt>
    17d5:	f3 0f 10 4c 24 0c    	movss  0xc(%rsp),%xmm1
    17db:	48 83 c4 18          	add    $0x18,%rsp
    17df:	0f 28 c1             	movaps %xmm1,%xmm0
    17e2:	c3                   	ret    
    17e3:	66 66 2e 0f 1f 84 00 	data16 cs nopw 0x0(%rax,%rax,1)
    17ea:	00 00 00 00 
    17ee:	66 90                	xchg   %ax,%ax

00000000000017f0 <test_Fread.constprop.0.isra.0>:
    17f0:	48 89 d1             	mov    %rdx,%rcx
    17f3:	89 f2                	mov    %esi,%edx
    17f5:	be 04 00 00 00       	mov    $0x4,%esi
    17fa:	e9 11 f9 ff ff       	jmp    1110 <fread@plt>
    17ff:	90                   	nop

0000000000001800 <riscv_dsp_bq_df2T_f32>:
    1800:	f3 0f 1e fa          	endbr64 
    1804:	49 89 fa             	mov    %rdi,%r10
    1807:	55                   	push   %rbp
    1808:	49 89 d1             	mov    %rdx,%r9
    180b:	89 cf                	mov    %ecx,%edi
    180d:	53                   	push   %rbx
    180e:	41 8b 12             	mov    (%r10),%edx
    1811:	89 cd                	mov    %ecx,%ebp
    1813:	48 89 f0             	mov    %rsi,%rax
    1816:	4d 8b 42 10          	mov    0x10(%r10),%r8
    181a:	49 8b 72 08          	mov    0x8(%r10),%rsi
    181e:	d1 ed                	shr    %ebp
    1820:	83 e7 01             	and    $0x1,%edi
    1823:	85 d2                	test   %edx,%edx
    1825:	0f 84 59 01 00 00    	je     1984 <riscv_dsp_bq_df2T_f32+0x184>
    182b:	4c 8d 14 d6          	lea    (%rsi,%rdx,8),%r10
    182f:	8d 55 ff             	lea    -0x1(%rbp),%edx
    1832:	4c 8d 1c d5 08 00 00 	lea    0x8(,%rdx,8),%r11
    1839:	00 
    183a:	4b 8d 1c 19          	lea    (%r9,%r11,1),%rbx
    183e:	66 90                	xchg   %ax,%ax
    1840:	f3 41 0f 10 20       	movss  (%r8),%xmm4
    1845:	f3 45 0f 10 40 04    	movss  0x4(%r8),%xmm8
    184b:	49 83 c0 14          	add    $0x14,%r8
    184f:	f3 41 0f 10 70 f4    	movss  -0xc(%r8),%xmm6
    1855:	f3 41 0f 10 68 f8    	movss  -0x8(%r8),%xmm5
    185b:	f3 44 0f 10 16       	movss  (%rsi),%xmm10
    1860:	f3 41 0f 10 78 fc    	movss  -0x4(%r8),%xmm7
    1866:	f3 44 0f 10 4e 04    	movss  0x4(%rsi),%xmm9
    186c:	85 ed                	test   %ebp,%ebp
    186e:	0f 84 1c 01 00 00    	je     1990 <riscv_dsp_bq_df2T_f32+0x190>
    1874:	4a 8d 0c 18          	lea    (%rax,%r11,1),%rcx
    1878:	4c 89 ca             	mov    %r9,%rdx
    187b:	0f 1f 44 00 00       	nopl   0x0(%rax,%rax,1)
    1880:	f3 0f 10 08          	movss  (%rax),%xmm1
    1884:	0f 28 d4             	movaps %xmm4,%xmm2
    1887:	0f 28 c5             	movaps %xmm5,%xmm0
    188a:	f3 0f 10 58 04       	movss  0x4(%rax),%xmm3
    188f:	48 83 c0 08          	add    $0x8,%rax
    1893:	48 83 c2 08          	add    $0x8,%rdx
    1897:	f3 0f 59 d1          	mulss  %xmm1,%xmm2
    189b:	f3 41 0f 58 d2       	addss  %xmm10,%xmm2
    18a0:	45 0f 28 d0          	movaps %xmm8,%xmm10
    18a4:	f3 44 0f 59 d3       	mulss  %xmm3,%xmm10
    18a9:	f3 0f 59 c2          	mulss  %xmm2,%xmm0
    18ad:	f3 0f 11 52 f8       	movss  %xmm2,-0x8(%rdx)
    18b2:	f3 41 0f 58 c1       	addss  %xmm9,%xmm0
    18b7:	45 0f 28 c8          	movaps %xmm8,%xmm9
    18bb:	f3 44 0f 59 c9       	mulss  %xmm1,%xmm9
    18c0:	f3 0f 59 ce          	mulss  %xmm6,%xmm1
    18c4:	f3 41 0f 58 c1       	addss  %xmm9,%xmm0
    18c9:	44 0f 28 cc          	movaps %xmm4,%xmm9
    18cd:	f3 44 0f 59 cb       	mulss  %xmm3,%xmm9
    18d2:	f3 0f 59 de          	mulss  %xmm6,%xmm3
    18d6:	f3 41 0f 58 c1       	addss  %xmm9,%xmm0
    18db:	44 0f 28 cf          	movaps %xmm7,%xmm9
    18df:	f3 44 0f 59 ca       	mulss  %xmm2,%xmm9
    18e4:	f3 0f 11 42 fc       	movss  %xmm0,-0x4(%rdx)
    18e9:	f3 41 0f 58 c9       	addss  %xmm9,%xmm1
    18ee:	44 0f 28 cd          	movaps %xmm5,%xmm9
    18f2:	f3 44 0f 59 c8       	mulss  %xmm0,%xmm9
    18f7:	f3 41 0f 58 c9       	addss  %xmm9,%xmm1
    18fc:	44 0f 28 cf          	movaps %xmm7,%xmm9
    1900:	f3 44 0f 59 c8       	mulss  %xmm0,%xmm9
    1905:	f3 44 0f 58 d1       	addss  %xmm1,%xmm10
    190a:	f3 44 0f 58 cb       	addss  %xmm3,%xmm9
    190f:	48 39 c8             	cmp    %rcx,%rax
    1912:	0f 85 68 ff ff ff    	jne    1880 <riscv_dsp_bq_df2T_f32+0x80>
    1918:	48 89 da             	mov    %rbx,%rdx
    191b:	85 ff                	test   %edi,%edi
    191d:	74 51                	je     1970 <riscv_dsp_bq_df2T_f32+0x170>
    191f:	f3 0f 10 01          	movss  (%rcx),%xmm0
    1923:	48 83 c6 08          	add    $0x8,%rsi
    1927:	f3 0f 59 e0          	mulss  %xmm0,%xmm4
    192b:	f3 44 0f 59 c0       	mulss  %xmm0,%xmm8
    1930:	f3 0f 59 f0          	mulss  %xmm0,%xmm6
    1934:	f3 41 0f 58 e2       	addss  %xmm10,%xmm4
    1939:	f3 0f 59 ec          	mulss  %xmm4,%xmm5
    193d:	f3 0f 11 22          	movss  %xmm4,(%rdx)
    1941:	f3 0f 59 fc          	mulss  %xmm4,%xmm7
    1945:	f3 41 0f 58 e9       	addss  %xmm9,%xmm5
    194a:	f3 0f 58 f7          	addss  %xmm7,%xmm6
    194e:	f3 41 0f 58 e8       	addss  %xmm8,%xmm5
    1953:	f3 0f 11 6e f8       	movss  %xmm5,-0x8(%rsi)
    1958:	f3 0f 11 76 fc       	movss  %xmm6,-0x4(%rsi)
    195d:	4c 39 d6             	cmp    %r10,%rsi
    1960:	74 22                	je     1984 <riscv_dsp_bq_df2T_f32+0x184>
    1962:	4c 89 c8             	mov    %r9,%rax
    1965:	e9 d6 fe ff ff       	jmp    1840 <riscv_dsp_bq_df2T_f32+0x40>
    196a:	66 0f 1f 44 00 00    	nopw   0x0(%rax,%rax,1)
    1970:	f3 44 0f 11 16       	movss  %xmm10,(%rsi)
    1975:	48 83 c6 08          	add    $0x8,%rsi
    1979:	f3 44 0f 11 4e fc    	movss  %xmm9,-0x4(%rsi)
    197f:	4c 39 d6             	cmp    %r10,%rsi
    1982:	75 de                	jne    1962 <riscv_dsp_bq_df2T_f32+0x162>
    1984:	5b                   	pop    %rbx
    1985:	5d                   	pop    %rbp
    1986:	c3                   	ret    
    1987:	66 0f 1f 84 00 00 00 	nopw   0x0(%rax,%rax,1)
    198e:	00 00 
    1990:	4c 89 ca             	mov    %r9,%rdx
    1993:	48 89 c1             	mov    %rax,%rcx
    1996:	eb 83                	jmp    191b <riscv_dsp_bq_df2T_f32+0x11b>

Disassembly of section .fini:

0000000000001998 <_fini>:
    1998:	f3 0f 1e fa          	endbr64 
    199c:	48 83 ec 08          	sub    $0x8,%rsp
    19a0:	48 83 c4 08          	add    $0x8,%rsp
    19a4:	c3                   	ret    
