
t_cifft_f64_7:     file format elf64-x86-64


Disassembly of section .init:

0000000000001000 <_init>:
    1000:	f3 0f 1e fa          	endbr64 
    1004:	48 83 ec 08          	sub    $0x8,%rsp
    1008:	48 8b 05 d9 8f 00 00 	mov    0x8fd9(%rip),%rax        # 9fe8 <__gmon_start__@Base>
    100f:	48 85 c0             	test   %rax,%rax
    1012:	74 02                	je     1016 <_init+0x16>
    1014:	ff d0                	call   *%rax
    1016:	48 83 c4 08          	add    $0x8,%rsp
    101a:	c3                   	ret    

Disassembly of section .plt:

0000000000001020 <.plt>:
    1020:	ff 35 5a 8f 00 00    	push   0x8f5a(%rip)        # 9f80 <_GLOBAL_OFFSET_TABLE_+0x8>
    1026:	f2 ff 25 5b 8f 00 00 	bnd jmp *0x8f5b(%rip)        # 9f88 <_GLOBAL_OFFSET_TABLE_+0x10>
    102d:	0f 1f 00             	nopl   (%rax)
    1030:	f3 0f 1e fa          	endbr64 
    1034:	68 00 00 00 00       	push   $0x0
    1039:	f2 e9 e1 ff ff ff    	bnd jmp 1020 <_init+0x20>
    103f:	90                   	nop
    1040:	f3 0f 1e fa          	endbr64 
    1044:	68 01 00 00 00       	push   $0x1
    1049:	f2 e9 d1 ff ff ff    	bnd jmp 1020 <_init+0x20>
    104f:	90                   	nop
    1050:	f3 0f 1e fa          	endbr64 
    1054:	68 02 00 00 00       	push   $0x2
    1059:	f2 e9 c1 ff ff ff    	bnd jmp 1020 <_init+0x20>
    105f:	90                   	nop
    1060:	f3 0f 1e fa          	endbr64 
    1064:	68 03 00 00 00       	push   $0x3
    1069:	f2 e9 b1 ff ff ff    	bnd jmp 1020 <_init+0x20>
    106f:	90                   	nop
    1070:	f3 0f 1e fa          	endbr64 
    1074:	68 04 00 00 00       	push   $0x4
    1079:	f2 e9 a1 ff ff ff    	bnd jmp 1020 <_init+0x20>
    107f:	90                   	nop
    1080:	f3 0f 1e fa          	endbr64 
    1084:	68 05 00 00 00       	push   $0x5
    1089:	f2 e9 91 ff ff ff    	bnd jmp 1020 <_init+0x20>
    108f:	90                   	nop
    1090:	f3 0f 1e fa          	endbr64 
    1094:	68 06 00 00 00       	push   $0x6
    1099:	f2 e9 81 ff ff ff    	bnd jmp 1020 <_init+0x20>
    109f:	90                   	nop
    10a0:	f3 0f 1e fa          	endbr64 
    10a4:	68 07 00 00 00       	push   $0x7
    10a9:	f2 e9 71 ff ff ff    	bnd jmp 1020 <_init+0x20>
    10af:	90                   	nop
    10b0:	f3 0f 1e fa          	endbr64 
    10b4:	68 08 00 00 00       	push   $0x8
    10b9:	f2 e9 61 ff ff ff    	bnd jmp 1020 <_init+0x20>
    10bf:	90                   	nop

Disassembly of section .plt.got:

00000000000010c0 <__cxa_finalize@plt>:
    10c0:	f3 0f 1e fa          	endbr64 
    10c4:	f2 ff 25 2d 8f 00 00 	bnd jmp *0x8f2d(%rip)        # 9ff8 <__cxa_finalize@GLIBC_2.2.5>
    10cb:	0f 1f 44 00 00       	nopl   0x0(%rax,%rax,1)

Disassembly of section .plt.sec:

00000000000010d0 <puts@plt>:
    10d0:	f3 0f 1e fa          	endbr64 
    10d4:	f2 ff 25 b5 8e 00 00 	bnd jmp *0x8eb5(%rip)        # 9f90 <puts@GLIBC_2.2.5>
    10db:	0f 1f 44 00 00       	nopl   0x0(%rax,%rax,1)

00000000000010e0 <fread@plt>:
    10e0:	f3 0f 1e fa          	endbr64 
    10e4:	f2 ff 25 ad 8e 00 00 	bnd jmp *0x8ead(%rip)        # 9f98 <fread@GLIBC_2.2.5>
    10eb:	0f 1f 44 00 00       	nopl   0x0(%rax,%rax,1)

00000000000010f0 <fclose@plt>:
    10f0:	f3 0f 1e fa          	endbr64 
    10f4:	f2 ff 25 a5 8e 00 00 	bnd jmp *0x8ea5(%rip)        # 9fa0 <fclose@GLIBC_2.2.5>
    10fb:	0f 1f 44 00 00       	nopl   0x0(%rax,%rax,1)

0000000000001100 <__stack_chk_fail@plt>:
    1100:	f3 0f 1e fa          	endbr64 
    1104:	f2 ff 25 9d 8e 00 00 	bnd jmp *0x8e9d(%rip)        # 9fa8 <__stack_chk_fail@GLIBC_2.4>
    110b:	0f 1f 44 00 00       	nopl   0x0(%rax,%rax,1)

0000000000001110 <log10f@plt>:
    1110:	f3 0f 1e fa          	endbr64 
    1114:	f2 ff 25 95 8e 00 00 	bnd jmp *0x8e95(%rip)        # 9fb0 <log10f@GLIBC_2.2.5>
    111b:	0f 1f 44 00 00       	nopl   0x0(%rax,%rax,1)

0000000000001120 <__printf_chk@plt>:
    1120:	f3 0f 1e fa          	endbr64 
    1124:	f2 ff 25 8d 8e 00 00 	bnd jmp *0x8e8d(%rip)        # 9fb8 <__printf_chk@GLIBC_2.3.4>
    112b:	0f 1f 44 00 00       	nopl   0x0(%rax,%rax,1)

0000000000001130 <fopen@plt>:
    1130:	f3 0f 1e fa          	endbr64 
    1134:	f2 ff 25 85 8e 00 00 	bnd jmp *0x8e85(%rip)        # 9fc0 <fopen@GLIBC_2.2.5>
    113b:	0f 1f 44 00 00       	nopl   0x0(%rax,%rax,1)

0000000000001140 <sqrt@plt>:
    1140:	f3 0f 1e fa          	endbr64 
    1144:	f2 ff 25 7d 8e 00 00 	bnd jmp *0x8e7d(%rip)        # 9fc8 <sqrt@GLIBC_2.2.5>
    114b:	0f 1f 44 00 00       	nopl   0x0(%rax,%rax,1)

0000000000001150 <__sprintf_chk@plt>:
    1150:	f3 0f 1e fa          	endbr64 
    1154:	f2 ff 25 75 8e 00 00 	bnd jmp *0x8e75(%rip)        # 9fd0 <__sprintf_chk@GLIBC_2.3.4>
    115b:	0f 1f 44 00 00       	nopl   0x0(%rax,%rax,1)

Disassembly of section .text:

0000000000001160 <main>:
    1160:	f3 0f 1e fa          	endbr64 
    1164:	55                   	push   %rbp
    1165:	48 8d 2d 14 97 00 00 	lea    0x9714(%rip),%rbp        # a880 <src>
    116c:	48 8d 3d d8 4f 00 00 	lea    0x4fd8(%rip),%rdi        # 614b <_IO_stdin_used+0x14b>
    1173:	53                   	push   %rbx
    1174:	48 89 ee             	mov    %rbp,%rsi
    1177:	48 8d 1d 02 8f 00 00 	lea    0x8f02(%rip),%rbx        # a080 <golden>
    117e:	48 83 ec 28          	sub    $0x28,%rsp
    1182:	e8 99 04 00 00       	call   1620 <read_write_buffer.constprop.0>
    1187:	48 8d 3d c2 4e 00 00 	lea    0x4ec2(%rip),%rdi        # 6050 <_IO_stdin_used+0x50>
    118e:	e8 3d ff ff ff       	call   10d0 <puts@plt>
    1193:	ba 80 00 00 00       	mov    $0x80,%edx
    1198:	48 8d 35 bd 4f 00 00 	lea    0x4fbd(%rip),%rsi        # 615c <_IO_stdin_used+0x15c>
    119f:	31 c0                	xor    %eax,%eax
    11a1:	bf 01 00 00 00       	mov    $0x1,%edi
    11a6:	e8 75 ff ff ff       	call   1120 <__printf_chk@plt>
    11ab:	be 07 00 00 00       	mov    $0x7,%esi
    11b0:	48 89 ef             	mov    %rbp,%rdi
    11b3:	e8 08 05 00 00       	call   16c0 <riscv_dsp_cifft_f64>
    11b8:	48 89 de             	mov    %rbx,%rsi
    11bb:	48 8d 3d ac 4f 00 00 	lea    0x4fac(%rip),%rdi        # 616e <_IO_stdin_used+0x16e>
    11c2:	e8 59 04 00 00       	call   1620 <read_write_buffer.constprop.0>
    11c7:	66 0f ef ff          	pxor   %xmm7,%xmm7
    11cb:	48 89 ea             	mov    %rbp,%rdx
    11ce:	48 89 d8             	mov    %rbx,%rax
    11d1:	66 0f 28 d7          	movapd %xmm7,%xmm2
    11d5:	48 8d 8b 00 08 00 00 	lea    0x800(%rbx),%rcx
    11dc:	eb 17                	jmp    11f5 <main+0x95>
    11de:	66 90                	xchg   %ax,%ax
    11e0:	f2 0f 5c c1          	subsd  %xmm1,%xmm0
    11e4:	66 0f 28 d8          	movapd %xmm0,%xmm3
    11e8:	f2 0f 5f da          	maxsd  %xmm2,%xmm3
    11ec:	66 0f 28 d3          	movapd %xmm3,%xmm2
    11f0:	48 39 c8             	cmp    %rcx,%rax
    11f3:	74 2b                	je     1220 <main+0xc0>
    11f5:	f2 0f 10 00          	movsd  (%rax),%xmm0
    11f9:	f2 0f 10 0a          	movsd  (%rdx),%xmm1
    11fd:	48 83 c0 08          	add    $0x8,%rax
    1201:	48 83 c2 08          	add    $0x8,%rdx
    1205:	66 0f 2f c1          	comisd %xmm1,%xmm0
    1209:	77 d5                	ja     11e0 <main+0x80>
    120b:	66 0f 28 d9          	movapd %xmm1,%xmm3
    120f:	f2 0f 5c d8          	subsd  %xmm0,%xmm3
    1213:	f2 0f 5f da          	maxsd  %xmm2,%xmm3
    1217:	66 0f 28 d3          	movapd %xmm3,%xmm2
    121b:	48 39 c8             	cmp    %rcx,%rax
    121e:	75 d5                	jne    11f5 <main+0x95>
    1220:	66 0f 28 c3          	movapd %xmm3,%xmm0
    1224:	bf 01 00 00 00       	mov    $0x1,%edi
    1229:	b8 01 00 00 00       	mov    $0x1,%eax
    122e:	48 8d 35 50 4f 00 00 	lea    0x4f50(%rip),%rsi        # 6185 <_IO_stdin_used+0x185>
    1235:	e8 e6 fe ff ff       	call   1120 <__printf_chk@plt>
    123a:	66 0f ef db          	pxor   %xmm3,%xmm3
    123e:	66 0f ef ff          	pxor   %xmm7,%xmm7
    1242:	48 8d 05 37 96 00 00 	lea    0x9637(%rip),%rax        # a880 <src>
    1249:	66 0f 28 f7          	movapd %xmm7,%xmm6
    124d:	66 0f 28 ef          	movapd %xmm7,%xmm5
    1251:	0f 28 c3             	movaps %xmm3,%xmm0
    1254:	44 0f 28 c3          	movaps %xmm3,%xmm8
    1258:	44 0f 28 cb          	movaps %xmm3,%xmm9
    125c:	48 8d 15 1d 8e 00 00 	lea    0x8e1d(%rip),%rdx        # a080 <golden>
    1263:	48 8d 88 00 08 00 00 	lea    0x800(%rax),%rcx
    126a:	eb 37                	jmp    12a3 <main+0x143>
    126c:	0f 1f 40 00          	nopl   0x0(%rax)
    1270:	f2 0f 5c e1          	subsd  %xmm1,%xmm4
    1274:	66 0f ef d2          	pxor   %xmm2,%xmm2
    1278:	f2 0f 5a d4          	cvtsd2ss %xmm4,%xmm2
    127c:	f2 0f 59 c9          	mulsd  %xmm1,%xmm1
    1280:	0f 28 e2             	movaps %xmm2,%xmm4
    1283:	f3 0f 58 c2          	addss  %xmm2,%xmm0
    1287:	f3 0f 59 d2          	mulss  %xmm2,%xmm2
    128b:	f3 0f 5f e3          	maxss  %xmm3,%xmm4
    128f:	0f 28 dc             	movaps %xmm4,%xmm3
    1292:	f2 0f 58 f1          	addsd  %xmm1,%xmm6
    1296:	f3 0f 5a d2          	cvtss2sd %xmm2,%xmm2
    129a:	f2 0f 58 ea          	addsd  %xmm2,%xmm5
    129e:	48 39 c8             	cmp    %rcx,%rax
    12a1:	74 5d                	je     1300 <main+0x1a0>
    12a3:	f2 0f 10 0a          	movsd  (%rdx),%xmm1
    12a7:	66 0f ef d2          	pxor   %xmm2,%xmm2
    12ab:	48 83 c0 08          	add    $0x8,%rax
    12af:	48 83 c2 08          	add    $0x8,%rdx
    12b3:	f3 41 0f 5a d1       	cvtss2sd %xmm9,%xmm2
    12b8:	f2 0f 10 60 f8       	movsd  -0x8(%rax),%xmm4
    12bd:	66 0f 2f ca          	comisd %xmm2,%xmm1
    12c1:	76 0a                	jbe    12cd <main+0x16d>
    12c3:	66 45 0f ef c9       	pxor   %xmm9,%xmm9
    12c8:	f2 44 0f 5a c9       	cvtsd2ss %xmm1,%xmm9
    12cd:	66 0f ef d2          	pxor   %xmm2,%xmm2
    12d1:	f3 41 0f 5a d0       	cvtss2sd %xmm8,%xmm2
    12d6:	66 0f 2f d1          	comisd %xmm1,%xmm2
    12da:	76 0a                	jbe    12e6 <main+0x186>
    12dc:	66 45 0f ef c0       	pxor   %xmm8,%xmm8
    12e1:	f2 44 0f 5a c1       	cvtsd2ss %xmm1,%xmm8
    12e6:	66 0f 2f e1          	comisd %xmm1,%xmm4
    12ea:	77 84                	ja     1270 <main+0x110>
    12ec:	66 0f 28 d1          	movapd %xmm1,%xmm2
    12f0:	f2 0f 5c d4          	subsd  %xmm4,%xmm2
    12f4:	f2 0f 5a d2          	cvtsd2ss %xmm2,%xmm2
    12f8:	eb 82                	jmp    127c <main+0x11c>
    12fa:	66 0f 1f 44 00 00    	nopw   0x0(%rax,%rax,1)
    1300:	f3 0f 59 05 ac 4e 00 	mulss  0x4eac(%rip),%xmm0        # 61b4 <_IO_stdin_used+0x1b4>
    1307:	00 
    1308:	66 0f 7e c3          	movd   %xmm0,%ebx
    130c:	f2 0f 10 05 ac 4e 00 	movsd  0x4eac(%rip),%xmm0        # 61c0 <_IO_stdin_used+0x1c0>
    1313:	00 
    1314:	f2 0f 59 c5          	mulsd  %xmm5,%xmm0
    1318:	66 0f 2e f8          	ucomisd %xmm0,%xmm7
    131c:	0f 87 21 01 00 00    	ja     1443 <main+0x2e3>
    1322:	f2 0f 51 c0          	sqrtsd %xmm0,%xmm0
    1326:	f3 45 0f 5c c8       	subss  %xmm8,%xmm9
    132b:	66 0f 2e ef          	ucomisd %xmm7,%xmm5
    132f:	66 0f ef c9          	pxor   %xmm1,%xmm1
    1333:	f2 0f 5a c8          	cvtsd2ss %xmm0,%xmm1
    1337:	0f 28 e1             	movaps %xmm1,%xmm4
    133a:	f3 41 0f 5e e1       	divss  %xmm9,%xmm4
    133f:	66 0f 7e e5          	movd   %xmm4,%ebp
    1343:	0f 8a ab 00 00 00    	jp     13f4 <main+0x294>
    1349:	f3 0f 10 25 5f 4e 00 	movss  0x4e5f(%rip),%xmm4        # 61b0 <_IO_stdin_used+0x1b0>
    1350:	00 
    1351:	0f 85 9d 00 00 00    	jne    13f4 <main+0x294>
    1357:	48 8d 3d 3b 4e 00 00 	lea    0x4e3b(%rip),%rdi        # 6199 <_IO_stdin_used+0x199>
    135e:	f3 0f 11 5c 24 14    	movss  %xmm3,0x14(%rsp)
    1364:	f3 0f 11 24 24       	movss  %xmm4,(%rsp)
    1369:	f3 0f 11 4c 24 08    	movss  %xmm1,0x8(%rsp)
    136f:	e8 5c fd ff ff       	call   10d0 <puts@plt>
    1374:	f3 0f 10 24 24       	movss  (%rsp),%xmm4
    1379:	f3 0f 10 5c 24 14    	movss  0x14(%rsp),%xmm3
    137f:	66 0f 6e fd          	movd   %ebp,%xmm7
    1383:	f3 0f 10 4c 24 08    	movss  0x8(%rsp),%xmm1
    1389:	66 0f ef d2          	pxor   %xmm2,%xmm2
    138d:	66 0f ef c0          	pxor   %xmm0,%xmm0
    1391:	48 8d 35 e0 4c 00 00 	lea    0x4ce0(%rip),%rsi        # 6078 <_IO_stdin_used+0x78>
    1398:	f3 0f 5a d7          	cvtss2sd %xmm7,%xmm2
    139c:	66 0f 6e fb          	movd   %ebx,%xmm7
    13a0:	f3 0f 5a e4          	cvtss2sd %xmm4,%xmm4
    13a4:	f3 0f 5a db          	cvtss2sd %xmm3,%xmm3
    13a8:	bf 01 00 00 00       	mov    $0x1,%edi
    13ad:	b8 05 00 00 00       	mov    $0x5,%eax
    13b2:	f3 0f 5a c7          	cvtss2sd %xmm7,%xmm0
    13b6:	f3 0f 5a c9          	cvtss2sd %xmm1,%xmm1
    13ba:	f2 0f 11 14 24       	movsd  %xmm2,(%rsp)
    13bf:	e8 5c fd ff ff       	call   1120 <__printf_chk@plt>
    13c4:	f2 0f 10 14 24       	movsd  (%rsp),%xmm2
    13c9:	ba 80 00 00 00       	mov    $0x80,%edx
    13ce:	66 0f 2f 15 f2 4d 00 	comisd 0x4df2(%rip),%xmm2        # 61c8 <_IO_stdin_used+0x1c8>
    13d5:	00 
    13d6:	77 53                	ja     142b <main+0x2cb>
    13d8:	48 8d 35 21 4d 00 00 	lea    0x4d21(%rip),%rsi        # 6100 <_IO_stdin_used+0x100>
    13df:	bf 01 00 00 00       	mov    $0x1,%edi
    13e4:	31 c0                	xor    %eax,%eax
    13e6:	e8 35 fd ff ff       	call   1120 <__printf_chk@plt>
    13eb:	31 c0                	xor    %eax,%eax
    13ed:	48 83 c4 28          	add    $0x28,%rsp
    13f1:	5b                   	pop    %rbx
    13f2:	5d                   	pop    %rbp
    13f3:	c3                   	ret    
    13f4:	f2 0f 5e f5          	divsd  %xmm5,%xmm6
    13f8:	66 0f ef c0          	pxor   %xmm0,%xmm0
    13fc:	f3 0f 11 5c 24 08    	movss  %xmm3,0x8(%rsp)
    1402:	f3 0f 11 0c 24       	movss  %xmm1,(%rsp)
    1407:	f2 0f 5a c6          	cvtsd2ss %xmm6,%xmm0
    140b:	e8 00 fd ff ff       	call   1110 <log10f@plt>
    1410:	f3 0f 10 5c 24 08    	movss  0x8(%rsp),%xmm3
    1416:	f3 0f 59 05 9a 4d 00 	mulss  0x4d9a(%rip),%xmm0        # 61b8 <_IO_stdin_used+0x1b8>
    141d:	00 
    141e:	f3 0f 10 0c 24       	movss  (%rsp),%xmm1
    1423:	0f 28 e0             	movaps %xmm0,%xmm4
    1426:	e9 2c ff ff ff       	jmp    1357 <main+0x1f7>
    142b:	48 8d 35 9e 4c 00 00 	lea    0x4c9e(%rip),%rsi        # 60d0 <_IO_stdin_used+0xd0>
    1432:	bf 01 00 00 00       	mov    $0x1,%edi
    1437:	31 c0                	xor    %eax,%eax
    1439:	e8 e2 fc ff ff       	call   1120 <__printf_chk@plt>
    143e:	83 c8 ff             	or     $0xffffffff,%eax
    1441:	eb aa                	jmp    13ed <main+0x28d>
    1443:	f3 44 0f 11 44 24 18 	movss  %xmm8,0x18(%rsp)
    144a:	f3 44 0f 11 4c 24 14 	movss  %xmm9,0x14(%rsp)
    1451:	f2 0f 11 74 24 08    	movsd  %xmm6,0x8(%rsp)
    1457:	f2 0f 11 2c 24       	movsd  %xmm5,(%rsp)
    145c:	f3 0f 11 64 24 1c    	movss  %xmm4,0x1c(%rsp)
    1462:	e8 d9 fc ff ff       	call   1140 <sqrt@plt>
    1467:	f3 0f 10 5c 24 1c    	movss  0x1c(%rsp),%xmm3
    146d:	f2 0f 10 2c 24       	movsd  (%rsp),%xmm5
    1472:	66 0f ef ff          	pxor   %xmm7,%xmm7
    1476:	f3 44 0f 10 44 24 18 	movss  0x18(%rsp),%xmm8
    147d:	f3 44 0f 10 4c 24 14 	movss  0x14(%rsp),%xmm9
    1484:	f2 0f 10 74 24 08    	movsd  0x8(%rsp),%xmm6
    148a:	e9 97 fe ff ff       	jmp    1326 <main+0x1c6>
    148f:	90                   	nop

0000000000001490 <_start>:
    1490:	f3 0f 1e fa          	endbr64 
    1494:	31 ed                	xor    %ebp,%ebp
    1496:	49 89 d1             	mov    %rdx,%r9
    1499:	5e                   	pop    %rsi
    149a:	48 89 e2             	mov    %rsp,%rdx
    149d:	48 83 e4 f0          	and    $0xfffffffffffffff0,%rsp
    14a1:	50                   	push   %rax
    14a2:	54                   	push   %rsp
    14a3:	45 31 c0             	xor    %r8d,%r8d
    14a6:	31 c9                	xor    %ecx,%ecx
    14a8:	48 8d 3d b1 fc ff ff 	lea    -0x34f(%rip),%rdi        # 1160 <main>
    14af:	ff 15 23 8b 00 00    	call   *0x8b23(%rip)        # 9fd8 <__libc_start_main@GLIBC_2.34>
    14b5:	f4                   	hlt    
    14b6:	66 2e 0f 1f 84 00 00 	cs nopw 0x0(%rax,%rax,1)
    14bd:	00 00 00 

00000000000014c0 <deregister_tm_clones>:
    14c0:	48 8d 3d 49 8b 00 00 	lea    0x8b49(%rip),%rdi        # a010 <__TMC_END__>
    14c7:	48 8d 05 42 8b 00 00 	lea    0x8b42(%rip),%rax        # a010 <__TMC_END__>
    14ce:	48 39 f8             	cmp    %rdi,%rax
    14d1:	74 15                	je     14e8 <deregister_tm_clones+0x28>
    14d3:	48 8b 05 06 8b 00 00 	mov    0x8b06(%rip),%rax        # 9fe0 <_ITM_deregisterTMCloneTable@Base>
    14da:	48 85 c0             	test   %rax,%rax
    14dd:	74 09                	je     14e8 <deregister_tm_clones+0x28>
    14df:	ff e0                	jmp    *%rax
    14e1:	0f 1f 80 00 00 00 00 	nopl   0x0(%rax)
    14e8:	c3                   	ret    
    14e9:	0f 1f 80 00 00 00 00 	nopl   0x0(%rax)

00000000000014f0 <register_tm_clones>:
    14f0:	48 8d 3d 19 8b 00 00 	lea    0x8b19(%rip),%rdi        # a010 <__TMC_END__>
    14f7:	48 8d 35 12 8b 00 00 	lea    0x8b12(%rip),%rsi        # a010 <__TMC_END__>
    14fe:	48 29 fe             	sub    %rdi,%rsi
    1501:	48 89 f0             	mov    %rsi,%rax
    1504:	48 c1 ee 3f          	shr    $0x3f,%rsi
    1508:	48 c1 f8 03          	sar    $0x3,%rax
    150c:	48 01 c6             	add    %rax,%rsi
    150f:	48 d1 fe             	sar    %rsi
    1512:	74 14                	je     1528 <register_tm_clones+0x38>
    1514:	48 8b 05 d5 8a 00 00 	mov    0x8ad5(%rip),%rax        # 9ff0 <_ITM_registerTMCloneTable@Base>
    151b:	48 85 c0             	test   %rax,%rax
    151e:	74 08                	je     1528 <register_tm_clones+0x38>
    1520:	ff e0                	jmp    *%rax
    1522:	66 0f 1f 44 00 00    	nopw   0x0(%rax,%rax,1)
    1528:	c3                   	ret    
    1529:	0f 1f 80 00 00 00 00 	nopl   0x0(%rax)

0000000000001530 <__do_global_dtors_aux>:
    1530:	f3 0f 1e fa          	endbr64 
    1534:	80 3d 05 8b 00 00 00 	cmpb   $0x0,0x8b05(%rip)        # a040 <completed.0>
    153b:	75 2b                	jne    1568 <__do_global_dtors_aux+0x38>
    153d:	55                   	push   %rbp
    153e:	48 83 3d b2 8a 00 00 	cmpq   $0x0,0x8ab2(%rip)        # 9ff8 <__cxa_finalize@GLIBC_2.2.5>
    1545:	00 
    1546:	48 89 e5             	mov    %rsp,%rbp
    1549:	74 0c                	je     1557 <__do_global_dtors_aux+0x27>
    154b:	48 8b 3d b6 8a 00 00 	mov    0x8ab6(%rip),%rdi        # a008 <__dso_handle>
    1552:	e8 69 fb ff ff       	call   10c0 <__cxa_finalize@plt>
    1557:	e8 64 ff ff ff       	call   14c0 <deregister_tm_clones>
    155c:	c6 05 dd 8a 00 00 01 	movb   $0x1,0x8add(%rip)        # a040 <completed.0>
    1563:	5d                   	pop    %rbp
    1564:	c3                   	ret    
    1565:	0f 1f 00             	nopl   (%rax)
    1568:	c3                   	ret    
    1569:	0f 1f 80 00 00 00 00 	nopl   0x0(%rax)

0000000000001570 <frame_dummy>:
    1570:	f3 0f 1e fa          	endbr64 
    1574:	e9 77 ff ff ff       	jmp    14f0 <register_tm_clones>
    1579:	0f 1f 80 00 00 00 00 	nopl   0x0(%rax)

0000000000001580 <test_Fopen.constprop.0.isra.0>:
    1580:	41 54                	push   %r12
    1582:	49 89 f9             	mov    %rdi,%r9
    1585:	49 89 fc             	mov    %rdi,%r12
    1588:	4c 8d 05 79 4a 00 00 	lea    0x4a79(%rip),%r8        # 6008 <_IO_stdin_used+0x8>
    158f:	55                   	push   %rbp
    1590:	48 8d 0d 92 4b 00 00 	lea    0x4b92(%rip),%rcx        # 6129 <_IO_stdin_used+0x129>
    1597:	ba 00 04 00 00       	mov    $0x400,%edx
    159c:	53                   	push   %rbx
    159d:	48 89 f3             	mov    %rsi,%rbx
    15a0:	be 01 00 00 00       	mov    $0x1,%esi
    15a5:	48 81 ec 10 04 00 00 	sub    $0x410,%rsp
    15ac:	64 48 8b 04 25 28 00 	mov    %fs:0x28,%rax
    15b3:	00 00 
    15b5:	48 89 84 24 08 04 00 	mov    %rax,0x408(%rsp)
    15bc:	00 
    15bd:	31 c0                	xor    %eax,%eax
    15bf:	48 89 e5             	mov    %rsp,%rbp
    15c2:	48 89 ef             	mov    %rbp,%rdi
    15c5:	e8 86 fb ff ff       	call   1150 <__sprintf_chk@plt>
    15ca:	48 8d 35 5e 4b 00 00 	lea    0x4b5e(%rip),%rsi        # 612f <_IO_stdin_used+0x12f>
    15d1:	48 89 ef             	mov    %rbp,%rdi
    15d4:	e8 57 fb ff ff       	call   1130 <fopen@plt>
    15d9:	48 89 03             	mov    %rax,(%rbx)
    15dc:	48 85 c0             	test   %rax,%rax
    15df:	74 1f                	je     1600 <test_Fopen.constprop.0.isra.0+0x80>
    15e1:	48 8b 84 24 08 04 00 	mov    0x408(%rsp),%rax
    15e8:	00 
    15e9:	64 48 2b 04 25 28 00 	sub    %fs:0x28,%rax
    15f0:	00 00 
    15f2:	75 22                	jne    1616 <test_Fopen.constprop.0.isra.0+0x96>
    15f4:	48 81 c4 10 04 00 00 	add    $0x410,%rsp
    15fb:	5b                   	pop    %rbx
    15fc:	5d                   	pop    %rbp
    15fd:	41 5c                	pop    %r12
    15ff:	c3                   	ret    
    1600:	4c 89 e2             	mov    %r12,%rdx
    1603:	48 8d 35 28 4b 00 00 	lea    0x4b28(%rip),%rsi        # 6132 <_IO_stdin_used+0x132>
    160a:	bf 01 00 00 00       	mov    $0x1,%edi
    160f:	e8 0c fb ff ff       	call   1120 <__printf_chk@plt>
    1614:	eb cb                	jmp    15e1 <test_Fopen.constprop.0.isra.0+0x61>
    1616:	e8 e5 fa ff ff       	call   1100 <__stack_chk_fail@plt>
    161b:	0f 1f 44 00 00       	nopl   0x0(%rax,%rax,1)

0000000000001620 <read_write_buffer.constprop.0>:
    1620:	41 54                	push   %r12
    1622:	55                   	push   %rbp
    1623:	48 89 f5             	mov    %rsi,%rbp
    1626:	48 83 ec 18          	sub    $0x18,%rsp
    162a:	64 48 8b 04 25 28 00 	mov    %fs:0x28,%rax
    1631:	00 00 
    1633:	48 89 44 24 08       	mov    %rax,0x8(%rsp)
    1638:	31 c0                	xor    %eax,%eax
    163a:	48 89 e6             	mov    %rsp,%rsi
    163d:	48 c7 04 24 00 00 00 	movq   $0x0,(%rsp)
    1644:	00 
    1645:	e8 36 ff ff ff       	call   1580 <test_Fopen.constprop.0.isra.0>
    164a:	4c 8b 24 24          	mov    (%rsp),%r12
    164e:	ba 00 01 00 00       	mov    $0x100,%edx
    1653:	48 89 ef             	mov    %rbp,%rdi
    1656:	be 08 00 00 00       	mov    $0x8,%esi
    165b:	4c 89 e1             	mov    %r12,%rcx
    165e:	e8 7d fa ff ff       	call   10e0 <fread@plt>
    1663:	48 8b 44 24 08       	mov    0x8(%rsp),%rax
    1668:	64 48 2b 04 25 28 00 	sub    %fs:0x28,%rax
    166f:	00 00 
    1671:	75 0f                	jne    1682 <read_write_buffer.constprop.0+0x62>
    1673:	48 83 c4 18          	add    $0x18,%rsp
    1677:	4c 89 e7             	mov    %r12,%rdi
    167a:	5d                   	pop    %rbp
    167b:	41 5c                	pop    %r12
    167d:	e9 6e fa ff ff       	jmp    10f0 <fclose@plt>
    1682:	e8 79 fa ff ff       	call   1100 <__stack_chk_fail@plt>
    1687:	66 0f 1f 84 00 00 00 	nopw   0x0(%rax,%rax,1)
    168e:	00 00 

0000000000001690 <riscv_dsp_cfft_f64>:
    1690:	f3 0f 1e fa          	endbr64 
    1694:	83 fe 0e             	cmp    $0xe,%esi
    1697:	77 17                	ja     16b0 <riscv_dsp_cfft_f64+0x20>
    1699:	b8 50 55 00 00       	mov    $0x5550,%eax
    169e:	48 0f a3 f0          	bt     %rsi,%rax
    16a2:	73 0c                	jae    16b0 <riscv_dsp_cfft_f64+0x20>
    16a4:	e9 37 10 00 00       	jmp    26e0 <riscv_dsp_cfft_rd4_f64>
    16a9:	0f 1f 80 00 00 00 00 	nopl   0x0(%rax)
    16b0:	e9 3b 00 00 00       	jmp    16f0 <riscv_dsp_cfft_rd2_f64>
    16b5:	66 2e 0f 1f 84 00 00 	cs nopw 0x0(%rax,%rax,1)
    16bc:	00 00 00 
    16bf:	90                   	nop

00000000000016c0 <riscv_dsp_cifft_f64>:
    16c0:	f3 0f 1e fa          	endbr64 
    16c4:	83 fe 0e             	cmp    $0xe,%esi
    16c7:	77 17                	ja     16e0 <riscv_dsp_cifft_f64+0x20>
    16c9:	b8 50 55 00 00       	mov    $0x5550,%eax
    16ce:	48 0f a3 f0          	bt     %rsi,%rax
    16d2:	73 0c                	jae    16e0 <riscv_dsp_cifft_f64+0x20>
    16d4:	e9 c7 24 00 00       	jmp    3ba0 <riscv_dsp_cifft_rd4_f64>
    16d9:	0f 1f 80 00 00 00 00 	nopl   0x0(%rax)
    16e0:	e9 6b 06 00 00       	jmp    1d50 <riscv_dsp_cifft_rd2_f64>
    16e5:	66 2e 0f 1f 84 00 00 	cs nopw 0x0(%rax,%rax,1)
    16ec:	00 00 00 
    16ef:	90                   	nop

00000000000016f0 <riscv_dsp_cfft_rd2_f64>:
    16f0:	f3 0f 1e fa          	endbr64 
    16f4:	41 57                	push   %r15
    16f6:	89 f1                	mov    %esi,%ecx
    16f8:	b8 01 00 00 00       	mov    $0x1,%eax
    16fd:	4c 8d 7f 10          	lea    0x10(%rdi),%r15
    1701:	41 56                	push   %r14
    1703:	d3 e0                	shl    %cl,%eax
    1705:	49 89 fa             	mov    %rdi,%r10
    1708:	41 55                	push   %r13
    170a:	41 54                	push   %r12
    170c:	55                   	push   %rbp
    170d:	53                   	push   %rbx
    170e:	66 0f 10 07          	movupd (%rdi),%xmm0
    1712:	89 74 24 f0          	mov    %esi,-0x10(%rsp)
    1716:	89 c6                	mov    %eax,%esi
    1718:	48 c1 e6 03          	shl    $0x3,%rsi
    171c:	89 44 24 f4          	mov    %eax,-0xc(%rsp)
    1720:	4c 8d 0c 37          	lea    (%rdi,%rsi,1),%r9
    1724:	66 41 0f 10 09       	movupd (%r9),%xmm1
    1729:	66 0f 28 d1          	movapd %xmm1,%xmm2
    172d:	66 0f 58 d0          	addpd  %xmm0,%xmm2
    1731:	66 0f 5c c1          	subpd  %xmm1,%xmm0
    1735:	0f 11 17             	movups %xmm2,(%rdi)
    1738:	41 0f 11 01          	movups %xmm0,(%r9)
    173c:	4d 39 f9             	cmp    %r15,%r9
    173f:	0f 84 03 01 00 00    	je     1848 <riscv_dsp_cfft_rd2_f64+0x158>
    1745:	b9 0a 00 00 00       	mov    $0xa,%ecx
    174a:	4c 89 f8             	mov    %r15,%rax
    174d:	2b 4c 24 f0          	sub    -0x10(%rsp),%ecx
    1751:	31 d2                	xor    %edx,%edx
    1753:	f3 0f 7e 1d 75 4a 00 	movq   0x4a75(%rip),%xmm3        # 61d0 <_IO_stdin_used+0x1d0>
    175a:	00 
    175b:	48 8d 3d ce 5a 00 00 	lea    0x5ace(%rip),%rdi        # 7230 <riscv_dsp_cos_table_f64_1024+0x10>
    1762:	41 b8 00 01 00 00    	mov    $0x100,%r8d
    1768:	66 0f 28 e3          	movapd %xmm3,%xmm4
    176c:	eb 5f                	jmp    17cd <riscv_dsp_cfft_rd2_f64+0xdd>
    176e:	4d 63 db             	movslq %r11d,%r11
    1771:	48 63 db             	movslq %ebx,%rbx
    1774:	f2 42 0f 10 0c df    	movsd  (%rdi,%r11,8),%xmm1
    177a:	f2 0f 10 04 df       	movsd  (%rdi,%rbx,8),%xmm0
    177f:	66 0f 10 10          	movupd (%rax),%xmm2
    1783:	66 0f 14 c9          	unpcklpd %xmm1,%xmm1
    1787:	66 0f 14 c0          	unpcklpd %xmm0,%xmm0
    178b:	48 83 c0 10          	add    $0x10,%rax
    178f:	66 0f 10 74 30 f0    	movupd -0x10(%rax,%rsi,1),%xmm6
    1795:	66 0f 5c d6          	subpd  %xmm6,%xmm2
    1799:	66 0f 59 ca          	mulpd  %xmm2,%xmm1
    179d:	66 0f 59 c2          	mulpd  %xmm2,%xmm0
    17a1:	66 0f 10 50 f0       	movupd -0x10(%rax),%xmm2
    17a6:	66 0f 58 d6          	addpd  %xmm6,%xmm2
    17aa:	66 0f c6 c0 01       	shufpd $0x1,%xmm0,%xmm0
    17af:	0f 11 50 f0          	movups %xmm2,-0x10(%rax)
    17b3:	66 0f 28 d0          	movapd %xmm0,%xmm2
    17b7:	66 0f 58 d1          	addpd  %xmm1,%xmm2
    17bb:	66 0f 5c c8          	subpd  %xmm0,%xmm1
    17bf:	f2 0f 10 ca          	movsd  %xmm2,%xmm1
    17c3:	0f 11 4c 30 f0       	movups %xmm1,-0x10(%rax,%rsi,1)
    17c8:	49 39 c1             	cmp    %rax,%r9
    17cb:	74 7b                	je     1848 <riscv_dsp_cfft_rd2_f64+0x158>
    17cd:	83 c2 01             	add    $0x1,%edx
    17d0:	44 89 c3             	mov    %r8d,%ebx
    17d3:	41 89 d3             	mov    %edx,%r11d
    17d6:	41 d3 e3             	shl    %cl,%r11d
    17d9:	44 29 db             	sub    %r11d,%ebx
    17dc:	85 db                	test   %ebx,%ebx
    17de:	7f 8e                	jg     176e <riscv_dsp_cfft_rd2_f64+0x7e>
    17e0:	41 8d 9b 00 ff ff ff 	lea    -0x100(%r11),%ebx
    17e7:	44 89 c5             	mov    %r8d,%ebp
    17ea:	29 dd                	sub    %ebx,%ebp
    17ec:	85 ed                	test   %ebp,%ebp
    17ee:	7e 19                	jle    1809 <riscv_dsp_cfft_rd2_f64+0x119>
    17f0:	48 63 ed             	movslq %ebp,%rbp
    17f3:	48 63 db             	movslq %ebx,%rbx
    17f6:	f2 0f 10 0c ef       	movsd  (%rdi,%rbp,8),%xmm1
    17fb:	f2 0f 10 04 df       	movsd  (%rdi,%rbx,8),%xmm0
    1800:	66 0f 57 cc          	xorpd  %xmm4,%xmm1
    1804:	e9 76 ff ff ff       	jmp    177f <riscv_dsp_cfft_rd2_f64+0x8f>
    1809:	41 81 eb 00 02 00 00 	sub    $0x200,%r11d
    1810:	44 89 c3             	mov    %r8d,%ebx
    1813:	44 29 db             	sub    %r11d,%ebx
    1816:	4d 63 db             	movslq %r11d,%r11
    1819:	f2 42 0f 10 04 df    	movsd  (%rdi,%r11,8),%xmm0
    181f:	48 63 eb             	movslq %ebx,%rbp
    1822:	f2 0f 10 0c ef       	movsd  (%rdi,%rbp,8),%xmm1
    1827:	66 0f 57 c3          	xorpd  %xmm3,%xmm0
    182b:	85 db                	test   %ebx,%ebx
    182d:	0f 8e 4c ff ff ff    	jle    177f <riscv_dsp_cfft_rd2_f64+0x8f>
    1833:	66 0f 28 d1          	movapd %xmm1,%xmm2
    1837:	66 0f 28 c8          	movapd %xmm0,%xmm1
    183b:	66 0f 57 d3          	xorpd  %xmm3,%xmm2
    183f:	66 0f 28 c2          	movapd %xmm2,%xmm0
    1843:	e9 37 ff ff ff       	jmp    177f <riscv_dsp_cfft_rd2_f64+0x8f>
    1848:	8b 44 24 f0          	mov    -0x10(%rsp),%eax
    184c:	44 8b 74 24 f4       	mov    -0xc(%rsp),%r14d
    1851:	41 b8 02 00 00 00    	mov    $0x2,%r8d
    1857:	89 c1                	mov    %eax,%ecx
    1859:	83 e9 02             	sub    $0x2,%ecx
    185c:	89 4c 24 ec          	mov    %ecx,-0x14(%rsp)
    1860:	0f 84 3e 01 00 00    	je     19a4 <riscv_dsp_cfft_rd2_f64+0x2b4>
    1866:	f3 0f 7e 2d 62 49 00 	movq   0x4962(%rip),%xmm5        # 61d0 <_IO_stdin_used+0x1d0>
    186d:	00 
    186e:	b9 0a 00 00 00       	mov    $0xa,%ecx
    1873:	4c 8d 25 b6 59 00 00 	lea    0x59b6(%rip),%r12        # 7230 <riscv_dsp_cos_table_f64_1024+0x10>
    187a:	41 bd 00 01 00 00    	mov    $0x100,%r13d
    1880:	29 c1                	sub    %eax,%ecx
    1882:	66 0f 28 f5          	movapd %xmm5,%xmm6
    1886:	66 2e 0f 1f 84 00 00 	cs nopw 0x0(%rax,%rax,1)
    188d:	00 00 00 
    1890:	41 d1 ee             	shr    %r14d
    1893:	31 c0                	xor    %eax,%eax
    1895:	31 d2                	xor    %edx,%edx
    1897:	44 89 f7             	mov    %r14d,%edi
    189a:	48 89 fe             	mov    %rdi,%rsi
    189d:	4d 8d 1c fa          	lea    (%r10,%rdi,8),%r11
    18a1:	48 c1 e6 04          	shl    $0x4,%rsi
    18a5:	45 85 c0             	test   %r8d,%r8d
    18a8:	74 33                	je     18dd <riscv_dsp_cfft_rd2_f64+0x1ed>
    18aa:	66 0f 1f 44 00 00    	nopw   0x0(%rax,%rax,1)
    18b0:	66 41 0f 10 0c 03    	movupd (%r11,%rax,1),%xmm1
    18b6:	66 41 0f 10 04 02    	movupd (%r10,%rax,1),%xmm0
    18bc:	83 c2 01             	add    $0x1,%edx
    18bf:	66 0f 28 d1          	movapd %xmm1,%xmm2
    18c3:	66 0f 58 d0          	addpd  %xmm0,%xmm2
    18c7:	66 0f 5c c1          	subpd  %xmm1,%xmm0
    18cb:	41 0f 11 14 02       	movups %xmm2,(%r10,%rax,1)
    18d0:	41 0f 11 04 03       	movups %xmm0,(%r11,%rax,1)
    18d5:	48 01 f0             	add    %rsi,%rax
    18d8:	44 39 c2             	cmp    %r8d,%edx
    18db:	75 d3                	jne    18b0 <riscv_dsp_cfft_rd2_f64+0x1c0>
    18dd:	4d 39 df             	cmp    %r11,%r15
    18e0:	0f 84 b0 00 00 00    	je     1996 <riscv_dsp_cfft_rd2_f64+0x2a6>
    18e6:	49 8d 6c fa 10       	lea    0x10(%r10,%rdi,8),%rbp
    18eb:	4d 89 f9             	mov    %r15,%r9
    18ee:	48 c1 e7 04          	shl    $0x4,%rdi
    18f2:	31 db                	xor    %ebx,%ebx
    18f4:	0f 1f 40 00          	nopl   0x0(%rax)
    18f8:	44 01 c3             	add    %r8d,%ebx
    18fb:	44 89 ea             	mov    %r13d,%edx
    18fe:	89 d8                	mov    %ebx,%eax
    1900:	d3 e0                	shl    %cl,%eax
    1902:	29 c2                	sub    %eax,%edx
    1904:	85 d2                	test   %edx,%edx
    1906:	0f 8e bc 03 00 00    	jle    1cc8 <riscv_dsp_cfft_rd2_f64+0x5d8>
    190c:	48 98                	cltq   
    190e:	48 63 d2             	movslq %edx,%rdx
    1911:	f2 41 0f 10 1c c4    	movsd  (%r12,%rax,8),%xmm3
    1917:	f2 41 0f 10 24 d4    	movsd  (%r12,%rdx,8),%xmm4
    191d:	45 85 c0             	test   %r8d,%r8d
    1920:	74 63                	je     1985 <riscv_dsp_cfft_rd2_f64+0x295>
    1922:	66 0f 14 db          	unpcklpd %xmm3,%xmm3
    1926:	66 0f 14 e4          	unpcklpd %xmm4,%xmm4
    192a:	4c 89 ca             	mov    %r9,%rdx
    192d:	48 89 e8             	mov    %rbp,%rax
    1930:	31 f6                	xor    %esi,%esi
    1932:	66 0f 1f 44 00 00    	nopw   0x0(%rax,%rax,1)
    1938:	66 0f 10 38          	movupd (%rax),%xmm7
    193c:	66 0f 10 02          	movupd (%rdx),%xmm0
    1940:	66 0f 28 cb          	movapd %xmm3,%xmm1
    1944:	83 c6 01             	add    $0x1,%esi
    1947:	66 0f 5c c7          	subpd  %xmm7,%xmm0
    194b:	66 0f 28 d7          	movapd %xmm7,%xmm2
    194f:	66 0f 10 3a          	movupd (%rdx),%xmm7
    1953:	66 0f 58 d7          	addpd  %xmm7,%xmm2
    1957:	66 0f 59 c8          	mulpd  %xmm0,%xmm1
    195b:	66 0f 59 c4          	mulpd  %xmm4,%xmm0
    195f:	0f 11 12             	movups %xmm2,(%rdx)
    1962:	48 01 fa             	add    %rdi,%rdx
    1965:	66 0f c6 c0 01       	shufpd $0x1,%xmm0,%xmm0
    196a:	66 0f 28 d0          	movapd %xmm0,%xmm2
    196e:	66 0f 58 d1          	addpd  %xmm1,%xmm2
    1972:	66 0f 5c c8          	subpd  %xmm0,%xmm1
    1976:	f2 0f 10 ca          	movsd  %xmm2,%xmm1
    197a:	0f 11 08             	movups %xmm1,(%rax)
    197d:	48 01 f8             	add    %rdi,%rax
    1980:	44 39 c6             	cmp    %r8d,%esi
    1983:	75 b3                	jne    1938 <riscv_dsp_cfft_rd2_f64+0x248>
    1985:	49 83 c1 10          	add    $0x10,%r9
    1989:	48 83 c5 10          	add    $0x10,%rbp
    198d:	4d 39 cb             	cmp    %r9,%r11
    1990:	0f 85 62 ff ff ff    	jne    18f8 <riscv_dsp_cfft_rd2_f64+0x208>
    1996:	45 01 c0             	add    %r8d,%r8d
    1999:	83 6c 24 ec 01       	subl   $0x1,-0x14(%rsp)
    199e:	0f 85 ec fe ff ff    	jne    1890 <riscv_dsp_cfft_rd2_f64+0x1a0>
    19a4:	0f b6 4c 24 f0       	movzbl -0x10(%rsp),%ecx
    19a9:	b8 02 00 00 00       	mov    $0x2,%eax
    19ae:	d3 e0                	shl    %cl,%eax
    19b0:	48 8d 34 c5 00 00 00 	lea    0x0(,%rax,8),%rsi
    19b7:	00 
    19b8:	49 8d 14 32          	lea    (%r10,%rsi,1),%rdx
    19bc:	49 39 d2             	cmp    %rdx,%r10
    19bf:	74 61                	je     1a22 <riscv_dsp_cfft_rd2_f64+0x332>
    19c1:	4c 29 d2             	sub    %r10,%rdx
    19c4:	4c 89 d0             	mov    %r10,%rax
    19c7:	48 8d 4a c0          	lea    -0x40(%rdx),%rcx
    19cb:	31 d2                	xor    %edx,%edx
    19cd:	48 c1 e9 06          	shr    $0x6,%rcx
    19d1:	48 83 c1 01          	add    $0x1,%rcx
    19d5:	0f 1f 00             	nopl   (%rax)
    19d8:	66 0f 10 08          	movupd (%rax),%xmm1
    19dc:	66 0f 10 50 10       	movupd 0x10(%rax),%xmm2
    19e1:	48 83 c2 01          	add    $0x1,%rdx
    19e5:	48 83 c0 40          	add    $0x40,%rax
    19e9:	66 0f 10 70 d0       	movupd -0x30(%rax),%xmm6
    19ee:	66 0f 10 40 e0       	movupd -0x20(%rax),%xmm0
    19f3:	66 0f 58 d1          	addpd  %xmm1,%xmm2
    19f7:	66 0f 10 68 f0       	movupd -0x10(%rax),%xmm5
    19fc:	66 0f 5c ce          	subpd  %xmm6,%xmm1
    1a00:	0f 11 50 c0          	movups %xmm2,-0x40(%rax)
    1a04:	0f 11 48 d0          	movups %xmm1,-0x30(%rax)
    1a08:	66 0f 10 48 f0       	movupd -0x10(%rax),%xmm1
    1a0d:	66 0f 58 c8          	addpd  %xmm0,%xmm1
    1a11:	66 0f 5c c5          	subpd  %xmm5,%xmm0
    1a15:	0f 11 48 e0          	movups %xmm1,-0x20(%rax)
    1a19:	0f 11 40 f0          	movups %xmm0,-0x10(%rax)
    1a1d:	48 39 ca             	cmp    %rcx,%rdx
    1a20:	72 b6                	jb     19d8 <riscv_dsp_cfft_rd2_f64+0x2e8>
    1a22:	8b 44 24 f4          	mov    -0xc(%rsp),%eax
    1a26:	f2 41 0f 10 42 10    	movsd  0x10(%r10),%xmm0
    1a2c:	49 8d 7c 32 f8       	lea    -0x8(%r10,%rsi,1),%rdi
    1a31:	41 bc fc ff ff ff    	mov    $0xfffffffc,%r12d
    1a37:	be 04 00 00 00       	mov    $0x4,%esi
    1a3c:	89 c1                	mov    %eax,%ecx
    1a3e:	d1 e9                	shr    %ecx
    1a40:	41 89 c8             	mov    %ecx,%r8d
    1a43:	89 c1                	mov    %eax,%ecx
    1a45:	83 e0 fe             	and    $0xfffffffe,%eax
    1a48:	89 c2                	mov    %eax,%edx
    1a4a:	83 c0 01             	add    $0x1,%eax
    1a4d:	44 89 c3             	mov    %r8d,%ebx
    1a50:	49 8d 14 d2          	lea    (%r10,%rdx,8),%rdx
    1a54:	49 8d 04 c2          	lea    (%r10,%rax,8),%rax
    1a58:	f2 0f 10 0a          	movsd  (%rdx),%xmm1
    1a5c:	f2 41 0f 11 4a 10    	movsd  %xmm1,0x10(%r10)
    1a62:	f2 0f 11 02          	movsd  %xmm0,(%rdx)
    1a66:	f2 0f 10 08          	movsd  (%rax),%xmm1
    1a6a:	f2 41 0f 10 42 18    	movsd  0x18(%r10),%xmm0
    1a70:	f2 41 0f 11 4a 18    	movsd  %xmm1,0x18(%r10)
    1a76:	f2 0f 11 00          	movsd  %xmm0,(%rax)
    1a7a:	89 c8                	mov    %ecx,%eax
    1a7c:	c1 e9 02             	shr    $0x2,%ecx
    1a7f:	31 cb                	xor    %ecx,%ebx
    1a81:	41 89 c9             	mov    %ecx,%r9d
    1a84:	89 c1                	mov    %eax,%ecx
    1a86:	44 89 c0             	mov    %r8d,%eax
    1a89:	c1 e9 03             	shr    $0x3,%ecx
    1a8c:	89 dd                	mov    %ebx,%ebp
    1a8e:	41 89 cb             	mov    %ecx,%r11d
    1a91:	31 cd                	xor    %ecx,%ebp
    1a93:	b9 04 00 00 00       	mov    $0x4,%ecx
    1a98:	0f 1f 84 00 00 00 00 	nopl   0x0(%rax,%rax,1)
    1a9f:	00 
    1aa0:	31 d8                	xor    %ebx,%eax
    1aa2:	41 85 c1             	test   %eax,%r9d
    1aa5:	75 11                	jne    1ab8 <riscv_dsp_cfft_rd2_f64+0x3c8>
    1aa7:	44 89 ca             	mov    %r9d,%edx
    1aaa:	66 0f 1f 44 00 00    	nopw   0x0(%rax,%rax,1)
    1ab0:	d1 ea                	shr    %edx
    1ab2:	31 d0                	xor    %edx,%eax
    1ab4:	85 c2                	test   %eax,%edx
    1ab6:	74 f8                	je     1ab0 <riscv_dsp_cfft_rd2_f64+0x3c0>
    1ab8:	8d 56 fe             	lea    -0x2(%rsi),%edx
    1abb:	39 c2                	cmp    %eax,%edx
    1abd:	0f 83 9e 00 00 00    	jae    1b61 <riscv_dsp_cfft_rd2_f64+0x471>
    1ac3:	89 ca                	mov    %ecx,%edx
    1ac5:	44 8d 2c 00          	lea    (%rax,%rax,1),%r13d
    1ac9:	4d 8d 34 d2          	lea    (%r10,%rdx,8),%r14
    1acd:	4c 89 ea             	mov    %r13,%rdx
    1ad0:	4f 8d 2c ea          	lea    (%r10,%r13,8),%r13
    1ad4:	f2 41 0f 10 06       	movsd  (%r14),%xmm0
    1ad9:	f2 41 0f 10 4d 00    	movsd  0x0(%r13),%xmm1
    1adf:	83 c2 01             	add    $0x1,%edx
    1ae2:	49 8d 14 d2          	lea    (%r10,%rdx,8),%rdx
    1ae6:	f2 41 0f 11 0e       	movsd  %xmm1,(%r14)
    1aeb:	f2 41 0f 11 45 00    	movsd  %xmm0,0x0(%r13)
    1af1:	44 8d 69 01          	lea    0x1(%rcx),%r13d
    1af5:	f2 0f 10 0a          	movsd  (%rdx),%xmm1
    1af9:	4f 8d 2c ea          	lea    (%r10,%r13,8),%r13
    1afd:	f2 41 0f 10 45 00    	movsd  0x0(%r13),%xmm0
    1b03:	f2 41 0f 11 4d 00    	movsd  %xmm1,0x0(%r13)
    1b09:	41 89 cd             	mov    %ecx,%r13d
    1b0c:	41 f7 dd             	neg    %r13d
    1b0f:	f2 0f 11 02          	movsd  %xmm0,(%rdx)
    1b13:	89 c2                	mov    %eax,%edx
    1b15:	4d 63 ed             	movslq %r13d,%r13
    1b18:	f7 da                	neg    %edx
    1b1a:	49 c1 e5 03          	shl    $0x3,%r13
    1b1e:	01 d2                	add    %edx,%edx
    1b20:	4e 8d 34 2f          	lea    (%rdi,%r13,1),%r14
    1b24:	4e 8d 6c 2f f8       	lea    -0x8(%rdi,%r13,1),%r13
    1b29:	48 63 d2             	movslq %edx,%rdx
    1b2c:	f2 41 0f 10 06       	movsd  (%r14),%xmm0
    1b31:	48 c1 e2 03          	shl    $0x3,%rdx
    1b35:	4c 8d 3c 17          	lea    (%rdi,%rdx,1),%r15
    1b39:	48 8d 54 17 f8       	lea    -0x8(%rdi,%rdx,1),%rdx
    1b3e:	f2 41 0f 10 0f       	movsd  (%r15),%xmm1
    1b43:	f2 41 0f 11 0e       	movsd  %xmm1,(%r14)
    1b48:	f2 41 0f 11 07       	movsd  %xmm0,(%r15)
    1b4d:	f2 41 0f 10 45 00    	movsd  0x0(%r13),%xmm0
    1b53:	f2 0f 10 0a          	movsd  (%rdx),%xmm1
    1b57:	f2 41 0f 11 4d 00    	movsd  %xmm1,0x0(%r13)
    1b5d:	f2 0f 11 02          	movsd  %xmm0,(%rdx)
    1b61:	8d 51 02             	lea    0x2(%rcx),%edx
    1b64:	44 01 c0             	add    %r8d,%eax
    1b67:	4d 8d 2c d2          	lea    (%r10,%rdx,8),%r13
    1b6b:	8d 14 00             	lea    (%rax,%rax,1),%edx
    1b6e:	49 89 d6             	mov    %rdx,%r14
    1b71:	49 8d 14 d2          	lea    (%r10,%rdx,8),%rdx
    1b75:	f2 41 0f 10 45 00    	movsd  0x0(%r13),%xmm0
    1b7b:	f2 0f 10 0a          	movsd  (%rdx),%xmm1
    1b7f:	f2 41 0f 11 4d 00    	movsd  %xmm1,0x0(%r13)
    1b85:	f2 0f 11 02          	movsd  %xmm0,(%rdx)
    1b89:	8d 51 03             	lea    0x3(%rcx),%edx
    1b8c:	4d 8d 2c d2          	lea    (%r10,%rdx,8),%r13
    1b90:	41 8d 56 01          	lea    0x1(%r14),%edx
    1b94:	49 8d 14 d2          	lea    (%r10,%rdx,8),%rdx
    1b98:	f2 41 0f 10 45 00    	movsd  0x0(%r13),%xmm0
    1b9e:	f2 0f 10 0a          	movsd  (%rdx),%xmm1
    1ba2:	f2 41 0f 11 4d 00    	movsd  %xmm1,0x0(%r13)
    1ba8:	f2 0f 11 02          	movsd  %xmm0,(%rdx)
    1bac:	44 39 c6             	cmp    %r8d,%esi
    1baf:	0f 83 7f 01 00 00    	jae    1d34 <riscv_dsp_cfft_rd2_f64+0x644>
    1bb5:	31 e8                	xor    %ebp,%eax
    1bb7:	41 85 c3             	test   %eax,%r11d
    1bba:	75 0c                	jne    1bc8 <riscv_dsp_cfft_rd2_f64+0x4d8>
    1bbc:	44 89 da             	mov    %r11d,%edx
    1bbf:	90                   	nop
    1bc0:	d1 ea                	shr    %edx
    1bc2:	31 d0                	xor    %edx,%eax
    1bc4:	85 c2                	test   %eax,%edx
    1bc6:	74 f8                	je     1bc0 <riscv_dsp_cfft_rd2_f64+0x4d0>
    1bc8:	39 c6                	cmp    %eax,%esi
    1bca:	0f 83 9f 00 00 00    	jae    1c6f <riscv_dsp_cfft_rd2_f64+0x57f>
    1bd0:	8d 51 04             	lea    0x4(%rcx),%edx
    1bd3:	44 8d 2c 00          	lea    (%rax,%rax,1),%r13d
    1bd7:	4d 8d 34 d2          	lea    (%r10,%rdx,8),%r14
    1bdb:	4c 89 ea             	mov    %r13,%rdx
    1bde:	4f 8d 2c ea          	lea    (%r10,%r13,8),%r13
    1be2:	f2 41 0f 10 06       	movsd  (%r14),%xmm0
    1be7:	f2 41 0f 10 4d 00    	movsd  0x0(%r13),%xmm1
    1bed:	83 c2 01             	add    $0x1,%edx
    1bf0:	49 8d 14 d2          	lea    (%r10,%rdx,8),%rdx
    1bf4:	f2 41 0f 11 0e       	movsd  %xmm1,(%r14)
    1bf9:	f2 41 0f 11 45 00    	movsd  %xmm0,0x0(%r13)
    1bff:	44 8d 69 05          	lea    0x5(%rcx),%r13d
    1c03:	f2 0f 10 0a          	movsd  (%rdx),%xmm1
    1c07:	4f 8d 2c ea          	lea    (%r10,%r13,8),%r13
    1c0b:	f2 41 0f 10 45 00    	movsd  0x0(%r13),%xmm0
    1c11:	f2 41 0f 11 4d 00    	movsd  %xmm1,0x0(%r13)
    1c17:	45 89 e5             	mov    %r12d,%r13d
    1c1a:	41 29 cd             	sub    %ecx,%r13d
    1c1d:	f2 0f 11 02          	movsd  %xmm0,(%rdx)
    1c21:	89 c2                	mov    %eax,%edx
    1c23:	4d 63 ed             	movslq %r13d,%r13
    1c26:	f7 da                	neg    %edx
    1c28:	49 c1 e5 03          	shl    $0x3,%r13
    1c2c:	01 d2                	add    %edx,%edx
    1c2e:	4e 8d 34 2f          	lea    (%rdi,%r13,1),%r14
    1c32:	4e 8d 6c 2f f8       	lea    -0x8(%rdi,%r13,1),%r13
    1c37:	48 63 d2             	movslq %edx,%rdx
    1c3a:	f2 41 0f 10 06       	movsd  (%r14),%xmm0
    1c3f:	48 c1 e2 03          	shl    $0x3,%rdx
    1c43:	4c 8d 3c 17          	lea    (%rdi,%rdx,1),%r15
    1c47:	48 8d 54 17 f8       	lea    -0x8(%rdi,%rdx,1),%rdx
    1c4c:	f2 41 0f 10 0f       	movsd  (%r15),%xmm1
    1c51:	f2 41 0f 11 0e       	movsd  %xmm1,(%r14)
    1c56:	f2 41 0f 11 07       	movsd  %xmm0,(%r15)
    1c5b:	f2 41 0f 10 45 00    	movsd  0x0(%r13),%xmm0
    1c61:	f2 0f 10 0a          	movsd  (%rdx),%xmm1
    1c65:	f2 41 0f 11 4d 00    	movsd  %xmm1,0x0(%r13)
    1c6b:	f2 0f 11 02          	movsd  %xmm0,(%rdx)
    1c6f:	8d 51 06             	lea    0x6(%rcx),%edx
    1c72:	44 01 c0             	add    %r8d,%eax
    1c75:	83 c6 04             	add    $0x4,%esi
    1c78:	4d 8d 2c d2          	lea    (%r10,%rdx,8),%r13
    1c7c:	8d 14 00             	lea    (%rax,%rax,1),%edx
    1c7f:	49 89 d6             	mov    %rdx,%r14
    1c82:	49 8d 14 d2          	lea    (%r10,%rdx,8),%rdx
    1c86:	f2 41 0f 10 45 00    	movsd  0x0(%r13),%xmm0
    1c8c:	f2 0f 10 0a          	movsd  (%rdx),%xmm1
    1c90:	f2 41 0f 11 4d 00    	movsd  %xmm1,0x0(%r13)
    1c96:	f2 0f 11 02          	movsd  %xmm0,(%rdx)
    1c9a:	8d 51 07             	lea    0x7(%rcx),%edx
    1c9d:	83 c1 08             	add    $0x8,%ecx
    1ca0:	4d 8d 2c d2          	lea    (%r10,%rdx,8),%r13
    1ca4:	41 8d 56 01          	lea    0x1(%r14),%edx
    1ca8:	49 8d 14 d2          	lea    (%r10,%rdx,8),%rdx
    1cac:	f2 41 0f 10 45 00    	movsd  0x0(%r13),%xmm0
    1cb2:	f2 0f 10 0a          	movsd  (%rdx),%xmm1
    1cb6:	f2 41 0f 11 4d 00    	movsd  %xmm1,0x0(%r13)
    1cbc:	f2 0f 11 02          	movsd  %xmm0,(%rdx)
    1cc0:	e9 db fd ff ff       	jmp    1aa0 <riscv_dsp_cfft_rd2_f64+0x3b0>
    1cc5:	0f 1f 00             	nopl   (%rax)
    1cc8:	8d 90 00 ff ff ff    	lea    -0x100(%rax),%edx
    1cce:	44 89 ee             	mov    %r13d,%esi
    1cd1:	29 d6                	sub    %edx,%esi
    1cd3:	85 f6                	test   %esi,%esi
    1cd5:	7e 21                	jle    1cf8 <riscv_dsp_cfft_rd2_f64+0x608>
    1cd7:	48 63 f6             	movslq %esi,%rsi
    1cda:	48 63 d2             	movslq %edx,%rdx
    1cdd:	f2 41 0f 10 1c f4    	movsd  (%r12,%rsi,8),%xmm3
    1ce3:	f2 41 0f 10 24 d4    	movsd  (%r12,%rdx,8),%xmm4
    1ce9:	66 0f 57 de          	xorpd  %xmm6,%xmm3
    1ced:	e9 2b fc ff ff       	jmp    191d <riscv_dsp_cfft_rd2_f64+0x22d>
    1cf2:	66 0f 1f 44 00 00    	nopw   0x0(%rax,%rax,1)
    1cf8:	2d 00 02 00 00       	sub    $0x200,%eax
    1cfd:	44 89 ea             	mov    %r13d,%edx
    1d00:	29 c2                	sub    %eax,%edx
    1d02:	48 98                	cltq   
    1d04:	f2 41 0f 10 24 c4    	movsd  (%r12,%rax,8),%xmm4
    1d0a:	48 63 f2             	movslq %edx,%rsi
    1d0d:	f2 41 0f 10 1c f4    	movsd  (%r12,%rsi,8),%xmm3
    1d13:	66 0f 57 e5          	xorpd  %xmm5,%xmm4
    1d17:	85 d2                	test   %edx,%edx
    1d19:	0f 8e fe fb ff ff    	jle    191d <riscv_dsp_cfft_rd2_f64+0x22d>
    1d1f:	66 0f 57 dd          	xorpd  %xmm5,%xmm3
    1d23:	66 0f 28 c3          	movapd %xmm3,%xmm0
    1d27:	66 0f 28 dc          	movapd %xmm4,%xmm3
    1d2b:	66 0f 28 e0          	movapd %xmm0,%xmm4
    1d2f:	e9 e9 fb ff ff       	jmp    191d <riscv_dsp_cfft_rd2_f64+0x22d>
    1d34:	5b                   	pop    %rbx
    1d35:	31 c0                	xor    %eax,%eax
    1d37:	5d                   	pop    %rbp
    1d38:	41 5c                	pop    %r12
    1d3a:	41 5d                	pop    %r13
    1d3c:	41 5e                	pop    %r14
    1d3e:	41 5f                	pop    %r15
    1d40:	c3                   	ret    
    1d41:	66 2e 0f 1f 84 00 00 	cs nopw 0x0(%rax,%rax,1)
    1d48:	00 00 00 
    1d4b:	0f 1f 44 00 00       	nopl   0x0(%rax,%rax,1)

0000000000001d50 <riscv_dsp_cifft_rd2_f64>:
    1d50:	f3 0f 1e fa          	endbr64 
    1d54:	41 57                	push   %r15
    1d56:	89 f1                	mov    %esi,%ecx
    1d58:	b8 01 00 00 00       	mov    $0x1,%eax
    1d5d:	4c 8d 7f 10          	lea    0x10(%rdi),%r15
    1d61:	41 56                	push   %r14
    1d63:	d3 e0                	shl    %cl,%eax
    1d65:	f3 0f 7e 2d 63 44 00 	movq   0x4463(%rip),%xmm5        # 61d0 <_IO_stdin_used+0x1d0>
    1d6c:	00 
    1d6d:	49 89 fa             	mov    %rdi,%r10
    1d70:	41 55                	push   %r13
    1d72:	41 54                	push   %r12
    1d74:	55                   	push   %rbp
    1d75:	53                   	push   %rbx
    1d76:	66 0f 10 07          	movupd (%rdi),%xmm0
    1d7a:	89 74 24 f0          	mov    %esi,-0x10(%rsp)
    1d7e:	89 c6                	mov    %eax,%esi
    1d80:	48 c1 e6 03          	shl    $0x3,%rsi
    1d84:	89 44 24 f4          	mov    %eax,-0xc(%rsp)
    1d88:	4c 8d 1c 37          	lea    (%rdi,%rsi,1),%r11
    1d8c:	f2 41 0f 10 53 08    	movsd  0x8(%r11),%xmm2
    1d92:	f2 41 0f 10 1b       	movsd  (%r11),%xmm3
    1d97:	66 0f 28 e2          	movapd %xmm2,%xmm4
    1d9b:	66 0f 28 cb          	movapd %xmm3,%xmm1
    1d9f:	66 0f 57 e5          	xorpd  %xmm5,%xmm4
    1da3:	66 0f 14 cc          	unpcklpd %xmm4,%xmm1
    1da7:	66 0f 28 e1          	movapd %xmm1,%xmm4
    1dab:	66 0f 5c c8          	subpd  %xmm0,%xmm1
    1daf:	66 0f 58 e0          	addpd  %xmm0,%xmm4
    1db3:	f2 0f 10 cc          	movsd  %xmm4,%xmm1
    1db7:	0f 11 0f             	movups %xmm1,(%rdi)
    1dba:	66 0f 28 c8          	movapd %xmm0,%xmm1
    1dbe:	66 0f 15 c0          	unpckhpd %xmm0,%xmm0
    1dc2:	f2 0f 5c cb          	subsd  %xmm3,%xmm1
    1dc6:	f2 0f 5c d0          	subsd  %xmm0,%xmm2
    1dca:	66 0f 28 c1          	movapd %xmm1,%xmm0
    1dce:	66 0f 14 c2          	unpcklpd %xmm2,%xmm0
    1dd2:	41 0f 11 03          	movups %xmm0,(%r11)
    1dd6:	4d 39 fb             	cmp    %r15,%r11
    1dd9:	0f 84 35 01 00 00    	je     1f14 <riscv_dsp_cifft_rd2_f64+0x1c4>
    1ddf:	b9 0a 00 00 00       	mov    $0xa,%ecx
    1de4:	4c 89 f8             	mov    %r15,%rax
    1de7:	2b 4c 24 f0          	sub    -0x10(%rsp),%ecx
    1deb:	31 ff                	xor    %edi,%edi
    1ded:	4c 8d 05 3c 54 00 00 	lea    0x543c(%rip),%r8        # 7230 <riscv_dsp_cos_table_f64_1024+0x10>
    1df4:	41 b9 00 01 00 00    	mov    $0x100,%r9d
    1dfa:	e9 99 00 00 00       	jmp    1e98 <riscv_dsp_cifft_rd2_f64+0x148>
    1dff:	48 63 d2             	movslq %edx,%rdx
    1e02:	48 63 db             	movslq %ebx,%rbx
    1e05:	f2 41 0f 10 1c d0    	movsd  (%r8,%rdx,8),%xmm3
    1e0b:	f2 41 0f 10 24 d8    	movsd  (%r8,%rbx,8),%xmm4
    1e11:	66 0f 10 38          	movupd (%rax),%xmm7
    1e15:	66 0f 14 db          	unpcklpd %xmm3,%xmm3
    1e19:	66 0f 14 e4          	unpcklpd %xmm4,%xmm4
    1e1d:	48 83 c0 10          	add    $0x10,%rax
    1e21:	f2 0f 10 54 30 f8    	movsd  -0x8(%rax,%rsi,1),%xmm2
    1e27:	f2 0f 10 4c 30 f0    	movsd  -0x10(%rax,%rsi,1),%xmm1
    1e2d:	66 0f 28 f7          	movapd %xmm7,%xmm6
    1e31:	66 0f 28 c7          	movapd %xmm7,%xmm0
    1e35:	66 0f 15 f6          	unpckhpd %xmm6,%xmm6
    1e39:	f2 0f 5c c1          	subsd  %xmm1,%xmm0
    1e3d:	66 44 0f 28 c6       	movapd %xmm6,%xmm8
    1e42:	66 0f 28 f2          	movapd %xmm2,%xmm6
    1e46:	66 0f 57 d5          	xorpd  %xmm5,%xmm2
    1e4a:	f2 41 0f 5c f0       	subsd  %xmm8,%xmm6
    1e4f:	66 0f 14 ca          	unpcklpd %xmm2,%xmm1
    1e53:	66 0f 28 d1          	movapd %xmm1,%xmm2
    1e57:	66 0f 5c cf          	subpd  %xmm7,%xmm1
    1e5b:	66 0f 58 d7          	addpd  %xmm7,%xmm2
    1e5f:	66 44 0f 28 c6       	movapd %xmm6,%xmm8
    1e64:	66 44 0f 14 c0       	unpcklpd %xmm0,%xmm8
    1e69:	66 0f 14 c6          	unpcklpd %xmm6,%xmm0
    1e6d:	66 0f 59 c3          	mulpd  %xmm3,%xmm0
    1e71:	f2 0f 10 ca          	movsd  %xmm2,%xmm1
    1e75:	66 41 0f 59 e0       	mulpd  %xmm8,%xmm4
    1e7a:	0f 11 48 f0          	movups %xmm1,-0x10(%rax)
    1e7e:	66 0f 28 c8          	movapd %xmm0,%xmm1
    1e82:	66 0f 58 cc          	addpd  %xmm4,%xmm1
    1e86:	66 0f 5c c4          	subpd  %xmm4,%xmm0
    1e8a:	f2 0f 10 c1          	movsd  %xmm1,%xmm0
    1e8e:	0f 11 44 30 f0       	movups %xmm0,-0x10(%rax,%rsi,1)
    1e93:	49 39 c3             	cmp    %rax,%r11
    1e96:	74 7c                	je     1f14 <riscv_dsp_cifft_rd2_f64+0x1c4>
    1e98:	83 c7 01             	add    $0x1,%edi
    1e9b:	44 89 cb             	mov    %r9d,%ebx
    1e9e:	89 fa                	mov    %edi,%edx
    1ea0:	d3 e2                	shl    %cl,%edx
    1ea2:	29 d3                	sub    %edx,%ebx
    1ea4:	85 db                	test   %ebx,%ebx
    1ea6:	0f 8f 53 ff ff ff    	jg     1dff <riscv_dsp_cifft_rd2_f64+0xaf>
    1eac:	8d 9a 00 ff ff ff    	lea    -0x100(%rdx),%ebx
    1eb2:	44 89 cd             	mov    %r9d,%ebp
    1eb5:	29 dd                	sub    %ebx,%ebp
    1eb7:	85 ed                	test   %ebp,%ebp
    1eb9:	7e 1b                	jle    1ed6 <riscv_dsp_cifft_rd2_f64+0x186>
    1ebb:	48 63 ed             	movslq %ebp,%rbp
    1ebe:	48 63 db             	movslq %ebx,%rbx
    1ec1:	f2 41 0f 10 1c e8    	movsd  (%r8,%rbp,8),%xmm3
    1ec7:	f2 41 0f 10 24 d8    	movsd  (%r8,%rbx,8),%xmm4
    1ecd:	66 0f 57 dd          	xorpd  %xmm5,%xmm3
    1ed1:	e9 3b ff ff ff       	jmp    1e11 <riscv_dsp_cifft_rd2_f64+0xc1>
    1ed6:	81 ea 00 02 00 00    	sub    $0x200,%edx
    1edc:	44 89 cb             	mov    %r9d,%ebx
    1edf:	29 d3                	sub    %edx,%ebx
    1ee1:	48 63 d2             	movslq %edx,%rdx
    1ee4:	f2 41 0f 10 24 d0    	movsd  (%r8,%rdx,8),%xmm4
    1eea:	48 63 eb             	movslq %ebx,%rbp
    1eed:	f2 41 0f 10 1c e8    	movsd  (%r8,%rbp,8),%xmm3
    1ef3:	66 0f 57 e5          	xorpd  %xmm5,%xmm4
    1ef7:	85 db                	test   %ebx,%ebx
    1ef9:	0f 8e 12 ff ff ff    	jle    1e11 <riscv_dsp_cifft_rd2_f64+0xc1>
    1eff:	66 0f 57 dd          	xorpd  %xmm5,%xmm3
    1f03:	66 0f 28 c3          	movapd %xmm3,%xmm0
    1f07:	66 0f 28 dc          	movapd %xmm4,%xmm3
    1f0b:	66 0f 28 e0          	movapd %xmm0,%xmm4
    1f0f:	e9 fd fe ff ff       	jmp    1e11 <riscv_dsp_cifft_rd2_f64+0xc1>
    1f14:	8b 44 24 f0          	mov    -0x10(%rsp),%eax
    1f18:	44 8b 74 24 f4       	mov    -0xc(%rsp),%r14d
    1f1d:	41 b8 02 00 00 00    	mov    $0x2,%r8d
    1f23:	89 c1                	mov    %eax,%ecx
    1f25:	83 e9 02             	sub    $0x2,%ecx
    1f28:	89 4c 24 ec          	mov    %ecx,-0x14(%rsp)
    1f2c:	0f 84 8f 07 00 00    	je     26c1 <riscv_dsp_cifft_rd2_f64+0x971>
    1f32:	b9 0a 00 00 00       	mov    $0xa,%ecx
    1f37:	4c 8d 25 f2 52 00 00 	lea    0x52f2(%rip),%r12        # 7230 <riscv_dsp_cos_table_f64_1024+0x10>
    1f3e:	41 bd 00 01 00 00    	mov    $0x100,%r13d
    1f44:	29 c1                	sub    %eax,%ecx
    1f46:	66 2e 0f 1f 84 00 00 	cs nopw 0x0(%rax,%rax,1)
    1f4d:	00 00 00 
    1f50:	41 d1 ee             	shr    %r14d
    1f53:	31 c0                	xor    %eax,%eax
    1f55:	31 d2                	xor    %edx,%edx
    1f57:	44 89 f7             	mov    %r14d,%edi
    1f5a:	4c 8d 0c fd 00 00 00 	lea    0x0(,%rdi,8),%r9
    1f61:	00 
    1f62:	48 89 fe             	mov    %rdi,%rsi
    1f65:	4f 8d 1c 0a          	lea    (%r10,%r9,1),%r11
    1f69:	48 c1 e6 04          	shl    $0x4,%rsi
    1f6d:	45 85 c0             	test   %r8d,%r8d
    1f70:	74 33                	je     1fa5 <riscv_dsp_cifft_rd2_f64+0x255>
    1f72:	66 0f 1f 44 00 00    	nopw   0x0(%rax,%rax,1)
    1f78:	66 41 0f 10 0c 03    	movupd (%r11,%rax,1),%xmm1
    1f7e:	66 41 0f 10 04 02    	movupd (%r10,%rax,1),%xmm0
    1f84:	83 c2 01             	add    $0x1,%edx
    1f87:	66 0f 28 d1          	movapd %xmm1,%xmm2
    1f8b:	66 0f 58 d0          	addpd  %xmm0,%xmm2
    1f8f:	66 0f 5c c1          	subpd  %xmm1,%xmm0
    1f93:	41 0f 11 14 02       	movups %xmm2,(%r10,%rax,1)
    1f98:	41 0f 11 04 03       	movups %xmm0,(%r11,%rax,1)
    1f9d:	48 01 f0             	add    %rsi,%rax
    1fa0:	41 39 d0             	cmp    %edx,%r8d
    1fa3:	75 d3                	jne    1f78 <riscv_dsp_cifft_rd2_f64+0x228>
    1fa5:	4d 39 df             	cmp    %r11,%r15
    1fa8:	0f 84 b0 00 00 00    	je     205e <riscv_dsp_cifft_rd2_f64+0x30e>
    1fae:	4b 8d 6c 0a 10       	lea    0x10(%r10,%r9,1),%rbp
    1fb3:	48 c1 e7 04          	shl    $0x4,%rdi
    1fb7:	4d 89 f9             	mov    %r15,%r9
    1fba:	31 db                	xor    %ebx,%ebx
    1fbc:	0f 1f 40 00          	nopl   0x0(%rax)
    1fc0:	44 01 c3             	add    %r8d,%ebx
    1fc3:	44 89 ea             	mov    %r13d,%edx
    1fc6:	89 d8                	mov    %ebx,%eax
    1fc8:	d3 e0                	shl    %cl,%eax
    1fca:	29 c2                	sub    %eax,%edx
    1fcc:	85 d2                	test   %edx,%edx
    1fce:	0f 8e 74 06 00 00    	jle    2648 <riscv_dsp_cifft_rd2_f64+0x8f8>
    1fd4:	48 98                	cltq   
    1fd6:	48 63 d2             	movslq %edx,%rdx
    1fd9:	f2 41 0f 10 1c c4    	movsd  (%r12,%rax,8),%xmm3
    1fdf:	f2 41 0f 10 24 d4    	movsd  (%r12,%rdx,8),%xmm4
    1fe5:	45 85 c0             	test   %r8d,%r8d
    1fe8:	74 63                	je     204d <riscv_dsp_cifft_rd2_f64+0x2fd>
    1fea:	66 0f 14 db          	unpcklpd %xmm3,%xmm3
    1fee:	66 0f 14 e4          	unpcklpd %xmm4,%xmm4
    1ff2:	4c 89 ca             	mov    %r9,%rdx
    1ff5:	48 89 e8             	mov    %rbp,%rax
    1ff8:	31 f6                	xor    %esi,%esi
    1ffa:	66 0f 1f 44 00 00    	nopw   0x0(%rax,%rax,1)
    2000:	66 0f 10 30          	movupd (%rax),%xmm6
    2004:	66 0f 10 02          	movupd (%rdx),%xmm0
    2008:	66 0f 28 cb          	movapd %xmm3,%xmm1
    200c:	83 c6 01             	add    $0x1,%esi
    200f:	66 0f 10 3a          	movupd (%rdx),%xmm7
    2013:	66 0f 5c c6          	subpd  %xmm6,%xmm0
    2017:	66 0f 28 d6          	movapd %xmm6,%xmm2
    201b:	66 0f 58 d7          	addpd  %xmm7,%xmm2
    201f:	66 0f 59 c8          	mulpd  %xmm0,%xmm1
    2023:	66 0f 59 c4          	mulpd  %xmm4,%xmm0
    2027:	0f 11 12             	movups %xmm2,(%rdx)
    202a:	48 01 fa             	add    %rdi,%rdx
    202d:	66 0f c6 c0 01       	shufpd $0x1,%xmm0,%xmm0
    2032:	66 0f 28 d0          	movapd %xmm0,%xmm2
    2036:	66 0f 58 d1          	addpd  %xmm1,%xmm2
    203a:	66 0f 5c c8          	subpd  %xmm0,%xmm1
    203e:	f2 0f 10 ca          	movsd  %xmm2,%xmm1
    2042:	0f 11 08             	movups %xmm1,(%rax)
    2045:	48 01 f8             	add    %rdi,%rax
    2048:	44 39 c6             	cmp    %r8d,%esi
    204b:	75 b3                	jne    2000 <riscv_dsp_cifft_rd2_f64+0x2b0>
    204d:	49 83 c1 10          	add    $0x10,%r9
    2051:	48 83 c5 10          	add    $0x10,%rbp
    2055:	4d 39 cb             	cmp    %r9,%r11
    2058:	0f 85 62 ff ff ff    	jne    1fc0 <riscv_dsp_cifft_rd2_f64+0x270>
    205e:	45 01 c0             	add    %r8d,%r8d
    2061:	83 6c 24 ec 01       	subl   $0x1,-0x14(%rsp)
    2066:	0f 85 e4 fe ff ff    	jne    1f50 <riscv_dsp_cifft_rd2_f64+0x200>
    206c:	8b 4c 24 f0          	mov    -0x10(%rsp),%ecx
    2070:	bb 02 00 00 00       	mov    $0x2,%ebx
    2075:	48 8d 05 84 5b 00 00 	lea    0x5b84(%rip),%rax        # 7c00 <riscv_dsp_recip_table_f64>
    207c:	8d 51 ff             	lea    -0x1(%rcx),%edx
    207f:	d3 e3                	shl    %cl,%ebx
    2081:	f2 0f 10 04 d0       	movsd  (%rax,%rdx,8),%xmm0
    2086:	48 89 d9             	mov    %rbx,%rcx
    2089:	48 c1 e1 03          	shl    $0x3,%rcx
    208d:	66 0f 14 c0          	unpcklpd %xmm0,%xmm0
    2091:	0f 84 05 03 00 00    	je     239c <riscv_dsp_cifft_rd2_f64+0x64c>
    2097:	48 8d 71 c0          	lea    -0x40(%rcx),%rsi
    209b:	4c 89 d0             	mov    %r10,%rax
    209e:	48 c1 ee 06          	shr    $0x6,%rsi
    20a2:	48 83 c6 01          	add    $0x1,%rsi
    20a6:	48 83 f9 40          	cmp    $0x40,%rcx
    20aa:	0f 84 53 02 00 00    	je     2303 <riscv_dsp_cifft_rd2_f64+0x5b3>
    20b0:	48 89 f2             	mov    %rsi,%rdx
    20b3:	66 0f 28 35 25 41 00 	movapd 0x4125(%rip),%xmm6        # 61e0 <_IO_stdin_used+0x1e0>
    20ba:	00 
    20bb:	48 d1 ea             	shr    %rdx
    20be:	48 c1 e2 07          	shl    $0x7,%rdx
    20c2:	4c 01 d2             	add    %r10,%rdx
    20c5:	66 44 0f 10 18       	movupd (%rax),%xmm11
    20ca:	66 44 0f 10 40 40    	movupd 0x40(%rax),%xmm8
    20d0:	48 83 e8 80          	sub    $0xffffffffffffff80,%rax
    20d4:	66 44 0f 10 50 a0    	movupd -0x60(%rax),%xmm10
    20da:	66 0f 10 78 e0       	movupd -0x20(%rax),%xmm7
    20df:	66 44 0f 16 58 90    	movhpd -0x70(%rax),%xmm11
    20e5:	66 44 0f 16 40 d0    	movhpd -0x30(%rax),%xmm8
    20eb:	66 0f 10 48 90       	movupd -0x70(%rax),%xmm1
    20f0:	66 0f 10 50 d0       	movupd -0x30(%rax),%xmm2
    20f5:	66 0f 12 48 88       	movlpd -0x78(%rax),%xmm1
    20fa:	66 0f 12 50 c8       	movlpd -0x38(%rax),%xmm2
    20ff:	66 0f 16 78 f0       	movhpd -0x10(%rax),%xmm7
    2104:	66 44 0f 16 50 b0    	movhpd -0x50(%rax),%xmm10
    210a:	66 44 0f 10 48 b0    	movupd -0x50(%rax),%xmm9
    2110:	66 0f 10 60 f0       	movupd -0x10(%rax),%xmm4
    2115:	66 41 0f 28 db       	movapd %xmm11,%xmm3
    211a:	66 45 0f 28 e0       	movapd %xmm8,%xmm12
    211f:	66 44 0f 12 48 a8    	movlpd -0x58(%rax),%xmm9
    2125:	66 0f 12 60 e8       	movlpd -0x18(%rax),%xmm4
    212a:	66 44 0f 14 e7       	unpcklpd %xmm7,%xmm12
    212f:	66 44 0f 15 c7       	unpckhpd %xmm7,%xmm8
    2134:	66 41 0f 14 da       	unpcklpd %xmm10,%xmm3
    2139:	66 45 0f 15 da       	unpckhpd %xmm10,%xmm11
    213e:	66 0f 28 f9          	movapd %xmm1,%xmm7
    2142:	66 44 0f 28 d1       	movapd %xmm1,%xmm10
    2147:	66 0f 28 ca          	movapd %xmm2,%xmm1
    214b:	66 0f 15 d4          	unpckhpd %xmm4,%xmm2
    214f:	66 0f 14 cc          	unpcklpd %xmm4,%xmm1
    2153:	66 45 0f 14 d1       	unpcklpd %xmm9,%xmm10
    2158:	66 0f 28 e3          	movapd %xmm3,%xmm4
    215c:	66 41 0f 15 f9       	unpckhpd %xmm9,%xmm7
    2161:	66 41 0f 14 e4       	unpcklpd %xmm12,%xmm4
    2166:	66 41 0f 15 dc       	unpckhpd %xmm12,%xmm3
    216b:	66 45 0f 28 e2       	movapd %xmm10,%xmm12
    2170:	66 44 0f 15 d1       	unpckhpd %xmm1,%xmm10
    2175:	66 45 0f 28 eb       	movapd %xmm11,%xmm13
    217a:	66 44 0f 14 e1       	unpcklpd %xmm1,%xmm12
    217f:	66 0f 28 cf          	movapd %xmm7,%xmm1
    2183:	66 45 0f 14 e8       	unpcklpd %xmm8,%xmm13
    2188:	66 0f 14 ca          	unpcklpd %xmm2,%xmm1
    218c:	66 45 0f 15 d8       	unpckhpd %xmm8,%xmm11
    2191:	66 0f 15 fa          	unpckhpd %xmm2,%xmm7
    2195:	66 44 0f 28 c9       	movapd %xmm1,%xmm9
    219a:	66 45 0f 28 c5       	movapd %xmm13,%xmm8
    219f:	66 41 0f 5c cc       	subpd  %xmm12,%xmm1
    21a4:	66 44 0f 57 ce       	xorpd  %xmm6,%xmm9
    21a9:	66 44 0f 58 c4       	addpd  %xmm4,%xmm8
    21ae:	66 41 0f 5c e5       	subpd  %xmm13,%xmm4
    21b3:	66 45 0f 5c cc       	subpd  %xmm12,%xmm9
    21b8:	66 45 0f 28 eb       	movapd %xmm11,%xmm13
    21bd:	66 44 0f 28 e7       	movapd %xmm7,%xmm12
    21c2:	66 44 0f 58 eb       	addpd  %xmm3,%xmm13
    21c7:	66 44 0f 57 e6       	xorpd  %xmm6,%xmm12
    21cc:	66 41 0f 5c db       	subpd  %xmm11,%xmm3
    21d1:	66 45 0f 5c e2       	subpd  %xmm10,%xmm12
    21d6:	66 41 0f 5c fa       	subpd  %xmm10,%xmm7
    21db:	66 44 0f 59 c0       	mulpd  %xmm0,%xmm8
    21e0:	66 44 0f 59 c8       	mulpd  %xmm0,%xmm9
    21e5:	66 0f 59 d8          	mulpd  %xmm0,%xmm3
    21e9:	66 44 0f 59 e0       	mulpd  %xmm0,%xmm12
    21ee:	66 0f 28 d7          	movapd %xmm7,%xmm2
    21f2:	66 0f 59 e0          	mulpd  %xmm0,%xmm4
    21f6:	66 44 0f 59 e8       	mulpd  %xmm0,%xmm13
    21fb:	66 0f 59 c8          	mulpd  %xmm0,%xmm1
    21ff:	66 41 0f 28 f9       	movapd %xmm9,%xmm7
    2204:	66 0f 59 d0          	mulpd  %xmm0,%xmm2
    2208:	66 44 0f 28 db       	movapd %xmm3,%xmm11
    220d:	66 41 0f 28 d8       	movapd %xmm8,%xmm3
    2212:	66 41 0f 14 fc       	unpcklpd %xmm12,%xmm7
    2217:	66 45 0f 15 cc       	unpckhpd %xmm12,%xmm9
    221c:	66 44 0f 28 e4       	movapd %xmm4,%xmm12
    2221:	66 41 0f 15 e3       	unpckhpd %xmm11,%xmm4
    2226:	66 41 0f 14 dd       	unpcklpd %xmm13,%xmm3
    222b:	66 45 0f 14 e3       	unpcklpd %xmm11,%xmm12
    2230:	66 45 0f 15 c5       	unpckhpd %xmm13,%xmm8
    2235:	66 44 0f 28 d9       	movapd %xmm1,%xmm11
    223a:	66 44 0f 28 d3       	movapd %xmm3,%xmm10
    223f:	66 41 0f 15 dc       	unpckhpd %xmm12,%xmm3
    2244:	66 44 0f 14 da       	unpcklpd %xmm2,%xmm11
    2249:	66 45 0f 14 d4       	unpcklpd %xmm12,%xmm10
    224e:	66 44 0f 28 e7       	movapd %xmm7,%xmm12
    2253:	66 0f 15 ca          	unpckhpd %xmm2,%xmm1
    2257:	66 45 0f 14 e3       	unpcklpd %xmm11,%xmm12
    225c:	66 41 0f 15 fb       	unpckhpd %xmm11,%xmm7
    2261:	66 45 0f 28 d9       	movapd %xmm9,%xmm11
    2266:	66 44 0f 15 c9       	unpckhpd %xmm1,%xmm9
    226b:	66 41 0f 28 d0       	movapd %xmm8,%xmm2
    2270:	66 44 0f 14 d9       	unpcklpd %xmm1,%xmm11
    2275:	66 41 0f 28 ca       	movapd %xmm10,%xmm1
    227a:	66 0f 14 d4          	unpcklpd %xmm4,%xmm2
    227e:	66 41 0f 14 cc       	unpcklpd %xmm12,%xmm1
    2283:	66 44 0f 15 c4       	unpckhpd %xmm4,%xmm8
    2288:	66 41 0f 28 e2       	movapd %xmm10,%xmm4
    228d:	0f 11 48 80          	movups %xmm1,-0x80(%rax)
    2291:	66 0f 28 cb          	movapd %xmm3,%xmm1
    2295:	66 41 0f 15 e4       	unpckhpd %xmm12,%xmm4
    229a:	66 0f 15 df          	unpckhpd %xmm7,%xmm3
    229e:	66 0f 14 cf          	unpcklpd %xmm7,%xmm1
    22a2:	0f 11 60 90          	movups %xmm4,-0x70(%rax)
    22a6:	0f 11 48 a0          	movups %xmm1,-0x60(%rax)
    22aa:	66 0f 28 ca          	movapd %xmm2,%xmm1
    22ae:	66 41 0f 15 d3       	unpckhpd %xmm11,%xmm2
    22b3:	66 41 0f 14 cb       	unpcklpd %xmm11,%xmm1
    22b8:	0f 11 58 b0          	movups %xmm3,-0x50(%rax)
    22bc:	0f 11 48 c0          	movups %xmm1,-0x40(%rax)
    22c0:	66 41 0f 28 c8       	movapd %xmm8,%xmm1
    22c5:	66 41 0f 14 c9       	unpcklpd %xmm9,%xmm1
    22ca:	0f 11 50 d0          	movups %xmm2,-0x30(%rax)
    22ce:	0f 11 48 e0          	movups %xmm1,-0x20(%rax)
    22d2:	66 41 0f 28 c8       	movapd %xmm8,%xmm1
    22d7:	66 41 0f 15 c9       	unpckhpd %xmm9,%xmm1
    22dc:	0f 11 48 f0          	movups %xmm1,-0x10(%rax)
    22e0:	48 39 d0             	cmp    %rdx,%rax
    22e3:	0f 85 dc fd ff ff    	jne    20c5 <riscv_dsp_cifft_rd2_f64+0x375>
    22e9:	48 89 f2             	mov    %rsi,%rdx
    22ec:	48 83 e2 fe          	and    $0xfffffffffffffffe,%rdx
    22f0:	48 89 d0             	mov    %rdx,%rax
    22f3:	48 c1 e0 06          	shl    $0x6,%rax
    22f7:	4c 01 d0             	add    %r10,%rax
    22fa:	48 39 f2             	cmp    %rsi,%rdx
    22fd:	0f 84 99 00 00 00    	je     239c <riscv_dsp_cifft_rd2_f64+0x64c>
    2303:	f2 0f 10 18          	movsd  (%rax),%xmm3
    2307:	f2 44 0f 10 48 18    	movsd  0x18(%rax),%xmm9
    230d:	66 44 0f 10 00       	movupd (%rax),%xmm8
    2312:	f2 0f 10 78 38       	movsd  0x38(%rax),%xmm7
    2317:	66 0f 28 e3          	movapd %xmm3,%xmm4
    231b:	66 41 0f 14 d9       	unpcklpd %xmm9,%xmm3
    2320:	66 41 0f 28 c9       	movapd %xmm9,%xmm1
    2325:	66 0f 10 70 20       	movupd 0x20(%rax),%xmm6
    232a:	66 44 0f 12 40 10    	movlpd 0x10(%rax),%xmm8
    2330:	66 0f 57 cd          	xorpd  %xmm5,%xmm1
    2334:	66 0f 57 ef          	xorpd  %xmm7,%xmm5
    2338:	66 41 0f 5c d8       	subpd  %xmm8,%xmm3
    233d:	66 0f 14 e1          	unpcklpd %xmm1,%xmm4
    2341:	f2 0f 10 48 20       	movsd  0x20(%rax),%xmm1
    2346:	66 0f 12 70 30       	movlpd 0x30(%rax),%xmm6
    234b:	66 0f 28 d1          	movapd %xmm1,%xmm2
    234f:	66 0f 14 cf          	unpcklpd %xmm7,%xmm1
    2353:	66 0f 59 d8          	mulpd  %xmm0,%xmm3
    2357:	66 0f 14 d5          	unpcklpd %xmm5,%xmm2
    235b:	66 41 0f 28 e8       	movapd %xmm8,%xmm5
    2360:	66 0f 58 ec          	addpd  %xmm4,%xmm5
    2364:	66 41 0f 5c e0       	subpd  %xmm8,%xmm4
    2369:	66 0f 5c ce          	subpd  %xmm6,%xmm1
    236d:	f2 0f 10 e5          	movsd  %xmm5,%xmm4
    2371:	0f 11 58 10          	movups %xmm3,0x10(%rax)
    2375:	66 0f 59 e0          	mulpd  %xmm0,%xmm4
    2379:	66 0f 28 de          	movapd %xmm6,%xmm3
    237d:	66 0f 58 da          	addpd  %xmm2,%xmm3
    2381:	66 0f 5c d6          	subpd  %xmm6,%xmm2
    2385:	66 0f 59 c8          	mulpd  %xmm0,%xmm1
    2389:	f2 0f 10 d3          	movsd  %xmm3,%xmm2
    238d:	66 0f 59 d0          	mulpd  %xmm0,%xmm2
    2391:	0f 11 20             	movups %xmm4,(%rax)
    2394:	0f 11 48 30          	movups %xmm1,0x30(%rax)
    2398:	0f 11 50 20          	movups %xmm2,0x20(%rax)
    239c:	8b 44 24 f4          	mov    -0xc(%rsp),%eax
    23a0:	49 8d 7c 0a f8       	lea    -0x8(%r10,%rcx,1),%rdi
    23a5:	be 04 00 00 00       	mov    $0x4,%esi
    23aa:	f2 41 0f 10 42 10    	movsd  0x10(%r10),%xmm0
    23b0:	41 bc fc ff ff ff    	mov    $0xfffffffc,%r12d
    23b6:	89 c1                	mov    %eax,%ecx
    23b8:	d1 e9                	shr    %ecx
    23ba:	41 89 c8             	mov    %ecx,%r8d
    23bd:	89 c1                	mov    %eax,%ecx
    23bf:	83 e0 fe             	and    $0xfffffffe,%eax
    23c2:	89 c2                	mov    %eax,%edx
    23c4:	83 c0 01             	add    $0x1,%eax
    23c7:	44 89 c3             	mov    %r8d,%ebx
    23ca:	49 8d 14 d2          	lea    (%r10,%rdx,8),%rdx
    23ce:	49 8d 04 c2          	lea    (%r10,%rax,8),%rax
    23d2:	f2 0f 10 0a          	movsd  (%rdx),%xmm1
    23d6:	f2 41 0f 11 4a 10    	movsd  %xmm1,0x10(%r10)
    23dc:	f2 0f 11 02          	movsd  %xmm0,(%rdx)
    23e0:	f2 0f 10 08          	movsd  (%rax),%xmm1
    23e4:	f2 41 0f 10 42 18    	movsd  0x18(%r10),%xmm0
    23ea:	f2 41 0f 11 4a 18    	movsd  %xmm1,0x18(%r10)
    23f0:	f2 0f 11 00          	movsd  %xmm0,(%rax)
    23f4:	89 c8                	mov    %ecx,%eax
    23f6:	c1 e9 02             	shr    $0x2,%ecx
    23f9:	31 cb                	xor    %ecx,%ebx
    23fb:	41 89 c9             	mov    %ecx,%r9d
    23fe:	89 c1                	mov    %eax,%ecx
    2400:	44 89 c0             	mov    %r8d,%eax
    2403:	c1 e9 03             	shr    $0x3,%ecx
    2406:	89 dd                	mov    %ebx,%ebp
    2408:	41 89 cb             	mov    %ecx,%r11d
    240b:	31 cd                	xor    %ecx,%ebp
    240d:	b9 04 00 00 00       	mov    $0x4,%ecx
    2412:	66 0f 1f 44 00 00    	nopw   0x0(%rax,%rax,1)
    2418:	31 d8                	xor    %ebx,%eax
    241a:	41 85 c1             	test   %eax,%r9d
    241d:	75 11                	jne    2430 <riscv_dsp_cifft_rd2_f64+0x6e0>
    241f:	44 89 ca             	mov    %r9d,%edx
    2422:	66 0f 1f 44 00 00    	nopw   0x0(%rax,%rax,1)
    2428:	d1 ea                	shr    %edx
    242a:	31 d0                	xor    %edx,%eax
    242c:	85 c2                	test   %eax,%edx
    242e:	74 f8                	je     2428 <riscv_dsp_cifft_rd2_f64+0x6d8>
    2430:	8d 56 fe             	lea    -0x2(%rsi),%edx
    2433:	39 c2                	cmp    %eax,%edx
    2435:	0f 83 9e 00 00 00    	jae    24d9 <riscv_dsp_cifft_rd2_f64+0x789>
    243b:	89 ca                	mov    %ecx,%edx
    243d:	44 8d 2c 00          	lea    (%rax,%rax,1),%r13d
    2441:	4d 8d 34 d2          	lea    (%r10,%rdx,8),%r14
    2445:	4c 89 ea             	mov    %r13,%rdx
    2448:	4f 8d 2c ea          	lea    (%r10,%r13,8),%r13
    244c:	f2 41 0f 10 06       	movsd  (%r14),%xmm0
    2451:	f2 41 0f 10 4d 00    	movsd  0x0(%r13),%xmm1
    2457:	83 c2 01             	add    $0x1,%edx
    245a:	49 8d 14 d2          	lea    (%r10,%rdx,8),%rdx
    245e:	f2 41 0f 11 0e       	movsd  %xmm1,(%r14)
    2463:	f2 41 0f 11 45 00    	movsd  %xmm0,0x0(%r13)
    2469:	44 8d 69 01          	lea    0x1(%rcx),%r13d
    246d:	f2 0f 10 0a          	movsd  (%rdx),%xmm1
    2471:	4f 8d 2c ea          	lea    (%r10,%r13,8),%r13
    2475:	f2 41 0f 10 45 00    	movsd  0x0(%r13),%xmm0
    247b:	f2 41 0f 11 4d 00    	movsd  %xmm1,0x0(%r13)
    2481:	41 89 cd             	mov    %ecx,%r13d
    2484:	41 f7 dd             	neg    %r13d
    2487:	f2 0f 11 02          	movsd  %xmm0,(%rdx)
    248b:	89 c2                	mov    %eax,%edx
    248d:	4d 63 ed             	movslq %r13d,%r13
    2490:	f7 da                	neg    %edx
    2492:	49 c1 e5 03          	shl    $0x3,%r13
    2496:	01 d2                	add    %edx,%edx
    2498:	4e 8d 34 2f          	lea    (%rdi,%r13,1),%r14
    249c:	4e 8d 6c 2f f8       	lea    -0x8(%rdi,%r13,1),%r13
    24a1:	48 63 d2             	movslq %edx,%rdx
    24a4:	f2 41 0f 10 06       	movsd  (%r14),%xmm0
    24a9:	48 c1 e2 03          	shl    $0x3,%rdx
    24ad:	4c 8d 3c 17          	lea    (%rdi,%rdx,1),%r15
    24b1:	48 8d 54 17 f8       	lea    -0x8(%rdi,%rdx,1),%rdx
    24b6:	f2 41 0f 10 0f       	movsd  (%r15),%xmm1
    24bb:	f2 41 0f 11 0e       	movsd  %xmm1,(%r14)
    24c0:	f2 41 0f 11 07       	movsd  %xmm0,(%r15)
    24c5:	f2 41 0f 10 45 00    	movsd  0x0(%r13),%xmm0
    24cb:	f2 0f 10 0a          	movsd  (%rdx),%xmm1
    24cf:	f2 41 0f 11 4d 00    	movsd  %xmm1,0x0(%r13)
    24d5:	f2 0f 11 02          	movsd  %xmm0,(%rdx)
    24d9:	8d 51 02             	lea    0x2(%rcx),%edx
    24dc:	44 01 c0             	add    %r8d,%eax
    24df:	4d 8d 2c d2          	lea    (%r10,%rdx,8),%r13
    24e3:	8d 14 00             	lea    (%rax,%rax,1),%edx
    24e6:	49 89 d6             	mov    %rdx,%r14
    24e9:	49 8d 14 d2          	lea    (%r10,%rdx,8),%rdx
    24ed:	f2 41 0f 10 45 00    	movsd  0x0(%r13),%xmm0
    24f3:	f2 0f 10 0a          	movsd  (%rdx),%xmm1
    24f7:	f2 41 0f 11 4d 00    	movsd  %xmm1,0x0(%r13)
    24fd:	f2 0f 11 02          	movsd  %xmm0,(%rdx)
    2501:	8d 51 03             	lea    0x3(%rcx),%edx
    2504:	4d 8d 2c d2          	lea    (%r10,%rdx,8),%r13
    2508:	41 8d 56 01          	lea    0x1(%r14),%edx
    250c:	49 8d 14 d2          	lea    (%r10,%rdx,8),%rdx
    2510:	f2 41 0f 10 45 00    	movsd  0x0(%r13),%xmm0
    2516:	f2 0f 10 0a          	movsd  (%rdx),%xmm1
    251a:	f2 41 0f 11 4d 00    	movsd  %xmm1,0x0(%r13)
    2520:	f2 0f 11 02          	movsd  %xmm0,(%rdx)
    2524:	44 39 c6             	cmp    %r8d,%esi
    2527:	0f 83 87 01 00 00    	jae    26b4 <riscv_dsp_cifft_rd2_f64+0x964>
    252d:	31 e8                	xor    %ebp,%eax
    252f:	41 85 c3             	test   %eax,%r11d
    2532:	75 14                	jne    2548 <riscv_dsp_cifft_rd2_f64+0x7f8>
    2534:	44 89 da             	mov    %r11d,%edx
    2537:	66 0f 1f 84 00 00 00 	nopw   0x0(%rax,%rax,1)
    253e:	00 00 
    2540:	d1 ea                	shr    %edx
    2542:	31 d0                	xor    %edx,%eax
    2544:	85 c2                	test   %eax,%edx
    2546:	74 f8                	je     2540 <riscv_dsp_cifft_rd2_f64+0x7f0>
    2548:	39 c6                	cmp    %eax,%esi
    254a:	0f 83 9f 00 00 00    	jae    25ef <riscv_dsp_cifft_rd2_f64+0x89f>
    2550:	8d 51 04             	lea    0x4(%rcx),%edx
    2553:	44 8d 2c 00          	lea    (%rax,%rax,1),%r13d
    2557:	4d 8d 34 d2          	lea    (%r10,%rdx,8),%r14
    255b:	4c 89 ea             	mov    %r13,%rdx
    255e:	4f 8d 2c ea          	lea    (%r10,%r13,8),%r13
    2562:	f2 41 0f 10 06       	movsd  (%r14),%xmm0
    2567:	f2 41 0f 10 4d 00    	movsd  0x0(%r13),%xmm1
    256d:	83 c2 01             	add    $0x1,%edx
    2570:	49 8d 14 d2          	lea    (%r10,%rdx,8),%rdx
    2574:	f2 41 0f 11 0e       	movsd  %xmm1,(%r14)
    2579:	f2 41 0f 11 45 00    	movsd  %xmm0,0x0(%r13)
    257f:	44 8d 69 05          	lea    0x5(%rcx),%r13d
    2583:	f2 0f 10 0a          	movsd  (%rdx),%xmm1
    2587:	4f 8d 2c ea          	lea    (%r10,%r13,8),%r13
    258b:	f2 41 0f 10 45 00    	movsd  0x0(%r13),%xmm0
    2591:	f2 41 0f 11 4d 00    	movsd  %xmm1,0x0(%r13)
    2597:	45 89 e5             	mov    %r12d,%r13d
    259a:	41 29 cd             	sub    %ecx,%r13d
    259d:	f2 0f 11 02          	movsd  %xmm0,(%rdx)
    25a1:	89 c2                	mov    %eax,%edx
    25a3:	4d 63 ed             	movslq %r13d,%r13
    25a6:	f7 da                	neg    %edx
    25a8:	49 c1 e5 03          	shl    $0x3,%r13
    25ac:	01 d2                	add    %edx,%edx
    25ae:	4e 8d 34 2f          	lea    (%rdi,%r13,1),%r14
    25b2:	4e 8d 6c 2f f8       	lea    -0x8(%rdi,%r13,1),%r13
    25b7:	48 63 d2             	movslq %edx,%rdx
    25ba:	f2 41 0f 10 06       	movsd  (%r14),%xmm0
    25bf:	48 c1 e2 03          	shl    $0x3,%rdx
    25c3:	4c 8d 3c 17          	lea    (%rdi,%rdx,1),%r15
    25c7:	48 8d 54 17 f8       	lea    -0x8(%rdi,%rdx,1),%rdx
    25cc:	f2 41 0f 10 0f       	movsd  (%r15),%xmm1
    25d1:	f2 41 0f 11 0e       	movsd  %xmm1,(%r14)
    25d6:	f2 41 0f 11 07       	movsd  %xmm0,(%r15)
    25db:	f2 41 0f 10 45 00    	movsd  0x0(%r13),%xmm0
    25e1:	f2 0f 10 0a          	movsd  (%rdx),%xmm1
    25e5:	f2 41 0f 11 4d 00    	movsd  %xmm1,0x0(%r13)
    25eb:	f2 0f 11 02          	movsd  %xmm0,(%rdx)
    25ef:	8d 51 06             	lea    0x6(%rcx),%edx
    25f2:	44 01 c0             	add    %r8d,%eax
    25f5:	83 c6 04             	add    $0x4,%esi
    25f8:	4d 8d 2c d2          	lea    (%r10,%rdx,8),%r13
    25fc:	8d 14 00             	lea    (%rax,%rax,1),%edx
    25ff:	49 89 d6             	mov    %rdx,%r14
    2602:	49 8d 14 d2          	lea    (%r10,%rdx,8),%rdx
    2606:	f2 41 0f 10 45 00    	movsd  0x0(%r13),%xmm0
    260c:	f2 0f 10 0a          	movsd  (%rdx),%xmm1
    2610:	f2 41 0f 11 4d 00    	movsd  %xmm1,0x0(%r13)
    2616:	f2 0f 11 02          	movsd  %xmm0,(%rdx)
    261a:	8d 51 07             	lea    0x7(%rcx),%edx
    261d:	83 c1 08             	add    $0x8,%ecx
    2620:	4d 8d 2c d2          	lea    (%r10,%rdx,8),%r13
    2624:	41 8d 56 01          	lea    0x1(%r14),%edx
    2628:	49 8d 14 d2          	lea    (%r10,%rdx,8),%rdx
    262c:	f2 41 0f 10 45 00    	movsd  0x0(%r13),%xmm0
    2632:	f2 0f 10 0a          	movsd  (%rdx),%xmm1
    2636:	f2 41 0f 11 4d 00    	movsd  %xmm1,0x0(%r13)
    263c:	f2 0f 11 02          	movsd  %xmm0,(%rdx)
    2640:	e9 d3 fd ff ff       	jmp    2418 <riscv_dsp_cifft_rd2_f64+0x6c8>
    2645:	0f 1f 00             	nopl   (%rax)
    2648:	8d 90 00 ff ff ff    	lea    -0x100(%rax),%edx
    264e:	44 89 ee             	mov    %r13d,%esi
    2651:	29 d6                	sub    %edx,%esi
    2653:	85 f6                	test   %esi,%esi
    2655:	7e 21                	jle    2678 <riscv_dsp_cifft_rd2_f64+0x928>
    2657:	48 63 f6             	movslq %esi,%rsi
    265a:	48 63 d2             	movslq %edx,%rdx
    265d:	f2 41 0f 10 1c f4    	movsd  (%r12,%rsi,8),%xmm3
    2663:	f2 41 0f 10 24 d4    	movsd  (%r12,%rdx,8),%xmm4
    2669:	66 0f 57 dd          	xorpd  %xmm5,%xmm3
    266d:	e9 73 f9 ff ff       	jmp    1fe5 <riscv_dsp_cifft_rd2_f64+0x295>
    2672:	66 0f 1f 44 00 00    	nopw   0x0(%rax,%rax,1)
    2678:	2d 00 02 00 00       	sub    $0x200,%eax
    267d:	44 89 ea             	mov    %r13d,%edx
    2680:	29 c2                	sub    %eax,%edx
    2682:	48 98                	cltq   
    2684:	f2 41 0f 10 24 c4    	movsd  (%r12,%rax,8),%xmm4
    268a:	48 63 f2             	movslq %edx,%rsi
    268d:	f2 41 0f 10 1c f4    	movsd  (%r12,%rsi,8),%xmm3
    2693:	66 0f 57 e5          	xorpd  %xmm5,%xmm4
    2697:	85 d2                	test   %edx,%edx
    2699:	0f 8e 46 f9 ff ff    	jle    1fe5 <riscv_dsp_cifft_rd2_f64+0x295>
    269f:	66 0f 57 dd          	xorpd  %xmm5,%xmm3
    26a3:	66 0f 28 c3          	movapd %xmm3,%xmm0
    26a7:	66 0f 28 dc          	movapd %xmm4,%xmm3
    26ab:	66 0f 28 e0          	movapd %xmm0,%xmm4
    26af:	e9 31 f9 ff ff       	jmp    1fe5 <riscv_dsp_cifft_rd2_f64+0x295>
    26b4:	5b                   	pop    %rbx
    26b5:	31 c0                	xor    %eax,%eax
    26b7:	5d                   	pop    %rbp
    26b8:	41 5c                	pop    %r12
    26ba:	41 5d                	pop    %r13
    26bc:	41 5e                	pop    %r14
    26be:	41 5f                	pop    %r15
    26c0:	c3                   	ret    
    26c1:	f2 0f 10 05 3f 55 00 	movsd  0x553f(%rip),%xmm0        # 7c08 <riscv_dsp_recip_table_f64+0x8>
    26c8:	00 
    26c9:	4c 89 d0             	mov    %r10,%rax
    26cc:	b9 40 00 00 00       	mov    $0x40,%ecx
    26d1:	66 0f 14 c0          	unpcklpd %xmm0,%xmm0
    26d5:	e9 29 fc ff ff       	jmp    2303 <riscv_dsp_cifft_rd2_f64+0x5b3>
    26da:	66 0f 1f 44 00 00    	nopw   0x0(%rax,%rax,1)

00000000000026e0 <riscv_dsp_cfft_rd4_f64>:
    26e0:	f3 0f 1e fa          	endbr64 
    26e4:	41 57                	push   %r15
    26e6:	89 f1                	mov    %esi,%ecx
    26e8:	b8 01 00 00 00       	mov    $0x1,%eax
    26ed:	49 89 ff             	mov    %rdi,%r15
    26f0:	41 56                	push   %r14
    26f2:	d3 e0                	shl    %cl,%eax
    26f4:	41 55                	push   %r13
    26f6:	41 54                	push   %r12
    26f8:	55                   	push   %rbp
    26f9:	53                   	push   %rbx
    26fa:	f2 0f 10 07          	movsd  (%rdi),%xmm0
    26fe:	f2 0f 10 6f 08       	movsd  0x8(%rdi),%xmm5
    2703:	66 0f 28 d8          	movapd %xmm0,%xmm3
    2707:	89 44 24 f0          	mov    %eax,-0x10(%rsp)
    270b:	d1 e8                	shr    %eax
    270d:	89 74 24 e8          	mov    %esi,-0x18(%rsp)
    2711:	89 c6                	mov    %eax,%esi
    2713:	48 c1 e6 03          	shl    $0x3,%rsi
    2717:	89 44 24 f4          	mov    %eax,-0xc(%rsp)
    271b:	4c 8d 1c 37          	lea    (%rdi,%rsi,1),%r11
    271f:	49 8d 04 33          	lea    (%r11,%rsi,1),%rax
    2723:	f2 0f 10 08          	movsd  (%rax),%xmm1
    2727:	48 8d 14 30          	lea    (%rax,%rsi,1),%rdx
    272b:	f2 0f 10 12          	movsd  (%rdx),%xmm2
    272f:	f2 0f 58 d9          	addsd  %xmm1,%xmm3
    2733:	f2 0f 5c c1          	subsd  %xmm1,%xmm0
    2737:	f2 41 0f 10 0b       	movsd  (%r11),%xmm1
    273c:	66 0f 28 f9          	movapd %xmm1,%xmm7
    2740:	66 0f 28 e1          	movapd %xmm1,%xmm4
    2744:	f2 0f 58 fa          	addsd  %xmm2,%xmm7
    2748:	66 0f 28 cb          	movapd %xmm3,%xmm1
    274c:	f2 0f 5c e2          	subsd  %xmm2,%xmm4
    2750:	66 0f 28 d5          	movapd %xmm5,%xmm2
    2754:	f2 0f 58 cf          	addsd  %xmm7,%xmm1
    2758:	f2 0f 5c df          	subsd  %xmm7,%xmm3
    275c:	f2 0f 11 0f          	movsd  %xmm1,(%rdi)
    2760:	f2 0f 10 48 08       	movsd  0x8(%rax),%xmm1
    2765:	f2 44 0f 10 42 08    	movsd  0x8(%rdx),%xmm8
    276b:	f2 0f 58 d1          	addsd  %xmm1,%xmm2
    276f:	f2 0f 5c e9          	subsd  %xmm1,%xmm5
    2773:	f2 41 0f 10 4b 08    	movsd  0x8(%r11),%xmm1
    2779:	66 0f 28 f1          	movapd %xmm1,%xmm6
    277d:	f2 41 0f 5c c8       	subsd  %xmm8,%xmm1
    2782:	f2 41 0f 58 f0       	addsd  %xmm8,%xmm6
    2787:	66 44 0f 28 c2       	movapd %xmm2,%xmm8
    278c:	f2 44 0f 58 c6       	addsd  %xmm6,%xmm8
    2791:	f2 0f 5c d6          	subsd  %xmm6,%xmm2
    2795:	f2 44 0f 11 47 08    	movsd  %xmm8,0x8(%rdi)
    279b:	f2 41 0f 11 53 08    	movsd  %xmm2,0x8(%r11)
    27a1:	66 0f 28 d0          	movapd %xmm0,%xmm2
    27a5:	f2 0f 5c c1          	subsd  %xmm1,%xmm0
    27a9:	f2 0f 58 d1          	addsd  %xmm1,%xmm2
    27ad:	f2 41 0f 11 1b       	movsd  %xmm3,(%r11)
    27b2:	f2 0f 11 10          	movsd  %xmm2,(%rax)
    27b6:	66 0f 28 d5          	movapd %xmm5,%xmm2
    27ba:	f2 0f 5c d4          	subsd  %xmm4,%xmm2
    27be:	f2 0f 58 e5          	addsd  %xmm5,%xmm4
    27c2:	f2 0f 11 50 08       	movsd  %xmm2,0x8(%rax)
    27c7:	66 0f 14 c4          	unpcklpd %xmm4,%xmm0
    27cb:	48 8d 47 10          	lea    0x10(%rdi),%rax
    27cf:	48 89 44 24 d8       	mov    %rax,-0x28(%rsp)
    27d4:	0f 11 02             	movups %xmm0,(%rdx)
    27d7:	49 39 c3             	cmp    %rax,%r11
    27da:	0f 84 60 03 00 00    	je     2b40 <riscv_dsp_cfft_rd4_f64+0x460>
    27e0:	f3 0f 7e 15 e8 39 00 	movq   0x39e8(%rip),%xmm2        # 61d0 <_IO_stdin_used+0x1d0>
    27e7:	00 
    27e8:	b9 0a 00 00 00       	mov    $0xa,%ecx
    27ed:	48 8d 54 77 10       	lea    0x10(%rdi,%rsi,2),%rdx
    27f2:	45 31 c9             	xor    %r9d,%r9d
    27f5:	2b 4c 24 e8          	sub    -0x18(%rsp),%ecx
    27f9:	4c 8d 05 30 4a 00 00 	lea    0x4a30(%rip),%r8        # 7230 <riscv_dsp_cos_table_f64_1024+0x10>
    2800:	41 ba 00 01 00 00    	mov    $0x100,%r10d
    2806:	66 0f 28 fa          	movapd %xmm2,%xmm7
    280a:	66 0f 28 f2          	movapd %xmm2,%xmm6
    280e:	66 0f 28 ea          	movapd %xmm2,%xmm5
    2812:	66 0f 28 e2          	movapd %xmm2,%xmm4
    2816:	66 0f 28 da          	movapd %xmm2,%xmm3
    281a:	e9 2b 01 00 00       	jmp    294a <riscv_dsp_cfft_rd4_f64+0x26a>
    281f:	48 63 ff             	movslq %edi,%rdi
    2822:	48 63 db             	movslq %ebx,%rbx
    2825:	f2 45 0f 10 34 f8    	movsd  (%r8,%rdi,8),%xmm14
    282b:	f2 45 0f 10 2c d8    	movsd  (%r8,%rbx,8),%xmm13
    2831:	66 45 0f 28 e1       	movapd %xmm9,%xmm12
    2836:	66 44 0f 28 f8       	movapd %xmm0,%xmm15
    283b:	44 89 cf             	mov    %r9d,%edi
    283e:	44 89 d3             	mov    %r10d,%ebx
    2841:	f2 45 0f 59 cd       	mulsd  %xmm13,%xmm9
    2846:	d3 e7                	shl    %cl,%edi
    2848:	f2 41 0f 59 c6       	mulsd  %xmm14,%xmm0
    284d:	29 fb                	sub    %edi,%ebx
    284f:	f2 45 0f 59 e6       	mulsd  %xmm14,%xmm12
    2854:	f2 45 0f 59 fd       	mulsd  %xmm13,%xmm15
    2859:	f2 41 0f 5c c1       	subsd  %xmm9,%xmm0
    285e:	f2 45 0f 58 e7       	addsd  %xmm15,%xmm12
    2863:	f2 0f 11 44 30 08    	movsd  %xmm0,0x8(%rax,%rsi,1)
    2869:	66 41 0f 28 c2       	movapd %xmm10,%xmm0
    286e:	f2 0f 5c c1          	subsd  %xmm1,%xmm0
    2872:	f2 41 0f 58 ca       	addsd  %xmm10,%xmm1
    2877:	f2 44 0f 11 24 30    	movsd  %xmm12,(%rax,%rsi,1)
    287d:	66 45 0f 28 e0       	movapd %xmm8,%xmm12
    2882:	f2 45 0f 5c c3       	subsd  %xmm11,%xmm8
    2887:	f2 45 0f 58 e3       	addsd  %xmm11,%xmm12
    288c:	66 44 0f 28 c9       	movapd %xmm1,%xmm9
    2891:	66 45 0f 14 c8       	unpcklpd %xmm8,%xmm9
    2896:	66 44 0f 14 c1       	unpcklpd %xmm1,%xmm8
    289b:	85 db                	test   %ebx,%ebx
    289d:	0f 8e a9 01 00 00    	jle    2a4c <riscv_dsp_cfft_rd4_f64+0x36c>
    28a3:	48 63 ff             	movslq %edi,%rdi
    28a6:	48 63 db             	movslq %ebx,%rbx
    28a9:	f2 45 0f 10 14 f8    	movsd  (%r8,%rdi,8),%xmm10
    28af:	f2 45 0f 10 1c d8    	movsd  (%r8,%rbx,8),%xmm11
    28b5:	66 44 0f 28 e8       	movapd %xmm0,%xmm13
    28ba:	66 41 0f 28 cc       	movapd %xmm12,%xmm1
    28bf:	43 8d 3c 49          	lea    (%r9,%r9,2),%edi
    28c3:	44 89 d3             	mov    %r10d,%ebx
    28c6:	f2 41 0f 59 ca       	mulsd  %xmm10,%xmm1
    28cb:	d3 e7                	shl    %cl,%edi
    28cd:	f2 45 0f 59 eb       	mulsd  %xmm11,%xmm13
    28d2:	29 fb                	sub    %edi,%ebx
    28d4:	f2 41 0f 59 c2       	mulsd  %xmm10,%xmm0
    28d9:	f2 41 0f 58 cd       	addsd  %xmm13,%xmm1
    28de:	f2 0f 11 0a          	movsd  %xmm1,(%rdx)
    28e2:	66 41 0f 28 cc       	movapd %xmm12,%xmm1
    28e7:	f2 41 0f 59 cb       	mulsd  %xmm11,%xmm1
    28ec:	f2 0f 5c c1          	subsd  %xmm1,%xmm0
    28f0:	f2 0f 11 42 08       	movsd  %xmm0,0x8(%rdx)
    28f5:	85 db                	test   %ebx,%ebx
    28f7:	0f 8e 21 01 00 00    	jle    2a1e <riscv_dsp_cfft_rd4_f64+0x33e>
    28fd:	48 63 ff             	movslq %edi,%rdi
    2900:	48 63 db             	movslq %ebx,%rbx
    2903:	f2 41 0f 10 04 f8    	movsd  (%r8,%rdi,8),%xmm0
    2909:	f2 41 0f 10 0c d8    	movsd  (%r8,%rbx,8),%xmm1
    290f:	66 0f 14 c9          	unpcklpd %xmm1,%xmm1
    2913:	66 0f 14 c0          	unpcklpd %xmm0,%xmm0
    2917:	48 83 c0 10          	add    $0x10,%rax
    291b:	48 83 c2 10          	add    $0x10,%rdx
    291f:	66 41 0f 59 c9       	mulpd  %xmm9,%xmm1
    2924:	66 41 0f 59 c0       	mulpd  %xmm8,%xmm0
    2929:	66 44 0f 28 c1       	movapd %xmm1,%xmm8
    292e:	66 44 0f 58 c0       	addpd  %xmm0,%xmm8
    2933:	66 0f 5c c1          	subpd  %xmm1,%xmm0
    2937:	f2 41 0f 10 c0       	movsd  %xmm8,%xmm0
    293c:	0f 11 44 32 f0       	movups %xmm0,-0x10(%rdx,%rsi,1)
    2941:	49 39 c3             	cmp    %rax,%r11
    2944:	0f 84 f6 01 00 00    	je     2b40 <riscv_dsp_cfft_rd4_f64+0x460>
    294a:	f2 44 0f 10 00       	movsd  (%rax),%xmm8
    294f:	f2 0f 10 02          	movsd  (%rdx),%xmm0
    2953:	41 83 c1 01          	add    $0x1,%r9d
    2957:	44 89 d3             	mov    %r10d,%ebx
    295a:	f2 0f 10 0c 30       	movsd  (%rax,%rsi,1),%xmm1
    295f:	f2 44 0f 10 14 32    	movsd  (%rdx,%rsi,1),%xmm10
    2965:	43 8d 3c 09          	lea    (%r9,%r9,1),%edi
    2969:	66 45 0f 28 c8       	movapd %xmm8,%xmm9
    296e:	f2 44 0f 5c c0       	subsd  %xmm0,%xmm8
    2973:	d3 e7                	shl    %cl,%edi
    2975:	f2 44 0f 58 c8       	addsd  %xmm0,%xmm9
    297a:	66 0f 28 c1          	movapd %xmm1,%xmm0
    297e:	f2 41 0f 5c ca       	subsd  %xmm10,%xmm1
    2983:	29 fb                	sub    %edi,%ebx
    2985:	f2 41 0f 58 c2       	addsd  %xmm10,%xmm0
    298a:	66 45 0f 28 d1       	movapd %xmm9,%xmm10
    298f:	f2 44 0f 58 d0       	addsd  %xmm0,%xmm10
    2994:	f2 44 0f 5c c8       	subsd  %xmm0,%xmm9
    2999:	f2 44 0f 11 10       	movsd  %xmm10,(%rax)
    299e:	f2 44 0f 10 50 08    	movsd  0x8(%rax),%xmm10
    29a4:	f2 44 0f 10 5a 08    	movsd  0x8(%rdx),%xmm11
    29aa:	f2 44 0f 10 6c 32 08 	movsd  0x8(%rdx,%rsi,1),%xmm13
    29b1:	66 41 0f 28 c2       	movapd %xmm10,%xmm0
    29b6:	f2 45 0f 5c d3       	subsd  %xmm11,%xmm10
    29bb:	f2 41 0f 58 c3       	addsd  %xmm11,%xmm0
    29c0:	f2 44 0f 10 5c 30 08 	movsd  0x8(%rax,%rsi,1),%xmm11
    29c7:	66 45 0f 28 e3       	movapd %xmm11,%xmm12
    29cc:	f2 45 0f 5c dd       	subsd  %xmm13,%xmm11
    29d1:	f2 45 0f 58 e5       	addsd  %xmm13,%xmm12
    29d6:	66 44 0f 28 e8       	movapd %xmm0,%xmm13
    29db:	f2 45 0f 58 ec       	addsd  %xmm12,%xmm13
    29e0:	f2 41 0f 5c c4       	subsd  %xmm12,%xmm0
    29e5:	f2 44 0f 11 68 08    	movsd  %xmm13,0x8(%rax)
    29eb:	85 db                	test   %ebx,%ebx
    29ed:	0f 8f 2c fe ff ff    	jg     281f <riscv_dsp_cfft_rd4_f64+0x13f>
    29f3:	8d 9f 00 ff ff ff    	lea    -0x100(%rdi),%ebx
    29f9:	44 89 d5             	mov    %r10d,%ebp
    29fc:	29 dd                	sub    %ebx,%ebp
    29fe:	85 ed                	test   %ebp,%ebp
    2a00:	7e 79                	jle    2a7b <riscv_dsp_cfft_rd4_f64+0x39b>
    2a02:	48 63 ed             	movslq %ebp,%rbp
    2a05:	48 63 db             	movslq %ebx,%rbx
    2a08:	f2 45 0f 10 34 e8    	movsd  (%r8,%rbp,8),%xmm14
    2a0e:	f2 45 0f 10 2c d8    	movsd  (%r8,%rbx,8),%xmm13
    2a14:	66 44 0f 57 f7       	xorpd  %xmm7,%xmm14
    2a19:	e9 13 fe ff ff       	jmp    2831 <riscv_dsp_cfft_rd4_f64+0x151>
    2a1e:	8d 9f 00 ff ff ff    	lea    -0x100(%rdi),%ebx
    2a24:	44 89 d5             	mov    %r10d,%ebp
    2a27:	29 dd                	sub    %ebx,%ebp
    2a29:	85 ed                	test   %ebp,%ebp
    2a2b:	0f 8e 8d 00 00 00    	jle    2abe <riscv_dsp_cfft_rd4_f64+0x3de>
    2a31:	48 63 ed             	movslq %ebp,%rbp
    2a34:	48 63 db             	movslq %ebx,%rbx
    2a37:	f2 41 0f 10 04 e8    	movsd  (%r8,%rbp,8),%xmm0
    2a3d:	f2 41 0f 10 0c d8    	movsd  (%r8,%rbx,8),%xmm1
    2a43:	66 0f 57 c3          	xorpd  %xmm3,%xmm0
    2a47:	e9 c3 fe ff ff       	jmp    290f <riscv_dsp_cfft_rd4_f64+0x22f>
    2a4c:	8d 9f 00 ff ff ff    	lea    -0x100(%rdi),%ebx
    2a52:	44 89 d5             	mov    %r10d,%ebp
    2a55:	29 dd                	sub    %ebx,%ebp
    2a57:	85 ed                	test   %ebp,%ebp
    2a59:	0f 8e 9f 00 00 00    	jle    2afe <riscv_dsp_cfft_rd4_f64+0x41e>
    2a5f:	48 63 ed             	movslq %ebp,%rbp
    2a62:	48 63 db             	movslq %ebx,%rbx
    2a65:	f2 45 0f 10 14 e8    	movsd  (%r8,%rbp,8),%xmm10
    2a6b:	f2 45 0f 10 1c d8    	movsd  (%r8,%rbx,8),%xmm11
    2a71:	66 44 0f 57 d5       	xorpd  %xmm5,%xmm10
    2a76:	e9 3a fe ff ff       	jmp    28b5 <riscv_dsp_cfft_rd4_f64+0x1d5>
    2a7b:	81 ef 00 02 00 00    	sub    $0x200,%edi
    2a81:	44 89 d3             	mov    %r10d,%ebx
    2a84:	29 fb                	sub    %edi,%ebx
    2a86:	48 63 ff             	movslq %edi,%rdi
    2a89:	f2 45 0f 10 2c f8    	movsd  (%r8,%rdi,8),%xmm13
    2a8f:	48 63 eb             	movslq %ebx,%rbp
    2a92:	f2 45 0f 10 34 e8    	movsd  (%r8,%rbp,8),%xmm14
    2a98:	66 44 0f 57 ea       	xorpd  %xmm2,%xmm13
    2a9d:	85 db                	test   %ebx,%ebx
    2a9f:	0f 8e 8c fd ff ff    	jle    2831 <riscv_dsp_cfft_rd4_f64+0x151>
    2aa5:	66 44 0f 57 f2       	xorpd  %xmm2,%xmm14
    2aaa:	66 45 0f 28 e6       	movapd %xmm14,%xmm12
    2aaf:	66 45 0f 28 f5       	movapd %xmm13,%xmm14
    2ab4:	66 45 0f 28 ec       	movapd %xmm12,%xmm13
    2ab9:	e9 73 fd ff ff       	jmp    2831 <riscv_dsp_cfft_rd4_f64+0x151>
    2abe:	81 ef 00 02 00 00    	sub    $0x200,%edi
    2ac4:	44 89 d3             	mov    %r10d,%ebx
    2ac7:	29 fb                	sub    %edi,%ebx
    2ac9:	48 63 ff             	movslq %edi,%rdi
    2acc:	f2 41 0f 10 0c f8    	movsd  (%r8,%rdi,8),%xmm1
    2ad2:	48 63 eb             	movslq %ebx,%rbp
    2ad5:	f2 41 0f 10 04 e8    	movsd  (%r8,%rbp,8),%xmm0
    2adb:	66 0f 57 cc          	xorpd  %xmm4,%xmm1
    2adf:	85 db                	test   %ebx,%ebx
    2ae1:	0f 8e 28 fe ff ff    	jle    290f <riscv_dsp_cfft_rd4_f64+0x22f>
    2ae7:	66 0f 57 c4          	xorpd  %xmm4,%xmm0
    2aeb:	66 44 0f 28 d0       	movapd %xmm0,%xmm10
    2af0:	66 0f 28 c1          	movapd %xmm1,%xmm0
    2af4:	66 41 0f 28 ca       	movapd %xmm10,%xmm1
    2af9:	e9 11 fe ff ff       	jmp    290f <riscv_dsp_cfft_rd4_f64+0x22f>
    2afe:	81 ef 00 02 00 00    	sub    $0x200,%edi
    2b04:	44 89 d3             	mov    %r10d,%ebx
    2b07:	29 fb                	sub    %edi,%ebx
    2b09:	48 63 ff             	movslq %edi,%rdi
    2b0c:	f2 45 0f 10 1c f8    	movsd  (%r8,%rdi,8),%xmm11
    2b12:	48 63 eb             	movslq %ebx,%rbp
    2b15:	f2 45 0f 10 14 e8    	movsd  (%r8,%rbp,8),%xmm10
    2b1b:	66 44 0f 57 de       	xorpd  %xmm6,%xmm11
    2b20:	85 db                	test   %ebx,%ebx
    2b22:	0f 8e 8d fd ff ff    	jle    28b5 <riscv_dsp_cfft_rd4_f64+0x1d5>
    2b28:	66 41 0f 28 ca       	movapd %xmm10,%xmm1
    2b2d:	66 45 0f 28 d3       	movapd %xmm11,%xmm10
    2b32:	66 0f 57 ce          	xorpd  %xmm6,%xmm1
    2b36:	66 44 0f 28 d9       	movapd %xmm1,%xmm11
    2b3b:	e9 75 fd ff ff       	jmp    28b5 <riscv_dsp_cfft_rd4_f64+0x1d5>
    2b40:	8b 44 24 e8          	mov    -0x18(%rsp),%eax
    2b44:	8b 5c 24 f4          	mov    -0xc(%rsp),%ebx
    2b48:	41 bd 04 00 00 00    	mov    $0x4,%r13d
    2b4e:	d1 e8                	shr    %eax
    2b50:	89 5c 24 d4          	mov    %ebx,-0x2c(%rsp)
    2b54:	83 e8 02             	sub    $0x2,%eax
    2b57:	89 44 24 ec          	mov    %eax,-0x14(%rsp)
    2b5b:	0f 84 9e 04 00 00    	je     2fff <riscv_dsp_cfft_rd4_f64+0x91f>
    2b61:	4d 89 fe             	mov    %r15,%r14
    2b64:	0f 1f 40 00          	nopl   0x0(%rax)
    2b68:	c1 6c 24 d4 02       	shrl   $0x2,-0x2c(%rsp)
    2b6d:	44 8b 44 24 d4       	mov    -0x2c(%rsp),%r8d
    2b72:	4a 8d 14 c5 00 00 00 	lea    0x0(,%r8,8),%rdx
    2b79:	00 
    2b7a:	4d 8d 24 16          	lea    (%r14,%rdx,1),%r12
    2b7e:	45 85 ed             	test   %r13d,%r13d
    2b81:	0f 84 bb 00 00 00    	je     2c42 <riscv_dsp_cfft_rd4_f64+0x562>
    2b87:	49 8d 46 08          	lea    0x8(%r14),%rax
    2b8b:	4c 89 c1             	mov    %r8,%rcx
    2b8e:	49 8d 3c 14          	lea    (%r12,%rdx,1),%rdi
    2b92:	48 c1 e1 04          	shl    $0x4,%rcx
    2b96:	49 39 c4             	cmp    %rax,%r12
    2b99:	4c 8d 0c 17          	lea    (%rdi,%rdx,1),%r9
    2b9d:	41 0f 97 c2          	seta   %r10b
    2ba1:	48 39 f8             	cmp    %rdi,%rax
    2ba4:	40 0f 92 c6          	setb   %sil
    2ba8:	41 84 f2             	test   %sil,%r10b
    2bab:	0f 84 84 0b 00 00    	je     3735 <riscv_dsp_cfft_rd4_f64+0x1055>
    2bb1:	4c 39 c8             	cmp    %r9,%rax
    2bb4:	0f 83 7b 0b 00 00    	jae    3735 <riscv_dsp_cfft_rd4_f64+0x1055>
    2bba:	4c 89 c6             	mov    %r8,%rsi
    2bbd:	31 c0                	xor    %eax,%eax
    2bbf:	31 c9                	xor    %ecx,%ecx
    2bc1:	48 c1 e6 05          	shl    $0x5,%rsi
    2bc5:	0f 1f 00             	nopl   (%rax)
    2bc8:	66 0f 10 34 07       	movupd (%rdi,%rax,1),%xmm6
    2bcd:	66 41 0f 10 2c 01    	movupd (%r9,%rax,1),%xmm5
    2bd3:	83 c1 01             	add    $0x1,%ecx
    2bd6:	66 41 0f 10 14 06    	movupd (%r14,%rax,1),%xmm2
    2bdc:	66 41 0f 10 04 04    	movupd (%r12,%rax,1),%xmm0
    2be2:	66 41 0f 10 0c 06    	movupd (%r14,%rax,1),%xmm1
    2be8:	66 41 0f 10 24 04    	movupd (%r12,%rax,1),%xmm4
    2bee:	66 0f 5c d6          	subpd  %xmm6,%xmm2
    2bf2:	66 0f 5c c5          	subpd  %xmm5,%xmm0
    2bf6:	66 0f 58 ce          	addpd  %xmm6,%xmm1
    2bfa:	66 0f 58 e5          	addpd  %xmm5,%xmm4
    2bfe:	66 0f c6 c0 01       	shufpd $0x1,%xmm0,%xmm0
    2c03:	66 0f 28 da          	movapd %xmm2,%xmm3
    2c07:	66 0f 5c d0          	subpd  %xmm0,%xmm2
    2c0b:	66 0f 58 d8          	addpd  %xmm0,%xmm3
    2c0f:	66 0f 28 c1          	movapd %xmm1,%xmm0
    2c13:	66 0f 5c cc          	subpd  %xmm4,%xmm1
    2c17:	66 0f 58 c4          	addpd  %xmm4,%xmm0
    2c1b:	66 0f 28 fa          	movapd %xmm2,%xmm7
    2c1f:	f2 0f 10 fb          	movsd  %xmm3,%xmm7
    2c23:	f2 0f 10 da          	movsd  %xmm2,%xmm3
    2c27:	41 0f 11 04 06       	movups %xmm0,(%r14,%rax,1)
    2c2c:	41 0f 11 0c 04       	movups %xmm1,(%r12,%rax,1)
    2c31:	0f 11 3c 07          	movups %xmm7,(%rdi,%rax,1)
    2c35:	41 0f 11 1c 01       	movups %xmm3,(%r9,%rax,1)
    2c3a:	48 01 f0             	add    %rsi,%rax
    2c3d:	41 39 cd             	cmp    %ecx,%r13d
    2c40:	75 86                	jne    2bc8 <riscv_dsp_cfft_rd4_f64+0x4e8>
    2c42:	4c 39 64 24 d8       	cmp    %r12,-0x28(%rsp)
    2c47:	0f 84 a0 03 00 00    	je     2fed <riscv_dsp_cfft_rd4_f64+0x90d>
    2c4d:	4b 8d 3c 00          	lea    (%r8,%r8,1),%rdi
    2c51:	b8 0a 00 00 00       	mov    $0xa,%eax
    2c56:	2b 44 24 e8          	sub    -0x18(%rsp),%eax
    2c5a:	4d 89 c7             	mov    %r8,%r15
    2c5d:	48 8d 34 3a          	lea    (%rdx,%rdi,1),%rsi
    2c61:	4a 8d 0c 07          	lea    (%rdi,%r8,1),%rcx
    2c65:	89 44 24 e0          	mov    %eax,-0x20(%rsp)
    2c69:	4c 89 c0             	mov    %r8,%rax
    2c6c:	48 8d 1c b5 08 00 00 	lea    0x8(,%rsi,4),%rbx
    2c73:	00 
    2c74:	49 c1 e7 04          	shl    $0x4,%r15
    2c78:	48 01 fe             	add    %rdi,%rsi
    2c7b:	48 c1 e1 03          	shl    $0x3,%rcx
    2c7f:	4c 8d 1c b5 08 00 00 	lea    0x8(,%rsi,4),%r11
    2c86:	00 
    2c87:	4c 8d 4c 3e 02       	lea    0x2(%rsi,%rdi,1),%r9
    2c8c:	48 c1 e0 05          	shl    $0x5,%rax
    2c90:	41 8d 75 ff          	lea    -0x1(%r13),%esi
    2c94:	49 c1 e1 02          	shl    $0x2,%r9
    2c98:	4c 8d 14 95 08 00 00 	lea    0x8(,%rdx,4),%r10
    2c9f:	00 
    2ca0:	83 fe 01             	cmp    $0x1,%esi
    2ca3:	40 0f 97 c6          	seta   %sil
    2ca7:	48 85 d2             	test   %rdx,%rdx
    2caa:	40 0f 95 c7          	setne  %dil
    2cae:	21 f7                	and    %esi,%edi
    2cb0:	48 83 f8 0f          	cmp    $0xf,%rax
    2cb4:	40 0f 97 c6          	seta   %sil
    2cb8:	21 f7                	and    %esi,%edi
    2cba:	4c 39 da             	cmp    %r11,%rdx
    2cbd:	40 0f 9f c6          	setg   %sil
    2cc1:	49 39 df             	cmp    %rbx,%r15
    2cc4:	40 0f 9f c5          	setg   %bpl
    2cc8:	09 ee                	or     %ebp,%esi
    2cca:	21 fe                	and    %edi,%esi
    2ccc:	49 39 d1             	cmp    %rdx,%r9
    2ccf:	40 0f 9c c7          	setl   %dil
    2cd3:	48 39 d9             	cmp    %rbx,%rcx
    2cd6:	0f 9f c3             	setg   %bl
    2cd9:	09 df                	or     %ebx,%edi
    2cdb:	21 f7                	and    %esi,%edi
    2cdd:	49 39 d2             	cmp    %rdx,%r10
    2ce0:	40 0f 9c c6          	setl   %sil
    2ce4:	21 fe                	and    %edi,%esi
    2ce6:	4d 39 f9             	cmp    %r15,%r9
    2ce9:	40 0f 9c c7          	setl   %dil
    2ced:	4c 39 d9             	cmp    %r11,%rcx
    2cf0:	41 0f 9f c1          	setg   %r9b
    2cf4:	44 09 cf             	or     %r9d,%edi
    2cf7:	21 f7                	and    %esi,%edi
    2cf9:	4d 39 fa             	cmp    %r15,%r10
    2cfc:	40 0f 9c c6          	setl   %sil
    2d00:	40 84 f7             	test   %sil,%dil
    2d03:	0f 84 06 0b 00 00    	je     380f <riscv_dsp_cfft_rd4_f64+0x112f>
    2d09:	49 39 ca             	cmp    %rcx,%r10
    2d0c:	0f 8d fd 0a 00 00    	jge    380f <riscv_dsp_cfft_rd4_f64+0x112f>
    2d12:	4b 8d 7c 3e 10       	lea    0x10(%r14,%r15,1),%rdi
    2d17:	4c 89 64 24 c8       	mov    %r12,-0x38(%rsp)
    2d1c:	45 89 eb             	mov    %r13d,%r11d
    2d1f:	45 31 d2             	xor    %r10d,%r10d
    2d22:	4d 8d 7c 0e 10       	lea    0x10(%r14,%rcx,1),%r15
    2d27:	8b 4c 24 e0          	mov    -0x20(%rsp),%ecx
    2d2b:	4c 89 74 24 e0       	mov    %r14,-0x20(%rsp)
    2d30:	49 8d 5c 16 10       	lea    0x10(%r14,%rdx,1),%rbx
    2d35:	48 8b 6c 24 d8       	mov    -0x28(%rsp),%rbp
    2d3a:	48 89 5c 24 c0       	mov    %rbx,-0x40(%rsp)
    2d3f:	41 d1 eb             	shr    %r11d
    2d42:	49 c1 e0 06          	shl    $0x6,%r8
    2d46:	f3 44 0f 7e 3d 81 34 	movq   0x3481(%rip),%xmm15        # 61d0 <_IO_stdin_used+0x1d0>
    2d4d:	00 00 
    2d4f:	44 89 6c 24 d0       	mov    %r13d,-0x30(%rsp)
    2d54:	bb 00 01 00 00       	mov    $0x100,%ebx
    2d59:	49 89 fd             	mov    %rdi,%r13
    2d5c:	4c 8d 0d cd 44 00 00 	lea    0x44cd(%rip),%r9        # 7230 <riscv_dsp_cos_table_f64_1024+0x10>
    2d63:	0f 1f 44 00 00       	nopl   0x0(%rax,%rax,1)
    2d68:	44 03 54 24 d0       	add    -0x30(%rsp),%r10d
    2d6d:	89 de                	mov    %ebx,%esi
    2d6f:	44 89 d2             	mov    %r10d,%edx
    2d72:	d3 e2                	shl    %cl,%edx
    2d74:	29 d6                	sub    %edx,%esi
    2d76:	85 f6                	test   %esi,%esi
    2d78:	0f 8e b2 08 00 00    	jle    3630 <riscv_dsp_cfft_rd4_f64+0xf50>
    2d7e:	48 63 d2             	movslq %edx,%rdx
    2d81:	48 63 f6             	movslq %esi,%rsi
    2d84:	f2 41 0f 10 24 d1    	movsd  (%r9,%rdx,8),%xmm4
    2d8a:	f2 41 0f 10 3c f1    	movsd  (%r9,%rsi,8),%xmm7
    2d90:	43 8d 14 12          	lea    (%r10,%r10,1),%edx
    2d94:	89 de                	mov    %ebx,%esi
    2d96:	d3 e2                	shl    %cl,%edx
    2d98:	29 d6                	sub    %edx,%esi
    2d9a:	85 f6                	test   %esi,%esi
    2d9c:	0f 8e 1e 08 00 00    	jle    35c0 <riscv_dsp_cfft_rd4_f64+0xee0>
    2da2:	48 63 d2             	movslq %edx,%rdx
    2da5:	48 63 f6             	movslq %esi,%rsi
    2da8:	f2 41 0f 10 2c d1    	movsd  (%r9,%rdx,8),%xmm5
    2dae:	f2 45 0f 10 04 f1    	movsd  (%r9,%rsi,8),%xmm8
    2db4:	43 8d 14 52          	lea    (%r10,%r10,2),%edx
    2db8:	89 de                	mov    %ebx,%esi
    2dba:	d3 e2                	shl    %cl,%edx
    2dbc:	29 d6                	sub    %edx,%esi
    2dbe:	85 f6                	test   %esi,%esi
    2dc0:	0f 8e 38 08 00 00    	jle    35fe <riscv_dsp_cfft_rd4_f64+0xf1e>
    2dc6:	48 63 d2             	movslq %edx,%rdx
    2dc9:	48 63 f6             	movslq %esi,%rsi
    2dcc:	f2 41 0f 10 1c d1    	movsd  (%r9,%rdx,8),%xmm3
    2dd2:	f2 41 0f 10 34 f1    	movsd  (%r9,%rsi,8),%xmm6
    2dd8:	8b 54 24 d0          	mov    -0x30(%rsp),%edx
    2ddc:	85 d2                	test   %edx,%edx
    2dde:	0f 84 e2 01 00 00    	je     2fc6 <riscv_dsp_cfft_rd4_f64+0x8e6>
    2de4:	48 8b 74 24 c0       	mov    -0x40(%rsp),%rsi
    2de9:	66 0f 14 ed          	unpcklpd %xmm5,%xmm5
    2ded:	66 0f 14 e4          	unpcklpd %xmm4,%xmm4
    2df1:	49 89 ec             	mov    %rbp,%r12
    2df4:	66 45 0f 14 c0       	unpcklpd %xmm8,%xmm8
    2df9:	66 0f 14 ff          	unpcklpd %xmm7,%xmm7
    2dfd:	66 0f 14 db          	unpcklpd %xmm3,%xmm3
    2e01:	4c 89 ef             	mov    %r13,%rdi
    2e04:	66 0f 14 f6          	unpcklpd %xmm6,%xmm6
    2e08:	4c 89 fa             	mov    %r15,%rdx
    2e0b:	45 31 f6             	xor    %r14d,%r14d
    2e0e:	66 90                	xchg   %ax,%ax
    2e10:	f2 0f 10 0f          	movsd  (%rdi),%xmm1
    2e14:	f2 41 0f 10 04 24    	movsd  (%r12),%xmm0
    2e1a:	41 83 c6 01          	add    $0x1,%r14d
    2e1e:	f2 44 0f 10 0e       	movsd  (%rsi),%xmm9
    2e23:	f2 44 0f 10 57 08    	movsd  0x8(%rdi),%xmm10
    2e29:	66 0f 16 0c 07       	movhpd (%rdi,%rax,1),%xmm1
    2e2e:	66 41 0f 16 04 04    	movhpd (%r12,%rax,1),%xmm0
    2e34:	f2 44 0f 10 62 08    	movsd  0x8(%rdx),%xmm12
    2e3a:	66 44 0f 28 d9       	movapd %xmm1,%xmm11
    2e3f:	66 44 0f 16 0c 06    	movhpd (%rsi,%rax,1),%xmm9
    2e45:	66 44 0f 16 54 07 08 	movhpd 0x8(%rdi,%rax,1),%xmm10
    2e4c:	66 44 0f 58 d8       	addpd  %xmm0,%xmm11
    2e51:	66 0f 5c c1          	subpd  %xmm1,%xmm0
    2e55:	f2 0f 10 0a          	movsd  (%rdx),%xmm1
    2e59:	66 44 0f 16 64 02 08 	movhpd 0x8(%rdx,%rax,1),%xmm12
    2e60:	66 0f 16 0c 02       	movhpd (%rdx,%rax,1),%xmm1
    2e65:	66 0f 28 d1          	movapd %xmm1,%xmm2
    2e69:	66 41 0f 58 d1       	addpd  %xmm9,%xmm2
    2e6e:	66 44 0f 5c c9       	subpd  %xmm1,%xmm9
    2e73:	f2 41 0f 10 4c 24 08 	movsd  0x8(%r12),%xmm1
    2e7a:	66 41 0f 16 4c 04 08 	movhpd 0x8(%r12,%rax,1),%xmm1
    2e81:	66 44 0f 28 f2       	movapd %xmm2,%xmm14
    2e86:	66 45 0f 58 f3       	addpd  %xmm11,%xmm14
    2e8b:	66 44 0f 5c da       	subpd  %xmm2,%xmm11
    2e90:	66 0f 28 d1          	movapd %xmm1,%xmm2
    2e94:	66 41 0f 58 d2       	addpd  %xmm10,%xmm2
    2e99:	66 41 0f 5c ca       	subpd  %xmm10,%xmm1
    2e9e:	f2 44 0f 10 56 08    	movsd  0x8(%rsi),%xmm10
    2ea4:	66 44 0f 16 54 06 08 	movhpd 0x8(%rsi,%rax,1),%xmm10
    2eab:	66 45 0f 13 34 24    	movlpd %xmm14,(%r12)
    2eb1:	66 45 0f 28 ea       	movapd %xmm10,%xmm13
    2eb6:	66 45 0f 5c d4       	subpd  %xmm12,%xmm10
    2ebb:	66 45 0f 17 34 04    	movhpd %xmm14,(%r12,%rax,1)
    2ec1:	66 45 0f 58 ec       	addpd  %xmm12,%xmm13
    2ec6:	66 44 0f 28 e2       	movapd %xmm2,%xmm12
    2ecb:	66 45 0f 58 e5       	addpd  %xmm13,%xmm12
    2ed0:	66 41 0f 5c d5       	subpd  %xmm13,%xmm2
    2ed5:	66 45 0f 13 64 24 08 	movlpd %xmm12,0x8(%r12)
    2edc:	66 44 0f 28 ea       	movapd %xmm2,%xmm13
    2ee1:	66 45 0f 17 64 04 08 	movhpd %xmm12,0x8(%r12,%rax,1)
    2ee8:	66 0f 59 d5          	mulpd  %xmm5,%xmm2
    2eec:	66 45 0f 28 e3       	movapd %xmm11,%xmm12
    2ef1:	4d 01 c4             	add    %r8,%r12
    2ef4:	66 45 0f 59 d8       	mulpd  %xmm8,%xmm11
    2ef9:	66 44 0f 59 e5       	mulpd  %xmm5,%xmm12
    2efe:	66 45 0f 59 e8       	mulpd  %xmm8,%xmm13
    2f03:	66 41 0f 5c d3       	subpd  %xmm11,%xmm2
    2f08:	66 44 0f 28 d8       	movapd %xmm0,%xmm11
    2f0d:	66 41 0f 5c c2       	subpd  %xmm10,%xmm0
    2f12:	66 45 0f 58 da       	addpd  %xmm10,%xmm11
    2f17:	66 45 0f 58 e5       	addpd  %xmm13,%xmm12
    2f1c:	66 44 0f 13 26       	movlpd %xmm12,(%rsi)
    2f21:	66 44 0f 17 24 06    	movhpd %xmm12,(%rsi,%rax,1)
    2f27:	66 0f 13 56 08       	movlpd %xmm2,0x8(%rsi)
    2f2c:	66 0f 17 54 06 08    	movhpd %xmm2,0x8(%rsi,%rax,1)
    2f32:	66 0f 28 d1          	movapd %xmm1,%xmm2
    2f36:	66 41 0f 58 c9       	addpd  %xmm9,%xmm1
    2f3b:	4c 01 c6             	add    %r8,%rsi
    2f3e:	66 41 0f 5c d1       	subpd  %xmm9,%xmm2
    2f43:	66 45 0f 28 cb       	movapd %xmm11,%xmm9
    2f48:	66 44 0f 59 cc       	mulpd  %xmm4,%xmm9
    2f4d:	66 44 0f 59 df       	mulpd  %xmm7,%xmm11
    2f52:	66 44 0f 28 d2       	movapd %xmm2,%xmm10
    2f57:	66 44 0f 59 d7       	mulpd  %xmm7,%xmm10
    2f5c:	66 0f 59 d4          	mulpd  %xmm4,%xmm2
    2f60:	66 45 0f 58 ca       	addpd  %xmm10,%xmm9
    2f65:	66 41 0f 5c d3       	subpd  %xmm11,%xmm2
    2f6a:	66 44 0f 13 0f       	movlpd %xmm9,(%rdi)
    2f6f:	66 44 0f 17 0c 07    	movhpd %xmm9,(%rdi,%rax,1)
    2f75:	66 44 0f 28 c9       	movapd %xmm1,%xmm9
    2f7a:	66 0f 13 57 08       	movlpd %xmm2,0x8(%rdi)
    2f7f:	66 44 0f 59 ce       	mulpd  %xmm6,%xmm9
    2f84:	66 0f 17 54 07 08    	movhpd %xmm2,0x8(%rdi,%rax,1)
    2f8a:	66 0f 28 d0          	movapd %xmm0,%xmm2
    2f8e:	4c 01 c7             	add    %r8,%rdi
    2f91:	66 0f 59 d3          	mulpd  %xmm3,%xmm2
    2f95:	66 0f 59 cb          	mulpd  %xmm3,%xmm1
    2f99:	66 0f 59 c6          	mulpd  %xmm6,%xmm0
    2f9d:	66 41 0f 58 d1       	addpd  %xmm9,%xmm2
    2fa2:	66 0f 5c c8          	subpd  %xmm0,%xmm1
    2fa6:	66 0f 13 12          	movlpd %xmm2,(%rdx)
    2faa:	66 0f 17 14 02       	movhpd %xmm2,(%rdx,%rax,1)
    2faf:	66 0f 13 4a 08       	movlpd %xmm1,0x8(%rdx)
    2fb4:	66 0f 17 4c 02 08    	movhpd %xmm1,0x8(%rdx,%rax,1)
    2fba:	4c 01 c2             	add    %r8,%rdx
    2fbd:	45 39 de             	cmp    %r11d,%r14d
    2fc0:	0f 85 4a fe ff ff    	jne    2e10 <riscv_dsp_cfft_rd4_f64+0x730>
    2fc6:	48 83 44 24 c0 10    	addq   $0x10,-0x40(%rsp)
    2fcc:	48 83 c5 10          	add    $0x10,%rbp
    2fd0:	49 83 c5 10          	add    $0x10,%r13
    2fd4:	49 83 c7 10          	add    $0x10,%r15
    2fd8:	48 39 6c 24 c8       	cmp    %rbp,-0x38(%rsp)
    2fdd:	0f 85 85 fd ff ff    	jne    2d68 <riscv_dsp_cfft_rd4_f64+0x688>
    2fe3:	44 8b 6c 24 d0       	mov    -0x30(%rsp),%r13d
    2fe8:	4c 8b 74 24 e0       	mov    -0x20(%rsp),%r14
    2fed:	41 c1 e5 02          	shl    $0x2,%r13d
    2ff1:	83 6c 24 ec 01       	subl   $0x1,-0x14(%rsp)
    2ff6:	0f 85 6c fb ff ff    	jne    2b68 <riscv_dsp_cfft_rd4_f64+0x488>
    2ffc:	4d 89 f7             	mov    %r14,%r15
    2fff:	8b 44 24 f0          	mov    -0x10(%rsp),%eax
    3003:	8d 14 00             	lea    (%rax,%rax,1),%edx
    3006:	48 c1 e2 03          	shl    $0x3,%rdx
    300a:	0f 84 01 03 00 00    	je     3311 <riscv_dsp_cfft_rd4_f64+0xc31>
    3010:	48 8d 4a c0          	lea    -0x40(%rdx),%rcx
    3014:	4c 89 f8             	mov    %r15,%rax
    3017:	48 c1 e9 06          	shr    $0x6,%rcx
    301b:	48 83 c1 01          	add    $0x1,%rcx
    301f:	48 83 fa 40          	cmp    $0x40,%rdx
    3023:	0f 84 34 02 00 00    	je     325d <riscv_dsp_cfft_rd4_f64+0xb7d>
    3029:	48 89 ca             	mov    %rcx,%rdx
    302c:	48 d1 ea             	shr    %rdx
    302f:	48 c1 e2 07          	shl    $0x7,%rdx
    3033:	4c 01 fa             	add    %r15,%rdx
    3036:	66 0f 10 20          	movupd (%rax),%xmm4
    303a:	66 0f 10 78 20       	movupd 0x20(%rax),%xmm7
    303f:	48 83 e8 80          	sub    $0xffffffffffffff80,%rax
    3043:	66 0f 10 40 90       	movupd -0x70(%rax),%xmm0
    3048:	66 44 0f 10 40 c0    	movupd -0x40(%rax),%xmm8
    304e:	66 0f 16 60 90       	movhpd -0x70(%rax),%xmm4
    3053:	66 0f 12 40 88       	movlpd -0x78(%rax),%xmm0
    3058:	66 0f 16 78 b0       	movhpd -0x50(%rax),%xmm7
    305d:	66 0f 10 58 b0       	movupd -0x50(%rax),%xmm3
    3062:	66 0f 10 48 d0       	movupd -0x30(%rax),%xmm1
    3067:	66 0f 12 58 a8       	movlpd -0x58(%rax),%xmm3
    306c:	66 0f 28 ec          	movapd %xmm4,%xmm5
    3070:	66 44 0f 16 40 d0    	movhpd -0x30(%rax),%xmm8
    3076:	66 0f 12 48 c8       	movlpd -0x38(%rax),%xmm1
    307b:	66 0f 10 70 e0       	movupd -0x20(%rax),%xmm6
    3080:	66 0f 14 ef          	unpcklpd %xmm7,%xmm5
    3084:	66 0f 15 e7          	unpckhpd %xmm7,%xmm4
    3088:	66 0f 10 50 f0       	movupd -0x10(%rax),%xmm2
    308d:	66 0f 28 f8          	movapd %xmm0,%xmm7
    3091:	66 0f 12 50 e8       	movlpd -0x18(%rax),%xmm2
    3096:	66 0f 15 c3          	unpckhpd %xmm3,%xmm0
    309a:	66 0f 16 70 f0       	movhpd -0x10(%rax),%xmm6
    309f:	66 0f 14 fb          	unpcklpd %xmm3,%xmm7
    30a3:	66 45 0f 28 c8       	movapd %xmm8,%xmm9
    30a8:	66 0f 28 d9          	movapd %xmm1,%xmm3
    30ac:	66 44 0f 14 ce       	unpcklpd %xmm6,%xmm9
    30b1:	66 44 0f 15 c6       	unpckhpd %xmm6,%xmm8
    30b6:	66 0f 14 da          	unpcklpd %xmm2,%xmm3
    30ba:	66 0f 15 ca          	unpckhpd %xmm2,%xmm1
    30be:	66 0f 28 f5          	movapd %xmm5,%xmm6
    30c2:	66 0f 28 d7          	movapd %xmm7,%xmm2
    30c6:	66 41 0f 15 e9       	unpckhpd %xmm9,%xmm5
    30cb:	66 0f 15 fb          	unpckhpd %xmm3,%xmm7
    30cf:	66 41 0f 14 f1       	unpcklpd %xmm9,%xmm6
    30d4:	66 0f 14 d3          	unpcklpd %xmm3,%xmm2
    30d8:	66 44 0f 28 cc       	movapd %xmm4,%xmm9
    30dd:	66 0f 28 d8          	movapd %xmm0,%xmm3
    30e1:	66 41 0f 15 e0       	unpckhpd %xmm8,%xmm4
    30e6:	66 45 0f 14 c8       	unpcklpd %xmm8,%xmm9
    30eb:	66 0f 15 c1          	unpckhpd %xmm1,%xmm0
    30ef:	66 0f 14 d9          	unpcklpd %xmm1,%xmm3
    30f3:	66 44 0f 28 dc       	movapd %xmm4,%xmm11
    30f8:	66 0f 28 cd          	movapd %xmm5,%xmm1
    30fc:	66 45 0f 58 d9       	addpd  %xmm9,%xmm11
    3101:	66 0f 58 ce          	addpd  %xmm6,%xmm1
    3105:	66 0f 5c f5          	subpd  %xmm5,%xmm6
    3109:	66 41 0f 28 e9       	movapd %xmm9,%xmm5
    310e:	66 44 0f 28 c8       	movapd %xmm0,%xmm9
    3113:	66 0f 5c ec          	subpd  %xmm4,%xmm5
    3117:	66 0f 28 e7          	movapd %xmm7,%xmm4
    311b:	66 44 0f 58 cb       	addpd  %xmm3,%xmm9
    3120:	66 0f 5c d8          	subpd  %xmm0,%xmm3
    3124:	66 45 0f 28 d3       	movapd %xmm11,%xmm10
    3129:	66 0f 58 e2          	addpd  %xmm2,%xmm4
    312d:	66 0f 5c d7          	subpd  %xmm7,%xmm2
    3131:	66 44 0f 58 d1       	addpd  %xmm1,%xmm10
    3136:	66 41 0f 5c cb       	subpd  %xmm11,%xmm1
    313b:	66 0f 28 c3          	movapd %xmm3,%xmm0
    313f:	66 45 0f 28 c1       	movapd %xmm9,%xmm8
    3144:	66 0f 58 c6          	addpd  %xmm6,%xmm0
    3148:	66 0f 28 fc          	movapd %xmm4,%xmm7
    314c:	66 0f 5c f3          	subpd  %xmm3,%xmm6
    3150:	66 41 0f 5c f9       	subpd  %xmm9,%xmm7
    3155:	66 44 0f 28 ca       	movapd %xmm2,%xmm9
    315a:	66 0f 58 d5          	addpd  %xmm5,%xmm2
    315e:	66 44 0f 58 c4       	addpd  %xmm4,%xmm8
    3163:	66 44 0f 5c cd       	subpd  %xmm5,%xmm9
    3168:	66 41 0f 28 da       	movapd %xmm10,%xmm3
    316d:	66 0f 28 e6          	movapd %xmm6,%xmm4
    3171:	66 41 0f 28 f2       	movapd %xmm10,%xmm6
    3176:	66 0f 28 e9          	movapd %xmm1,%xmm5
    317a:	66 0f 14 f0          	unpcklpd %xmm0,%xmm6
    317e:	66 44 0f 28 d7       	movapd %xmm7,%xmm10
    3183:	66 0f 15 fa          	unpckhpd %xmm2,%xmm7
    3187:	66 0f 14 ec          	unpcklpd %xmm4,%xmm5
    318b:	66 0f 15 cc          	unpckhpd %xmm4,%xmm1
    318f:	66 0f 15 d8          	unpckhpd %xmm0,%xmm3
    3193:	66 0f 28 e7          	movapd %xmm7,%xmm4
    3197:	66 41 0f 28 c0       	movapd %xmm8,%xmm0
    319c:	66 0f 28 fe          	movapd %xmm6,%xmm7
    31a0:	66 45 0f 15 c1       	unpckhpd %xmm9,%xmm8
    31a5:	66 0f 14 fd          	unpcklpd %xmm5,%xmm7
    31a9:	66 0f 15 f5          	unpckhpd %xmm5,%xmm6
    31ad:	66 41 0f 14 c1       	unpcklpd %xmm9,%xmm0
    31b2:	66 0f 28 eb          	movapd %xmm3,%xmm5
    31b6:	66 0f 15 d9          	unpckhpd %xmm1,%xmm3
    31ba:	66 44 0f 14 d2       	unpcklpd %xmm2,%xmm10
    31bf:	66 0f 14 e9          	unpcklpd %xmm1,%xmm5
    31c3:	66 0f 28 d3          	movapd %xmm3,%xmm2
    31c7:	66 44 0f 28 c8       	movapd %xmm0,%xmm9
    31cc:	66 41 0f 28 d8       	movapd %xmm8,%xmm3
    31d1:	66 41 0f 28 c8       	movapd %xmm8,%xmm1
    31d6:	66 0f 14 dc          	unpcklpd %xmm4,%xmm3
    31da:	66 0f 15 cc          	unpckhpd %xmm4,%xmm1
    31de:	66 45 0f 14 ca       	unpcklpd %xmm10,%xmm9
    31e3:	66 0f 28 e7          	movapd %xmm7,%xmm4
    31e7:	66 41 0f 15 c2       	unpckhpd %xmm10,%xmm0
    31ec:	66 41 0f 15 f9       	unpckhpd %xmm9,%xmm7
    31f1:	66 41 0f 14 e1       	unpcklpd %xmm9,%xmm4
    31f6:	0f 11 78 90          	movups %xmm7,-0x70(%rax)
    31fa:	0f 11 60 80          	movups %xmm4,-0x80(%rax)
    31fe:	66 0f 28 e6          	movapd %xmm6,%xmm4
    3202:	66 0f 15 f0          	unpckhpd %xmm0,%xmm6
    3206:	66 0f 14 e0          	unpcklpd %xmm0,%xmm4
    320a:	66 0f 28 c5          	movapd %xmm5,%xmm0
    320e:	66 0f 15 eb          	unpckhpd %xmm3,%xmm5
    3212:	0f 11 70 b0          	movups %xmm6,-0x50(%rax)
    3216:	66 0f 14 c3          	unpcklpd %xmm3,%xmm0
    321a:	0f 11 60 a0          	movups %xmm4,-0x60(%rax)
    321e:	0f 11 40 c0          	movups %xmm0,-0x40(%rax)
    3222:	66 0f 28 c2          	movapd %xmm2,%xmm0
    3226:	66 0f 15 d1          	unpckhpd %xmm1,%xmm2
    322a:	66 0f 14 c1          	unpcklpd %xmm1,%xmm0
    322e:	0f 11 68 d0          	movups %xmm5,-0x30(%rax)
    3232:	0f 11 40 e0          	movups %xmm0,-0x20(%rax)
    3236:	0f 11 50 f0          	movups %xmm2,-0x10(%rax)
    323a:	48 39 c2             	cmp    %rax,%rdx
    323d:	0f 85 f3 fd ff ff    	jne    3036 <riscv_dsp_cfft_rd4_f64+0x956>
    3243:	48 89 ca             	mov    %rcx,%rdx
    3246:	48 83 e2 fe          	and    $0xfffffffffffffffe,%rdx
    324a:	48 89 d0             	mov    %rdx,%rax
    324d:	48 c1 e0 06          	shl    $0x6,%rax
    3251:	4c 01 f8             	add    %r15,%rax
    3254:	48 39 ca             	cmp    %rcx,%rdx
    3257:	0f 84 b4 00 00 00    	je     3311 <riscv_dsp_cfft_rd4_f64+0xc31>
    325d:	f2 0f 10 18          	movsd  (%rax),%xmm3
    3261:	f2 0f 10 40 20       	movsd  0x20(%rax),%xmm0
    3266:	f2 0f 10 48 30       	movsd  0x30(%rax),%xmm1
    326b:	f2 0f 10 50 28       	movsd  0x28(%rax),%xmm2
    3270:	66 0f 28 eb          	movapd %xmm3,%xmm5
    3274:	f2 0f 5c d8          	subsd  %xmm0,%xmm3
    3278:	f2 44 0f 10 40 38    	movsd  0x38(%rax),%xmm8
    327e:	f2 0f 58 e8          	addsd  %xmm0,%xmm5
    3282:	f2 0f 10 40 10       	movsd  0x10(%rax),%xmm0
    3287:	66 0f 28 f8          	movapd %xmm0,%xmm7
    328b:	f2 0f 5c c1          	subsd  %xmm1,%xmm0
    328f:	f2 0f 58 f9          	addsd  %xmm1,%xmm7
    3293:	66 0f 28 cd          	movapd %xmm5,%xmm1
    3297:	f2 0f 58 cf          	addsd  %xmm7,%xmm1
    329b:	f2 0f 5c ef          	subsd  %xmm7,%xmm5
    329f:	f2 0f 11 08          	movsd  %xmm1,(%rax)
    32a3:	f2 0f 10 48 08       	movsd  0x8(%rax),%xmm1
    32a8:	f2 0f 11 68 10       	movsd  %xmm5,0x10(%rax)
    32ad:	66 0f 28 e1          	movapd %xmm1,%xmm4
    32b1:	f2 0f 5c ca          	subsd  %xmm2,%xmm1
    32b5:	f2 0f 58 e2          	addsd  %xmm2,%xmm4
    32b9:	f2 0f 10 50 18       	movsd  0x18(%rax),%xmm2
    32be:	66 0f 28 f2          	movapd %xmm2,%xmm6
    32c2:	f2 41 0f 5c d0       	subsd  %xmm8,%xmm2
    32c7:	f2 41 0f 58 f0       	addsd  %xmm8,%xmm6
    32cc:	66 44 0f 28 c4       	movapd %xmm4,%xmm8
    32d1:	f2 0f 5c e6          	subsd  %xmm6,%xmm4
    32d5:	f2 44 0f 58 c6       	addsd  %xmm6,%xmm8
    32da:	f2 0f 11 60 18       	movsd  %xmm4,0x18(%rax)
    32df:	66 0f 28 e3          	movapd %xmm3,%xmm4
    32e3:	f2 0f 5c da          	subsd  %xmm2,%xmm3
    32e7:	f2 0f 58 e2          	addsd  %xmm2,%xmm4
    32eb:	f2 44 0f 11 40 08    	movsd  %xmm8,0x8(%rax)
    32f1:	f2 0f 11 58 30       	movsd  %xmm3,0x30(%rax)
    32f6:	f2 0f 11 60 20       	movsd  %xmm4,0x20(%rax)
    32fb:	66 0f 28 e1          	movapd %xmm1,%xmm4
    32ff:	f2 0f 5c e0          	subsd  %xmm0,%xmm4
    3303:	f2 0f 58 c1          	addsd  %xmm1,%xmm0
    3307:	f2 0f 11 60 28       	movsd  %xmm4,0x28(%rax)
    330c:	f2 0f 11 40 38       	movsd  %xmm0,0x38(%rax)
    3311:	8b 6c 24 f4          	mov    -0xc(%rsp),%ebp
    3315:	0f b6 4c 24 e8       	movzbl -0x18(%rsp),%ecx
    331a:	b8 02 00 00 00       	mov    $0x2,%eax
    331f:	be 04 00 00 00       	mov    $0x4,%esi
    3324:	f2 41 0f 10 47 10    	movsd  0x10(%r15),%xmm0
    332a:	d3 e0                	shl    %cl,%eax
    332c:	8d 54 2d 00          	lea    0x0(%rbp,%rbp,1),%edx
    3330:	8b 4c 24 f0          	mov    -0x10(%rsp),%ecx
    3334:	89 eb                	mov    %ebp,%ebx
    3336:	49 8d 7c c7 f8       	lea    -0x8(%r15,%rax,8),%rdi
    333b:	48 89 d0             	mov    %rdx,%rax
    333e:	49 8d 14 d7          	lea    (%r15,%rdx,8),%rdx
    3342:	f2 0f 10 0a          	movsd  (%rdx),%xmm1
    3346:	83 c0 01             	add    $0x1,%eax
    3349:	41 89 c8             	mov    %ecx,%r8d
    334c:	c1 e9 03             	shr    $0x3,%ecx
    334f:	49 8d 04 c7          	lea    (%r15,%rax,8),%rax
    3353:	41 c1 e8 02          	shr    $0x2,%r8d
    3357:	41 89 cb             	mov    %ecx,%r11d
    335a:	41 89 c9             	mov    %ecx,%r9d
    335d:	f2 41 0f 11 4f 10    	movsd  %xmm1,0x10(%r15)
    3363:	44 31 c3             	xor    %r8d,%ebx
    3366:	b9 04 00 00 00       	mov    $0x4,%ecx
    336b:	f2 0f 11 02          	movsd  %xmm0,(%rdx)
    336f:	f2 0f 10 08          	movsd  (%rax),%xmm1
    3373:	41 89 da             	mov    %ebx,%r10d
    3376:	41 31 db             	xor    %ebx,%r11d
    3379:	f2 41 0f 10 47 18    	movsd  0x18(%r15),%xmm0
    337f:	bb fc ff ff ff       	mov    $0xfffffffc,%ebx
    3384:	f2 41 0f 11 4f 18    	movsd  %xmm1,0x18(%r15)
    338a:	f2 0f 11 00          	movsd  %xmm0,(%rax)
    338e:	89 e8                	mov    %ebp,%eax
    3390:	44 31 d0             	xor    %r10d,%eax
    3393:	41 85 c0             	test   %eax,%r8d
    3396:	75 10                	jne    33a8 <riscv_dsp_cfft_rd4_f64+0xcc8>
    3398:	44 89 c2             	mov    %r8d,%edx
    339b:	0f 1f 44 00 00       	nopl   0x0(%rax,%rax,1)
    33a0:	d1 ea                	shr    %edx
    33a2:	31 d0                	xor    %edx,%eax
    33a4:	85 c2                	test   %eax,%edx
    33a6:	74 f8                	je     33a0 <riscv_dsp_cfft_rd4_f64+0xcc0>
    33a8:	8d 56 fe             	lea    -0x2(%rsi),%edx
    33ab:	39 c2                	cmp    %eax,%edx
    33ad:	0f 83 a2 00 00 00    	jae    3455 <riscv_dsp_cfft_rd4_f64+0xd75>
    33b3:	89 ca                	mov    %ecx,%edx
    33b5:	44 8d 24 00          	lea    (%rax,%rax,1),%r12d
    33b9:	4d 8d 2c d7          	lea    (%r15,%rdx,8),%r13
    33bd:	4c 89 e2             	mov    %r12,%rdx
    33c0:	4f 8d 24 e7          	lea    (%r15,%r12,8),%r12
    33c4:	f2 41 0f 10 45 00    	movsd  0x0(%r13),%xmm0
    33ca:	f2 41 0f 10 0c 24    	movsd  (%r12),%xmm1
    33d0:	83 c2 01             	add    $0x1,%edx
    33d3:	49 8d 14 d7          	lea    (%r15,%rdx,8),%rdx
    33d7:	f2 41 0f 11 4d 00    	movsd  %xmm1,0x0(%r13)
    33dd:	f2 41 0f 11 04 24    	movsd  %xmm0,(%r12)
    33e3:	44 8d 61 01          	lea    0x1(%rcx),%r12d
    33e7:	f2 0f 10 0a          	movsd  (%rdx),%xmm1
    33eb:	4f 8d 24 e7          	lea    (%r15,%r12,8),%r12
    33ef:	f2 41 0f 10 04 24    	movsd  (%r12),%xmm0
    33f5:	f2 41 0f 11 0c 24    	movsd  %xmm1,(%r12)
    33fb:	41 89 cc             	mov    %ecx,%r12d
    33fe:	41 f7 dc             	neg    %r12d
    3401:	f2 0f 11 02          	movsd  %xmm0,(%rdx)
    3405:	89 c2                	mov    %eax,%edx
    3407:	4d 63 e4             	movslq %r12d,%r12
    340a:	f7 da                	neg    %edx
    340c:	49 c1 e4 03          	shl    $0x3,%r12
    3410:	01 d2                	add    %edx,%edx
    3412:	4e 8d 2c 27          	lea    (%rdi,%r12,1),%r13
    3416:	4e 8d 64 27 f8       	lea    -0x8(%rdi,%r12,1),%r12
    341b:	48 63 d2             	movslq %edx,%rdx
    341e:	f2 41 0f 10 45 00    	movsd  0x0(%r13),%xmm0
    3424:	48 c1 e2 03          	shl    $0x3,%rdx
    3428:	4c 8d 34 17          	lea    (%rdi,%rdx,1),%r14
    342c:	48 8d 54 17 f8       	lea    -0x8(%rdi,%rdx,1),%rdx
    3431:	f2 41 0f 10 0e       	movsd  (%r14),%xmm1
    3436:	f2 41 0f 11 4d 00    	movsd  %xmm1,0x0(%r13)
    343c:	f2 41 0f 11 06       	movsd  %xmm0,(%r14)
    3441:	f2 41 0f 10 04 24    	movsd  (%r12),%xmm0
    3447:	f2 0f 10 0a          	movsd  (%rdx),%xmm1
    344b:	f2 41 0f 11 0c 24    	movsd  %xmm1,(%r12)
    3451:	f2 0f 11 02          	movsd  %xmm0,(%rdx)
    3455:	8d 51 02             	lea    0x2(%rcx),%edx
    3458:	01 e8                	add    %ebp,%eax
    345a:	4d 8d 24 d7          	lea    (%r15,%rdx,8),%r12
    345e:	8d 14 00             	lea    (%rax,%rax,1),%edx
    3461:	49 89 d5             	mov    %rdx,%r13
    3464:	49 8d 14 d7          	lea    (%r15,%rdx,8),%rdx
    3468:	f2 41 0f 10 04 24    	movsd  (%r12),%xmm0
    346e:	f2 0f 10 0a          	movsd  (%rdx),%xmm1
    3472:	f2 41 0f 11 0c 24    	movsd  %xmm1,(%r12)
    3478:	f2 0f 11 02          	movsd  %xmm0,(%rdx)
    347c:	8d 51 03             	lea    0x3(%rcx),%edx
    347f:	4d 8d 24 d7          	lea    (%r15,%rdx,8),%r12
    3483:	41 8d 55 01          	lea    0x1(%r13),%edx
    3487:	49 8d 14 d7          	lea    (%r15,%rdx,8),%rdx
    348b:	f2 41 0f 10 04 24    	movsd  (%r12),%xmm0
    3491:	f2 0f 10 0a          	movsd  (%rdx),%xmm1
    3495:	f2 41 0f 11 0c 24    	movsd  %xmm1,(%r12)
    349b:	f2 0f 11 02          	movsd  %xmm0,(%rdx)
    349f:	39 f5                	cmp    %esi,%ebp
    34a1:	0f 86 ec 06 00 00    	jbe    3b93 <riscv_dsp_cfft_rd4_f64+0x14b3>
    34a7:	44 31 d8             	xor    %r11d,%eax
    34aa:	41 85 c1             	test   %eax,%r9d
    34ad:	75 11                	jne    34c0 <riscv_dsp_cfft_rd4_f64+0xde0>
    34af:	44 89 ca             	mov    %r9d,%edx
    34b2:	66 0f 1f 44 00 00    	nopw   0x0(%rax,%rax,1)
    34b8:	d1 ea                	shr    %edx
    34ba:	31 d0                	xor    %edx,%eax
    34bc:	85 c2                	test   %eax,%edx
    34be:	74 f8                	je     34b8 <riscv_dsp_cfft_rd4_f64+0xdd8>
    34c0:	39 f0                	cmp    %esi,%eax
    34c2:	0f 86 a3 00 00 00    	jbe    356b <riscv_dsp_cfft_rd4_f64+0xe8b>
    34c8:	8d 51 04             	lea    0x4(%rcx),%edx
    34cb:	44 8d 24 00          	lea    (%rax,%rax,1),%r12d
    34cf:	4d 8d 2c d7          	lea    (%r15,%rdx,8),%r13
    34d3:	4c 89 e2             	mov    %r12,%rdx
    34d6:	4f 8d 24 e7          	lea    (%r15,%r12,8),%r12
    34da:	f2 41 0f 10 45 00    	movsd  0x0(%r13),%xmm0
    34e0:	f2 41 0f 10 0c 24    	movsd  (%r12),%xmm1
    34e6:	83 c2 01             	add    $0x1,%edx
    34e9:	49 8d 14 d7          	lea    (%r15,%rdx,8),%rdx
    34ed:	f2 41 0f 11 4d 00    	movsd  %xmm1,0x0(%r13)
    34f3:	f2 41 0f 11 04 24    	movsd  %xmm0,(%r12)
    34f9:	44 8d 61 05          	lea    0x5(%rcx),%r12d
    34fd:	f2 0f 10 0a          	movsd  (%rdx),%xmm1
    3501:	4f 8d 24 e7          	lea    (%r15,%r12,8),%r12
    3505:	f2 41 0f 10 04 24    	movsd  (%r12),%xmm0
    350b:	f2 41 0f 11 0c 24    	movsd  %xmm1,(%r12)
    3511:	41 89 dc             	mov    %ebx,%r12d
    3514:	41 29 cc             	sub    %ecx,%r12d
    3517:	f2 0f 11 02          	movsd  %xmm0,(%rdx)
    351b:	89 c2                	mov    %eax,%edx
    351d:	4d 63 e4             	movslq %r12d,%r12
    3520:	f7 da                	neg    %edx
    3522:	49 c1 e4 03          	shl    $0x3,%r12
    3526:	01 d2                	add    %edx,%edx
    3528:	4e 8d 2c 27          	lea    (%rdi,%r12,1),%r13
    352c:	4e 8d 64 27 f8       	lea    -0x8(%rdi,%r12,1),%r12
    3531:	48 63 d2             	movslq %edx,%rdx
    3534:	f2 41 0f 10 45 00    	movsd  0x0(%r13),%xmm0
    353a:	48 c1 e2 03          	shl    $0x3,%rdx
    353e:	4c 8d 34 17          	lea    (%rdi,%rdx,1),%r14
    3542:	48 8d 54 17 f8       	lea    -0x8(%rdi,%rdx,1),%rdx
    3547:	f2 41 0f 10 0e       	movsd  (%r14),%xmm1
    354c:	f2 41 0f 11 4d 00    	movsd  %xmm1,0x0(%r13)
    3552:	f2 41 0f 11 06       	movsd  %xmm0,(%r14)
    3557:	f2 41 0f 10 04 24    	movsd  (%r12),%xmm0
    355d:	f2 0f 10 0a          	movsd  (%rdx),%xmm1
    3561:	f2 41 0f 11 0c 24    	movsd  %xmm1,(%r12)
    3567:	f2 0f 11 02          	movsd  %xmm0,(%rdx)
    356b:	8d 51 06             	lea    0x6(%rcx),%edx
    356e:	01 e8                	add    %ebp,%eax
    3570:	83 c6 04             	add    $0x4,%esi
    3573:	4d 8d 24 d7          	lea    (%r15,%rdx,8),%r12
    3577:	8d 14 00             	lea    (%rax,%rax,1),%edx
    357a:	49 89 d5             	mov    %rdx,%r13
    357d:	49 8d 14 d7          	lea    (%r15,%rdx,8),%rdx
    3581:	f2 41 0f 10 04 24    	movsd  (%r12),%xmm0
    3587:	f2 0f 10 0a          	movsd  (%rdx),%xmm1
    358b:	f2 41 0f 11 0c 24    	movsd  %xmm1,(%r12)
    3591:	f2 0f 11 02          	movsd  %xmm0,(%rdx)
    3595:	8d 51 07             	lea    0x7(%rcx),%edx
    3598:	83 c1 08             	add    $0x8,%ecx
    359b:	4d 8d 24 d7          	lea    (%r15,%rdx,8),%r12
    359f:	41 8d 55 01          	lea    0x1(%r13),%edx
    35a3:	49 8d 14 d7          	lea    (%r15,%rdx,8),%rdx
    35a7:	f2 41 0f 10 04 24    	movsd  (%r12),%xmm0
    35ad:	f2 0f 10 0a          	movsd  (%rdx),%xmm1
    35b1:	f2 41 0f 11 0c 24    	movsd  %xmm1,(%r12)
    35b7:	f2 0f 11 02          	movsd  %xmm0,(%rdx)
    35bb:	e9 d0 fd ff ff       	jmp    3390 <riscv_dsp_cfft_rd4_f64+0xcb0>
    35c0:	8d b2 00 ff ff ff    	lea    -0x100(%rdx),%esi
    35c6:	89 df                	mov    %ebx,%edi
    35c8:	29 f7                	sub    %esi,%edi
    35ca:	85 ff                	test   %edi,%edi
    35cc:	0f 8e 8e 00 00 00    	jle    3660 <riscv_dsp_cfft_rd4_f64+0xf80>
    35d2:	48 63 f6             	movslq %esi,%rsi
    35d5:	43 8d 14 52          	lea    (%r10,%r10,2),%edx
    35d9:	48 63 ff             	movslq %edi,%rdi
    35dc:	f2 45 0f 10 04 f1    	movsd  (%r9,%rsi,8),%xmm8
    35e2:	d3 e2                	shl    %cl,%edx
    35e4:	89 de                	mov    %ebx,%esi
    35e6:	f2 41 0f 10 2c f9    	movsd  (%r9,%rdi,8),%xmm5
    35ec:	29 d6                	sub    %edx,%esi
    35ee:	66 0f 57 2d da 2b 00 	xorpd  0x2bda(%rip),%xmm5        # 61d0 <_IO_stdin_used+0x1d0>
    35f5:	00 
    35f6:	85 f6                	test   %esi,%esi
    35f8:	0f 8f c8 f7 ff ff    	jg     2dc6 <riscv_dsp_cfft_rd4_f64+0x6e6>
    35fe:	8d b2 00 ff ff ff    	lea    -0x100(%rdx),%esi
    3604:	89 df                	mov    %ebx,%edi
    3606:	29 f7                	sub    %esi,%edi
    3608:	85 ff                	test   %edi,%edi
    360a:	0f 8e e0 00 00 00    	jle    36f0 <riscv_dsp_cfft_rd4_f64+0x1010>
    3610:	48 63 ff             	movslq %edi,%rdi
    3613:	48 63 f6             	movslq %esi,%rsi
    3616:	f2 41 0f 10 1c f9    	movsd  (%r9,%rdi,8),%xmm3
    361c:	f2 41 0f 10 34 f1    	movsd  (%r9,%rsi,8),%xmm6
    3622:	66 0f 57 1d a6 2b 00 	xorpd  0x2ba6(%rip),%xmm3        # 61d0 <_IO_stdin_used+0x1d0>
    3629:	00 
    362a:	e9 a9 f7 ff ff       	jmp    2dd8 <riscv_dsp_cfft_rd4_f64+0x6f8>
    362f:	90                   	nop
    3630:	8d b2 00 ff ff ff    	lea    -0x100(%rdx),%esi
    3636:	89 df                	mov    %ebx,%edi
    3638:	29 f7                	sub    %esi,%edi
    363a:	85 ff                	test   %edi,%edi
    363c:	7e 72                	jle    36b0 <riscv_dsp_cfft_rd4_f64+0xfd0>
    363e:	48 63 ff             	movslq %edi,%rdi
    3641:	48 63 f6             	movslq %esi,%rsi
    3644:	f2 41 0f 10 24 f9    	movsd  (%r9,%rdi,8),%xmm4
    364a:	f2 41 0f 10 3c f1    	movsd  (%r9,%rsi,8),%xmm7
    3650:	66 0f 57 25 78 2b 00 	xorpd  0x2b78(%rip),%xmm4        # 61d0 <_IO_stdin_used+0x1d0>
    3657:	00 
    3658:	e9 33 f7 ff ff       	jmp    2d90 <riscv_dsp_cfft_rd4_f64+0x6b0>
    365d:	0f 1f 00             	nopl   (%rax)
    3660:	81 ea 00 02 00 00    	sub    $0x200,%edx
    3666:	89 de                	mov    %ebx,%esi
    3668:	29 d6                	sub    %edx,%esi
    366a:	48 63 d2             	movslq %edx,%rdx
    366d:	48 63 fe             	movslq %esi,%rdi
    3670:	f2 45 0f 10 04 d1    	movsd  (%r9,%rdx,8),%xmm8
    3676:	66 44 0f 57 05 51 2b 	xorpd  0x2b51(%rip),%xmm8        # 61d0 <_IO_stdin_used+0x1d0>
    367d:	00 00 
    367f:	f2 41 0f 10 2c f9    	movsd  (%r9,%rdi,8),%xmm5
    3685:	85 f6                	test   %esi,%esi
    3687:	0f 8e 27 f7 ff ff    	jle    2db4 <riscv_dsp_cfft_rd4_f64+0x6d4>
    368d:	66 0f 57 2d 3b 2b 00 	xorpd  0x2b3b(%rip),%xmm5        # 61d0 <_IO_stdin_used+0x1d0>
    3694:	00 
    3695:	66 0f 28 c5          	movapd %xmm5,%xmm0
    3699:	66 41 0f 28 e8       	movapd %xmm8,%xmm5
    369e:	66 44 0f 28 c0       	movapd %xmm0,%xmm8
    36a3:	e9 0c f7 ff ff       	jmp    2db4 <riscv_dsp_cfft_rd4_f64+0x6d4>
    36a8:	0f 1f 84 00 00 00 00 	nopl   0x0(%rax,%rax,1)
    36af:	00 
    36b0:	81 ea 00 02 00 00    	sub    $0x200,%edx
    36b6:	89 de                	mov    %ebx,%esi
    36b8:	29 d6                	sub    %edx,%esi
    36ba:	48 63 d2             	movslq %edx,%rdx
    36bd:	f2 41 0f 10 3c d1    	movsd  (%r9,%rdx,8),%xmm7
    36c3:	48 63 fe             	movslq %esi,%rdi
    36c6:	f2 41 0f 10 24 f9    	movsd  (%r9,%rdi,8),%xmm4
    36cc:	66 41 0f 57 ff       	xorpd  %xmm15,%xmm7
    36d1:	85 f6                	test   %esi,%esi
    36d3:	0f 8e b7 f6 ff ff    	jle    2d90 <riscv_dsp_cfft_rd4_f64+0x6b0>
    36d9:	66 41 0f 57 e7       	xorpd  %xmm15,%xmm4
    36de:	66 0f 28 c4          	movapd %xmm4,%xmm0
    36e2:	66 0f 28 e7          	movapd %xmm7,%xmm4
    36e6:	66 0f 28 f8          	movapd %xmm0,%xmm7
    36ea:	e9 a1 f6 ff ff       	jmp    2d90 <riscv_dsp_cfft_rd4_f64+0x6b0>
    36ef:	90                   	nop
    36f0:	81 ea 00 02 00 00    	sub    $0x200,%edx
    36f6:	89 de                	mov    %ebx,%esi
    36f8:	29 d6                	sub    %edx,%esi
    36fa:	48 63 d2             	movslq %edx,%rdx
    36fd:	48 63 fe             	movslq %esi,%rdi
    3700:	f2 41 0f 10 34 d1    	movsd  (%r9,%rdx,8),%xmm6
    3706:	66 0f 57 35 c2 2a 00 	xorpd  0x2ac2(%rip),%xmm6        # 61d0 <_IO_stdin_used+0x1d0>
    370d:	00 
    370e:	f2 41 0f 10 1c f9    	movsd  (%r9,%rdi,8),%xmm3
    3714:	85 f6                	test   %esi,%esi
    3716:	0f 8e bc f6 ff ff    	jle    2dd8 <riscv_dsp_cfft_rd4_f64+0x6f8>
    371c:	66 0f 57 1d ac 2a 00 	xorpd  0x2aac(%rip),%xmm3        # 61d0 <_IO_stdin_used+0x1d0>
    3723:	00 
    3724:	66 0f 28 c3          	movapd %xmm3,%xmm0
    3728:	66 0f 28 de          	movapd %xmm6,%xmm3
    372c:	66 0f 28 f0          	movapd %xmm0,%xmm6
    3730:	e9 a3 f6 ff ff       	jmp    2dd8 <riscv_dsp_cfft_rd4_f64+0x6f8>
    3735:	4c 89 c7             	mov    %r8,%rdi
    3738:	4c 01 f1             	add    %r14,%rcx
    373b:	4c 89 f0             	mov    %r14,%rax
    373e:	44 89 ee             	mov    %r13d,%esi
    3741:	48 c1 e7 05          	shl    $0x5,%rdi
    3745:	0f 1f 00             	nopl   (%rax)
    3748:	f2 0f 10 00          	movsd  (%rax),%xmm0
    374c:	f2 0f 10 09          	movsd  (%rcx),%xmm1
    3750:	f2 0f 10 14 11       	movsd  (%rcx,%rdx,1),%xmm2
    3755:	66 0f 28 e8          	movapd %xmm0,%xmm5
    3759:	f2 0f 5c c1          	subsd  %xmm1,%xmm0
    375d:	f2 0f 58 e9          	addsd  %xmm1,%xmm5
    3761:	f2 0f 10 0c 10       	movsd  (%rax,%rdx,1),%xmm1
    3766:	66 0f 28 f9          	movapd %xmm1,%xmm7
    376a:	f2 0f 5c ca          	subsd  %xmm2,%xmm1
    376e:	f2 0f 58 fa          	addsd  %xmm2,%xmm7
    3772:	66 0f 28 d5          	movapd %xmm5,%xmm2
    3776:	f2 0f 58 d7          	addsd  %xmm7,%xmm2
    377a:	f2 0f 5c ef          	subsd  %xmm7,%xmm5
    377e:	f2 0f 11 10          	movsd  %xmm2,(%rax)
    3782:	f2 0f 10 50 08       	movsd  0x8(%rax),%xmm2
    3787:	f2 0f 10 59 08       	movsd  0x8(%rcx),%xmm3
    378c:	f2 44 0f 10 44 11 08 	movsd  0x8(%rcx,%rdx,1),%xmm8
    3793:	66 0f 28 e2          	movapd %xmm2,%xmm4
    3797:	f2 0f 5c d3          	subsd  %xmm3,%xmm2
    379b:	f2 0f 58 e3          	addsd  %xmm3,%xmm4
    379f:	f2 0f 10 5c 10 08    	movsd  0x8(%rax,%rdx,1),%xmm3
    37a5:	66 0f 28 f3          	movapd %xmm3,%xmm6
    37a9:	f2 41 0f 5c d8       	subsd  %xmm8,%xmm3
    37ae:	f2 41 0f 58 f0       	addsd  %xmm8,%xmm6
    37b3:	66 44 0f 28 c4       	movapd %xmm4,%xmm8
    37b8:	f2 44 0f 58 c6       	addsd  %xmm6,%xmm8
    37bd:	f2 0f 5c e6          	subsd  %xmm6,%xmm4
    37c1:	f2 44 0f 11 40 08    	movsd  %xmm8,0x8(%rax)
    37c7:	f2 0f 11 64 10 08    	movsd  %xmm4,0x8(%rax,%rdx,1)
    37cd:	66 0f 28 e0          	movapd %xmm0,%xmm4
    37d1:	f2 0f 5c c3          	subsd  %xmm3,%xmm0
    37d5:	f2 0f 58 e3          	addsd  %xmm3,%xmm4
    37d9:	f2 0f 11 2c 10       	movsd  %xmm5,(%rax,%rdx,1)
    37de:	48 01 f8             	add    %rdi,%rax
    37e1:	f2 0f 11 21          	movsd  %xmm4,(%rcx)
    37e5:	66 0f 28 e2          	movapd %xmm2,%xmm4
    37e9:	f2 0f 5c e1          	subsd  %xmm1,%xmm4
    37ed:	f2 0f 58 ca          	addsd  %xmm2,%xmm1
    37f1:	66 0f 14 c1          	unpcklpd %xmm1,%xmm0
    37f5:	f2 0f 11 61 08       	movsd  %xmm4,0x8(%rcx)
    37fa:	0f 11 04 11          	movups %xmm0,(%rcx,%rdx,1)
    37fe:	48 01 f9             	add    %rdi,%rcx
    3801:	83 ee 01             	sub    $0x1,%esi
    3804:	0f 85 3e ff ff ff    	jne    3748 <riscv_dsp_cfft_rd4_f64+0x1068>
    380a:	e9 33 f4 ff ff       	jmp    2c42 <riscv_dsp_cfft_rd4_f64+0x562>
    380f:	4c 8b 44 24 d8       	mov    -0x28(%rsp),%r8
    3814:	8b 4c 24 e0          	mov    -0x20(%rsp),%ecx
    3818:	31 ff                	xor    %edi,%edi
    381a:	4c 8d 0d 0f 3a 00 00 	lea    0x3a0f(%rip),%r9        # 7230 <riscv_dsp_cos_table_f64_1024+0x10>
    3821:	f3 44 0f 7e 05 a6 29 	movq   0x29a6(%rip),%xmm8        # 61d0 <_IO_stdin_used+0x1d0>
    3828:	00 00 
    382a:	41 ba 00 01 00 00    	mov    $0x100,%r10d
    3830:	44 01 ef             	add    %r13d,%edi
    3833:	45 89 d3             	mov    %r10d,%r11d
    3836:	89 fe                	mov    %edi,%esi
    3838:	d3 e6                	shl    %cl,%esi
    383a:	41 29 f3             	sub    %esi,%r11d
    383d:	45 85 db             	test   %r11d,%r11d
    3840:	0f 8e 48 02 00 00    	jle    3a8e <riscv_dsp_cfft_rd4_f64+0x13ae>
    3846:	48 63 f6             	movslq %esi,%rsi
    3849:	4d 63 db             	movslq %r11d,%r11
    384c:	f2 41 0f 10 1c f1    	movsd  (%r9,%rsi,8),%xmm3
    3852:	f2 43 0f 10 2c d9    	movsd  (%r9,%r11,8),%xmm5
    3858:	8d 34 3f             	lea    (%rdi,%rdi,1),%esi
    385b:	45 89 d3             	mov    %r10d,%r11d
    385e:	d3 e6                	shl    %cl,%esi
    3860:	41 29 f3             	sub    %esi,%r11d
    3863:	45 85 db             	test   %r11d,%r11d
    3866:	0f 8e ee 01 00 00    	jle    3a5a <riscv_dsp_cfft_rd4_f64+0x137a>
    386c:	48 63 f6             	movslq %esi,%rsi
    386f:	4d 63 db             	movslq %r11d,%r11
    3872:	f2 41 0f 10 14 f1    	movsd  (%r9,%rsi,8),%xmm2
    3878:	f2 43 0f 10 24 d9    	movsd  (%r9,%r11,8),%xmm4
    387e:	8d 34 7f             	lea    (%rdi,%rdi,2),%esi
    3881:	45 89 d3             	mov    %r10d,%r11d
    3884:	d3 e6                	shl    %cl,%esi
    3886:	41 29 f3             	sub    %esi,%r11d
    3889:	45 85 db             	test   %r11d,%r11d
    388c:	0f 8e 94 01 00 00    	jle    3a26 <riscv_dsp_cfft_rd4_f64+0x1346>
    3892:	48 63 f6             	movslq %esi,%rsi
    3895:	4d 63 db             	movslq %r11d,%r11
    3898:	f2 41 0f 10 34 f1    	movsd  (%r9,%rsi,8),%xmm6
    389e:	f2 43 0f 10 3c d9    	movsd  (%r9,%r11,8),%xmm7
    38a4:	66 0f 14 ff          	unpcklpd %xmm7,%xmm7
    38a8:	66 0f 14 f6          	unpcklpd %xmm6,%xmm6
    38ac:	45 85 ed             	test   %r13d,%r13d
    38af:	0f 84 5f 01 00 00    	je     3a14 <riscv_dsp_cfft_rd4_f64+0x1334>
    38b5:	4f 8d 1c 38          	lea    (%r8,%r15,1),%r11
    38b9:	4c 89 c6             	mov    %r8,%rsi
    38bc:	44 89 eb             	mov    %r13d,%ebx
    38bf:	90                   	nop
    38c0:	f2 0f 10 06          	movsd  (%rsi),%xmm0
    38c4:	f2 41 0f 10 0b       	movsd  (%r11),%xmm1
    38c9:	f2 44 0f 10 14 16    	movsd  (%rsi,%rdx,1),%xmm10
    38cf:	f2 45 0f 10 0c 13    	movsd  (%r11,%rdx,1),%xmm9
    38d5:	66 44 0f 28 d8       	movapd %xmm0,%xmm11
    38da:	f2 0f 5c c1          	subsd  %xmm1,%xmm0
    38de:	f2 44 0f 58 d9       	addsd  %xmm1,%xmm11
    38e3:	66 41 0f 28 ca       	movapd %xmm10,%xmm1
    38e8:	f2 45 0f 5c d1       	subsd  %xmm9,%xmm10
    38ed:	f2 41 0f 58 c9       	addsd  %xmm9,%xmm1
    38f2:	66 44 0f 28 c9       	movapd %xmm1,%xmm9
    38f7:	f2 45 0f 58 cb       	addsd  %xmm11,%xmm9
    38fc:	f2 44 0f 5c d9       	subsd  %xmm1,%xmm11
    3901:	f2 44 0f 11 0e       	movsd  %xmm9,(%rsi)
    3906:	f2 44 0f 10 4e 08    	movsd  0x8(%rsi),%xmm9
    390c:	f2 45 0f 10 63 08    	movsd  0x8(%r11),%xmm12
    3912:	f2 45 0f 10 74 13 08 	movsd  0x8(%r11,%rdx,1),%xmm14
    3919:	66 41 0f 28 c9       	movapd %xmm9,%xmm1
    391e:	f2 45 0f 5c cc       	subsd  %xmm12,%xmm9
    3923:	f2 41 0f 58 cc       	addsd  %xmm12,%xmm1
    3928:	f2 44 0f 10 64 16 08 	movsd  0x8(%rsi,%rdx,1),%xmm12
    392f:	66 45 0f 28 ec       	movapd %xmm12,%xmm13
    3934:	f2 45 0f 5c e6       	subsd  %xmm14,%xmm12
    3939:	f2 45 0f 58 ee       	addsd  %xmm14,%xmm13
    393e:	66 44 0f 28 f1       	movapd %xmm1,%xmm14
    3943:	f2 45 0f 58 f5       	addsd  %xmm13,%xmm14
    3948:	f2 41 0f 5c cd       	subsd  %xmm13,%xmm1
    394d:	66 44 0f 28 ea       	movapd %xmm2,%xmm13
    3952:	f2 45 0f 59 eb       	mulsd  %xmm11,%xmm13
    3957:	f2 44 0f 59 dc       	mulsd  %xmm4,%xmm11
    395c:	f2 44 0f 11 76 08    	movsd  %xmm14,0x8(%rsi)
    3962:	66 44 0f 28 f4       	movapd %xmm4,%xmm14
    3967:	f2 44 0f 59 f1       	mulsd  %xmm1,%xmm14
    396c:	f2 0f 59 ca          	mulsd  %xmm2,%xmm1
    3970:	f2 45 0f 58 ee       	addsd  %xmm14,%xmm13
    3975:	f2 41 0f 5c cb       	subsd  %xmm11,%xmm1
    397a:	66 45 0f 28 dc       	movapd %xmm12,%xmm11
    397f:	f2 44 0f 58 d8       	addsd  %xmm0,%xmm11
    3984:	f2 41 0f 5c c4       	subsd  %xmm12,%xmm0
    3989:	f2 44 0f 11 2c 16    	movsd  %xmm13,(%rsi,%rdx,1)
    398f:	f2 0f 11 4c 16 08    	movsd  %xmm1,0x8(%rsi,%rdx,1)
    3995:	66 41 0f 28 c9       	movapd %xmm9,%xmm1
    399a:	f2 45 0f 58 ca       	addsd  %xmm10,%xmm9
    399f:	48 01 c6             	add    %rax,%rsi
    39a2:	f2 41 0f 5c ca       	subsd  %xmm10,%xmm1
    39a7:	66 45 0f 28 d1       	movapd %xmm9,%xmm10
    39ac:	66 44 0f 14 d0       	unpcklpd %xmm0,%xmm10
    39b1:	66 44 0f 28 e1       	movapd %xmm1,%xmm12
    39b6:	66 41 0f 14 c1       	unpcklpd %xmm9,%xmm0
    39bb:	f2 0f 59 cb          	mulsd  %xmm3,%xmm1
    39bf:	66 45 0f 28 cb       	movapd %xmm11,%xmm9
    39c4:	f2 44 0f 59 dd       	mulsd  %xmm5,%xmm11
    39c9:	66 44 0f 59 d7       	mulpd  %xmm7,%xmm10
    39ce:	66 0f 59 c6          	mulpd  %xmm6,%xmm0
    39d2:	f2 44 0f 59 cb       	mulsd  %xmm3,%xmm9
    39d7:	f2 44 0f 59 e5       	mulsd  %xmm5,%xmm12
    39dc:	f2 41 0f 5c cb       	subsd  %xmm11,%xmm1
    39e1:	f2 41 0f 11 4b 08    	movsd  %xmm1,0x8(%r11)
    39e7:	66 41 0f 28 ca       	movapd %xmm10,%xmm1
    39ec:	66 0f 58 c8          	addpd  %xmm0,%xmm1
    39f0:	66 41 0f 5c c2       	subpd  %xmm10,%xmm0
    39f5:	f2 45 0f 58 cc       	addsd  %xmm12,%xmm9
    39fa:	f2 0f 10 c1          	movsd  %xmm1,%xmm0
    39fe:	f2 45 0f 11 0b       	movsd  %xmm9,(%r11)
    3a03:	41 0f 11 04 13       	movups %xmm0,(%r11,%rdx,1)
    3a08:	49 01 c3             	add    %rax,%r11
    3a0b:	83 eb 01             	sub    $0x1,%ebx
    3a0e:	0f 85 ac fe ff ff    	jne    38c0 <riscv_dsp_cfft_rd4_f64+0x11e0>
    3a14:	49 83 c0 10          	add    $0x10,%r8
    3a18:	4d 39 c4             	cmp    %r8,%r12
    3a1b:	0f 85 0f fe ff ff    	jne    3830 <riscv_dsp_cfft_rd4_f64+0x1150>
    3a21:	e9 c7 f5 ff ff       	jmp    2fed <riscv_dsp_cfft_rd4_f64+0x90d>
    3a26:	44 8d 9e 00 ff ff ff 	lea    -0x100(%rsi),%r11d
    3a2d:	44 89 d3             	mov    %r10d,%ebx
    3a30:	44 29 db             	sub    %r11d,%ebx
    3a33:	85 db                	test   %ebx,%ebx
    3a35:	0f 8e 80 00 00 00    	jle    3abb <riscv_dsp_cfft_rd4_f64+0x13db>
    3a3b:	48 63 db             	movslq %ebx,%rbx
    3a3e:	4d 63 db             	movslq %r11d,%r11
    3a41:	f2 41 0f 10 34 d9    	movsd  (%r9,%rbx,8),%xmm6
    3a47:	f2 43 0f 10 3c d9    	movsd  (%r9,%r11,8),%xmm7
    3a4d:	66 0f 57 35 7b 27 00 	xorpd  0x277b(%rip),%xmm6        # 61d0 <_IO_stdin_used+0x1d0>
    3a54:	00 
    3a55:	e9 4a fe ff ff       	jmp    38a4 <riscv_dsp_cfft_rd4_f64+0x11c4>
    3a5a:	44 8d 9e 00 ff ff ff 	lea    -0x100(%rsi),%r11d
    3a61:	44 89 d3             	mov    %r10d,%ebx
    3a64:	44 29 db             	sub    %r11d,%ebx
    3a67:	85 db                	test   %ebx,%ebx
    3a69:	0f 8e dc 00 00 00    	jle    3b4b <riscv_dsp_cfft_rd4_f64+0x146b>
    3a6f:	48 63 db             	movslq %ebx,%rbx
    3a72:	4d 63 db             	movslq %r11d,%r11
    3a75:	f2 41 0f 10 14 d9    	movsd  (%r9,%rbx,8),%xmm2
    3a7b:	f2 43 0f 10 24 d9    	movsd  (%r9,%r11,8),%xmm4
    3a81:	66 0f 57 15 47 27 00 	xorpd  0x2747(%rip),%xmm2        # 61d0 <_IO_stdin_used+0x1d0>
    3a88:	00 
    3a89:	e9 f0 fd ff ff       	jmp    387e <riscv_dsp_cfft_rd4_f64+0x119e>
    3a8e:	44 8d 9e 00 ff ff ff 	lea    -0x100(%rsi),%r11d
    3a95:	44 89 d3             	mov    %r10d,%ebx
    3a98:	44 29 db             	sub    %r11d,%ebx
    3a9b:	85 db                	test   %ebx,%ebx
    3a9d:	7e 64                	jle    3b03 <riscv_dsp_cfft_rd4_f64+0x1423>
    3a9f:	48 63 db             	movslq %ebx,%rbx
    3aa2:	4d 63 db             	movslq %r11d,%r11
    3aa5:	f2 41 0f 10 1c d9    	movsd  (%r9,%rbx,8),%xmm3
    3aab:	f2 43 0f 10 2c d9    	movsd  (%r9,%r11,8),%xmm5
    3ab1:	66 41 0f 57 d8       	xorpd  %xmm8,%xmm3
    3ab6:	e9 9d fd ff ff       	jmp    3858 <riscv_dsp_cfft_rd4_f64+0x1178>
    3abb:	81 ee 00 02 00 00    	sub    $0x200,%esi
    3ac1:	45 89 d3             	mov    %r10d,%r11d
    3ac4:	41 29 f3             	sub    %esi,%r11d
    3ac7:	48 63 f6             	movslq %esi,%rsi
    3aca:	49 63 db             	movslq %r11d,%rbx
    3acd:	f2 41 0f 10 3c f1    	movsd  (%r9,%rsi,8),%xmm7
    3ad3:	66 0f 57 3d f5 26 00 	xorpd  0x26f5(%rip),%xmm7        # 61d0 <_IO_stdin_used+0x1d0>
    3ada:	00 
    3adb:	f2 41 0f 10 34 d9    	movsd  (%r9,%rbx,8),%xmm6
    3ae1:	45 85 db             	test   %r11d,%r11d
    3ae4:	0f 8e ba fd ff ff    	jle    38a4 <riscv_dsp_cfft_rd4_f64+0x11c4>
    3aea:	66 0f 57 35 de 26 00 	xorpd  0x26de(%rip),%xmm6        # 61d0 <_IO_stdin_used+0x1d0>
    3af1:	00 
    3af2:	66 0f 28 c6          	movapd %xmm6,%xmm0
    3af6:	66 0f 28 f7          	movapd %xmm7,%xmm6
    3afa:	66 0f 28 f8          	movapd %xmm0,%xmm7
    3afe:	e9 a1 fd ff ff       	jmp    38a4 <riscv_dsp_cfft_rd4_f64+0x11c4>
    3b03:	81 ee 00 02 00 00    	sub    $0x200,%esi
    3b09:	45 89 d3             	mov    %r10d,%r11d
    3b0c:	41 29 f3             	sub    %esi,%r11d
    3b0f:	48 63 f6             	movslq %esi,%rsi
    3b12:	49 63 db             	movslq %r11d,%rbx
    3b15:	f2 41 0f 10 2c f1    	movsd  (%r9,%rsi,8),%xmm5
    3b1b:	66 0f 57 2d ad 26 00 	xorpd  0x26ad(%rip),%xmm5        # 61d0 <_IO_stdin_used+0x1d0>
    3b22:	00 
    3b23:	f2 41 0f 10 1c d9    	movsd  (%r9,%rbx,8),%xmm3
    3b29:	45 85 db             	test   %r11d,%r11d
    3b2c:	0f 8e 26 fd ff ff    	jle    3858 <riscv_dsp_cfft_rd4_f64+0x1178>
    3b32:	66 0f 57 1d 96 26 00 	xorpd  0x2696(%rip),%xmm3        # 61d0 <_IO_stdin_used+0x1d0>
    3b39:	00 
    3b3a:	66 0f 28 c3          	movapd %xmm3,%xmm0
    3b3e:	66 0f 28 dd          	movapd %xmm5,%xmm3
    3b42:	66 0f 28 e8          	movapd %xmm0,%xmm5
    3b46:	e9 0d fd ff ff       	jmp    3858 <riscv_dsp_cfft_rd4_f64+0x1178>
    3b4b:	81 ee 00 02 00 00    	sub    $0x200,%esi
    3b51:	45 89 d3             	mov    %r10d,%r11d
    3b54:	41 29 f3             	sub    %esi,%r11d
    3b57:	48 63 f6             	movslq %esi,%rsi
    3b5a:	49 63 db             	movslq %r11d,%rbx
    3b5d:	f2 41 0f 10 24 f1    	movsd  (%r9,%rsi,8),%xmm4
    3b63:	66 0f 57 25 65 26 00 	xorpd  0x2665(%rip),%xmm4        # 61d0 <_IO_stdin_used+0x1d0>
    3b6a:	00 
    3b6b:	f2 41 0f 10 14 d9    	movsd  (%r9,%rbx,8),%xmm2
    3b71:	45 85 db             	test   %r11d,%r11d
    3b74:	0f 8e 04 fd ff ff    	jle    387e <riscv_dsp_cfft_rd4_f64+0x119e>
    3b7a:	66 0f 28 c2          	movapd %xmm2,%xmm0
    3b7e:	66 0f 57 05 4a 26 00 	xorpd  0x264a(%rip),%xmm0        # 61d0 <_IO_stdin_used+0x1d0>
    3b85:	00 
    3b86:	66 0f 28 d4          	movapd %xmm4,%xmm2
    3b8a:	66 0f 28 e0          	movapd %xmm0,%xmm4
    3b8e:	e9 eb fc ff ff       	jmp    387e <riscv_dsp_cfft_rd4_f64+0x119e>
    3b93:	5b                   	pop    %rbx
    3b94:	31 c0                	xor    %eax,%eax
    3b96:	5d                   	pop    %rbp
    3b97:	41 5c                	pop    %r12
    3b99:	41 5d                	pop    %r13
    3b9b:	41 5e                	pop    %r14
    3b9d:	41 5f                	pop    %r15
    3b9f:	c3                   	ret    

0000000000003ba0 <riscv_dsp_cifft_rd4_f64>:
    3ba0:	f3 0f 1e fa          	endbr64 
    3ba4:	41 57                	push   %r15
    3ba6:	89 f1                	mov    %esi,%ecx
    3ba8:	b8 01 00 00 00       	mov    $0x1,%eax
    3bad:	f3 44 0f 7e 0d 1a 26 	movq   0x261a(%rip),%xmm9        # 61d0 <_IO_stdin_used+0x1d0>
    3bb4:	00 00 
    3bb6:	41 56                	push   %r14
    3bb8:	d3 e0                	shl    %cl,%eax
    3bba:	49 89 fe             	mov    %rdi,%r14
    3bbd:	41 55                	push   %r13
    3bbf:	41 54                	push   %r12
    3bc1:	55                   	push   %rbp
    3bc2:	53                   	push   %rbx
    3bc3:	f2 0f 10 07          	movsd  (%rdi),%xmm0
    3bc7:	f2 0f 10 67 08       	movsd  0x8(%rdi),%xmm4
    3bcc:	66 0f 28 f0          	movapd %xmm0,%xmm6
    3bd0:	89 44 24 f0          	mov    %eax,-0x10(%rsp)
    3bd4:	d1 e8                	shr    %eax
    3bd6:	89 74 24 ec          	mov    %esi,-0x14(%rsp)
    3bda:	89 c6                	mov    %eax,%esi
    3bdc:	48 c1 e6 03          	shl    $0x3,%rsi
    3be0:	89 44 24 f4          	mov    %eax,-0xc(%rsp)
    3be4:	4c 8d 1c 37          	lea    (%rdi,%rsi,1),%r11
    3be8:	49 8d 04 33          	lea    (%r11,%rsi,1),%rax
    3bec:	f2 0f 10 08          	movsd  (%rax),%xmm1
    3bf0:	48 8d 14 30          	lea    (%rax,%rsi,1),%rdx
    3bf4:	f2 0f 10 12          	movsd  (%rdx),%xmm2
    3bf8:	f2 0f 58 f1          	addsd  %xmm1,%xmm6
    3bfc:	f2 0f 5c c1          	subsd  %xmm1,%xmm0
    3c00:	f2 41 0f 10 0b       	movsd  (%r11),%xmm1
    3c05:	66 44 0f 28 c1       	movapd %xmm1,%xmm8
    3c0a:	f2 0f 5c ca          	subsd  %xmm2,%xmm1
    3c0e:	f2 44 0f 58 c2       	addsd  %xmm2,%xmm8
    3c13:	66 0f 28 d6          	movapd %xmm6,%xmm2
    3c17:	f2 41 0f 58 d0       	addsd  %xmm8,%xmm2
    3c1c:	f2 41 0f 5c f0       	subsd  %xmm8,%xmm6
    3c21:	f2 0f 11 17          	movsd  %xmm2,(%rdi)
    3c25:	f2 0f 10 58 08       	movsd  0x8(%rax),%xmm3
    3c2a:	f2 41 0f 10 7b 08    	movsd  0x8(%r11),%xmm7
    3c30:	66 0f 28 d3          	movapd %xmm3,%xmm2
    3c34:	f2 0f 5c dc          	subsd  %xmm4,%xmm3
    3c38:	66 41 0f 57 d1       	xorpd  %xmm9,%xmm2
    3c3d:	f2 0f 5c d4          	subsd  %xmm4,%xmm2
    3c41:	f2 0f 10 62 08       	movsd  0x8(%rdx),%xmm4
    3c46:	66 0f 28 ec          	movapd %xmm4,%xmm5
    3c4a:	f2 0f 5c e7          	subsd  %xmm7,%xmm4
    3c4e:	66 41 0f 57 e9       	xorpd  %xmm9,%xmm5
    3c53:	f2 0f 5c ef          	subsd  %xmm7,%xmm5
    3c57:	66 0f 28 fa          	movapd %xmm2,%xmm7
    3c5b:	f2 0f 58 fd          	addsd  %xmm5,%xmm7
    3c5f:	f2 0f 5c d5          	subsd  %xmm5,%xmm2
    3c63:	66 0f 28 eb          	movapd %xmm3,%xmm5
    3c67:	f2 0f 5c e9          	subsd  %xmm1,%xmm5
    3c6b:	f2 0f 58 cb          	addsd  %xmm3,%xmm1
    3c6f:	f2 0f 11 7f 08       	movsd  %xmm7,0x8(%rdi)
    3c74:	f2 41 0f 11 53 08    	movsd  %xmm2,0x8(%r11)
    3c7a:	66 0f 28 d0          	movapd %xmm0,%xmm2
    3c7e:	f2 0f 5c c4          	subsd  %xmm4,%xmm0
    3c82:	f2 0f 58 d4          	addsd  %xmm4,%xmm2
    3c86:	f2 41 0f 11 33       	movsd  %xmm6,(%r11)
    3c8b:	66 0f 14 c1          	unpcklpd %xmm1,%xmm0
    3c8f:	66 0f 14 d5          	unpcklpd %xmm5,%xmm2
    3c93:	0f 11 10             	movups %xmm2,(%rax)
    3c96:	48 8d 47 10          	lea    0x10(%rdi),%rax
    3c9a:	48 89 44 24 c8       	mov    %rax,-0x38(%rsp)
    3c9f:	0f 11 02             	movups %xmm0,(%rdx)
    3ca2:	49 39 c3             	cmp    %rax,%r11
    3ca5:	0f 84 1f 03 00 00    	je     3fca <riscv_dsp_cifft_rd4_f64+0x42a>
    3cab:	b9 0a 00 00 00       	mov    $0xa,%ecx
    3cb0:	48 8d 54 77 10       	lea    0x10(%rdi,%rsi,2),%rdx
    3cb5:	45 31 c9             	xor    %r9d,%r9d
    3cb8:	2b 4c 24 ec          	sub    -0x14(%rsp),%ecx
    3cbc:	4c 8d 05 6d 35 00 00 	lea    0x356d(%rip),%r8        # 7230 <riscv_dsp_cos_table_f64_1024+0x10>
    3cc3:	41 ba 00 01 00 00    	mov    $0x100,%r10d
    3cc9:	e9 13 01 00 00       	jmp    3de1 <riscv_dsp_cifft_rd4_f64+0x241>
    3cce:	48 63 ff             	movslq %edi,%rdi
    3cd1:	48 63 db             	movslq %ebx,%rbx
    3cd4:	f2 41 0f 10 3c f8    	movsd  (%r8,%rdi,8),%xmm7
    3cda:	f2 45 0f 10 04 d8    	movsd  (%r8,%rbx,8),%xmm8
    3ce0:	66 0f 28 e3          	movapd %xmm3,%xmm4
    3ce4:	66 44 0f 28 d0       	movapd %xmm0,%xmm10
    3ce9:	44 89 cf             	mov    %r9d,%edi
    3cec:	44 89 d3             	mov    %r10d,%ebx
    3cef:	f2 0f 59 e7          	mulsd  %xmm7,%xmm4
    3cf3:	d3 e7                	shl    %cl,%edi
    3cf5:	f2 45 0f 59 d0       	mulsd  %xmm8,%xmm10
    3cfa:	29 fb                	sub    %edi,%ebx
    3cfc:	f2 41 0f 59 d8       	mulsd  %xmm8,%xmm3
    3d01:	f2 0f 59 c7          	mulsd  %xmm7,%xmm0
    3d05:	f2 41 0f 58 e2       	addsd  %xmm10,%xmm4
    3d0a:	f2 0f 5c c3          	subsd  %xmm3,%xmm0
    3d0e:	66 0f 28 dd          	movapd %xmm5,%xmm3
    3d12:	f2 0f 5c da          	subsd  %xmm2,%xmm3
    3d16:	f2 0f 11 24 30       	movsd  %xmm4,(%rax,%rsi,1)
    3d1b:	66 0f 28 e1          	movapd %xmm1,%xmm4
    3d1f:	f2 0f 58 d5          	addsd  %xmm5,%xmm2
    3d23:	f2 0f 58 e6          	addsd  %xmm6,%xmm4
    3d27:	f2 0f 5c ce          	subsd  %xmm6,%xmm1
    3d2b:	f2 0f 11 44 30 08    	movsd  %xmm0,0x8(%rax,%rsi,1)
    3d31:	66 0f 28 f3          	movapd %xmm3,%xmm6
    3d35:	66 0f 14 f4          	unpcklpd %xmm4,%xmm6
    3d39:	66 0f 14 e3          	unpcklpd %xmm3,%xmm4
    3d3d:	66 0f 28 da          	movapd %xmm2,%xmm3
    3d41:	66 0f 14 d9          	unpcklpd %xmm1,%xmm3
    3d45:	66 0f 14 ca          	unpcklpd %xmm2,%xmm1
    3d49:	85 db                	test   %ebx,%ebx
    3d4b:	0f 8e 88 01 00 00    	jle    3ed9 <riscv_dsp_cifft_rd4_f64+0x339>
    3d51:	48 63 ff             	movslq %edi,%rdi
    3d54:	48 63 db             	movslq %ebx,%rbx
    3d57:	f2 41 0f 10 04 f8    	movsd  (%r8,%rdi,8),%xmm0
    3d5d:	f2 41 0f 10 14 d8    	movsd  (%r8,%rbx,8),%xmm2
    3d63:	66 0f 14 c0          	unpcklpd %xmm0,%xmm0
    3d67:	66 0f 14 d2          	unpcklpd %xmm2,%xmm2
    3d6b:	43 8d 3c 49          	lea    (%r9,%r9,2),%edi
    3d6f:	44 89 d3             	mov    %r10d,%ebx
    3d72:	66 0f 59 c4          	mulpd  %xmm4,%xmm0
    3d76:	d3 e7                	shl    %cl,%edi
    3d78:	66 0f 59 d6          	mulpd  %xmm6,%xmm2
    3d7c:	29 fb                	sub    %edi,%ebx
    3d7e:	66 0f 28 e0          	movapd %xmm0,%xmm4
    3d82:	66 0f 58 e2          	addpd  %xmm2,%xmm4
    3d86:	66 0f 5c c2          	subpd  %xmm2,%xmm0
    3d8a:	f2 0f 10 c4          	movsd  %xmm4,%xmm0
    3d8e:	0f 11 02             	movups %xmm0,(%rdx)
    3d91:	85 db                	test   %ebx,%ebx
    3d93:	0f 8e 11 01 00 00    	jle    3eaa <riscv_dsp_cifft_rd4_f64+0x30a>
    3d99:	48 63 ff             	movslq %edi,%rdi
    3d9c:	48 63 db             	movslq %ebx,%rbx
    3d9f:	f2 41 0f 10 04 f8    	movsd  (%r8,%rdi,8),%xmm0
    3da5:	f2 41 0f 10 14 d8    	movsd  (%r8,%rbx,8),%xmm2
    3dab:	66 0f 14 d2          	unpcklpd %xmm2,%xmm2
    3daf:	66 0f 14 c0          	unpcklpd %xmm0,%xmm0
    3db3:	48 83 c0 10          	add    $0x10,%rax
    3db7:	48 83 c2 10          	add    $0x10,%rdx
    3dbb:	66 0f 59 d3          	mulpd  %xmm3,%xmm2
    3dbf:	66 0f 59 c1          	mulpd  %xmm1,%xmm0
    3dc3:	66 0f 28 ca          	movapd %xmm2,%xmm1
    3dc7:	66 0f 58 c8          	addpd  %xmm0,%xmm1
    3dcb:	66 0f 5c c2          	subpd  %xmm2,%xmm0
    3dcf:	f2 0f 10 c1          	movsd  %xmm1,%xmm0
    3dd3:	0f 11 44 32 f0       	movups %xmm0,-0x10(%rdx,%rsi,1)
    3dd8:	49 39 c3             	cmp    %rax,%r11
    3ddb:	0f 84 e9 01 00 00    	je     3fca <riscv_dsp_cifft_rd4_f64+0x42a>
    3de1:	f2 0f 10 08          	movsd  (%rax),%xmm1
    3de5:	f2 0f 10 02          	movsd  (%rdx),%xmm0
    3de9:	41 83 c1 01          	add    $0x1,%r9d
    3ded:	44 89 d3             	mov    %r10d,%ebx
    3df0:	f2 0f 10 2c 32       	movsd  (%rdx,%rsi,1),%xmm5
    3df5:	43 8d 3c 09          	lea    (%r9,%r9,1),%edi
    3df9:	66 0f 28 d9          	movapd %xmm1,%xmm3
    3dfd:	f2 0f 5c c8          	subsd  %xmm0,%xmm1
    3e01:	d3 e7                	shl    %cl,%edi
    3e03:	f2 0f 58 d8          	addsd  %xmm0,%xmm3
    3e07:	f2 0f 10 04 30       	movsd  (%rax,%rsi,1),%xmm0
    3e0c:	29 fb                	sub    %edi,%ebx
    3e0e:	66 0f 28 e0          	movapd %xmm0,%xmm4
    3e12:	f2 0f 5c c5          	subsd  %xmm5,%xmm0
    3e16:	f2 0f 58 e5          	addsd  %xmm5,%xmm4
    3e1a:	66 0f 28 d0          	movapd %xmm0,%xmm2
    3e1e:	66 0f 28 c3          	movapd %xmm3,%xmm0
    3e22:	f2 0f 58 c4          	addsd  %xmm4,%xmm0
    3e26:	f2 0f 5c dc          	subsd  %xmm4,%xmm3
    3e2a:	f2 0f 10 60 08       	movsd  0x8(%rax),%xmm4
    3e2f:	f2 0f 11 00          	movsd  %xmm0,(%rax)
    3e33:	f2 0f 10 6a 08       	movsd  0x8(%rdx),%xmm5
    3e38:	f2 0f 10 74 32 08    	movsd  0x8(%rdx,%rsi,1),%xmm6
    3e3e:	f2 0f 10 7c 30 08    	movsd  0x8(%rax,%rsi,1),%xmm7
    3e44:	66 0f 28 c5          	movapd %xmm5,%xmm0
    3e48:	f2 0f 5c ec          	subsd  %xmm4,%xmm5
    3e4c:	66 41 0f 57 c1       	xorpd  %xmm9,%xmm0
    3e51:	f2 0f 5c c4          	subsd  %xmm4,%xmm0
    3e55:	66 0f 28 e6          	movapd %xmm6,%xmm4
    3e59:	f2 0f 5c f7          	subsd  %xmm7,%xmm6
    3e5d:	66 41 0f 57 e1       	xorpd  %xmm9,%xmm4
    3e62:	f2 0f 5c e7          	subsd  %xmm7,%xmm4
    3e66:	66 0f 28 f8          	movapd %xmm0,%xmm7
    3e6a:	f2 0f 58 fc          	addsd  %xmm4,%xmm7
    3e6e:	f2 0f 5c c4          	subsd  %xmm4,%xmm0
    3e72:	f2 0f 11 78 08       	movsd  %xmm7,0x8(%rax)
    3e77:	85 db                	test   %ebx,%ebx
    3e79:	0f 8f 4f fe ff ff    	jg     3cce <riscv_dsp_cifft_rd4_f64+0x12e>
    3e7f:	8d 9f 00 ff ff ff    	lea    -0x100(%rdi),%ebx
    3e85:	44 89 d5             	mov    %r10d,%ebp
    3e88:	29 dd                	sub    %ebx,%ebp
    3e8a:	85 ed                	test   %ebp,%ebp
    3e8c:	7e 7a                	jle    3f08 <riscv_dsp_cifft_rd4_f64+0x368>
    3e8e:	48 63 ed             	movslq %ebp,%rbp
    3e91:	48 63 db             	movslq %ebx,%rbx
    3e94:	f2 41 0f 10 3c e8    	movsd  (%r8,%rbp,8),%xmm7
    3e9a:	f2 45 0f 10 04 d8    	movsd  (%r8,%rbx,8),%xmm8
    3ea0:	66 41 0f 57 f9       	xorpd  %xmm9,%xmm7
    3ea5:	e9 36 fe ff ff       	jmp    3ce0 <riscv_dsp_cifft_rd4_f64+0x140>
    3eaa:	8d 9f 00 ff ff ff    	lea    -0x100(%rdi),%ebx
    3eb0:	44 89 d5             	mov    %r10d,%ebp
    3eb3:	29 dd                	sub    %ebx,%ebp
    3eb5:	85 ed                	test   %ebp,%ebp
    3eb7:	0f 8e 8d 00 00 00    	jle    3f4a <riscv_dsp_cifft_rd4_f64+0x3aa>
    3ebd:	48 63 ed             	movslq %ebp,%rbp
    3ec0:	48 63 db             	movslq %ebx,%rbx
    3ec3:	f2 41 0f 10 04 e8    	movsd  (%r8,%rbp,8),%xmm0
    3ec9:	f2 41 0f 10 14 d8    	movsd  (%r8,%rbx,8),%xmm2
    3ecf:	66 41 0f 57 c1       	xorpd  %xmm9,%xmm0
    3ed4:	e9 d2 fe ff ff       	jmp    3dab <riscv_dsp_cifft_rd4_f64+0x20b>
    3ed9:	8d 9f 00 ff ff ff    	lea    -0x100(%rdi),%ebx
    3edf:	44 89 d5             	mov    %r10d,%ebp
    3ee2:	29 dd                	sub    %ebx,%ebp
    3ee4:	85 ed                	test   %ebp,%ebp
    3ee6:	0f 8e 9e 00 00 00    	jle    3f8a <riscv_dsp_cifft_rd4_f64+0x3ea>
    3eec:	48 63 ed             	movslq %ebp,%rbp
    3eef:	48 63 db             	movslq %ebx,%rbx
    3ef2:	f2 41 0f 10 04 e8    	movsd  (%r8,%rbp,8),%xmm0
    3ef8:	f2 41 0f 10 14 d8    	movsd  (%r8,%rbx,8),%xmm2
    3efe:	66 41 0f 57 c1       	xorpd  %xmm9,%xmm0
    3f03:	e9 5b fe ff ff       	jmp    3d63 <riscv_dsp_cifft_rd4_f64+0x1c3>
    3f08:	81 ef 00 02 00 00    	sub    $0x200,%edi
    3f0e:	44 89 d3             	mov    %r10d,%ebx
    3f11:	29 fb                	sub    %edi,%ebx
    3f13:	48 63 ff             	movslq %edi,%rdi
    3f16:	f2 45 0f 10 04 f8    	movsd  (%r8,%rdi,8),%xmm8
    3f1c:	48 63 eb             	movslq %ebx,%rbp
    3f1f:	f2 41 0f 10 3c e8    	movsd  (%r8,%rbp,8),%xmm7
    3f25:	66 45 0f 57 c1       	xorpd  %xmm9,%xmm8
    3f2a:	85 db                	test   %ebx,%ebx
    3f2c:	0f 8e ae fd ff ff    	jle    3ce0 <riscv_dsp_cifft_rd4_f64+0x140>
    3f32:	66 41 0f 57 f9       	xorpd  %xmm9,%xmm7
    3f37:	66 0f 28 e7          	movapd %xmm7,%xmm4
    3f3b:	66 41 0f 28 f8       	movapd %xmm8,%xmm7
    3f40:	66 44 0f 28 c4       	movapd %xmm4,%xmm8
    3f45:	e9 96 fd ff ff       	jmp    3ce0 <riscv_dsp_cifft_rd4_f64+0x140>
    3f4a:	81 ef 00 02 00 00    	sub    $0x200,%edi
    3f50:	44 89 d3             	mov    %r10d,%ebx
    3f53:	29 fb                	sub    %edi,%ebx
    3f55:	48 63 ff             	movslq %edi,%rdi
    3f58:	f2 41 0f 10 14 f8    	movsd  (%r8,%rdi,8),%xmm2
    3f5e:	48 63 eb             	movslq %ebx,%rbp
    3f61:	f2 41 0f 10 04 e8    	movsd  (%r8,%rbp,8),%xmm0
    3f67:	66 41 0f 57 d1       	xorpd  %xmm9,%xmm2
    3f6c:	85 db                	test   %ebx,%ebx
    3f6e:	0f 8e 37 fe ff ff    	jle    3dab <riscv_dsp_cifft_rd4_f64+0x20b>
    3f74:	66 0f 28 e0          	movapd %xmm0,%xmm4
    3f78:	66 0f 28 c2          	movapd %xmm2,%xmm0
    3f7c:	66 41 0f 57 e1       	xorpd  %xmm9,%xmm4
    3f81:	66 0f 28 d4          	movapd %xmm4,%xmm2
    3f85:	e9 21 fe ff ff       	jmp    3dab <riscv_dsp_cifft_rd4_f64+0x20b>
    3f8a:	81 ef 00 02 00 00    	sub    $0x200,%edi
    3f90:	44 89 d3             	mov    %r10d,%ebx
    3f93:	29 fb                	sub    %edi,%ebx
    3f95:	48 63 ff             	movslq %edi,%rdi
    3f98:	f2 41 0f 10 14 f8    	movsd  (%r8,%rdi,8),%xmm2
    3f9e:	48 63 eb             	movslq %ebx,%rbp
    3fa1:	f2 41 0f 10 04 e8    	movsd  (%r8,%rbp,8),%xmm0
    3fa7:	66 41 0f 57 d1       	xorpd  %xmm9,%xmm2
    3fac:	85 db                	test   %ebx,%ebx
    3fae:	0f 8e af fd ff ff    	jle    3d63 <riscv_dsp_cifft_rd4_f64+0x1c3>
    3fb4:	66 0f 28 e8          	movapd %xmm0,%xmm5
    3fb8:	66 0f 28 c2          	movapd %xmm2,%xmm0
    3fbc:	66 41 0f 57 e9       	xorpd  %xmm9,%xmm5
    3fc1:	66 0f 28 d5          	movapd %xmm5,%xmm2
    3fc5:	e9 99 fd ff ff       	jmp    3d63 <riscv_dsp_cifft_rd4_f64+0x1c3>
    3fca:	8b 5c 24 ec          	mov    -0x14(%rsp),%ebx
    3fce:	8b 4c 24 f4          	mov    -0xc(%rsp),%ecx
    3fd2:	41 bd 04 00 00 00    	mov    $0x4,%r13d
    3fd8:	89 d8                	mov    %ebx,%eax
    3fda:	89 4c 24 d8          	mov    %ecx,-0x28(%rsp)
    3fde:	d1 e8                	shr    %eax
    3fe0:	83 e8 02             	sub    $0x2,%eax
    3fe3:	89 44 24 dc          	mov    %eax,-0x24(%rsp)
    3fe7:	0f 84 be 04 00 00    	je     44ab <riscv_dsp_cifft_rd4_f64+0x90b>
    3fed:	49 8d 46 08          	lea    0x8(%r14),%rax
    3ff1:	4c 8d 0d 38 32 00 00 	lea    0x3238(%rip),%r9        # 7230 <riscv_dsp_cos_table_f64_1024+0x10>
    3ff8:	41 bc 00 01 00 00    	mov    $0x100,%r12d
    3ffe:	48 89 44 24 e0       	mov    %rax,-0x20(%rsp)
    4003:	b8 0a 00 00 00       	mov    $0xa,%eax
    4008:	29 d8                	sub    %ebx,%eax
    400a:	89 44 24 e8          	mov    %eax,-0x18(%rsp)
    400e:	4c 89 f0             	mov    %r14,%rax
    4011:	45 89 ee             	mov    %r13d,%r14d
    4014:	49 89 c5             	mov    %rax,%r13
    4017:	66 0f 1f 84 00 00 00 	nopw   0x0(%rax,%rax,1)
    401e:	00 00 
    4020:	c1 6c 24 d8 02       	shrl   $0x2,-0x28(%rsp)
    4025:	44 8b 44 24 d8       	mov    -0x28(%rsp),%r8d
    402a:	4a 8d 14 c5 00 00 00 	lea    0x0(,%r8,8),%rdx
    4031:	00 
    4032:	49 8d 6c 15 00       	lea    0x0(%r13,%rdx,1),%rbp
    4037:	45 85 f6             	test   %r14d,%r14d
    403a:	0f 84 bb 00 00 00    	je     40fb <riscv_dsp_cifft_rd4_f64+0x55b>
    4040:	48 8b 5c 24 e0       	mov    -0x20(%rsp),%rbx
    4045:	4c 89 c0             	mov    %r8,%rax
    4048:	48 8d 74 15 00       	lea    0x0(%rbp,%rdx,1),%rsi
    404d:	48 c1 e0 04          	shl    $0x4,%rax
    4051:	48 8d 3c 16          	lea    (%rsi,%rdx,1),%rdi
    4055:	48 39 dd             	cmp    %rbx,%rbp
    4058:	41 0f 97 c2          	seta   %r10b
    405c:	48 39 f3             	cmp    %rsi,%rbx
    405f:	0f 92 c1             	setb   %cl
    4062:	41 84 ca             	test   %cl,%r10b
    4065:	0f 84 05 0c 00 00    	je     4c70 <riscv_dsp_cifft_rd4_f64+0x10d0>
    406b:	48 39 fb             	cmp    %rdi,%rbx
    406e:	0f 83 fc 0b 00 00    	jae    4c70 <riscv_dsp_cifft_rd4_f64+0x10d0>
    4074:	4d 89 c2             	mov    %r8,%r10
    4077:	31 c0                	xor    %eax,%eax
    4079:	31 c9                	xor    %ecx,%ecx
    407b:	49 c1 e2 05          	shl    $0x5,%r10
    407f:	90                   	nop
    4080:	66 0f 10 34 06       	movupd (%rsi,%rax,1),%xmm6
    4085:	66 0f 10 2c 07       	movupd (%rdi,%rax,1),%xmm5
    408a:	83 c1 01             	add    $0x1,%ecx
    408d:	66 41 0f 10 54 05 00 	movupd 0x0(%r13,%rax,1),%xmm2
    4094:	66 0f 10 44 05 00    	movupd 0x0(%rbp,%rax,1),%xmm0
    409a:	66 41 0f 10 4c 05 00 	movupd 0x0(%r13,%rax,1),%xmm1
    40a1:	66 0f 10 64 05 00    	movupd 0x0(%rbp,%rax,1),%xmm4
    40a7:	66 0f 5c d6          	subpd  %xmm6,%xmm2
    40ab:	66 0f 5c c5          	subpd  %xmm5,%xmm0
    40af:	66 0f 58 ce          	addpd  %xmm6,%xmm1
    40b3:	66 0f 58 e5          	addpd  %xmm5,%xmm4
    40b7:	66 0f c6 c0 01       	shufpd $0x1,%xmm0,%xmm0
    40bc:	66 0f 28 da          	movapd %xmm2,%xmm3
    40c0:	66 0f 5c d0          	subpd  %xmm0,%xmm2
    40c4:	66 0f 58 d8          	addpd  %xmm0,%xmm3
    40c8:	66 0f 28 c1          	movapd %xmm1,%xmm0
    40cc:	66 0f 5c cc          	subpd  %xmm4,%xmm1
    40d0:	66 0f 58 c4          	addpd  %xmm4,%xmm0
    40d4:	66 0f 28 fa          	movapd %xmm2,%xmm7
    40d8:	f2 0f 10 fb          	movsd  %xmm3,%xmm7
    40dc:	f2 0f 10 da          	movsd  %xmm2,%xmm3
    40e0:	41 0f 11 44 05 00    	movups %xmm0,0x0(%r13,%rax,1)
    40e6:	0f 11 4c 05 00       	movups %xmm1,0x0(%rbp,%rax,1)
    40eb:	0f 11 3c 06          	movups %xmm7,(%rsi,%rax,1)
    40ef:	0f 11 1c 07          	movups %xmm3,(%rdi,%rax,1)
    40f3:	4c 01 d0             	add    %r10,%rax
    40f6:	41 39 ce             	cmp    %ecx,%r14d
    40f9:	75 85                	jne    4080 <riscv_dsp_cifft_rd4_f64+0x4e0>
    40fb:	48 39 6c 24 c8       	cmp    %rbp,-0x38(%rsp)
    4100:	0f 84 93 03 00 00    	je     4499 <riscv_dsp_cifft_rd4_f64+0x8f9>
    4106:	4b 8d 3c 00          	lea    (%r8,%r8,1),%rdi
    410a:	4c 89 c0             	mov    %r8,%rax
    410d:	4d 89 c7             	mov    %r8,%r15
    4110:	48 8d 34 3a          	lea    (%rdx,%rdi,1),%rsi
    4114:	4a 8d 0c 07          	lea    (%rdi,%r8,1),%rcx
    4118:	49 c1 e7 04          	shl    $0x4,%r15
    411c:	48 c1 e0 05          	shl    $0x5,%rax
    4120:	48 8d 1c b5 08 00 00 	lea    0x8(,%rsi,4),%rbx
    4127:	00 
    4128:	48 01 fe             	add    %rdi,%rsi
    412b:	48 c1 e1 03          	shl    $0x3,%rcx
    412f:	4c 8d 1c 95 08 00 00 	lea    0x8(,%rdx,4),%r11
    4136:	00 
    4137:	48 89 5c 24 b0       	mov    %rbx,-0x50(%rsp)
    413c:	4c 8d 54 3e 02       	lea    0x2(%rsi,%rdi,1),%r10
    4141:	48 8d 1c b5 08 00 00 	lea    0x8(,%rsi,4),%rbx
    4148:	00 
    4149:	41 8d 76 ff          	lea    -0x1(%r14),%esi
    414d:	49 c1 e2 02          	shl    $0x2,%r10
    4151:	83 fe 01             	cmp    $0x1,%esi
    4154:	40 0f 97 c6          	seta   %sil
    4158:	48 85 d2             	test   %rdx,%rdx
    415b:	40 0f 95 c7          	setne  %dil
    415f:	21 f7                	and    %esi,%edi
    4161:	48 83 f8 0f          	cmp    $0xf,%rax
    4165:	40 0f 97 c6          	seta   %sil
    4169:	21 f7                	and    %esi,%edi
    416b:	48 39 da             	cmp    %rbx,%rdx
    416e:	40 0f 9f c6          	setg   %sil
    4172:	4c 3b 7c 24 b0       	cmp    -0x50(%rsp),%r15
    4177:	0f 9f 44 24 b8       	setg   -0x48(%rsp)
    417c:	40 0a 74 24 b8       	or     -0x48(%rsp),%sil
    4181:	21 fe                	and    %edi,%esi
    4183:	49 39 d2             	cmp    %rdx,%r10
    4186:	40 0f 9c c7          	setl   %dil
    418a:	48 3b 4c 24 b0       	cmp    -0x50(%rsp),%rcx
    418f:	0f 9f 44 24 b0       	setg   -0x50(%rsp)
    4194:	40 0a 7c 24 b0       	or     -0x50(%rsp),%dil
    4199:	21 f7                	and    %esi,%edi
    419b:	49 39 d3             	cmp    %rdx,%r11
    419e:	40 0f 9c c6          	setl   %sil
    41a2:	21 fe                	and    %edi,%esi
    41a4:	4d 39 fa             	cmp    %r15,%r10
    41a7:	40 0f 9c c7          	setl   %dil
    41ab:	48 39 d9             	cmp    %rbx,%rcx
    41ae:	41 0f 9f c2          	setg   %r10b
    41b2:	44 09 d7             	or     %r10d,%edi
    41b5:	21 f7                	and    %esi,%edi
    41b7:	4d 39 fb             	cmp    %r15,%r11
    41ba:	40 0f 9c c6          	setl   %sil
    41be:	40 84 f7             	test   %sil,%dil
    41c1:	0f 84 7e 0b 00 00    	je     4d45 <riscv_dsp_cifft_rd4_f64+0x11a5>
    41c7:	49 39 cb             	cmp    %rcx,%r11
    41ca:	0f 8d 75 0b 00 00    	jge    4d45 <riscv_dsp_cifft_rd4_f64+0x11a5>
    41d0:	49 8d 5c 15 10       	lea    0x10(%r13,%rdx,1),%rbx
    41d5:	48 89 6c 24 c0       	mov    %rbp,-0x40(%rsp)
    41da:	45 89 f3             	mov    %r14d,%r11d
    41dd:	45 31 d2             	xor    %r10d,%r10d
    41e0:	4c 89 6c 24 d0       	mov    %r13,-0x30(%rsp)
    41e5:	4b 8d 7c 3d 10       	lea    0x10(%r13,%r15,1),%rdi
    41ea:	41 d1 eb             	shr    %r11d
    41ed:	49 c1 e0 06          	shl    $0x6,%r8
    41f1:	48 89 5c 24 b8       	mov    %rbx,-0x48(%rsp)
    41f6:	4d 8d 7c 0d 10       	lea    0x10(%r13,%rcx,1),%r15
    41fb:	48 8b 5c 24 c8       	mov    -0x38(%rsp),%rbx
    4200:	8b 4c 24 e8          	mov    -0x18(%rsp),%ecx
    4204:	44 89 74 24 b0       	mov    %r14d,-0x50(%rsp)
    4209:	49 89 fe             	mov    %rdi,%r14
    420c:	0f 1f 40 00          	nopl   0x0(%rax)
    4210:	44 03 54 24 b0       	add    -0x50(%rsp),%r10d
    4215:	44 89 e6             	mov    %r12d,%esi
    4218:	44 89 d2             	mov    %r10d,%edx
    421b:	d3 e2                	shl    %cl,%edx
    421d:	29 d6                	sub    %edx,%esi
    421f:	85 f6                	test   %esi,%esi
    4221:	0f 8e 49 09 00 00    	jle    4b70 <riscv_dsp_cifft_rd4_f64+0xfd0>
    4227:	48 63 d2             	movslq %edx,%rdx
    422a:	48 63 f6             	movslq %esi,%rsi
    422d:	f2 41 0f 10 24 d1    	movsd  (%r9,%rdx,8),%xmm4
    4233:	f2 41 0f 10 3c f1    	movsd  (%r9,%rsi,8),%xmm7
    4239:	43 8d 14 12          	lea    (%r10,%r10,1),%edx
    423d:	44 89 e6             	mov    %r12d,%esi
    4240:	d3 e2                	shl    %cl,%edx
    4242:	29 d6                	sub    %edx,%esi
    4244:	85 f6                	test   %esi,%esi
    4246:	0f 8e b4 08 00 00    	jle    4b00 <riscv_dsp_cifft_rd4_f64+0xf60>
    424c:	48 63 d2             	movslq %edx,%rdx
    424f:	48 63 f6             	movslq %esi,%rsi
    4252:	f2 41 0f 10 2c d1    	movsd  (%r9,%rdx,8),%xmm5
    4258:	f2 45 0f 10 04 f1    	movsd  (%r9,%rsi,8),%xmm8
    425e:	43 8d 14 52          	lea    (%r10,%r10,2),%edx
    4262:	44 89 e6             	mov    %r12d,%esi
    4265:	d3 e2                	shl    %cl,%edx
    4267:	29 d6                	sub    %edx,%esi
    4269:	85 f6                	test   %esi,%esi
    426b:	0f 8e cc 08 00 00    	jle    4b3d <riscv_dsp_cifft_rd4_f64+0xf9d>
    4271:	48 63 d2             	movslq %edx,%rdx
    4274:	48 63 f6             	movslq %esi,%rsi
    4277:	f2 41 0f 10 1c d1    	movsd  (%r9,%rdx,8),%xmm3
    427d:	f2 41 0f 10 34 f1    	movsd  (%r9,%rsi,8),%xmm6
    4283:	8b 54 24 b0          	mov    -0x50(%rsp),%edx
    4287:	85 d2                	test   %edx,%edx
    4289:	0f 84 e3 01 00 00    	je     4472 <riscv_dsp_cifft_rd4_f64+0x8d2>
    428f:	48 8b 74 24 b8       	mov    -0x48(%rsp),%rsi
    4294:	66 0f 14 ed          	unpcklpd %xmm5,%xmm5
    4298:	66 0f 14 e4          	unpcklpd %xmm4,%xmm4
    429c:	48 89 dd             	mov    %rbx,%rbp
    429f:	66 45 0f 14 c0       	unpcklpd %xmm8,%xmm8
    42a4:	66 0f 14 ff          	unpcklpd %xmm7,%xmm7
    42a8:	66 0f 14 db          	unpcklpd %xmm3,%xmm3
    42ac:	4c 89 f7             	mov    %r14,%rdi
    42af:	66 0f 14 f6          	unpcklpd %xmm6,%xmm6
    42b3:	4c 89 fa             	mov    %r15,%rdx
    42b6:	45 31 ed             	xor    %r13d,%r13d
    42b9:	0f 1f 80 00 00 00 00 	nopl   0x0(%rax)
    42c0:	f2 0f 10 0f          	movsd  (%rdi),%xmm1
    42c4:	f2 0f 10 45 00       	movsd  0x0(%rbp),%xmm0
    42c9:	41 83 c5 01          	add    $0x1,%r13d
    42cd:	f2 44 0f 10 16       	movsd  (%rsi),%xmm10
    42d2:	f2 44 0f 10 5f 08    	movsd  0x8(%rdi),%xmm11
    42d8:	66 0f 16 0c 07       	movhpd (%rdi,%rax,1),%xmm1
    42dd:	66 0f 16 44 05 00    	movhpd 0x0(%rbp,%rax,1),%xmm0
    42e3:	f2 44 0f 10 7a 08    	movsd  0x8(%rdx),%xmm15
    42e9:	66 44 0f 28 e1       	movapd %xmm1,%xmm12
    42ee:	66 44 0f 16 14 06    	movhpd (%rsi,%rax,1),%xmm10
    42f4:	66 44 0f 16 5c 07 08 	movhpd 0x8(%rdi,%rax,1),%xmm11
    42fb:	66 44 0f 58 e0       	addpd  %xmm0,%xmm12
    4300:	66 0f 5c c1          	subpd  %xmm1,%xmm0
    4304:	f2 0f 10 0a          	movsd  (%rdx),%xmm1
    4308:	66 44 0f 16 7c 02 08 	movhpd 0x8(%rdx,%rax,1),%xmm15
    430f:	66 0f 16 0c 02       	movhpd (%rdx,%rax,1),%xmm1
    4314:	66 0f 28 d1          	movapd %xmm1,%xmm2
    4318:	66 41 0f 58 d2       	addpd  %xmm10,%xmm2
    431d:	66 44 0f 5c d1       	subpd  %xmm1,%xmm10
    4322:	f2 0f 10 4d 08       	movsd  0x8(%rbp),%xmm1
    4327:	66 0f 16 4c 05 08    	movhpd 0x8(%rbp,%rax,1),%xmm1
    432d:	66 44 0f 28 ea       	movapd %xmm2,%xmm13
    4332:	66 45 0f 58 ec       	addpd  %xmm12,%xmm13
    4337:	66 44 0f 5c e2       	subpd  %xmm2,%xmm12
    433c:	66 0f 28 d1          	movapd %xmm1,%xmm2
    4340:	66 41 0f 58 d3       	addpd  %xmm11,%xmm2
    4345:	66 41 0f 5c cb       	subpd  %xmm11,%xmm1
    434a:	f2 44 0f 10 5e 08    	movsd  0x8(%rsi),%xmm11
    4350:	66 44 0f 16 5c 06 08 	movhpd 0x8(%rsi,%rax,1),%xmm11
    4357:	66 44 0f 13 6d 00    	movlpd %xmm13,0x0(%rbp)
    435d:	66 45 0f 28 f3       	movapd %xmm11,%xmm14
    4362:	66 45 0f 5c df       	subpd  %xmm15,%xmm11
    4367:	66 44 0f 17 6c 05 00 	movhpd %xmm13,0x0(%rbp,%rax,1)
    436e:	66 45 0f 28 ec       	movapd %xmm12,%xmm13
    4373:	66 45 0f 58 f7       	addpd  %xmm15,%xmm14
    4378:	66 45 0f 59 e0       	mulpd  %xmm8,%xmm12
    437d:	66 44 0f 28 fa       	movapd %xmm2,%xmm15
    4382:	66 44 0f 59 ed       	mulpd  %xmm5,%xmm13
    4387:	66 41 0f 5c d6       	subpd  %xmm14,%xmm2
    438c:	66 45 0f 58 fe       	addpd  %xmm14,%xmm15
    4391:	66 44 0f 28 f2       	movapd %xmm2,%xmm14
    4396:	66 44 0f 13 7d 08    	movlpd %xmm15,0x8(%rbp)
    439c:	66 45 0f 59 f0       	mulpd  %xmm8,%xmm14
    43a1:	66 44 0f 17 7c 05 08 	movhpd %xmm15,0x8(%rbp,%rax,1)
    43a8:	4c 01 c5             	add    %r8,%rbp
    43ab:	66 0f 59 d5          	mulpd  %xmm5,%xmm2
    43af:	66 45 0f 58 ee       	addpd  %xmm14,%xmm13
    43b4:	66 41 0f 5c d4       	subpd  %xmm12,%xmm2
    43b9:	66 44 0f 28 e0       	movapd %xmm0,%xmm12
    43be:	66 41 0f 5c c3       	subpd  %xmm11,%xmm0
    43c3:	66 45 0f 58 e3       	addpd  %xmm11,%xmm12
    43c8:	66 44 0f 13 2e       	movlpd %xmm13,(%rsi)
    43cd:	66 44 0f 17 2c 06    	movhpd %xmm13,(%rsi,%rax,1)
    43d3:	66 0f 13 56 08       	movlpd %xmm2,0x8(%rsi)
    43d8:	66 0f 17 54 06 08    	movhpd %xmm2,0x8(%rsi,%rax,1)
    43de:	66 0f 28 d1          	movapd %xmm1,%xmm2
    43e2:	66 41 0f 58 ca       	addpd  %xmm10,%xmm1
    43e7:	4c 01 c6             	add    %r8,%rsi
    43ea:	66 41 0f 5c d2       	subpd  %xmm10,%xmm2
    43ef:	66 45 0f 28 d4       	movapd %xmm12,%xmm10
    43f4:	66 44 0f 59 d4       	mulpd  %xmm4,%xmm10
    43f9:	66 44 0f 59 e7       	mulpd  %xmm7,%xmm12
    43fe:	66 44 0f 28 da       	movapd %xmm2,%xmm11
    4403:	66 44 0f 59 df       	mulpd  %xmm7,%xmm11
    4408:	66 0f 59 d4          	mulpd  %xmm4,%xmm2
    440c:	66 45 0f 58 d3       	addpd  %xmm11,%xmm10
    4411:	66 41 0f 5c d4       	subpd  %xmm12,%xmm2
    4416:	66 44 0f 13 17       	movlpd %xmm10,(%rdi)
    441b:	66 44 0f 17 14 07    	movhpd %xmm10,(%rdi,%rax,1)
    4421:	66 44 0f 28 d1       	movapd %xmm1,%xmm10
    4426:	66 0f 13 57 08       	movlpd %xmm2,0x8(%rdi)
    442b:	66 44 0f 59 d6       	mulpd  %xmm6,%xmm10
    4430:	66 0f 17 54 07 08    	movhpd %xmm2,0x8(%rdi,%rax,1)
    4436:	66 0f 28 d0          	movapd %xmm0,%xmm2
    443a:	4c 01 c7             	add    %r8,%rdi
    443d:	66 0f 59 d3          	mulpd  %xmm3,%xmm2
    4441:	66 0f 59 cb          	mulpd  %xmm3,%xmm1
    4445:	66 0f 59 c6          	mulpd  %xmm6,%xmm0
    4449:	66 41 0f 58 d2       	addpd  %xmm10,%xmm2
    444e:	66 0f 5c c8          	subpd  %xmm0,%xmm1
    4452:	66 0f 13 12          	movlpd %xmm2,(%rdx)
    4456:	66 0f 17 14 02       	movhpd %xmm2,(%rdx,%rax,1)
    445b:	66 0f 13 4a 08       	movlpd %xmm1,0x8(%rdx)
    4460:	66 0f 17 4c 02 08    	movhpd %xmm1,0x8(%rdx,%rax,1)
    4466:	4c 01 c2             	add    %r8,%rdx
    4469:	45 39 eb             	cmp    %r13d,%r11d
    446c:	0f 85 4e fe ff ff    	jne    42c0 <riscv_dsp_cifft_rd4_f64+0x720>
    4472:	48 83 44 24 b8 10    	addq   $0x10,-0x48(%rsp)
    4478:	48 83 c3 10          	add    $0x10,%rbx
    447c:	49 83 c6 10          	add    $0x10,%r14
    4480:	49 83 c7 10          	add    $0x10,%r15
    4484:	48 39 5c 24 c0       	cmp    %rbx,-0x40(%rsp)
    4489:	0f 85 81 fd ff ff    	jne    4210 <riscv_dsp_cifft_rd4_f64+0x670>
    448f:	44 8b 74 24 b0       	mov    -0x50(%rsp),%r14d
    4494:	4c 8b 6c 24 d0       	mov    -0x30(%rsp),%r13
    4499:	41 c1 e6 02          	shl    $0x2,%r14d
    449d:	83 6c 24 dc 01       	subl   $0x1,-0x24(%rsp)
    44a2:	0f 85 78 fb ff ff    	jne    4020 <riscv_dsp_cifft_rd4_f64+0x480>
    44a8:	4d 89 ee             	mov    %r13,%r14
    44ab:	8b 44 24 ec          	mov    -0x14(%rsp),%eax
    44af:	48 8d 15 4a 37 00 00 	lea    0x374a(%rip),%rdx        # 7c00 <riscv_dsp_recip_table_f64>
    44b6:	83 e8 01             	sub    $0x1,%eax
    44b9:	f2 0f 10 24 c2       	movsd  (%rdx,%rax,8),%xmm4
    44be:	8b 44 24 f0          	mov    -0x10(%rsp),%eax
    44c2:	8d 14 00             	lea    (%rax,%rax,1),%edx
    44c5:	48 c1 e2 03          	shl    $0x3,%rdx
    44c9:	0f 84 7f 03 00 00    	je     484e <riscv_dsp_cifft_rd4_f64+0xcae>
    44cf:	48 8d 4a c0          	lea    -0x40(%rdx),%rcx
    44d3:	4c 89 f0             	mov    %r14,%rax
    44d6:	48 c1 e9 06          	shr    $0x6,%rcx
    44da:	48 83 c1 01          	add    $0x1,%rcx
    44de:	48 83 fa 40          	cmp    $0x40,%rdx
    44e2:	0f 84 81 02 00 00    	je     4769 <riscv_dsp_cifft_rd4_f64+0xbc9>
    44e8:	66 44 0f 28 05 ef 1c 	movapd 0x1cef(%rip),%xmm8        # 61e0 <_IO_stdin_used+0x1e0>
    44ef:	00 00 
    44f1:	48 89 ca             	mov    %rcx,%rdx
    44f4:	66 0f 28 fc          	movapd %xmm4,%xmm7
    44f8:	48 d1 ea             	shr    %rdx
    44fb:	66 0f 14 ff          	unpcklpd %xmm7,%xmm7
    44ff:	48 c1 e2 07          	shl    $0x7,%rdx
    4503:	4c 01 f2             	add    %r14,%rdx
    4506:	66 0f 10 68 40       	movupd 0x40(%rax),%xmm5
    450b:	66 0f 10 08          	movupd (%rax),%xmm1
    450f:	48 83 e8 80          	sub    $0xffffffffffffff80,%rax
    4513:	66 44 0f 10 50 e0    	movupd -0x20(%rax),%xmm10
    4519:	66 0f 10 58 90       	movupd -0x70(%rax),%xmm3
    451e:	66 0f 16 68 d0       	movhpd -0x30(%rax),%xmm5
    4523:	66 0f 12 58 88       	movlpd -0x78(%rax),%xmm3
    4528:	66 44 0f 10 60 a0    	movupd -0x60(%rax),%xmm12
    452e:	66 0f 16 48 90       	movhpd -0x70(%rax),%xmm1
    4533:	66 44 0f 16 50 f0    	movhpd -0x10(%rax),%xmm10
    4539:	66 0f 10 70 b0       	movupd -0x50(%rax),%xmm6
    453e:	66 0f 10 50 d0       	movupd -0x30(%rax),%xmm2
    4543:	66 44 0f 28 ed       	movapd %xmm5,%xmm13
    4548:	66 0f 12 70 a8       	movlpd -0x58(%rax),%xmm6
    454d:	66 0f 12 50 c8       	movlpd -0x38(%rax),%xmm2
    4552:	66 44 0f 16 60 b0    	movhpd -0x50(%rax),%xmm12
    4558:	66 45 0f 14 ea       	unpcklpd %xmm10,%xmm13
    455d:	66 41 0f 15 ea       	unpckhpd %xmm10,%xmm5
    4562:	66 0f 10 40 f0       	movupd -0x10(%rax),%xmm0
    4567:	66 44 0f 28 d9       	movapd %xmm1,%xmm11
    456c:	66 0f 12 40 e8       	movlpd -0x18(%rax),%xmm0
    4571:	66 44 0f 28 d3       	movapd %xmm3,%xmm10
    4576:	66 45 0f 14 dc       	unpcklpd %xmm12,%xmm11
    457b:	66 41 0f 15 cc       	unpckhpd %xmm12,%xmm1
    4580:	66 44 0f 14 d6       	unpcklpd %xmm6,%xmm10
    4585:	66 44 0f 28 e2       	movapd %xmm2,%xmm12
    458a:	66 0f 15 d0          	unpckhpd %xmm0,%xmm2
    458e:	66 44 0f 14 e0       	unpcklpd %xmm0,%xmm12
    4593:	66 41 0f 28 c2       	movapd %xmm10,%xmm0
    4598:	66 0f 15 de          	unpckhpd %xmm6,%xmm3
    459c:	66 45 0f 15 d4       	unpckhpd %xmm12,%xmm10
    45a1:	66 41 0f 14 c4       	unpcklpd %xmm12,%xmm0
    45a6:	66 41 0f 28 f3       	movapd %xmm11,%xmm6
    45ab:	66 44 0f 28 e1       	movapd %xmm1,%xmm12
    45b0:	66 45 0f 15 dd       	unpckhpd %xmm13,%xmm11
    45b5:	66 0f 15 cd          	unpckhpd %xmm5,%xmm1
    45b9:	66 41 0f 14 f5       	unpcklpd %xmm13,%xmm6
    45be:	66 44 0f 14 e5       	unpcklpd %xmm5,%xmm12
    45c3:	66 41 0f 28 eb       	movapd %xmm11,%xmm5
    45c8:	66 0f 58 ee          	addpd  %xmm6,%xmm5
    45cc:	66 41 0f 5c f3       	subpd  %xmm11,%xmm6
    45d1:	66 44 0f 28 d9       	movapd %xmm1,%xmm11
    45d6:	66 45 0f 58 dc       	addpd  %xmm12,%xmm11
    45db:	66 44 0f 28 eb       	movapd %xmm3,%xmm13
    45e0:	66 44 0f 5c e1       	subpd  %xmm1,%xmm12
    45e5:	66 0f 15 da          	unpckhpd %xmm2,%xmm3
    45e9:	66 41 0f 28 ca       	movapd %xmm10,%xmm1
    45ee:	66 44 0f 14 ea       	unpcklpd %xmm2,%xmm13
    45f3:	66 0f 58 c8          	addpd  %xmm0,%xmm1
    45f7:	66 41 0f 5c c2       	subpd  %xmm10,%xmm0
    45fc:	66 44 0f 28 d3       	movapd %xmm3,%xmm10
    4601:	66 45 0f 58 d5       	addpd  %xmm13,%xmm10
    4606:	66 44 0f 5c eb       	subpd  %xmm3,%xmm13
    460b:	66 41 0f 28 d3       	movapd %xmm11,%xmm2
    4610:	66 0f 58 d5          	addpd  %xmm5,%xmm2
    4614:	66 41 0f 5c eb       	subpd  %xmm11,%xmm5
    4619:	66 41 0f 28 da       	movapd %xmm10,%xmm3
    461e:	66 45 0f 28 dd       	movapd %xmm13,%xmm11
    4623:	66 0f 58 d9          	addpd  %xmm1,%xmm3
    4627:	66 41 0f 5c ca       	subpd  %xmm10,%xmm1
    462c:	66 44 0f 28 d0       	movapd %xmm0,%xmm10
    4631:	66 44 0f 58 de       	addpd  %xmm6,%xmm11
    4636:	66 45 0f 5c d4       	subpd  %xmm12,%xmm10
    463b:	66 0f 59 d7          	mulpd  %xmm7,%xmm2
    463f:	66 41 0f 58 c4       	addpd  %xmm12,%xmm0
    4644:	66 41 0f 5c f5       	subpd  %xmm13,%xmm6
    4649:	66 0f 59 ef          	mulpd  %xmm7,%xmm5
    464d:	66 0f 59 df          	mulpd  %xmm7,%xmm3
    4651:	66 44 0f 59 df       	mulpd  %xmm7,%xmm11
    4656:	66 0f 59 cf          	mulpd  %xmm7,%xmm1
    465a:	66 44 0f 59 d7       	mulpd  %xmm7,%xmm10
    465f:	66 44 0f 28 e2       	movapd %xmm2,%xmm12
    4664:	66 0f 59 c7          	mulpd  %xmm7,%xmm0
    4668:	66 44 0f 28 ed       	movapd %xmm5,%xmm13
    466d:	66 0f 59 f7          	mulpd  %xmm7,%xmm6
    4671:	66 41 0f 57 d8       	xorpd  %xmm8,%xmm3
    4676:	66 45 0f 14 e3       	unpcklpd %xmm11,%xmm12
    467b:	66 41 0f 15 d3       	unpckhpd %xmm11,%xmm2
    4680:	66 44 0f 28 db       	movapd %xmm3,%xmm11
    4685:	66 41 0f 57 c8       	xorpd  %xmm8,%xmm1
    468a:	66 45 0f 28 f4       	movapd %xmm12,%xmm14
    468f:	66 45 0f 57 d0       	xorpd  %xmm8,%xmm10
    4694:	66 41 0f 57 c0       	xorpd  %xmm8,%xmm0
    4699:	66 45 0f 14 da       	unpcklpd %xmm10,%xmm11
    469e:	66 41 0f 15 da       	unpckhpd %xmm10,%xmm3
    46a3:	66 44 0f 28 d1       	movapd %xmm1,%xmm10
    46a8:	66 0f 15 ee          	unpckhpd %xmm6,%xmm5
    46ac:	66 0f 15 c8          	unpckhpd %xmm0,%xmm1
    46b0:	66 44 0f 14 ee       	unpcklpd %xmm6,%xmm13
    46b5:	66 44 0f 14 d0       	unpcklpd %xmm0,%xmm10
    46ba:	66 0f 28 c2          	movapd %xmm2,%xmm0
    46be:	66 0f 14 c5          	unpcklpd %xmm5,%xmm0
    46c2:	66 0f 15 d5          	unpckhpd %xmm5,%xmm2
    46c6:	66 45 0f 14 f5       	unpcklpd %xmm13,%xmm14
    46cb:	66 41 0f 28 f4       	movapd %xmm12,%xmm6
    46d0:	66 0f 28 eb          	movapd %xmm3,%xmm5
    46d4:	66 45 0f 28 e3       	movapd %xmm11,%xmm12
    46d9:	66 0f 14 e9          	unpcklpd %xmm1,%xmm5
    46dd:	66 0f 15 d9          	unpckhpd %xmm1,%xmm3
    46e1:	66 45 0f 14 e2       	unpcklpd %xmm10,%xmm12
    46e6:	66 41 0f 28 ce       	movapd %xmm14,%xmm1
    46eb:	66 41 0f 15 f5       	unpckhpd %xmm13,%xmm6
    46f0:	66 45 0f 15 da       	unpckhpd %xmm10,%xmm11
    46f5:	66 41 0f 14 cc       	unpcklpd %xmm12,%xmm1
    46fa:	66 45 0f 15 f4       	unpckhpd %xmm12,%xmm14
    46ff:	0f 11 48 80          	movups %xmm1,-0x80(%rax)
    4703:	66 0f 28 ce          	movapd %xmm6,%xmm1
    4707:	66 41 0f 15 f3       	unpckhpd %xmm11,%xmm6
    470c:	66 41 0f 14 cb       	unpcklpd %xmm11,%xmm1
    4711:	44 0f 11 70 90       	movups %xmm14,-0x70(%rax)
    4716:	0f 11 48 a0          	movups %xmm1,-0x60(%rax)
    471a:	66 0f 28 c8          	movapd %xmm0,%xmm1
    471e:	66 0f 15 c5          	unpckhpd %xmm5,%xmm0
    4722:	0f 11 40 d0          	movups %xmm0,-0x30(%rax)
    4726:	66 0f 28 c2          	movapd %xmm2,%xmm0
    472a:	66 0f 14 cd          	unpcklpd %xmm5,%xmm1
    472e:	66 0f 15 d3          	unpckhpd %xmm3,%xmm2
    4732:	66 0f 14 c3          	unpcklpd %xmm3,%xmm0
    4736:	0f 11 70 b0          	movups %xmm6,-0x50(%rax)
    473a:	0f 11 48 c0          	movups %xmm1,-0x40(%rax)
    473e:	0f 11 40 e0          	movups %xmm0,-0x20(%rax)
    4742:	0f 11 50 f0          	movups %xmm2,-0x10(%rax)
    4746:	48 39 d0             	cmp    %rdx,%rax
    4749:	0f 85 b7 fd ff ff    	jne    4506 <riscv_dsp_cifft_rd4_f64+0x966>
    474f:	48 89 ca             	mov    %rcx,%rdx
    4752:	48 83 e2 fe          	and    $0xfffffffffffffffe,%rdx
    4756:	48 89 d0             	mov    %rdx,%rax
    4759:	48 c1 e0 06          	shl    $0x6,%rax
    475d:	4c 01 f0             	add    %r14,%rax
    4760:	48 39 ca             	cmp    %rcx,%rdx
    4763:	0f 84 e5 00 00 00    	je     484e <riscv_dsp_cifft_rd4_f64+0xcae>
    4769:	f2 0f 10 00          	movsd  (%rax),%xmm0
    476d:	f2 0f 10 48 20       	movsd  0x20(%rax),%xmm1
    4772:	f2 0f 10 58 30       	movsd  0x30(%rax),%xmm3
    4777:	f2 0f 10 68 08       	movsd  0x8(%rax),%xmm5
    477c:	66 0f 28 d0          	movapd %xmm0,%xmm2
    4780:	f2 0f 5c c1          	subsd  %xmm1,%xmm0
    4784:	f2 0f 10 70 28       	movsd  0x28(%rax),%xmm6
    4789:	f2 0f 10 78 38       	movsd  0x38(%rax),%xmm7
    478e:	f2 0f 58 d1          	addsd  %xmm1,%xmm2
    4792:	f2 0f 10 48 10       	movsd  0x10(%rax),%xmm1
    4797:	66 44 0f 28 d9       	movapd %xmm1,%xmm11
    479c:	f2 0f 5c cb          	subsd  %xmm3,%xmm1
    47a0:	f2 44 0f 58 db       	addsd  %xmm3,%xmm11
    47a5:	66 0f 28 dd          	movapd %xmm5,%xmm3
    47a9:	f2 0f 5c ee          	subsd  %xmm6,%xmm5
    47ad:	f2 0f 58 de          	addsd  %xmm6,%xmm3
    47b1:	f2 0f 10 70 18       	movsd  0x18(%rax),%xmm6
    47b6:	66 44 0f 28 d6       	movapd %xmm6,%xmm10
    47bb:	f2 0f 5c f7          	subsd  %xmm7,%xmm6
    47bf:	f2 44 0f 58 d7       	addsd  %xmm7,%xmm10
    47c4:	66 44 0f 28 c3       	movapd %xmm3,%xmm8
    47c9:	66 0f 28 fa          	movapd %xmm2,%xmm7
    47cd:	f2 41 0f 5c d3       	subsd  %xmm11,%xmm2
    47d2:	f2 41 0f 58 fb       	addsd  %xmm11,%xmm7
    47d7:	f2 41 0f 5c da       	subsd  %xmm10,%xmm3
    47dc:	f2 45 0f 58 c2       	addsd  %xmm10,%xmm8
    47e1:	f2 0f 59 d4          	mulsd  %xmm4,%xmm2
    47e5:	f2 0f 59 fc          	mulsd  %xmm4,%xmm7
    47e9:	f2 0f 59 dc          	mulsd  %xmm4,%xmm3
    47ed:	f2 44 0f 59 c4       	mulsd  %xmm4,%xmm8
    47f2:	66 41 0f 57 d9       	xorpd  %xmm9,%xmm3
    47f7:	66 0f 14 d3          	unpcklpd %xmm3,%xmm2
    47fb:	66 0f 28 dd          	movapd %xmm5,%xmm3
    47ff:	66 45 0f 57 c1       	xorpd  %xmm9,%xmm8
    4804:	f2 0f 5c d9          	subsd  %xmm1,%xmm3
    4808:	0f 11 50 10          	movups %xmm2,0x10(%rax)
    480c:	f2 0f 58 cd          	addsd  %xmm5,%xmm1
    4810:	66 0f 28 d0          	movapd %xmm0,%xmm2
    4814:	f2 0f 58 d6          	addsd  %xmm6,%xmm2
    4818:	f2 0f 5c c6          	subsd  %xmm6,%xmm0
    481c:	66 41 0f 14 f8       	unpcklpd %xmm8,%xmm7
    4821:	0f 11 38             	movups %xmm7,(%rax)
    4824:	f2 0f 59 dc          	mulsd  %xmm4,%xmm3
    4828:	f2 0f 59 cc          	mulsd  %xmm4,%xmm1
    482c:	f2 0f 59 d4          	mulsd  %xmm4,%xmm2
    4830:	f2 0f 59 c4          	mulsd  %xmm4,%xmm0
    4834:	66 41 0f 57 d9       	xorpd  %xmm9,%xmm3
    4839:	66 41 0f 57 c9       	xorpd  %xmm9,%xmm1
    483e:	66 0f 14 d3          	unpcklpd %xmm3,%xmm2
    4842:	66 0f 14 c1          	unpcklpd %xmm1,%xmm0
    4846:	0f 11 50 20          	movups %xmm2,0x20(%rax)
    484a:	0f 11 40 30          	movups %xmm0,0x30(%rax)
    484e:	8b 6c 24 f4          	mov    -0xc(%rsp),%ebp
    4852:	0f b6 4c 24 ec       	movzbl -0x14(%rsp),%ecx
    4857:	b8 02 00 00 00       	mov    $0x2,%eax
    485c:	be 04 00 00 00       	mov    $0x4,%esi
    4861:	f2 41 0f 10 46 10    	movsd  0x10(%r14),%xmm0
    4867:	d3 e0                	shl    %cl,%eax
    4869:	8d 54 2d 00          	lea    0x0(%rbp,%rbp,1),%edx
    486d:	8b 4c 24 f0          	mov    -0x10(%rsp),%ecx
    4871:	89 eb                	mov    %ebp,%ebx
    4873:	49 8d 7c c6 f8       	lea    -0x8(%r14,%rax,8),%rdi
    4878:	48 89 d0             	mov    %rdx,%rax
    487b:	49 8d 14 d6          	lea    (%r14,%rdx,8),%rdx
    487f:	f2 0f 10 0a          	movsd  (%rdx),%xmm1
    4883:	83 c0 01             	add    $0x1,%eax
    4886:	41 89 c8             	mov    %ecx,%r8d
    4889:	c1 e9 03             	shr    $0x3,%ecx
    488c:	49 8d 04 c6          	lea    (%r14,%rax,8),%rax
    4890:	41 c1 e8 02          	shr    $0x2,%r8d
    4894:	41 89 cb             	mov    %ecx,%r11d
    4897:	41 89 c9             	mov    %ecx,%r9d
    489a:	f2 41 0f 11 4e 10    	movsd  %xmm1,0x10(%r14)
    48a0:	44 31 c3             	xor    %r8d,%ebx
    48a3:	b9 04 00 00 00       	mov    $0x4,%ecx
    48a8:	f2 0f 11 02          	movsd  %xmm0,(%rdx)
    48ac:	f2 0f 10 08          	movsd  (%rax),%xmm1
    48b0:	41 89 da             	mov    %ebx,%r10d
    48b3:	41 31 db             	xor    %ebx,%r11d
    48b6:	f2 41 0f 10 46 18    	movsd  0x18(%r14),%xmm0
    48bc:	bb fc ff ff ff       	mov    $0xfffffffc,%ebx
    48c1:	f2 41 0f 11 4e 18    	movsd  %xmm1,0x18(%r14)
    48c7:	f2 0f 11 00          	movsd  %xmm0,(%rax)
    48cb:	89 e8                	mov    %ebp,%eax
    48cd:	0f 1f 00             	nopl   (%rax)
    48d0:	44 31 d0             	xor    %r10d,%eax
    48d3:	41 85 c0             	test   %eax,%r8d
    48d6:	75 10                	jne    48e8 <riscv_dsp_cifft_rd4_f64+0xd48>
    48d8:	44 89 c2             	mov    %r8d,%edx
    48db:	0f 1f 44 00 00       	nopl   0x0(%rax,%rax,1)
    48e0:	d1 ea                	shr    %edx
    48e2:	31 d0                	xor    %edx,%eax
    48e4:	85 c2                	test   %eax,%edx
    48e6:	74 f8                	je     48e0 <riscv_dsp_cifft_rd4_f64+0xd40>
    48e8:	8d 56 fe             	lea    -0x2(%rsi),%edx
    48eb:	39 c2                	cmp    %eax,%edx
    48ed:	0f 83 a2 00 00 00    	jae    4995 <riscv_dsp_cifft_rd4_f64+0xdf5>
    48f3:	89 ca                	mov    %ecx,%edx
    48f5:	44 8d 24 00          	lea    (%rax,%rax,1),%r12d
    48f9:	4d 8d 2c d6          	lea    (%r14,%rdx,8),%r13
    48fd:	4c 89 e2             	mov    %r12,%rdx
    4900:	4f 8d 24 e6          	lea    (%r14,%r12,8),%r12
    4904:	f2 41 0f 10 45 00    	movsd  0x0(%r13),%xmm0
    490a:	f2 41 0f 10 0c 24    	movsd  (%r12),%xmm1
    4910:	83 c2 01             	add    $0x1,%edx
    4913:	49 8d 14 d6          	lea    (%r14,%rdx,8),%rdx
    4917:	f2 41 0f 11 4d 00    	movsd  %xmm1,0x0(%r13)
    491d:	f2 41 0f 11 04 24    	movsd  %xmm0,(%r12)
    4923:	44 8d 61 01          	lea    0x1(%rcx),%r12d
    4927:	f2 0f 10 0a          	movsd  (%rdx),%xmm1
    492b:	4f 8d 24 e6          	lea    (%r14,%r12,8),%r12
    492f:	f2 41 0f 10 04 24    	movsd  (%r12),%xmm0
    4935:	f2 41 0f 11 0c 24    	movsd  %xmm1,(%r12)
    493b:	41 89 cc             	mov    %ecx,%r12d
    493e:	41 f7 dc             	neg    %r12d
    4941:	f2 0f 11 02          	movsd  %xmm0,(%rdx)
    4945:	89 c2                	mov    %eax,%edx
    4947:	4d 63 e4             	movslq %r12d,%r12
    494a:	f7 da                	neg    %edx
    494c:	49 c1 e4 03          	shl    $0x3,%r12
    4950:	01 d2                	add    %edx,%edx
    4952:	4e 8d 2c 27          	lea    (%rdi,%r12,1),%r13
    4956:	4e 8d 64 27 f8       	lea    -0x8(%rdi,%r12,1),%r12
    495b:	48 63 d2             	movslq %edx,%rdx
    495e:	f2 41 0f 10 45 00    	movsd  0x0(%r13),%xmm0
    4964:	48 c1 e2 03          	shl    $0x3,%rdx
    4968:	4c 8d 3c 17          	lea    (%rdi,%rdx,1),%r15
    496c:	48 8d 54 17 f8       	lea    -0x8(%rdi,%rdx,1),%rdx
    4971:	f2 41 0f 10 0f       	movsd  (%r15),%xmm1
    4976:	f2 41 0f 11 4d 00    	movsd  %xmm1,0x0(%r13)
    497c:	f2 41 0f 11 07       	movsd  %xmm0,(%r15)
    4981:	f2 41 0f 10 04 24    	movsd  (%r12),%xmm0
    4987:	f2 0f 10 0a          	movsd  (%rdx),%xmm1
    498b:	f2 41 0f 11 0c 24    	movsd  %xmm1,(%r12)
    4991:	f2 0f 11 02          	movsd  %xmm0,(%rdx)
    4995:	8d 51 02             	lea    0x2(%rcx),%edx
    4998:	01 e8                	add    %ebp,%eax
    499a:	4d 8d 24 d6          	lea    (%r14,%rdx,8),%r12
    499e:	8d 14 00             	lea    (%rax,%rax,1),%edx
    49a1:	49 89 d5             	mov    %rdx,%r13
    49a4:	49 8d 14 d6          	lea    (%r14,%rdx,8),%rdx
    49a8:	f2 41 0f 10 04 24    	movsd  (%r12),%xmm0
    49ae:	f2 0f 10 0a          	movsd  (%rdx),%xmm1
    49b2:	f2 41 0f 11 0c 24    	movsd  %xmm1,(%r12)
    49b8:	f2 0f 11 02          	movsd  %xmm0,(%rdx)
    49bc:	8d 51 03             	lea    0x3(%rcx),%edx
    49bf:	4d 8d 24 d6          	lea    (%r14,%rdx,8),%r12
    49c3:	41 8d 55 01          	lea    0x1(%r13),%edx
    49c7:	49 8d 14 d6          	lea    (%r14,%rdx,8),%rdx
    49cb:	f2 41 0f 10 04 24    	movsd  (%r12),%xmm0
    49d1:	f2 0f 10 0a          	movsd  (%rdx),%xmm1
    49d5:	f2 41 0f 11 0c 24    	movsd  %xmm1,(%r12)
    49db:	f2 0f 11 02          	movsd  %xmm0,(%rdx)
    49df:	39 ee                	cmp    %ebp,%esi
    49e1:	0f 83 b4 06 00 00    	jae    509b <riscv_dsp_cifft_rd4_f64+0x14fb>
    49e7:	44 31 d8             	xor    %r11d,%eax
    49ea:	41 85 c1             	test   %eax,%r9d
    49ed:	75 11                	jne    4a00 <riscv_dsp_cifft_rd4_f64+0xe60>
    49ef:	44 89 ca             	mov    %r9d,%edx
    49f2:	66 0f 1f 44 00 00    	nopw   0x0(%rax,%rax,1)
    49f8:	d1 ea                	shr    %edx
    49fa:	31 d0                	xor    %edx,%eax
    49fc:	85 c2                	test   %eax,%edx
    49fe:	74 f8                	je     49f8 <riscv_dsp_cifft_rd4_f64+0xe58>
    4a00:	39 f0                	cmp    %esi,%eax
    4a02:	0f 86 a3 00 00 00    	jbe    4aab <riscv_dsp_cifft_rd4_f64+0xf0b>
    4a08:	8d 51 04             	lea    0x4(%rcx),%edx
    4a0b:	44 8d 24 00          	lea    (%rax,%rax,1),%r12d
    4a0f:	4d 8d 2c d6          	lea    (%r14,%rdx,8),%r13
    4a13:	4c 89 e2             	mov    %r12,%rdx
    4a16:	4f 8d 24 e6          	lea    (%r14,%r12,8),%r12
    4a1a:	f2 41 0f 10 45 00    	movsd  0x0(%r13),%xmm0
    4a20:	f2 41 0f 10 0c 24    	movsd  (%r12),%xmm1
    4a26:	83 c2 01             	add    $0x1,%edx
    4a29:	49 8d 14 d6          	lea    (%r14,%rdx,8),%rdx
    4a2d:	f2 41 0f 11 4d 00    	movsd  %xmm1,0x0(%r13)
    4a33:	f2 41 0f 11 04 24    	movsd  %xmm0,(%r12)
    4a39:	44 8d 61 05          	lea    0x5(%rcx),%r12d
    4a3d:	f2 0f 10 0a          	movsd  (%rdx),%xmm1
    4a41:	4f 8d 24 e6          	lea    (%r14,%r12,8),%r12
    4a45:	f2 41 0f 10 04 24    	movsd  (%r12),%xmm0
    4a4b:	f2 41 0f 11 0c 24    	movsd  %xmm1,(%r12)
    4a51:	41 89 dc             	mov    %ebx,%r12d
    4a54:	41 29 cc             	sub    %ecx,%r12d
    4a57:	f2 0f 11 02          	movsd  %xmm0,(%rdx)
    4a5b:	89 c2                	mov    %eax,%edx
    4a5d:	4d 63 e4             	movslq %r12d,%r12
    4a60:	f7 da                	neg    %edx
    4a62:	49 c1 e4 03          	shl    $0x3,%r12
    4a66:	01 d2                	add    %edx,%edx
    4a68:	4e 8d 2c 27          	lea    (%rdi,%r12,1),%r13
    4a6c:	4e 8d 64 27 f8       	lea    -0x8(%rdi,%r12,1),%r12
    4a71:	48 63 d2             	movslq %edx,%rdx
    4a74:	f2 41 0f 10 45 00    	movsd  0x0(%r13),%xmm0
    4a7a:	48 c1 e2 03          	shl    $0x3,%rdx
    4a7e:	4c 8d 3c 17          	lea    (%rdi,%rdx,1),%r15
    4a82:	48 8d 54 17 f8       	lea    -0x8(%rdi,%rdx,1),%rdx
    4a87:	f2 41 0f 10 0f       	movsd  (%r15),%xmm1
    4a8c:	f2 41 0f 11 4d 00    	movsd  %xmm1,0x0(%r13)
    4a92:	f2 41 0f 11 07       	movsd  %xmm0,(%r15)
    4a97:	f2 41 0f 10 04 24    	movsd  (%r12),%xmm0
    4a9d:	f2 0f 10 0a          	movsd  (%rdx),%xmm1
    4aa1:	f2 41 0f 11 0c 24    	movsd  %xmm1,(%r12)
    4aa7:	f2 0f 11 02          	movsd  %xmm0,(%rdx)
    4aab:	8d 51 06             	lea    0x6(%rcx),%edx
    4aae:	01 e8                	add    %ebp,%eax
    4ab0:	83 c6 04             	add    $0x4,%esi
    4ab3:	4d 8d 24 d6          	lea    (%r14,%rdx,8),%r12
    4ab7:	8d 14 00             	lea    (%rax,%rax,1),%edx
    4aba:	49 89 d5             	mov    %rdx,%r13
    4abd:	49 8d 14 d6          	lea    (%r14,%rdx,8),%rdx
    4ac1:	f2 41 0f 10 04 24    	movsd  (%r12),%xmm0
    4ac7:	f2 0f 10 0a          	movsd  (%rdx),%xmm1
    4acb:	f2 41 0f 11 0c 24    	movsd  %xmm1,(%r12)
    4ad1:	f2 0f 11 02          	movsd  %xmm0,(%rdx)
    4ad5:	8d 51 07             	lea    0x7(%rcx),%edx
    4ad8:	83 c1 08             	add    $0x8,%ecx
    4adb:	4d 8d 24 d6          	lea    (%r14,%rdx,8),%r12
    4adf:	41 8d 55 01          	lea    0x1(%r13),%edx
    4ae3:	49 8d 14 d6          	lea    (%r14,%rdx,8),%rdx
    4ae7:	f2 41 0f 10 04 24    	movsd  (%r12),%xmm0
    4aed:	f2 0f 10 0a          	movsd  (%rdx),%xmm1
    4af1:	f2 41 0f 11 0c 24    	movsd  %xmm1,(%r12)
    4af7:	f2 0f 11 02          	movsd  %xmm0,(%rdx)
    4afb:	e9 d0 fd ff ff       	jmp    48d0 <riscv_dsp_cifft_rd4_f64+0xd30>
    4b00:	8d b2 00 ff ff ff    	lea    -0x100(%rdx),%esi
    4b06:	44 89 e7             	mov    %r12d,%edi
    4b09:	29 f7                	sub    %esi,%edi
    4b0b:	85 ff                	test   %edi,%edi
    4b0d:	0f 8e 8d 00 00 00    	jle    4ba0 <riscv_dsp_cifft_rd4_f64+0x1000>
    4b13:	48 63 f6             	movslq %esi,%rsi
    4b16:	48 63 ff             	movslq %edi,%rdi
    4b19:	43 8d 14 52          	lea    (%r10,%r10,2),%edx
    4b1d:	f2 41 0f 10 2c f9    	movsd  (%r9,%rdi,8),%xmm5
    4b23:	f2 45 0f 10 04 f1    	movsd  (%r9,%rsi,8),%xmm8
    4b29:	d3 e2                	shl    %cl,%edx
    4b2b:	44 89 e6             	mov    %r12d,%esi
    4b2e:	29 d6                	sub    %edx,%esi
    4b30:	66 41 0f 57 e9       	xorpd  %xmm9,%xmm5
    4b35:	85 f6                	test   %esi,%esi
    4b37:	0f 8f 34 f7 ff ff    	jg     4271 <riscv_dsp_cifft_rd4_f64+0x6d1>
    4b3d:	8d b2 00 ff ff ff    	lea    -0x100(%rdx),%esi
    4b43:	44 89 e7             	mov    %r12d,%edi
    4b46:	29 f7                	sub    %esi,%edi
    4b48:	85 ff                	test   %edi,%edi
    4b4a:	0f 8e e0 00 00 00    	jle    4c30 <riscv_dsp_cifft_rd4_f64+0x1090>
    4b50:	48 63 ff             	movslq %edi,%rdi
    4b53:	48 63 f6             	movslq %esi,%rsi
    4b56:	f2 41 0f 10 1c f9    	movsd  (%r9,%rdi,8),%xmm3
    4b5c:	f2 41 0f 10 34 f1    	movsd  (%r9,%rsi,8),%xmm6
    4b62:	66 41 0f 57 d9       	xorpd  %xmm9,%xmm3
    4b67:	e9 17 f7 ff ff       	jmp    4283 <riscv_dsp_cifft_rd4_f64+0x6e3>
    4b6c:	0f 1f 40 00          	nopl   0x0(%rax)
    4b70:	8d b2 00 ff ff ff    	lea    -0x100(%rdx),%esi
    4b76:	44 89 e7             	mov    %r12d,%edi
    4b79:	29 f7                	sub    %esi,%edi
    4b7b:	85 ff                	test   %edi,%edi
    4b7d:	7e 69                	jle    4be8 <riscv_dsp_cifft_rd4_f64+0x1048>
    4b7f:	48 63 ff             	movslq %edi,%rdi
    4b82:	48 63 f6             	movslq %esi,%rsi
    4b85:	f2 41 0f 10 24 f9    	movsd  (%r9,%rdi,8),%xmm4
    4b8b:	f2 41 0f 10 3c f1    	movsd  (%r9,%rsi,8),%xmm7
    4b91:	66 41 0f 57 e1       	xorpd  %xmm9,%xmm4
    4b96:	e9 9e f6 ff ff       	jmp    4239 <riscv_dsp_cifft_rd4_f64+0x699>
    4b9b:	0f 1f 44 00 00       	nopl   0x0(%rax,%rax,1)
    4ba0:	81 ea 00 02 00 00    	sub    $0x200,%edx
    4ba6:	44 89 e6             	mov    %r12d,%esi
    4ba9:	29 d6                	sub    %edx,%esi
    4bab:	48 63 d2             	movslq %edx,%rdx
    4bae:	f2 45 0f 10 04 d1    	movsd  (%r9,%rdx,8),%xmm8
    4bb4:	48 63 fe             	movslq %esi,%rdi
    4bb7:	f2 41 0f 10 2c f9    	movsd  (%r9,%rdi,8),%xmm5
    4bbd:	66 45 0f 57 c1       	xorpd  %xmm9,%xmm8
    4bc2:	85 f6                	test   %esi,%esi
    4bc4:	0f 8e 94 f6 ff ff    	jle    425e <riscv_dsp_cifft_rd4_f64+0x6be>
    4bca:	66 41 0f 57 e9       	xorpd  %xmm9,%xmm5
    4bcf:	66 0f 28 c5          	movapd %xmm5,%xmm0
    4bd3:	66 41 0f 28 e8       	movapd %xmm8,%xmm5
    4bd8:	66 44 0f 28 c0       	movapd %xmm0,%xmm8
    4bdd:	e9 7c f6 ff ff       	jmp    425e <riscv_dsp_cifft_rd4_f64+0x6be>
    4be2:	66 0f 1f 44 00 00    	nopw   0x0(%rax,%rax,1)
    4be8:	81 ea 00 02 00 00    	sub    $0x200,%edx
    4bee:	44 89 e6             	mov    %r12d,%esi
    4bf1:	29 d6                	sub    %edx,%esi
    4bf3:	48 63 d2             	movslq %edx,%rdx
    4bf6:	f2 41 0f 10 3c d1    	movsd  (%r9,%rdx,8),%xmm7
    4bfc:	48 63 fe             	movslq %esi,%rdi
    4bff:	f2 41 0f 10 24 f9    	movsd  (%r9,%rdi,8),%xmm4
    4c05:	66 41 0f 57 f9       	xorpd  %xmm9,%xmm7
    4c0a:	85 f6                	test   %esi,%esi
    4c0c:	0f 8e 27 f6 ff ff    	jle    4239 <riscv_dsp_cifft_rd4_f64+0x699>
    4c12:	66 41 0f 57 e1       	xorpd  %xmm9,%xmm4
    4c17:	66 0f 28 c4          	movapd %xmm4,%xmm0
    4c1b:	66 0f 28 e7          	movapd %xmm7,%xmm4
    4c1f:	66 0f 28 f8          	movapd %xmm0,%xmm7
    4c23:	e9 11 f6 ff ff       	jmp    4239 <riscv_dsp_cifft_rd4_f64+0x699>
    4c28:	0f 1f 84 00 00 00 00 	nopl   0x0(%rax,%rax,1)
    4c2f:	00 
    4c30:	81 ea 00 02 00 00    	sub    $0x200,%edx
    4c36:	44 89 e6             	mov    %r12d,%esi
    4c39:	29 d6                	sub    %edx,%esi
    4c3b:	48 63 d2             	movslq %edx,%rdx
    4c3e:	f2 41 0f 10 34 d1    	movsd  (%r9,%rdx,8),%xmm6
    4c44:	48 63 fe             	movslq %esi,%rdi
    4c47:	f2 41 0f 10 1c f9    	movsd  (%r9,%rdi,8),%xmm3
    4c4d:	66 41 0f 57 f1       	xorpd  %xmm9,%xmm6
    4c52:	85 f6                	test   %esi,%esi
    4c54:	0f 8e 29 f6 ff ff    	jle    4283 <riscv_dsp_cifft_rd4_f64+0x6e3>
    4c5a:	66 41 0f 57 d9       	xorpd  %xmm9,%xmm3
    4c5f:	66 0f 28 c3          	movapd %xmm3,%xmm0
    4c63:	66 0f 28 de          	movapd %xmm6,%xmm3
    4c67:	66 0f 28 f0          	movapd %xmm0,%xmm6
    4c6b:	e9 13 f6 ff ff       	jmp    4283 <riscv_dsp_cifft_rd4_f64+0x6e3>
    4c70:	4c 89 c6             	mov    %r8,%rsi
    4c73:	4c 01 e8             	add    %r13,%rax
    4c76:	4c 89 e9             	mov    %r13,%rcx
    4c79:	44 89 f7             	mov    %r14d,%edi
    4c7c:	48 c1 e6 05          	shl    $0x5,%rsi
    4c80:	f2 0f 10 01          	movsd  (%rcx),%xmm0
    4c84:	f2 0f 10 08          	movsd  (%rax),%xmm1
    4c88:	f2 0f 10 14 10       	movsd  (%rax,%rdx,1),%xmm2
    4c8d:	66 0f 28 e8          	movapd %xmm0,%xmm5
    4c91:	f2 0f 5c c1          	subsd  %xmm1,%xmm0
    4c95:	f2 0f 58 e9          	addsd  %xmm1,%xmm5
    4c99:	f2 0f 10 0c 11       	movsd  (%rcx,%rdx,1),%xmm1
    4c9e:	66 44 0f 28 c1       	movapd %xmm1,%xmm8
    4ca3:	f2 0f 5c ca          	subsd  %xmm2,%xmm1
    4ca7:	f2 44 0f 58 c2       	addsd  %xmm2,%xmm8
    4cac:	66 0f 28 d5          	movapd %xmm5,%xmm2
    4cb0:	f2 41 0f 58 d0       	addsd  %xmm8,%xmm2
    4cb5:	f2 41 0f 5c e8       	subsd  %xmm8,%xmm5
    4cba:	f2 0f 11 11          	movsd  %xmm2,(%rcx)
    4cbe:	f2 0f 10 51 08       	movsd  0x8(%rcx),%xmm2
    4cc3:	f2 0f 10 58 08       	movsd  0x8(%rax),%xmm3
    4cc8:	f2 0f 10 7c 10 08    	movsd  0x8(%rax,%rdx,1),%xmm7
    4cce:	66 0f 28 e2          	movapd %xmm2,%xmm4
    4cd2:	f2 0f 5c d3          	subsd  %xmm3,%xmm2
    4cd6:	f2 0f 58 e3          	addsd  %xmm3,%xmm4
    4cda:	f2 0f 10 5c 11 08    	movsd  0x8(%rcx,%rdx,1),%xmm3
    4ce0:	66 0f 28 f3          	movapd %xmm3,%xmm6
    4ce4:	f2 0f 5c df          	subsd  %xmm7,%xmm3
    4ce8:	f2 0f 58 f7          	addsd  %xmm7,%xmm6
    4cec:	66 0f 28 fc          	movapd %xmm4,%xmm7
    4cf0:	f2 0f 58 fe          	addsd  %xmm6,%xmm7
    4cf4:	f2 0f 5c e6          	subsd  %xmm6,%xmm4
    4cf8:	f2 0f 11 79 08       	movsd  %xmm7,0x8(%rcx)
    4cfd:	f2 0f 11 64 11 08    	movsd  %xmm4,0x8(%rcx,%rdx,1)
    4d03:	66 0f 28 e0          	movapd %xmm0,%xmm4
    4d07:	f2 0f 5c c3          	subsd  %xmm3,%xmm0
    4d0b:	f2 0f 58 e3          	addsd  %xmm3,%xmm4
    4d0f:	f2 0f 11 2c 11       	movsd  %xmm5,(%rcx,%rdx,1)
    4d14:	48 01 f1             	add    %rsi,%rcx
    4d17:	f2 0f 11 20          	movsd  %xmm4,(%rax)
    4d1b:	66 0f 28 e2          	movapd %xmm2,%xmm4
    4d1f:	f2 0f 5c e1          	subsd  %xmm1,%xmm4
    4d23:	f2 0f 58 ca          	addsd  %xmm2,%xmm1
    4d27:	66 0f 14 c1          	unpcklpd %xmm1,%xmm0
    4d2b:	f2 0f 11 60 08       	movsd  %xmm4,0x8(%rax)
    4d30:	0f 11 04 10          	movups %xmm0,(%rax,%rdx,1)
    4d34:	48 01 f0             	add    %rsi,%rax
    4d37:	83 ef 01             	sub    $0x1,%edi
    4d3a:	0f 85 40 ff ff ff    	jne    4c80 <riscv_dsp_cifft_rd4_f64+0x10e0>
    4d40:	e9 b6 f3 ff ff       	jmp    40fb <riscv_dsp_cifft_rd4_f64+0x55b>
    4d45:	4c 8b 44 24 c8       	mov    -0x38(%rsp),%r8
    4d4a:	8b 4c 24 e8          	mov    -0x18(%rsp),%ecx
    4d4e:	31 ff                	xor    %edi,%edi
    4d50:	44 01 f7             	add    %r14d,%edi
    4d53:	45 89 e2             	mov    %r12d,%r10d
    4d56:	89 fe                	mov    %edi,%esi
    4d58:	d3 e6                	shl    %cl,%esi
    4d5a:	41 29 f2             	sub    %esi,%r10d
    4d5d:	45 85 d2             	test   %r10d,%r10d
    4d60:	0f 8e 41 02 00 00    	jle    4fa7 <riscv_dsp_cifft_rd4_f64+0x1407>
    4d66:	48 63 f6             	movslq %esi,%rsi
    4d69:	4d 63 d2             	movslq %r10d,%r10
    4d6c:	f2 41 0f 10 1c f1    	movsd  (%r9,%rsi,8),%xmm3
    4d72:	f2 43 0f 10 2c d1    	movsd  (%r9,%r10,8),%xmm5
    4d78:	8d 34 3f             	lea    (%rdi,%rdi,1),%esi
    4d7b:	45 89 e2             	mov    %r12d,%r10d
    4d7e:	d3 e6                	shl    %cl,%esi
    4d80:	41 29 f2             	sub    %esi,%r10d
    4d83:	45 85 d2             	test   %r10d,%r10d
    4d86:	0f 8e e9 01 00 00    	jle    4f75 <riscv_dsp_cifft_rd4_f64+0x13d5>
    4d8c:	48 63 f6             	movslq %esi,%rsi
    4d8f:	4d 63 d2             	movslq %r10d,%r10
    4d92:	f2 41 0f 10 14 f1    	movsd  (%r9,%rsi,8),%xmm2
    4d98:	f2 43 0f 10 24 d1    	movsd  (%r9,%r10,8),%xmm4
    4d9e:	8d 34 7f             	lea    (%rdi,%rdi,2),%esi
    4da1:	45 89 e2             	mov    %r12d,%r10d
    4da4:	d3 e6                	shl    %cl,%esi
    4da6:	41 29 f2             	sub    %esi,%r10d
    4da9:	45 85 d2             	test   %r10d,%r10d
    4dac:	0f 8e 95 01 00 00    	jle    4f47 <riscv_dsp_cifft_rd4_f64+0x13a7>
    4db2:	48 63 f6             	movslq %esi,%rsi
    4db5:	4d 63 d2             	movslq %r10d,%r10
    4db8:	f2 41 0f 10 34 f1    	movsd  (%r9,%rsi,8),%xmm6
    4dbe:	f2 43 0f 10 3c d1    	movsd  (%r9,%r10,8),%xmm7
    4dc4:	66 0f 14 ff          	unpcklpd %xmm7,%xmm7
    4dc8:	66 0f 14 f6          	unpcklpd %xmm6,%xmm6
    4dcc:	45 85 f6             	test   %r14d,%r14d
    4dcf:	0f 84 60 01 00 00    	je     4f35 <riscv_dsp_cifft_rd4_f64+0x1395>
    4dd5:	4f 8d 14 38          	lea    (%r8,%r15,1),%r10
    4dd9:	4c 89 c6             	mov    %r8,%rsi
    4ddc:	45 89 f3             	mov    %r14d,%r11d
    4ddf:	90                   	nop
    4de0:	f2 0f 10 06          	movsd  (%rsi),%xmm0
    4de4:	f2 41 0f 10 0a       	movsd  (%r10),%xmm1
    4de9:	f2 44 0f 10 04 16    	movsd  (%rsi,%rdx,1),%xmm8
    4def:	f2 45 0f 10 14 12    	movsd  (%r10,%rdx,1),%xmm10
    4df5:	66 44 0f 28 d8       	movapd %xmm0,%xmm11
    4dfa:	f2 0f 5c c1          	subsd  %xmm1,%xmm0
    4dfe:	f2 44 0f 58 d9       	addsd  %xmm1,%xmm11
    4e03:	66 41 0f 28 c8       	movapd %xmm8,%xmm1
    4e08:	f2 45 0f 5c c2       	subsd  %xmm10,%xmm8
    4e0d:	f2 41 0f 58 ca       	addsd  %xmm10,%xmm1
    4e12:	66 44 0f 28 d1       	movapd %xmm1,%xmm10
    4e17:	f2 45 0f 58 d3       	addsd  %xmm11,%xmm10
    4e1c:	f2 44 0f 5c d9       	subsd  %xmm1,%xmm11
    4e21:	f2 44 0f 11 16       	movsd  %xmm10,(%rsi)
    4e26:	f2 44 0f 10 56 08    	movsd  0x8(%rsi),%xmm10
    4e2c:	f2 45 0f 10 62 08    	movsd  0x8(%r10),%xmm12
    4e32:	f2 45 0f 10 74 12 08 	movsd  0x8(%r10,%rdx,1),%xmm14
    4e39:	66 41 0f 28 ca       	movapd %xmm10,%xmm1
    4e3e:	f2 45 0f 5c d4       	subsd  %xmm12,%xmm10
    4e43:	f2 41 0f 58 cc       	addsd  %xmm12,%xmm1
    4e48:	f2 44 0f 10 64 16 08 	movsd  0x8(%rsi,%rdx,1),%xmm12
    4e4f:	66 45 0f 28 ec       	movapd %xmm12,%xmm13
    4e54:	f2 45 0f 5c e6       	subsd  %xmm14,%xmm12
    4e59:	f2 45 0f 58 ee       	addsd  %xmm14,%xmm13
    4e5e:	66 45 0f 28 f5       	movapd %xmm13,%xmm14
    4e63:	f2 44 0f 58 f1       	addsd  %xmm1,%xmm14
    4e68:	f2 41 0f 5c cd       	subsd  %xmm13,%xmm1
    4e6d:	66 45 0f 28 eb       	movapd %xmm11,%xmm13
    4e72:	f2 44 0f 59 dc       	mulsd  %xmm4,%xmm11
    4e77:	f2 44 0f 59 ea       	mulsd  %xmm2,%xmm13
    4e7c:	f2 44 0f 11 76 08    	movsd  %xmm14,0x8(%rsi)
    4e82:	66 44 0f 28 f1       	movapd %xmm1,%xmm14
    4e87:	f2 0f 59 ca          	mulsd  %xmm2,%xmm1
    4e8b:	f2 44 0f 59 f4       	mulsd  %xmm4,%xmm14
    4e90:	f2 41 0f 5c cb       	subsd  %xmm11,%xmm1
    4e95:	66 45 0f 28 dc       	movapd %xmm12,%xmm11
    4e9a:	f2 44 0f 58 d8       	addsd  %xmm0,%xmm11
    4e9f:	f2 41 0f 5c c4       	subsd  %xmm12,%xmm0
    4ea4:	f2 45 0f 58 ee       	addsd  %xmm14,%xmm13
    4ea9:	f2 0f 11 4c 16 08    	movsd  %xmm1,0x8(%rsi,%rdx,1)
    4eaf:	66 41 0f 28 ca       	movapd %xmm10,%xmm1
    4eb4:	f2 41 0f 5c c8       	subsd  %xmm8,%xmm1
    4eb9:	f2 45 0f 58 c2       	addsd  %xmm10,%xmm8
    4ebe:	f2 44 0f 11 2c 16    	movsd  %xmm13,(%rsi,%rdx,1)
    4ec4:	48 01 c6             	add    %rax,%rsi
    4ec7:	66 45 0f 28 d0       	movapd %xmm8,%xmm10
    4ecc:	66 44 0f 28 e1       	movapd %xmm1,%xmm12
    4ed1:	f2 0f 59 cb          	mulsd  %xmm3,%xmm1
    4ed5:	66 44 0f 14 d0       	unpcklpd %xmm0,%xmm10
    4eda:	66 41 0f 14 c0       	unpcklpd %xmm8,%xmm0
    4edf:	66 0f 59 c6          	mulpd  %xmm6,%xmm0
    4ee3:	66 45 0f 28 c3       	movapd %xmm11,%xmm8
    4ee8:	f2 44 0f 59 dd       	mulsd  %xmm5,%xmm11
    4eed:	66 44 0f 59 d7       	mulpd  %xmm7,%xmm10
    4ef2:	f2 44 0f 59 c3       	mulsd  %xmm3,%xmm8
    4ef7:	f2 44 0f 59 e5       	mulsd  %xmm5,%xmm12
    4efc:	f2 41 0f 5c cb       	subsd  %xmm11,%xmm1
    4f01:	f2 41 0f 11 4a 08    	movsd  %xmm1,0x8(%r10)
    4f07:	66 0f 28 c8          	movapd %xmm0,%xmm1
    4f0b:	66 41 0f 5c c2       	subpd  %xmm10,%xmm0
    4f10:	f2 45 0f 58 c4       	addsd  %xmm12,%xmm8
    4f15:	66 41 0f 58 ca       	addpd  %xmm10,%xmm1
    4f1a:	f2 45 0f 11 02       	movsd  %xmm8,(%r10)
    4f1f:	f2 0f 10 c1          	movsd  %xmm1,%xmm0
    4f23:	41 0f 11 04 12       	movups %xmm0,(%r10,%rdx,1)
    4f28:	49 01 c2             	add    %rax,%r10
    4f2b:	41 83 eb 01          	sub    $0x1,%r11d
    4f2f:	0f 85 ab fe ff ff    	jne    4de0 <riscv_dsp_cifft_rd4_f64+0x1240>
    4f35:	49 83 c0 10          	add    $0x10,%r8
    4f39:	4c 39 c5             	cmp    %r8,%rbp
    4f3c:	0f 85 0e fe ff ff    	jne    4d50 <riscv_dsp_cifft_rd4_f64+0x11b0>
    4f42:	e9 52 f5 ff ff       	jmp    4499 <riscv_dsp_cifft_rd4_f64+0x8f9>
    4f47:	44 8d 96 00 ff ff ff 	lea    -0x100(%rsi),%r10d
    4f4e:	45 89 e3             	mov    %r12d,%r11d
    4f51:	45 29 d3             	sub    %r10d,%r11d
    4f54:	45 85 db             	test   %r11d,%r11d
    4f57:	7e 7c                	jle    4fd5 <riscv_dsp_cifft_rd4_f64+0x1435>
    4f59:	4d 63 db             	movslq %r11d,%r11
    4f5c:	4d 63 d2             	movslq %r10d,%r10
    4f5f:	f2 43 0f 10 34 d9    	movsd  (%r9,%r11,8),%xmm6
    4f65:	f2 43 0f 10 3c d1    	movsd  (%r9,%r10,8),%xmm7
    4f6b:	66 41 0f 57 f1       	xorpd  %xmm9,%xmm6
    4f70:	e9 4f fe ff ff       	jmp    4dc4 <riscv_dsp_cifft_rd4_f64+0x1224>
    4f75:	44 8d 96 00 ff ff ff 	lea    -0x100(%rsi),%r10d
    4f7c:	45 89 e3             	mov    %r12d,%r11d
    4f7f:	45 29 d3             	sub    %r10d,%r11d
    4f82:	45 85 db             	test   %r11d,%r11d
    4f85:	0f 8e ce 00 00 00    	jle    5059 <riscv_dsp_cifft_rd4_f64+0x14b9>
    4f8b:	4d 63 db             	movslq %r11d,%r11
    4f8e:	4d 63 d2             	movslq %r10d,%r10
    4f91:	f2 43 0f 10 14 d9    	movsd  (%r9,%r11,8),%xmm2
    4f97:	f2 43 0f 10 24 d1    	movsd  (%r9,%r10,8),%xmm4
    4f9d:	66 41 0f 57 d1       	xorpd  %xmm9,%xmm2
    4fa2:	e9 f7 fd ff ff       	jmp    4d9e <riscv_dsp_cifft_rd4_f64+0x11fe>
    4fa7:	44 8d 96 00 ff ff ff 	lea    -0x100(%rsi),%r10d
    4fae:	45 89 e3             	mov    %r12d,%r11d
    4fb1:	45 29 d3             	sub    %r10d,%r11d
    4fb4:	45 85 db             	test   %r11d,%r11d
    4fb7:	7e 5e                	jle    5017 <riscv_dsp_cifft_rd4_f64+0x1477>
    4fb9:	4d 63 db             	movslq %r11d,%r11
    4fbc:	4d 63 d2             	movslq %r10d,%r10
    4fbf:	f2 43 0f 10 1c d9    	movsd  (%r9,%r11,8),%xmm3
    4fc5:	f2 43 0f 10 2c d1    	movsd  (%r9,%r10,8),%xmm5
    4fcb:	66 41 0f 57 d9       	xorpd  %xmm9,%xmm3
    4fd0:	e9 a3 fd ff ff       	jmp    4d78 <riscv_dsp_cifft_rd4_f64+0x11d8>
    4fd5:	81 ee 00 02 00 00    	sub    $0x200,%esi
    4fdb:	45 89 e2             	mov    %r12d,%r10d
    4fde:	41 29 f2             	sub    %esi,%r10d
    4fe1:	48 63 f6             	movslq %esi,%rsi
    4fe4:	f2 41 0f 10 3c f1    	movsd  (%r9,%rsi,8),%xmm7
    4fea:	4d 63 da             	movslq %r10d,%r11
    4fed:	f2 43 0f 10 34 d9    	movsd  (%r9,%r11,8),%xmm6
    4ff3:	66 41 0f 57 f9       	xorpd  %xmm9,%xmm7
    4ff8:	45 85 d2             	test   %r10d,%r10d
    4ffb:	0f 8e c3 fd ff ff    	jle    4dc4 <riscv_dsp_cifft_rd4_f64+0x1224>
    5001:	66 41 0f 57 f1       	xorpd  %xmm9,%xmm6
    5006:	66 0f 28 c6          	movapd %xmm6,%xmm0
    500a:	66 0f 28 f7          	movapd %xmm7,%xmm6
    500e:	66 0f 28 f8          	movapd %xmm0,%xmm7
    5012:	e9 ad fd ff ff       	jmp    4dc4 <riscv_dsp_cifft_rd4_f64+0x1224>
    5017:	81 ee 00 02 00 00    	sub    $0x200,%esi
    501d:	45 89 e2             	mov    %r12d,%r10d
    5020:	41 29 f2             	sub    %esi,%r10d
    5023:	48 63 f6             	movslq %esi,%rsi
    5026:	f2 41 0f 10 2c f1    	movsd  (%r9,%rsi,8),%xmm5
    502c:	4d 63 da             	movslq %r10d,%r11
    502f:	f2 43 0f 10 1c d9    	movsd  (%r9,%r11,8),%xmm3
    5035:	66 41 0f 57 e9       	xorpd  %xmm9,%xmm5
    503a:	45 85 d2             	test   %r10d,%r10d
    503d:	0f 8e 35 fd ff ff    	jle    4d78 <riscv_dsp_cifft_rd4_f64+0x11d8>
    5043:	66 41 0f 57 d9       	xorpd  %xmm9,%xmm3
    5048:	66 0f 28 c3          	movapd %xmm3,%xmm0
    504c:	66 0f 28 dd          	movapd %xmm5,%xmm3
    5050:	66 0f 28 e8          	movapd %xmm0,%xmm5
    5054:	e9 1f fd ff ff       	jmp    4d78 <riscv_dsp_cifft_rd4_f64+0x11d8>
    5059:	81 ee 00 02 00 00    	sub    $0x200,%esi
    505f:	45 89 e2             	mov    %r12d,%r10d
    5062:	41 29 f2             	sub    %esi,%r10d
    5065:	48 63 f6             	movslq %esi,%rsi
    5068:	f2 41 0f 10 24 f1    	movsd  (%r9,%rsi,8),%xmm4
    506e:	4d 63 da             	movslq %r10d,%r11
    5071:	f2 43 0f 10 14 d9    	movsd  (%r9,%r11,8),%xmm2
    5077:	66 41 0f 57 e1       	xorpd  %xmm9,%xmm4
    507c:	45 85 d2             	test   %r10d,%r10d
    507f:	0f 8e 19 fd ff ff    	jle    4d9e <riscv_dsp_cifft_rd4_f64+0x11fe>
    5085:	66 0f 28 c2          	movapd %xmm2,%xmm0
    5089:	66 0f 28 d4          	movapd %xmm4,%xmm2
    508d:	66 41 0f 57 c1       	xorpd  %xmm9,%xmm0
    5092:	66 0f 28 e0          	movapd %xmm0,%xmm4
    5096:	e9 03 fd ff ff       	jmp    4d9e <riscv_dsp_cifft_rd4_f64+0x11fe>
    509b:	5b                   	pop    %rbx
    509c:	31 c0                	xor    %eax,%eax
    509e:	5d                   	pop    %rbp
    509f:	41 5c                	pop    %r12
    50a1:	41 5d                	pop    %r13
    50a3:	41 5e                	pop    %r14
    50a5:	41 5f                	pop    %r15
    50a7:	c3                   	ret    

Disassembly of section .fini:

00000000000050a8 <_fini>:
    50a8:	f3 0f 1e fa          	endbr64 
    50ac:	48 83 ec 08          	sub    $0x8,%rsp
    50b0:	48 83 c4 08          	add    $0x8,%rsp
    50b4:	c3                   	ret    
