
t_cmag_sqr_q31:     file format elf64-x86-64


Disassembly of section .init:

0000000000001000 <_init>:
    1000:	f3 0f 1e fa          	endbr64 
    1004:	48 83 ec 08          	sub    $0x8,%rsp
    1008:	48 8b 05 d9 2f 00 00 	mov    0x2fd9(%rip),%rax        # 3fe8 <__gmon_start__@Base>
    100f:	48 85 c0             	test   %rax,%rax
    1012:	74 02                	je     1016 <_init+0x16>
    1014:	ff d0                	call   *%rax
    1016:	48 83 c4 08          	add    $0x8,%rsp
    101a:	c3                   	ret    

Disassembly of section .plt:

0000000000001020 <.plt>:
    1020:	ff 35 5a 2f 00 00    	push   0x2f5a(%rip)        # 3f80 <_GLOBAL_OFFSET_TABLE_+0x8>
    1026:	f2 ff 25 5b 2f 00 00 	bnd jmp *0x2f5b(%rip)        # 3f88 <_GLOBAL_OFFSET_TABLE_+0x10>
    102d:	0f 1f 00             	nopl   (%rax)
    1030:	f3 0f 1e fa          	endbr64 
    1034:	68 00 00 00 00       	push   $0x0
    1039:	f2 e9 e1 ff ff ff    	bnd jmp 1020 <_init+0x20>
    103f:	90                   	nop
    1040:	f3 0f 1e fa          	endbr64 
    1044:	68 01 00 00 00       	push   $0x1
    1049:	f2 e9 d1 ff ff ff    	bnd jmp 1020 <_init+0x20>
    104f:	90                   	nop
    1050:	f3 0f 1e fa          	endbr64 
    1054:	68 02 00 00 00       	push   $0x2
    1059:	f2 e9 c1 ff ff ff    	bnd jmp 1020 <_init+0x20>
    105f:	90                   	nop
    1060:	f3 0f 1e fa          	endbr64 
    1064:	68 03 00 00 00       	push   $0x3
    1069:	f2 e9 b1 ff ff ff    	bnd jmp 1020 <_init+0x20>
    106f:	90                   	nop
    1070:	f3 0f 1e fa          	endbr64 
    1074:	68 04 00 00 00       	push   $0x4
    1079:	f2 e9 a1 ff ff ff    	bnd jmp 1020 <_init+0x20>
    107f:	90                   	nop
    1080:	f3 0f 1e fa          	endbr64 
    1084:	68 05 00 00 00       	push   $0x5
    1089:	f2 e9 91 ff ff ff    	bnd jmp 1020 <_init+0x20>
    108f:	90                   	nop
    1090:	f3 0f 1e fa          	endbr64 
    1094:	68 06 00 00 00       	push   $0x6
    1099:	f2 e9 81 ff ff ff    	bnd jmp 1020 <_init+0x20>
    109f:	90                   	nop
    10a0:	f3 0f 1e fa          	endbr64 
    10a4:	68 07 00 00 00       	push   $0x7
    10a9:	f2 e9 71 ff ff ff    	bnd jmp 1020 <_init+0x20>
    10af:	90                   	nop
    10b0:	f3 0f 1e fa          	endbr64 
    10b4:	68 08 00 00 00       	push   $0x8
    10b9:	f2 e9 61 ff ff ff    	bnd jmp 1020 <_init+0x20>
    10bf:	90                   	nop

Disassembly of section .plt.got:

00000000000010c0 <__cxa_finalize@plt>:
    10c0:	f3 0f 1e fa          	endbr64 
    10c4:	f2 ff 25 2d 2f 00 00 	bnd jmp *0x2f2d(%rip)        # 3ff8 <__cxa_finalize@GLIBC_2.2.5>
    10cb:	0f 1f 44 00 00       	nopl   0x0(%rax,%rax,1)

Disassembly of section .plt.sec:

00000000000010d0 <puts@plt>:
    10d0:	f3 0f 1e fa          	endbr64 
    10d4:	f2 ff 25 b5 2e 00 00 	bnd jmp *0x2eb5(%rip)        # 3f90 <puts@GLIBC_2.2.5>
    10db:	0f 1f 44 00 00       	nopl   0x0(%rax,%rax,1)

00000000000010e0 <fread@plt>:
    10e0:	f3 0f 1e fa          	endbr64 
    10e4:	f2 ff 25 ad 2e 00 00 	bnd jmp *0x2ead(%rip)        # 3f98 <fread@GLIBC_2.2.5>
    10eb:	0f 1f 44 00 00       	nopl   0x0(%rax,%rax,1)

00000000000010f0 <fclose@plt>:
    10f0:	f3 0f 1e fa          	endbr64 
    10f4:	f2 ff 25 a5 2e 00 00 	bnd jmp *0x2ea5(%rip)        # 3fa0 <fclose@GLIBC_2.2.5>
    10fb:	0f 1f 44 00 00       	nopl   0x0(%rax,%rax,1)

0000000000001100 <__stack_chk_fail@plt>:
    1100:	f3 0f 1e fa          	endbr64 
    1104:	f2 ff 25 9d 2e 00 00 	bnd jmp *0x2e9d(%rip)        # 3fa8 <__stack_chk_fail@GLIBC_2.4>
    110b:	0f 1f 44 00 00       	nopl   0x0(%rax,%rax,1)

0000000000001110 <log10f@plt>:
    1110:	f3 0f 1e fa          	endbr64 
    1114:	f2 ff 25 95 2e 00 00 	bnd jmp *0x2e95(%rip)        # 3fb0 <log10f@GLIBC_2.2.5>
    111b:	0f 1f 44 00 00       	nopl   0x0(%rax,%rax,1)

0000000000001120 <__printf_chk@plt>:
    1120:	f3 0f 1e fa          	endbr64 
    1124:	f2 ff 25 8d 2e 00 00 	bnd jmp *0x2e8d(%rip)        # 3fb8 <__printf_chk@GLIBC_2.3.4>
    112b:	0f 1f 44 00 00       	nopl   0x0(%rax,%rax,1)

0000000000001130 <fopen@plt>:
    1130:	f3 0f 1e fa          	endbr64 
    1134:	f2 ff 25 85 2e 00 00 	bnd jmp *0x2e85(%rip)        # 3fc0 <fopen@GLIBC_2.2.5>
    113b:	0f 1f 44 00 00       	nopl   0x0(%rax,%rax,1)

0000000000001140 <sqrt@plt>:
    1140:	f3 0f 1e fa          	endbr64 
    1144:	f2 ff 25 7d 2e 00 00 	bnd jmp *0x2e7d(%rip)        # 3fc8 <sqrt@GLIBC_2.2.5>
    114b:	0f 1f 44 00 00       	nopl   0x0(%rax,%rax,1)

0000000000001150 <__sprintf_chk@plt>:
    1150:	f3 0f 1e fa          	endbr64 
    1154:	f2 ff 25 75 2e 00 00 	bnd jmp *0x2e75(%rip)        # 3fd0 <__sprintf_chk@GLIBC_2.3.4>
    115b:	0f 1f 44 00 00       	nopl   0x0(%rax,%rax,1)

Disassembly of section .text:

0000000000001160 <main>:
    1160:	f3 0f 1e fa          	endbr64 
    1164:	55                   	push   %rbp
    1165:	48 89 e5             	mov    %rsp,%rbp
    1168:	41 57                	push   %r15
    116a:	41 56                	push   %r14
    116c:	41 55                	push   %r13
    116e:	41 54                	push   %r12
    1170:	53                   	push   %rbx
    1171:	48 81 ec 38 02 00 00 	sub    $0x238,%rsp
    1178:	64 48 8b 04 25 28 00 	mov    %fs:0x28,%rax
    117f:	00 00 
    1181:	48 89 45 c8          	mov    %rax,-0x38(%rbp)
    1185:	31 c0                	xor    %eax,%eax
    1187:	48 8d 84 24 00 00 ff 	lea    -0x10000(%rsp),%rax
    118e:	ff 
    118f:	48 39 c4             	cmp    %rax,%rsp
    1192:	74 15                	je     11a9 <main+0x49>
    1194:	48 81 ec 00 10 00 00 	sub    $0x1000,%rsp
    119b:	48 83 8c 24 f8 0f 00 	orq    $0x0,0xff8(%rsp)
    11a2:	00 00 
    11a4:	48 39 c4             	cmp    %rax,%rsp
    11a7:	75 eb                	jne    1194 <main+0x34>
    11a9:	48 89 e3             	mov    %rsp,%rbx
    11ac:	48 8d 84 24 00 80 ff 	lea    -0x8000(%rsp),%rax
    11b3:	ff 
    11b4:	48 39 c4             	cmp    %rax,%rsp
    11b7:	74 12                	je     11cb <main+0x6b>
    11b9:	48 81 ec 00 10 00 00 	sub    $0x1000,%rsp
    11c0:	48 83 8c 24 f8 0f 00 	orq    $0x0,0xff8(%rsp)
    11c7:	00 00 
    11c9:	eb e9                	jmp    11b4 <main+0x54>
    11cb:	49 89 e5             	mov    %rsp,%r13
    11ce:	48 8d 84 24 00 80 ff 	lea    -0x8000(%rsp),%rax
    11d5:	ff 
    11d6:	48 39 c4             	cmp    %rax,%rsp
    11d9:	74 12                	je     11ed <main+0x8d>
    11db:	48 81 ec 00 10 00 00 	sub    $0x1000,%rsp
    11e2:	48 83 8c 24 f8 0f 00 	orq    $0x0,0xff8(%rsp)
    11e9:	00 00 
    11eb:	eb e9                	jmp    11d6 <main+0x76>
    11ed:	4c 8d 05 14 0e 00 00 	lea    0xe14(%rip),%r8        # 2008 <_IO_stdin_used+0x8>
    11f4:	ba 00 02 00 00       	mov    $0x200,%edx
    11f9:	31 c0                	xor    %eax,%eax
    11fb:	48 8d 0d 98 0e 00 00 	lea    0xe98(%rip),%rcx        # 209a <_IO_stdin_used+0x9a>
    1202:	be 01 00 00 00       	mov    $0x1,%esi
    1207:	4c 8d 25 a1 0e 00 00 	lea    0xea1(%rip),%r12        # 20af <_IO_stdin_used+0xaf>
    120e:	48 8d bd c0 fd ff ff 	lea    -0x240(%rbp),%rdi
    1215:	49 89 e7             	mov    %rsp,%r15
    1218:	48 89 bd b8 fd ff ff 	mov    %rdi,-0x248(%rbp)
    121f:	e8 2c ff ff ff       	call   1150 <__sprintf_chk@plt>
    1224:	48 8b bd b8 fd ff ff 	mov    -0x248(%rbp),%rdi
    122b:	4c 89 e6             	mov    %r12,%rsi
    122e:	e8 fd fe ff ff       	call   1130 <fopen@plt>
    1233:	48 8b bd b8 fd ff ff 	mov    -0x248(%rbp),%rdi
    123a:	48 85 c0             	test   %rax,%rax
    123d:	49 89 c6             	mov    %rax,%r14
    1240:	0f 84 c1 03 00 00    	je     1607 <main+0x4a7>
    1246:	4c 8d 05 bb 0d 00 00 	lea    0xdbb(%rip),%r8        # 2008 <_IO_stdin_used+0x8>
    124d:	48 8d 0d 5d 0e 00 00 	lea    0xe5d(%rip),%rcx        # 20b1 <_IO_stdin_used+0xb1>
    1254:	ba 00 02 00 00       	mov    $0x200,%edx
    1259:	31 c0                	xor    %eax,%eax
    125b:	be 01 00 00 00       	mov    $0x1,%esi
    1260:	48 89 bd b8 fd ff ff 	mov    %rdi,-0x248(%rbp)
    1267:	e8 e4 fe ff ff       	call   1150 <__sprintf_chk@plt>
    126c:	48 8b bd b8 fd ff ff 	mov    -0x248(%rbp),%rdi
    1273:	4c 89 e6             	mov    %r12,%rsi
    1276:	e8 b5 fe ff ff       	call   1130 <fopen@plt>
    127b:	49 89 c4             	mov    %rax,%r12
    127e:	48 85 c0             	test   %rax,%rax
    1281:	0f 84 80 03 00 00    	je     1607 <main+0x4a7>
    1287:	4c 89 f2             	mov    %r14,%rdx
    128a:	be 00 40 00 00       	mov    $0x4000,%esi
    128f:	48 89 df             	mov    %rbx,%rdi
    1292:	e8 79 04 00 00       	call   1710 <test_Fread.constprop.0.isra.0>
    1297:	4c 89 e2             	mov    %r12,%rdx
    129a:	be 00 20 00 00       	mov    $0x2000,%esi
    129f:	4c 89 ff             	mov    %r15,%rdi
    12a2:	e8 69 04 00 00       	call   1710 <test_Fread.constprop.0.isra.0>
    12a7:	ba 00 20 00 00       	mov    $0x2000,%edx
    12ac:	4c 89 ee             	mov    %r13,%rsi
    12af:	48 89 df             	mov    %rbx,%rdi
    12b2:	e8 69 04 00 00       	call   1720 <riscv_dsp_cmag_sqr_q31>
    12b7:	31 c0                	xor    %eax,%eax
    12b9:	66 0f ef d2          	pxor   %xmm2,%xmm2
    12bd:	0f 1f 00             	nopl   (%rax)
    12c0:	f3 41 0f 6f 04 07    	movdqu (%r15,%rax,1),%xmm0
    12c6:	f3 41 0f 6f 7c 05 00 	movdqu 0x0(%r13,%rax,1),%xmm7
    12cd:	48 83 c0 10          	add    $0x10,%rax
    12d1:	66 0f fa c7          	psubd  %xmm7,%xmm0
    12d5:	66 0f 6f c8          	movdqa %xmm0,%xmm1
    12d9:	66 0f 72 e1 1f       	psrad  $0x1f,%xmm1
    12de:	66 0f ef c1          	pxor   %xmm1,%xmm0
    12e2:	66 0f fa c1          	psubd  %xmm1,%xmm0
    12e6:	66 0f 6f c8          	movdqa %xmm0,%xmm1
    12ea:	66 0f 66 ca          	pcmpgtd %xmm2,%xmm1
    12ee:	66 0f db c1          	pand   %xmm1,%xmm0
    12f2:	66 0f df ca          	pandn  %xmm2,%xmm1
    12f6:	66 0f 6f d1          	movdqa %xmm1,%xmm2
    12fa:	66 0f eb d0          	por    %xmm0,%xmm2
    12fe:	48 3d 00 80 00 00    	cmp    $0x8000,%rax
    1304:	75 ba                	jne    12c0 <main+0x160>
    1306:	66 0f 6f c2          	movdqa %xmm2,%xmm0
    130a:	48 8d 35 be 0d 00 00 	lea    0xdbe(%rip),%rsi        # 20cf <_IO_stdin_used+0xcf>
    1311:	bf 01 00 00 00       	mov    $0x1,%edi
    1316:	31 c0                	xor    %eax,%eax
    1318:	66 0f 73 d8 08       	psrldq $0x8,%xmm0
    131d:	66 0f 6f c8          	movdqa %xmm0,%xmm1
    1321:	66 0f 66 ca          	pcmpgtd %xmm2,%xmm1
    1325:	66 0f db c1          	pand   %xmm1,%xmm0
    1329:	66 0f df ca          	pandn  %xmm2,%xmm1
    132d:	66 0f eb c8          	por    %xmm0,%xmm1
    1331:	66 0f 6f d1          	movdqa %xmm1,%xmm2
    1335:	66 0f 73 da 04       	psrldq $0x4,%xmm2
    133a:	66 0f 6f c2          	movdqa %xmm2,%xmm0
    133e:	66 0f 66 c1          	pcmpgtd %xmm1,%xmm0
    1342:	66 0f db d0          	pand   %xmm0,%xmm2
    1346:	66 0f df c1          	pandn  %xmm1,%xmm0
    134a:	66 0f eb c2          	por    %xmm2,%xmm0
    134e:	66 0f 7e c2          	movd   %xmm0,%edx
    1352:	e8 c9 fd ff ff       	call   1120 <__printf_chk@plt>
    1357:	4c 89 f7             	mov    %r14,%rdi
    135a:	e8 91 fd ff ff       	call   10f0 <fclose@plt>
    135f:	4c 89 e7             	mov    %r12,%rdi
    1362:	e8 89 fd ff ff       	call   10f0 <fclose@plt>
    1367:	48 8d 84 24 00 80 ff 	lea    -0x8000(%rsp),%rax
    136e:	ff 
    136f:	48 39 c4             	cmp    %rax,%rsp
    1372:	74 15                	je     1389 <main+0x229>
    1374:	48 81 ec 00 10 00 00 	sub    $0x1000,%rsp
    137b:	48 83 8c 24 f8 0f 00 	orq    $0x0,0xff8(%rsp)
    1382:	00 00 
    1384:	48 39 c4             	cmp    %rax,%rsp
    1387:	75 eb                	jne    1374 <main+0x214>
    1389:	48 89 e3             	mov    %rsp,%rbx
    138c:	48 8d 84 24 00 80 ff 	lea    -0x8000(%rsp),%rax
    1393:	ff 
    1394:	48 39 c4             	cmp    %rax,%rsp
    1397:	74 12                	je     13ab <main+0x24b>
    1399:	48 81 ec 00 10 00 00 	sub    $0x1000,%rsp
    13a0:	48 83 8c 24 f8 0f 00 	orq    $0x0,0xff8(%rsp)
    13a7:	00 00 
    13a9:	eb e9                	jmp    1394 <main+0x234>
    13ab:	ba 00 20 00 00       	mov    $0x2000,%edx
    13b0:	48 89 de             	mov    %rbx,%rsi
    13b3:	4c 89 ff             	mov    %r15,%rdi
    13b6:	49 89 e4             	mov    %rsp,%r12
    13b9:	e8 a2 03 00 00       	call   1760 <riscv_dsp_convert_q31_f32>
    13be:	ba 00 20 00 00       	mov    $0x2000,%edx
    13c3:	4c 89 e6             	mov    %r12,%rsi
    13c6:	4c 89 ef             	mov    %r13,%rdi
    13c9:	e8 92 03 00 00       	call   1760 <riscv_dsp_convert_q31_f32>
    13ce:	66 0f ef db          	pxor   %xmm3,%xmm3
    13d2:	66 0f ef ff          	pxor   %xmm7,%xmm7
    13d6:	31 c0                	xor    %eax,%eax
    13d8:	66 0f 28 ef          	movapd %xmm7,%xmm5
    13dc:	0f 28 c3             	movaps %xmm3,%xmm0
    13df:	44 0f 28 c3          	movaps %xmm3,%xmm8
    13e3:	f3 44 0f 10 0d 24 0d 	movss  0xd24(%rip),%xmm9        # 2110 <_IO_stdin_used+0x110>
    13ea:	00 00 
    13ec:	0f 28 f3             	movaps %xmm3,%xmm6
    13ef:	90                   	nop
    13f0:	f3 41 0f 10 0c 04    	movss  (%r12,%rax,1),%xmm1
    13f6:	f3 0f 10 14 03       	movss  (%rbx,%rax,1),%xmm2
    13fb:	66 0f 7e c9          	movd   %xmm1,%ecx
    13ff:	81 f9 00 00 c0 7f    	cmp    $0x7fc00000,%ecx
    1405:	0f 84 b7 01 00 00    	je     15c2 <main+0x462>
    140b:	0f 28 e2             	movaps %xmm2,%xmm4
    140e:	f3 0f 5c ca          	subss  %xmm2,%xmm1
    1412:	48 83 c0 04          	add    $0x4,%rax
    1416:	f3 0f 5f e6          	maxss  %xmm6,%xmm4
    141a:	0f 28 f4             	movaps %xmm4,%xmm6
    141d:	0f 28 e2             	movaps %xmm2,%xmm4
    1420:	f3 41 0f 5d e0       	minss  %xmm8,%xmm4
    1425:	f3 0f 59 d2          	mulss  %xmm2,%xmm2
    1429:	44 0f 28 c4          	movaps %xmm4,%xmm8
    142d:	0f 28 e1             	movaps %xmm1,%xmm4
    1430:	f3 0f 59 c9          	mulss  %xmm1,%xmm1
    1434:	41 0f 54 e1          	andps  %xmm9,%xmm4
    1438:	f3 0f 58 c4          	addss  %xmm4,%xmm0
    143c:	f3 0f 5f e3          	maxss  %xmm3,%xmm4
    1440:	f3 0f 5a d2          	cvtss2sd %xmm2,%xmm2
    1444:	f2 0f 58 fa          	addsd  %xmm2,%xmm7
    1448:	0f 28 dc             	movaps %xmm4,%xmm3
    144b:	f3 0f 5a c9          	cvtss2sd %xmm1,%xmm1
    144f:	f2 0f 58 e9          	addsd  %xmm1,%xmm5
    1453:	48 3d 00 80 00 00    	cmp    $0x8000,%rax
    1459:	75 95                	jne    13f0 <main+0x290>
    145b:	66 48 0f 7e e8       	movq   %xmm5,%rax
    1460:	f3 0f 11 a5 ac fd ff 	movss  %xmm4,-0x254(%rbp)
    1467:	ff 
    1468:	f3 44 0f 11 85 b0 fd 	movss  %xmm8,-0x250(%rbp)
    146f:	ff ff 
    1471:	f3 0f 11 b5 b4 fd ff 	movss  %xmm6,-0x24c(%rbp)
    1478:	ff 
    1479:	f2 0f 11 bd b8 fd ff 	movsd  %xmm7,-0x248(%rbp)
    1480:	ff 
    1481:	3d 00 00 c0 7f       	cmp    $0x7fc00000,%eax
    1486:	0f 84 36 01 00 00    	je     15c2 <main+0x462>
    148c:	f3 0f 59 05 68 0c 00 	mulss  0xc68(%rip),%xmm0        # 20fc <_IO_stdin_used+0xfc>
    1493:	00 
    1494:	f2 0f 11 ad a0 fd ff 	movsd  %xmm5,-0x260(%rbp)
    149b:	ff 
    149c:	66 41 0f 7e c6       	movd   %xmm0,%r14d
    14a1:	66 0f 28 c5          	movapd %xmm5,%xmm0
    14a5:	f2 0f 59 05 73 0c 00 	mulsd  0xc73(%rip),%xmm0        # 2120 <_IO_stdin_used+0x120>
    14ac:	00 
    14ad:	e8 8e fc ff ff       	call   1140 <sqrt@plt>
    14b2:	f3 0f 10 b5 b4 fd ff 	movss  -0x24c(%rbp),%xmm6
    14b9:	ff 
    14ba:	f3 44 0f 10 85 b0 fd 	movss  -0x250(%rbp),%xmm8
    14c1:	ff ff 
    14c3:	66 0f ef c9          	pxor   %xmm1,%xmm1
    14c7:	f2 0f 5a c8          	cvtsd2ss %xmm0,%xmm1
    14cb:	0f 28 e9             	movaps %xmm1,%xmm5
    14ce:	f2 0f 10 bd b8 fd ff 	movsd  -0x248(%rbp),%xmm7
    14d5:	ff 
    14d6:	f3 0f 10 9d ac fd ff 	movss  -0x254(%rbp),%xmm3
    14dd:	ff 
    14de:	f3 41 0f 5c f0       	subss  %xmm8,%xmm6
    14e3:	f3 0f 5e ee          	divss  %xmm6,%xmm5
    14e7:	66 0f ef f6          	pxor   %xmm6,%xmm6
    14eb:	66 0f 7e eb          	movd   %xmm5,%ebx
    14ef:	f2 0f 10 ad a0 fd ff 	movsd  -0x260(%rbp),%xmm5
    14f6:	ff 
    14f7:	66 0f 2e ee          	ucomisd %xmm6,%xmm5
    14fb:	0f 8a c5 00 00 00    	jp     15c6 <main+0x466>
    1501:	f3 0f 10 25 ef 0b 00 	movss  0xbef(%rip),%xmm4        # 20f8 <_IO_stdin_used+0xf8>
    1508:	00 
    1509:	0f 85 b7 00 00 00    	jne    15c6 <main+0x466>
    150f:	48 8d 3d cc 0b 00 00 	lea    0xbcc(%rip),%rdi        # 20e2 <_IO_stdin_used+0xe2>
    1516:	f3 0f 11 9d b0 fd ff 	movss  %xmm3,-0x250(%rbp)
    151d:	ff 
    151e:	f3 0f 11 a5 b8 fd ff 	movss  %xmm4,-0x248(%rbp)
    1525:	ff 
    1526:	f3 0f 11 8d b4 fd ff 	movss  %xmm1,-0x24c(%rbp)
    152d:	ff 
    152e:	e8 9d fb ff ff       	call   10d0 <puts@plt>
    1533:	66 0f 6e eb          	movd   %ebx,%xmm5
    1537:	66 0f ef d2          	pxor   %xmm2,%xmm2
    153b:	f3 0f 10 a5 b8 fd ff 	movss  -0x248(%rbp),%xmm4
    1542:	ff 
    1543:	f3 0f 10 9d b0 fd ff 	movss  -0x250(%rbp),%xmm3
    154a:	ff 
    154b:	f3 0f 10 8d b4 fd ff 	movss  -0x24c(%rbp),%xmm1
    1552:	ff 
    1553:	f3 0f 5a d5          	cvtss2sd %xmm5,%xmm2
    1557:	66 0f ef c0          	pxor   %xmm0,%xmm0
    155b:	66 41 0f 6e ee       	movd   %r14d,%xmm5
    1560:	48 8d 35 e1 0a 00 00 	lea    0xae1(%rip),%rsi        # 2048 <_IO_stdin_used+0x48>
    1567:	bf 01 00 00 00       	mov    $0x1,%edi
    156c:	b8 05 00 00 00       	mov    $0x5,%eax
    1571:	f3 0f 5a c5          	cvtss2sd %xmm5,%xmm0
    1575:	f3 0f 5a e4          	cvtss2sd %xmm4,%xmm4
    1579:	f3 0f 5a db          	cvtss2sd %xmm3,%xmm3
    157d:	f3 0f 5a c9          	cvtss2sd %xmm1,%xmm1
    1581:	f2 0f 11 95 b8 fd ff 	movsd  %xmm2,-0x248(%rbp)
    1588:	ff 
    1589:	e8 92 fb ff ff       	call   1120 <__printf_chk@plt>
    158e:	f2 0f 10 05 92 0b 00 	movsd  0xb92(%rip),%xmm0        # 2128 <_IO_stdin_used+0x128>
    1595:	00 
    1596:	f2 0f 10 95 b8 fd ff 	movsd  -0x248(%rbp),%xmm2
    159d:	ff 
    159e:	66 0f 2f c2          	comisd %xmm2,%xmm0
    15a2:	19 c0                	sbb    %eax,%eax
    15a4:	48 8b 55 c8          	mov    -0x38(%rbp),%rdx
    15a8:	64 48 2b 14 25 28 00 	sub    %fs:0x28,%rdx
    15af:	00 00 
    15b1:	75 59                	jne    160c <main+0x4ac>
    15b3:	48 8d 65 d8          	lea    -0x28(%rbp),%rsp
    15b7:	5b                   	pop    %rbx
    15b8:	41 5c                	pop    %r12
    15ba:	41 5d                	pop    %r13
    15bc:	41 5e                	pop    %r14
    15be:	41 5f                	pop    %r15
    15c0:	5d                   	pop    %rbp
    15c1:	c3                   	ret    
    15c2:	31 c0                	xor    %eax,%eax
    15c4:	eb de                	jmp    15a4 <main+0x444>
    15c6:	f2 0f 5e fd          	divsd  %xmm5,%xmm7
    15ca:	66 0f ef c0          	pxor   %xmm0,%xmm0
    15ce:	f3 0f 11 9d b4 fd ff 	movss  %xmm3,-0x24c(%rbp)
    15d5:	ff 
    15d6:	f3 0f 11 8d b8 fd ff 	movss  %xmm1,-0x248(%rbp)
    15dd:	ff 
    15de:	f2 0f 5a c7          	cvtsd2ss %xmm7,%xmm0
    15e2:	e8 29 fb ff ff       	call   1110 <log10f@plt>
    15e7:	f3 0f 59 05 11 0b 00 	mulss  0xb11(%rip),%xmm0        # 2100 <_IO_stdin_used+0x100>
    15ee:	00 
    15ef:	f3 0f 10 9d b4 fd ff 	movss  -0x24c(%rbp),%xmm3
    15f6:	ff 
    15f7:	f3 0f 10 8d b8 fd ff 	movss  -0x248(%rbp),%xmm1
    15fe:	ff 
    15ff:	0f 28 e0             	movaps %xmm0,%xmm4
    1602:	e9 08 ff ff ff       	jmp    150f <main+0x3af>
    1607:	83 c8 ff             	or     $0xffffffff,%eax
    160a:	eb 98                	jmp    15a4 <main+0x444>
    160c:	e8 ef fa ff ff       	call   1100 <__stack_chk_fail@plt>
    1611:	66 2e 0f 1f 84 00 00 	cs nopw 0x0(%rax,%rax,1)
    1618:	00 00 00 
    161b:	0f 1f 44 00 00       	nopl   0x0(%rax,%rax,1)

0000000000001620 <_start>:
    1620:	f3 0f 1e fa          	endbr64 
    1624:	31 ed                	xor    %ebp,%ebp
    1626:	49 89 d1             	mov    %rdx,%r9
    1629:	5e                   	pop    %rsi
    162a:	48 89 e2             	mov    %rsp,%rdx
    162d:	48 83 e4 f0          	and    $0xfffffffffffffff0,%rsp
    1631:	50                   	push   %rax
    1632:	54                   	push   %rsp
    1633:	45 31 c0             	xor    %r8d,%r8d
    1636:	31 c9                	xor    %ecx,%ecx
    1638:	48 8d 3d 21 fb ff ff 	lea    -0x4df(%rip),%rdi        # 1160 <main>
    163f:	ff 15 93 29 00 00    	call   *0x2993(%rip)        # 3fd8 <__libc_start_main@GLIBC_2.34>
    1645:	f4                   	hlt    
    1646:	66 2e 0f 1f 84 00 00 	cs nopw 0x0(%rax,%rax,1)
    164d:	00 00 00 

0000000000001650 <deregister_tm_clones>:
    1650:	48 8d 3d b9 29 00 00 	lea    0x29b9(%rip),%rdi        # 4010 <__TMC_END__>
    1657:	48 8d 05 b2 29 00 00 	lea    0x29b2(%rip),%rax        # 4010 <__TMC_END__>
    165e:	48 39 f8             	cmp    %rdi,%rax
    1661:	74 15                	je     1678 <deregister_tm_clones+0x28>
    1663:	48 8b 05 76 29 00 00 	mov    0x2976(%rip),%rax        # 3fe0 <_ITM_deregisterTMCloneTable@Base>
    166a:	48 85 c0             	test   %rax,%rax
    166d:	74 09                	je     1678 <deregister_tm_clones+0x28>
    166f:	ff e0                	jmp    *%rax
    1671:	0f 1f 80 00 00 00 00 	nopl   0x0(%rax)
    1678:	c3                   	ret    
    1679:	0f 1f 80 00 00 00 00 	nopl   0x0(%rax)

0000000000001680 <register_tm_clones>:
    1680:	48 8d 3d 89 29 00 00 	lea    0x2989(%rip),%rdi        # 4010 <__TMC_END__>
    1687:	48 8d 35 82 29 00 00 	lea    0x2982(%rip),%rsi        # 4010 <__TMC_END__>
    168e:	48 29 fe             	sub    %rdi,%rsi
    1691:	48 89 f0             	mov    %rsi,%rax
    1694:	48 c1 ee 3f          	shr    $0x3f,%rsi
    1698:	48 c1 f8 03          	sar    $0x3,%rax
    169c:	48 01 c6             	add    %rax,%rsi
    169f:	48 d1 fe             	sar    %rsi
    16a2:	74 14                	je     16b8 <register_tm_clones+0x38>
    16a4:	48 8b 05 45 29 00 00 	mov    0x2945(%rip),%rax        # 3ff0 <_ITM_registerTMCloneTable@Base>
    16ab:	48 85 c0             	test   %rax,%rax
    16ae:	74 08                	je     16b8 <register_tm_clones+0x38>
    16b0:	ff e0                	jmp    *%rax
    16b2:	66 0f 1f 44 00 00    	nopw   0x0(%rax,%rax,1)
    16b8:	c3                   	ret    
    16b9:	0f 1f 80 00 00 00 00 	nopl   0x0(%rax)

00000000000016c0 <__do_global_dtors_aux>:
    16c0:	f3 0f 1e fa          	endbr64 
    16c4:	80 3d 45 29 00 00 00 	cmpb   $0x0,0x2945(%rip)        # 4010 <__TMC_END__>
    16cb:	75 2b                	jne    16f8 <__do_global_dtors_aux+0x38>
    16cd:	55                   	push   %rbp
    16ce:	48 83 3d 22 29 00 00 	cmpq   $0x0,0x2922(%rip)        # 3ff8 <__cxa_finalize@GLIBC_2.2.5>
    16d5:	00 
    16d6:	48 89 e5             	mov    %rsp,%rbp
    16d9:	74 0c                	je     16e7 <__do_global_dtors_aux+0x27>
    16db:	48 8b 3d 26 29 00 00 	mov    0x2926(%rip),%rdi        # 4008 <__dso_handle>
    16e2:	e8 d9 f9 ff ff       	call   10c0 <__cxa_finalize@plt>
    16e7:	e8 64 ff ff ff       	call   1650 <deregister_tm_clones>
    16ec:	c6 05 1d 29 00 00 01 	movb   $0x1,0x291d(%rip)        # 4010 <__TMC_END__>
    16f3:	5d                   	pop    %rbp
    16f4:	c3                   	ret    
    16f5:	0f 1f 00             	nopl   (%rax)
    16f8:	c3                   	ret    
    16f9:	0f 1f 80 00 00 00 00 	nopl   0x0(%rax)

0000000000001700 <frame_dummy>:
    1700:	f3 0f 1e fa          	endbr64 
    1704:	e9 77 ff ff ff       	jmp    1680 <register_tm_clones>
    1709:	0f 1f 80 00 00 00 00 	nopl   0x0(%rax)

0000000000001710 <test_Fread.constprop.0.isra.0>:
    1710:	48 89 d1             	mov    %rdx,%rcx
    1713:	89 f2                	mov    %esi,%edx
    1715:	be 04 00 00 00       	mov    $0x4,%esi
    171a:	e9 c1 f9 ff ff       	jmp    10e0 <fread@plt>
    171f:	90                   	nop

0000000000001720 <riscv_dsp_cmag_sqr_q31>:
    1720:	f3 0f 1e fa          	endbr64 
    1724:	49 89 f8             	mov    %rdi,%r8
    1727:	85 d2                	test   %edx,%edx
    1729:	74 2c                	je     1757 <riscv_dsp_cmag_sqr_q31+0x37>
    172b:	89 d2                	mov    %edx,%edx
    172d:	31 ff                	xor    %edi,%edi
    172f:	90                   	nop
    1730:	49 63 04 f8          	movslq (%r8,%rdi,8),%rax
    1734:	49 63 4c f8 04       	movslq 0x4(%r8,%rdi,8),%rcx
    1739:	48 0f af c0          	imul   %rax,%rax
    173d:	48 0f af c9          	imul   %rcx,%rcx
    1741:	48 c1 f8 21          	sar    $0x21,%rax
    1745:	48 c1 f9 21          	sar    $0x21,%rcx
    1749:	01 c8                	add    %ecx,%eax
    174b:	89 04 be             	mov    %eax,(%rsi,%rdi,4)
    174e:	48 83 c7 01          	add    $0x1,%rdi
    1752:	48 39 d7             	cmp    %rdx,%rdi
    1755:	75 d9                	jne    1730 <riscv_dsp_cmag_sqr_q31+0x10>
    1757:	c3                   	ret    
    1758:	0f 1f 84 00 00 00 00 	nopl   0x0(%rax,%rax,1)
    175f:	00 

0000000000001760 <riscv_dsp_convert_q31_f32>:
    1760:	f3 0f 1e fa          	endbr64 
    1764:	48 89 f1             	mov    %rsi,%rcx
    1767:	85 d2                	test   %edx,%edx
    1769:	0f 84 97 00 00 00    	je     1806 <riscv_dsp_convert_q31_f32+0xa6>
    176f:	8d 42 ff             	lea    -0x1(%rdx),%eax
    1772:	83 f8 02             	cmp    $0x2,%eax
    1775:	0f 86 96 00 00 00    	jbe    1811 <riscv_dsp_convert_q31_f32+0xb1>
    177b:	89 d6                	mov    %edx,%esi
    177d:	0f 28 0d ac 09 00 00 	movaps 0x9ac(%rip),%xmm1        # 2130 <_IO_stdin_used+0x130>
    1784:	31 c0                	xor    %eax,%eax
    1786:	c1 ee 02             	shr    $0x2,%esi
    1789:	48 c1 e6 04          	shl    $0x4,%rsi
    178d:	0f 1f 00             	nopl   (%rax)
    1790:	f3 0f 6f 14 07       	movdqu (%rdi,%rax,1),%xmm2
    1795:	0f 5b c2             	cvtdq2ps %xmm2,%xmm0
    1798:	0f 59 c1             	mulps  %xmm1,%xmm0
    179b:	0f 11 04 01          	movups %xmm0,(%rcx,%rax,1)
    179f:	48 83 c0 10          	add    $0x10,%rax
    17a3:	48 39 f0             	cmp    %rsi,%rax
    17a6:	75 e8                	jne    1790 <riscv_dsp_convert_q31_f32+0x30>
    17a8:	89 d6                	mov    %edx,%esi
    17aa:	83 e6 fc             	and    $0xfffffffc,%esi
    17ad:	89 f0                	mov    %esi,%eax
    17af:	48 c1 e0 02          	shl    $0x2,%rax
    17b3:	4c 8d 04 07          	lea    (%rdi,%rax,1),%r8
    17b7:	48 01 c8             	add    %rcx,%rax
    17ba:	39 f2                	cmp    %esi,%edx
    17bc:	74 52                	je     1810 <riscv_dsp_convert_q31_f32+0xb0>
    17be:	29 f2                	sub    %esi,%edx
    17c0:	83 fa 01             	cmp    $0x1,%edx
    17c3:	74 2c                	je     17f1 <riscv_dsp_convert_q31_f32+0x91>
    17c5:	f3 0f 7e 0d 63 09 00 	movq   0x963(%rip),%xmm1        # 2130 <_IO_stdin_used+0x130>
    17cc:	00 
    17cd:	f3 0f 7e 04 b7       	movq   (%rdi,%rsi,4),%xmm0
    17d2:	0f 5b c0             	cvtdq2ps %xmm0,%xmm0
    17d5:	0f 59 c1             	mulps  %xmm1,%xmm0
    17d8:	0f 13 04 b1          	movlps %xmm0,(%rcx,%rsi,4)
    17dc:	89 d6                	mov    %edx,%esi
    17de:	83 e6 fe             	and    $0xfffffffe,%esi
    17e1:	89 f1                	mov    %esi,%ecx
    17e3:	48 c1 e1 02          	shl    $0x2,%rcx
    17e7:	49 01 c8             	add    %rcx,%r8
    17ea:	48 01 c8             	add    %rcx,%rax
    17ed:	39 f2                	cmp    %esi,%edx
    17ef:	74 15                	je     1806 <riscv_dsp_convert_q31_f32+0xa6>
    17f1:	66 0f ef c0          	pxor   %xmm0,%xmm0
    17f5:	f3 41 0f 2a 00       	cvtsi2ssl (%r8),%xmm0
    17fa:	f3 0f 59 05 2e 09 00 	mulss  0x92e(%rip),%xmm0        # 2130 <_IO_stdin_used+0x130>
    1801:	00 
    1802:	f3 0f 11 00          	movss  %xmm0,(%rax)
    1806:	c3                   	ret    
    1807:	66 0f 1f 84 00 00 00 	nopw   0x0(%rax,%rax,1)
    180e:	00 00 
    1810:	c3                   	ret    
    1811:	48 89 f0             	mov    %rsi,%rax
    1814:	49 89 f8             	mov    %rdi,%r8
    1817:	31 f6                	xor    %esi,%esi
    1819:	eb a3                	jmp    17be <riscv_dsp_convert_q31_f32+0x5e>

Disassembly of section .fini:

000000000000181c <_fini>:
    181c:	f3 0f 1e fa          	endbr64 
    1820:	48 83 ec 08          	sub    $0x8,%rsp
    1824:	48 83 c4 08          	add    $0x8,%rsp
    1828:	c3                   	ret    
