
t_cmat_mul_q31:     file format elf64-x86-64


Disassembly of section .init:

0000000000001000 <_init>:
    1000:	f3 0f 1e fa          	endbr64 
    1004:	48 83 ec 08          	sub    $0x8,%rsp
    1008:	48 8b 05 d9 2f 00 00 	mov    0x2fd9(%rip),%rax        # 3fe8 <__gmon_start__@Base>
    100f:	48 85 c0             	test   %rax,%rax
    1012:	74 02                	je     1016 <_init+0x16>
    1014:	ff d0                	call   *%rax
    1016:	48 83 c4 08          	add    $0x8,%rsp
    101a:	c3                   	ret    

Disassembly of section .plt:

0000000000001020 <.plt>:
    1020:	ff 35 5a 2f 00 00    	push   0x2f5a(%rip)        # 3f80 <_GLOBAL_OFFSET_TABLE_+0x8>
    1026:	f2 ff 25 5b 2f 00 00 	bnd jmp *0x2f5b(%rip)        # 3f88 <_GLOBAL_OFFSET_TABLE_+0x10>
    102d:	0f 1f 00             	nopl   (%rax)
    1030:	f3 0f 1e fa          	endbr64 
    1034:	68 00 00 00 00       	push   $0x0
    1039:	f2 e9 e1 ff ff ff    	bnd jmp 1020 <_init+0x20>
    103f:	90                   	nop
    1040:	f3 0f 1e fa          	endbr64 
    1044:	68 01 00 00 00       	push   $0x1
    1049:	f2 e9 d1 ff ff ff    	bnd jmp 1020 <_init+0x20>
    104f:	90                   	nop
    1050:	f3 0f 1e fa          	endbr64 
    1054:	68 02 00 00 00       	push   $0x2
    1059:	f2 e9 c1 ff ff ff    	bnd jmp 1020 <_init+0x20>
    105f:	90                   	nop
    1060:	f3 0f 1e fa          	endbr64 
    1064:	68 03 00 00 00       	push   $0x3
    1069:	f2 e9 b1 ff ff ff    	bnd jmp 1020 <_init+0x20>
    106f:	90                   	nop
    1070:	f3 0f 1e fa          	endbr64 
    1074:	68 04 00 00 00       	push   $0x4
    1079:	f2 e9 a1 ff ff ff    	bnd jmp 1020 <_init+0x20>
    107f:	90                   	nop
    1080:	f3 0f 1e fa          	endbr64 
    1084:	68 05 00 00 00       	push   $0x5
    1089:	f2 e9 91 ff ff ff    	bnd jmp 1020 <_init+0x20>
    108f:	90                   	nop
    1090:	f3 0f 1e fa          	endbr64 
    1094:	68 06 00 00 00       	push   $0x6
    1099:	f2 e9 81 ff ff ff    	bnd jmp 1020 <_init+0x20>
    109f:	90                   	nop
    10a0:	f3 0f 1e fa          	endbr64 
    10a4:	68 07 00 00 00       	push   $0x7
    10a9:	f2 e9 71 ff ff ff    	bnd jmp 1020 <_init+0x20>
    10af:	90                   	nop
    10b0:	f3 0f 1e fa          	endbr64 
    10b4:	68 08 00 00 00       	push   $0x8
    10b9:	f2 e9 61 ff ff ff    	bnd jmp 1020 <_init+0x20>
    10bf:	90                   	nop

Disassembly of section .plt.got:

00000000000010c0 <__cxa_finalize@plt>:
    10c0:	f3 0f 1e fa          	endbr64 
    10c4:	f2 ff 25 2d 2f 00 00 	bnd jmp *0x2f2d(%rip)        # 3ff8 <__cxa_finalize@GLIBC_2.2.5>
    10cb:	0f 1f 44 00 00       	nopl   0x0(%rax,%rax,1)

Disassembly of section .plt.sec:

00000000000010d0 <puts@plt>:
    10d0:	f3 0f 1e fa          	endbr64 
    10d4:	f2 ff 25 b5 2e 00 00 	bnd jmp *0x2eb5(%rip)        # 3f90 <puts@GLIBC_2.2.5>
    10db:	0f 1f 44 00 00       	nopl   0x0(%rax,%rax,1)

00000000000010e0 <fread@plt>:
    10e0:	f3 0f 1e fa          	endbr64 
    10e4:	f2 ff 25 ad 2e 00 00 	bnd jmp *0x2ead(%rip)        # 3f98 <fread@GLIBC_2.2.5>
    10eb:	0f 1f 44 00 00       	nopl   0x0(%rax,%rax,1)

00000000000010f0 <fclose@plt>:
    10f0:	f3 0f 1e fa          	endbr64 
    10f4:	f2 ff 25 a5 2e 00 00 	bnd jmp *0x2ea5(%rip)        # 3fa0 <fclose@GLIBC_2.2.5>
    10fb:	0f 1f 44 00 00       	nopl   0x0(%rax,%rax,1)

0000000000001100 <__stack_chk_fail@plt>:
    1100:	f3 0f 1e fa          	endbr64 
    1104:	f2 ff 25 9d 2e 00 00 	bnd jmp *0x2e9d(%rip)        # 3fa8 <__stack_chk_fail@GLIBC_2.4>
    110b:	0f 1f 44 00 00       	nopl   0x0(%rax,%rax,1)

0000000000001110 <log10f@plt>:
    1110:	f3 0f 1e fa          	endbr64 
    1114:	f2 ff 25 95 2e 00 00 	bnd jmp *0x2e95(%rip)        # 3fb0 <log10f@GLIBC_2.2.5>
    111b:	0f 1f 44 00 00       	nopl   0x0(%rax,%rax,1)

0000000000001120 <__printf_chk@plt>:
    1120:	f3 0f 1e fa          	endbr64 
    1124:	f2 ff 25 8d 2e 00 00 	bnd jmp *0x2e8d(%rip)        # 3fb8 <__printf_chk@GLIBC_2.3.4>
    112b:	0f 1f 44 00 00       	nopl   0x0(%rax,%rax,1)

0000000000001130 <fopen@plt>:
    1130:	f3 0f 1e fa          	endbr64 
    1134:	f2 ff 25 85 2e 00 00 	bnd jmp *0x2e85(%rip)        # 3fc0 <fopen@GLIBC_2.2.5>
    113b:	0f 1f 44 00 00       	nopl   0x0(%rax,%rax,1)

0000000000001140 <sqrt@plt>:
    1140:	f3 0f 1e fa          	endbr64 
    1144:	f2 ff 25 7d 2e 00 00 	bnd jmp *0x2e7d(%rip)        # 3fc8 <sqrt@GLIBC_2.2.5>
    114b:	0f 1f 44 00 00       	nopl   0x0(%rax,%rax,1)

0000000000001150 <__sprintf_chk@plt>:
    1150:	f3 0f 1e fa          	endbr64 
    1154:	f2 ff 25 75 2e 00 00 	bnd jmp *0x2e75(%rip)        # 3fd0 <__sprintf_chk@GLIBC_2.3.4>
    115b:	0f 1f 44 00 00       	nopl   0x0(%rax,%rax,1)

Disassembly of section .text:

0000000000001160 <main>:
    1160:	f3 0f 1e fa          	endbr64 
    1164:	55                   	push   %rbp
    1165:	48 89 e5             	mov    %rsp,%rbp
    1168:	41 57                	push   %r15
    116a:	41 56                	push   %r14
    116c:	41 55                	push   %r13
    116e:	41 54                	push   %r12
    1170:	53                   	push   %rbx
    1171:	48 81 ec 38 02 00 00 	sub    $0x238,%rsp
    1178:	64 48 8b 04 25 28 00 	mov    %fs:0x28,%rax
    117f:	00 00 
    1181:	48 89 45 c8          	mov    %rax,-0x38(%rbp)
    1185:	31 c0                	xor    %eax,%eax
    1187:	48 8d 84 24 00 f0 ff 	lea    -0x1000(%rsp),%rax
    118e:	ff 
    118f:	48 39 c4             	cmp    %rax,%rsp
    1192:	74 15                	je     11a9 <main+0x49>
    1194:	48 81 ec 00 10 00 00 	sub    $0x1000,%rsp
    119b:	48 83 8c 24 f8 0f 00 	orq    $0x0,0xff8(%rsp)
    11a2:	00 00 
    11a4:	48 39 c4             	cmp    %rax,%rsp
    11a7:	75 eb                	jne    1194 <main+0x34>
    11a9:	48 81 ec 60 05 00 00 	sub    $0x560,%rsp
    11b0:	48 83 8c 24 58 05 00 	orq    $0x0,0x558(%rsp)
    11b7:	00 00 
    11b9:	48 89 e3             	mov    %rsp,%rbx
    11bc:	48 8d 84 24 00 f0 ff 	lea    -0x1000(%rsp),%rax
    11c3:	ff 
    11c4:	48 39 c4             	cmp    %rax,%rsp
    11c7:	74 12                	je     11db <main+0x7b>
    11c9:	48 81 ec 00 10 00 00 	sub    $0x1000,%rsp
    11d0:	48 83 8c 24 f8 0f 00 	orq    $0x0,0xff8(%rsp)
    11d7:	00 00 
    11d9:	eb e9                	jmp    11c4 <main+0x64>
    11db:	48 81 ec f0 08 00 00 	sub    $0x8f0,%rsp
    11e2:	48 83 8c 24 e8 08 00 	orq    $0x0,0x8e8(%rsp)
    11e9:	00 00 
    11eb:	48 89 a5 b8 fd ff ff 	mov    %rsp,-0x248(%rbp)
    11f2:	48 89 e0             	mov    %rsp,%rax
    11f5:	48 39 c4             	cmp    %rax,%rsp
    11f8:	74 12                	je     120c <main+0xac>
    11fa:	48 81 ec 00 10 00 00 	sub    $0x1000,%rsp
    1201:	48 83 8c 24 f8 0f 00 	orq    $0x0,0xff8(%rsp)
    1208:	00 00 
    120a:	eb e9                	jmp    11f5 <main+0x95>
    120c:	48 81 ec d0 0b 00 00 	sub    $0xbd0,%rsp
    1213:	48 83 8c 24 c8 0b 00 	orq    $0x0,0xbc8(%rsp)
    121a:	00 00 
    121c:	49 89 e7             	mov    %rsp,%r15
    121f:	48 89 e0             	mov    %rsp,%rax
    1222:	48 39 c4             	cmp    %rax,%rsp
    1225:	74 12                	je     1239 <main+0xd9>
    1227:	48 81 ec 00 10 00 00 	sub    $0x1000,%rsp
    122e:	48 83 8c 24 f8 0f 00 	orq    $0x0,0xff8(%rsp)
    1235:	00 00 
    1237:	eb e9                	jmp    1222 <main+0xc2>
    1239:	48 81 ec d0 0b 00 00 	sub    $0xbd0,%rsp
    1240:	48 83 8c 24 c8 0b 00 	orq    $0x0,0xbc8(%rsp)
    1247:	00 00 
    1249:	4c 8d 05 b8 0d 00 00 	lea    0xdb8(%rip),%r8        # 2008 <_IO_stdin_used+0x8>
    1250:	ba 00 02 00 00       	mov    $0x200,%edx
    1255:	31 c0                	xor    %eax,%eax
    1257:	48 8d 0d 3c 0e 00 00 	lea    0xe3c(%rip),%rcx        # 209a <_IO_stdin_used+0x9a>
    125e:	be 01 00 00 00       	mov    $0x1,%esi
    1263:	4c 8d a5 c0 fd ff ff 	lea    -0x240(%rbp),%r12
    126a:	49 89 e6             	mov    %rsp,%r14
    126d:	4c 89 e7             	mov    %r12,%rdi
    1270:	e8 db fe ff ff       	call   1150 <__sprintf_chk@plt>
    1275:	48 8d 35 33 0e 00 00 	lea    0xe33(%rip),%rsi        # 20af <_IO_stdin_used+0xaf>
    127c:	4c 89 e7             	mov    %r12,%rdi
    127f:	e8 ac fe ff ff       	call   1130 <fopen@plt>
    1284:	48 89 85 b0 fd ff ff 	mov    %rax,-0x250(%rbp)
    128b:	48 85 c0             	test   %rax,%rax
    128e:	0f 84 d8 01 00 00    	je     146c <main+0x30c>
    1294:	ba 00 02 00 00       	mov    $0x200,%edx
    1299:	be 01 00 00 00       	mov    $0x1,%esi
    129e:	4c 89 e7             	mov    %r12,%rdi
    12a1:	31 c0                	xor    %eax,%eax
    12a3:	4c 8d 05 5e 0d 00 00 	lea    0xd5e(%rip),%r8        # 2008 <_IO_stdin_used+0x8>
    12aa:	48 8d 0d 00 0e 00 00 	lea    0xe00(%rip),%rcx        # 20b1 <_IO_stdin_used+0xb1>
    12b1:	e8 9a fe ff ff       	call   1150 <__sprintf_chk@plt>
    12b6:	48 8d 35 f2 0d 00 00 	lea    0xdf2(%rip),%rsi        # 20af <_IO_stdin_used+0xaf>
    12bd:	4c 89 e7             	mov    %r12,%rdi
    12c0:	e8 6b fe ff ff       	call   1130 <fopen@plt>
    12c5:	49 89 c5             	mov    %rax,%r13
    12c8:	48 85 c0             	test   %rax,%rax
    12cb:	0f 84 9b 01 00 00    	je     146c <main+0x30c>
    12d1:	4c 89 e7             	mov    %r12,%rdi
    12d4:	ba 00 02 00 00       	mov    $0x200,%edx
    12d9:	be 01 00 00 00       	mov    $0x1,%esi
    12de:	31 c0                	xor    %eax,%eax
    12e0:	4c 8d 05 21 0d 00 00 	lea    0xd21(%rip),%r8        # 2008 <_IO_stdin_used+0x8>
    12e7:	48 8d 0d d8 0d 00 00 	lea    0xdd8(%rip),%rcx        # 20c6 <_IO_stdin_used+0xc6>
    12ee:	e8 5d fe ff ff       	call   1150 <__sprintf_chk@plt>
    12f3:	4c 89 e7             	mov    %r12,%rdi
    12f6:	48 8d 35 b2 0d 00 00 	lea    0xdb2(%rip),%rsi        # 20af <_IO_stdin_used+0xaf>
    12fd:	e8 2e fe ff ff       	call   1130 <fopen@plt>
    1302:	49 89 c4             	mov    %rax,%r12
    1305:	48 85 c0             	test   %rax,%rax
    1308:	0f 84 5e 01 00 00    	je     146c <main+0x30c>
    130e:	48 8b 95 b0 fd ff ff 	mov    -0x250(%rbp),%rdx
    1315:	be 58 05 00 00       	mov    $0x558,%esi
    131a:	48 89 df             	mov    %rbx,%rdi
    131d:	e8 9e 04 00 00       	call   17c0 <test_Fread.constprop.0.isra.0>
    1322:	48 8b bd b8 fd ff ff 	mov    -0x248(%rbp),%rdi
    1329:	4c 89 ea             	mov    %r13,%rdx
    132c:	be 3c 06 00 00       	mov    $0x63c,%esi
    1331:	e8 8a 04 00 00       	call   17c0 <test_Fread.constprop.0.isra.0>
    1336:	4c 89 e2             	mov    %r12,%rdx
    1339:	be f4 02 00 00       	mov    $0x2f4,%esi
    133e:	4c 89 f7             	mov    %r14,%rdi
    1341:	e8 7a 04 00 00       	call   17c0 <test_Fread.constprop.0.isra.0>
    1346:	b9 12 00 00 00       	mov    $0x12,%ecx
    134b:	4c 89 fa             	mov    %r15,%rdx
    134e:	48 89 df             	mov    %rbx,%rdi
    1351:	48 8b b5 b8 fd ff ff 	mov    -0x248(%rbp),%rsi
    1358:	41 b9 15 00 00 00    	mov    $0x15,%r9d
    135e:	41 b8 26 00 00 00    	mov    $0x26,%r8d
    1364:	e8 67 04 00 00       	call   17d0 <riscv_dsp_cmat_mul_q31>
    1369:	31 c0                	xor    %eax,%eax
    136b:	66 0f ef d2          	pxor   %xmm2,%xmm2
    136f:	90                   	nop
    1370:	f3 41 0f 6f 04 06    	movdqu (%r14,%rax,1),%xmm0
    1376:	f3 41 0f 6f 3c 07    	movdqu (%r15,%rax,1),%xmm7
    137c:	48 83 c0 10          	add    $0x10,%rax
    1380:	66 0f fa c7          	psubd  %xmm7,%xmm0
    1384:	66 0f 6f c8          	movdqa %xmm0,%xmm1
    1388:	66 0f 72 e1 1f       	psrad  $0x1f,%xmm1
    138d:	66 0f ef c1          	pxor   %xmm1,%xmm0
    1391:	66 0f fa c1          	psubd  %xmm1,%xmm0
    1395:	66 0f 6f c8          	movdqa %xmm0,%xmm1
    1399:	66 0f 66 ca          	pcmpgtd %xmm2,%xmm1
    139d:	66 0f db c1          	pand   %xmm1,%xmm0
    13a1:	66 0f df ca          	pandn  %xmm2,%xmm1
    13a5:	66 0f 6f d1          	movdqa %xmm1,%xmm2
    13a9:	66 0f eb d0          	por    %xmm0,%xmm2
    13ad:	48 3d d0 0b 00 00    	cmp    $0xbd0,%rax
    13b3:	75 bb                	jne    1370 <main+0x210>
    13b5:	66 0f 6f c2          	movdqa %xmm2,%xmm0
    13b9:	48 8d 35 21 0d 00 00 	lea    0xd21(%rip),%rsi        # 20e1 <_IO_stdin_used+0xe1>
    13c0:	bf 01 00 00 00       	mov    $0x1,%edi
    13c5:	31 c0                	xor    %eax,%eax
    13c7:	66 0f 73 d8 08       	psrldq $0x8,%xmm0
    13cc:	66 0f 6f c8          	movdqa %xmm0,%xmm1
    13d0:	66 0f 66 ca          	pcmpgtd %xmm2,%xmm1
    13d4:	66 0f db c1          	pand   %xmm1,%xmm0
    13d8:	66 0f df ca          	pandn  %xmm2,%xmm1
    13dc:	66 0f eb c8          	por    %xmm0,%xmm1
    13e0:	66 0f 6f d1          	movdqa %xmm1,%xmm2
    13e4:	66 0f 73 da 04       	psrldq $0x4,%xmm2
    13e9:	66 0f 6f c2          	movdqa %xmm2,%xmm0
    13ed:	66 0f 66 c1          	pcmpgtd %xmm1,%xmm0
    13f1:	66 0f db d0          	pand   %xmm0,%xmm2
    13f5:	66 0f df c1          	pandn  %xmm1,%xmm0
    13f9:	66 0f eb c2          	por    %xmm2,%xmm0
    13fd:	66 0f 7e c2          	movd   %xmm0,%edx
    1401:	e8 1a fd ff ff       	call   1120 <__printf_chk@plt>
    1406:	48 8b bd b0 fd ff ff 	mov    -0x250(%rbp),%rdi
    140d:	e8 de fc ff ff       	call   10f0 <fclose@plt>
    1412:	4c 89 ef             	mov    %r13,%rdi
    1415:	e8 d6 fc ff ff       	call   10f0 <fclose@plt>
    141a:	4c 89 e7             	mov    %r12,%rdi
    141d:	e8 ce fc ff ff       	call   10f0 <fclose@plt>
    1422:	48 89 e0             	mov    %rsp,%rax
    1425:	48 39 c4             	cmp    %rax,%rsp
    1428:	74 15                	je     143f <main+0x2df>
    142a:	48 81 ec 00 10 00 00 	sub    $0x1000,%rsp
    1431:	48 83 8c 24 f8 0f 00 	orq    $0x0,0xff8(%rsp)
    1438:	00 00 
    143a:	48 39 c4             	cmp    %rax,%rsp
    143d:	75 eb                	jne    142a <main+0x2ca>
    143f:	48 81 ec d0 0b 00 00 	sub    $0xbd0,%rsp
    1446:	48 83 8c 24 c8 0b 00 	orq    $0x0,0xbc8(%rsp)
    144d:	00 00 
    144f:	48 89 e3             	mov    %rsp,%rbx
    1452:	48 89 e0             	mov    %rsp,%rax
    1455:	48 39 c4             	cmp    %rax,%rsp
    1458:	74 37                	je     1491 <main+0x331>
    145a:	48 81 ec 00 10 00 00 	sub    $0x1000,%rsp
    1461:	48 83 8c 24 f8 0f 00 	orq    $0x0,0xff8(%rsp)
    1468:	00 00 
    146a:	eb e9                	jmp    1455 <main+0x2f5>
    146c:	83 c8 ff             	or     $0xffffffff,%eax
    146f:	48 8b 55 c8          	mov    -0x38(%rbp),%rdx
    1473:	64 48 2b 14 25 28 00 	sub    %fs:0x28,%rdx
    147a:	00 00 
    147c:	0f 85 46 02 00 00    	jne    16c8 <main+0x568>
    1482:	48 8d 65 d8          	lea    -0x28(%rbp),%rsp
    1486:	5b                   	pop    %rbx
    1487:	41 5c                	pop    %r12
    1489:	41 5d                	pop    %r13
    148b:	41 5e                	pop    %r14
    148d:	41 5f                	pop    %r15
    148f:	5d                   	pop    %rbp
    1490:	c3                   	ret    
    1491:	48 81 ec d0 0b 00 00 	sub    $0xbd0,%rsp
    1498:	48 83 8c 24 c8 0b 00 	orq    $0x0,0xbc8(%rsp)
    149f:	00 00 
    14a1:	ba f4 02 00 00       	mov    $0x2f4,%edx
    14a6:	48 89 de             	mov    %rbx,%rsi
    14a9:	4c 89 f7             	mov    %r14,%rdi
    14ac:	49 89 e4             	mov    %rsp,%r12
    14af:	e8 dc 08 00 00       	call   1d90 <riscv_dsp_convert_q31_f32>
    14b4:	ba f4 02 00 00       	mov    $0x2f4,%edx
    14b9:	4c 89 e6             	mov    %r12,%rsi
    14bc:	4c 89 ff             	mov    %r15,%rdi
    14bf:	e8 cc 08 00 00       	call   1d90 <riscv_dsp_convert_q31_f32>
    14c4:	66 0f ef db          	pxor   %xmm3,%xmm3
    14c8:	66 0f ef ff          	pxor   %xmm7,%xmm7
    14cc:	31 c0                	xor    %eax,%eax
    14ce:	66 0f 28 f7          	movapd %xmm7,%xmm6
    14d2:	0f 28 c3             	movaps %xmm3,%xmm0
    14d5:	44 0f 28 c3          	movaps %xmm3,%xmm8
    14d9:	f3 44 0f 10 0d 3e 0c 	movss  0xc3e(%rip),%xmm9        # 2120 <_IO_stdin_used+0x120>
    14e0:	00 00 
    14e2:	0f 28 eb             	movaps %xmm3,%xmm5
    14e5:	0f 1f 00             	nopl   (%rax)
    14e8:	f3 41 0f 10 0c 04    	movss  (%r12,%rax,1),%xmm1
    14ee:	f3 0f 10 14 03       	movss  (%rbx,%rax,1),%xmm2
    14f3:	66 0f 7e c9          	movd   %xmm1,%ecx
    14f7:	81 f9 00 00 c0 7f    	cmp    $0x7fc00000,%ecx
    14fd:	0f 84 69 ff ff ff    	je     146c <main+0x30c>
    1503:	0f 28 e2             	movaps %xmm2,%xmm4
    1506:	f3 0f 5c ca          	subss  %xmm2,%xmm1
    150a:	48 83 c0 04          	add    $0x4,%rax
    150e:	f3 0f 5f e5          	maxss  %xmm5,%xmm4
    1512:	0f 28 ec             	movaps %xmm4,%xmm5
    1515:	0f 28 e2             	movaps %xmm2,%xmm4
    1518:	f3 41 0f 5d e0       	minss  %xmm8,%xmm4
    151d:	f3 0f 59 d2          	mulss  %xmm2,%xmm2
    1521:	44 0f 28 c4          	movaps %xmm4,%xmm8
    1525:	0f 28 e1             	movaps %xmm1,%xmm4
    1528:	f3 0f 59 c9          	mulss  %xmm1,%xmm1
    152c:	41 0f 54 e1          	andps  %xmm9,%xmm4
    1530:	f3 0f 58 c4          	addss  %xmm4,%xmm0
    1534:	f3 0f 5f e3          	maxss  %xmm3,%xmm4
    1538:	f3 0f 5a d2          	cvtss2sd %xmm2,%xmm2
    153c:	f2 0f 58 fa          	addsd  %xmm2,%xmm7
    1540:	0f 28 dc             	movaps %xmm4,%xmm3
    1543:	f3 0f 5a c9          	cvtss2sd %xmm1,%xmm1
    1547:	f2 0f 58 f1          	addsd  %xmm1,%xmm6
    154b:	48 3d d0 0b 00 00    	cmp    $0xbd0,%rax
    1551:	75 95                	jne    14e8 <main+0x388>
    1553:	66 48 0f 7e f0       	movq   %xmm6,%rax
    1558:	f3 0f 11 a5 a8 fd ff 	movss  %xmm4,-0x258(%rbp)
    155f:	ff 
    1560:	f3 44 0f 11 85 ac fd 	movss  %xmm8,-0x254(%rbp)
    1567:	ff ff 
    1569:	f3 0f 11 ad b0 fd ff 	movss  %xmm5,-0x250(%rbp)
    1570:	ff 
    1571:	f2 0f 11 bd b8 fd ff 	movsd  %xmm7,-0x248(%rbp)
    1578:	ff 
    1579:	3d 00 00 c0 7f       	cmp    $0x7fc00000,%eax
    157e:	0f 84 e8 fe ff ff    	je     146c <main+0x30c>
    1584:	f3 0f 5e 05 84 0b 00 	divss  0xb84(%rip),%xmm0        # 2110 <_IO_stdin_used+0x110>
    158b:	00 
    158c:	f2 0f 11 b5 a0 fd ff 	movsd  %xmm6,-0x260(%rbp)
    1593:	ff 
    1594:	66 41 0f 7e c5       	movd   %xmm0,%r13d
    1599:	66 0f 28 c6          	movapd %xmm6,%xmm0
    159d:	f2 0f 5e 05 8b 0b 00 	divsd  0xb8b(%rip),%xmm0        # 2130 <_IO_stdin_used+0x130>
    15a4:	00 
    15a5:	e8 96 fb ff ff       	call   1140 <sqrt@plt>
    15aa:	66 0f ef ed          	pxor   %xmm5,%xmm5
    15ae:	f3 44 0f 10 85 ac fd 	movss  -0x254(%rbp),%xmm8
    15b5:	ff ff 
    15b7:	f2 0f 5a e8          	cvtsd2ss %xmm0,%xmm5
    15bb:	66 0f 7e eb          	movd   %xmm5,%ebx
    15bf:	f3 0f 10 ad b0 fd ff 	movss  -0x250(%rbp),%xmm5
    15c6:	ff 
    15c7:	f2 0f 10 bd b8 fd ff 	movsd  -0x248(%rbp),%xmm7
    15ce:	ff 
    15cf:	66 0f 6e f3          	movd   %ebx,%xmm6
    15d3:	f3 0f 10 9d a8 fd ff 	movss  -0x258(%rbp),%xmm3
    15da:	ff 
    15db:	f3 41 0f 5c e8       	subss  %xmm8,%xmm5
    15e0:	f3 0f 5e f5          	divss  %xmm5,%xmm6
    15e4:	66 0f ef ed          	pxor   %xmm5,%xmm5
    15e8:	66 41 0f 7e f4       	movd   %xmm6,%r12d
    15ed:	f2 0f 10 b5 a0 fd ff 	movsd  -0x260(%rbp),%xmm6
    15f4:	ff 
    15f5:	66 0f 2e f5          	ucomisd %xmm5,%xmm6
    15f9:	0f 8a 96 00 00 00    	jp     1695 <main+0x535>
    15ff:	44 8b 35 06 0b 00 00 	mov    0xb06(%rip),%r14d        # 210c <_IO_stdin_used+0x10c>
    1606:	0f 85 89 00 00 00    	jne    1695 <main+0x535>
    160c:	48 8d 3d e1 0a 00 00 	lea    0xae1(%rip),%rdi        # 20f4 <_IO_stdin_used+0xf4>
    1613:	f3 0f 11 9d b8 fd ff 	movss  %xmm3,-0x248(%rbp)
    161a:	ff 
    161b:	e8 b0 fa ff ff       	call   10d0 <puts@plt>
    1620:	66 41 0f 6e f5       	movd   %r13d,%xmm6
    1625:	66 0f ef c0          	pxor   %xmm0,%xmm0
    1629:	66 0f ef e4          	pxor   %xmm4,%xmm4
    162d:	f3 0f 5a c6          	cvtss2sd %xmm6,%xmm0
    1631:	66 41 0f 6e f6       	movd   %r14d,%xmm6
    1636:	66 0f ef d2          	pxor   %xmm2,%xmm2
    163a:	f3 0f 10 9d b8 fd ff 	movss  -0x248(%rbp),%xmm3
    1641:	ff 
    1642:	f3 0f 5a e6          	cvtss2sd %xmm6,%xmm4
    1646:	66 41 0f 6e f4       	movd   %r12d,%xmm6
    164b:	66 0f ef c9          	pxor   %xmm1,%xmm1
    164f:	48 8d 35 f2 09 00 00 	lea    0x9f2(%rip),%rsi        # 2048 <_IO_stdin_used+0x48>
    1656:	f3 0f 5a d6          	cvtss2sd %xmm6,%xmm2
    165a:	bf 01 00 00 00       	mov    $0x1,%edi
    165f:	66 0f 6e f3          	movd   %ebx,%xmm6
    1663:	f3 0f 5a db          	cvtss2sd %xmm3,%xmm3
    1667:	b8 05 00 00 00       	mov    $0x5,%eax
    166c:	f3 0f 5a ce          	cvtss2sd %xmm6,%xmm1
    1670:	e8 ab fa ff ff       	call   1120 <__printf_chk@plt>
    1675:	66 41 0f 6e f4       	movd   %r12d,%xmm6
    167a:	66 0f ef ed          	pxor   %xmm5,%xmm5
    167e:	31 c0                	xor    %eax,%eax
    1680:	0f 2e f5             	ucomiss %xmm5,%xmm6
    1683:	ba 01 00 00 00       	mov    $0x1,%edx
    1688:	0f 9a c0             	setp   %al
    168b:	0f 45 c2             	cmovne %edx,%eax
    168e:	f7 d8                	neg    %eax
    1690:	e9 da fd ff ff       	jmp    146f <main+0x30f>
    1695:	f2 0f 5e fe          	divsd  %xmm6,%xmm7
    1699:	66 0f ef c0          	pxor   %xmm0,%xmm0
    169d:	f3 0f 11 9d b8 fd ff 	movss  %xmm3,-0x248(%rbp)
    16a4:	ff 
    16a5:	f2 0f 5a c7          	cvtsd2ss %xmm7,%xmm0
    16a9:	e8 62 fa ff ff       	call   1110 <log10f@plt>
    16ae:	f3 0f 59 05 5e 0a 00 	mulss  0xa5e(%rip),%xmm0        # 2114 <_IO_stdin_used+0x114>
    16b5:	00 
    16b6:	f3 0f 10 9d b8 fd ff 	movss  -0x248(%rbp),%xmm3
    16bd:	ff 
    16be:	66 41 0f 7e c6       	movd   %xmm0,%r14d
    16c3:	e9 44 ff ff ff       	jmp    160c <main+0x4ac>
    16c8:	e8 33 fa ff ff       	call   1100 <__stack_chk_fail@plt>
    16cd:	0f 1f 00             	nopl   (%rax)

00000000000016d0 <_start>:
    16d0:	f3 0f 1e fa          	endbr64 
    16d4:	31 ed                	xor    %ebp,%ebp
    16d6:	49 89 d1             	mov    %rdx,%r9
    16d9:	5e                   	pop    %rsi
    16da:	48 89 e2             	mov    %rsp,%rdx
    16dd:	48 83 e4 f0          	and    $0xfffffffffffffff0,%rsp
    16e1:	50                   	push   %rax
    16e2:	54                   	push   %rsp
    16e3:	45 31 c0             	xor    %r8d,%r8d
    16e6:	31 c9                	xor    %ecx,%ecx
    16e8:	48 8d 3d 71 fa ff ff 	lea    -0x58f(%rip),%rdi        # 1160 <main>
    16ef:	ff 15 e3 28 00 00    	call   *0x28e3(%rip)        # 3fd8 <__libc_start_main@GLIBC_2.34>
    16f5:	f4                   	hlt    
    16f6:	66 2e 0f 1f 84 00 00 	cs nopw 0x0(%rax,%rax,1)
    16fd:	00 00 00 

0000000000001700 <deregister_tm_clones>:
    1700:	48 8d 3d 09 29 00 00 	lea    0x2909(%rip),%rdi        # 4010 <__TMC_END__>
    1707:	48 8d 05 02 29 00 00 	lea    0x2902(%rip),%rax        # 4010 <__TMC_END__>
    170e:	48 39 f8             	cmp    %rdi,%rax
    1711:	74 15                	je     1728 <deregister_tm_clones+0x28>
    1713:	48 8b 05 c6 28 00 00 	mov    0x28c6(%rip),%rax        # 3fe0 <_ITM_deregisterTMCloneTable@Base>
    171a:	48 85 c0             	test   %rax,%rax
    171d:	74 09                	je     1728 <deregister_tm_clones+0x28>
    171f:	ff e0                	jmp    *%rax
    1721:	0f 1f 80 00 00 00 00 	nopl   0x0(%rax)
    1728:	c3                   	ret    
    1729:	0f 1f 80 00 00 00 00 	nopl   0x0(%rax)

0000000000001730 <register_tm_clones>:
    1730:	48 8d 3d d9 28 00 00 	lea    0x28d9(%rip),%rdi        # 4010 <__TMC_END__>
    1737:	48 8d 35 d2 28 00 00 	lea    0x28d2(%rip),%rsi        # 4010 <__TMC_END__>
    173e:	48 29 fe             	sub    %rdi,%rsi
    1741:	48 89 f0             	mov    %rsi,%rax
    1744:	48 c1 ee 3f          	shr    $0x3f,%rsi
    1748:	48 c1 f8 03          	sar    $0x3,%rax
    174c:	48 01 c6             	add    %rax,%rsi
    174f:	48 d1 fe             	sar    %rsi
    1752:	74 14                	je     1768 <register_tm_clones+0x38>
    1754:	48 8b 05 95 28 00 00 	mov    0x2895(%rip),%rax        # 3ff0 <_ITM_registerTMCloneTable@Base>
    175b:	48 85 c0             	test   %rax,%rax
    175e:	74 08                	je     1768 <register_tm_clones+0x38>
    1760:	ff e0                	jmp    *%rax
    1762:	66 0f 1f 44 00 00    	nopw   0x0(%rax,%rax,1)
    1768:	c3                   	ret    
    1769:	0f 1f 80 00 00 00 00 	nopl   0x0(%rax)

0000000000001770 <__do_global_dtors_aux>:
    1770:	f3 0f 1e fa          	endbr64 
    1774:	80 3d 95 28 00 00 00 	cmpb   $0x0,0x2895(%rip)        # 4010 <__TMC_END__>
    177b:	75 2b                	jne    17a8 <__do_global_dtors_aux+0x38>
    177d:	55                   	push   %rbp
    177e:	48 83 3d 72 28 00 00 	cmpq   $0x0,0x2872(%rip)        # 3ff8 <__cxa_finalize@GLIBC_2.2.5>
    1785:	00 
    1786:	48 89 e5             	mov    %rsp,%rbp
    1789:	74 0c                	je     1797 <__do_global_dtors_aux+0x27>
    178b:	48 8b 3d 76 28 00 00 	mov    0x2876(%rip),%rdi        # 4008 <__dso_handle>
    1792:	e8 29 f9 ff ff       	call   10c0 <__cxa_finalize@plt>
    1797:	e8 64 ff ff ff       	call   1700 <deregister_tm_clones>
    179c:	c6 05 6d 28 00 00 01 	movb   $0x1,0x286d(%rip)        # 4010 <__TMC_END__>
    17a3:	5d                   	pop    %rbp
    17a4:	c3                   	ret    
    17a5:	0f 1f 00             	nopl   (%rax)
    17a8:	c3                   	ret    
    17a9:	0f 1f 80 00 00 00 00 	nopl   0x0(%rax)

00000000000017b0 <frame_dummy>:
    17b0:	f3 0f 1e fa          	endbr64 
    17b4:	e9 77 ff ff ff       	jmp    1730 <register_tm_clones>
    17b9:	0f 1f 80 00 00 00 00 	nopl   0x0(%rax)

00000000000017c0 <test_Fread.constprop.0.isra.0>:
    17c0:	48 89 d1             	mov    %rdx,%rcx
    17c3:	89 f2                	mov    %esi,%edx
    17c5:	be 04 00 00 00       	mov    $0x4,%esi
    17ca:	e9 11 f9 ff ff       	jmp    10e0 <fread@plt>
    17cf:	90                   	nop

00000000000017d0 <riscv_dsp_cmat_mul_q31>:
    17d0:	f3 0f 1e fa          	endbr64 
    17d4:	41 57                	push   %r15
    17d6:	44 89 c0             	mov    %r8d,%eax
    17d9:	49 89 f2             	mov    %rsi,%r10
    17dc:	49 89 ff             	mov    %rdi,%r15
    17df:	41 56                	push   %r14
    17e1:	49 89 d3             	mov    %rdx,%r11
    17e4:	41 55                	push   %r13
    17e6:	41 54                	push   %r12
    17e8:	55                   	push   %rbp
    17e9:	53                   	push   %rbx
    17ea:	48 89 74 24 a0       	mov    %rsi,-0x60(%rsp)
    17ef:	8d 34 00             	lea    (%rax,%rax,1),%esi
    17f2:	0f af ce             	imul   %esi,%ecx
    17f5:	48 8d 1c 8f          	lea    (%rdi,%rcx,4),%rbx
    17f9:	48 8d 0c b5 00 00 00 	lea    0x0(,%rsi,4),%rcx
    1800:	00 
    1801:	48 89 5c 24 a8       	mov    %rbx,-0x58(%rsp)
    1806:	48 8d 1c c5 00 00 00 	lea    0x0(,%rax,8),%rbx
    180d:	00 
    180e:	44 89 c8             	mov    %r9d,%eax
    1811:	4c 8d 2c c5 00 00 00 	lea    0x0(,%rax,8),%r13
    1818:	00 
    1819:	48 c1 e0 04          	shl    $0x4,%rax
    181d:	48 89 4c 24 e0       	mov    %rcx,-0x20(%rsp)
    1822:	49 89 c6             	mov    %rax,%r14
    1825:	41 83 f9 01          	cmp    $0x1,%r9d
    1829:	0f 85 79 02 00 00    	jne    1aa8 <riscv_dsp_cmat_mul_q31+0x2d8>
    182f:	48 8d 43 f8          	lea    -0x8(%rbx),%rax
    1833:	48 89 5c 24 b0       	mov    %rbx,-0x50(%rsp)
    1838:	66 0f ef ed          	pxor   %xmm5,%xmm5
    183c:	48 89 cb             	mov    %rcx,%rbx
    183f:	48 c1 e8 03          	shr    $0x3,%rax
    1843:	48 83 c0 01          	add    $0x1,%rax
    1847:	48 89 c7             	mov    %rax,%rdi
    184a:	48 89 44 24 b8       	mov    %rax,-0x48(%rsp)
    184f:	48 83 e0 fe          	and    $0xfffffffffffffffe,%rax
    1853:	48 d1 ef             	shr    %rdi
    1856:	48 89 44 24 c0       	mov    %rax,-0x40(%rsp)
    185b:	48 89 fd             	mov    %rdi,%rbp
    185e:	48 89 c7             	mov    %rax,%rdi
    1861:	49 0f af c5          	imul   %r13,%rax
    1865:	48 c1 e5 04          	shl    $0x4,%rbp
    1869:	4c 8d 24 fd 00 00 00 	lea    0x0(,%rdi,8),%r12
    1870:	00 
    1871:	4c 01 d0             	add    %r10,%rax
    1874:	48 89 44 24 c8       	mov    %rax,-0x38(%rsp)
    1879:	0f 1f 80 00 00 00 00 	nopl   0x0(%rax)
    1880:	48 83 7c 24 b0 08    	cmpq   $0x8,-0x50(%rsp)
    1886:	4c 89 f8             	mov    %r15,%rax
    1889:	0f 84 0d 02 00 00    	je     1a9c <riscv_dsp_cmat_mul_q31+0x2cc>
    188f:	66 0f ef f6          	pxor   %xmm6,%xmm6
    1893:	48 8b 54 24 a0       	mov    -0x60(%rsp),%rdx
    1898:	4a 8d 4c 3d 00       	lea    0x0(%rbp,%r15,1),%rcx
    189d:	66 0f 6f fe          	movdqa %xmm6,%xmm7
    18a1:	0f 1f 80 00 00 00 00 	nopl   0x0(%rax)
    18a8:	f3 0f 7e 02          	movq   (%rdx),%xmm0
    18ac:	f3 0f 6f 18          	movdqu (%rax),%xmm3
    18b0:	66 44 0f 6f c5       	movdqa %xmm5,%xmm8
    18b5:	66 44 0f 6f cd       	movdqa %xmm5,%xmm9
    18ba:	48 83 c0 10          	add    $0x10,%rax
    18be:	42 0f 16 04 2a       	movhps (%rdx,%r13,1),%xmm0
    18c3:	66 0f 70 cb a0       	pshufd $0xa0,%xmm3,%xmm1
    18c8:	66 0f 70 d3 f5       	pshufd $0xf5,%xmm3,%xmm2
    18cd:	4c 01 f2             	add    %r14,%rdx
    18d0:	66 0f 70 e0 b1       	pshufd $0xb1,%xmm0,%xmm4
    18d5:	66 0f 6f d9          	movdqa %xmm1,%xmm3
    18d9:	66 44 0f 6f d4       	movdqa %xmm4,%xmm10
    18de:	66 0f 62 d9          	punpckldq %xmm1,%xmm3
    18e2:	66 0f 6a c9          	punpckhdq %xmm1,%xmm1
    18e6:	66 44 0f 62 d4       	punpckldq %xmm4,%xmm10
    18eb:	66 44 0f 66 c3       	pcmpgtd %xmm3,%xmm8
    18f0:	66 0f 6a e4          	punpckhdq %xmm4,%xmm4
    18f4:	66 45 0f 66 ca       	pcmpgtd %xmm10,%xmm9
    18f9:	66 45 0f f4 c2       	pmuludq %xmm10,%xmm8
    18fe:	66 44 0f f4 cb       	pmuludq %xmm3,%xmm9
    1903:	66 41 0f f4 da       	pmuludq %xmm10,%xmm3
    1908:	66 44 0f 6f d2       	movdqa %xmm2,%xmm10
    190d:	66 44 0f 62 d2       	punpckldq %xmm2,%xmm10
    1912:	66 0f 6a d2          	punpckhdq %xmm2,%xmm2
    1916:	66 45 0f d4 c1       	paddq  %xmm9,%xmm8
    191b:	66 44 0f 6f cd       	movdqa %xmm5,%xmm9
    1920:	66 41 0f 73 f0 20    	psllq  $0x20,%xmm8
    1926:	66 44 0f 66 cc       	pcmpgtd %xmm4,%xmm9
    192b:	66 41 0f d4 d8       	paddq  %xmm8,%xmm3
    1930:	66 44 0f 6f c5       	movdqa %xmm5,%xmm8
    1935:	66 44 0f 66 c1       	pcmpgtd %xmm1,%xmm8
    193a:	66 44 0f f4 c9       	pmuludq %xmm1,%xmm9
    193f:	66 0f f4 cc          	pmuludq %xmm4,%xmm1
    1943:	66 44 0f f4 c4       	pmuludq %xmm4,%xmm8
    1948:	66 0f 6f e5          	movdqa %xmm5,%xmm4
    194c:	66 45 0f d4 c1       	paddq  %xmm9,%xmm8
    1951:	66 44 0f 6f cd       	movdqa %xmm5,%xmm9
    1956:	66 41 0f 73 f0 20    	psllq  $0x20,%xmm8
    195c:	66 45 0f 66 ca       	pcmpgtd %xmm10,%xmm9
    1961:	66 41 0f d4 c8       	paddq  %xmm8,%xmm1
    1966:	66 44 0f 6f c0       	movdqa %xmm0,%xmm8
    196b:	66 44 0f 62 c0       	punpckldq %xmm0,%xmm8
    1970:	66 0f 6a c0          	punpckhdq %xmm0,%xmm0
    1974:	66 41 0f 66 e0       	pcmpgtd %xmm8,%xmm4
    1979:	66 45 0f f4 c8       	pmuludq %xmm8,%xmm9
    197e:	66 45 0f f4 c2       	pmuludq %xmm10,%xmm8
    1983:	66 41 0f f4 e2       	pmuludq %xmm10,%xmm4
    1988:	66 41 0f d4 e1       	paddq  %xmm9,%xmm4
    198d:	66 44 0f 6f cd       	movdqa %xmm5,%xmm9
    1992:	66 0f 73 f4 20       	psllq  $0x20,%xmm4
    1997:	66 44 0f 66 ca       	pcmpgtd %xmm2,%xmm9
    199c:	66 44 0f d4 c4       	paddq  %xmm4,%xmm8
    19a1:	66 0f 6f e5          	movdqa %xmm5,%xmm4
    19a5:	66 0f 66 e0          	pcmpgtd %xmm0,%xmm4
    19a9:	66 44 0f f4 c8       	pmuludq %xmm0,%xmm9
    19ae:	66 0f f4 c2          	pmuludq %xmm2,%xmm0
    19b2:	66 0f f4 e2          	pmuludq %xmm2,%xmm4
    19b6:	66 0f 6f d3          	movdqa %xmm3,%xmm2
    19ba:	66 41 0f fb d8       	psubq  %xmm8,%xmm3
    19bf:	66 41 0f d4 d0       	paddq  %xmm8,%xmm2
    19c4:	66 0f c6 d3 02       	shufpd $0x2,%xmm3,%xmm2
    19c9:	66 0f d4 fa          	paddq  %xmm2,%xmm7
    19cd:	66 0f 6f d1          	movdqa %xmm1,%xmm2
    19d1:	66 41 0f d4 e1       	paddq  %xmm9,%xmm4
    19d6:	66 0f 73 f4 20       	psllq  $0x20,%xmm4
    19db:	66 0f d4 c4          	paddq  %xmm4,%xmm0
    19df:	66 0f d4 d0          	paddq  %xmm0,%xmm2
    19e3:	66 0f fb c8          	psubq  %xmm0,%xmm1
    19e7:	66 0f 6f c2          	movdqa %xmm2,%xmm0
    19eb:	66 0f c6 c1 02       	shufpd $0x2,%xmm1,%xmm0
    19f0:	66 0f d4 f0          	paddq  %xmm0,%xmm6
    19f4:	48 39 c1             	cmp    %rax,%rcx
    19f7:	0f 85 ab fe ff ff    	jne    18a8 <riscv_dsp_cmat_mul_q31+0xd8>
    19fd:	66 49 0f 7e f9       	movq   %xmm7,%r9
    1a02:	66 0f 73 df 08       	psrldq $0x8,%xmm7
    1a07:	66 48 0f 7e f0       	movq   %xmm6,%rax
    1a0c:	48 8b 4c 24 c8       	mov    -0x38(%rsp),%rcx
    1a11:	66 48 0f 7e fa       	movq   %xmm7,%rdx
    1a16:	0f 12 fe             	movhlps %xmm6,%xmm7
    1a19:	49 01 c1             	add    %rax,%r9
    1a1c:	48 8b 74 24 b8       	mov    -0x48(%rsp),%rsi
    1a21:	66 48 0f 7e f8       	movq   %xmm7,%rax
    1a26:	48 01 c2             	add    %rax,%rdx
    1a29:	4b 8d 04 27          	lea    (%r15,%r12,1),%rax
    1a2d:	48 39 74 24 c0       	cmp    %rsi,-0x40(%rsp)
    1a32:	74 30                	je     1a64 <riscv_dsp_cmat_mul_q31+0x294>
    1a34:	4c 63 01             	movslq (%rcx),%r8
    1a37:	48 63 49 04          	movslq 0x4(%rcx),%rcx
    1a3b:	48 63 38             	movslq (%rax),%rdi
    1a3e:	48 63 40 04          	movslq 0x4(%rax),%rax
    1a42:	49 89 ca             	mov    %rcx,%r10
    1a45:	4c 89 c6             	mov    %r8,%rsi
    1a48:	4c 0f af d0          	imul   %rax,%r10
    1a4c:	48 0f af f7          	imul   %rdi,%rsi
    1a50:	49 0f af c0          	imul   %r8,%rax
    1a54:	48 0f af cf          	imul   %rdi,%rcx
    1a58:	4c 29 d6             	sub    %r10,%rsi
    1a5b:	48 01 f2             	add    %rsi,%rdx
    1a5e:	48 01 c8             	add    %rcx,%rax
    1a61:	49 01 c1             	add    %rax,%r9
    1a64:	48 c1 fa 1f          	sar    $0x1f,%rdx
    1a68:	49 c1 f9 1f          	sar    $0x1f,%r9
    1a6c:	49 83 c3 08          	add    $0x8,%r11
    1a70:	49 01 df             	add    %rbx,%r15
    1a73:	66 0f 6e c2          	movd   %edx,%xmm0
    1a77:	66 41 0f 6e f1       	movd   %r9d,%xmm6
    1a7c:	66 0f 62 c6          	punpckldq %xmm6,%xmm0
    1a80:	66 41 0f d6 43 f8    	movq   %xmm0,-0x8(%r11)
    1a86:	4c 39 7c 24 a8       	cmp    %r15,-0x58(%rsp)
    1a8b:	0f 85 ef fd ff ff    	jne    1880 <riscv_dsp_cmat_mul_q31+0xb0>
    1a91:	5b                   	pop    %rbx
    1a92:	5d                   	pop    %rbp
    1a93:	41 5c                	pop    %r12
    1a95:	41 5d                	pop    %r13
    1a97:	41 5e                	pop    %r14
    1a99:	41 5f                	pop    %r15
    1a9b:	c3                   	ret    
    1a9c:	48 8b 4c 24 a0       	mov    -0x60(%rsp),%rcx
    1aa1:	45 31 c9             	xor    %r9d,%r9d
    1aa4:	31 d2                	xor    %edx,%edx
    1aa6:	eb 8c                	jmp    1a34 <riscv_dsp_cmat_mul_q31+0x264>
    1aa8:	41 8d 41 ff          	lea    -0x1(%r9),%eax
    1aac:	4c 01 fb             	add    %r15,%rbx
    1aaf:	66 0f ef ed          	pxor   %xmm5,%xmm5
    1ab3:	48 83 c0 01          	add    $0x1,%rax
    1ab7:	48 89 5c 24 d8       	mov    %rbx,-0x28(%rsp)
    1abc:	48 8d 3c c5 00 00 00 	lea    0x0(,%rax,8),%rdi
    1ac3:	00 
    1ac4:	48 f7 d8             	neg    %rax
    1ac7:	49 01 fb             	add    %rdi,%r11
    1aca:	48 c1 e0 03          	shl    $0x3,%rax
    1ace:	48 89 7c 24 e8       	mov    %rdi,-0x18(%rsp)
    1ad3:	4c 89 5c 24 b0       	mov    %r11,-0x50(%rsp)
    1ad8:	48 89 44 24 f0       	mov    %rax,-0x10(%rsp)
    1add:	4c 8b 64 24 d8       	mov    -0x28(%rsp),%r12
    1ae2:	48 8b 74 24 a0       	mov    -0x60(%rsp),%rsi
    1ae7:	bd 02 00 00 00       	mov    $0x2,%ebp
    1aec:	48 8b 5c 24 f0       	mov    -0x10(%rsp),%rbx
    1af1:	48 03 5c 24 b0       	add    -0x50(%rsp),%rbx
    1af6:	4d 29 fc             	sub    %r15,%r12
    1af9:	49 8d 44 24 f8       	lea    -0x8(%r12),%rax
    1afe:	48 c1 e8 03          	shr    $0x3,%rax
    1b02:	48 83 c0 01          	add    $0x1,%rax
    1b06:	49 89 c3             	mov    %rax,%r11
    1b09:	48 89 44 24 b8       	mov    %rax,-0x48(%rsp)
    1b0e:	48 83 e0 fe          	and    $0xfffffffffffffffe,%rax
    1b12:	48 89 c7             	mov    %rax,%rdi
    1b15:	48 89 44 24 c0       	mov    %rax,-0x40(%rsp)
    1b1a:	49 8d 04 c7          	lea    (%r15,%rax,8),%rax
    1b1e:	49 d1 eb             	shr    %r11
    1b21:	49 0f af fd          	imul   %r13,%rdi
    1b25:	48 89 44 24 d0       	mov    %rax,-0x30(%rsp)
    1b2a:	49 c1 e3 04          	shl    $0x4,%r11
    1b2e:	4d 01 fb             	add    %r15,%r11
    1b31:	48 89 7c 24 c8       	mov    %rdi,-0x38(%rsp)
    1b36:	66 2e 0f 1f 84 00 00 	cs nopw 0x0(%rax,%rax,1)
    1b3d:	00 00 00 
    1b40:	49 83 fc 08          	cmp    $0x8,%r12
    1b44:	0f 84 39 02 00 00    	je     1d83 <riscv_dsp_cmat_mul_q31+0x5b3>
    1b4a:	66 0f ef f6          	pxor   %xmm6,%xmm6
    1b4e:	48 89 f2             	mov    %rsi,%rdx
    1b51:	4c 89 f8             	mov    %r15,%rax
    1b54:	66 0f 6f fe          	movdqa %xmm6,%xmm7
    1b58:	0f 1f 84 00 00 00 00 	nopl   0x0(%rax,%rax,1)
    1b5f:	00 
    1b60:	f3 0f 7e 02          	movq   (%rdx),%xmm0
    1b64:	f3 0f 6f 08          	movdqu (%rax),%xmm1
    1b68:	66 44 0f 6f c5       	movdqa %xmm5,%xmm8
    1b6d:	66 44 0f 6f cd       	movdqa %xmm5,%xmm9
    1b72:	f3 0f 6f 18          	movdqu (%rax),%xmm3
    1b76:	48 83 c0 10          	add    $0x10,%rax
    1b7a:	42 0f 16 04 2a       	movhps (%rdx,%r13,1),%xmm0
    1b7f:	66 0f 70 c9 a0       	pshufd $0xa0,%xmm1,%xmm1
    1b84:	4c 01 f2             	add    %r14,%rdx
    1b87:	66 0f 70 e0 b1       	pshufd $0xb1,%xmm0,%xmm4
    1b8c:	66 0f 70 d3 f5       	pshufd $0xf5,%xmm3,%xmm2
    1b91:	66 0f 6f d9          	movdqa %xmm1,%xmm3
    1b95:	66 44 0f 6f d4       	movdqa %xmm4,%xmm10
    1b9a:	66 0f 62 d9          	punpckldq %xmm1,%xmm3
    1b9e:	66 0f 6a c9          	punpckhdq %xmm1,%xmm1
    1ba2:	66 44 0f 62 d4       	punpckldq %xmm4,%xmm10
    1ba7:	66 44 0f 66 c3       	pcmpgtd %xmm3,%xmm8
    1bac:	66 0f 6a e4          	punpckhdq %xmm4,%xmm4
    1bb0:	66 45 0f 66 ca       	pcmpgtd %xmm10,%xmm9
    1bb5:	66 45 0f f4 c2       	pmuludq %xmm10,%xmm8
    1bba:	66 44 0f f4 cb       	pmuludq %xmm3,%xmm9
    1bbf:	66 41 0f f4 da       	pmuludq %xmm10,%xmm3
    1bc4:	66 44 0f 6f d2       	movdqa %xmm2,%xmm10
    1bc9:	66 44 0f 62 d2       	punpckldq %xmm2,%xmm10
    1bce:	66 0f 6a d2          	punpckhdq %xmm2,%xmm2
    1bd2:	66 45 0f d4 c1       	paddq  %xmm9,%xmm8
    1bd7:	66 44 0f 6f cd       	movdqa %xmm5,%xmm9
    1bdc:	66 41 0f 73 f0 20    	psllq  $0x20,%xmm8
    1be2:	66 44 0f 66 cc       	pcmpgtd %xmm4,%xmm9
    1be7:	66 41 0f d4 d8       	paddq  %xmm8,%xmm3
    1bec:	66 44 0f 6f c5       	movdqa %xmm5,%xmm8
    1bf1:	66 44 0f 66 c1       	pcmpgtd %xmm1,%xmm8
    1bf6:	66 44 0f f4 c9       	pmuludq %xmm1,%xmm9
    1bfb:	66 0f f4 cc          	pmuludq %xmm4,%xmm1
    1bff:	66 44 0f f4 c4       	pmuludq %xmm4,%xmm8
    1c04:	66 0f 6f e5          	movdqa %xmm5,%xmm4
    1c08:	66 45 0f d4 c1       	paddq  %xmm9,%xmm8
    1c0d:	66 44 0f 6f cd       	movdqa %xmm5,%xmm9
    1c12:	66 41 0f 73 f0 20    	psllq  $0x20,%xmm8
    1c18:	66 45 0f 66 ca       	pcmpgtd %xmm10,%xmm9
    1c1d:	66 41 0f d4 c8       	paddq  %xmm8,%xmm1
    1c22:	66 44 0f 6f c0       	movdqa %xmm0,%xmm8
    1c27:	66 44 0f 62 c0       	punpckldq %xmm0,%xmm8
    1c2c:	66 0f 6a c0          	punpckhdq %xmm0,%xmm0
    1c30:	66 41 0f 66 e0       	pcmpgtd %xmm8,%xmm4
    1c35:	66 45 0f f4 c8       	pmuludq %xmm8,%xmm9
    1c3a:	66 45 0f f4 c2       	pmuludq %xmm10,%xmm8
    1c3f:	66 41 0f f4 e2       	pmuludq %xmm10,%xmm4
    1c44:	66 41 0f d4 e1       	paddq  %xmm9,%xmm4
    1c49:	66 44 0f 6f cd       	movdqa %xmm5,%xmm9
    1c4e:	66 0f 73 f4 20       	psllq  $0x20,%xmm4
    1c53:	66 44 0f 66 ca       	pcmpgtd %xmm2,%xmm9
    1c58:	66 44 0f d4 c4       	paddq  %xmm4,%xmm8
    1c5d:	66 0f 6f e5          	movdqa %xmm5,%xmm4
    1c61:	66 0f 66 e0          	pcmpgtd %xmm0,%xmm4
    1c65:	66 44 0f f4 c8       	pmuludq %xmm0,%xmm9
    1c6a:	66 0f f4 c2          	pmuludq %xmm2,%xmm0
    1c6e:	66 0f f4 e2          	pmuludq %xmm2,%xmm4
    1c72:	66 0f 6f d3          	movdqa %xmm3,%xmm2
    1c76:	66 41 0f fb d8       	psubq  %xmm8,%xmm3
    1c7b:	66 41 0f d4 d0       	paddq  %xmm8,%xmm2
    1c80:	66 0f c6 d3 02       	shufpd $0x2,%xmm3,%xmm2
    1c85:	66 0f d4 fa          	paddq  %xmm2,%xmm7
    1c89:	66 0f 6f d1          	movdqa %xmm1,%xmm2
    1c8d:	66 41 0f d4 e1       	paddq  %xmm9,%xmm4
    1c92:	66 0f 73 f4 20       	psllq  $0x20,%xmm4
    1c97:	66 0f d4 c4          	paddq  %xmm4,%xmm0
    1c9b:	66 0f d4 d0          	paddq  %xmm0,%xmm2
    1c9f:	66 0f fb c8          	psubq  %xmm0,%xmm1
    1ca3:	66 0f c6 d1 02       	shufpd $0x2,%xmm1,%xmm2
    1ca8:	66 0f d4 f2          	paddq  %xmm2,%xmm6
    1cac:	4c 39 d8             	cmp    %r11,%rax
    1caf:	0f 85 ab fe ff ff    	jne    1b60 <riscv_dsp_cmat_mul_q31+0x390>
    1cb5:	66 48 0f 7e f0       	movq   %xmm6,%rax
    1cba:	66 49 0f 7e f9       	movq   %xmm7,%r9
    1cbf:	66 0f 73 de 08       	psrldq $0x8,%xmm6
    1cc4:	66 0f 73 df 08       	psrldq $0x8,%xmm7
    1cc9:	49 01 c1             	add    %rax,%r9
    1ccc:	66 48 0f 7e fa       	movq   %xmm7,%rdx
    1cd1:	66 48 0f 7e f0       	movq   %xmm6,%rax
    1cd6:	48 8b 7c 24 c0       	mov    -0x40(%rsp),%rdi
    1cdb:	48 01 c2             	add    %rax,%rdx
    1cde:	48 03 74 24 c8       	add    -0x38(%rsp),%rsi
    1ce3:	48 39 7c 24 b8       	cmp    %rdi,-0x48(%rsp)
    1ce8:	74 35                	je     1d1f <riscv_dsp_cmat_mul_q31+0x54f>
    1cea:	48 8b 7c 24 d0       	mov    -0x30(%rsp),%rdi
    1cef:	48 63 07             	movslq (%rdi),%rax
    1cf2:	48 63 7f 04          	movslq 0x4(%rdi),%rdi
    1cf6:	48 63 0e             	movslq (%rsi),%rcx
    1cf9:	4c 63 46 04          	movslq 0x4(%rsi),%r8
    1cfd:	49 89 fa             	mov    %rdi,%r10
    1d00:	48 89 c6             	mov    %rax,%rsi
    1d03:	48 0f af f1          	imul   %rcx,%rsi
    1d07:	4d 0f af d0          	imul   %r8,%r10
    1d0b:	49 0f af c0          	imul   %r8,%rax
    1d0f:	48 0f af cf          	imul   %rdi,%rcx
    1d13:	4c 29 d6             	sub    %r10,%rsi
    1d16:	48 01 f2             	add    %rsi,%rdx
    1d19:	48 01 c8             	add    %rcx,%rax
    1d1c:	49 01 c1             	add    %rax,%r9
    1d1f:	48 c1 fa 1f          	sar    $0x1f,%rdx
    1d23:	49 c1 f9 1f          	sar    $0x1f,%r9
    1d27:	48 8b 7c 24 a0       	mov    -0x60(%rsp),%rdi
    1d2c:	89 e8                	mov    %ebp,%eax
    1d2e:	66 0f 6e c2          	movd   %edx,%xmm0
    1d32:	66 41 0f 6e f1       	movd   %r9d,%xmm6
    1d37:	48 83 c3 08          	add    $0x8,%rbx
    1d3b:	83 c5 02             	add    $0x2,%ebp
    1d3e:	66 0f 62 c6          	punpckldq %xmm6,%xmm0
    1d42:	48 8d 34 87          	lea    (%rdi,%rax,4),%rsi
    1d46:	66 0f d6 43 f8       	movq   %xmm0,-0x8(%rbx)
    1d4b:	48 3b 5c 24 b0       	cmp    -0x50(%rsp),%rbx
    1d50:	0f 85 ea fd ff ff    	jne    1b40 <riscv_dsp_cmat_mul_q31+0x370>
    1d56:	48 8b 5c 24 e0       	mov    -0x20(%rsp),%rbx
    1d5b:	48 8b 7c 24 e8       	mov    -0x18(%rsp),%rdi
    1d60:	48 01 5c 24 d8       	add    %rbx,-0x28(%rsp)
    1d65:	48 01 7c 24 b0       	add    %rdi,-0x50(%rsp)
    1d6a:	49 01 df             	add    %rbx,%r15
    1d6d:	4c 39 7c 24 a8       	cmp    %r15,-0x58(%rsp)
    1d72:	0f 85 65 fd ff ff    	jne    1add <riscv_dsp_cmat_mul_q31+0x30d>
    1d78:	5b                   	pop    %rbx
    1d79:	5d                   	pop    %rbp
    1d7a:	41 5c                	pop    %r12
    1d7c:	41 5d                	pop    %r13
    1d7e:	41 5e                	pop    %r14
    1d80:	41 5f                	pop    %r15
    1d82:	c3                   	ret    
    1d83:	4c 89 ff             	mov    %r15,%rdi
    1d86:	45 31 c9             	xor    %r9d,%r9d
    1d89:	31 d2                	xor    %edx,%edx
    1d8b:	e9 5f ff ff ff       	jmp    1cef <riscv_dsp_cmat_mul_q31+0x51f>

0000000000001d90 <riscv_dsp_convert_q31_f32>:
    1d90:	f3 0f 1e fa          	endbr64 
    1d94:	48 89 f1             	mov    %rsi,%rcx
    1d97:	85 d2                	test   %edx,%edx
    1d99:	0f 84 97 00 00 00    	je     1e36 <riscv_dsp_convert_q31_f32+0xa6>
    1d9f:	8d 42 ff             	lea    -0x1(%rdx),%eax
    1da2:	83 f8 02             	cmp    $0x2,%eax
    1da5:	0f 86 96 00 00 00    	jbe    1e41 <riscv_dsp_convert_q31_f32+0xb1>
    1dab:	89 d6                	mov    %edx,%esi
    1dad:	0f 28 0d 8c 03 00 00 	movaps 0x38c(%rip),%xmm1        # 2140 <_IO_stdin_used+0x140>
    1db4:	31 c0                	xor    %eax,%eax
    1db6:	c1 ee 02             	shr    $0x2,%esi
    1db9:	48 c1 e6 04          	shl    $0x4,%rsi
    1dbd:	0f 1f 00             	nopl   (%rax)
    1dc0:	f3 0f 6f 14 07       	movdqu (%rdi,%rax,1),%xmm2
    1dc5:	0f 5b c2             	cvtdq2ps %xmm2,%xmm0
    1dc8:	0f 59 c1             	mulps  %xmm1,%xmm0
    1dcb:	0f 11 04 01          	movups %xmm0,(%rcx,%rax,1)
    1dcf:	48 83 c0 10          	add    $0x10,%rax
    1dd3:	48 39 f0             	cmp    %rsi,%rax
    1dd6:	75 e8                	jne    1dc0 <riscv_dsp_convert_q31_f32+0x30>
    1dd8:	89 d6                	mov    %edx,%esi
    1dda:	83 e6 fc             	and    $0xfffffffc,%esi
    1ddd:	89 f0                	mov    %esi,%eax
    1ddf:	48 c1 e0 02          	shl    $0x2,%rax
    1de3:	4c 8d 04 07          	lea    (%rdi,%rax,1),%r8
    1de7:	48 01 c8             	add    %rcx,%rax
    1dea:	39 f2                	cmp    %esi,%edx
    1dec:	74 52                	je     1e40 <riscv_dsp_convert_q31_f32+0xb0>
    1dee:	29 f2                	sub    %esi,%edx
    1df0:	83 fa 01             	cmp    $0x1,%edx
    1df3:	74 2c                	je     1e21 <riscv_dsp_convert_q31_f32+0x91>
    1df5:	f3 0f 7e 0d 43 03 00 	movq   0x343(%rip),%xmm1        # 2140 <_IO_stdin_used+0x140>
    1dfc:	00 
    1dfd:	f3 0f 7e 04 b7       	movq   (%rdi,%rsi,4),%xmm0
    1e02:	0f 5b c0             	cvtdq2ps %xmm0,%xmm0
    1e05:	0f 59 c1             	mulps  %xmm1,%xmm0
    1e08:	0f 13 04 b1          	movlps %xmm0,(%rcx,%rsi,4)
    1e0c:	89 d6                	mov    %edx,%esi
    1e0e:	83 e6 fe             	and    $0xfffffffe,%esi
    1e11:	89 f1                	mov    %esi,%ecx
    1e13:	48 c1 e1 02          	shl    $0x2,%rcx
    1e17:	49 01 c8             	add    %rcx,%r8
    1e1a:	48 01 c8             	add    %rcx,%rax
    1e1d:	39 f2                	cmp    %esi,%edx
    1e1f:	74 15                	je     1e36 <riscv_dsp_convert_q31_f32+0xa6>
    1e21:	66 0f ef c0          	pxor   %xmm0,%xmm0
    1e25:	f3 41 0f 2a 00       	cvtsi2ssl (%r8),%xmm0
    1e2a:	f3 0f 59 05 0e 03 00 	mulss  0x30e(%rip),%xmm0        # 2140 <_IO_stdin_used+0x140>
    1e31:	00 
    1e32:	f3 0f 11 00          	movss  %xmm0,(%rax)
    1e36:	c3                   	ret    
    1e37:	66 0f 1f 84 00 00 00 	nopw   0x0(%rax,%rax,1)
    1e3e:	00 00 
    1e40:	c3                   	ret    
    1e41:	48 89 f0             	mov    %rsi,%rax
    1e44:	49 89 f8             	mov    %rdi,%r8
    1e47:	31 f6                	xor    %esi,%esi
    1e49:	eb a3                	jmp    1dee <riscv_dsp_convert_q31_f32+0x5e>

Disassembly of section .fini:

0000000000001e4c <_fini>:
    1e4c:	f3 0f 1e fa          	endbr64 
    1e50:	48 83 ec 08          	sub    $0x8,%rsp
    1e54:	48 83 c4 08          	add    $0x8,%rsp
    1e58:	c3                   	ret    
