
t_cmat_mul_f32:     file format elf64-x86-64


Disassembly of section .init:

0000000000001000 <_init>:
    1000:	f3 0f 1e fa          	endbr64 
    1004:	48 83 ec 08          	sub    $0x8,%rsp
    1008:	48 8b 05 d9 2f 00 00 	mov    0x2fd9(%rip),%rax        # 3fe8 <__gmon_start__@Base>
    100f:	48 85 c0             	test   %rax,%rax
    1012:	74 02                	je     1016 <_init+0x16>
    1014:	ff d0                	call   *%rax
    1016:	48 83 c4 08          	add    $0x8,%rsp
    101a:	c3                   	ret    

Disassembly of section .plt:

0000000000001020 <.plt>:
    1020:	ff 35 5a 2f 00 00    	push   0x2f5a(%rip)        # 3f80 <_GLOBAL_OFFSET_TABLE_+0x8>
    1026:	f2 ff 25 5b 2f 00 00 	bnd jmp *0x2f5b(%rip)        # 3f88 <_GLOBAL_OFFSET_TABLE_+0x10>
    102d:	0f 1f 00             	nopl   (%rax)
    1030:	f3 0f 1e fa          	endbr64 
    1034:	68 00 00 00 00       	push   $0x0
    1039:	f2 e9 e1 ff ff ff    	bnd jmp 1020 <_init+0x20>
    103f:	90                   	nop
    1040:	f3 0f 1e fa          	endbr64 
    1044:	68 01 00 00 00       	push   $0x1
    1049:	f2 e9 d1 ff ff ff    	bnd jmp 1020 <_init+0x20>
    104f:	90                   	nop
    1050:	f3 0f 1e fa          	endbr64 
    1054:	68 02 00 00 00       	push   $0x2
    1059:	f2 e9 c1 ff ff ff    	bnd jmp 1020 <_init+0x20>
    105f:	90                   	nop
    1060:	f3 0f 1e fa          	endbr64 
    1064:	68 03 00 00 00       	push   $0x3
    1069:	f2 e9 b1 ff ff ff    	bnd jmp 1020 <_init+0x20>
    106f:	90                   	nop
    1070:	f3 0f 1e fa          	endbr64 
    1074:	68 04 00 00 00       	push   $0x4
    1079:	f2 e9 a1 ff ff ff    	bnd jmp 1020 <_init+0x20>
    107f:	90                   	nop
    1080:	f3 0f 1e fa          	endbr64 
    1084:	68 05 00 00 00       	push   $0x5
    1089:	f2 e9 91 ff ff ff    	bnd jmp 1020 <_init+0x20>
    108f:	90                   	nop
    1090:	f3 0f 1e fa          	endbr64 
    1094:	68 06 00 00 00       	push   $0x6
    1099:	f2 e9 81 ff ff ff    	bnd jmp 1020 <_init+0x20>
    109f:	90                   	nop
    10a0:	f3 0f 1e fa          	endbr64 
    10a4:	68 07 00 00 00       	push   $0x7
    10a9:	f2 e9 71 ff ff ff    	bnd jmp 1020 <_init+0x20>
    10af:	90                   	nop
    10b0:	f3 0f 1e fa          	endbr64 
    10b4:	68 08 00 00 00       	push   $0x8
    10b9:	f2 e9 61 ff ff ff    	bnd jmp 1020 <_init+0x20>
    10bf:	90                   	nop

Disassembly of section .plt.got:

00000000000010c0 <__cxa_finalize@plt>:
    10c0:	f3 0f 1e fa          	endbr64 
    10c4:	f2 ff 25 2d 2f 00 00 	bnd jmp *0x2f2d(%rip)        # 3ff8 <__cxa_finalize@GLIBC_2.2.5>
    10cb:	0f 1f 44 00 00       	nopl   0x0(%rax,%rax,1)

Disassembly of section .plt.sec:

00000000000010d0 <puts@plt>:
    10d0:	f3 0f 1e fa          	endbr64 
    10d4:	f2 ff 25 b5 2e 00 00 	bnd jmp *0x2eb5(%rip)        # 3f90 <puts@GLIBC_2.2.5>
    10db:	0f 1f 44 00 00       	nopl   0x0(%rax,%rax,1)

00000000000010e0 <fread@plt>:
    10e0:	f3 0f 1e fa          	endbr64 
    10e4:	f2 ff 25 ad 2e 00 00 	bnd jmp *0x2ead(%rip)        # 3f98 <fread@GLIBC_2.2.5>
    10eb:	0f 1f 44 00 00       	nopl   0x0(%rax,%rax,1)

00000000000010f0 <fclose@plt>:
    10f0:	f3 0f 1e fa          	endbr64 
    10f4:	f2 ff 25 a5 2e 00 00 	bnd jmp *0x2ea5(%rip)        # 3fa0 <fclose@GLIBC_2.2.5>
    10fb:	0f 1f 44 00 00       	nopl   0x0(%rax,%rax,1)

0000000000001100 <__stack_chk_fail@plt>:
    1100:	f3 0f 1e fa          	endbr64 
    1104:	f2 ff 25 9d 2e 00 00 	bnd jmp *0x2e9d(%rip)        # 3fa8 <__stack_chk_fail@GLIBC_2.4>
    110b:	0f 1f 44 00 00       	nopl   0x0(%rax,%rax,1)

0000000000001110 <log10f@plt>:
    1110:	f3 0f 1e fa          	endbr64 
    1114:	f2 ff 25 95 2e 00 00 	bnd jmp *0x2e95(%rip)        # 3fb0 <log10f@GLIBC_2.2.5>
    111b:	0f 1f 44 00 00       	nopl   0x0(%rax,%rax,1)

0000000000001120 <__printf_chk@plt>:
    1120:	f3 0f 1e fa          	endbr64 
    1124:	f2 ff 25 8d 2e 00 00 	bnd jmp *0x2e8d(%rip)        # 3fb8 <__printf_chk@GLIBC_2.3.4>
    112b:	0f 1f 44 00 00       	nopl   0x0(%rax,%rax,1)

0000000000001130 <fopen@plt>:
    1130:	f3 0f 1e fa          	endbr64 
    1134:	f2 ff 25 85 2e 00 00 	bnd jmp *0x2e85(%rip)        # 3fc0 <fopen@GLIBC_2.2.5>
    113b:	0f 1f 44 00 00       	nopl   0x0(%rax,%rax,1)

0000000000001140 <sqrt@plt>:
    1140:	f3 0f 1e fa          	endbr64 
    1144:	f2 ff 25 7d 2e 00 00 	bnd jmp *0x2e7d(%rip)        # 3fc8 <sqrt@GLIBC_2.2.5>
    114b:	0f 1f 44 00 00       	nopl   0x0(%rax,%rax,1)

0000000000001150 <__sprintf_chk@plt>:
    1150:	f3 0f 1e fa          	endbr64 
    1154:	f2 ff 25 75 2e 00 00 	bnd jmp *0x2e75(%rip)        # 3fd0 <__sprintf_chk@GLIBC_2.3.4>
    115b:	0f 1f 44 00 00       	nopl   0x0(%rax,%rax,1)

Disassembly of section .text:

0000000000001160 <main>:
    1160:	f3 0f 1e fa          	endbr64 
    1164:	55                   	push   %rbp
    1165:	48 89 e5             	mov    %rsp,%rbp
    1168:	41 57                	push   %r15
    116a:	41 56                	push   %r14
    116c:	41 55                	push   %r13
    116e:	41 54                	push   %r12
    1170:	53                   	push   %rbx
    1171:	48 81 ec 38 02 00 00 	sub    $0x238,%rsp
    1178:	64 48 8b 04 25 28 00 	mov    %fs:0x28,%rax
    117f:	00 00 
    1181:	48 89 45 c8          	mov    %rax,-0x38(%rbp)
    1185:	31 c0                	xor    %eax,%eax
    1187:	48 8d 84 24 00 c0 ff 	lea    -0x4000(%rsp),%rax
    118e:	ff 
    118f:	48 39 c4             	cmp    %rax,%rsp
    1192:	74 15                	je     11a9 <main+0x49>
    1194:	48 81 ec 00 10 00 00 	sub    $0x1000,%rsp
    119b:	48 83 8c 24 f8 0f 00 	orq    $0x0,0xff8(%rsp)
    11a2:	00 00 
    11a4:	48 39 c4             	cmp    %rax,%rsp
    11a7:	75 eb                	jne    1194 <main+0x34>
    11a9:	48 81 ec 20 0e 00 00 	sub    $0xe20,%rsp
    11b0:	48 83 8c 24 18 0e 00 	orq    $0x0,0xe18(%rsp)
    11b7:	00 00 
    11b9:	49 89 e6             	mov    %rsp,%r14
    11bc:	48 8d 84 24 00 c0 ff 	lea    -0x4000(%rsp),%rax
    11c3:	ff 
    11c4:	48 39 c4             	cmp    %rax,%rsp
    11c7:	74 12                	je     11db <main+0x7b>
    11c9:	48 81 ec 00 10 00 00 	sub    $0x1000,%rsp
    11d0:	48 83 8c 24 f8 0f 00 	orq    $0x0,0xff8(%rsp)
    11d7:	00 00 
    11d9:	eb e9                	jmp    11c4 <main+0x64>
    11db:	48 81 ec 20 0e 00 00 	sub    $0xe20,%rsp
    11e2:	48 83 8c 24 18 0e 00 	orq    $0x0,0xe18(%rsp)
    11e9:	00 00 
    11eb:	48 89 a5 b8 fd ff ff 	mov    %rsp,-0x248(%rbp)
    11f2:	48 8d 84 24 00 c0 ff 	lea    -0x4000(%rsp),%rax
    11f9:	ff 
    11fa:	48 39 c4             	cmp    %rax,%rsp
    11fd:	74 12                	je     1211 <main+0xb1>
    11ff:	48 81 ec 00 10 00 00 	sub    $0x1000,%rsp
    1206:	48 83 8c 24 f8 0f 00 	orq    $0x0,0xff8(%rsp)
    120d:	00 00 
    120f:	eb e9                	jmp    11fa <main+0x9a>
    1211:	48 81 ec 20 0e 00 00 	sub    $0xe20,%rsp
    1218:	48 83 8c 24 18 0e 00 	orq    $0x0,0xe18(%rsp)
    121f:	00 00 
    1221:	48 89 e3             	mov    %rsp,%rbx
    1224:	48 8d 84 24 00 c0 ff 	lea    -0x4000(%rsp),%rax
    122b:	ff 
    122c:	48 39 c4             	cmp    %rax,%rsp
    122f:	74 12                	je     1243 <main+0xe3>
    1231:	48 81 ec 00 10 00 00 	sub    $0x1000,%rsp
    1238:	48 83 8c 24 f8 0f 00 	orq    $0x0,0xff8(%rsp)
    123f:	00 00 
    1241:	eb e9                	jmp    122c <main+0xcc>
    1243:	48 81 ec 20 0e 00 00 	sub    $0xe20,%rsp
    124a:	48 83 8c 24 18 0e 00 	orq    $0x0,0xe18(%rsp)
    1251:	00 00 
    1253:	4c 8d 05 ae 0d 00 00 	lea    0xdae(%rip),%r8        # 2008 <_IO_stdin_used+0x8>
    125a:	ba 00 02 00 00       	mov    $0x200,%edx
    125f:	31 c0                	xor    %eax,%eax
    1261:	48 8d 0d 32 0e 00 00 	lea    0xe32(%rip),%rcx        # 209a <_IO_stdin_used+0x9a>
    1268:	be 01 00 00 00       	mov    $0x1,%esi
    126d:	4c 8d a5 c0 fd ff ff 	lea    -0x240(%rbp),%r12
    1274:	49 89 e7             	mov    %rsp,%r15
    1277:	4c 89 e7             	mov    %r12,%rdi
    127a:	e8 d1 fe ff ff       	call   1150 <__sprintf_chk@plt>
    127f:	48 8d 35 2b 0e 00 00 	lea    0xe2b(%rip),%rsi        # 20b1 <_IO_stdin_used+0xb1>
    1286:	4c 89 e7             	mov    %r12,%rdi
    1289:	e8 a2 fe ff ff       	call   1130 <fopen@plt>
    128e:	48 89 85 b0 fd ff ff 	mov    %rax,-0x250(%rbp)
    1295:	48 85 c0             	test   %rax,%rax
    1298:	0f 84 78 03 00 00    	je     1616 <main+0x4b6>
    129e:	ba 00 02 00 00       	mov    $0x200,%edx
    12a3:	be 01 00 00 00       	mov    $0x1,%esi
    12a8:	4c 89 e7             	mov    %r12,%rdi
    12ab:	31 c0                	xor    %eax,%eax
    12ad:	4c 8d 05 54 0d 00 00 	lea    0xd54(%rip),%r8        # 2008 <_IO_stdin_used+0x8>
    12b4:	48 8d 0d f8 0d 00 00 	lea    0xdf8(%rip),%rcx        # 20b3 <_IO_stdin_used+0xb3>
    12bb:	e8 90 fe ff ff       	call   1150 <__sprintf_chk@plt>
    12c0:	48 8d 35 ea 0d 00 00 	lea    0xdea(%rip),%rsi        # 20b1 <_IO_stdin_used+0xb1>
    12c7:	4c 89 e7             	mov    %r12,%rdi
    12ca:	e8 61 fe ff ff       	call   1130 <fopen@plt>
    12cf:	49 89 c5             	mov    %rax,%r13
    12d2:	48 85 c0             	test   %rax,%rax
    12d5:	0f 84 3b 03 00 00    	je     1616 <main+0x4b6>
    12db:	4c 89 e7             	mov    %r12,%rdi
    12de:	ba 00 02 00 00       	mov    $0x200,%edx
    12e3:	be 01 00 00 00       	mov    $0x1,%esi
    12e8:	31 c0                	xor    %eax,%eax
    12ea:	4c 8d 05 17 0d 00 00 	lea    0xd17(%rip),%r8        # 2008 <_IO_stdin_used+0x8>
    12f1:	48 8d 0d d1 0d 00 00 	lea    0xdd1(%rip),%rcx        # 20c9 <_IO_stdin_used+0xc9>
    12f8:	e8 53 fe ff ff       	call   1150 <__sprintf_chk@plt>
    12fd:	4c 89 e7             	mov    %r12,%rdi
    1300:	48 8d 35 aa 0d 00 00 	lea    0xdaa(%rip),%rsi        # 20b1 <_IO_stdin_used+0xb1>
    1307:	e8 24 fe ff ff       	call   1130 <fopen@plt>
    130c:	49 89 c4             	mov    %rax,%r12
    130f:	48 85 c0             	test   %rax,%rax
    1312:	0f 84 fe 02 00 00    	je     1616 <main+0x4b6>
    1318:	48 8b b5 b0 fd ff ff 	mov    -0x250(%rbp),%rsi
    131f:	4c 89 f7             	mov    %r14,%rdi
    1322:	e8 e9 03 00 00       	call   1710 <test_Fread.constprop.0.isra.0>
    1327:	48 8b bd b8 fd ff ff 	mov    -0x248(%rbp),%rdi
    132e:	4c 89 ee             	mov    %r13,%rsi
    1331:	e8 da 03 00 00       	call   1710 <test_Fread.constprop.0.isra.0>
    1336:	4c 89 e6             	mov    %r12,%rsi
    1339:	48 89 df             	mov    %rbx,%rdi
    133c:	e8 cf 03 00 00       	call   1710 <test_Fread.constprop.0.isra.0>
    1341:	b9 32 00 00 00       	mov    $0x32,%ecx
    1346:	4c 89 fa             	mov    %r15,%rdx
    1349:	4c 89 f7             	mov    %r14,%rdi
    134c:	48 8b b5 b8 fd ff ff 	mov    -0x248(%rbp),%rsi
    1353:	41 b9 32 00 00 00    	mov    $0x32,%r9d
    1359:	41 b8 32 00 00 00    	mov    $0x32,%r8d
    135f:	e8 cc 03 00 00       	call   1730 <riscv_dsp_cmat_mul_f32>
    1364:	31 c0                	xor    %eax,%eax
    1366:	66 0f ef c0          	pxor   %xmm0,%xmm0
    136a:	f3 0f 10 2d ae 0d 00 	movss  0xdae(%rip),%xmm5        # 2120 <_IO_stdin_used+0x120>
    1371:	00 
    1372:	66 0f 1f 44 00 00    	nopw   0x0(%rax,%rax,1)
    1378:	f3 41 0f 10 0c 07    	movss  (%r15,%rax,1),%xmm1
    137e:	f3 0f 5c 0c 03       	subss  (%rbx,%rax,1),%xmm1
    1383:	48 83 c0 04          	add    $0x4,%rax
    1387:	0f 54 cd             	andps  %xmm5,%xmm1
    138a:	f3 0f 5f c8          	maxss  %xmm0,%xmm1
    138e:	0f 28 c1             	movaps %xmm1,%xmm0
    1391:	48 3d 20 4e 00 00    	cmp    $0x4e20,%rax
    1397:	75 df                	jne    1378 <main+0x218>
    1399:	48 8d 35 44 0d 00 00 	lea    0xd44(%rip),%rsi        # 20e4 <_IO_stdin_used+0xe4>
    13a0:	bf 01 00 00 00       	mov    $0x1,%edi
    13a5:	66 0f ef c0          	pxor   %xmm0,%xmm0
    13a9:	b8 01 00 00 00       	mov    $0x1,%eax
    13ae:	f3 0f 5a c1          	cvtss2sd %xmm1,%xmm0
    13b2:	e8 69 fd ff ff       	call   1120 <__printf_chk@plt>
    13b7:	48 8b bd b0 fd ff ff 	mov    -0x250(%rbp),%rdi
    13be:	e8 2d fd ff ff       	call   10f0 <fclose@plt>
    13c3:	4c 89 ef             	mov    %r13,%rdi
    13c6:	e8 25 fd ff ff       	call   10f0 <fclose@plt>
    13cb:	4c 89 e7             	mov    %r12,%rdi
    13ce:	e8 1d fd ff ff       	call   10f0 <fclose@plt>
    13d3:	66 0f ef db          	pxor   %xmm3,%xmm3
    13d7:	66 0f ef ff          	pxor   %xmm7,%xmm7
    13db:	31 c0                	xor    %eax,%eax
    13dd:	66 0f 28 f7          	movapd %xmm7,%xmm6
    13e1:	0f 28 c3             	movaps %xmm3,%xmm0
    13e4:	44 0f 28 c3          	movaps %xmm3,%xmm8
    13e8:	44 0f 28 cb          	movaps %xmm3,%xmm9
    13ec:	f3 0f 10 2d 2c 0d 00 	movss  0xd2c(%rip),%xmm5        # 2120 <_IO_stdin_used+0x120>
    13f3:	00 
    13f4:	0f 1f 40 00          	nopl   0x0(%rax)
    13f8:	f3 41 0f 10 0c 07    	movss  (%r15,%rax,1),%xmm1
    13fe:	f3 0f 10 14 03       	movss  (%rbx,%rax,1),%xmm2
    1403:	66 0f 7e ca          	movd   %xmm1,%edx
    1407:	81 fa 00 00 c0 7f    	cmp    $0x7fc00000,%edx
    140d:	0f 84 be 01 00 00    	je     15d1 <main+0x471>
    1413:	0f 28 e2             	movaps %xmm2,%xmm4
    1416:	f3 0f 5c ca          	subss  %xmm2,%xmm1
    141a:	48 83 c0 04          	add    $0x4,%rax
    141e:	f3 41 0f 5f e1       	maxss  %xmm9,%xmm4
    1423:	44 0f 28 cc          	movaps %xmm4,%xmm9
    1427:	0f 28 e2             	movaps %xmm2,%xmm4
    142a:	f3 41 0f 5d e0       	minss  %xmm8,%xmm4
    142f:	f3 0f 59 d2          	mulss  %xmm2,%xmm2
    1433:	44 0f 28 c4          	movaps %xmm4,%xmm8
    1437:	0f 28 e1             	movaps %xmm1,%xmm4
    143a:	f3 0f 59 c9          	mulss  %xmm1,%xmm1
    143e:	0f 54 e5             	andps  %xmm5,%xmm4
    1441:	f3 0f 58 c4          	addss  %xmm4,%xmm0
    1445:	f3 0f 5f e3          	maxss  %xmm3,%xmm4
    1449:	f3 0f 5a d2          	cvtss2sd %xmm2,%xmm2
    144d:	f2 0f 58 fa          	addsd  %xmm2,%xmm7
    1451:	0f 28 dc             	movaps %xmm4,%xmm3
    1454:	f3 0f 5a c9          	cvtss2sd %xmm1,%xmm1
    1458:	f2 0f 58 f1          	addsd  %xmm1,%xmm6
    145c:	48 3d 20 4e 00 00    	cmp    $0x4e20,%rax
    1462:	75 94                	jne    13f8 <main+0x298>
    1464:	66 48 0f 7e f0       	movq   %xmm6,%rax
    1469:	f3 0f 11 a5 a8 fd ff 	movss  %xmm4,-0x258(%rbp)
    1470:	ff 
    1471:	f3 44 0f 11 85 ac fd 	movss  %xmm8,-0x254(%rbp)
    1478:	ff ff 
    147a:	f3 44 0f 11 8d b0 fd 	movss  %xmm9,-0x250(%rbp)
    1481:	ff ff 
    1483:	f2 0f 11 bd b8 fd ff 	movsd  %xmm7,-0x248(%rbp)
    148a:	ff 
    148b:	3d 00 00 c0 7f       	cmp    $0x7fc00000,%eax
    1490:	0f 84 3b 01 00 00    	je     15d1 <main+0x471>
    1496:	f3 0f 5e 05 72 0c 00 	divss  0xc72(%rip),%xmm0        # 2110 <_IO_stdin_used+0x110>
    149d:	00 
    149e:	f2 0f 11 b5 a0 fd ff 	movsd  %xmm6,-0x260(%rbp)
    14a5:	ff 
    14a6:	66 0f 7e c3          	movd   %xmm0,%ebx
    14aa:	66 0f 28 c6          	movapd %xmm6,%xmm0
    14ae:	f2 0f 5e 05 7a 0c 00 	divsd  0xc7a(%rip),%xmm0        # 2130 <_IO_stdin_used+0x130>
    14b5:	00 
    14b6:	e8 85 fc ff ff       	call   1140 <sqrt@plt>
    14bb:	f3 44 0f 10 8d b0 fd 	movss  -0x250(%rbp),%xmm9
    14c2:	ff ff 
    14c4:	f3 44 0f 10 85 ac fd 	movss  -0x254(%rbp),%xmm8
    14cb:	ff ff 
    14cd:	66 0f ef c9          	pxor   %xmm1,%xmm1
    14d1:	f2 0f 10 b5 a0 fd ff 	movsd  -0x260(%rbp),%xmm6
    14d8:	ff 
    14d9:	f3 0f 10 9d a8 fd ff 	movss  -0x258(%rbp),%xmm3
    14e0:	ff 
    14e1:	f2 0f 5a c8          	cvtsd2ss %xmm0,%xmm1
    14e5:	41 0f 28 c1          	movaps %xmm9,%xmm0
    14e9:	0f 28 f9             	movaps %xmm1,%xmm7
    14ec:	f3 41 0f 5c c0       	subss  %xmm8,%xmm0
    14f1:	f3 0f 5e f8          	divss  %xmm0,%xmm7
    14f5:	66 41 0f 7e fc       	movd   %xmm7,%r12d
    14fa:	66 0f ef ff          	pxor   %xmm7,%xmm7
    14fe:	66 0f 2e f7          	ucomisd %xmm7,%xmm6
    1502:	f2 0f 10 bd b8 fd ff 	movsd  -0x248(%rbp),%xmm7
    1509:	ff 
    150a:	0f 8a c5 00 00 00    	jp     15d5 <main+0x475>
    1510:	f3 0f 10 25 f4 0b 00 	movss  0xbf4(%rip),%xmm4        # 210c <_IO_stdin_used+0x10c>
    1517:	00 
    1518:	0f 85 b7 00 00 00    	jne    15d5 <main+0x475>
    151e:	48 8d 3d d2 0b 00 00 	lea    0xbd2(%rip),%rdi        # 20f7 <_IO_stdin_used+0xf7>
    1525:	f3 0f 11 9d ac fd ff 	movss  %xmm3,-0x254(%rbp)
    152c:	ff 
    152d:	f3 0f 11 a5 b8 fd ff 	movss  %xmm4,-0x248(%rbp)
    1534:	ff 
    1535:	f3 0f 11 8d b0 fd ff 	movss  %xmm1,-0x250(%rbp)
    153c:	ff 
    153d:	e8 8e fb ff ff       	call   10d0 <puts@plt>
    1542:	66 41 0f 6e f4       	movd   %r12d,%xmm6
    1547:	66 0f ef d2          	pxor   %xmm2,%xmm2
    154b:	f3 0f 10 a5 b8 fd ff 	movss  -0x248(%rbp),%xmm4
    1552:	ff 
    1553:	f3 0f 10 9d ac fd ff 	movss  -0x254(%rbp),%xmm3
    155a:	ff 
    155b:	f3 0f 10 8d b0 fd ff 	movss  -0x250(%rbp),%xmm1
    1562:	ff 
    1563:	f3 0f 5a d6          	cvtss2sd %xmm6,%xmm2
    1567:	66 0f ef c0          	pxor   %xmm0,%xmm0
    156b:	66 0f 6e f3          	movd   %ebx,%xmm6
    156f:	48 8d 35 d2 0a 00 00 	lea    0xad2(%rip),%rsi        # 2048 <_IO_stdin_used+0x48>
    1576:	bf 01 00 00 00       	mov    $0x1,%edi
    157b:	b8 05 00 00 00       	mov    $0x5,%eax
    1580:	f3 0f 5a c6          	cvtss2sd %xmm6,%xmm0
    1584:	f3 0f 5a e4          	cvtss2sd %xmm4,%xmm4
    1588:	f3 0f 5a db          	cvtss2sd %xmm3,%xmm3
    158c:	f3 0f 5a c9          	cvtss2sd %xmm1,%xmm1
    1590:	f2 0f 11 95 b8 fd ff 	movsd  %xmm2,-0x248(%rbp)
    1597:	ff 
    1598:	e8 83 fb ff ff       	call   1120 <__printf_chk@plt>
    159d:	f2 0f 10 05 93 0b 00 	movsd  0xb93(%rip),%xmm0        # 2138 <_IO_stdin_used+0x138>
    15a4:	00 
    15a5:	f2 0f 10 95 b8 fd ff 	movsd  -0x248(%rbp),%xmm2
    15ac:	ff 
    15ad:	66 0f 2f c2          	comisd %xmm2,%xmm0
    15b1:	19 c0                	sbb    %eax,%eax
    15b3:	48 8b 55 c8          	mov    -0x38(%rbp),%rdx
    15b7:	64 48 2b 14 25 28 00 	sub    %fs:0x28,%rdx
    15be:	00 00 
    15c0:	75 59                	jne    161b <main+0x4bb>
    15c2:	48 8d 65 d8          	lea    -0x28(%rbp),%rsp
    15c6:	5b                   	pop    %rbx
    15c7:	41 5c                	pop    %r12
    15c9:	41 5d                	pop    %r13
    15cb:	41 5e                	pop    %r14
    15cd:	41 5f                	pop    %r15
    15cf:	5d                   	pop    %rbp
    15d0:	c3                   	ret    
    15d1:	31 c0                	xor    %eax,%eax
    15d3:	eb de                	jmp    15b3 <main+0x453>
    15d5:	f2 0f 5e fe          	divsd  %xmm6,%xmm7
    15d9:	66 0f ef c0          	pxor   %xmm0,%xmm0
    15dd:	f3 0f 11 9d b0 fd ff 	movss  %xmm3,-0x250(%rbp)
    15e4:	ff 
    15e5:	f3 0f 11 8d b8 fd ff 	movss  %xmm1,-0x248(%rbp)
    15ec:	ff 
    15ed:	f2 0f 5a c7          	cvtsd2ss %xmm7,%xmm0
    15f1:	e8 1a fb ff ff       	call   1110 <log10f@plt>
    15f6:	f3 0f 59 05 16 0b 00 	mulss  0xb16(%rip),%xmm0        # 2114 <_IO_stdin_used+0x114>
    15fd:	00 
    15fe:	f3 0f 10 9d b0 fd ff 	movss  -0x250(%rbp),%xmm3
    1605:	ff 
    1606:	f3 0f 10 8d b8 fd ff 	movss  -0x248(%rbp),%xmm1
    160d:	ff 
    160e:	0f 28 e0             	movaps %xmm0,%xmm4
    1611:	e9 08 ff ff ff       	jmp    151e <main+0x3be>
    1616:	83 c8 ff             	or     $0xffffffff,%eax
    1619:	eb 98                	jmp    15b3 <main+0x453>
    161b:	e8 e0 fa ff ff       	call   1100 <__stack_chk_fail@plt>

0000000000001620 <_start>:
    1620:	f3 0f 1e fa          	endbr64 
    1624:	31 ed                	xor    %ebp,%ebp
    1626:	49 89 d1             	mov    %rdx,%r9
    1629:	5e                   	pop    %rsi
    162a:	48 89 e2             	mov    %rsp,%rdx
    162d:	48 83 e4 f0          	and    $0xfffffffffffffff0,%rsp
    1631:	50                   	push   %rax
    1632:	54                   	push   %rsp
    1633:	45 31 c0             	xor    %r8d,%r8d
    1636:	31 c9                	xor    %ecx,%ecx
    1638:	48 8d 3d 21 fb ff ff 	lea    -0x4df(%rip),%rdi        # 1160 <main>
    163f:	ff 15 93 29 00 00    	call   *0x2993(%rip)        # 3fd8 <__libc_start_main@GLIBC_2.34>
    1645:	f4                   	hlt    
    1646:	66 2e 0f 1f 84 00 00 	cs nopw 0x0(%rax,%rax,1)
    164d:	00 00 00 

0000000000001650 <deregister_tm_clones>:
    1650:	48 8d 3d b9 29 00 00 	lea    0x29b9(%rip),%rdi        # 4010 <__TMC_END__>
    1657:	48 8d 05 b2 29 00 00 	lea    0x29b2(%rip),%rax        # 4010 <__TMC_END__>
    165e:	48 39 f8             	cmp    %rdi,%rax
    1661:	74 15                	je     1678 <deregister_tm_clones+0x28>
    1663:	48 8b 05 76 29 00 00 	mov    0x2976(%rip),%rax        # 3fe0 <_ITM_deregisterTMCloneTable@Base>
    166a:	48 85 c0             	test   %rax,%rax
    166d:	74 09                	je     1678 <deregister_tm_clones+0x28>
    166f:	ff e0                	jmp    *%rax
    1671:	0f 1f 80 00 00 00 00 	nopl   0x0(%rax)
    1678:	c3                   	ret    
    1679:	0f 1f 80 00 00 00 00 	nopl   0x0(%rax)

0000000000001680 <register_tm_clones>:
    1680:	48 8d 3d 89 29 00 00 	lea    0x2989(%rip),%rdi        # 4010 <__TMC_END__>
    1687:	48 8d 35 82 29 00 00 	lea    0x2982(%rip),%rsi        # 4010 <__TMC_END__>
    168e:	48 29 fe             	sub    %rdi,%rsi
    1691:	48 89 f0             	mov    %rsi,%rax
    1694:	48 c1 ee 3f          	shr    $0x3f,%rsi
    1698:	48 c1 f8 03          	sar    $0x3,%rax
    169c:	48 01 c6             	add    %rax,%rsi
    169f:	48 d1 fe             	sar    %rsi
    16a2:	74 14                	je     16b8 <register_tm_clones+0x38>
    16a4:	48 8b 05 45 29 00 00 	mov    0x2945(%rip),%rax        # 3ff0 <_ITM_registerTMCloneTable@Base>
    16ab:	48 85 c0             	test   %rax,%rax
    16ae:	74 08                	je     16b8 <register_tm_clones+0x38>
    16b0:	ff e0                	jmp    *%rax
    16b2:	66 0f 1f 44 00 00    	nopw   0x0(%rax,%rax,1)
    16b8:	c3                   	ret    
    16b9:	0f 1f 80 00 00 00 00 	nopl   0x0(%rax)

00000000000016c0 <__do_global_dtors_aux>:
    16c0:	f3 0f 1e fa          	endbr64 
    16c4:	80 3d 45 29 00 00 00 	cmpb   $0x0,0x2945(%rip)        # 4010 <__TMC_END__>
    16cb:	75 2b                	jne    16f8 <__do_global_dtors_aux+0x38>
    16cd:	55                   	push   %rbp
    16ce:	48 83 3d 22 29 00 00 	cmpq   $0x0,0x2922(%rip)        # 3ff8 <__cxa_finalize@GLIBC_2.2.5>
    16d5:	00 
    16d6:	48 89 e5             	mov    %rsp,%rbp
    16d9:	74 0c                	je     16e7 <__do_global_dtors_aux+0x27>
    16db:	48 8b 3d 26 29 00 00 	mov    0x2926(%rip),%rdi        # 4008 <__dso_handle>
    16e2:	e8 d9 f9 ff ff       	call   10c0 <__cxa_finalize@plt>
    16e7:	e8 64 ff ff ff       	call   1650 <deregister_tm_clones>
    16ec:	c6 05 1d 29 00 00 01 	movb   $0x1,0x291d(%rip)        # 4010 <__TMC_END__>
    16f3:	5d                   	pop    %rbp
    16f4:	c3                   	ret    
    16f5:	0f 1f 00             	nopl   (%rax)
    16f8:	c3                   	ret    
    16f9:	0f 1f 80 00 00 00 00 	nopl   0x0(%rax)

0000000000001700 <frame_dummy>:
    1700:	f3 0f 1e fa          	endbr64 
    1704:	e9 77 ff ff ff       	jmp    1680 <register_tm_clones>
    1709:	0f 1f 80 00 00 00 00 	nopl   0x0(%rax)

0000000000001710 <test_Fread.constprop.0.isra.0>:
    1710:	48 89 f1             	mov    %rsi,%rcx
    1713:	ba 88 13 00 00       	mov    $0x1388,%edx
    1718:	be 04 00 00 00       	mov    $0x4,%esi
    171d:	e9 be f9 ff ff       	jmp    10e0 <fread@plt>
    1722:	66 2e 0f 1f 84 00 00 	cs nopw 0x0(%rax,%rax,1)
    1729:	00 00 00 
    172c:	0f 1f 40 00          	nopl   0x0(%rax)

0000000000001730 <riscv_dsp_cmat_mul_f32>:
    1730:	f3 0f 1e fa          	endbr64 
    1734:	41 57                	push   %r15
    1736:	49 89 d2             	mov    %rdx,%r10
    1739:	49 89 f7             	mov    %rsi,%r15
    173c:	89 ca                	mov    %ecx,%edx
    173e:	41 56                	push   %r14
    1740:	41 55                	push   %r13
    1742:	41 54                	push   %r12
    1744:	55                   	push   %rbp
    1745:	53                   	push   %rbx
    1746:	44 89 c3             	mov    %r8d,%ebx
    1749:	8d 34 1b             	lea    (%rbx,%rbx,1),%esi
    174c:	48 c1 e3 03          	shl    $0x3,%rbx
    1750:	0f af d6             	imul   %esi,%edx
    1753:	4c 8d 34 b5 00 00 00 	lea    0x0(,%rsi,4),%r14
    175a:	00 
    175b:	4c 8d 2c 97          	lea    (%rdi,%rdx,4),%r13
    175f:	44 89 ca             	mov    %r9d,%edx
    1762:	48 8d 04 d5 00 00 00 	lea    0x0(,%rdx,8),%rax
    1769:	00 
    176a:	41 83 f9 01          	cmp    $0x1,%r9d
    176e:	0f 85 fb 01 00 00    	jne    196f <riscv_dsp_cmat_mul_f32+0x23f>
    1774:	49 89 d0             	mov    %rdx,%r8
    1777:	48 c1 e2 04          	shl    $0x4,%rdx
    177b:	48 01 fb             	add    %rdi,%rbx
    177e:	49 c1 e0 05          	shl    $0x5,%r8
    1782:	49 8d 2c 17          	lea    (%r15,%rdx,1),%rbp
    1786:	66 2e 0f 1f 84 00 00 	cs nopw 0x0(%rax,%rax,1)
    178d:	00 00 00 
    1790:	48 8d 53 f8          	lea    -0x8(%rbx),%rdx
    1794:	48 89 fe             	mov    %rdi,%rsi
    1797:	48 29 fa             	sub    %rdi,%rdx
    179a:	49 89 d3             	mov    %rdx,%r11
    179d:	49 c1 eb 03          	shr    $0x3,%r11
    17a1:	49 83 c3 01          	add    $0x1,%r11
    17a5:	48 83 fa 10          	cmp    $0x10,%rdx
    17a9:	0f 86 b2 01 00 00    	jbe    1961 <riscv_dsp_cmat_mul_f32+0x231>
    17af:	4d 89 d9             	mov    %r11,%r9
    17b2:	0f 57 c9             	xorps  %xmm1,%xmm1
    17b5:	4c 89 f9             	mov    %r15,%rcx
    17b8:	48 89 ea             	mov    %rbp,%rdx
    17bb:	49 c1 e9 02          	shr    $0x2,%r9
    17bf:	0f 28 f9             	movaps %xmm1,%xmm7
    17c2:	49 c1 e1 05          	shl    $0x5,%r9
    17c6:	49 01 f9             	add    %rdi,%r9
    17c9:	0f 1f 80 00 00 00 00 	nopl   0x0(%rax)
    17d0:	f3 0f 10 24 02       	movss  (%rdx,%rax,1),%xmm4
    17d5:	f3 0f 10 02          	movss  (%rdx),%xmm0
    17d9:	48 83 c6 20          	add    $0x20,%rsi
    17dd:	f3 0f 10 2c 01       	movss  (%rcx,%rax,1),%xmm5
    17e2:	0f 10 56 e0          	movups -0x20(%rsi),%xmm2
    17e6:	0f 14 c4             	unpcklps %xmm4,%xmm0
    17e9:	f3 0f 10 21          	movss  (%rcx),%xmm4
    17ed:	0f 10 76 f0          	movups -0x10(%rsi),%xmm6
    17f1:	0f 28 da             	movaps %xmm2,%xmm3
    17f4:	0f 14 e5             	unpcklps %xmm5,%xmm4
    17f7:	f3 0f 10 6c 02 04    	movss  0x4(%rdx,%rax,1),%xmm5
    17fd:	0f c6 de 88          	shufps $0x88,%xmm6,%xmm3
    1801:	0f c6 d6 dd          	shufps $0xdd,%xmm6,%xmm2
    1805:	0f 16 e0             	movlhps %xmm0,%xmm4
    1808:	f3 0f 10 42 04       	movss  0x4(%rdx),%xmm0
    180d:	f3 0f 10 74 01 04    	movss  0x4(%rcx,%rax,1),%xmm6
    1813:	4c 01 c2             	add    %r8,%rdx
    1816:	0f 14 c5             	unpcklps %xmm5,%xmm0
    1819:	f3 0f 10 69 04       	movss  0x4(%rcx),%xmm5
    181e:	4c 01 c1             	add    %r8,%rcx
    1821:	0f 14 ee             	unpcklps %xmm6,%xmm5
    1824:	0f 28 f2             	movaps %xmm2,%xmm6
    1827:	0f 59 d4             	mulps  %xmm4,%xmm2
    182a:	0f 16 e8             	movlhps %xmm0,%xmm5
    182d:	0f 28 c3             	movaps %xmm3,%xmm0
    1830:	0f 59 c4             	mulps  %xmm4,%xmm0
    1833:	0f 59 f5             	mulps  %xmm5,%xmm6
    1836:	0f 59 dd             	mulps  %xmm5,%xmm3
    1839:	0f 5c c6             	subps  %xmm6,%xmm0
    183c:	0f 58 da             	addps  %xmm2,%xmm3
    183f:	0f 28 c8             	movaps %xmm0,%xmm1
    1842:	0f 28 d0             	movaps %xmm0,%xmm2
    1845:	0f 14 cb             	unpcklps %xmm3,%xmm1
    1848:	0f 28 e3             	movaps %xmm3,%xmm4
    184b:	0f c6 d0 55          	shufps $0x55,%xmm0,%xmm2
    184f:	0f 15 c3             	unpckhps %xmm3,%xmm0
    1852:	0f 58 cf             	addps  %xmm7,%xmm1
    1855:	0f c6 e3 55          	shufps $0x55,%xmm3,%xmm4
    1859:	0f 14 d4             	unpcklps %xmm4,%xmm2
    185c:	0f 58 ca             	addps  %xmm2,%xmm1
    185f:	0f 28 d0             	movaps %xmm0,%xmm2
    1862:	0f c6 d0 d4          	shufps $0xd4,%xmm0,%xmm2
    1866:	0f c6 c0 de          	shufps $0xde,%xmm0,%xmm0
    186a:	66 0f 6f f8          	movdqa %xmm0,%xmm7
    186e:	0f 58 ca             	addps  %xmm2,%xmm1
    1871:	0f 58 f9             	addps  %xmm1,%xmm7
    1874:	4c 39 ce             	cmp    %r9,%rsi
    1877:	0f 85 53 ff ff ff    	jne    17d0 <riscv_dsp_cmat_mul_f32+0xa0>
    187d:	4c 89 de             	mov    %r11,%rsi
    1880:	48 89 c2             	mov    %rax,%rdx
    1883:	0f 28 cf             	movaps %xmm7,%xmm1
    1886:	48 83 e6 fc          	and    $0xfffffffffffffffc,%rsi
    188a:	48 0f af d6          	imul   %rsi,%rdx
    188e:	48 8d 0c f7          	lea    (%rdi,%rsi,8),%rcx
    1892:	4c 01 fa             	add    %r15,%rdx
    1895:	49 39 f3             	cmp    %rsi,%r11
    1898:	0f 84 a1 00 00 00    	je     193f <riscv_dsp_cmat_mul_f32+0x20f>
    189e:	f3 0f 7e 11          	movq   (%rcx),%xmm2
    18a2:	f3 0f 7e 1a          	movq   (%rdx),%xmm3
    18a6:	48 8d 71 08          	lea    0x8(%rcx),%rsi
    18aa:	48 01 c2             	add    %rax,%rdx
    18ad:	0f 28 c2             	movaps %xmm2,%xmm0
    18b0:	0f c6 d2 e5          	shufps $0xe5,%xmm2,%xmm2
    18b4:	0f c6 c0 e0          	shufps $0xe0,%xmm0,%xmm0
    18b8:	0f 59 c3             	mulps  %xmm3,%xmm0
    18bb:	0f c6 db e1          	shufps $0xe1,%xmm3,%xmm3
    18bf:	0f 59 d3             	mulps  %xmm3,%xmm2
    18c2:	0f 28 d8             	movaps %xmm0,%xmm3
    18c5:	0f 5c da             	subps  %xmm2,%xmm3
    18c8:	0f 58 c2             	addps  %xmm2,%xmm0
    18cb:	f3 0f 10 c3          	movss  %xmm3,%xmm0
    18cf:	0f 58 c8             	addps  %xmm0,%xmm1
    18d2:	48 39 f3             	cmp    %rsi,%rbx
    18d5:	74 68                	je     193f <riscv_dsp_cmat_mul_f32+0x20f>
    18d7:	f3 0f 7e 51 08       	movq   0x8(%rcx),%xmm2
    18dc:	f3 0f 7e 1a          	movq   (%rdx),%xmm3
    18e0:	48 8d 71 10          	lea    0x10(%rcx),%rsi
    18e4:	48 01 c2             	add    %rax,%rdx
    18e7:	0f 28 c2             	movaps %xmm2,%xmm0
    18ea:	0f c6 d2 e5          	shufps $0xe5,%xmm2,%xmm2
    18ee:	0f c6 c0 e0          	shufps $0xe0,%xmm0,%xmm0
    18f2:	0f 59 c3             	mulps  %xmm3,%xmm0
    18f5:	0f c6 db e1          	shufps $0xe1,%xmm3,%xmm3
    18f9:	0f 59 d3             	mulps  %xmm3,%xmm2
    18fc:	0f 28 d8             	movaps %xmm0,%xmm3
    18ff:	0f 5c da             	subps  %xmm2,%xmm3
    1902:	0f 58 c2             	addps  %xmm2,%xmm0
    1905:	f3 0f 10 c3          	movss  %xmm3,%xmm0
    1909:	0f 58 c8             	addps  %xmm0,%xmm1
    190c:	48 39 f3             	cmp    %rsi,%rbx
    190f:	74 2e                	je     193f <riscv_dsp_cmat_mul_f32+0x20f>
    1911:	f3 0f 7e 51 10       	movq   0x10(%rcx),%xmm2
    1916:	f3 0f 7e 1a          	movq   (%rdx),%xmm3
    191a:	0f 28 c2             	movaps %xmm2,%xmm0
    191d:	0f c6 d2 e5          	shufps $0xe5,%xmm2,%xmm2
    1921:	0f c6 c0 e0          	shufps $0xe0,%xmm0,%xmm0
    1925:	0f 59 c3             	mulps  %xmm3,%xmm0
    1928:	0f c6 db e1          	shufps $0xe1,%xmm3,%xmm3
    192c:	0f 59 d3             	mulps  %xmm3,%xmm2
    192f:	0f 28 d8             	movaps %xmm0,%xmm3
    1932:	0f 5c da             	subps  %xmm2,%xmm3
    1935:	0f 58 c2             	addps  %xmm2,%xmm0
    1938:	f3 0f 10 c3          	movss  %xmm3,%xmm0
    193c:	0f 58 c8             	addps  %xmm0,%xmm1
    193f:	4c 01 f7             	add    %r14,%rdi
    1942:	41 0f 13 0a          	movlps %xmm1,(%r10)
    1946:	4c 01 f3             	add    %r14,%rbx
    1949:	49 83 c2 08          	add    $0x8,%r10
    194d:	49 39 fd             	cmp    %rdi,%r13
    1950:	0f 85 3a fe ff ff    	jne    1790 <riscv_dsp_cmat_mul_f32+0x60>
    1956:	5b                   	pop    %rbx
    1957:	5d                   	pop    %rbp
    1958:	41 5c                	pop    %r12
    195a:	41 5d                	pop    %r13
    195c:	41 5e                	pop    %r14
    195e:	41 5f                	pop    %r15
    1960:	c3                   	ret    
    1961:	48 89 f9             	mov    %rdi,%rcx
    1964:	4c 89 fa             	mov    %r15,%rdx
    1967:	0f 57 c9             	xorps  %xmm1,%xmm1
    196a:	e9 2f ff ff ff       	jmp    189e <riscv_dsp_cmat_mul_f32+0x16e>
    196f:	44 89 c9             	mov    %r9d,%ecx
    1972:	49 89 d0             	mov    %rdx,%r8
    1975:	4c 8d 24 1f          	lea    (%rdi,%rbx,1),%r12
    1979:	48 c1 e2 04          	shl    $0x4,%rdx
    197d:	83 e9 01             	sub    $0x1,%ecx
    1980:	48 89 54 24 c8       	mov    %rdx,-0x38(%rsp)
    1985:	49 c1 e0 05          	shl    $0x5,%r8
    1989:	48 83 c1 01          	add    $0x1,%rcx
    198d:	4c 89 6c 24 f0       	mov    %r13,-0x10(%rsp)
    1992:	48 8d 34 cd 00 00 00 	lea    0x0(,%rcx,8),%rsi
    1999:	00 
    199a:	48 f7 d9             	neg    %rcx
    199d:	4c 89 74 24 e8       	mov    %r14,-0x18(%rsp)
    19a2:	48 8d 1c cd 00 00 00 	lea    0x0(,%rcx,8),%rbx
    19a9:	00 
    19aa:	48 89 74 24 d8       	mov    %rsi,-0x28(%rsp)
    19af:	49 01 f2             	add    %rsi,%r10
    19b2:	48 89 5c 24 e0       	mov    %rbx,-0x20(%rsp)
    19b7:	4d 89 d6             	mov    %r10,%r14
    19ba:	49 8d 6c 24 f8       	lea    -0x8(%r12),%rbp
    19bf:	48 8b 5c 24 e0       	mov    -0x20(%rsp),%rbx
    19c4:	4d 89 f9             	mov    %r15,%r9
    19c7:	48 29 fd             	sub    %rdi,%rbp
    19ca:	48 89 ea             	mov    %rbp,%rdx
    19cd:	4e 8d 1c 33          	lea    (%rbx,%r14,1),%r11
    19d1:	48 c1 ea 03          	shr    $0x3,%rdx
    19d5:	48 8d 5a 01          	lea    0x1(%rdx),%rbx
    19d9:	49 89 da             	mov    %rbx,%r10
    19dc:	48 89 5c 24 b8       	mov    %rbx,-0x48(%rsp)
    19e1:	48 83 e3 fc          	and    $0xfffffffffffffffc,%rbx
    19e5:	49 89 dd             	mov    %rbx,%r13
    19e8:	48 89 c3             	mov    %rax,%rbx
    19eb:	49 c1 ea 02          	shr    $0x2,%r10
    19ef:	49 0f af dd          	imul   %r13,%rbx
    19f3:	49 c1 e2 05          	shl    $0x5,%r10
    19f7:	49 01 fa             	add    %rdi,%r10
    19fa:	48 89 5c 24 c0       	mov    %rbx,-0x40(%rsp)
    19ff:	4a 8d 1c ef          	lea    (%rdi,%r13,8),%rbx
    1a03:	48 89 5c 24 d0       	mov    %rbx,-0x30(%rsp)
    1a08:	bb 02 00 00 00       	mov    $0x2,%ebx
    1a0d:	0f 1f 00             	nopl   (%rax)
    1a10:	48 83 fd 10          	cmp    $0x10,%rbp
    1a14:	0f 86 c0 01 00 00    	jbe    1bda <riscv_dsp_cmat_mul_f32+0x4aa>
    1a1a:	48 8b 74 24 c8       	mov    -0x38(%rsp),%rsi
    1a1f:	0f 57 c9             	xorps  %xmm1,%xmm1
    1a22:	4c 89 c9             	mov    %r9,%rcx
    1a25:	0f 28 f9             	movaps %xmm1,%xmm7
    1a28:	49 8d 14 31          	lea    (%r9,%rsi,1),%rdx
    1a2c:	48 89 fe             	mov    %rdi,%rsi
    1a2f:	90                   	nop
    1a30:	f3 0f 10 24 02       	movss  (%rdx,%rax,1),%xmm4
    1a35:	f3 0f 10 02          	movss  (%rdx),%xmm0
    1a39:	48 83 c6 20          	add    $0x20,%rsi
    1a3d:	f3 0f 10 2c 01       	movss  (%rcx,%rax,1),%xmm5
    1a42:	0f 10 56 e0          	movups -0x20(%rsi),%xmm2
    1a46:	0f 14 c4             	unpcklps %xmm4,%xmm0
    1a49:	f3 0f 10 21          	movss  (%rcx),%xmm4
    1a4d:	0f 10 76 f0          	movups -0x10(%rsi),%xmm6
    1a51:	0f 28 da             	movaps %xmm2,%xmm3
    1a54:	0f 14 e5             	unpcklps %xmm5,%xmm4
    1a57:	f3 0f 10 6c 02 04    	movss  0x4(%rdx,%rax,1),%xmm5
    1a5d:	0f c6 de 88          	shufps $0x88,%xmm6,%xmm3
    1a61:	0f c6 d6 dd          	shufps $0xdd,%xmm6,%xmm2
    1a65:	0f 16 e0             	movlhps %xmm0,%xmm4
    1a68:	f3 0f 10 42 04       	movss  0x4(%rdx),%xmm0
    1a6d:	f3 0f 10 74 01 04    	movss  0x4(%rcx,%rax,1),%xmm6
    1a73:	4c 01 c2             	add    %r8,%rdx
    1a76:	0f 14 c5             	unpcklps %xmm5,%xmm0
    1a79:	f3 0f 10 69 04       	movss  0x4(%rcx),%xmm5
    1a7e:	4c 01 c1             	add    %r8,%rcx
    1a81:	0f 14 ee             	unpcklps %xmm6,%xmm5
    1a84:	0f 28 f2             	movaps %xmm2,%xmm6
    1a87:	0f 59 d4             	mulps  %xmm4,%xmm2
    1a8a:	0f 16 e8             	movlhps %xmm0,%xmm5
    1a8d:	0f 28 c3             	movaps %xmm3,%xmm0
    1a90:	0f 59 c4             	mulps  %xmm4,%xmm0
    1a93:	0f 59 f5             	mulps  %xmm5,%xmm6
    1a96:	0f 59 dd             	mulps  %xmm5,%xmm3
    1a99:	0f 5c c6             	subps  %xmm6,%xmm0
    1a9c:	0f 58 da             	addps  %xmm2,%xmm3
    1a9f:	0f 28 c8             	movaps %xmm0,%xmm1
    1aa2:	0f 28 d0             	movaps %xmm0,%xmm2
    1aa5:	0f 14 cb             	unpcklps %xmm3,%xmm1
    1aa8:	0f 28 e3             	movaps %xmm3,%xmm4
    1aab:	0f c6 d0 55          	shufps $0x55,%xmm0,%xmm2
    1aaf:	0f 15 c3             	unpckhps %xmm3,%xmm0
    1ab2:	0f 58 cf             	addps  %xmm7,%xmm1
    1ab5:	0f c6 e3 55          	shufps $0x55,%xmm3,%xmm4
    1ab9:	0f 14 d4             	unpcklps %xmm4,%xmm2
    1abc:	0f 58 ca             	addps  %xmm2,%xmm1
    1abf:	0f 28 d0             	movaps %xmm0,%xmm2
    1ac2:	0f c6 d0 d4          	shufps $0xd4,%xmm0,%xmm2
    1ac6:	0f c6 c0 de          	shufps $0xde,%xmm0,%xmm0
    1aca:	66 0f 6f f8          	movdqa %xmm0,%xmm7
    1ace:	0f 58 ca             	addps  %xmm2,%xmm1
    1ad1:	0f 58 f9             	addps  %xmm1,%xmm7
    1ad4:	4c 39 d6             	cmp    %r10,%rsi
    1ad7:	0f 85 53 ff ff ff    	jne    1a30 <riscv_dsp_cmat_mul_f32+0x300>
    1add:	0f 28 cf             	movaps %xmm7,%xmm1
    1ae0:	4c 03 4c 24 c0       	add    -0x40(%rsp),%r9
    1ae5:	4c 39 6c 24 b8       	cmp    %r13,-0x48(%rsp)
    1aea:	0f 84 a9 00 00 00    	je     1b99 <riscv_dsp_cmat_mul_f32+0x469>
    1af0:	48 8b 54 24 d0       	mov    -0x30(%rsp),%rdx
    1af5:	f3 0f 7e 12          	movq   (%rdx),%xmm2
    1af9:	f3 41 0f 7e 19       	movq   (%r9),%xmm3
    1afe:	48 8d 4a 08          	lea    0x8(%rdx),%rcx
    1b02:	49 01 c1             	add    %rax,%r9
    1b05:	0f 28 c2             	movaps %xmm2,%xmm0
    1b08:	0f c6 d2 e5          	shufps $0xe5,%xmm2,%xmm2
    1b0c:	0f c6 c0 e0          	shufps $0xe0,%xmm0,%xmm0
    1b10:	0f 59 c3             	mulps  %xmm3,%xmm0
    1b13:	0f c6 db e1          	shufps $0xe1,%xmm3,%xmm3
    1b17:	0f 59 d3             	mulps  %xmm3,%xmm2
    1b1a:	0f 28 d8             	movaps %xmm0,%xmm3
    1b1d:	0f 5c da             	subps  %xmm2,%xmm3
    1b20:	0f 58 c2             	addps  %xmm2,%xmm0
    1b23:	f3 0f 10 c3          	movss  %xmm3,%xmm0
    1b27:	0f 58 c8             	addps  %xmm0,%xmm1
    1b2a:	49 39 cc             	cmp    %rcx,%r12
    1b2d:	74 6a                	je     1b99 <riscv_dsp_cmat_mul_f32+0x469>
    1b2f:	f3 0f 7e 52 08       	movq   0x8(%rdx),%xmm2
    1b34:	f3 41 0f 7e 19       	movq   (%r9),%xmm3
    1b39:	48 8d 4a 10          	lea    0x10(%rdx),%rcx
    1b3d:	49 01 c1             	add    %rax,%r9
    1b40:	0f 28 c2             	movaps %xmm2,%xmm0
    1b43:	0f c6 d2 e5          	shufps $0xe5,%xmm2,%xmm2
    1b47:	0f c6 c0 e0          	shufps $0xe0,%xmm0,%xmm0
    1b4b:	0f 59 c3             	mulps  %xmm3,%xmm0
    1b4e:	0f c6 db e1          	shufps $0xe1,%xmm3,%xmm3
    1b52:	0f 59 d3             	mulps  %xmm3,%xmm2
    1b55:	0f 28 d8             	movaps %xmm0,%xmm3
    1b58:	0f 5c da             	subps  %xmm2,%xmm3
    1b5b:	0f 58 c2             	addps  %xmm2,%xmm0
    1b5e:	f3 0f 10 c3          	movss  %xmm3,%xmm0
    1b62:	0f 58 c8             	addps  %xmm0,%xmm1
    1b65:	49 39 cc             	cmp    %rcx,%r12
    1b68:	74 2f                	je     1b99 <riscv_dsp_cmat_mul_f32+0x469>
    1b6a:	f3 0f 7e 42 10       	movq   0x10(%rdx),%xmm0
    1b6f:	f3 41 0f 7e 19       	movq   (%r9),%xmm3
    1b74:	0f 28 d0             	movaps %xmm0,%xmm2
    1b77:	0f c6 c0 e5          	shufps $0xe5,%xmm0,%xmm0
    1b7b:	0f c6 d2 e0          	shufps $0xe0,%xmm2,%xmm2
    1b7f:	0f 59 d3             	mulps  %xmm3,%xmm2
    1b82:	0f c6 db e1          	shufps $0xe1,%xmm3,%xmm3
    1b86:	0f 59 c3             	mulps  %xmm3,%xmm0
    1b89:	0f 28 da             	movaps %xmm2,%xmm3
    1b8c:	0f 5c d8             	subps  %xmm0,%xmm3
    1b8f:	0f 58 c2             	addps  %xmm2,%xmm0
    1b92:	f3 0f 10 c3          	movss  %xmm3,%xmm0
    1b96:	0f 58 c8             	addps  %xmm0,%xmm1
    1b99:	89 da                	mov    %ebx,%edx
    1b9b:	49 83 c3 08          	add    $0x8,%r11
    1b9f:	83 c3 02             	add    $0x2,%ebx
    1ba2:	41 0f 13 4b f8       	movlps %xmm1,-0x8(%r11)
    1ba7:	4d 8d 0c 97          	lea    (%r15,%rdx,4),%r9
    1bab:	4d 39 f3             	cmp    %r14,%r11
    1bae:	0f 85 5c fe ff ff    	jne    1a10 <riscv_dsp_cmat_mul_f32+0x2e0>
    1bb4:	48 8b 5c 24 e8       	mov    -0x18(%rsp),%rbx
    1bb9:	4c 03 74 24 d8       	add    -0x28(%rsp),%r14
    1bbe:	48 01 df             	add    %rbx,%rdi
    1bc1:	49 01 dc             	add    %rbx,%r12
    1bc4:	48 39 7c 24 f0       	cmp    %rdi,-0x10(%rsp)
    1bc9:	0f 85 eb fd ff ff    	jne    19ba <riscv_dsp_cmat_mul_f32+0x28a>
    1bcf:	5b                   	pop    %rbx
    1bd0:	5d                   	pop    %rbp
    1bd1:	41 5c                	pop    %r12
    1bd3:	41 5d                	pop    %r13
    1bd5:	41 5e                	pop    %r14
    1bd7:	41 5f                	pop    %r15
    1bd9:	c3                   	ret    
    1bda:	48 89 fa             	mov    %rdi,%rdx
    1bdd:	0f 57 c9             	xorps  %xmm1,%xmm1
    1be0:	e9 10 ff ff ff       	jmp    1af5 <riscv_dsp_cmat_mul_f32+0x3c5>

Disassembly of section .fini:

0000000000001be8 <_fini>:
    1be8:	f3 0f 1e fa          	endbr64 
    1bec:	48 83 ec 08          	sub    $0x8,%rsp
    1bf0:	48 83 c4 08          	add    $0x8,%rsp
    1bf4:	c3                   	ret    
