
t_convert_q7_f32:     file format elf64-x86-64


Disassembly of section .init:

0000000000001000 <_init>:
    1000:	f3 0f 1e fa          	endbr64 
    1004:	48 83 ec 08          	sub    $0x8,%rsp
    1008:	48 8b 05 d9 2f 00 00 	mov    0x2fd9(%rip),%rax        # 3fe8 <__gmon_start__@Base>
    100f:	48 85 c0             	test   %rax,%rax
    1012:	74 02                	je     1016 <_init+0x16>
    1014:	ff d0                	call   *%rax
    1016:	48 83 c4 08          	add    $0x8,%rsp
    101a:	c3                   	ret    

Disassembly of section .plt:

0000000000001020 <.plt>:
    1020:	ff 35 5a 2f 00 00    	push   0x2f5a(%rip)        # 3f80 <_GLOBAL_OFFSET_TABLE_+0x8>
    1026:	f2 ff 25 5b 2f 00 00 	bnd jmp *0x2f5b(%rip)        # 3f88 <_GLOBAL_OFFSET_TABLE_+0x10>
    102d:	0f 1f 00             	nopl   (%rax)
    1030:	f3 0f 1e fa          	endbr64 
    1034:	68 00 00 00 00       	push   $0x0
    1039:	f2 e9 e1 ff ff ff    	bnd jmp 1020 <_init+0x20>
    103f:	90                   	nop
    1040:	f3 0f 1e fa          	endbr64 
    1044:	68 01 00 00 00       	push   $0x1
    1049:	f2 e9 d1 ff ff ff    	bnd jmp 1020 <_init+0x20>
    104f:	90                   	nop
    1050:	f3 0f 1e fa          	endbr64 
    1054:	68 02 00 00 00       	push   $0x2
    1059:	f2 e9 c1 ff ff ff    	bnd jmp 1020 <_init+0x20>
    105f:	90                   	nop
    1060:	f3 0f 1e fa          	endbr64 
    1064:	68 03 00 00 00       	push   $0x3
    1069:	f2 e9 b1 ff ff ff    	bnd jmp 1020 <_init+0x20>
    106f:	90                   	nop
    1070:	f3 0f 1e fa          	endbr64 
    1074:	68 04 00 00 00       	push   $0x4
    1079:	f2 e9 a1 ff ff ff    	bnd jmp 1020 <_init+0x20>
    107f:	90                   	nop
    1080:	f3 0f 1e fa          	endbr64 
    1084:	68 05 00 00 00       	push   $0x5
    1089:	f2 e9 91 ff ff ff    	bnd jmp 1020 <_init+0x20>
    108f:	90                   	nop
    1090:	f3 0f 1e fa          	endbr64 
    1094:	68 06 00 00 00       	push   $0x6
    1099:	f2 e9 81 ff ff ff    	bnd jmp 1020 <_init+0x20>
    109f:	90                   	nop
    10a0:	f3 0f 1e fa          	endbr64 
    10a4:	68 07 00 00 00       	push   $0x7
    10a9:	f2 e9 71 ff ff ff    	bnd jmp 1020 <_init+0x20>
    10af:	90                   	nop
    10b0:	f3 0f 1e fa          	endbr64 
    10b4:	68 08 00 00 00       	push   $0x8
    10b9:	f2 e9 61 ff ff ff    	bnd jmp 1020 <_init+0x20>
    10bf:	90                   	nop

Disassembly of section .plt.got:

00000000000010c0 <__cxa_finalize@plt>:
    10c0:	f3 0f 1e fa          	endbr64 
    10c4:	f2 ff 25 2d 2f 00 00 	bnd jmp *0x2f2d(%rip)        # 3ff8 <__cxa_finalize@GLIBC_2.2.5>
    10cb:	0f 1f 44 00 00       	nopl   0x0(%rax,%rax,1)

Disassembly of section .plt.sec:

00000000000010d0 <puts@plt>:
    10d0:	f3 0f 1e fa          	endbr64 
    10d4:	f2 ff 25 b5 2e 00 00 	bnd jmp *0x2eb5(%rip)        # 3f90 <puts@GLIBC_2.2.5>
    10db:	0f 1f 44 00 00       	nopl   0x0(%rax,%rax,1)

00000000000010e0 <fread@plt>:
    10e0:	f3 0f 1e fa          	endbr64 
    10e4:	f2 ff 25 ad 2e 00 00 	bnd jmp *0x2ead(%rip)        # 3f98 <fread@GLIBC_2.2.5>
    10eb:	0f 1f 44 00 00       	nopl   0x0(%rax,%rax,1)

00000000000010f0 <fclose@plt>:
    10f0:	f3 0f 1e fa          	endbr64 
    10f4:	f2 ff 25 a5 2e 00 00 	bnd jmp *0x2ea5(%rip)        # 3fa0 <fclose@GLIBC_2.2.5>
    10fb:	0f 1f 44 00 00       	nopl   0x0(%rax,%rax,1)

0000000000001100 <__stack_chk_fail@plt>:
    1100:	f3 0f 1e fa          	endbr64 
    1104:	f2 ff 25 9d 2e 00 00 	bnd jmp *0x2e9d(%rip)        # 3fa8 <__stack_chk_fail@GLIBC_2.4>
    110b:	0f 1f 44 00 00       	nopl   0x0(%rax,%rax,1)

0000000000001110 <log10f@plt>:
    1110:	f3 0f 1e fa          	endbr64 
    1114:	f2 ff 25 95 2e 00 00 	bnd jmp *0x2e95(%rip)        # 3fb0 <log10f@GLIBC_2.2.5>
    111b:	0f 1f 44 00 00       	nopl   0x0(%rax,%rax,1)

0000000000001120 <__printf_chk@plt>:
    1120:	f3 0f 1e fa          	endbr64 
    1124:	f2 ff 25 8d 2e 00 00 	bnd jmp *0x2e8d(%rip)        # 3fb8 <__printf_chk@GLIBC_2.3.4>
    112b:	0f 1f 44 00 00       	nopl   0x0(%rax,%rax,1)

0000000000001130 <fopen@plt>:
    1130:	f3 0f 1e fa          	endbr64 
    1134:	f2 ff 25 85 2e 00 00 	bnd jmp *0x2e85(%rip)        # 3fc0 <fopen@GLIBC_2.2.5>
    113b:	0f 1f 44 00 00       	nopl   0x0(%rax,%rax,1)

0000000000001140 <sqrt@plt>:
    1140:	f3 0f 1e fa          	endbr64 
    1144:	f2 ff 25 7d 2e 00 00 	bnd jmp *0x2e7d(%rip)        # 3fc8 <sqrt@GLIBC_2.2.5>
    114b:	0f 1f 44 00 00       	nopl   0x0(%rax,%rax,1)

0000000000001150 <__sprintf_chk@plt>:
    1150:	f3 0f 1e fa          	endbr64 
    1154:	f2 ff 25 75 2e 00 00 	bnd jmp *0x2e75(%rip)        # 3fd0 <__sprintf_chk@GLIBC_2.3.4>
    115b:	0f 1f 44 00 00       	nopl   0x0(%rax,%rax,1)

Disassembly of section .text:

0000000000001160 <main>:
    1160:	f3 0f 1e fa          	endbr64 
    1164:	55                   	push   %rbp
    1165:	48 89 e5             	mov    %rsp,%rbp
    1168:	41 57                	push   %r15
    116a:	41 56                	push   %r14
    116c:	41 55                	push   %r13
    116e:	41 54                	push   %r12
    1170:	53                   	push   %rbx
    1171:	48 81 ec 38 03 00 00 	sub    $0x338,%rsp
    1178:	64 48 8b 04 25 28 00 	mov    %fs:0x28,%rax
    117f:	00 00 
    1181:	48 89 45 c8          	mov    %rax,-0x38(%rbp)
    1185:	48 89 e0             	mov    %rsp,%rax
    1188:	48 39 c4             	cmp    %rax,%rsp
    118b:	74 15                	je     11a2 <main+0x42>
    118d:	48 81 ec 00 10 00 00 	sub    $0x1000,%rsp
    1194:	48 83 8c 24 f8 0f 00 	orq    $0x0,0xff8(%rsp)
    119b:	00 00 
    119d:	48 39 c4             	cmp    %rax,%rsp
    11a0:	75 eb                	jne    118d <main+0x2d>
    11a2:	48 81 ec 00 04 00 00 	sub    $0x400,%rsp
    11a9:	48 83 8c 24 f8 03 00 	orq    $0x0,0x3f8(%rsp)
    11b0:	00 00 
    11b2:	48 89 e3             	mov    %rsp,%rbx
    11b5:	48 89 e0             	mov    %rsp,%rax
    11b8:	48 39 c4             	cmp    %rax,%rsp
    11bb:	74 12                	je     11cf <main+0x6f>
    11bd:	48 81 ec 00 10 00 00 	sub    $0x1000,%rsp
    11c4:	48 83 8c 24 f8 0f 00 	orq    $0x0,0xff8(%rsp)
    11cb:	00 00 
    11cd:	eb e9                	jmp    11b8 <main+0x58>
    11cf:	48 81 ec 00 04 00 00 	sub    $0x400,%rsp
    11d6:	48 83 8c 24 f8 03 00 	orq    $0x0,0x3f8(%rsp)
    11dd:	00 00 
    11df:	4c 8d 05 22 0e 00 00 	lea    0xe22(%rip),%r8        # 2008 <_IO_stdin_used+0x8>
    11e6:	ba 00 02 00 00       	mov    $0x200,%edx
    11eb:	31 c0                	xor    %eax,%eax
    11ed:	48 8d 0d ae 0e 00 00 	lea    0xeae(%rip),%rcx        # 20a2 <_IO_stdin_used+0xa2>
    11f4:	4c 8d 3d b7 0e 00 00 	lea    0xeb7(%rip),%r15        # 20b2 <_IO_stdin_used+0xb2>
    11fb:	be 01 00 00 00       	mov    $0x1,%esi
    1200:	4c 8d ad c0 fd ff ff 	lea    -0x240(%rbp),%r13
    1207:	49 89 e4             	mov    %rsp,%r12
    120a:	4c 89 ef             	mov    %r13,%rdi
    120d:	e8 3e ff ff ff       	call   1150 <__sprintf_chk@plt>
    1212:	4c 89 fe             	mov    %r15,%rsi
    1215:	4c 89 ef             	mov    %r13,%rdi
    1218:	e8 13 ff ff ff       	call   1130 <fopen@plt>
    121d:	4c 8d 05 e4 0d 00 00 	lea    0xde4(%rip),%r8        # 2008 <_IO_stdin_used+0x8>
    1224:	ba 00 02 00 00       	mov    $0x200,%edx
    1229:	4c 89 ef             	mov    %r13,%rdi
    122c:	48 8d 0d 81 0e 00 00 	lea    0xe81(%rip),%rcx        # 20b4 <_IO_stdin_used+0xb4>
    1233:	49 89 c6             	mov    %rax,%r14
    1236:	be 01 00 00 00       	mov    $0x1,%esi
    123b:	31 c0                	xor    %eax,%eax
    123d:	e8 0e ff ff ff       	call   1150 <__sprintf_chk@plt>
    1242:	4c 89 fe             	mov    %r15,%rsi
    1245:	4c 89 ef             	mov    %r13,%rdi
    1248:	4c 8d bd c0 fc ff ff 	lea    -0x340(%rbp),%r15
    124f:	e8 dc fe ff ff       	call   1130 <fopen@plt>
    1254:	4c 89 f2             	mov    %r14,%rdx
    1257:	be 01 00 00 00       	mov    $0x1,%esi
    125c:	4c 89 ff             	mov    %r15,%rdi
    125f:	49 89 c5             	mov    %rax,%r13
    1262:	e8 a9 03 00 00       	call   1610 <test_Fread.constprop.0.isra.0>
    1267:	4c 89 ea             	mov    %r13,%rdx
    126a:	be 04 00 00 00       	mov    $0x4,%esi
    126f:	48 89 df             	mov    %rbx,%rdi
    1272:	e8 99 03 00 00       	call   1610 <test_Fread.constprop.0.isra.0>
    1277:	ba 00 01 00 00       	mov    $0x100,%edx
    127c:	4c 89 e6             	mov    %r12,%rsi
    127f:	4c 89 ff             	mov    %r15,%rdi
    1282:	e8 99 03 00 00       	call   1620 <riscv_dsp_convert_q7_f32>
    1287:	66 0f ef ed          	pxor   %xmm5,%xmm5
    128b:	31 c0                	xor    %eax,%eax
    128d:	f3 0f 10 35 6b 0e 00 	movss  0xe6b(%rip),%xmm6        # 2100 <_IO_stdin_used+0x100>
    1294:	00 
    1295:	0f 28 c5             	movaps %xmm5,%xmm0
    1298:	0f 1f 84 00 00 00 00 	nopl   0x0(%rax,%rax,1)
    129f:	00 
    12a0:	f3 41 0f 10 0c 04    	movss  (%r12,%rax,1),%xmm1
    12a6:	f3 0f 5c 0c 03       	subss  (%rbx,%rax,1),%xmm1
    12ab:	48 83 c0 04          	add    $0x4,%rax
    12af:	0f 54 ce             	andps  %xmm6,%xmm1
    12b2:	f3 0f 5f c8          	maxss  %xmm0,%xmm1
    12b6:	0f 28 c1             	movaps %xmm1,%xmm0
    12b9:	48 3d 00 04 00 00    	cmp    $0x400,%rax
    12bf:	75 df                	jne    12a0 <main+0x140>
    12c1:	48 8d 35 02 0e 00 00 	lea    0xe02(%rip),%rsi        # 20ca <_IO_stdin_used+0xca>
    12c8:	bf 01 00 00 00       	mov    $0x1,%edi
    12cd:	66 0f ef c0          	pxor   %xmm0,%xmm0
    12d1:	b8 01 00 00 00       	mov    $0x1,%eax
    12d6:	f3 0f 5a c1          	cvtss2sd %xmm1,%xmm0
    12da:	e8 41 fe ff ff       	call   1120 <__printf_chk@plt>
    12df:	4c 89 f7             	mov    %r14,%rdi
    12e2:	e8 09 fe ff ff       	call   10f0 <fclose@plt>
    12e7:	4c 89 ef             	mov    %r13,%rdi
    12ea:	e8 01 fe ff ff       	call   10f0 <fclose@plt>
    12ef:	66 0f ef ed          	pxor   %xmm5,%xmm5
    12f3:	66 45 0f ef c9       	pxor   %xmm9,%xmm9
    12f8:	31 c0                	xor    %eax,%eax
    12fa:	66 41 0f 28 f9       	movapd %xmm9,%xmm7
    12ff:	0f 28 dd             	movaps %xmm5,%xmm3
    1302:	0f 28 c5             	movaps %xmm5,%xmm0
    1305:	44 0f 28 d5          	movaps %xmm5,%xmm10
    1309:	44 0f 28 c5          	movaps %xmm5,%xmm8
    130d:	f3 0f 10 35 eb 0d 00 	movss  0xdeb(%rip),%xmm6        # 2100 <_IO_stdin_used+0x100>
    1314:	00 
    1315:	0f 1f 00             	nopl   (%rax)
    1318:	f3 41 0f 10 0c 04    	movss  (%r12,%rax,1),%xmm1
    131e:	f3 0f 10 14 03       	movss  (%rbx,%rax,1),%xmm2
    1323:	66 0f 7e c9          	movd   %xmm1,%ecx
    1327:	81 f9 00 00 c0 7f    	cmp    $0x7fc00000,%ecx
    132d:	0f 84 ae 01 00 00    	je     14e1 <main+0x381>
    1333:	0f 28 e2             	movaps %xmm2,%xmm4
    1336:	f3 0f 5c ca          	subss  %xmm2,%xmm1
    133a:	48 83 c0 04          	add    $0x4,%rax
    133e:	f3 41 0f 5f e0       	maxss  %xmm8,%xmm4
    1343:	44 0f 28 c4          	movaps %xmm4,%xmm8
    1347:	0f 28 e2             	movaps %xmm2,%xmm4
    134a:	f3 41 0f 5d e2       	minss  %xmm10,%xmm4
    134f:	f3 0f 59 d2          	mulss  %xmm2,%xmm2
    1353:	44 0f 28 d4          	movaps %xmm4,%xmm10
    1357:	0f 28 e1             	movaps %xmm1,%xmm4
    135a:	f3 0f 59 c9          	mulss  %xmm1,%xmm1
    135e:	0f 54 e6             	andps  %xmm6,%xmm4
    1361:	f3 0f 58 c4          	addss  %xmm4,%xmm0
    1365:	f3 0f 5f e3          	maxss  %xmm3,%xmm4
    1369:	f3 0f 5a d2          	cvtss2sd %xmm2,%xmm2
    136d:	f2 44 0f 58 ca       	addsd  %xmm2,%xmm9
    1372:	0f 28 dc             	movaps %xmm4,%xmm3
    1375:	f3 0f 5a c9          	cvtss2sd %xmm1,%xmm1
    1379:	f2 0f 58 f9          	addsd  %xmm1,%xmm7
    137d:	48 3d 00 04 00 00    	cmp    $0x400,%rax
    1383:	75 93                	jne    1318 <main+0x1b8>
    1385:	66 48 0f 7e f8       	movq   %xmm7,%rax
    138a:	f3 0f 11 a5 ac fc ff 	movss  %xmm4,-0x354(%rbp)
    1391:	ff 
    1392:	f3 44 0f 11 95 b0 fc 	movss  %xmm10,-0x350(%rbp)
    1399:	ff ff 
    139b:	f3 44 0f 11 85 b4 fc 	movss  %xmm8,-0x34c(%rbp)
    13a2:	ff ff 
    13a4:	f2 44 0f 11 8d b8 fc 	movsd  %xmm9,-0x348(%rbp)
    13ab:	ff ff 
    13ad:	3d 00 00 c0 7f       	cmp    $0x7fc00000,%eax
    13b2:	0f 84 29 01 00 00    	je     14e1 <main+0x381>
    13b8:	f3 0f 59 05 38 0d 00 	mulss  0xd38(%rip),%xmm0        # 20f8 <_IO_stdin_used+0xf8>
    13bf:	00 
    13c0:	f2 0f 11 bd a0 fc ff 	movsd  %xmm7,-0x360(%rbp)
    13c7:	ff 
    13c8:	66 41 0f 7e c5       	movd   %xmm0,%r13d
    13cd:	66 0f 28 c7          	movapd %xmm7,%xmm0
    13d1:	f2 0f 59 05 37 0d 00 	mulsd  0xd37(%rip),%xmm0        # 2110 <_IO_stdin_used+0x110>
    13d8:	00 
    13d9:	e8 62 fd ff ff       	call   1140 <sqrt@plt>
    13de:	66 0f ef ed          	pxor   %xmm5,%xmm5
    13e2:	f3 44 0f 10 85 b4 fc 	movss  -0x34c(%rbp),%xmm8
    13e9:	ff ff 
    13eb:	f3 44 0f 10 95 b0 fc 	movss  -0x350(%rbp),%xmm10
    13f2:	ff ff 
    13f4:	f2 0f 5a e8          	cvtsd2ss %xmm0,%xmm5
    13f8:	66 0f 7e eb          	movd   %xmm5,%ebx
    13fc:	f2 0f 10 bd a0 fc ff 	movsd  -0x360(%rbp),%xmm7
    1403:	ff 
    1404:	f2 44 0f 10 8d b8 fc 	movsd  -0x348(%rbp),%xmm9
    140b:	ff ff 
    140d:	f3 45 0f 5c c2       	subss  %xmm10,%xmm8
    1412:	f3 0f 10 9d ac fc ff 	movss  -0x354(%rbp),%xmm3
    1419:	ff 
    141a:	f3 41 0f 5e e8       	divss  %xmm8,%xmm5
    141f:	66 41 0f 7e ec       	movd   %xmm5,%r12d
    1424:	66 0f ef ed          	pxor   %xmm5,%xmm5
    1428:	66 0f 2e fd          	ucomisd %xmm5,%xmm7
    142c:	0f 8a b4 00 00 00    	jp     14e6 <main+0x386>
    1432:	44 8b 35 bb 0c 00 00 	mov    0xcbb(%rip),%r14d        # 20f4 <_IO_stdin_used+0xf4>
    1439:	0f 85 a7 00 00 00    	jne    14e6 <main+0x386>
    143f:	48 8d 3d 97 0c 00 00 	lea    0xc97(%rip),%rdi        # 20dd <_IO_stdin_used+0xdd>
    1446:	f3 0f 11 9d b8 fc ff 	movss  %xmm3,-0x348(%rbp)
    144d:	ff 
    144e:	e8 7d fc ff ff       	call   10d0 <puts@plt>
    1453:	66 41 0f 6e ed       	movd   %r13d,%xmm5
    1458:	66 41 0f 6e fe       	movd   %r14d,%xmm7
    145d:	f3 0f 10 9d b8 fc ff 	movss  -0x348(%rbp),%xmm3
    1464:	ff 
    1465:	66 0f ef c0          	pxor   %xmm0,%xmm0
    1469:	66 0f ef e4          	pxor   %xmm4,%xmm4
    146d:	66 0f ef d2          	pxor   %xmm2,%xmm2
    1471:	bf 01 00 00 00       	mov    $0x1,%edi
    1476:	f3 0f 5a c5          	cvtss2sd %xmm5,%xmm0
    147a:	f3 0f 5a e7          	cvtss2sd %xmm7,%xmm4
    147e:	66 0f ef c9          	pxor   %xmm1,%xmm1
    1482:	66 41 0f 6e ec       	movd   %r12d,%xmm5
    1487:	66 0f 6e fb          	movd   %ebx,%xmm7
    148b:	48 8d 35 be 0b 00 00 	lea    0xbbe(%rip),%rsi        # 2050 <_IO_stdin_used+0x50>
    1492:	f3 0f 5a d5          	cvtss2sd %xmm5,%xmm2
    1496:	f3 0f 5a db          	cvtss2sd %xmm3,%xmm3
    149a:	b8 05 00 00 00       	mov    $0x5,%eax
    149f:	f3 0f 5a cf          	cvtss2sd %xmm7,%xmm1
    14a3:	e8 78 fc ff ff       	call   1120 <__printf_chk@plt>
    14a8:	66 41 0f 6e fc       	movd   %r12d,%xmm7
    14ad:	66 0f ef ed          	pxor   %xmm5,%xmm5
    14b1:	31 c0                	xor    %eax,%eax
    14b3:	0f 2e fd             	ucomiss %xmm5,%xmm7
    14b6:	ba 01 00 00 00       	mov    $0x1,%edx
    14bb:	0f 9a c0             	setp   %al
    14be:	0f 45 c2             	cmovne %edx,%eax
    14c1:	f7 d8                	neg    %eax
    14c3:	48 8b 55 c8          	mov    -0x38(%rbp),%rdx
    14c7:	64 48 2b 14 25 28 00 	sub    %fs:0x28,%rdx
    14ce:	00 00 
    14d0:	75 49                	jne    151b <main+0x3bb>
    14d2:	48 8d 65 d8          	lea    -0x28(%rbp),%rsp
    14d6:	5b                   	pop    %rbx
    14d7:	41 5c                	pop    %r12
    14d9:	41 5d                	pop    %r13
    14db:	41 5e                	pop    %r14
    14dd:	41 5f                	pop    %r15
    14df:	5d                   	pop    %rbp
    14e0:	c3                   	ret    
    14e1:	83 c8 ff             	or     $0xffffffff,%eax
    14e4:	eb dd                	jmp    14c3 <main+0x363>
    14e6:	f2 44 0f 5e cf       	divsd  %xmm7,%xmm9
    14eb:	66 0f ef c0          	pxor   %xmm0,%xmm0
    14ef:	f3 0f 11 9d b8 fc ff 	movss  %xmm3,-0x348(%rbp)
    14f6:	ff 
    14f7:	f2 41 0f 5a c1       	cvtsd2ss %xmm9,%xmm0
    14fc:	e8 0f fc ff ff       	call   1110 <log10f@plt>
    1501:	f3 0f 59 05 f3 0b 00 	mulss  0xbf3(%rip),%xmm0        # 20fc <_IO_stdin_used+0xfc>
    1508:	00 
    1509:	f3 0f 10 9d b8 fc ff 	movss  -0x348(%rbp),%xmm3
    1510:	ff 
    1511:	66 41 0f 7e c6       	movd   %xmm0,%r14d
    1516:	e9 24 ff ff ff       	jmp    143f <main+0x2df>
    151b:	e8 e0 fb ff ff       	call   1100 <__stack_chk_fail@plt>

0000000000001520 <_start>:
    1520:	f3 0f 1e fa          	endbr64 
    1524:	31 ed                	xor    %ebp,%ebp
    1526:	49 89 d1             	mov    %rdx,%r9
    1529:	5e                   	pop    %rsi
    152a:	48 89 e2             	mov    %rsp,%rdx
    152d:	48 83 e4 f0          	and    $0xfffffffffffffff0,%rsp
    1531:	50                   	push   %rax
    1532:	54                   	push   %rsp
    1533:	45 31 c0             	xor    %r8d,%r8d
    1536:	31 c9                	xor    %ecx,%ecx
    1538:	48 8d 3d 21 fc ff ff 	lea    -0x3df(%rip),%rdi        # 1160 <main>
    153f:	ff 15 93 2a 00 00    	call   *0x2a93(%rip)        # 3fd8 <__libc_start_main@GLIBC_2.34>
    1545:	f4                   	hlt    
    1546:	66 2e 0f 1f 84 00 00 	cs nopw 0x0(%rax,%rax,1)
    154d:	00 00 00 

0000000000001550 <deregister_tm_clones>:
    1550:	48 8d 3d b9 2a 00 00 	lea    0x2ab9(%rip),%rdi        # 4010 <__TMC_END__>
    1557:	48 8d 05 b2 2a 00 00 	lea    0x2ab2(%rip),%rax        # 4010 <__TMC_END__>
    155e:	48 39 f8             	cmp    %rdi,%rax
    1561:	74 15                	je     1578 <deregister_tm_clones+0x28>
    1563:	48 8b 05 76 2a 00 00 	mov    0x2a76(%rip),%rax        # 3fe0 <_ITM_deregisterTMCloneTable@Base>
    156a:	48 85 c0             	test   %rax,%rax
    156d:	74 09                	je     1578 <deregister_tm_clones+0x28>
    156f:	ff e0                	jmp    *%rax
    1571:	0f 1f 80 00 00 00 00 	nopl   0x0(%rax)
    1578:	c3                   	ret    
    1579:	0f 1f 80 00 00 00 00 	nopl   0x0(%rax)

0000000000001580 <register_tm_clones>:
    1580:	48 8d 3d 89 2a 00 00 	lea    0x2a89(%rip),%rdi        # 4010 <__TMC_END__>
    1587:	48 8d 35 82 2a 00 00 	lea    0x2a82(%rip),%rsi        # 4010 <__TMC_END__>
    158e:	48 29 fe             	sub    %rdi,%rsi
    1591:	48 89 f0             	mov    %rsi,%rax
    1594:	48 c1 ee 3f          	shr    $0x3f,%rsi
    1598:	48 c1 f8 03          	sar    $0x3,%rax
    159c:	48 01 c6             	add    %rax,%rsi
    159f:	48 d1 fe             	sar    %rsi
    15a2:	74 14                	je     15b8 <register_tm_clones+0x38>
    15a4:	48 8b 05 45 2a 00 00 	mov    0x2a45(%rip),%rax        # 3ff0 <_ITM_registerTMCloneTable@Base>
    15ab:	48 85 c0             	test   %rax,%rax
    15ae:	74 08                	je     15b8 <register_tm_clones+0x38>
    15b0:	ff e0                	jmp    *%rax
    15b2:	66 0f 1f 44 00 00    	nopw   0x0(%rax,%rax,1)
    15b8:	c3                   	ret    
    15b9:	0f 1f 80 00 00 00 00 	nopl   0x0(%rax)

00000000000015c0 <__do_global_dtors_aux>:
    15c0:	f3 0f 1e fa          	endbr64 
    15c4:	80 3d 45 2a 00 00 00 	cmpb   $0x0,0x2a45(%rip)        # 4010 <__TMC_END__>
    15cb:	75 2b                	jne    15f8 <__do_global_dtors_aux+0x38>
    15cd:	55                   	push   %rbp
    15ce:	48 83 3d 22 2a 00 00 	cmpq   $0x0,0x2a22(%rip)        # 3ff8 <__cxa_finalize@GLIBC_2.2.5>
    15d5:	00 
    15d6:	48 89 e5             	mov    %rsp,%rbp
    15d9:	74 0c                	je     15e7 <__do_global_dtors_aux+0x27>
    15db:	48 8b 3d 26 2a 00 00 	mov    0x2a26(%rip),%rdi        # 4008 <__dso_handle>
    15e2:	e8 d9 fa ff ff       	call   10c0 <__cxa_finalize@plt>
    15e7:	e8 64 ff ff ff       	call   1550 <deregister_tm_clones>
    15ec:	c6 05 1d 2a 00 00 01 	movb   $0x1,0x2a1d(%rip)        # 4010 <__TMC_END__>
    15f3:	5d                   	pop    %rbp
    15f4:	c3                   	ret    
    15f5:	0f 1f 00             	nopl   (%rax)
    15f8:	c3                   	ret    
    15f9:	0f 1f 80 00 00 00 00 	nopl   0x0(%rax)

0000000000001600 <frame_dummy>:
    1600:	f3 0f 1e fa          	endbr64 
    1604:	e9 77 ff ff ff       	jmp    1580 <register_tm_clones>
    1609:	0f 1f 80 00 00 00 00 	nopl   0x0(%rax)

0000000000001610 <test_Fread.constprop.0.isra.0>:
    1610:	48 89 d1             	mov    %rdx,%rcx
    1613:	48 63 f6             	movslq %esi,%rsi
    1616:	ba 00 01 00 00       	mov    $0x100,%edx
    161b:	e9 c0 fa ff ff       	jmp    10e0 <fread@plt>

0000000000001620 <riscv_dsp_convert_q7_f32>:
    1620:	f3 0f 1e fa          	endbr64 
    1624:	85 d2                	test   %edx,%edx
    1626:	0f 84 76 02 00 00    	je     18a2 <riscv_dsp_convert_q7_f32+0x282>
    162c:	8d 42 ff             	lea    -0x1(%rdx),%eax
    162f:	83 f8 0e             	cmp    $0xe,%eax
    1632:	0f 86 6b 02 00 00    	jbe    18a3 <riscv_dsp_convert_q7_f32+0x283>
    1638:	41 89 d0             	mov    %edx,%r8d
    163b:	0f 28 1d de 0a 00 00 	movaps 0xade(%rip),%xmm3        # 2120 <_IO_stdin_used+0x120>
    1642:	48 89 f9             	mov    %rdi,%rcx
    1645:	48 89 f0             	mov    %rsi,%rax
    1648:	41 c1 e8 04          	shr    $0x4,%r8d
    164c:	66 0f ef ed          	pxor   %xmm5,%xmm5
    1650:	66 0f ef e4          	pxor   %xmm4,%xmm4
    1654:	41 83 e8 01          	sub    $0x1,%r8d
    1658:	49 c1 e0 04          	shl    $0x4,%r8
    165c:	4e 8d 44 07 10       	lea    0x10(%rdi,%r8,1),%r8
    1661:	0f 1f 80 00 00 00 00 	nopl   0x0(%rax)
    1668:	f3 0f 6f 01          	movdqu (%rcx),%xmm0
    166c:	66 0f 6f d5          	movdqa %xmm5,%xmm2
    1670:	66 0f 6f f4          	movdqa %xmm4,%xmm6
    1674:	48 83 c1 10          	add    $0x10,%rcx
    1678:	48 83 c0 40          	add    $0x40,%rax
    167c:	66 0f 64 d0          	pcmpgtb %xmm0,%xmm2
    1680:	66 0f 6f c8          	movdqa %xmm0,%xmm1
    1684:	66 0f 60 ca          	punpcklbw %xmm2,%xmm1
    1688:	66 0f 68 c2          	punpckhbw %xmm2,%xmm0
    168c:	66 0f 65 f1          	pcmpgtw %xmm1,%xmm6
    1690:	66 0f 6f d1          	movdqa %xmm1,%xmm2
    1694:	66 0f 61 d6          	punpcklwd %xmm6,%xmm2
    1698:	66 0f 69 ce          	punpckhwd %xmm6,%xmm1
    169c:	0f 5b d2             	cvtdq2ps %xmm2,%xmm2
    169f:	0f 59 d3             	mulps  %xmm3,%xmm2
    16a2:	0f 5b c9             	cvtdq2ps %xmm1,%xmm1
    16a5:	0f 59 cb             	mulps  %xmm3,%xmm1
    16a8:	0f 11 50 c0          	movups %xmm2,-0x40(%rax)
    16ac:	66 0f 6f d4          	movdqa %xmm4,%xmm2
    16b0:	66 0f 65 d0          	pcmpgtw %xmm0,%xmm2
    16b4:	0f 11 48 d0          	movups %xmm1,-0x30(%rax)
    16b8:	66 0f 6f c8          	movdqa %xmm0,%xmm1
    16bc:	66 0f 61 ca          	punpcklwd %xmm2,%xmm1
    16c0:	66 0f 69 c2          	punpckhwd %xmm2,%xmm0
    16c4:	0f 5b c9             	cvtdq2ps %xmm1,%xmm1
    16c7:	0f 5b c0             	cvtdq2ps %xmm0,%xmm0
    16ca:	0f 59 cb             	mulps  %xmm3,%xmm1
    16cd:	0f 59 c3             	mulps  %xmm3,%xmm0
    16d0:	0f 11 48 e0          	movups %xmm1,-0x20(%rax)
    16d4:	0f 11 40 f0          	movups %xmm0,-0x10(%rax)
    16d8:	4c 39 c1             	cmp    %r8,%rcx
    16db:	75 8b                	jne    1668 <riscv_dsp_convert_q7_f32+0x48>
    16dd:	89 d1                	mov    %edx,%ecx
    16df:	83 e1 f0             	and    $0xfffffff0,%ecx
    16e2:	89 c8                	mov    %ecx,%eax
    16e4:	48 01 c7             	add    %rax,%rdi
    16e7:	48 8d 34 86          	lea    (%rsi,%rax,4),%rsi
    16eb:	89 d0                	mov    %edx,%eax
    16ed:	29 c8                	sub    %ecx,%eax
    16ef:	39 ca                	cmp    %ecx,%edx
    16f1:	0f 84 b3 01 00 00    	je     18aa <riscv_dsp_convert_q7_f32+0x28a>
    16f7:	0f be 17             	movsbl (%rdi),%edx
    16fa:	66 0f ef c9          	pxor   %xmm1,%xmm1
    16fe:	f3 0f 10 05 1a 0a 00 	movss  0xa1a(%rip),%xmm0        # 2120 <_IO_stdin_used+0x120>
    1705:	00 
    1706:	f3 0f 2a ca          	cvtsi2ss %edx,%xmm1
    170a:	f3 0f 59 c8          	mulss  %xmm0,%xmm1
    170e:	f3 0f 11 0e          	movss  %xmm1,(%rsi)
    1712:	83 f8 01             	cmp    $0x1,%eax
    1715:	0f 84 87 01 00 00    	je     18a2 <riscv_dsp_convert_q7_f32+0x282>
    171b:	0f be 57 01          	movsbl 0x1(%rdi),%edx
    171f:	66 0f ef c9          	pxor   %xmm1,%xmm1
    1723:	f3 0f 2a ca          	cvtsi2ss %edx,%xmm1
    1727:	f3 0f 59 c8          	mulss  %xmm0,%xmm1
    172b:	f3 0f 11 4e 04       	movss  %xmm1,0x4(%rsi)
    1730:	83 f8 02             	cmp    $0x2,%eax
    1733:	0f 84 69 01 00 00    	je     18a2 <riscv_dsp_convert_q7_f32+0x282>
    1739:	0f be 57 02          	movsbl 0x2(%rdi),%edx
    173d:	66 0f ef c9          	pxor   %xmm1,%xmm1
    1741:	f3 0f 2a ca          	cvtsi2ss %edx,%xmm1
    1745:	f3 0f 59 c8          	mulss  %xmm0,%xmm1
    1749:	f3 0f 11 4e 08       	movss  %xmm1,0x8(%rsi)
    174e:	83 f8 03             	cmp    $0x3,%eax
    1751:	0f 84 4b 01 00 00    	je     18a2 <riscv_dsp_convert_q7_f32+0x282>
    1757:	0f be 57 03          	movsbl 0x3(%rdi),%edx
    175b:	66 0f ef c9          	pxor   %xmm1,%xmm1
    175f:	f3 0f 2a ca          	cvtsi2ss %edx,%xmm1
    1763:	f3 0f 59 c8          	mulss  %xmm0,%xmm1
    1767:	f3 0f 11 4e 0c       	movss  %xmm1,0xc(%rsi)
    176c:	83 f8 04             	cmp    $0x4,%eax
    176f:	0f 84 2d 01 00 00    	je     18a2 <riscv_dsp_convert_q7_f32+0x282>
    1775:	0f be 57 04          	movsbl 0x4(%rdi),%edx
    1779:	66 0f ef c9          	pxor   %xmm1,%xmm1
    177d:	f3 0f 2a ca          	cvtsi2ss %edx,%xmm1
    1781:	f3 0f 59 c8          	mulss  %xmm0,%xmm1
    1785:	f3 0f 11 4e 10       	movss  %xmm1,0x10(%rsi)
    178a:	83 f8 05             	cmp    $0x5,%eax
    178d:	0f 84 0f 01 00 00    	je     18a2 <riscv_dsp_convert_q7_f32+0x282>
    1793:	0f be 57 05          	movsbl 0x5(%rdi),%edx
    1797:	66 0f ef c9          	pxor   %xmm1,%xmm1
    179b:	f3 0f 2a ca          	cvtsi2ss %edx,%xmm1
    179f:	f3 0f 59 c8          	mulss  %xmm0,%xmm1
    17a3:	f3 0f 11 4e 14       	movss  %xmm1,0x14(%rsi)
    17a8:	83 f8 06             	cmp    $0x6,%eax
    17ab:	0f 84 f1 00 00 00    	je     18a2 <riscv_dsp_convert_q7_f32+0x282>
    17b1:	0f be 57 06          	movsbl 0x6(%rdi),%edx
    17b5:	66 0f ef c9          	pxor   %xmm1,%xmm1
    17b9:	f3 0f 2a ca          	cvtsi2ss %edx,%xmm1
    17bd:	f3 0f 59 c8          	mulss  %xmm0,%xmm1
    17c1:	f3 0f 11 4e 18       	movss  %xmm1,0x18(%rsi)
    17c6:	83 f8 07             	cmp    $0x7,%eax
    17c9:	0f 84 d3 00 00 00    	je     18a2 <riscv_dsp_convert_q7_f32+0x282>
    17cf:	0f be 57 07          	movsbl 0x7(%rdi),%edx
    17d3:	66 0f ef c9          	pxor   %xmm1,%xmm1
    17d7:	f3 0f 2a ca          	cvtsi2ss %edx,%xmm1
    17db:	f3 0f 59 c8          	mulss  %xmm0,%xmm1
    17df:	f3 0f 11 4e 1c       	movss  %xmm1,0x1c(%rsi)
    17e4:	83 f8 08             	cmp    $0x8,%eax
    17e7:	0f 84 b5 00 00 00    	je     18a2 <riscv_dsp_convert_q7_f32+0x282>
    17ed:	0f be 57 08          	movsbl 0x8(%rdi),%edx
    17f1:	66 0f ef c9          	pxor   %xmm1,%xmm1
    17f5:	f3 0f 2a ca          	cvtsi2ss %edx,%xmm1
    17f9:	f3 0f 59 c8          	mulss  %xmm0,%xmm1
    17fd:	f3 0f 11 4e 20       	movss  %xmm1,0x20(%rsi)
    1802:	83 f8 09             	cmp    $0x9,%eax
    1805:	0f 84 97 00 00 00    	je     18a2 <riscv_dsp_convert_q7_f32+0x282>
    180b:	0f be 57 09          	movsbl 0x9(%rdi),%edx
    180f:	66 0f ef c9          	pxor   %xmm1,%xmm1
    1813:	f3 0f 2a ca          	cvtsi2ss %edx,%xmm1
    1817:	f3 0f 59 c8          	mulss  %xmm0,%xmm1
    181b:	f3 0f 11 4e 24       	movss  %xmm1,0x24(%rsi)
    1820:	83 f8 0a             	cmp    $0xa,%eax
    1823:	74 7d                	je     18a2 <riscv_dsp_convert_q7_f32+0x282>
    1825:	0f be 57 0a          	movsbl 0xa(%rdi),%edx
    1829:	66 0f ef c9          	pxor   %xmm1,%xmm1
    182d:	f3 0f 2a ca          	cvtsi2ss %edx,%xmm1
    1831:	f3 0f 59 c8          	mulss  %xmm0,%xmm1
    1835:	f3 0f 11 4e 28       	movss  %xmm1,0x28(%rsi)
    183a:	83 f8 0b             	cmp    $0xb,%eax
    183d:	74 63                	je     18a2 <riscv_dsp_convert_q7_f32+0x282>
    183f:	0f be 57 0b          	movsbl 0xb(%rdi),%edx
    1843:	66 0f ef c9          	pxor   %xmm1,%xmm1
    1847:	f3 0f 2a ca          	cvtsi2ss %edx,%xmm1
    184b:	f3 0f 59 c8          	mulss  %xmm0,%xmm1
    184f:	f3 0f 11 4e 2c       	movss  %xmm1,0x2c(%rsi)
    1854:	83 f8 0c             	cmp    $0xc,%eax
    1857:	74 49                	je     18a2 <riscv_dsp_convert_q7_f32+0x282>
    1859:	0f be 57 0c          	movsbl 0xc(%rdi),%edx
    185d:	66 0f ef c9          	pxor   %xmm1,%xmm1
    1861:	f3 0f 2a ca          	cvtsi2ss %edx,%xmm1
    1865:	f3 0f 59 c8          	mulss  %xmm0,%xmm1
    1869:	f3 0f 11 4e 30       	movss  %xmm1,0x30(%rsi)
    186e:	83 f8 0d             	cmp    $0xd,%eax
    1871:	74 2f                	je     18a2 <riscv_dsp_convert_q7_f32+0x282>
    1873:	0f be 57 0d          	movsbl 0xd(%rdi),%edx
    1877:	66 0f ef c9          	pxor   %xmm1,%xmm1
    187b:	f3 0f 2a ca          	cvtsi2ss %edx,%xmm1
    187f:	f3 0f 59 c8          	mulss  %xmm0,%xmm1
    1883:	f3 0f 11 4e 34       	movss  %xmm1,0x34(%rsi)
    1888:	83 f8 0e             	cmp    $0xe,%eax
    188b:	74 15                	je     18a2 <riscv_dsp_convert_q7_f32+0x282>
    188d:	0f be 47 0e          	movsbl 0xe(%rdi),%eax
    1891:	66 0f ef c9          	pxor   %xmm1,%xmm1
    1895:	f3 0f 2a c8          	cvtsi2ss %eax,%xmm1
    1899:	f3 0f 59 c8          	mulss  %xmm0,%xmm1
    189d:	f3 0f 11 4e 38       	movss  %xmm1,0x38(%rsi)
    18a2:	c3                   	ret    
    18a3:	89 d0                	mov    %edx,%eax
    18a5:	e9 4d fe ff ff       	jmp    16f7 <riscv_dsp_convert_q7_f32+0xd7>
    18aa:	c3                   	ret    

Disassembly of section .fini:

00000000000018ac <_fini>:
    18ac:	f3 0f 1e fa          	endbr64 
    18b0:	48 83 ec 08          	sub    $0x8,%rsp
    18b4:	48 83 c4 08          	add    $0x8,%rsp
    18b8:	c3                   	ret    
