
t_convert_q7_q15:     file format elf64-x86-64


Disassembly of section .init:

0000000000001000 <_init>:
    1000:	f3 0f 1e fa          	endbr64 
    1004:	48 83 ec 08          	sub    $0x8,%rsp
    1008:	48 8b 05 d9 2f 00 00 	mov    0x2fd9(%rip),%rax        # 3fe8 <__gmon_start__@Base>
    100f:	48 85 c0             	test   %rax,%rax
    1012:	74 02                	je     1016 <_init+0x16>
    1014:	ff d0                	call   *%rax
    1016:	48 83 c4 08          	add    $0x8,%rsp
    101a:	c3                   	ret    

Disassembly of section .plt:

0000000000001020 <.plt>:
    1020:	ff 35 5a 2f 00 00    	push   0x2f5a(%rip)        # 3f80 <_GLOBAL_OFFSET_TABLE_+0x8>
    1026:	f2 ff 25 5b 2f 00 00 	bnd jmp *0x2f5b(%rip)        # 3f88 <_GLOBAL_OFFSET_TABLE_+0x10>
    102d:	0f 1f 00             	nopl   (%rax)
    1030:	f3 0f 1e fa          	endbr64 
    1034:	68 00 00 00 00       	push   $0x0
    1039:	f2 e9 e1 ff ff ff    	bnd jmp 1020 <_init+0x20>
    103f:	90                   	nop
    1040:	f3 0f 1e fa          	endbr64 
    1044:	68 01 00 00 00       	push   $0x1
    1049:	f2 e9 d1 ff ff ff    	bnd jmp 1020 <_init+0x20>
    104f:	90                   	nop
    1050:	f3 0f 1e fa          	endbr64 
    1054:	68 02 00 00 00       	push   $0x2
    1059:	f2 e9 c1 ff ff ff    	bnd jmp 1020 <_init+0x20>
    105f:	90                   	nop
    1060:	f3 0f 1e fa          	endbr64 
    1064:	68 03 00 00 00       	push   $0x3
    1069:	f2 e9 b1 ff ff ff    	bnd jmp 1020 <_init+0x20>
    106f:	90                   	nop
    1070:	f3 0f 1e fa          	endbr64 
    1074:	68 04 00 00 00       	push   $0x4
    1079:	f2 e9 a1 ff ff ff    	bnd jmp 1020 <_init+0x20>
    107f:	90                   	nop
    1080:	f3 0f 1e fa          	endbr64 
    1084:	68 05 00 00 00       	push   $0x5
    1089:	f2 e9 91 ff ff ff    	bnd jmp 1020 <_init+0x20>
    108f:	90                   	nop
    1090:	f3 0f 1e fa          	endbr64 
    1094:	68 06 00 00 00       	push   $0x6
    1099:	f2 e9 81 ff ff ff    	bnd jmp 1020 <_init+0x20>
    109f:	90                   	nop
    10a0:	f3 0f 1e fa          	endbr64 
    10a4:	68 07 00 00 00       	push   $0x7
    10a9:	f2 e9 71 ff ff ff    	bnd jmp 1020 <_init+0x20>
    10af:	90                   	nop
    10b0:	f3 0f 1e fa          	endbr64 
    10b4:	68 08 00 00 00       	push   $0x8
    10b9:	f2 e9 61 ff ff ff    	bnd jmp 1020 <_init+0x20>
    10bf:	90                   	nop

Disassembly of section .plt.got:

00000000000010c0 <__cxa_finalize@plt>:
    10c0:	f3 0f 1e fa          	endbr64 
    10c4:	f2 ff 25 2d 2f 00 00 	bnd jmp *0x2f2d(%rip)        # 3ff8 <__cxa_finalize@GLIBC_2.2.5>
    10cb:	0f 1f 44 00 00       	nopl   0x0(%rax,%rax,1)

Disassembly of section .plt.sec:

00000000000010d0 <puts@plt>:
    10d0:	f3 0f 1e fa          	endbr64 
    10d4:	f2 ff 25 b5 2e 00 00 	bnd jmp *0x2eb5(%rip)        # 3f90 <puts@GLIBC_2.2.5>
    10db:	0f 1f 44 00 00       	nopl   0x0(%rax,%rax,1)

00000000000010e0 <fread@plt>:
    10e0:	f3 0f 1e fa          	endbr64 
    10e4:	f2 ff 25 ad 2e 00 00 	bnd jmp *0x2ead(%rip)        # 3f98 <fread@GLIBC_2.2.5>
    10eb:	0f 1f 44 00 00       	nopl   0x0(%rax,%rax,1)

00000000000010f0 <fclose@plt>:
    10f0:	f3 0f 1e fa          	endbr64 
    10f4:	f2 ff 25 a5 2e 00 00 	bnd jmp *0x2ea5(%rip)        # 3fa0 <fclose@GLIBC_2.2.5>
    10fb:	0f 1f 44 00 00       	nopl   0x0(%rax,%rax,1)

0000000000001100 <__stack_chk_fail@plt>:
    1100:	f3 0f 1e fa          	endbr64 
    1104:	f2 ff 25 9d 2e 00 00 	bnd jmp *0x2e9d(%rip)        # 3fa8 <__stack_chk_fail@GLIBC_2.4>
    110b:	0f 1f 44 00 00       	nopl   0x0(%rax,%rax,1)

0000000000001110 <log10f@plt>:
    1110:	f3 0f 1e fa          	endbr64 
    1114:	f2 ff 25 95 2e 00 00 	bnd jmp *0x2e95(%rip)        # 3fb0 <log10f@GLIBC_2.2.5>
    111b:	0f 1f 44 00 00       	nopl   0x0(%rax,%rax,1)

0000000000001120 <__printf_chk@plt>:
    1120:	f3 0f 1e fa          	endbr64 
    1124:	f2 ff 25 8d 2e 00 00 	bnd jmp *0x2e8d(%rip)        # 3fb8 <__printf_chk@GLIBC_2.3.4>
    112b:	0f 1f 44 00 00       	nopl   0x0(%rax,%rax,1)

0000000000001130 <fopen@plt>:
    1130:	f3 0f 1e fa          	endbr64 
    1134:	f2 ff 25 85 2e 00 00 	bnd jmp *0x2e85(%rip)        # 3fc0 <fopen@GLIBC_2.2.5>
    113b:	0f 1f 44 00 00       	nopl   0x0(%rax,%rax,1)

0000000000001140 <sqrt@plt>:
    1140:	f3 0f 1e fa          	endbr64 
    1144:	f2 ff 25 7d 2e 00 00 	bnd jmp *0x2e7d(%rip)        # 3fc8 <sqrt@GLIBC_2.2.5>
    114b:	0f 1f 44 00 00       	nopl   0x0(%rax,%rax,1)

0000000000001150 <__sprintf_chk@plt>:
    1150:	f3 0f 1e fa          	endbr64 
    1154:	f2 ff 25 75 2e 00 00 	bnd jmp *0x2e75(%rip)        # 3fd0 <__sprintf_chk@GLIBC_2.3.4>
    115b:	0f 1f 44 00 00       	nopl   0x0(%rax,%rax,1)

Disassembly of section .text:

0000000000001160 <main>:
    1160:	f3 0f 1e fa          	endbr64 
    1164:	55                   	push   %rbp
    1165:	48 89 e5             	mov    %rsp,%rbp
    1168:	41 57                	push   %r15
    116a:	41 56                	push   %r14
    116c:	41 55                	push   %r13
    116e:	41 54                	push   %r12
    1170:	53                   	push   %rbx
    1171:	48 81 ec 38 03 00 00 	sub    $0x338,%rsp
    1178:	64 48 8b 04 25 28 00 	mov    %fs:0x28,%rax
    117f:	00 00 
    1181:	48 89 45 c8          	mov    %rax,-0x38(%rbp)
    1185:	48 89 e0             	mov    %rsp,%rax
    1188:	48 39 c4             	cmp    %rax,%rsp
    118b:	74 15                	je     11a2 <main+0x42>
    118d:	48 81 ec 00 10 00 00 	sub    $0x1000,%rsp
    1194:	48 83 8c 24 f8 0f 00 	orq    $0x0,0xff8(%rsp)
    119b:	00 00 
    119d:	48 39 c4             	cmp    %rax,%rsp
    11a0:	75 eb                	jne    118d <main+0x2d>
    11a2:	48 81 ec 00 02 00 00 	sub    $0x200,%rsp
    11a9:	48 83 8c 24 f8 01 00 	orq    $0x0,0x1f8(%rsp)
    11b0:	00 00 
    11b2:	49 89 e6             	mov    %rsp,%r14
    11b5:	48 89 e0             	mov    %rsp,%rax
    11b8:	48 39 c4             	cmp    %rax,%rsp
    11bb:	74 12                	je     11cf <main+0x6f>
    11bd:	48 81 ec 00 10 00 00 	sub    $0x1000,%rsp
    11c4:	48 83 8c 24 f8 0f 00 	orq    $0x0,0xff8(%rsp)
    11cb:	00 00 
    11cd:	eb e9                	jmp    11b8 <main+0x58>
    11cf:	48 81 ec 00 02 00 00 	sub    $0x200,%rsp
    11d6:	48 83 8c 24 f8 01 00 	orq    $0x0,0x1f8(%rsp)
    11dd:	00 00 
    11df:	4c 8d 05 22 0e 00 00 	lea    0xe22(%rip),%r8        # 2008 <_IO_stdin_used+0x8>
    11e6:	ba 00 02 00 00       	mov    $0x200,%edx
    11eb:	31 c0                	xor    %eax,%eax
    11ed:	48 8d 0d ae 0e 00 00 	lea    0xeae(%rip),%rcx        # 20a2 <_IO_stdin_used+0xa2>
    11f4:	48 8d 1d b7 0e 00 00 	lea    0xeb7(%rip),%rbx        # 20b2 <_IO_stdin_used+0xb2>
    11fb:	be 01 00 00 00       	mov    $0x1,%esi
    1200:	4c 8d a5 c0 fd ff ff 	lea    -0x240(%rbp),%r12
    1207:	49 89 e7             	mov    %rsp,%r15
    120a:	4c 89 e7             	mov    %r12,%rdi
    120d:	e8 3e ff ff ff       	call   1150 <__sprintf_chk@plt>
    1212:	48 89 de             	mov    %rbx,%rsi
    1215:	4c 89 e7             	mov    %r12,%rdi
    1218:	e8 13 ff ff ff       	call   1130 <fopen@plt>
    121d:	4c 8d 05 e4 0d 00 00 	lea    0xde4(%rip),%r8        # 2008 <_IO_stdin_used+0x8>
    1224:	ba 00 02 00 00       	mov    $0x200,%edx
    1229:	4c 89 e7             	mov    %r12,%rdi
    122c:	48 8d 0d 81 0e 00 00 	lea    0xe81(%rip),%rcx        # 20b4 <_IO_stdin_used+0xb4>
    1233:	49 89 c5             	mov    %rax,%r13
    1236:	be 01 00 00 00       	mov    $0x1,%esi
    123b:	31 c0                	xor    %eax,%eax
    123d:	e8 0e ff ff ff       	call   1150 <__sprintf_chk@plt>
    1242:	48 89 de             	mov    %rbx,%rsi
    1245:	4c 89 e7             	mov    %r12,%rdi
    1248:	48 8d 9d c0 fc ff ff 	lea    -0x340(%rbp),%rbx
    124f:	e8 dc fe ff ff       	call   1130 <fopen@plt>
    1254:	4c 89 ea             	mov    %r13,%rdx
    1257:	be 01 00 00 00       	mov    $0x1,%esi
    125c:	48 89 df             	mov    %rbx,%rdi
    125f:	49 89 c4             	mov    %rax,%r12
    1262:	e8 49 05 00 00       	call   17b0 <test_Fread.constprop.0.isra.0>
    1267:	4c 89 e2             	mov    %r12,%rdx
    126a:	be 02 00 00 00       	mov    $0x2,%esi
    126f:	4c 89 f7             	mov    %r14,%rdi
    1272:	e8 39 05 00 00       	call   17b0 <test_Fread.constprop.0.isra.0>
    1277:	ba ff 00 00 00       	mov    $0xff,%edx
    127c:	4c 89 fe             	mov    %r15,%rsi
    127f:	48 89 df             	mov    %rbx,%rdi
    1282:	e8 99 06 00 00       	call   1920 <riscv_dsp_convert_q7_q15>
    1287:	66 0f ef d2          	pxor   %xmm2,%xmm2
    128b:	31 c0                	xor    %eax,%eax
    128d:	66 0f 6f da          	movdqa %xmm2,%xmm3
    1291:	0f 1f 80 00 00 00 00 	nopl   0x0(%rax)
    1298:	f3 41 0f 6f 04 07    	movdqu (%r15,%rax,1),%xmm0
    129e:	f3 41 0f 6f 3c 06    	movdqu (%r14,%rax,1),%xmm7
    12a4:	66 0f 6f cb          	movdqa %xmm3,%xmm1
    12a8:	48 83 c0 10          	add    $0x10,%rax
    12ac:	66 0f f9 c7          	psubw  %xmm7,%xmm0
    12b0:	66 0f f9 c8          	psubw  %xmm0,%xmm1
    12b4:	66 0f ee c1          	pmaxsw %xmm1,%xmm0
    12b8:	66 0f ee d0          	pmaxsw %xmm0,%xmm2
    12bc:	48 3d f0 01 00 00    	cmp    $0x1f0,%rax
    12c2:	75 d4                	jne    1298 <main+0x138>
    12c4:	41 0f b7 87 f0 01 00 	movzwl 0x1f0(%r15),%eax
    12cb:	00 
    12cc:	66 41 2b 86 f0 01 00 	sub    0x1f0(%r14),%ax
    12d3:	00 
    12d4:	66 0f 6f c2          	movdqa %xmm2,%xmm0
    12d8:	89 c2                	mov    %eax,%edx
    12da:	66 0f 73 d8 08       	psrldq $0x8,%xmm0
    12df:	66 f7 da             	neg    %dx
    12e2:	66 0f ee d0          	pmaxsw %xmm0,%xmm2
    12e6:	0f 48 d0             	cmovs  %eax,%edx
    12e9:	41 0f b7 87 f2 01 00 	movzwl 0x1f2(%r15),%eax
    12f0:	00 
    12f1:	66 0f 6f c2          	movdqa %xmm2,%xmm0
    12f5:	66 41 2b 86 f2 01 00 	sub    0x1f2(%r14),%ax
    12fc:	00 
    12fd:	66 0f 73 d8 04       	psrldq $0x4,%xmm0
    1302:	41 89 c2             	mov    %eax,%r10d
    1305:	66 41 f7 da          	neg    %r10w
    1309:	66 0f ee d0          	pmaxsw %xmm0,%xmm2
    130d:	44 0f 48 d0          	cmovs  %eax,%r10d
    1311:	41 0f b7 87 f4 01 00 	movzwl 0x1f4(%r15),%eax
    1318:	00 
    1319:	66 0f 6f c2          	movdqa %xmm2,%xmm0
    131d:	66 41 2b 86 f4 01 00 	sub    0x1f4(%r14),%ax
    1324:	00 
    1325:	66 0f 73 d8 02       	psrldq $0x2,%xmm0
    132a:	41 89 c1             	mov    %eax,%r9d
    132d:	66 41 f7 d9          	neg    %r9w
    1331:	66 0f ee d0          	pmaxsw %xmm0,%xmm2
    1335:	44 0f 48 c8          	cmovs  %eax,%r9d
    1339:	41 0f b7 87 f6 01 00 	movzwl 0x1f6(%r15),%eax
    1340:	00 
    1341:	66 0f c5 ca 00       	pextrw $0x0,%xmm2,%ecx
    1346:	66 41 2b 86 f6 01 00 	sub    0x1f6(%r14),%ax
    134d:	00 
    134e:	41 89 c0             	mov    %eax,%r8d
    1351:	66 41 f7 d8          	neg    %r8w
    1355:	44 0f 48 c0          	cmovs  %eax,%r8d
    1359:	41 0f b7 87 f8 01 00 	movzwl 0x1f8(%r15),%eax
    1360:	00 
    1361:	66 41 2b 86 f8 01 00 	sub    0x1f8(%r14),%ax
    1368:	00 
    1369:	89 c7                	mov    %eax,%edi
    136b:	66 f7 df             	neg    %di
    136e:	0f 48 f8             	cmovs  %eax,%edi
    1371:	41 0f b7 87 fa 01 00 	movzwl 0x1fa(%r15),%eax
    1378:	00 
    1379:	66 41 2b 86 fa 01 00 	sub    0x1fa(%r14),%ax
    1380:	00 
    1381:	89 c6                	mov    %eax,%esi
    1383:	66 f7 de             	neg    %si
    1386:	0f 48 f0             	cmovs  %eax,%esi
    1389:	41 0f b7 87 fc 01 00 	movzwl 0x1fc(%r15),%eax
    1390:	00 
    1391:	66 41 2b 86 fc 01 00 	sub    0x1fc(%r14),%ax
    1398:	00 
    1399:	41 89 c3             	mov    %eax,%r11d
    139c:	66 41 f7 db          	neg    %r11w
    13a0:	41 0f 49 c3          	cmovns %r11d,%eax
    13a4:	66 44 39 d2          	cmp    %r10w,%dx
    13a8:	41 0f 4c d2          	cmovl  %r10d,%edx
    13ac:	66 44 39 ca          	cmp    %r9w,%dx
    13b0:	41 0f 4c d1          	cmovl  %r9d,%edx
    13b4:	66 44 39 c2          	cmp    %r8w,%dx
    13b8:	41 0f 4c d0          	cmovl  %r8d,%edx
    13bc:	66 39 fa             	cmp    %di,%dx
    13bf:	0f 4c d7             	cmovl  %edi,%edx
    13c2:	bf 01 00 00 00       	mov    $0x1,%edi
    13c7:	66 39 f2             	cmp    %si,%dx
    13ca:	0f 4c d6             	cmovl  %esi,%edx
    13cd:	48 8d 35 f8 0c 00 00 	lea    0xcf8(%rip),%rsi        # 20cc <_IO_stdin_used+0xcc>
    13d4:	66 39 c2             	cmp    %ax,%dx
    13d7:	0f 4c d0             	cmovl  %eax,%edx
    13da:	66 39 ca             	cmp    %cx,%dx
    13dd:	0f 4c d1             	cmovl  %ecx,%edx
    13e0:	31 c0                	xor    %eax,%eax
    13e2:	0f bf d2             	movswl %dx,%edx
    13e5:	e8 36 fd ff ff       	call   1120 <__printf_chk@plt>
    13ea:	4c 89 ef             	mov    %r13,%rdi
    13ed:	e8 fe fc ff ff       	call   10f0 <fclose@plt>
    13f2:	4c 89 e7             	mov    %r12,%rdi
    13f5:	e8 f6 fc ff ff       	call   10f0 <fclose@plt>
    13fa:	48 89 e0             	mov    %rsp,%rax
    13fd:	48 39 c4             	cmp    %rax,%rsp
    1400:	74 15                	je     1417 <main+0x2b7>
    1402:	48 81 ec 00 10 00 00 	sub    $0x1000,%rsp
    1409:	48 83 8c 24 f8 0f 00 	orq    $0x0,0xff8(%rsp)
    1410:	00 00 
    1412:	48 39 c4             	cmp    %rax,%rsp
    1415:	75 eb                	jne    1402 <main+0x2a2>
    1417:	48 81 ec 00 04 00 00 	sub    $0x400,%rsp
    141e:	48 83 8c 24 f8 03 00 	orq    $0x0,0x3f8(%rsp)
    1425:	00 00 
    1427:	49 89 e4             	mov    %rsp,%r12
    142a:	48 89 e0             	mov    %rsp,%rax
    142d:	48 39 c4             	cmp    %rax,%rsp
    1430:	74 12                	je     1444 <main+0x2e4>
    1432:	48 81 ec 00 10 00 00 	sub    $0x1000,%rsp
    1439:	48 83 8c 24 f8 0f 00 	orq    $0x0,0xff8(%rsp)
    1440:	00 00 
    1442:	eb e9                	jmp    142d <main+0x2cd>
    1444:	48 81 ec 00 04 00 00 	sub    $0x400,%rsp
    144b:	48 83 8c 24 f8 03 00 	orq    $0x0,0x3f8(%rsp)
    1452:	00 00 
    1454:	ba ff 00 00 00       	mov    $0xff,%edx
    1459:	4c 89 e6             	mov    %r12,%rsi
    145c:	4c 89 f7             	mov    %r14,%rdi
    145f:	49 89 e5             	mov    %rsp,%r13
    1462:	e8 59 03 00 00       	call   17c0 <riscv_dsp_convert_q15_f32>
    1467:	ba ff 00 00 00       	mov    $0xff,%edx
    146c:	4c 89 ee             	mov    %r13,%rsi
    146f:	4c 89 ff             	mov    %r15,%rdi
    1472:	e8 49 03 00 00       	call   17c0 <riscv_dsp_convert_q15_f32>
    1477:	66 0f ef db          	pxor   %xmm3,%xmm3
    147b:	66 0f ef ff          	pxor   %xmm7,%xmm7
    147f:	31 c0                	xor    %eax,%eax
    1481:	66 0f 28 ef          	movapd %xmm7,%xmm5
    1485:	0f 28 c3             	movaps %xmm3,%xmm0
    1488:	44 0f 28 c3          	movaps %xmm3,%xmm8
    148c:	f3 44 0f 10 0d 6b 0c 	movss  0xc6b(%rip),%xmm9        # 2100 <_IO_stdin_used+0x100>
    1493:	00 00 
    1495:	0f 28 f3             	movaps %xmm3,%xmm6
    1498:	0f 1f 84 00 00 00 00 	nopl   0x0(%rax,%rax,1)
    149f:	00 
    14a0:	f3 41 0f 10 4c 05 00 	movss  0x0(%r13,%rax,1),%xmm1
    14a7:	f3 41 0f 10 14 04    	movss  (%r12,%rax,1),%xmm2
    14ad:	66 0f 7e cb          	movd   %xmm1,%ebx
    14b1:	81 fb 00 00 c0 7f    	cmp    $0x7fc00000,%ebx
    14b7:	0f 84 b9 01 00 00    	je     1676 <main+0x516>
    14bd:	0f 28 e2             	movaps %xmm2,%xmm4
    14c0:	f3 0f 5c ca          	subss  %xmm2,%xmm1
    14c4:	48 83 c0 04          	add    $0x4,%rax
    14c8:	f3 0f 5f e6          	maxss  %xmm6,%xmm4
    14cc:	0f 28 f4             	movaps %xmm4,%xmm6
    14cf:	0f 28 e2             	movaps %xmm2,%xmm4
    14d2:	f3 41 0f 5d e0       	minss  %xmm8,%xmm4
    14d7:	f3 0f 59 d2          	mulss  %xmm2,%xmm2
    14db:	44 0f 28 c4          	movaps %xmm4,%xmm8
    14df:	0f 28 e1             	movaps %xmm1,%xmm4
    14e2:	f3 0f 59 c9          	mulss  %xmm1,%xmm1
    14e6:	41 0f 54 e1          	andps  %xmm9,%xmm4
    14ea:	f3 0f 58 c4          	addss  %xmm4,%xmm0
    14ee:	f3 0f 5f e3          	maxss  %xmm3,%xmm4
    14f2:	f3 0f 5a d2          	cvtss2sd %xmm2,%xmm2
    14f6:	f2 0f 58 fa          	addsd  %xmm2,%xmm7
    14fa:	0f 28 dc             	movaps %xmm4,%xmm3
    14fd:	f3 0f 5a c9          	cvtss2sd %xmm1,%xmm1
    1501:	f2 0f 58 e9          	addsd  %xmm1,%xmm5
    1505:	48 3d fc 03 00 00    	cmp    $0x3fc,%rax
    150b:	75 93                	jne    14a0 <main+0x340>
    150d:	66 48 0f 7e e8       	movq   %xmm5,%rax
    1512:	f3 0f 11 a5 ac fc ff 	movss  %xmm4,-0x354(%rbp)
    1519:	ff 
    151a:	f3 44 0f 11 85 b0 fc 	movss  %xmm8,-0x350(%rbp)
    1521:	ff ff 
    1523:	f3 0f 11 b5 b4 fc ff 	movss  %xmm6,-0x34c(%rbp)
    152a:	ff 
    152b:	f2 0f 11 bd b8 fc ff 	movsd  %xmm7,-0x348(%rbp)
    1532:	ff 
    1533:	3d 00 00 c0 7f       	cmp    $0x7fc00000,%eax
    1538:	0f 84 38 01 00 00    	je     1676 <main+0x516>
    153e:	f3 0f 5e 05 b2 0b 00 	divss  0xbb2(%rip),%xmm0        # 20f8 <_IO_stdin_used+0xf8>
    1545:	00 
    1546:	f2 0f 11 ad a0 fc ff 	movsd  %xmm5,-0x360(%rbp)
    154d:	ff 
    154e:	66 41 0f 7e c4       	movd   %xmm0,%r12d
    1553:	66 0f 28 c5          	movapd %xmm5,%xmm0
    1557:	f2 0f 5e 05 b1 0b 00 	divsd  0xbb1(%rip),%xmm0        # 2110 <_IO_stdin_used+0x110>
    155e:	00 
    155f:	e8 dc fb ff ff       	call   1140 <sqrt@plt>
    1564:	f3 0f 10 b5 b4 fc ff 	movss  -0x34c(%rbp),%xmm6
    156b:	ff 
    156c:	f3 44 0f 10 85 b0 fc 	movss  -0x350(%rbp),%xmm8
    1573:	ff ff 
    1575:	66 0f ef c9          	pxor   %xmm1,%xmm1
    1579:	f2 0f 10 bd b8 fc ff 	movsd  -0x348(%rbp),%xmm7
    1580:	ff 
    1581:	f3 0f 10 9d ac fc ff 	movss  -0x354(%rbp),%xmm3
    1588:	ff 
    1589:	f3 41 0f 5c f0       	subss  %xmm8,%xmm6
    158e:	f2 0f 5a c8          	cvtsd2ss %xmm0,%xmm1
    1592:	0f 28 e9             	movaps %xmm1,%xmm5
    1595:	f3 0f 5e ee          	divss  %xmm6,%xmm5
    1599:	66 0f ef f6          	pxor   %xmm6,%xmm6
    159d:	66 41 0f 7e ed       	movd   %xmm5,%r13d
    15a2:	f2 0f 10 ad a0 fc ff 	movsd  -0x360(%rbp),%xmm5
    15a9:	ff 
    15aa:	66 0f 2e ee          	ucomisd %xmm6,%xmm5
    15ae:	0f 8a c6 00 00 00    	jp     167a <main+0x51a>
    15b4:	f3 0f 10 25 38 0b 00 	movss  0xb38(%rip),%xmm4        # 20f4 <_IO_stdin_used+0xf4>
    15bb:	00 
    15bc:	0f 85 b8 00 00 00    	jne    167a <main+0x51a>
    15c2:	48 8d 3d 16 0b 00 00 	lea    0xb16(%rip),%rdi        # 20df <_IO_stdin_used+0xdf>
    15c9:	f3 0f 11 9d b0 fc ff 	movss  %xmm3,-0x350(%rbp)
    15d0:	ff 
    15d1:	f3 0f 11 a5 b8 fc ff 	movss  %xmm4,-0x348(%rbp)
    15d8:	ff 
    15d9:	f3 0f 11 8d b4 fc ff 	movss  %xmm1,-0x34c(%rbp)
    15e0:	ff 
    15e1:	e8 ea fa ff ff       	call   10d0 <puts@plt>
    15e6:	66 41 0f 6e ed       	movd   %r13d,%xmm5
    15eb:	66 0f ef d2          	pxor   %xmm2,%xmm2
    15ef:	f3 0f 10 a5 b8 fc ff 	movss  -0x348(%rbp),%xmm4
    15f6:	ff 
    15f7:	f3 0f 10 9d b0 fc ff 	movss  -0x350(%rbp),%xmm3
    15fe:	ff 
    15ff:	f3 0f 10 8d b4 fc ff 	movss  -0x34c(%rbp),%xmm1
    1606:	ff 
    1607:	f3 0f 5a d5          	cvtss2sd %xmm5,%xmm2
    160b:	66 0f ef c0          	pxor   %xmm0,%xmm0
    160f:	66 41 0f 6e ec       	movd   %r12d,%xmm5
    1614:	48 8d 35 35 0a 00 00 	lea    0xa35(%rip),%rsi        # 2050 <_IO_stdin_used+0x50>
    161b:	bf 01 00 00 00       	mov    $0x1,%edi
    1620:	b8 05 00 00 00       	mov    $0x5,%eax
    1625:	f3 0f 5a c5          	cvtss2sd %xmm5,%xmm0
    1629:	f3 0f 5a e4          	cvtss2sd %xmm4,%xmm4
    162d:	f3 0f 5a db          	cvtss2sd %xmm3,%xmm3
    1631:	f3 0f 5a c9          	cvtss2sd %xmm1,%xmm1
    1635:	f2 0f 11 95 b8 fc ff 	movsd  %xmm2,-0x348(%rbp)
    163c:	ff 
    163d:	e8 de fa ff ff       	call   1120 <__printf_chk@plt>
    1642:	f2 0f 10 05 ce 0a 00 	movsd  0xace(%rip),%xmm0        # 2118 <_IO_stdin_used+0x118>
    1649:	00 
    164a:	f2 0f 10 95 b8 fc ff 	movsd  -0x348(%rbp),%xmm2
    1651:	ff 
    1652:	66 0f 2f c2          	comisd %xmm2,%xmm0
    1656:	19 c0                	sbb    %eax,%eax
    1658:	48 8b 55 c8          	mov    -0x38(%rbp),%rdx
    165c:	64 48 2b 14 25 28 00 	sub    %fs:0x28,%rdx
    1663:	00 00 
    1665:	75 54                	jne    16bb <main+0x55b>
    1667:	48 8d 65 d8          	lea    -0x28(%rbp),%rsp
    166b:	5b                   	pop    %rbx
    166c:	41 5c                	pop    %r12
    166e:	41 5d                	pop    %r13
    1670:	41 5e                	pop    %r14
    1672:	41 5f                	pop    %r15
    1674:	5d                   	pop    %rbp
    1675:	c3                   	ret    
    1676:	31 c0                	xor    %eax,%eax
    1678:	eb de                	jmp    1658 <main+0x4f8>
    167a:	f2 0f 5e fd          	divsd  %xmm5,%xmm7
    167e:	66 0f ef c0          	pxor   %xmm0,%xmm0
    1682:	f3 0f 11 9d b4 fc ff 	movss  %xmm3,-0x34c(%rbp)
    1689:	ff 
    168a:	f3 0f 11 8d b8 fc ff 	movss  %xmm1,-0x348(%rbp)
    1691:	ff 
    1692:	f2 0f 5a c7          	cvtsd2ss %xmm7,%xmm0
    1696:	e8 75 fa ff ff       	call   1110 <log10f@plt>
    169b:	f3 0f 59 05 59 0a 00 	mulss  0xa59(%rip),%xmm0        # 20fc <_IO_stdin_used+0xfc>
    16a2:	00 
    16a3:	f3 0f 10 9d b4 fc ff 	movss  -0x34c(%rbp),%xmm3
    16aa:	ff 
    16ab:	f3 0f 10 8d b8 fc ff 	movss  -0x348(%rbp),%xmm1
    16b2:	ff 
    16b3:	0f 28 e0             	movaps %xmm0,%xmm4
    16b6:	e9 07 ff ff ff       	jmp    15c2 <main+0x462>
    16bb:	e8 40 fa ff ff       	call   1100 <__stack_chk_fail@plt>

00000000000016c0 <_start>:
    16c0:	f3 0f 1e fa          	endbr64 
    16c4:	31 ed                	xor    %ebp,%ebp
    16c6:	49 89 d1             	mov    %rdx,%r9
    16c9:	5e                   	pop    %rsi
    16ca:	48 89 e2             	mov    %rsp,%rdx
    16cd:	48 83 e4 f0          	and    $0xfffffffffffffff0,%rsp
    16d1:	50                   	push   %rax
    16d2:	54                   	push   %rsp
    16d3:	45 31 c0             	xor    %r8d,%r8d
    16d6:	31 c9                	xor    %ecx,%ecx
    16d8:	48 8d 3d 81 fa ff ff 	lea    -0x57f(%rip),%rdi        # 1160 <main>
    16df:	ff 15 f3 28 00 00    	call   *0x28f3(%rip)        # 3fd8 <__libc_start_main@GLIBC_2.34>
    16e5:	f4                   	hlt    
    16e6:	66 2e 0f 1f 84 00 00 	cs nopw 0x0(%rax,%rax,1)
    16ed:	00 00 00 

00000000000016f0 <deregister_tm_clones>:
    16f0:	48 8d 3d 19 29 00 00 	lea    0x2919(%rip),%rdi        # 4010 <__TMC_END__>
    16f7:	48 8d 05 12 29 00 00 	lea    0x2912(%rip),%rax        # 4010 <__TMC_END__>
    16fe:	48 39 f8             	cmp    %rdi,%rax
    1701:	74 15                	je     1718 <deregister_tm_clones+0x28>
    1703:	48 8b 05 d6 28 00 00 	mov    0x28d6(%rip),%rax        # 3fe0 <_ITM_deregisterTMCloneTable@Base>
    170a:	48 85 c0             	test   %rax,%rax
    170d:	74 09                	je     1718 <deregister_tm_clones+0x28>
    170f:	ff e0                	jmp    *%rax
    1711:	0f 1f 80 00 00 00 00 	nopl   0x0(%rax)
    1718:	c3                   	ret    
    1719:	0f 1f 80 00 00 00 00 	nopl   0x0(%rax)

0000000000001720 <register_tm_clones>:
    1720:	48 8d 3d e9 28 00 00 	lea    0x28e9(%rip),%rdi        # 4010 <__TMC_END__>
    1727:	48 8d 35 e2 28 00 00 	lea    0x28e2(%rip),%rsi        # 4010 <__TMC_END__>
    172e:	48 29 fe             	sub    %rdi,%rsi
    1731:	48 89 f0             	mov    %rsi,%rax
    1734:	48 c1 ee 3f          	shr    $0x3f,%rsi
    1738:	48 c1 f8 03          	sar    $0x3,%rax
    173c:	48 01 c6             	add    %rax,%rsi
    173f:	48 d1 fe             	sar    %rsi
    1742:	74 14                	je     1758 <register_tm_clones+0x38>
    1744:	48 8b 05 a5 28 00 00 	mov    0x28a5(%rip),%rax        # 3ff0 <_ITM_registerTMCloneTable@Base>
    174b:	48 85 c0             	test   %rax,%rax
    174e:	74 08                	je     1758 <register_tm_clones+0x38>
    1750:	ff e0                	jmp    *%rax
    1752:	66 0f 1f 44 00 00    	nopw   0x0(%rax,%rax,1)
    1758:	c3                   	ret    
    1759:	0f 1f 80 00 00 00 00 	nopl   0x0(%rax)

0000000000001760 <__do_global_dtors_aux>:
    1760:	f3 0f 1e fa          	endbr64 
    1764:	80 3d a5 28 00 00 00 	cmpb   $0x0,0x28a5(%rip)        # 4010 <__TMC_END__>
    176b:	75 2b                	jne    1798 <__do_global_dtors_aux+0x38>
    176d:	55                   	push   %rbp
    176e:	48 83 3d 82 28 00 00 	cmpq   $0x0,0x2882(%rip)        # 3ff8 <__cxa_finalize@GLIBC_2.2.5>
    1775:	00 
    1776:	48 89 e5             	mov    %rsp,%rbp
    1779:	74 0c                	je     1787 <__do_global_dtors_aux+0x27>
    177b:	48 8b 3d 86 28 00 00 	mov    0x2886(%rip),%rdi        # 4008 <__dso_handle>
    1782:	e8 39 f9 ff ff       	call   10c0 <__cxa_finalize@plt>
    1787:	e8 64 ff ff ff       	call   16f0 <deregister_tm_clones>
    178c:	c6 05 7d 28 00 00 01 	movb   $0x1,0x287d(%rip)        # 4010 <__TMC_END__>
    1793:	5d                   	pop    %rbp
    1794:	c3                   	ret    
    1795:	0f 1f 00             	nopl   (%rax)
    1798:	c3                   	ret    
    1799:	0f 1f 80 00 00 00 00 	nopl   0x0(%rax)

00000000000017a0 <frame_dummy>:
    17a0:	f3 0f 1e fa          	endbr64 
    17a4:	e9 77 ff ff ff       	jmp    1720 <register_tm_clones>
    17a9:	0f 1f 80 00 00 00 00 	nopl   0x0(%rax)

00000000000017b0 <test_Fread.constprop.0.isra.0>:
    17b0:	48 89 d1             	mov    %rdx,%rcx
    17b3:	48 63 f6             	movslq %esi,%rsi
    17b6:	ba ff 00 00 00       	mov    $0xff,%edx
    17bb:	e9 20 f9 ff ff       	jmp    10e0 <fread@plt>

00000000000017c0 <riscv_dsp_convert_q15_f32>:
    17c0:	f3 0f 1e fa          	endbr64 
    17c4:	48 89 f1             	mov    %rsi,%rcx
    17c7:	85 d2                	test   %edx,%edx
    17c9:	0f 84 36 01 00 00    	je     1905 <riscv_dsp_convert_q15_f32+0x145>
    17cf:	8d 42 ff             	lea    -0x1(%rdx),%eax
    17d2:	83 f8 06             	cmp    $0x6,%eax
    17d5:	0f 86 36 01 00 00    	jbe    1911 <riscv_dsp_convert_q15_f32+0x151>
    17db:	89 d6                	mov    %edx,%esi
    17dd:	0f 28 1d 3c 09 00 00 	movaps 0x93c(%rip),%xmm3        # 2120 <_IO_stdin_used+0x120>
    17e4:	31 c0                	xor    %eax,%eax
    17e6:	66 0f ef e4          	pxor   %xmm4,%xmm4
    17ea:	c1 ee 03             	shr    $0x3,%esi
    17ed:	48 c1 e6 04          	shl    $0x4,%rsi
    17f1:	0f 1f 80 00 00 00 00 	nopl   0x0(%rax)
    17f8:	f3 0f 6f 04 07       	movdqu (%rdi,%rax,1),%xmm0
    17fd:	66 0f 6f d4          	movdqa %xmm4,%xmm2
    1801:	66 0f 65 d0          	pcmpgtw %xmm0,%xmm2
    1805:	66 0f 6f c8          	movdqa %xmm0,%xmm1
    1809:	66 0f 61 ca          	punpcklwd %xmm2,%xmm1
    180d:	66 0f 69 c2          	punpckhwd %xmm2,%xmm0
    1811:	0f 5b c9             	cvtdq2ps %xmm1,%xmm1
    1814:	0f 5b c0             	cvtdq2ps %xmm0,%xmm0
    1817:	0f 59 cb             	mulps  %xmm3,%xmm1
    181a:	0f 59 c3             	mulps  %xmm3,%xmm0
    181d:	0f 11 0c 41          	movups %xmm1,(%rcx,%rax,2)
    1821:	0f 11 44 41 10       	movups %xmm0,0x10(%rcx,%rax,2)
    1826:	48 83 c0 10          	add    $0x10,%rax
    182a:	48 39 f0             	cmp    %rsi,%rax
    182d:	75 c9                	jne    17f8 <riscv_dsp_convert_q15_f32+0x38>
    182f:	89 d6                	mov    %edx,%esi
    1831:	83 e6 f8             	and    $0xfffffff8,%esi
    1834:	89 f0                	mov    %esi,%eax
    1836:	48 8d 3c 47          	lea    (%rdi,%rax,2),%rdi
    183a:	48 8d 0c 81          	lea    (%rcx,%rax,4),%rcx
    183e:	89 d0                	mov    %edx,%eax
    1840:	29 f0                	sub    %esi,%eax
    1842:	39 f2                	cmp    %esi,%edx
    1844:	0f 84 c6 00 00 00    	je     1910 <riscv_dsp_convert_q15_f32+0x150>
    184a:	0f bf 17             	movswl (%rdi),%edx
    184d:	66 0f ef c9          	pxor   %xmm1,%xmm1
    1851:	f3 0f 10 05 c7 08 00 	movss  0x8c7(%rip),%xmm0        # 2120 <_IO_stdin_used+0x120>
    1858:	00 
    1859:	f3 0f 2a ca          	cvtsi2ss %edx,%xmm1
    185d:	f3 0f 59 c8          	mulss  %xmm0,%xmm1
    1861:	f3 0f 11 09          	movss  %xmm1,(%rcx)
    1865:	83 f8 01             	cmp    $0x1,%eax
    1868:	0f 84 97 00 00 00    	je     1905 <riscv_dsp_convert_q15_f32+0x145>
    186e:	0f bf 57 02          	movswl 0x2(%rdi),%edx
    1872:	66 0f ef c9          	pxor   %xmm1,%xmm1
    1876:	f3 0f 2a ca          	cvtsi2ss %edx,%xmm1
    187a:	f3 0f 59 c8          	mulss  %xmm0,%xmm1
    187e:	f3 0f 11 49 04       	movss  %xmm1,0x4(%rcx)
    1883:	83 f8 02             	cmp    $0x2,%eax
    1886:	74 7d                	je     1905 <riscv_dsp_convert_q15_f32+0x145>
    1888:	0f bf 57 04          	movswl 0x4(%rdi),%edx
    188c:	66 0f ef c9          	pxor   %xmm1,%xmm1
    1890:	f3 0f 2a ca          	cvtsi2ss %edx,%xmm1
    1894:	f3 0f 59 c8          	mulss  %xmm0,%xmm1
    1898:	f3 0f 11 49 08       	movss  %xmm1,0x8(%rcx)
    189d:	83 f8 03             	cmp    $0x3,%eax
    18a0:	74 63                	je     1905 <riscv_dsp_convert_q15_f32+0x145>
    18a2:	0f bf 57 06          	movswl 0x6(%rdi),%edx
    18a6:	66 0f ef c9          	pxor   %xmm1,%xmm1
    18aa:	f3 0f 2a ca          	cvtsi2ss %edx,%xmm1
    18ae:	f3 0f 59 c8          	mulss  %xmm0,%xmm1
    18b2:	f3 0f 11 49 0c       	movss  %xmm1,0xc(%rcx)
    18b7:	83 f8 04             	cmp    $0x4,%eax
    18ba:	74 49                	je     1905 <riscv_dsp_convert_q15_f32+0x145>
    18bc:	0f bf 57 08          	movswl 0x8(%rdi),%edx
    18c0:	66 0f ef c9          	pxor   %xmm1,%xmm1
    18c4:	f3 0f 2a ca          	cvtsi2ss %edx,%xmm1
    18c8:	f3 0f 59 c8          	mulss  %xmm0,%xmm1
    18cc:	f3 0f 11 49 10       	movss  %xmm1,0x10(%rcx)
    18d1:	83 f8 05             	cmp    $0x5,%eax
    18d4:	74 2f                	je     1905 <riscv_dsp_convert_q15_f32+0x145>
    18d6:	0f bf 57 0a          	movswl 0xa(%rdi),%edx
    18da:	66 0f ef c9          	pxor   %xmm1,%xmm1
    18de:	f3 0f 2a ca          	cvtsi2ss %edx,%xmm1
    18e2:	f3 0f 59 c8          	mulss  %xmm0,%xmm1
    18e6:	f3 0f 11 49 14       	movss  %xmm1,0x14(%rcx)
    18eb:	83 f8 06             	cmp    $0x6,%eax
    18ee:	74 15                	je     1905 <riscv_dsp_convert_q15_f32+0x145>
    18f0:	0f bf 47 0c          	movswl 0xc(%rdi),%eax
    18f4:	66 0f ef c9          	pxor   %xmm1,%xmm1
    18f8:	f3 0f 2a c8          	cvtsi2ss %eax,%xmm1
    18fc:	f3 0f 59 c8          	mulss  %xmm0,%xmm1
    1900:	f3 0f 11 49 18       	movss  %xmm1,0x18(%rcx)
    1905:	c3                   	ret    
    1906:	66 2e 0f 1f 84 00 00 	cs nopw 0x0(%rax,%rax,1)
    190d:	00 00 00 
    1910:	c3                   	ret    
    1911:	89 d0                	mov    %edx,%eax
    1913:	e9 32 ff ff ff       	jmp    184a <riscv_dsp_convert_q15_f32+0x8a>
    1918:	0f 1f 84 00 00 00 00 	nopl   0x0(%rax,%rax,1)
    191f:	00 

0000000000001920 <riscv_dsp_convert_q7_q15>:
    1920:	f3 0f 1e fa          	endbr64 
    1924:	41 89 d2             	mov    %edx,%r10d
    1927:	41 89 d0             	mov    %edx,%r8d
    192a:	48 89 f1             	mov    %rsi,%rcx
    192d:	41 83 e2 01          	and    $0x1,%r10d
    1931:	41 d1 e8             	shr    %r8d
    1934:	0f 84 4b 01 00 00    	je     1a85 <riscv_dsp_convert_q7_q15+0x165>
    193a:	41 8d 40 ff          	lea    -0x1(%r8),%eax
    193e:	83 f8 06             	cmp    $0x6,%eax
    1941:	0f 86 4d 01 00 00    	jbe    1a94 <riscv_dsp_convert_q7_q15+0x174>
    1947:	c1 ea 04             	shr    $0x4,%edx
    194a:	31 c0                	xor    %eax,%eax
    194c:	66 0f ef db          	pxor   %xmm3,%xmm3
    1950:	89 d6                	mov    %edx,%esi
    1952:	48 c1 e6 04          	shl    $0x4,%rsi
    1956:	66 2e 0f 1f 84 00 00 	cs nopw 0x0(%rax,%rax,1)
    195d:	00 00 00 
    1960:	f3 0f 6f 04 07       	movdqu (%rdi,%rax,1),%xmm0
    1965:	66 0f 6f d3          	movdqa %xmm3,%xmm2
    1969:	66 0f 64 d0          	pcmpgtb %xmm0,%xmm2
    196d:	66 0f 6f c8          	movdqa %xmm0,%xmm1
    1971:	66 0f 60 ca          	punpcklbw %xmm2,%xmm1
    1975:	66 0f 68 c2          	punpckhbw %xmm2,%xmm0
    1979:	66 0f 71 f1 08       	psllw  $0x8,%xmm1
    197e:	66 0f 71 f0 08       	psllw  $0x8,%xmm0
    1983:	0f 11 0c 41          	movups %xmm1,(%rcx,%rax,2)
    1987:	0f 11 44 41 10       	movups %xmm0,0x10(%rcx,%rax,2)
    198c:	48 83 c0 10          	add    $0x10,%rax
    1990:	48 39 c6             	cmp    %rax,%rsi
    1993:	75 cb                	jne    1960 <riscv_dsp_convert_q7_q15+0x40>
    1995:	8d 04 d5 00 00 00 00 	lea    0x0(,%rdx,8),%eax
    199c:	45 89 c1             	mov    %r8d,%r9d
    199f:	48 89 c2             	mov    %rax,%rdx
    19a2:	48 8d 34 47          	lea    (%rdi,%rax,2),%rsi
    19a6:	48 8d 04 81          	lea    (%rcx,%rax,4),%rax
    19aa:	41 29 d1             	sub    %edx,%r9d
    19ad:	41 39 d0             	cmp    %edx,%r8d
    19b0:	0f 84 c4 00 00 00    	je     1a7a <riscv_dsp_convert_q7_q15+0x15a>
    19b6:	0f be 16             	movsbl (%rsi),%edx
    19b9:	c1 e2 08             	shl    $0x8,%edx
    19bc:	66 89 10             	mov    %dx,(%rax)
    19bf:	0f be 56 01          	movsbl 0x1(%rsi),%edx
    19c3:	c1 e2 08             	shl    $0x8,%edx
    19c6:	66 89 50 02          	mov    %dx,0x2(%rax)
    19ca:	41 83 f9 01          	cmp    $0x1,%r9d
    19ce:	0f 84 a6 00 00 00    	je     1a7a <riscv_dsp_convert_q7_q15+0x15a>
    19d4:	0f be 56 02          	movsbl 0x2(%rsi),%edx
    19d8:	c1 e2 08             	shl    $0x8,%edx
    19db:	66 89 50 04          	mov    %dx,0x4(%rax)
    19df:	0f be 56 03          	movsbl 0x3(%rsi),%edx
    19e3:	c1 e2 08             	shl    $0x8,%edx
    19e6:	66 89 50 06          	mov    %dx,0x6(%rax)
    19ea:	41 83 f9 02          	cmp    $0x2,%r9d
    19ee:	0f 84 86 00 00 00    	je     1a7a <riscv_dsp_convert_q7_q15+0x15a>
    19f4:	0f be 56 04          	movsbl 0x4(%rsi),%edx
    19f8:	c1 e2 08             	shl    $0x8,%edx
    19fb:	66 89 50 08          	mov    %dx,0x8(%rax)
    19ff:	0f be 56 05          	movsbl 0x5(%rsi),%edx
    1a03:	c1 e2 08             	shl    $0x8,%edx
    1a06:	66 89 50 0a          	mov    %dx,0xa(%rax)
    1a0a:	41 83 f9 03          	cmp    $0x3,%r9d
    1a0e:	74 6a                	je     1a7a <riscv_dsp_convert_q7_q15+0x15a>
    1a10:	0f be 56 06          	movsbl 0x6(%rsi),%edx
    1a14:	c1 e2 08             	shl    $0x8,%edx
    1a17:	66 89 50 0c          	mov    %dx,0xc(%rax)
    1a1b:	0f be 56 07          	movsbl 0x7(%rsi),%edx
    1a1f:	c1 e2 08             	shl    $0x8,%edx
    1a22:	66 89 50 0e          	mov    %dx,0xe(%rax)
    1a26:	41 83 f9 04          	cmp    $0x4,%r9d
    1a2a:	74 4e                	je     1a7a <riscv_dsp_convert_q7_q15+0x15a>
    1a2c:	0f be 56 08          	movsbl 0x8(%rsi),%edx
    1a30:	c1 e2 08             	shl    $0x8,%edx
    1a33:	66 89 50 10          	mov    %dx,0x10(%rax)
    1a37:	0f be 56 09          	movsbl 0x9(%rsi),%edx
    1a3b:	c1 e2 08             	shl    $0x8,%edx
    1a3e:	66 89 50 12          	mov    %dx,0x12(%rax)
    1a42:	41 83 f9 05          	cmp    $0x5,%r9d
    1a46:	74 32                	je     1a7a <riscv_dsp_convert_q7_q15+0x15a>
    1a48:	0f be 56 0a          	movsbl 0xa(%rsi),%edx
    1a4c:	c1 e2 08             	shl    $0x8,%edx
    1a4f:	66 89 50 14          	mov    %dx,0x14(%rax)
    1a53:	0f be 56 0b          	movsbl 0xb(%rsi),%edx
    1a57:	c1 e2 08             	shl    $0x8,%edx
    1a5a:	66 89 50 16          	mov    %dx,0x16(%rax)
    1a5e:	41 83 f9 06          	cmp    $0x6,%r9d
    1a62:	74 16                	je     1a7a <riscv_dsp_convert_q7_q15+0x15a>
    1a64:	0f be 56 0c          	movsbl 0xc(%rsi),%edx
    1a68:	c1 e2 08             	shl    $0x8,%edx
    1a6b:	66 89 50 18          	mov    %dx,0x18(%rax)
    1a6f:	0f be 56 0d          	movsbl 0xd(%rsi),%edx
    1a73:	c1 e2 08             	shl    $0x8,%edx
    1a76:	66 89 50 1a          	mov    %dx,0x1a(%rax)
    1a7a:	45 89 c0             	mov    %r8d,%r8d
    1a7d:	4a 8d 3c 47          	lea    (%rdi,%r8,2),%rdi
    1a81:	4a 8d 0c 81          	lea    (%rcx,%r8,4),%rcx
    1a85:	45 85 d2             	test   %r10d,%r10d
    1a88:	74 09                	je     1a93 <riscv_dsp_convert_q7_q15+0x173>
    1a8a:	0f be 07             	movsbl (%rdi),%eax
    1a8d:	c1 e0 08             	shl    $0x8,%eax
    1a90:	66 89 01             	mov    %ax,(%rcx)
    1a93:	c3                   	ret    
    1a94:	48 89 f0             	mov    %rsi,%rax
    1a97:	45 89 c1             	mov    %r8d,%r9d
    1a9a:	48 89 fe             	mov    %rdi,%rsi
    1a9d:	e9 14 ff ff ff       	jmp    19b6 <riscv_dsp_convert_q7_q15+0x96>

Disassembly of section .fini:

0000000000001aa4 <_fini>:
    1aa4:	f3 0f 1e fa          	endbr64 
    1aa8:	48 83 ec 08          	sub    $0x8,%rsp
    1aac:	48 83 c4 08          	add    $0x8,%rsp
    1ab0:	c3                   	ret    
