
t_corr_q7:     file format elf64-x86-64


Disassembly of section .init:

0000000000001000 <_init>:
    1000:	f3 0f 1e fa          	endbr64 
    1004:	48 83 ec 08          	sub    $0x8,%rsp
    1008:	48 8b 05 d9 3f 00 00 	mov    0x3fd9(%rip),%rax        # 4fe8 <__gmon_start__@Base>
    100f:	48 85 c0             	test   %rax,%rax
    1012:	74 02                	je     1016 <_init+0x16>
    1014:	ff d0                	call   *%rax
    1016:	48 83 c4 08          	add    $0x8,%rsp
    101a:	c3                   	ret    

Disassembly of section .plt:

0000000000001020 <.plt>:
    1020:	ff 35 52 3f 00 00    	push   0x3f52(%rip)        # 4f78 <_GLOBAL_OFFSET_TABLE_+0x8>
    1026:	f2 ff 25 53 3f 00 00 	bnd jmp *0x3f53(%rip)        # 4f80 <_GLOBAL_OFFSET_TABLE_+0x10>
    102d:	0f 1f 00             	nopl   (%rax)
    1030:	f3 0f 1e fa          	endbr64 
    1034:	68 00 00 00 00       	push   $0x0
    1039:	f2 e9 e1 ff ff ff    	bnd jmp 1020 <_init+0x20>
    103f:	90                   	nop
    1040:	f3 0f 1e fa          	endbr64 
    1044:	68 01 00 00 00       	push   $0x1
    1049:	f2 e9 d1 ff ff ff    	bnd jmp 1020 <_init+0x20>
    104f:	90                   	nop
    1050:	f3 0f 1e fa          	endbr64 
    1054:	68 02 00 00 00       	push   $0x2
    1059:	f2 e9 c1 ff ff ff    	bnd jmp 1020 <_init+0x20>
    105f:	90                   	nop
    1060:	f3 0f 1e fa          	endbr64 
    1064:	68 03 00 00 00       	push   $0x3
    1069:	f2 e9 b1 ff ff ff    	bnd jmp 1020 <_init+0x20>
    106f:	90                   	nop
    1070:	f3 0f 1e fa          	endbr64 
    1074:	68 04 00 00 00       	push   $0x4
    1079:	f2 e9 a1 ff ff ff    	bnd jmp 1020 <_init+0x20>
    107f:	90                   	nop
    1080:	f3 0f 1e fa          	endbr64 
    1084:	68 05 00 00 00       	push   $0x5
    1089:	f2 e9 91 ff ff ff    	bnd jmp 1020 <_init+0x20>
    108f:	90                   	nop
    1090:	f3 0f 1e fa          	endbr64 
    1094:	68 06 00 00 00       	push   $0x6
    1099:	f2 e9 81 ff ff ff    	bnd jmp 1020 <_init+0x20>
    109f:	90                   	nop
    10a0:	f3 0f 1e fa          	endbr64 
    10a4:	68 07 00 00 00       	push   $0x7
    10a9:	f2 e9 71 ff ff ff    	bnd jmp 1020 <_init+0x20>
    10af:	90                   	nop
    10b0:	f3 0f 1e fa          	endbr64 
    10b4:	68 08 00 00 00       	push   $0x8
    10b9:	f2 e9 61 ff ff ff    	bnd jmp 1020 <_init+0x20>
    10bf:	90                   	nop
    10c0:	f3 0f 1e fa          	endbr64 
    10c4:	68 09 00 00 00       	push   $0x9
    10c9:	f2 e9 51 ff ff ff    	bnd jmp 1020 <_init+0x20>
    10cf:	90                   	nop

Disassembly of section .plt.got:

00000000000010d0 <__cxa_finalize@plt>:
    10d0:	f3 0f 1e fa          	endbr64 
    10d4:	f2 ff 25 1d 3f 00 00 	bnd jmp *0x3f1d(%rip)        # 4ff8 <__cxa_finalize@GLIBC_2.2.5>
    10db:	0f 1f 44 00 00       	nopl   0x0(%rax,%rax,1)

Disassembly of section .plt.sec:

00000000000010e0 <puts@plt>:
    10e0:	f3 0f 1e fa          	endbr64 
    10e4:	f2 ff 25 9d 3e 00 00 	bnd jmp *0x3e9d(%rip)        # 4f88 <puts@GLIBC_2.2.5>
    10eb:	0f 1f 44 00 00       	nopl   0x0(%rax,%rax,1)

00000000000010f0 <fread@plt>:
    10f0:	f3 0f 1e fa          	endbr64 
    10f4:	f2 ff 25 95 3e 00 00 	bnd jmp *0x3e95(%rip)        # 4f90 <fread@GLIBC_2.2.5>
    10fb:	0f 1f 44 00 00       	nopl   0x0(%rax,%rax,1)

0000000000001100 <fclose@plt>:
    1100:	f3 0f 1e fa          	endbr64 
    1104:	f2 ff 25 8d 3e 00 00 	bnd jmp *0x3e8d(%rip)        # 4f98 <fclose@GLIBC_2.2.5>
    110b:	0f 1f 44 00 00       	nopl   0x0(%rax,%rax,1)

0000000000001110 <__stack_chk_fail@plt>:
    1110:	f3 0f 1e fa          	endbr64 
    1114:	f2 ff 25 85 3e 00 00 	bnd jmp *0x3e85(%rip)        # 4fa0 <__stack_chk_fail@GLIBC_2.4>
    111b:	0f 1f 44 00 00       	nopl   0x0(%rax,%rax,1)

0000000000001120 <memset@plt>:
    1120:	f3 0f 1e fa          	endbr64 
    1124:	f2 ff 25 7d 3e 00 00 	bnd jmp *0x3e7d(%rip)        # 4fa8 <memset@GLIBC_2.2.5>
    112b:	0f 1f 44 00 00       	nopl   0x0(%rax,%rax,1)

0000000000001130 <log10f@plt>:
    1130:	f3 0f 1e fa          	endbr64 
    1134:	f2 ff 25 75 3e 00 00 	bnd jmp *0x3e75(%rip)        # 4fb0 <log10f@GLIBC_2.2.5>
    113b:	0f 1f 44 00 00       	nopl   0x0(%rax,%rax,1)

0000000000001140 <__printf_chk@plt>:
    1140:	f3 0f 1e fa          	endbr64 
    1144:	f2 ff 25 6d 3e 00 00 	bnd jmp *0x3e6d(%rip)        # 4fb8 <__printf_chk@GLIBC_2.3.4>
    114b:	0f 1f 44 00 00       	nopl   0x0(%rax,%rax,1)

0000000000001150 <fopen@plt>:
    1150:	f3 0f 1e fa          	endbr64 
    1154:	f2 ff 25 65 3e 00 00 	bnd jmp *0x3e65(%rip)        # 4fc0 <fopen@GLIBC_2.2.5>
    115b:	0f 1f 44 00 00       	nopl   0x0(%rax,%rax,1)

0000000000001160 <sqrt@plt>:
    1160:	f3 0f 1e fa          	endbr64 
    1164:	f2 ff 25 5d 3e 00 00 	bnd jmp *0x3e5d(%rip)        # 4fc8 <sqrt@GLIBC_2.2.5>
    116b:	0f 1f 44 00 00       	nopl   0x0(%rax,%rax,1)

0000000000001170 <__sprintf_chk@plt>:
    1170:	f3 0f 1e fa          	endbr64 
    1174:	f2 ff 25 55 3e 00 00 	bnd jmp *0x3e55(%rip)        # 4fd0 <__sprintf_chk@GLIBC_2.3.4>
    117b:	0f 1f 44 00 00       	nopl   0x0(%rax,%rax,1)

Disassembly of section .text:

0000000000001180 <main>:
    1180:	f3 0f 1e fa          	endbr64 
    1184:	55                   	push   %rbp
    1185:	48 89 e5             	mov    %rsp,%rbp
    1188:	41 57                	push   %r15
    118a:	41 56                	push   %r14
    118c:	41 55                	push   %r13
    118e:	41 54                	push   %r12
    1190:	53                   	push   %rbx
    1191:	48 81 ec d8 02 00 00 	sub    $0x2d8,%rsp
    1198:	64 48 8b 04 25 28 00 	mov    %fs:0x28,%rax
    119f:	00 00 
    11a1:	48 89 45 c8          	mov    %rax,-0x38(%rbp)
    11a5:	31 c0                	xor    %eax,%eax
    11a7:	48 8d 84 24 00 d0 ff 	lea    -0x3000(%rsp),%rax
    11ae:	ff 
    11af:	48 39 c4             	cmp    %rax,%rsp
    11b2:	74 15                	je     11c9 <main+0x49>
    11b4:	48 81 ec 00 10 00 00 	sub    $0x1000,%rsp
    11bb:	48 83 8c 24 f8 0f 00 	orq    $0x0,0xff8(%rsp)
    11c2:	00 00 
    11c4:	48 39 c4             	cmp    %rax,%rsp
    11c7:	75 eb                	jne    11b4 <main+0x34>
    11c9:	48 81 ec a0 01 00 00 	sub    $0x1a0,%rsp
    11d0:	48 83 8c 24 98 01 00 	orq    $0x0,0x198(%rsp)
    11d7:	00 00 
    11d9:	48 89 a5 30 fd ff ff 	mov    %rsp,-0x2d0(%rbp)
    11e0:	48 8d 84 24 00 d0 ff 	lea    -0x3000(%rsp),%rax
    11e7:	ff 
    11e8:	48 39 c4             	cmp    %rax,%rsp
    11eb:	74 12                	je     11ff <main+0x7f>
    11ed:	48 81 ec 00 10 00 00 	sub    $0x1000,%rsp
    11f4:	48 83 8c 24 f8 0f 00 	orq    $0x0,0xff8(%rsp)
    11fb:	00 00 
    11fd:	eb e9                	jmp    11e8 <main+0x68>
    11ff:	48 81 ec a0 01 00 00 	sub    $0x1a0,%rsp
    1206:	48 83 8c 24 98 01 00 	orq    $0x0,0x198(%rsp)
    120d:	00 00 
    120f:	48 89 a5 28 fd ff ff 	mov    %rsp,-0x2d8(%rbp)
    1216:	48 8d 84 24 00 d0 ff 	lea    -0x3000(%rsp),%rax
    121d:	ff 
    121e:	48 39 c4             	cmp    %rax,%rsp
    1221:	74 12                	je     1235 <main+0xb5>
    1223:	48 81 ec 00 10 00 00 	sub    $0x1000,%rsp
    122a:	48 83 8c 24 f8 0f 00 	orq    $0x0,0xff8(%rsp)
    1231:	00 00 
    1233:	eb e9                	jmp    121e <main+0x9e>
    1235:	48 81 ec a0 01 00 00 	sub    $0x1a0,%rsp
    123c:	48 83 8c 24 98 01 00 	orq    $0x0,0x198(%rsp)
    1243:	00 00 
    1245:	4c 8d 05 cc 1e 00 00 	lea    0x1ecc(%rip),%r8        # 3118 <_IO_stdin_used+0x118>
    124c:	ba 00 02 00 00       	mov    $0x200,%edx
    1251:	31 c0                	xor    %eax,%eax
    1253:	48 8d 0d d2 1d 00 00 	lea    0x1dd2(%rip),%rcx        # 302c <_IO_stdin_used+0x2c>
    125a:	be 01 00 00 00       	mov    $0x1,%esi
    125f:	4c 8d 2d d8 1d 00 00 	lea    0x1dd8(%rip),%r13        # 303e <_IO_stdin_used+0x3e>
    1266:	4c 8d a5 c0 fd ff ff 	lea    -0x240(%rbp),%r12
    126d:	48 89 a5 20 fd ff ff 	mov    %rsp,-0x2e0(%rbp)
    1274:	4c 89 e7             	mov    %r12,%rdi
    1277:	e8 f4 fe ff ff       	call   1170 <__sprintf_chk@plt>
    127c:	4c 89 ee             	mov    %r13,%rsi
    127f:	4c 89 e7             	mov    %r12,%rdi
    1282:	e8 c9 fe ff ff       	call   1150 <fopen@plt>
    1287:	48 89 85 38 fd ff ff 	mov    %rax,-0x2c8(%rbp)
    128e:	48 85 c0             	test   %rax,%rax
    1291:	0f 84 e7 03 00 00    	je     167e <main+0x4fe>
    1297:	ba 00 02 00 00       	mov    $0x200,%edx
    129c:	be 01 00 00 00       	mov    $0x1,%esi
    12a1:	4c 89 e7             	mov    %r12,%rdi
    12a4:	31 c0                	xor    %eax,%eax
    12a6:	4c 8d 05 6b 1e 00 00 	lea    0x1e6b(%rip),%r8        # 3118 <_IO_stdin_used+0x118>
    12ad:	48 8d 0d 8c 1d 00 00 	lea    0x1d8c(%rip),%rcx        # 3040 <_IO_stdin_used+0x40>
    12b4:	e8 b7 fe ff ff       	call   1170 <__sprintf_chk@plt>
    12b9:	4c 89 ee             	mov    %r13,%rsi
    12bc:	4c 89 e7             	mov    %r12,%rdi
    12bf:	e8 8c fe ff ff       	call   1150 <fopen@plt>
    12c4:	48 89 85 50 fd ff ff 	mov    %rax,-0x2b0(%rbp)
    12cb:	48 85 c0             	test   %rax,%rax
    12ce:	0f 84 aa 03 00 00    	je     167e <main+0x4fe>
    12d4:	ba 00 02 00 00       	mov    $0x200,%edx
    12d9:	be 01 00 00 00       	mov    $0x1,%esi
    12de:	4c 89 e7             	mov    %r12,%rdi
    12e1:	31 c0                	xor    %eax,%eax
    12e3:	4c 8d 05 2e 1e 00 00 	lea    0x1e2e(%rip),%r8        # 3118 <_IO_stdin_used+0x118>
    12ea:	48 8d 0d 61 1d 00 00 	lea    0x1d61(%rip),%rcx        # 3052 <_IO_stdin_used+0x52>
    12f1:	e8 7a fe ff ff       	call   1170 <__sprintf_chk@plt>
    12f6:	4c 89 ee             	mov    %r13,%rsi
    12f9:	4c 89 e7             	mov    %r12,%rdi
    12fc:	e8 4f fe ff ff       	call   1150 <fopen@plt>
    1301:	48 89 85 48 fd ff ff 	mov    %rax,-0x2b8(%rbp)
    1308:	48 85 c0             	test   %rax,%rax
    130b:	0f 84 6d 03 00 00    	je     167e <main+0x4fe>
    1311:	ba 00 02 00 00       	mov    $0x200,%edx
    1316:	be 01 00 00 00       	mov    $0x1,%esi
    131b:	4c 89 e7             	mov    %r12,%rdi
    131e:	31 c0                	xor    %eax,%eax
    1320:	4c 8d 05 f1 1d 00 00 	lea    0x1df1(%rip),%r8        # 3118 <_IO_stdin_used+0x118>
    1327:	48 8d 0d 38 1d 00 00 	lea    0x1d38(%rip),%rcx        # 3066 <_IO_stdin_used+0x66>
    132e:	e8 3d fe ff ff       	call   1170 <__sprintf_chk@plt>
    1333:	4c 89 ee             	mov    %r13,%rsi
    1336:	4c 89 e7             	mov    %r12,%rdi
    1339:	e8 12 fe ff ff       	call   1150 <fopen@plt>
    133e:	48 89 85 18 fd ff ff 	mov    %rax,-0x2e8(%rbp)
    1345:	48 85 c0             	test   %rax,%rax
    1348:	0f 84 30 03 00 00    	je     167e <main+0x4fe>
    134e:	ba 00 02 00 00       	mov    $0x200,%edx
    1353:	be 01 00 00 00       	mov    $0x1,%esi
    1358:	4c 89 e7             	mov    %r12,%rdi
    135b:	31 c0                	xor    %eax,%eax
    135d:	4c 8d 05 b4 1d 00 00 	lea    0x1db4(%rip),%r8        # 3118 <_IO_stdin_used+0x118>
    1364:	48 8d 0d 16 1d 00 00 	lea    0x1d16(%rip),%rcx        # 3081 <_IO_stdin_used+0x81>
    136b:	e8 00 fe ff ff       	call   1170 <__sprintf_chk@plt>
    1370:	4c 89 ee             	mov    %r13,%rsi
    1373:	4c 89 e7             	mov    %r12,%rdi
    1376:	e8 d5 fd ff ff       	call   1150 <fopen@plt>
    137b:	48 89 85 10 fd ff ff 	mov    %rax,-0x2f0(%rbp)
    1382:	48 85 c0             	test   %rax,%rax
    1385:	0f 84 f3 02 00 00    	je     167e <main+0x4fe>
    138b:	ba 00 02 00 00       	mov    $0x200,%edx
    1390:	be 01 00 00 00       	mov    $0x1,%esi
    1395:	4c 89 e7             	mov    %r12,%rdi
    1398:	31 c0                	xor    %eax,%eax
    139a:	4c 8d 05 77 1d 00 00 	lea    0x1d77(%rip),%r8        # 3118 <_IO_stdin_used+0x118>
    13a1:	48 8d 0d f6 1c 00 00 	lea    0x1cf6(%rip),%rcx        # 309e <_IO_stdin_used+0x9e>
    13a8:	e8 c3 fd ff ff       	call   1170 <__sprintf_chk@plt>
    13ad:	4c 89 ee             	mov    %r13,%rsi
    13b0:	4c 89 e7             	mov    %r12,%rdi
    13b3:	e8 98 fd ff ff       	call   1150 <fopen@plt>
    13b8:	48 89 85 08 fd ff ff 	mov    %rax,-0x2f8(%rbp)
    13bf:	48 85 c0             	test   %rax,%rax
    13c2:	0f 84 b6 02 00 00    	je     167e <main+0x4fe>
    13c8:	4c 8b ad 30 fd ff ff 	mov    -0x2d0(%rbp),%r13
    13cf:	ba 9c 31 00 00       	mov    $0x319c,%edx
    13d4:	31 f6                	xor    %esi,%esi
    13d6:	4c 8d a5 70 fd ff ff 	lea    -0x290(%rbp),%r12
    13dd:	4c 8d bd 6c fd ff ff 	lea    -0x294(%rbp),%r15
    13e4:	4c 89 ef             	mov    %r13,%rdi
    13e7:	e8 34 fd ff ff       	call   1120 <memset@plt>
    13ec:	48 8b 9d 28 fd ff ff 	mov    -0x2d8(%rbp),%rbx
    13f3:	ba 9c 31 00 00       	mov    $0x319c,%edx
    13f8:	31 f6                	xor    %esi,%esi
    13fa:	48 89 df             	mov    %rbx,%rdi
    13fd:	e8 1e fd ff ff       	call   1120 <memset@plt>
    1402:	4c 8b b5 20 fd ff ff 	mov    -0x2e0(%rbp),%r14
    1409:	ba 9c 31 00 00       	mov    $0x319c,%edx
    140e:	31 f6                	xor    %esi,%esi
    1410:	4c 89 f7             	mov    %r14,%rdi
    1413:	e8 08 fd ff ff       	call   1120 <memset@plt>
    1418:	49 8d 85 9c 31 00 00 	lea    0x319c(%r13),%rax
    141f:	48 89 9d 58 fd ff ff 	mov    %rbx,-0x2a8(%rbp)
    1426:	48 8d 9d 80 fd ff ff 	lea    -0x280(%rbp),%rbx
    142d:	48 89 85 40 fd ff ff 	mov    %rax,-0x2c0(%rbp)
    1434:	4c 89 e0             	mov    %r12,%rax
    1437:	4d 89 ec             	mov    %r13,%r12
    143a:	49 89 c5             	mov    %rax,%r13
    143d:	0f 1f 00             	nopl   (%rax)
    1440:	48 8b 8d 38 fd ff ff 	mov    -0x2c8(%rbp),%rcx
    1447:	ba 40 00 00 00       	mov    $0x40,%edx
    144c:	be 01 00 00 00       	mov    $0x1,%esi
    1451:	48 89 df             	mov    %rbx,%rdi
    1454:	e8 97 fc ff ff       	call   10f0 <fread@plt>
    1459:	48 8b 8d 50 fd ff ff 	mov    -0x2b0(%rbp),%rcx
    1460:	ba 0f 00 00 00       	mov    $0xf,%edx
    1465:	4c 89 ef             	mov    %r13,%rdi
    1468:	be 01 00 00 00       	mov    $0x1,%esi
    146d:	e8 7e fc ff ff       	call   10f0 <fread@plt>
    1472:	48 8b 8d 48 fd ff ff 	mov    -0x2b8(%rbp),%rcx
    1479:	ba 03 00 00 00       	mov    $0x3,%edx
    147e:	4c 89 ff             	mov    %r15,%rdi
    1481:	be 01 00 00 00       	mov    $0x1,%esi
    1486:	e8 65 fc ff ff       	call   10f0 <fread@plt>
    148b:	4d 89 e0             	mov    %r12,%r8
    148e:	b9 0f 00 00 00       	mov    $0xf,%ecx
    1493:	4c 89 ea             	mov    %r13,%rdx
    1496:	be 40 00 00 00       	mov    $0x40,%esi
    149b:	48 89 df             	mov    %rbx,%rdi
    149e:	49 83 c4 7f          	add    $0x7f,%r12
    14a2:	e8 39 0c 00 00       	call   20e0 <riscv_dsp_corr_q7>
    14a7:	b9 40 00 00 00       	mov    $0x40,%ecx
    14ac:	48 89 da             	mov    %rbx,%rdx
    14af:	4c 89 ef             	mov    %r13,%rdi
    14b2:	4c 8b 85 58 fd ff ff 	mov    -0x2a8(%rbp),%r8
    14b9:	be 0f 00 00 00       	mov    $0xf,%esi
    14be:	e8 1d 0c 00 00       	call   20e0 <riscv_dsp_corr_q7>
    14c3:	4d 89 f0             	mov    %r14,%r8
    14c6:	b9 03 00 00 00       	mov    $0x3,%ecx
    14cb:	4c 89 fa             	mov    %r15,%rdx
    14ce:	be 40 00 00 00       	mov    $0x40,%esi
    14d3:	48 89 df             	mov    %rbx,%rdi
    14d6:	49 83 c6 7f          	add    $0x7f,%r14
    14da:	e8 01 0c 00 00       	call   20e0 <riscv_dsp_corr_q7>
    14df:	48 83 85 58 fd ff ff 	addq   $0x7f,-0x2a8(%rbp)
    14e6:	7f 
    14e7:	4c 3b a5 40 fd ff ff 	cmp    -0x2c0(%rbp),%r12
    14ee:	0f 85 4c ff ff ff    	jne    1440 <main+0x2c0>
    14f4:	48 8d 84 24 00 d0 ff 	lea    -0x3000(%rsp),%rax
    14fb:	ff 
    14fc:	48 39 c4             	cmp    %rax,%rsp
    14ff:	74 15                	je     1516 <main+0x396>
    1501:	48 81 ec 00 10 00 00 	sub    $0x1000,%rsp
    1508:	48 83 8c 24 f8 0f 00 	orq    $0x0,0xff8(%rsp)
    150f:	00 00 
    1511:	48 39 c4             	cmp    %rax,%rsp
    1514:	75 eb                	jne    1501 <main+0x381>
    1516:	48 81 ec a0 01 00 00 	sub    $0x1a0,%rsp
    151d:	48 83 8c 24 98 01 00 	orq    $0x0,0x198(%rsp)
    1524:	00 00 
    1526:	48 89 e3             	mov    %rsp,%rbx
    1529:	48 8d 84 24 00 d0 ff 	lea    -0x3000(%rsp),%rax
    1530:	ff 
    1531:	48 39 c4             	cmp    %rax,%rsp
    1534:	74 12                	je     1548 <main+0x3c8>
    1536:	48 81 ec 00 10 00 00 	sub    $0x1000,%rsp
    153d:	48 83 8c 24 f8 0f 00 	orq    $0x0,0xff8(%rsp)
    1544:	00 00 
    1546:	eb e9                	jmp    1531 <main+0x3b1>
    1548:	48 81 ec a0 01 00 00 	sub    $0x1a0,%rsp
    154f:	48 83 8c 24 98 01 00 	orq    $0x0,0x198(%rsp)
    1556:	00 00 
    1558:	49 89 e4             	mov    %rsp,%r12
    155b:	48 8d 84 24 00 d0 ff 	lea    -0x3000(%rsp),%rax
    1562:	ff 
    1563:	48 39 c4             	cmp    %rax,%rsp
    1566:	74 12                	je     157a <main+0x3fa>
    1568:	48 81 ec 00 10 00 00 	sub    $0x1000,%rsp
    156f:	48 83 8c 24 f8 0f 00 	orq    $0x0,0xff8(%rsp)
    1576:	00 00 
    1578:	eb e9                	jmp    1563 <main+0x3e3>
    157a:	48 81 ec a0 01 00 00 	sub    $0x1a0,%rsp
    1581:	48 83 8c 24 98 01 00 	orq    $0x0,0x198(%rsp)
    1588:	00 00 
    158a:	48 8b b5 18 fd ff ff 	mov    -0x2e8(%rbp),%rsi
    1591:	48 89 df             	mov    %rbx,%rdi
    1594:	49 89 e5             	mov    %rsp,%r13
    1597:	e8 34 06 00 00       	call   1bd0 <test_Fread.constprop.3.isra.0>
    159c:	4c 8b b5 10 fd ff ff 	mov    -0x2f0(%rbp),%r14
    15a3:	4c 89 e7             	mov    %r12,%rdi
    15a6:	4c 89 f6             	mov    %r14,%rsi
    15a9:	e8 22 06 00 00       	call   1bd0 <test_Fread.constprop.3.isra.0>
    15ae:	4c 8b bd 08 fd ff ff 	mov    -0x2f8(%rbp),%r15
    15b5:	48 89 e7             	mov    %rsp,%rdi
    15b8:	4c 89 fe             	mov    %r15,%rsi
    15bb:	e8 10 06 00 00       	call   1bd0 <test_Fread.constprop.3.isra.0>
    15c0:	48 8b b5 30 fd ff ff 	mov    -0x2d0(%rbp),%rsi
    15c7:	48 89 df             	mov    %rbx,%rdi
    15ca:	e8 21 06 00 00       	call   1bf0 <dump2_q7.constprop.0.isra.0>
    15cf:	48 8b b5 28 fd ff ff 	mov    -0x2d8(%rbp),%rsi
    15d6:	4c 89 e7             	mov    %r12,%rdi
    15d9:	e8 12 06 00 00       	call   1bf0 <dump2_q7.constprop.0.isra.0>
    15de:	48 8b b5 20 fd ff ff 	mov    -0x2e0(%rbp),%rsi
    15e5:	48 89 e7             	mov    %rsp,%rdi
    15e8:	e8 03 06 00 00       	call   1bf0 <dump2_q7.constprop.0.isra.0>
    15ed:	48 8b bd 38 fd ff ff 	mov    -0x2c8(%rbp),%rdi
    15f4:	e8 07 fb ff ff       	call   1100 <fclose@plt>
    15f9:	48 8b bd 50 fd ff ff 	mov    -0x2b0(%rbp),%rdi
    1600:	e8 fb fa ff ff       	call   1100 <fclose@plt>
    1605:	48 8b bd 18 fd ff ff 	mov    -0x2e8(%rbp),%rdi
    160c:	e8 ef fa ff ff       	call   1100 <fclose@plt>
    1611:	48 8b bd 48 fd ff ff 	mov    -0x2b8(%rbp),%rdi
    1618:	e8 e3 fa ff ff       	call   1100 <fclose@plt>
    161d:	4c 89 f7             	mov    %r14,%rdi
    1620:	e8 db fa ff ff       	call   1100 <fclose@plt>
    1625:	4c 89 ff             	mov    %r15,%rdi
    1628:	e8 d3 fa ff ff       	call   1100 <fclose@plt>
    162d:	48 8d 84 24 00 40 ff 	lea    -0xc000(%rsp),%rax
    1634:	ff 
    1635:	48 39 c4             	cmp    %rax,%rsp
    1638:	74 12                	je     164c <main+0x4cc>
    163a:	48 81 ec 00 10 00 00 	sub    $0x1000,%rsp
    1641:	48 83 8c 24 f8 0f 00 	orq    $0x0,0xff8(%rsp)
    1648:	00 00 
    164a:	eb e9                	jmp    1635 <main+0x4b5>
    164c:	48 81 ec 70 06 00 00 	sub    $0x670,%rsp
    1653:	48 83 8c 24 68 06 00 	orq    $0x0,0x668(%rsp)
    165a:	00 00 
    165c:	49 89 e7             	mov    %rsp,%r15
    165f:	48 8d 84 24 00 40 ff 	lea    -0xc000(%rsp),%rax
    1666:	ff 
    1667:	48 39 c4             	cmp    %rax,%rsp
    166a:	74 37                	je     16a3 <main+0x523>
    166c:	48 81 ec 00 10 00 00 	sub    $0x1000,%rsp
    1673:	48 83 8c 24 f8 0f 00 	orq    $0x0,0xff8(%rsp)
    167a:	00 00 
    167c:	eb e9                	jmp    1667 <main+0x4e7>
    167e:	83 c8 ff             	or     $0xffffffff,%eax
    1681:	48 8b 55 c8          	mov    -0x38(%rbp),%rdx
    1685:	64 48 2b 14 25 28 00 	sub    %fs:0x28,%rdx
    168c:	00 00 
    168e:	0f 85 c6 00 00 00    	jne    175a <main+0x5da>
    1694:	48 8d 65 d8          	lea    -0x28(%rbp),%rsp
    1698:	5b                   	pop    %rbx
    1699:	41 5c                	pop    %r12
    169b:	41 5d                	pop    %r13
    169d:	41 5e                	pop    %r14
    169f:	41 5f                	pop    %r15
    16a1:	5d                   	pop    %rbp
    16a2:	c3                   	ret    
    16a3:	48 81 ec 70 06 00 00 	sub    $0x670,%rsp
    16aa:	48 83 8c 24 68 06 00 	orq    $0x0,0x668(%rsp)
    16b1:	00 00 
    16b3:	ba 9c 31 00 00       	mov    $0x319c,%edx
    16b8:	4c 89 fe             	mov    %r15,%rsi
    16bb:	48 89 df             	mov    %rbx,%rdi
    16be:	49 89 e6             	mov    %rsp,%r14
    16c1:	e8 8a 07 00 00       	call   1e50 <riscv_dsp_convert_q7_f32>
    16c6:	48 8b bd 30 fd ff ff 	mov    -0x2d0(%rbp),%rdi
    16cd:	ba 9c 31 00 00       	mov    $0x319c,%edx
    16d2:	4c 89 f6             	mov    %r14,%rsi
    16d5:	e8 76 07 00 00       	call   1e50 <riscv_dsp_convert_q7_f32>
    16da:	4c 89 f6             	mov    %r14,%rsi
    16dd:	4c 89 ff             	mov    %r15,%rdi
    16e0:	e8 6b 01 00 00       	call   1850 <dump_rmsd_avg.constprop.0>
    16e5:	ba 9c 31 00 00       	mov    $0x319c,%edx
    16ea:	4c 89 fe             	mov    %r15,%rsi
    16ed:	4c 89 e7             	mov    %r12,%rdi
    16f0:	e8 5b 07 00 00       	call   1e50 <riscv_dsp_convert_q7_f32>
    16f5:	48 8b bd 28 fd ff ff 	mov    -0x2d8(%rbp),%rdi
    16fc:	ba 9c 31 00 00       	mov    $0x319c,%edx
    1701:	4c 89 f6             	mov    %r14,%rsi
    1704:	e8 47 07 00 00       	call   1e50 <riscv_dsp_convert_q7_f32>
    1709:	4c 89 f6             	mov    %r14,%rsi
    170c:	4c 89 ff             	mov    %r15,%rdi
    170f:	e8 3c 01 00 00       	call   1850 <dump_rmsd_avg.constprop.0>
    1714:	ba 9c 31 00 00       	mov    $0x319c,%edx
    1719:	4c 89 fe             	mov    %r15,%rsi
    171c:	4c 89 ef             	mov    %r13,%rdi
    171f:	e8 2c 07 00 00       	call   1e50 <riscv_dsp_convert_q7_f32>
    1724:	48 8b bd 20 fd ff ff 	mov    -0x2e0(%rbp),%rdi
    172b:	ba 9c 31 00 00       	mov    $0x319c,%edx
    1730:	4c 89 f6             	mov    %r14,%rsi
    1733:	e8 18 07 00 00       	call   1e50 <riscv_dsp_convert_q7_f32>
    1738:	4c 89 f6             	mov    %r14,%rsi
    173b:	4c 89 ff             	mov    %r15,%rdi
    173e:	e8 0d 01 00 00       	call   1850 <dump_rmsd_avg.constprop.0>
    1743:	f2 0f 10 0d 3d 1a 00 	movsd  0x1a3d(%rip),%xmm1        # 3188 <_IO_stdin_used+0x188>
    174a:	00 
    174b:	f3 0f 5a c0          	cvtss2sd %xmm0,%xmm0
    174f:	66 0f 2f c8          	comisd %xmm0,%xmm1
    1753:	19 c0                	sbb    %eax,%eax
    1755:	e9 27 ff ff ff       	jmp    1681 <main+0x501>
    175a:	e8 b1 f9 ff ff       	call   1110 <__stack_chk_fail@plt>
    175f:	90                   	nop

0000000000001760 <_start>:
    1760:	f3 0f 1e fa          	endbr64 
    1764:	31 ed                	xor    %ebp,%ebp
    1766:	49 89 d1             	mov    %rdx,%r9
    1769:	5e                   	pop    %rsi
    176a:	48 89 e2             	mov    %rsp,%rdx
    176d:	48 83 e4 f0          	and    $0xfffffffffffffff0,%rsp
    1771:	50                   	push   %rax
    1772:	54                   	push   %rsp
    1773:	45 31 c0             	xor    %r8d,%r8d
    1776:	31 c9                	xor    %ecx,%ecx
    1778:	48 8d 3d 01 fa ff ff 	lea    -0x5ff(%rip),%rdi        # 1180 <main>
    177f:	ff 15 53 38 00 00    	call   *0x3853(%rip)        # 4fd8 <__libc_start_main@GLIBC_2.34>
    1785:	f4                   	hlt    
    1786:	66 2e 0f 1f 84 00 00 	cs nopw 0x0(%rax,%rax,1)
    178d:	00 00 00 

0000000000001790 <deregister_tm_clones>:
    1790:	48 8d 3d 79 38 00 00 	lea    0x3879(%rip),%rdi        # 5010 <__TMC_END__>
    1797:	48 8d 05 72 38 00 00 	lea    0x3872(%rip),%rax        # 5010 <__TMC_END__>
    179e:	48 39 f8             	cmp    %rdi,%rax
    17a1:	74 15                	je     17b8 <deregister_tm_clones+0x28>
    17a3:	48 8b 05 36 38 00 00 	mov    0x3836(%rip),%rax        # 4fe0 <_ITM_deregisterTMCloneTable@Base>
    17aa:	48 85 c0             	test   %rax,%rax
    17ad:	74 09                	je     17b8 <deregister_tm_clones+0x28>
    17af:	ff e0                	jmp    *%rax
    17b1:	0f 1f 80 00 00 00 00 	nopl   0x0(%rax)
    17b8:	c3                   	ret    
    17b9:	0f 1f 80 00 00 00 00 	nopl   0x0(%rax)

00000000000017c0 <register_tm_clones>:
    17c0:	48 8d 3d 49 38 00 00 	lea    0x3849(%rip),%rdi        # 5010 <__TMC_END__>
    17c7:	48 8d 35 42 38 00 00 	lea    0x3842(%rip),%rsi        # 5010 <__TMC_END__>
    17ce:	48 29 fe             	sub    %rdi,%rsi
    17d1:	48 89 f0             	mov    %rsi,%rax
    17d4:	48 c1 ee 3f          	shr    $0x3f,%rsi
    17d8:	48 c1 f8 03          	sar    $0x3,%rax
    17dc:	48 01 c6             	add    %rax,%rsi
    17df:	48 d1 fe             	sar    %rsi
    17e2:	74 14                	je     17f8 <register_tm_clones+0x38>
    17e4:	48 8b 05 05 38 00 00 	mov    0x3805(%rip),%rax        # 4ff0 <_ITM_registerTMCloneTable@Base>
    17eb:	48 85 c0             	test   %rax,%rax
    17ee:	74 08                	je     17f8 <register_tm_clones+0x38>
    17f0:	ff e0                	jmp    *%rax
    17f2:	66 0f 1f 44 00 00    	nopw   0x0(%rax,%rax,1)
    17f8:	c3                   	ret    
    17f9:	0f 1f 80 00 00 00 00 	nopl   0x0(%rax)

0000000000001800 <__do_global_dtors_aux>:
    1800:	f3 0f 1e fa          	endbr64 
    1804:	80 3d 05 38 00 00 00 	cmpb   $0x0,0x3805(%rip)        # 5010 <__TMC_END__>
    180b:	75 2b                	jne    1838 <__do_global_dtors_aux+0x38>
    180d:	55                   	push   %rbp
    180e:	48 83 3d e2 37 00 00 	cmpq   $0x0,0x37e2(%rip)        # 4ff8 <__cxa_finalize@GLIBC_2.2.5>
    1815:	00 
    1816:	48 89 e5             	mov    %rsp,%rbp
    1819:	74 0c                	je     1827 <__do_global_dtors_aux+0x27>
    181b:	48 8b 3d e6 37 00 00 	mov    0x37e6(%rip),%rdi        # 5008 <__dso_handle>
    1822:	e8 a9 f8 ff ff       	call   10d0 <__cxa_finalize@plt>
    1827:	e8 64 ff ff ff       	call   1790 <deregister_tm_clones>
    182c:	c6 05 dd 37 00 00 01 	movb   $0x1,0x37dd(%rip)        # 5010 <__TMC_END__>
    1833:	5d                   	pop    %rbp
    1834:	c3                   	ret    
    1835:	0f 1f 00             	nopl   (%rax)
    1838:	c3                   	ret    
    1839:	0f 1f 80 00 00 00 00 	nopl   0x0(%rax)

0000000000001840 <frame_dummy>:
    1840:	f3 0f 1e fa          	endbr64 
    1844:	e9 77 ff ff ff       	jmp    17c0 <register_tm_clones>
    1849:	0f 1f 80 00 00 00 00 	nopl   0x0(%rax)

0000000000001850 <dump_rmsd_avg.constprop.0>:
    1850:	41 54                	push   %r12
    1852:	66 45 0f ef d2       	pxor   %xmm10,%xmm10
    1857:	4c 8d a6 70 c6 00 00 	lea    0xc670(%rsi),%r12
    185e:	66 45 0f ef db       	pxor   %xmm11,%xmm11
    1863:	55                   	push   %rbp
    1864:	41 0f 28 e2          	movaps %xmm10,%xmm4
    1868:	48 89 fd             	mov    %rdi,%rbp
    186b:	41 0f 28 da          	movaps %xmm10,%xmm3
    186f:	53                   	push   %rbx
    1870:	45 0f 28 e2          	movaps %xmm10,%xmm12
    1874:	48 89 f3             	mov    %rsi,%rbx
    1877:	45 0f 28 ea          	movaps %xmm10,%xmm13
    187b:	48 83 ec 40          	sub    $0x40,%rsp
    187f:	f3 44 0f 10 0d e8 18 	movss  0x18e8(%rip),%xmm9        # 3170 <_IO_stdin_used+0x170>
    1886:	00 00 
    1888:	f3 44 0f 11 54 24 0c 	movss  %xmm10,0xc(%rsp)
    188f:	90                   	nop
    1890:	66 41 0f 28 fb       	movapd %xmm11,%xmm7
    1895:	66 41 0f 28 eb       	movapd %xmm11,%xmm5
    189a:	41 0f 28 d2          	movaps %xmm10,%xmm2
    189e:	31 c0                	xor    %eax,%eax
    18a0:	41 0f 28 ca          	movaps %xmm10,%xmm1
    18a4:	45 0f 28 c2          	movaps %xmm10,%xmm8
    18a8:	41 0f 28 f2          	movaps %xmm10,%xmm6
    18ac:	0f 1f 40 00          	nopl   0x0(%rax)
    18b0:	f3 0f 10 04 03       	movss  (%rbx,%rax,1),%xmm0
    18b5:	f3 44 0f 10 7c 05 00 	movss  0x0(%rbp,%rax,1),%xmm15
    18bc:	66 0f 7e c2          	movd   %xmm0,%edx
    18c0:	81 fa 00 00 c0 7f    	cmp    $0x7fc00000,%edx
    18c6:	0f 84 a4 01 00 00    	je     1a70 <dump_rmsd_avg.constprop.0+0x220>
    18cc:	45 0f 28 f7          	movaps %xmm15,%xmm14
    18d0:	f3 41 0f 5c c7       	subss  %xmm15,%xmm0
    18d5:	48 83 c0 04          	add    $0x4,%rax
    18d9:	f3 44 0f 5f f6       	maxss  %xmm6,%xmm14
    18de:	41 0f 28 f6          	movaps %xmm14,%xmm6
    18e2:	45 0f 28 f7          	movaps %xmm15,%xmm14
    18e6:	f3 45 0f 5d f0       	minss  %xmm8,%xmm14
    18eb:	f3 45 0f 59 ff       	mulss  %xmm15,%xmm15
    18f0:	45 0f 28 c6          	movaps %xmm14,%xmm8
    18f4:	44 0f 28 f0          	movaps %xmm0,%xmm14
    18f8:	f3 0f 59 c0          	mulss  %xmm0,%xmm0
    18fc:	45 0f 54 f1          	andps  %xmm9,%xmm14
    1900:	f3 41 0f 58 ce       	addss  %xmm14,%xmm1
    1905:	f3 44 0f 5f f2       	maxss  %xmm2,%xmm14
    190a:	f3 45 0f 5a ff       	cvtss2sd %xmm15,%xmm15
    190f:	f2 41 0f 58 ff       	addsd  %xmm15,%xmm7
    1914:	41 0f 28 d6          	movaps %xmm14,%xmm2
    1918:	f3 0f 5a c0          	cvtss2sd %xmm0,%xmm0
    191c:	f2 0f 58 e8          	addsd  %xmm0,%xmm5
    1920:	48 3d fc 01 00 00    	cmp    $0x1fc,%rax
    1926:	75 88                	jne    18b0 <dump_rmsd_avg.constprop.0+0x60>
    1928:	66 48 0f 7e e8       	movq   %xmm5,%rax
    192d:	3d 00 00 c0 7f       	cmp    $0x7fc00000,%eax
    1932:	0f 84 38 01 00 00    	je     1a70 <dump_rmsd_avg.constprop.0+0x220>
    1938:	66 44 0f 28 fd       	movapd %xmm5,%xmm15
    193d:	f3 0f 5e 0d 1f 18 00 	divss  0x181f(%rip),%xmm1        # 3164 <_IO_stdin_used+0x164>
    1944:	00 
    1945:	f2 44 0f 5e 3d 32 18 	divsd  0x1832(%rip),%xmm15        # 3180 <_IO_stdin_used+0x180>
    194c:	00 00 
    194e:	66 45 0f 2e df       	ucomisd %xmm15,%xmm11
    1953:	0f 87 d0 01 00 00    	ja     1b29 <dump_rmsd_avg.constprop.0+0x2d9>
    1959:	f2 45 0f 51 ff       	sqrtsd %xmm15,%xmm15
    195e:	f3 41 0f 5c f0       	subss  %xmm8,%xmm6
    1963:	66 41 0f 2e eb       	ucomisd %xmm11,%xmm5
    1968:	f2 45 0f 5a ff       	cvtsd2ss %xmm15,%xmm15
    196d:	45 0f 28 c7          	movaps %xmm15,%xmm8
    1971:	f3 44 0f 5e c6       	divss  %xmm6,%xmm8
    1976:	0f 8a 14 01 00 00    	jp     1a90 <dump_rmsd_avg.constprop.0+0x240>
    197c:	f3 0f 10 05 dc 17 00 	movss  0x17dc(%rip),%xmm0        # 3160 <_IO_stdin_used+0x160>
    1983:	00 
    1984:	0f 85 06 01 00 00    	jne    1a90 <dump_rmsd_avg.constprop.0+0x240>
    198a:	48 81 c3 fc 01 00 00 	add    $0x1fc,%rbx
    1991:	f3 44 0f 58 7c 24 0c 	addss  0xc(%rsp),%xmm15
    1998:	f3 45 0f 58 e8       	addss  %xmm8,%xmm13
    199d:	48 81 c5 fc 01 00 00 	add    $0x1fc,%rbp
    19a4:	f3 44 0f 58 e1       	addss  %xmm1,%xmm12
    19a9:	f3 0f 58 da          	addss  %xmm2,%xmm3
    19ad:	f3 0f 58 e0          	addss  %xmm0,%xmm4
    19b1:	f3 44 0f 11 7c 24 0c 	movss  %xmm15,0xc(%rsp)
    19b8:	4c 39 e3             	cmp    %r12,%rbx
    19bb:	0f 85 cf fe ff ff    	jne    1890 <dump_rmsd_avg.constprop.0+0x40>
    19c1:	f3 0f 10 05 a3 17 00 	movss  0x17a3(%rip),%xmm0        # 316c <_IO_stdin_used+0x16c>
    19c8:	00 
    19c9:	48 8d 3d 34 16 00 00 	lea    0x1634(%rip),%rdi        # 3004 <_IO_stdin_used+0x4>
    19d0:	f3 44 0f 11 64 24 18 	movss  %xmm12,0x18(%rsp)
    19d7:	f3 0f 11 5c 24 10    	movss  %xmm3,0x10(%rsp)
    19dd:	f3 0f 11 64 24 20    	movss  %xmm4,0x20(%rsp)
    19e3:	f3 44 0f 5e e8       	divss  %xmm0,%xmm13
    19e8:	66 44 0f 7e eb       	movd   %xmm13,%ebx
    19ed:	e8 ee f6 ff ff       	call   10e0 <puts@plt>
    19f2:	f3 0f 10 64 24 20    	movss  0x20(%rsp),%xmm4
    19f8:	66 0f 6e fb          	movd   %ebx,%xmm7
    19fc:	f3 0f 10 05 68 17 00 	movss  0x1768(%rip),%xmm0        # 316c <_IO_stdin_used+0x16c>
    1a03:	00 
    1a04:	f3 0f 10 5c 24 10    	movss  0x10(%rsp),%xmm3
    1a0a:	f3 0f 10 4c 24 0c    	movss  0xc(%rsp),%xmm1
    1a10:	66 0f ef d2          	pxor   %xmm2,%xmm2
    1a14:	48 8d 35 a5 16 00 00 	lea    0x16a5(%rip),%rsi        # 30c0 <_IO_stdin_used+0xc0>
    1a1b:	f3 44 0f 10 64 24 18 	movss  0x18(%rsp),%xmm12
    1a22:	f3 0f 5e e0          	divss  %xmm0,%xmm4
    1a26:	bf 01 00 00 00       	mov    $0x1,%edi
    1a2b:	b8 05 00 00 00       	mov    $0x5,%eax
    1a30:	f3 0f 5a d7          	cvtss2sd %xmm7,%xmm2
    1a34:	f3 44 0f 5e e0       	divss  %xmm0,%xmm12
    1a39:	f3 0f 5a e4          	cvtss2sd %xmm4,%xmm4
    1a3d:	f3 0f 5e d8          	divss  %xmm0,%xmm3
    1a41:	f3 0f 5e c8          	divss  %xmm0,%xmm1
    1a45:	66 0f ef c0          	pxor   %xmm0,%xmm0
    1a49:	f3 41 0f 5a c4       	cvtss2sd %xmm12,%xmm0
    1a4e:	f3 0f 5a db          	cvtss2sd %xmm3,%xmm3
    1a52:	f3 0f 5a c9          	cvtss2sd %xmm1,%xmm1
    1a56:	e8 e5 f6 ff ff       	call   1140 <__printf_chk@plt>
    1a5b:	48 83 c4 40          	add    $0x40,%rsp
    1a5f:	66 0f 6e c3          	movd   %ebx,%xmm0
    1a63:	5b                   	pop    %rbx
    1a64:	5d                   	pop    %rbp
    1a65:	41 5c                	pop    %r12
    1a67:	c3                   	ret    
    1a68:	0f 1f 84 00 00 00 00 	nopl   0x0(%rax,%rax,1)
    1a6f:	00 
    1a70:	41 0f 28 d2          	movaps %xmm10,%xmm2
    1a74:	41 0f 28 c2          	movaps %xmm10,%xmm0
    1a78:	45 0f 28 fa          	movaps %xmm10,%xmm15
    1a7c:	f3 44 0f 10 05 db 16 	movss  0x16db(%rip),%xmm8        # 3160 <_IO_stdin_used+0x160>
    1a83:	00 00 
    1a85:	41 0f 28 ca          	movaps %xmm10,%xmm1
    1a89:	e9 fc fe ff ff       	jmp    198a <dump_rmsd_avg.constprop.0+0x13a>
    1a8e:	66 90                	xchg   %ax,%ax
    1a90:	f2 0f 5e fd          	divsd  %xmm5,%xmm7
    1a94:	66 0f ef c0          	pxor   %xmm0,%xmm0
    1a98:	f3 0f 11 64 24 34    	movss  %xmm4,0x34(%rsp)
    1a9e:	f3 0f 11 5c 24 30    	movss  %xmm3,0x30(%rsp)
    1aa4:	f3 44 0f 11 64 24 2c 	movss  %xmm12,0x2c(%rsp)
    1aab:	f3 44 0f 11 6c 24 28 	movss  %xmm13,0x28(%rsp)
    1ab2:	f3 0f 11 54 24 24    	movss  %xmm2,0x24(%rsp)
    1ab8:	f3 44 0f 11 44 24 18 	movss  %xmm8,0x18(%rsp)
    1abf:	f3 44 0f 11 7c 24 10 	movss  %xmm15,0x10(%rsp)
    1ac6:	f3 0f 11 4c 24 20    	movss  %xmm1,0x20(%rsp)
    1acc:	f2 0f 5a c7          	cvtsd2ss %xmm7,%xmm0
    1ad0:	e8 5b f6 ff ff       	call   1130 <log10f@plt>
    1ad5:	f3 0f 10 4c 24 20    	movss  0x20(%rsp),%xmm1
    1adb:	f3 0f 59 05 85 16 00 	mulss  0x1685(%rip),%xmm0        # 3168 <_IO_stdin_used+0x168>
    1ae2:	00 
    1ae3:	f3 44 0f 10 7c 24 10 	movss  0x10(%rsp),%xmm15
    1aea:	f3 44 0f 10 44 24 18 	movss  0x18(%rsp),%xmm8
    1af1:	66 45 0f ef d2       	pxor   %xmm10,%xmm10
    1af6:	66 45 0f ef db       	pxor   %xmm11,%xmm11
    1afb:	f3 0f 10 54 24 24    	movss  0x24(%rsp),%xmm2
    1b01:	f3 44 0f 10 6c 24 28 	movss  0x28(%rsp),%xmm13
    1b08:	f3 44 0f 10 0d 5f 16 	movss  0x165f(%rip),%xmm9        # 3170 <_IO_stdin_used+0x170>
    1b0f:	00 00 
    1b11:	f3 44 0f 10 64 24 2c 	movss  0x2c(%rsp),%xmm12
    1b18:	f3 0f 10 5c 24 30    	movss  0x30(%rsp),%xmm3
    1b1e:	f3 0f 10 64 24 34    	movss  0x34(%rsp),%xmm4
    1b24:	e9 61 fe ff ff       	jmp    198a <dump_rmsd_avg.constprop.0+0x13a>
    1b29:	66 41 0f 28 c7       	movapd %xmm15,%xmm0
    1b2e:	f3 0f 11 64 24 3c    	movss  %xmm4,0x3c(%rsp)
    1b34:	f3 0f 11 5c 24 38    	movss  %xmm3,0x38(%rsp)
    1b3a:	f3 44 0f 11 64 24 34 	movss  %xmm12,0x34(%rsp)
    1b41:	f3 44 0f 11 6c 24 30 	movss  %xmm13,0x30(%rsp)
    1b48:	f3 44 0f 11 44 24 28 	movss  %xmm8,0x28(%rsp)
    1b4f:	f3 0f 11 74 24 24    	movss  %xmm6,0x24(%rsp)
    1b55:	f2 0f 11 7c 24 18    	movsd  %xmm7,0x18(%rsp)
    1b5b:	f2 0f 11 6c 24 10    	movsd  %xmm5,0x10(%rsp)
    1b61:	f3 0f 11 4c 24 20    	movss  %xmm1,0x20(%rsp)
    1b67:	f3 44 0f 11 74 24 2c 	movss  %xmm14,0x2c(%rsp)
    1b6e:	e8 ed f5 ff ff       	call   1160 <sqrt@plt>
    1b73:	f3 0f 10 64 24 3c    	movss  0x3c(%rsp),%xmm4
    1b79:	f3 0f 10 5c 24 38    	movss  0x38(%rsp),%xmm3
    1b7f:	f3 44 0f 10 0d e8 15 	movss  0x15e8(%rip),%xmm9        # 3170 <_IO_stdin_used+0x170>
    1b86:	00 00 
    1b88:	f3 44 0f 10 64 24 34 	movss  0x34(%rsp),%xmm12
    1b8f:	f3 44 0f 10 6c 24 30 	movss  0x30(%rsp),%xmm13
    1b96:	66 44 0f 28 f8       	movapd %xmm0,%xmm15
    1b9b:	66 45 0f ef db       	pxor   %xmm11,%xmm11
    1ba0:	f3 0f 10 54 24 2c    	movss  0x2c(%rsp),%xmm2
    1ba6:	f3 44 0f 10 44 24 28 	movss  0x28(%rsp),%xmm8
    1bad:	66 45 0f ef d2       	pxor   %xmm10,%xmm10
    1bb2:	f3 0f 10 74 24 24    	movss  0x24(%rsp),%xmm6
    1bb8:	f2 0f 10 7c 24 18    	movsd  0x18(%rsp),%xmm7
    1bbe:	f2 0f 10 6c 24 10    	movsd  0x10(%rsp),%xmm5
    1bc4:	f3 0f 10 4c 24 20    	movss  0x20(%rsp),%xmm1
    1bca:	e9 8f fd ff ff       	jmp    195e <dump_rmsd_avg.constprop.0+0x10e>
    1bcf:	90                   	nop

0000000000001bd0 <test_Fread.constprop.3.isra.0>:
    1bd0:	48 89 f1             	mov    %rsi,%rcx
    1bd3:	ba 9c 31 00 00       	mov    $0x319c,%edx
    1bd8:	be 01 00 00 00       	mov    $0x1,%esi
    1bdd:	e9 0e f5 ff ff       	jmp    10f0 <fread@plt>
    1be2:	66 66 2e 0f 1f 84 00 	data16 cs nopw 0x0(%rax,%rax,1)
    1be9:	00 00 00 00 
    1bed:	0f 1f 00             	nopl   (%rax)

0000000000001bf0 <dump2_q7.constprop.0.isra.0>:
    1bf0:	41 57                	push   %r15
    1bf2:	66 0f ef d2          	pxor   %xmm2,%xmm2
    1bf6:	48 89 f9             	mov    %rdi,%rcx
    1bf9:	31 c0                	xor    %eax,%eax
    1bfb:	41 56                	push   %r14
    1bfd:	66 0f 6f da          	movdqa %xmm2,%xmm3
    1c01:	41 55                	push   %r13
    1c03:	41 54                	push   %r12
    1c05:	55                   	push   %rbp
    1c06:	53                   	push   %rbx
    1c07:	66 0f 1f 84 00 00 00 	nopw   0x0(%rax,%rax,1)
    1c0e:	00 00 
    1c10:	f3 0f 6f 0c 06       	movdqu (%rsi,%rax,1),%xmm1
    1c15:	f3 0f 6f 24 01       	movdqu (%rcx,%rax,1),%xmm4
    1c1a:	66 0f 6f c3          	movdqa %xmm3,%xmm0
    1c1e:	48 83 c0 10          	add    $0x10,%rax
    1c22:	66 0f f8 cc          	psubb  %xmm4,%xmm1
    1c26:	66 0f f8 c1          	psubb  %xmm1,%xmm0
    1c2a:	66 0f da c1          	pminub %xmm1,%xmm0
    1c2e:	66 0f 6f c8          	movdqa %xmm0,%xmm1
    1c32:	66 0f 64 ca          	pcmpgtb %xmm2,%xmm1
    1c36:	66 0f db c1          	pand   %xmm1,%xmm0
    1c3a:	66 0f df ca          	pandn  %xmm2,%xmm1
    1c3e:	66 0f 6f d1          	movdqa %xmm1,%xmm2
    1c42:	66 0f eb d0          	por    %xmm0,%xmm2
    1c46:	48 3d 90 31 00 00    	cmp    $0x3190,%rax
    1c4c:	75 c2                	jne    1c10 <dump2_q7.constprop.0.isra.0+0x20>
    1c4e:	0f b6 be 90 31 00 00 	movzbl 0x3190(%rsi),%edi
    1c55:	40 2a b9 90 31 00 00 	sub    0x3190(%rcx),%dil
    1c5c:	66 0f 6f ca          	movdqa %xmm2,%xmm1
    1c60:	89 fa                	mov    %edi,%edx
    1c62:	44 0f b6 be 9a 31 00 	movzbl 0x319a(%rsi),%r15d
    1c69:	00 
    1c6a:	66 0f 73 d9 08       	psrldq $0x8,%xmm1
    1c6f:	f6 da                	neg    %dl
    1c71:	66 0f 6f c1          	movdqa %xmm1,%xmm0
    1c75:	0f 48 d7             	cmovs  %edi,%edx
    1c78:	0f b6 be 91 31 00 00 	movzbl 0x3191(%rsi),%edi
    1c7f:	66 0f 64 c2          	pcmpgtb %xmm2,%xmm0
    1c83:	40 2a b9 91 31 00 00 	sub    0x3191(%rcx),%dil
    1c8a:	41 89 fe             	mov    %edi,%r14d
    1c8d:	41 f6 de             	neg    %r14b
    1c90:	44 0f 48 f7          	cmovs  %edi,%r14d
    1c94:	0f b6 be 92 31 00 00 	movzbl 0x3192(%rsi),%edi
    1c9b:	66 0f db c8          	pand   %xmm0,%xmm1
    1c9f:	40 2a b9 92 31 00 00 	sub    0x3192(%rcx),%dil
    1ca6:	41 89 fd             	mov    %edi,%r13d
    1ca9:	66 0f df c2          	pandn  %xmm2,%xmm0
    1cad:	41 f6 dd             	neg    %r13b
    1cb0:	66 0f eb c1          	por    %xmm1,%xmm0
    1cb4:	44 0f 48 ef          	cmovs  %edi,%r13d
    1cb8:	0f b6 be 93 31 00 00 	movzbl 0x3193(%rsi),%edi
    1cbf:	66 0f 6f d0          	movdqa %xmm0,%xmm2
    1cc3:	40 2a b9 93 31 00 00 	sub    0x3193(%rcx),%dil
    1cca:	66 0f 73 da 04       	psrldq $0x4,%xmm2
    1ccf:	41 89 fc             	mov    %edi,%r12d
    1cd2:	41 f6 dc             	neg    %r12b
    1cd5:	66 0f 6f ca          	movdqa %xmm2,%xmm1
    1cd9:	44 0f 48 e7          	cmovs  %edi,%r12d
    1cdd:	0f b6 be 94 31 00 00 	movzbl 0x3194(%rsi),%edi
    1ce4:	66 0f 64 c8          	pcmpgtb %xmm0,%xmm1
    1ce8:	40 2a b9 94 31 00 00 	sub    0x3194(%rcx),%dil
    1cef:	89 fd                	mov    %edi,%ebp
    1cf1:	40 f6 dd             	neg    %bpl
    1cf4:	0f 48 ef             	cmovs  %edi,%ebp
    1cf7:	0f b6 be 95 31 00 00 	movzbl 0x3195(%rsi),%edi
    1cfe:	66 0f db d1          	pand   %xmm1,%xmm2
    1d02:	40 2a b9 95 31 00 00 	sub    0x3195(%rcx),%dil
    1d09:	89 fb                	mov    %edi,%ebx
    1d0b:	66 0f df c8          	pandn  %xmm0,%xmm1
    1d0f:	f6 db                	neg    %bl
    1d11:	66 0f eb ca          	por    %xmm2,%xmm1
    1d15:	0f 48 df             	cmovs  %edi,%ebx
    1d18:	0f b6 be 96 31 00 00 	movzbl 0x3196(%rsi),%edi
    1d1f:	66 0f 6f d1          	movdqa %xmm1,%xmm2
    1d23:	40 2a b9 96 31 00 00 	sub    0x3196(%rcx),%dil
    1d2a:	66 0f 73 da 02       	psrldq $0x2,%xmm2
    1d2f:	41 89 fb             	mov    %edi,%r11d
    1d32:	41 f6 db             	neg    %r11b
    1d35:	66 0f 6f c2          	movdqa %xmm2,%xmm0
    1d39:	44 0f 48 df          	cmovs  %edi,%r11d
    1d3d:	0f b6 be 97 31 00 00 	movzbl 0x3197(%rsi),%edi
    1d44:	66 0f 64 c1          	pcmpgtb %xmm1,%xmm0
    1d48:	40 2a b9 97 31 00 00 	sub    0x3197(%rcx),%dil
    1d4f:	41 89 fa             	mov    %edi,%r10d
    1d52:	41 f6 da             	neg    %r10b
    1d55:	44 0f 48 d7          	cmovs  %edi,%r10d
    1d59:	0f b6 be 98 31 00 00 	movzbl 0x3198(%rsi),%edi
    1d60:	66 0f db d0          	pand   %xmm0,%xmm2
    1d64:	40 2a b9 98 31 00 00 	sub    0x3198(%rcx),%dil
    1d6b:	41 89 f9             	mov    %edi,%r9d
    1d6e:	66 0f df c1          	pandn  %xmm1,%xmm0
    1d72:	41 f6 d9             	neg    %r9b
    1d75:	66 0f eb c2          	por    %xmm2,%xmm0
    1d79:	44 0f 48 cf          	cmovs  %edi,%r9d
    1d7d:	0f b6 be 99 31 00 00 	movzbl 0x3199(%rsi),%edi
    1d84:	66 0f 6f d0          	movdqa %xmm0,%xmm2
    1d88:	40 2a b9 99 31 00 00 	sub    0x3199(%rcx),%dil
    1d8f:	0f b6 b6 9b 31 00 00 	movzbl 0x319b(%rsi),%esi
    1d96:	66 0f 73 da 01       	psrldq $0x1,%xmm2
    1d9b:	41 89 f8             	mov    %edi,%r8d
    1d9e:	41 f6 d8             	neg    %r8b
    1da1:	66 0f 6f ca          	movdqa %xmm2,%xmm1
    1da5:	44 0f 48 c7          	cmovs  %edi,%r8d
    1da9:	66 0f 64 c8          	pcmpgtb %xmm0,%xmm1
    1dad:	44 2a b9 9a 31 00 00 	sub    0x319a(%rcx),%r15b
    1db4:	44 89 ff             	mov    %r15d,%edi
    1db7:	40 f6 df             	neg    %dil
    1dba:	41 0f 48 ff          	cmovs  %r15d,%edi
    1dbe:	40 2a b1 9b 31 00 00 	sub    0x319b(%rcx),%sil
    1dc5:	66 0f db d1          	pand   %xmm1,%xmm2
    1dc9:	89 f1                	mov    %esi,%ecx
    1dcb:	66 0f df c8          	pandn  %xmm0,%xmm1
    1dcf:	f6 d9                	neg    %cl
    1dd1:	66 0f eb ca          	por    %xmm2,%xmm1
    1dd5:	0f 48 ce             	cmovs  %esi,%ecx
    1dd8:	44 38 f2             	cmp    %r14b,%dl
    1ddb:	66 0f 7e c8          	movd   %xmm1,%eax
    1ddf:	41 0f 4c d6          	cmovl  %r14d,%edx
    1de3:	48 8d 35 2f 12 00 00 	lea    0x122f(%rip),%rsi        # 3019 <_IO_stdin_used+0x19>
    1dea:	44 38 ea             	cmp    %r13b,%dl
    1ded:	41 0f 4c d5          	cmovl  %r13d,%edx
    1df1:	44 38 e2             	cmp    %r12b,%dl
    1df4:	41 0f 4c d4          	cmovl  %r12d,%edx
    1df8:	40 38 ea             	cmp    %bpl,%dl
    1dfb:	0f 4c d5             	cmovl  %ebp,%edx
    1dfe:	38 da                	cmp    %bl,%dl
    1e00:	0f 4c d3             	cmovl  %ebx,%edx
    1e03:	5b                   	pop    %rbx
    1e04:	5d                   	pop    %rbp
    1e05:	41 5c                	pop    %r12
    1e07:	41 5d                	pop    %r13
    1e09:	44 38 da             	cmp    %r11b,%dl
    1e0c:	41 5e                	pop    %r14
    1e0e:	41 5f                	pop    %r15
    1e10:	41 0f 4c d3          	cmovl  %r11d,%edx
    1e14:	44 38 d2             	cmp    %r10b,%dl
    1e17:	41 0f 4c d2          	cmovl  %r10d,%edx
    1e1b:	44 38 ca             	cmp    %r9b,%dl
    1e1e:	41 0f 4c d1          	cmovl  %r9d,%edx
    1e22:	44 38 c2             	cmp    %r8b,%dl
    1e25:	41 0f 4c d0          	cmovl  %r8d,%edx
    1e29:	40 38 fa             	cmp    %dil,%dl
    1e2c:	0f 4c d7             	cmovl  %edi,%edx
    1e2f:	bf 01 00 00 00       	mov    $0x1,%edi
    1e34:	38 ca                	cmp    %cl,%dl
    1e36:	0f 4c d1             	cmovl  %ecx,%edx
    1e39:	38 c2                	cmp    %al,%dl
    1e3b:	0f 4c d0             	cmovl  %eax,%edx
    1e3e:	31 c0                	xor    %eax,%eax
    1e40:	0f be d2             	movsbl %dl,%edx
    1e43:	e9 f8 f2 ff ff       	jmp    1140 <__printf_chk@plt>
    1e48:	0f 1f 84 00 00 00 00 	nopl   0x0(%rax,%rax,1)
    1e4f:	00 

0000000000001e50 <riscv_dsp_convert_q7_f32>:
    1e50:	f3 0f 1e fa          	endbr64 
    1e54:	85 d2                	test   %edx,%edx
    1e56:	0f 84 76 02 00 00    	je     20d2 <riscv_dsp_convert_q7_f32+0x282>
    1e5c:	8d 42 ff             	lea    -0x1(%rdx),%eax
    1e5f:	83 f8 0e             	cmp    $0xe,%eax
    1e62:	0f 86 6b 02 00 00    	jbe    20d3 <riscv_dsp_convert_q7_f32+0x283>
    1e68:	41 89 d0             	mov    %edx,%r8d
    1e6b:	0f 28 1d 1e 13 00 00 	movaps 0x131e(%rip),%xmm3        # 3190 <_IO_stdin_used+0x190>
    1e72:	48 89 f9             	mov    %rdi,%rcx
    1e75:	48 89 f0             	mov    %rsi,%rax
    1e78:	41 c1 e8 04          	shr    $0x4,%r8d
    1e7c:	66 0f ef ed          	pxor   %xmm5,%xmm5
    1e80:	66 0f ef e4          	pxor   %xmm4,%xmm4
    1e84:	41 83 e8 01          	sub    $0x1,%r8d
    1e88:	49 c1 e0 04          	shl    $0x4,%r8
    1e8c:	4e 8d 44 07 10       	lea    0x10(%rdi,%r8,1),%r8
    1e91:	0f 1f 80 00 00 00 00 	nopl   0x0(%rax)
    1e98:	f3 0f 6f 01          	movdqu (%rcx),%xmm0
    1e9c:	66 0f 6f d5          	movdqa %xmm5,%xmm2
    1ea0:	66 0f 6f f4          	movdqa %xmm4,%xmm6
    1ea4:	48 83 c1 10          	add    $0x10,%rcx
    1ea8:	48 83 c0 40          	add    $0x40,%rax
    1eac:	66 0f 64 d0          	pcmpgtb %xmm0,%xmm2
    1eb0:	66 0f 6f c8          	movdqa %xmm0,%xmm1
    1eb4:	66 0f 60 ca          	punpcklbw %xmm2,%xmm1
    1eb8:	66 0f 68 c2          	punpckhbw %xmm2,%xmm0
    1ebc:	66 0f 65 f1          	pcmpgtw %xmm1,%xmm6
    1ec0:	66 0f 6f d1          	movdqa %xmm1,%xmm2
    1ec4:	66 0f 61 d6          	punpcklwd %xmm6,%xmm2
    1ec8:	66 0f 69 ce          	punpckhwd %xmm6,%xmm1
    1ecc:	0f 5b d2             	cvtdq2ps %xmm2,%xmm2
    1ecf:	0f 59 d3             	mulps  %xmm3,%xmm2
    1ed2:	0f 5b c9             	cvtdq2ps %xmm1,%xmm1
    1ed5:	0f 59 cb             	mulps  %xmm3,%xmm1
    1ed8:	0f 11 50 c0          	movups %xmm2,-0x40(%rax)
    1edc:	66 0f 6f d4          	movdqa %xmm4,%xmm2
    1ee0:	66 0f 65 d0          	pcmpgtw %xmm0,%xmm2
    1ee4:	0f 11 48 d0          	movups %xmm1,-0x30(%rax)
    1ee8:	66 0f 6f c8          	movdqa %xmm0,%xmm1
    1eec:	66 0f 61 ca          	punpcklwd %xmm2,%xmm1
    1ef0:	66 0f 69 c2          	punpckhwd %xmm2,%xmm0
    1ef4:	0f 5b c9             	cvtdq2ps %xmm1,%xmm1
    1ef7:	0f 5b c0             	cvtdq2ps %xmm0,%xmm0
    1efa:	0f 59 cb             	mulps  %xmm3,%xmm1
    1efd:	0f 59 c3             	mulps  %xmm3,%xmm0
    1f00:	0f 11 48 e0          	movups %xmm1,-0x20(%rax)
    1f04:	0f 11 40 f0          	movups %xmm0,-0x10(%rax)
    1f08:	4c 39 c1             	cmp    %r8,%rcx
    1f0b:	75 8b                	jne    1e98 <riscv_dsp_convert_q7_f32+0x48>
    1f0d:	89 d1                	mov    %edx,%ecx
    1f0f:	83 e1 f0             	and    $0xfffffff0,%ecx
    1f12:	89 c8                	mov    %ecx,%eax
    1f14:	48 01 c7             	add    %rax,%rdi
    1f17:	48 8d 34 86          	lea    (%rsi,%rax,4),%rsi
    1f1b:	89 d0                	mov    %edx,%eax
    1f1d:	29 c8                	sub    %ecx,%eax
    1f1f:	39 ca                	cmp    %ecx,%edx
    1f21:	0f 84 b3 01 00 00    	je     20da <riscv_dsp_convert_q7_f32+0x28a>
    1f27:	0f be 17             	movsbl (%rdi),%edx
    1f2a:	66 0f ef c9          	pxor   %xmm1,%xmm1
    1f2e:	f3 0f 10 05 5a 12 00 	movss  0x125a(%rip),%xmm0        # 3190 <_IO_stdin_used+0x190>
    1f35:	00 
    1f36:	f3 0f 2a ca          	cvtsi2ss %edx,%xmm1
    1f3a:	f3 0f 59 c8          	mulss  %xmm0,%xmm1
    1f3e:	f3 0f 11 0e          	movss  %xmm1,(%rsi)
    1f42:	83 f8 01             	cmp    $0x1,%eax
    1f45:	0f 84 87 01 00 00    	je     20d2 <riscv_dsp_convert_q7_f32+0x282>
    1f4b:	0f be 57 01          	movsbl 0x1(%rdi),%edx
    1f4f:	66 0f ef c9          	pxor   %xmm1,%xmm1
    1f53:	f3 0f 2a ca          	cvtsi2ss %edx,%xmm1
    1f57:	f3 0f 59 c8          	mulss  %xmm0,%xmm1
    1f5b:	f3 0f 11 4e 04       	movss  %xmm1,0x4(%rsi)
    1f60:	83 f8 02             	cmp    $0x2,%eax
    1f63:	0f 84 69 01 00 00    	je     20d2 <riscv_dsp_convert_q7_f32+0x282>
    1f69:	0f be 57 02          	movsbl 0x2(%rdi),%edx
    1f6d:	66 0f ef c9          	pxor   %xmm1,%xmm1
    1f71:	f3 0f 2a ca          	cvtsi2ss %edx,%xmm1
    1f75:	f3 0f 59 c8          	mulss  %xmm0,%xmm1
    1f79:	f3 0f 11 4e 08       	movss  %xmm1,0x8(%rsi)
    1f7e:	83 f8 03             	cmp    $0x3,%eax
    1f81:	0f 84 4b 01 00 00    	je     20d2 <riscv_dsp_convert_q7_f32+0x282>
    1f87:	0f be 57 03          	movsbl 0x3(%rdi),%edx
    1f8b:	66 0f ef c9          	pxor   %xmm1,%xmm1
    1f8f:	f3 0f 2a ca          	cvtsi2ss %edx,%xmm1
    1f93:	f3 0f 59 c8          	mulss  %xmm0,%xmm1
    1f97:	f3 0f 11 4e 0c       	movss  %xmm1,0xc(%rsi)
    1f9c:	83 f8 04             	cmp    $0x4,%eax
    1f9f:	0f 84 2d 01 00 00    	je     20d2 <riscv_dsp_convert_q7_f32+0x282>
    1fa5:	0f be 57 04          	movsbl 0x4(%rdi),%edx
    1fa9:	66 0f ef c9          	pxor   %xmm1,%xmm1
    1fad:	f3 0f 2a ca          	cvtsi2ss %edx,%xmm1
    1fb1:	f3 0f 59 c8          	mulss  %xmm0,%xmm1
    1fb5:	f3 0f 11 4e 10       	movss  %xmm1,0x10(%rsi)
    1fba:	83 f8 05             	cmp    $0x5,%eax
    1fbd:	0f 84 0f 01 00 00    	je     20d2 <riscv_dsp_convert_q7_f32+0x282>
    1fc3:	0f be 57 05          	movsbl 0x5(%rdi),%edx
    1fc7:	66 0f ef c9          	pxor   %xmm1,%xmm1
    1fcb:	f3 0f 2a ca          	cvtsi2ss %edx,%xmm1
    1fcf:	f3 0f 59 c8          	mulss  %xmm0,%xmm1
    1fd3:	f3 0f 11 4e 14       	movss  %xmm1,0x14(%rsi)
    1fd8:	83 f8 06             	cmp    $0x6,%eax
    1fdb:	0f 84 f1 00 00 00    	je     20d2 <riscv_dsp_convert_q7_f32+0x282>
    1fe1:	0f be 57 06          	movsbl 0x6(%rdi),%edx
    1fe5:	66 0f ef c9          	pxor   %xmm1,%xmm1
    1fe9:	f3 0f 2a ca          	cvtsi2ss %edx,%xmm1
    1fed:	f3 0f 59 c8          	mulss  %xmm0,%xmm1
    1ff1:	f3 0f 11 4e 18       	movss  %xmm1,0x18(%rsi)
    1ff6:	83 f8 07             	cmp    $0x7,%eax
    1ff9:	0f 84 d3 00 00 00    	je     20d2 <riscv_dsp_convert_q7_f32+0x282>
    1fff:	0f be 57 07          	movsbl 0x7(%rdi),%edx
    2003:	66 0f ef c9          	pxor   %xmm1,%xmm1
    2007:	f3 0f 2a ca          	cvtsi2ss %edx,%xmm1
    200b:	f3 0f 59 c8          	mulss  %xmm0,%xmm1
    200f:	f3 0f 11 4e 1c       	movss  %xmm1,0x1c(%rsi)
    2014:	83 f8 08             	cmp    $0x8,%eax
    2017:	0f 84 b5 00 00 00    	je     20d2 <riscv_dsp_convert_q7_f32+0x282>
    201d:	0f be 57 08          	movsbl 0x8(%rdi),%edx
    2021:	66 0f ef c9          	pxor   %xmm1,%xmm1
    2025:	f3 0f 2a ca          	cvtsi2ss %edx,%xmm1
    2029:	f3 0f 59 c8          	mulss  %xmm0,%xmm1
    202d:	f3 0f 11 4e 20       	movss  %xmm1,0x20(%rsi)
    2032:	83 f8 09             	cmp    $0x9,%eax
    2035:	0f 84 97 00 00 00    	je     20d2 <riscv_dsp_convert_q7_f32+0x282>
    203b:	0f be 57 09          	movsbl 0x9(%rdi),%edx
    203f:	66 0f ef c9          	pxor   %xmm1,%xmm1
    2043:	f3 0f 2a ca          	cvtsi2ss %edx,%xmm1
    2047:	f3 0f 59 c8          	mulss  %xmm0,%xmm1
    204b:	f3 0f 11 4e 24       	movss  %xmm1,0x24(%rsi)
    2050:	83 f8 0a             	cmp    $0xa,%eax
    2053:	74 7d                	je     20d2 <riscv_dsp_convert_q7_f32+0x282>
    2055:	0f be 57 0a          	movsbl 0xa(%rdi),%edx
    2059:	66 0f ef c9          	pxor   %xmm1,%xmm1
    205d:	f3 0f 2a ca          	cvtsi2ss %edx,%xmm1
    2061:	f3 0f 59 c8          	mulss  %xmm0,%xmm1
    2065:	f3 0f 11 4e 28       	movss  %xmm1,0x28(%rsi)
    206a:	83 f8 0b             	cmp    $0xb,%eax
    206d:	74 63                	je     20d2 <riscv_dsp_convert_q7_f32+0x282>
    206f:	0f be 57 0b          	movsbl 0xb(%rdi),%edx
    2073:	66 0f ef c9          	pxor   %xmm1,%xmm1
    2077:	f3 0f 2a ca          	cvtsi2ss %edx,%xmm1
    207b:	f3 0f 59 c8          	mulss  %xmm0,%xmm1
    207f:	f3 0f 11 4e 2c       	movss  %xmm1,0x2c(%rsi)
    2084:	83 f8 0c             	cmp    $0xc,%eax
    2087:	74 49                	je     20d2 <riscv_dsp_convert_q7_f32+0x282>
    2089:	0f be 57 0c          	movsbl 0xc(%rdi),%edx
    208d:	66 0f ef c9          	pxor   %xmm1,%xmm1
    2091:	f3 0f 2a ca          	cvtsi2ss %edx,%xmm1
    2095:	f3 0f 59 c8          	mulss  %xmm0,%xmm1
    2099:	f3 0f 11 4e 30       	movss  %xmm1,0x30(%rsi)
    209e:	83 f8 0d             	cmp    $0xd,%eax
    20a1:	74 2f                	je     20d2 <riscv_dsp_convert_q7_f32+0x282>
    20a3:	0f be 57 0d          	movsbl 0xd(%rdi),%edx
    20a7:	66 0f ef c9          	pxor   %xmm1,%xmm1
    20ab:	f3 0f 2a ca          	cvtsi2ss %edx,%xmm1
    20af:	f3 0f 59 c8          	mulss  %xmm0,%xmm1
    20b3:	f3 0f 11 4e 34       	movss  %xmm1,0x34(%rsi)
    20b8:	83 f8 0e             	cmp    $0xe,%eax
    20bb:	74 15                	je     20d2 <riscv_dsp_convert_q7_f32+0x282>
    20bd:	0f be 47 0e          	movsbl 0xe(%rdi),%eax
    20c1:	66 0f ef c9          	pxor   %xmm1,%xmm1
    20c5:	f3 0f 2a c8          	cvtsi2ss %eax,%xmm1
    20c9:	f3 0f 59 c8          	mulss  %xmm0,%xmm1
    20cd:	f3 0f 11 4e 38       	movss  %xmm1,0x38(%rsi)
    20d2:	c3                   	ret    
    20d3:	89 d0                	mov    %edx,%eax
    20d5:	e9 4d fe ff ff       	jmp    1f27 <riscv_dsp_convert_q7_f32+0xd7>
    20da:	c3                   	ret    
    20db:	0f 1f 44 00 00       	nopl   0x0(%rax,%rax,1)

00000000000020e0 <riscv_dsp_corr_q7>:
    20e0:	f3 0f 1e fa          	endbr64 
    20e4:	41 57                	push   %r15
    20e6:	41 89 c9             	mov    %ecx,%r9d
    20e9:	41 56                	push   %r14
    20eb:	41 55                	push   %r13
    20ed:	49 89 d5             	mov    %rdx,%r13
    20f0:	41 54                	push   %r12
    20f2:	55                   	push   %rbp
    20f3:	48 89 fd             	mov    %rdi,%rbp
    20f6:	53                   	push   %rbx
    20f7:	89 74 24 dc          	mov    %esi,-0x24(%rsp)
    20fb:	39 ce                	cmp    %ecx,%esi
    20fd:	0f 82 e0 0a 00 00    	jb     2be3 <riscv_dsp_corr_q7+0xb03>
    2103:	48 c7 44 24 98 01 00 	movq   $0x1,-0x68(%rsp)
    210a:	00 00 
    210c:	89 f0                	mov    %esi,%eax
    210e:	29 c8                	sub    %ecx,%eax
    2110:	4c 01 c0             	add    %r8,%rax
    2113:	48 89 44 24 a0       	mov    %rax,-0x60(%rsp)
    2118:	8b 44 24 dc          	mov    -0x24(%rsp),%eax
    211c:	41 8d 71 ff          	lea    -0x1(%r9),%esi
    2120:	66 0f ef ed          	pxor   %xmm5,%xmm5
    2124:	66 0f ef e4          	pxor   %xmm4,%xmm4
    2128:	89 f7                	mov    %esi,%edi
    212a:	89 74 24 d8          	mov    %esi,-0x28(%rsp)
    212e:	4c 8b 44 24 a0       	mov    -0x60(%rsp),%r8
    2133:	41 bf 01 00 00 00    	mov    $0x1,%r15d
    2139:	83 c0 01             	add    $0x1,%eax
    213c:	4d 8d 54 3d 00       	lea    0x0(%r13,%rdi,1),%r10
    2141:	48 89 7c 24 e8       	mov    %rdi,-0x18(%rsp)
    2146:	48 8b 74 24 98       	mov    -0x68(%rsp),%rsi
    214b:	44 29 c8             	sub    %r9d,%eax
    214e:	4c 89 d2             	mov    %r10,%rdx
    2151:	89 44 24 e0          	mov    %eax,-0x20(%rsp)
    2155:	85 ff                	test   %edi,%edi
    2157:	0f 84 f6 0a 00 00    	je     2c53 <riscv_dsp_corr_q7+0xb73>
    215d:	45 85 ff             	test   %r15d,%r15d
    2160:	0f 84 75 02 00 00    	je     23db <riscv_dsp_corr_q7+0x2fb>
    2166:	66 2e 0f 1f 84 00 00 	cs nopw 0x0(%rax,%rax,1)
    216d:	00 00 00 
    2170:	41 8d 47 ff          	lea    -0x1(%r15),%eax
    2174:	83 f8 0e             	cmp    $0xe,%eax
    2177:	0f 86 a1 09 00 00    	jbe    2b1e <riscv_dsp_corr_q7+0xa3e>
    217d:	44 89 f9             	mov    %r15d,%ecx
    2180:	31 c0                	xor    %eax,%eax
    2182:	66 0f ef c9          	pxor   %xmm1,%xmm1
    2186:	c1 e9 04             	shr    $0x4,%ecx
    2189:	48 c1 e1 04          	shl    $0x4,%rcx
    218d:	0f 1f 00             	nopl   (%rax)
    2190:	f3 0f 6f 44 05 00    	movdqu 0x0(%rbp,%rax,1),%xmm0
    2196:	f3 0f 6f 14 02       	movdqu (%rdx,%rax,1),%xmm2
    219b:	66 0f 6f fd          	movdqa %xmm5,%xmm7
    219f:	66 0f 6f f5          	movdqa %xmm5,%xmm6
    21a3:	48 83 c0 10          	add    $0x10,%rax
    21a7:	66 0f 64 f0          	pcmpgtb %xmm0,%xmm6
    21ab:	66 0f 64 fa          	pcmpgtb %xmm2,%xmm7
    21af:	66 44 0f 6f c2       	movdqa %xmm2,%xmm8
    21b4:	66 0f 6f d8          	movdqa %xmm0,%xmm3
    21b8:	66 0f 60 de          	punpcklbw %xmm6,%xmm3
    21bc:	66 44 0f 60 c7       	punpcklbw %xmm7,%xmm8
    21c1:	66 0f 68 d7          	punpckhbw %xmm7,%xmm2
    21c5:	66 41 0f d5 d8       	pmullw %xmm8,%xmm3
    21ca:	66 0f 68 c6          	punpckhbw %xmm6,%xmm0
    21ce:	66 0f 6f f4          	movdqa %xmm4,%xmm6
    21d2:	66 0f d5 c2          	pmullw %xmm2,%xmm0
    21d6:	66 0f 65 f3          	pcmpgtw %xmm3,%xmm6
    21da:	66 0f 6f d3          	movdqa %xmm3,%xmm2
    21de:	66 0f 61 d6          	punpcklwd %xmm6,%xmm2
    21e2:	66 0f 69 de          	punpckhwd %xmm6,%xmm3
    21e6:	66 0f fe ca          	paddd  %xmm2,%xmm1
    21ea:	66 0f 6f d4          	movdqa %xmm4,%xmm2
    21ee:	66 0f 65 d0          	pcmpgtw %xmm0,%xmm2
    21f2:	66 0f fe cb          	paddd  %xmm3,%xmm1
    21f6:	66 0f 6f d8          	movdqa %xmm0,%xmm3
    21fa:	66 0f 61 da          	punpcklwd %xmm2,%xmm3
    21fe:	66 0f 69 c2          	punpckhwd %xmm2,%xmm0
    2202:	66 0f fe cb          	paddd  %xmm3,%xmm1
    2206:	66 0f fe c8          	paddd  %xmm0,%xmm1
    220a:	48 39 c1             	cmp    %rax,%rcx
    220d:	75 81                	jne    2190 <riscv_dsp_corr_q7+0xb0>
    220f:	66 0f 6f c1          	movdqa %xmm1,%xmm0
    2213:	45 89 fb             	mov    %r15d,%r11d
    2216:	66 0f 73 d8 08       	psrldq $0x8,%xmm0
    221b:	41 83 e3 f0          	and    $0xfffffff0,%r11d
    221f:	66 0f fe c8          	paddd  %xmm0,%xmm1
    2223:	44 89 df             	mov    %r11d,%edi
    2226:	66 0f 6f c1          	movdqa %xmm1,%xmm0
    222a:	48 8d 4c 3d 00       	lea    0x0(%rbp,%rdi,1),%rcx
    222f:	48 01 fa             	add    %rdi,%rdx
    2232:	44 89 ff             	mov    %r15d,%edi
    2235:	66 0f 73 d8 04       	psrldq $0x4,%xmm0
    223a:	44 29 df             	sub    %r11d,%edi
    223d:	66 0f fe c8          	paddd  %xmm0,%xmm1
    2241:	66 0f 7e c8          	movd   %xmm1,%eax
    2245:	45 39 fb             	cmp    %r15d,%r11d
    2248:	0f 84 52 01 00 00    	je     23a0 <riscv_dsp_corr_q7+0x2c0>
    224e:	44 0f be 19          	movsbl (%rcx),%r11d
    2252:	0f be 1a             	movsbl (%rdx),%ebx
    2255:	44 0f af db          	imul   %ebx,%r11d
    2259:	44 01 d8             	add    %r11d,%eax
    225c:	83 ff 01             	cmp    $0x1,%edi
    225f:	0f 84 3b 01 00 00    	je     23a0 <riscv_dsp_corr_q7+0x2c0>
    2265:	44 0f be 59 01       	movsbl 0x1(%rcx),%r11d
    226a:	0f be 5a 01          	movsbl 0x1(%rdx),%ebx
    226e:	44 0f af db          	imul   %ebx,%r11d
    2272:	44 01 d8             	add    %r11d,%eax
    2275:	83 ff 02             	cmp    $0x2,%edi
    2278:	0f 84 22 01 00 00    	je     23a0 <riscv_dsp_corr_q7+0x2c0>
    227e:	44 0f be 59 02       	movsbl 0x2(%rcx),%r11d
    2283:	0f be 5a 02          	movsbl 0x2(%rdx),%ebx
    2287:	44 0f af db          	imul   %ebx,%r11d
    228b:	44 01 d8             	add    %r11d,%eax
    228e:	83 ff 03             	cmp    $0x3,%edi
    2291:	0f 84 09 01 00 00    	je     23a0 <riscv_dsp_corr_q7+0x2c0>
    2297:	44 0f be 59 03       	movsbl 0x3(%rcx),%r11d
    229c:	0f be 5a 03          	movsbl 0x3(%rdx),%ebx
    22a0:	44 0f af db          	imul   %ebx,%r11d
    22a4:	44 01 d8             	add    %r11d,%eax
    22a7:	83 ff 04             	cmp    $0x4,%edi
    22aa:	0f 84 f0 00 00 00    	je     23a0 <riscv_dsp_corr_q7+0x2c0>
    22b0:	44 0f be 59 04       	movsbl 0x4(%rcx),%r11d
    22b5:	0f be 5a 04          	movsbl 0x4(%rdx),%ebx
    22b9:	44 0f af db          	imul   %ebx,%r11d
    22bd:	44 01 d8             	add    %r11d,%eax
    22c0:	83 ff 05             	cmp    $0x5,%edi
    22c3:	0f 84 d7 00 00 00    	je     23a0 <riscv_dsp_corr_q7+0x2c0>
    22c9:	44 0f be 59 05       	movsbl 0x5(%rcx),%r11d
    22ce:	0f be 5a 05          	movsbl 0x5(%rdx),%ebx
    22d2:	44 0f af db          	imul   %ebx,%r11d
    22d6:	44 01 d8             	add    %r11d,%eax
    22d9:	83 ff 06             	cmp    $0x6,%edi
    22dc:	0f 84 be 00 00 00    	je     23a0 <riscv_dsp_corr_q7+0x2c0>
    22e2:	44 0f be 59 06       	movsbl 0x6(%rcx),%r11d
    22e7:	0f be 5a 06          	movsbl 0x6(%rdx),%ebx
    22eb:	44 0f af db          	imul   %ebx,%r11d
    22ef:	44 01 d8             	add    %r11d,%eax
    22f2:	83 ff 07             	cmp    $0x7,%edi
    22f5:	0f 84 a5 00 00 00    	je     23a0 <riscv_dsp_corr_q7+0x2c0>
    22fb:	44 0f be 59 07       	movsbl 0x7(%rcx),%r11d
    2300:	0f be 5a 07          	movsbl 0x7(%rdx),%ebx
    2304:	44 0f af db          	imul   %ebx,%r11d
    2308:	44 01 d8             	add    %r11d,%eax
    230b:	83 ff 08             	cmp    $0x8,%edi
    230e:	0f 84 8c 00 00 00    	je     23a0 <riscv_dsp_corr_q7+0x2c0>
    2314:	44 0f be 59 08       	movsbl 0x8(%rcx),%r11d
    2319:	0f be 5a 08          	movsbl 0x8(%rdx),%ebx
    231d:	44 0f af db          	imul   %ebx,%r11d
    2321:	44 01 d8             	add    %r11d,%eax
    2324:	83 ff 09             	cmp    $0x9,%edi
    2327:	74 77                	je     23a0 <riscv_dsp_corr_q7+0x2c0>
    2329:	44 0f be 59 09       	movsbl 0x9(%rcx),%r11d
    232e:	0f be 5a 09          	movsbl 0x9(%rdx),%ebx
    2332:	44 0f af db          	imul   %ebx,%r11d
    2336:	44 01 d8             	add    %r11d,%eax
    2339:	83 ff 0a             	cmp    $0xa,%edi
    233c:	74 62                	je     23a0 <riscv_dsp_corr_q7+0x2c0>
    233e:	44 0f be 59 0a       	movsbl 0xa(%rcx),%r11d
    2343:	0f be 5a 0a          	movsbl 0xa(%rdx),%ebx
    2347:	44 0f af db          	imul   %ebx,%r11d
    234b:	44 01 d8             	add    %r11d,%eax
    234e:	83 ff 0b             	cmp    $0xb,%edi
    2351:	74 4d                	je     23a0 <riscv_dsp_corr_q7+0x2c0>
    2353:	44 0f be 59 0b       	movsbl 0xb(%rcx),%r11d
    2358:	0f be 5a 0b          	movsbl 0xb(%rdx),%ebx
    235c:	44 0f af db          	imul   %ebx,%r11d
    2360:	44 01 d8             	add    %r11d,%eax
    2363:	83 ff 0c             	cmp    $0xc,%edi
    2366:	74 38                	je     23a0 <riscv_dsp_corr_q7+0x2c0>
    2368:	44 0f be 59 0c       	movsbl 0xc(%rcx),%r11d
    236d:	0f be 5a 0c          	movsbl 0xc(%rdx),%ebx
    2371:	44 0f af db          	imul   %ebx,%r11d
    2375:	44 01 d8             	add    %r11d,%eax
    2378:	83 ff 0d             	cmp    $0xd,%edi
    237b:	74 23                	je     23a0 <riscv_dsp_corr_q7+0x2c0>
    237d:	44 0f be 59 0d       	movsbl 0xd(%rcx),%r11d
    2382:	0f be 5a 0d          	movsbl 0xd(%rdx),%ebx
    2386:	44 0f af db          	imul   %ebx,%r11d
    238a:	44 01 d8             	add    %r11d,%eax
    238d:	83 ff 0e             	cmp    $0xe,%edi
    2390:	74 0e                	je     23a0 <riscv_dsp_corr_q7+0x2c0>
    2392:	0f be 52 0e          	movsbl 0xe(%rdx),%edx
    2396:	0f be 49 0e          	movsbl 0xe(%rcx),%ecx
    239a:	0f af d1             	imul   %ecx,%edx
    239d:	01 d0                	add    %edx,%eax
    239f:	90                   	nop
    23a0:	ba 80 ff ff ff       	mov    $0xffffff80,%edx
    23a5:	c1 f8 07             	sar    $0x7,%eax
    23a8:	41 8d 4f 01          	lea    0x1(%r15),%ecx
    23ac:	39 d0                	cmp    %edx,%eax
    23ae:	0f 4c c2             	cmovl  %edx,%eax
    23b1:	ba 7f 00 00 00       	mov    $0x7f,%edx
    23b6:	39 d0                	cmp    %edx,%eax
    23b8:	0f 4f c2             	cmovg  %edx,%eax
    23bb:	4c 89 d2             	mov    %r10,%rdx
    23be:	41 88 00             	mov    %al,(%r8)
    23c1:	44 89 f8             	mov    %r15d,%eax
    23c4:	49 01 f0             	add    %rsi,%r8
    23c7:	48 29 c2             	sub    %rax,%rdx
    23ca:	41 39 c9             	cmp    %ecx,%r9d
    23cd:	74 21                	je     23f0 <riscv_dsp_corr_q7+0x310>
    23cf:	41 89 cf             	mov    %ecx,%r15d
    23d2:	45 85 ff             	test   %r15d,%r15d
    23d5:	0f 85 95 fd ff ff    	jne    2170 <riscv_dsp_corr_q7+0x90>
    23db:	41 c6 00 00          	movb   $0x0,(%r8)
    23df:	4c 89 d2             	mov    %r10,%rdx
    23e2:	49 01 f0             	add    %rsi,%r8
    23e5:	b9 01 00 00 00       	mov    $0x1,%ecx
    23ea:	eb e3                	jmp    23cf <riscv_dsp_corr_q7+0x2ef>
    23ec:	0f 1f 40 00          	nopl   0x0(%rax)
    23f0:	48 0f af 44 24 98    	imul   -0x68(%rsp),%rax
    23f6:	89 4c 24 e4          	mov    %ecx,-0x1c(%rsp)
    23fa:	48 01 44 24 a0       	add    %rax,-0x60(%rsp)
    23ff:	41 83 f9 03          	cmp    $0x3,%r9d
    2403:	0f 86 22 07 00 00    	jbe    2b2b <riscv_dsp_corr_q7+0xa4b>
    2409:	8b 44 24 e0          	mov    -0x20(%rsp),%eax
    240d:	c1 e8 02             	shr    $0x2,%eax
    2410:	89 44 24 f0          	mov    %eax,-0x10(%rsp)
    2414:	0f 84 4a 08 00 00    	je     2c64 <riscv_dsp_corr_q7+0xb84>
    241a:	c1 e0 02             	shl    $0x2,%eax
    241d:	48 8b 5c 24 e8       	mov    -0x18(%rsp),%rbx
    2422:	48 89 6c 24 b8       	mov    %rbp,-0x48(%rsp)
    2427:	31 c9                	xor    %ecx,%ecx
    2429:	89 44 24 ac          	mov    %eax,-0x54(%rsp)
    242d:	48 8b 44 24 98       	mov    -0x68(%rsp),%rax
    2432:	49 89 ec             	mov    %rbp,%r12
    2435:	44 89 7c 24 f4       	mov    %r15d,-0xc(%rsp)
    243a:	41 89 cf             	mov    %ecx,%r15d
    243d:	48 8d 34 85 00 00 00 	lea    0x0(,%rax,4),%rsi
    2444:	00 
    2445:	48 8d 3c 40          	lea    (%rax,%rax,2),%rdi
    2449:	4c 89 6c 24 c0       	mov    %r13,-0x40(%rsp)
    244e:	49 89 c6             	mov    %rax,%r14
    2451:	48 89 74 24 b0       	mov    %rsi,-0x50(%rsp)
    2456:	48 8d 73 04          	lea    0x4(%rbx),%rsi
    245a:	48 89 7c 24 c8       	mov    %rdi,-0x38(%rsp)
    245f:	48 8b 7c 24 a0       	mov    -0x60(%rsp),%rdi
    2464:	48 89 74 24 d0       	mov    %rsi,-0x30(%rsp)
    2469:	49 89 fd             	mov    %rdi,%r13
    246c:	0f 1f 40 00          	nopl   0x0(%rax)
    2470:	41 0f be 04 24       	movsbl (%r12),%eax
    2475:	45 0f b6 5c 24 01    	movzbl 0x1(%r12),%r11d
    247b:	31 f6                	xor    %esi,%esi
    247d:	31 ff                	xor    %edi,%edi
    247f:	49 8d 4c 24 03       	lea    0x3(%r12),%rcx
    2484:	4c 8b 54 24 c0       	mov    -0x40(%rsp),%r10
    2489:	45 31 c0             	xor    %r8d,%r8d
    248c:	45 31 c9             	xor    %r9d,%r9d
    248f:	41 0f b6 5c 24 02    	movzbl 0x2(%r12),%ebx
    2495:	4c 03 64 24 d0       	add    -0x30(%rsp),%r12
    249a:	eb 06                	jmp    24a2 <riscv_dsp_corr_q7+0x3c2>
    249c:	0f 1f 40 00          	nopl   0x0(%rax)
    24a0:	89 eb                	mov    %ebp,%ebx
    24a2:	41 0f be 12          	movsbl (%r10),%edx
    24a6:	0f b6 29             	movzbl (%rcx),%ebp
    24a9:	48 83 c1 01          	add    $0x1,%rcx
    24ad:	49 83 c2 01          	add    $0x1,%r10
    24b1:	0f af c2             	imul   %edx,%eax
    24b4:	41 01 c1             	add    %eax,%r9d
    24b7:	41 0f be c3          	movsbl %r11b,%eax
    24bb:	0f af c2             	imul   %edx,%eax
    24be:	41 01 c0             	add    %eax,%r8d
    24c1:	0f be c3             	movsbl %bl,%eax
    24c4:	0f af c2             	imul   %edx,%eax
    24c7:	01 c7                	add    %eax,%edi
    24c9:	40 0f be c5          	movsbl %bpl,%eax
    24cd:	0f af c2             	imul   %edx,%eax
    24d0:	01 c6                	add    %eax,%esi
    24d2:	41 0f be c3          	movsbl %r11b,%eax
    24d6:	41 89 db             	mov    %ebx,%r11d
    24d9:	49 39 cc             	cmp    %rcx,%r12
    24dc:	75 c2                	jne    24a0 <riscv_dsp_corr_q7+0x3c0>
    24de:	b8 80 ff ff ff       	mov    $0xffffff80,%eax
    24e3:	41 c1 f9 07          	sar    $0x7,%r9d
    24e7:	45 8d 67 04          	lea    0x4(%r15),%r12d
    24eb:	41 39 c1             	cmp    %eax,%r9d
    24ee:	4d 89 e7             	mov    %r12,%r15
    24f1:	44 0f 4c c8          	cmovl  %eax,%r9d
    24f5:	b8 7f 00 00 00       	mov    $0x7f,%eax
    24fa:	41 39 c1             	cmp    %eax,%r9d
    24fd:	44 0f 4f c8          	cmovg  %eax,%r9d
    2501:	b8 80 ff ff ff       	mov    $0xffffff80,%eax
    2506:	41 c1 f8 07          	sar    $0x7,%r8d
    250a:	41 39 c0             	cmp    %eax,%r8d
    250d:	44 0f 4c c0          	cmovl  %eax,%r8d
    2511:	b8 7f 00 00 00       	mov    $0x7f,%eax
    2516:	45 88 4d 00          	mov    %r9b,0x0(%r13)
    251a:	41 39 c0             	cmp    %eax,%r8d
    251d:	44 0f 4f c0          	cmovg  %eax,%r8d
    2521:	b8 80 ff ff ff       	mov    $0xffffff80,%eax
    2526:	c1 ff 07             	sar    $0x7,%edi
    2529:	39 c7                	cmp    %eax,%edi
    252b:	0f 4c f8             	cmovl  %eax,%edi
    252e:	b8 7f 00 00 00       	mov    $0x7f,%eax
    2533:	47 88 44 35 00       	mov    %r8b,0x0(%r13,%r14,1)
    2538:	39 c7                	cmp    %eax,%edi
    253a:	0f 4f f8             	cmovg  %eax,%edi
    253d:	b8 80 ff ff ff       	mov    $0xffffff80,%eax
    2542:	c1 fe 07             	sar    $0x7,%esi
    2545:	39 c6                	cmp    %eax,%esi
    2547:	0f 4c f0             	cmovl  %eax,%esi
    254a:	b8 7f 00 00 00       	mov    $0x7f,%eax
    254f:	43 88 7c 75 00       	mov    %dil,0x0(%r13,%r14,2)
    2554:	39 c6                	cmp    %eax,%esi
    2556:	0f 4f f0             	cmovg  %eax,%esi
    2559:	48 8b 44 24 c8       	mov    -0x38(%rsp),%rax
    255e:	4c 03 64 24 b8       	add    -0x48(%rsp),%r12
    2563:	41 88 74 05 00       	mov    %sil,0x0(%r13,%rax,1)
    2568:	4c 03 6c 24 b0       	add    -0x50(%rsp),%r13
    256d:	44 3b 7c 24 ac       	cmp    -0x54(%rsp),%r15d
    2572:	0f 85 f8 fe ff ff    	jne    2470 <riscv_dsp_corr_q7+0x390>
    2578:	8b 44 24 f0          	mov    -0x10(%rsp),%eax
    257c:	48 0f af 44 24 b0    	imul   -0x50(%rsp),%rax
    2582:	4d 89 e6             	mov    %r12,%r14
    2585:	48 01 44 24 a0       	add    %rax,-0x60(%rsp)
    258a:	44 8b 7c 24 f4       	mov    -0xc(%rsp),%r15d
    258f:	48 8b 6c 24 b8       	mov    -0x48(%rsp),%rbp
    2594:	4c 8b 6c 24 c0       	mov    -0x40(%rsp),%r13
    2599:	8b 44 24 e0          	mov    -0x20(%rsp),%eax
    259d:	83 e0 03             	and    $0x3,%eax
    25a0:	89 44 24 b8          	mov    %eax,-0x48(%rsp)
    25a4:	0f 84 d9 02 00 00    	je     2883 <riscv_dsp_corr_q7+0x7a3>
    25aa:	8b 74 24 e4          	mov    -0x1c(%rsp),%esi
    25ae:	44 8b 44 24 ac       	mov    -0x54(%rsp),%r8d
    25b3:	44 89 7c 24 c8       	mov    %r15d,-0x38(%rsp)
    25b8:	66 0f ef ed          	pxor   %xmm5,%xmm5
    25bc:	4c 8b 54 24 a0       	mov    -0x60(%rsp),%r10
    25c1:	66 0f ef e4          	pxor   %xmm4,%xmm4
    25c5:	44 01 c0             	add    %r8d,%eax
    25c8:	89 f3                	mov    %esi,%ebx
    25ca:	83 e3 f0             	and    $0xfffffff0,%ebx
    25cd:	89 44 24 ac          	mov    %eax,-0x54(%rsp)
    25d1:	89 f0                	mov    %esi,%eax
    25d3:	c1 e8 04             	shr    $0x4,%eax
    25d6:	29 de                	sub    %ebx,%esi
    25d8:	41 89 dc             	mov    %ebx,%r12d
    25db:	8d 50 ff             	lea    -0x1(%rax),%edx
    25de:	4b 8d 7c 25 00       	lea    0x0(%r13,%r12,1),%rdi
    25e3:	89 f0                	mov    %esi,%eax
    25e5:	49 8d 75 01          	lea    0x1(%r13),%rsi
    25e9:	48 83 c2 01          	add    $0x1,%rdx
    25ed:	44 8d 58 ff          	lea    -0x1(%rax),%r11d
    25f1:	48 89 74 24 c0       	mov    %rsi,-0x40(%rsp)
    25f6:	48 89 fe             	mov    %rdi,%rsi
    25f9:	48 8d 7f 01          	lea    0x1(%rdi),%rdi
    25fd:	48 c1 e2 04          	shl    $0x4,%rdx
    2601:	48 89 7c 24 b0       	mov    %rdi,-0x50(%rsp)
    2606:	49 89 f7             	mov    %rsi,%r15
    2609:	83 7c 24 d8 0e       	cmpl   $0xe,-0x28(%rsp)
    260e:	0f 86 21 06 00 00    	jbe    2c35 <riscv_dsp_corr_q7+0xb55>
    2614:	31 c0                	xor    %eax,%eax
    2616:	66 0f ef c9          	pxor   %xmm1,%xmm1
    261a:	66 0f 1f 44 00 00    	nopw   0x0(%rax,%rax,1)
    2620:	f3 41 0f 6f 04 06    	movdqu (%r14,%rax,1),%xmm0
    2626:	f3 41 0f 6f 54 05 00 	movdqu 0x0(%r13,%rax,1),%xmm2
    262d:	66 0f 6f fd          	movdqa %xmm5,%xmm7
    2631:	66 0f 6f f5          	movdqa %xmm5,%xmm6
    2635:	48 83 c0 10          	add    $0x10,%rax
    2639:	66 0f 64 f0          	pcmpgtb %xmm0,%xmm6
    263d:	66 0f 64 fa          	pcmpgtb %xmm2,%xmm7
    2641:	66 44 0f 6f c2       	movdqa %xmm2,%xmm8
    2646:	66 0f 6f d8          	movdqa %xmm0,%xmm3
    264a:	66 0f 60 de          	punpcklbw %xmm6,%xmm3
    264e:	66 44 0f 60 c7       	punpcklbw %xmm7,%xmm8
    2653:	66 0f 68 d7          	punpckhbw %xmm7,%xmm2
    2657:	66 41 0f d5 d8       	pmullw %xmm8,%xmm3
    265c:	66 0f 68 c6          	punpckhbw %xmm6,%xmm0
    2660:	66 0f 6f f4          	movdqa %xmm4,%xmm6
    2664:	66 0f d5 c2          	pmullw %xmm2,%xmm0
    2668:	66 0f 65 f3          	pcmpgtw %xmm3,%xmm6
    266c:	66 0f 6f d3          	movdqa %xmm3,%xmm2
    2670:	66 0f 61 d6          	punpcklwd %xmm6,%xmm2
    2674:	66 0f 69 de          	punpckhwd %xmm6,%xmm3
    2678:	66 0f fe ca          	paddd  %xmm2,%xmm1
    267c:	66 0f 6f d4          	movdqa %xmm4,%xmm2
    2680:	66 0f 65 d0          	pcmpgtw %xmm0,%xmm2
    2684:	66 0f fe cb          	paddd  %xmm3,%xmm1
    2688:	66 0f 6f d8          	movdqa %xmm0,%xmm3
    268c:	66 0f 61 da          	punpcklwd %xmm2,%xmm3
    2690:	66 0f 69 c2          	punpckhwd %xmm2,%xmm0
    2694:	66 0f fe cb          	paddd  %xmm3,%xmm1
    2698:	66 0f fe c8          	paddd  %xmm0,%xmm1
    269c:	48 39 d0             	cmp    %rdx,%rax
    269f:	0f 85 7b ff ff ff    	jne    2620 <riscv_dsp_corr_q7+0x540>
    26a5:	66 0f 6f c1          	movdqa %xmm1,%xmm0
    26a9:	4d 01 e6             	add    %r12,%r14
    26ac:	66 0f 73 d8 08       	psrldq $0x8,%xmm0
    26b1:	66 0f fe c8          	paddd  %xmm0,%xmm1
    26b5:	66 0f 6f c1          	movdqa %xmm1,%xmm0
    26b9:	66 0f 73 d8 04       	psrldq $0x4,%xmm0
    26be:	66 0f fe c8          	paddd  %xmm0,%xmm1
    26c2:	66 0f 7e c8          	movd   %xmm1,%eax
    26c6:	39 5c 24 e4          	cmp    %ebx,-0x1c(%rsp)
    26ca:	0f 84 70 01 00 00    	je     2840 <riscv_dsp_corr_q7+0x760>
    26d0:	41 0f be 3e          	movsbl (%r14),%edi
    26d4:	45 0f be 0f          	movsbl (%r15),%r9d
    26d8:	49 8d 76 01          	lea    0x1(%r14),%rsi
    26dc:	48 8b 4c 24 b0       	mov    -0x50(%rsp),%rcx
    26e1:	41 0f af f9          	imul   %r9d,%edi
    26e5:	01 f8                	add    %edi,%eax
    26e7:	44 89 df             	mov    %r11d,%edi
    26ea:	45 85 db             	test   %r11d,%r11d
    26ed:	0f 84 4d 01 00 00    	je     2840 <riscv_dsp_corr_q7+0x760>
    26f3:	44 0f be 0e          	movsbl (%rsi),%r9d
    26f7:	44 0f be 31          	movsbl (%rcx),%r14d
    26fb:	45 0f af ce          	imul   %r14d,%r9d
    26ff:	44 01 c8             	add    %r9d,%eax
    2702:	83 ff 01             	cmp    $0x1,%edi
    2705:	0f 84 35 01 00 00    	je     2840 <riscv_dsp_corr_q7+0x760>
    270b:	44 0f be 4e 01       	movsbl 0x1(%rsi),%r9d
    2710:	44 0f be 71 01       	movsbl 0x1(%rcx),%r14d
    2715:	45 0f af ce          	imul   %r14d,%r9d
    2719:	44 01 c8             	add    %r9d,%eax
    271c:	83 ff 02             	cmp    $0x2,%edi
    271f:	0f 84 1b 01 00 00    	je     2840 <riscv_dsp_corr_q7+0x760>
    2725:	44 0f be 4e 02       	movsbl 0x2(%rsi),%r9d
    272a:	44 0f be 71 02       	movsbl 0x2(%rcx),%r14d
    272f:	45 0f af ce          	imul   %r14d,%r9d
    2733:	44 01 c8             	add    %r9d,%eax
    2736:	83 ff 03             	cmp    $0x3,%edi
    2739:	0f 84 01 01 00 00    	je     2840 <riscv_dsp_corr_q7+0x760>
    273f:	44 0f be 4e 03       	movsbl 0x3(%rsi),%r9d
    2744:	44 0f be 71 03       	movsbl 0x3(%rcx),%r14d
    2749:	45 0f af ce          	imul   %r14d,%r9d
    274d:	44 01 c8             	add    %r9d,%eax
    2750:	83 ff 04             	cmp    $0x4,%edi
    2753:	0f 84 e7 00 00 00    	je     2840 <riscv_dsp_corr_q7+0x760>
    2759:	44 0f be 4e 04       	movsbl 0x4(%rsi),%r9d
    275e:	44 0f be 71 04       	movsbl 0x4(%rcx),%r14d
    2763:	45 0f af ce          	imul   %r14d,%r9d
    2767:	44 01 c8             	add    %r9d,%eax
    276a:	83 ff 05             	cmp    $0x5,%edi
    276d:	0f 84 cd 00 00 00    	je     2840 <riscv_dsp_corr_q7+0x760>
    2773:	44 0f be 4e 05       	movsbl 0x5(%rsi),%r9d
    2778:	44 0f be 71 05       	movsbl 0x5(%rcx),%r14d
    277d:	45 0f af ce          	imul   %r14d,%r9d
    2781:	44 01 c8             	add    %r9d,%eax
    2784:	83 ff 06             	cmp    $0x6,%edi
    2787:	0f 84 b3 00 00 00    	je     2840 <riscv_dsp_corr_q7+0x760>
    278d:	44 0f be 4e 06       	movsbl 0x6(%rsi),%r9d
    2792:	44 0f be 71 06       	movsbl 0x6(%rcx),%r14d
    2797:	45 0f af ce          	imul   %r14d,%r9d
    279b:	44 01 c8             	add    %r9d,%eax
    279e:	83 ff 07             	cmp    $0x7,%edi
    27a1:	0f 84 99 00 00 00    	je     2840 <riscv_dsp_corr_q7+0x760>
    27a7:	44 0f be 4e 07       	movsbl 0x7(%rsi),%r9d
    27ac:	44 0f be 71 07       	movsbl 0x7(%rcx),%r14d
    27b1:	45 0f af ce          	imul   %r14d,%r9d
    27b5:	44 01 c8             	add    %r9d,%eax
    27b8:	83 ff 08             	cmp    $0x8,%edi
    27bb:	0f 84 7f 00 00 00    	je     2840 <riscv_dsp_corr_q7+0x760>
    27c1:	44 0f be 4e 08       	movsbl 0x8(%rsi),%r9d
    27c6:	44 0f be 71 08       	movsbl 0x8(%rcx),%r14d
    27cb:	45 0f af ce          	imul   %r14d,%r9d
    27cf:	44 01 c8             	add    %r9d,%eax
    27d2:	83 ff 09             	cmp    $0x9,%edi
    27d5:	74 69                	je     2840 <riscv_dsp_corr_q7+0x760>
    27d7:	44 0f be 4e 09       	movsbl 0x9(%rsi),%r9d
    27dc:	44 0f be 71 09       	movsbl 0x9(%rcx),%r14d
    27e1:	45 0f af ce          	imul   %r14d,%r9d
    27e5:	44 01 c8             	add    %r9d,%eax
    27e8:	83 ff 0a             	cmp    $0xa,%edi
    27eb:	74 53                	je     2840 <riscv_dsp_corr_q7+0x760>
    27ed:	44 0f be 4e 0a       	movsbl 0xa(%rsi),%r9d
    27f2:	44 0f be 71 0a       	movsbl 0xa(%rcx),%r14d
    27f7:	45 0f af ce          	imul   %r14d,%r9d
    27fb:	44 01 c8             	add    %r9d,%eax
    27fe:	83 ff 0b             	cmp    $0xb,%edi
    2801:	74 3d                	je     2840 <riscv_dsp_corr_q7+0x760>
    2803:	44 0f be 4e 0b       	movsbl 0xb(%rsi),%r9d
    2808:	44 0f be 71 0b       	movsbl 0xb(%rcx),%r14d
    280d:	45 0f af ce          	imul   %r14d,%r9d
    2811:	44 01 c8             	add    %r9d,%eax
    2814:	83 ff 0c             	cmp    $0xc,%edi
    2817:	74 27                	je     2840 <riscv_dsp_corr_q7+0x760>
    2819:	44 0f be 4e 0c       	movsbl 0xc(%rsi),%r9d
    281e:	44 0f be 71 0c       	movsbl 0xc(%rcx),%r14d
    2823:	45 0f af ce          	imul   %r14d,%r9d
    2827:	44 01 c8             	add    %r9d,%eax
    282a:	83 ff 0d             	cmp    $0xd,%edi
    282d:	74 11                	je     2840 <riscv_dsp_corr_q7+0x760>
    282f:	0f be 49 0d          	movsbl 0xd(%rcx),%ecx
    2833:	0f be 76 0d          	movsbl 0xd(%rsi),%esi
    2837:	0f af ce             	imul   %esi,%ecx
    283a:	01 c8                	add    %ecx,%eax
    283c:	0f 1f 40 00          	nopl   0x0(%rax)
    2840:	b9 80 ff ff ff       	mov    $0xffffff80,%ecx
    2845:	c1 f8 07             	sar    $0x7,%eax
    2848:	45 8d 70 01          	lea    0x1(%r8),%r14d
    284c:	39 c8                	cmp    %ecx,%eax
    284e:	4d 89 f0             	mov    %r14,%r8
    2851:	0f 4c c1             	cmovl  %ecx,%eax
    2854:	b9 7f 00 00 00       	mov    $0x7f,%ecx
    2859:	39 c8                	cmp    %ecx,%eax
    285b:	0f 4f c1             	cmovg  %ecx,%eax
    285e:	49 01 ee             	add    %rbp,%r14
    2861:	41 88 02             	mov    %al,(%r10)
    2864:	4c 03 54 24 98       	add    -0x68(%rsp),%r10
    2869:	44 39 44 24 ac       	cmp    %r8d,-0x54(%rsp)
    286e:	0f 85 95 fd ff ff    	jne    2609 <riscv_dsp_corr_q7+0x529>
    2874:	8b 44 24 b8          	mov    -0x48(%rsp),%eax
    2878:	48 0f af 44 24 98    	imul   -0x68(%rsp),%rax
    287e:	48 01 44 24 a0       	add    %rax,-0x60(%rsp)
    2883:	8b 74 24 dc          	mov    -0x24(%rsp),%esi
    2887:	48 2b 74 24 e8       	sub    -0x18(%rsp),%rsi
    288c:	48 01 ee             	add    %rbp,%rsi
    288f:	8b 5c 24 d8          	mov    -0x28(%rsp),%ebx
    2893:	4c 8b 44 24 a0       	mov    -0x60(%rsp),%r8
    2898:	66 0f ef ed          	pxor   %xmm5,%xmm5
    289c:	66 0f ef e4          	pxor   %xmm4,%xmm4
    28a0:	4c 8b 4c 24 98       	mov    -0x68(%rsp),%r9
    28a5:	8d 7b ff             	lea    -0x1(%rbx),%edi
    28a8:	83 ff 0e             	cmp    $0xe,%edi
    28ab:	0f 86 5e 02 00 00    	jbe    2b0f <riscv_dsp_corr_q7+0xa2f>
    28b1:	0f 1f 80 00 00 00 00 	nopl   0x0(%rax)
    28b8:	8d 4b f0             	lea    -0x10(%rbx),%ecx
    28bb:	31 c0                	xor    %eax,%eax
    28bd:	66 0f ef c9          	pxor   %xmm1,%xmm1
    28c1:	31 d2                	xor    %edx,%edx
    28c3:	c1 e9 04             	shr    $0x4,%ecx
    28c6:	83 c1 01             	add    $0x1,%ecx
    28c9:	0f 1f 80 00 00 00 00 	nopl   0x0(%rax)
    28d0:	f3 0f 6f 04 06       	movdqu (%rsi,%rax,1),%xmm0
    28d5:	66 0f 6f fd          	movdqa %xmm5,%xmm7
    28d9:	66 0f 6f f5          	movdqa %xmm5,%xmm6
    28dd:	83 c2 01             	add    $0x1,%edx
    28e0:	f3 41 0f 6f 5c 05 00 	movdqu 0x0(%r13,%rax,1),%xmm3
    28e7:	48 83 c0 10          	add    $0x10,%rax
    28eb:	66 0f 64 f0          	pcmpgtb %xmm0,%xmm6
    28ef:	66 0f 6f d0          	movdqa %xmm0,%xmm2
    28f3:	66 0f 64 fb          	pcmpgtb %xmm3,%xmm7
    28f7:	66 44 0f 6f c3       	movdqa %xmm3,%xmm8
    28fc:	66 0f 60 d6          	punpcklbw %xmm6,%xmm2
    2900:	66 0f 68 c6          	punpckhbw %xmm6,%xmm0
    2904:	66 44 0f 60 c7       	punpcklbw %xmm7,%xmm8
    2909:	66 0f 68 df          	punpckhbw %xmm7,%xmm3
    290d:	66 41 0f d5 d0       	pmullw %xmm8,%xmm2
    2912:	66 0f d5 c3          	pmullw %xmm3,%xmm0
    2916:	66 0f 6f dc          	movdqa %xmm4,%xmm3
    291a:	66 0f 65 da          	pcmpgtw %xmm2,%xmm3
    291e:	66 0f 6f f2          	movdqa %xmm2,%xmm6
    2922:	66 0f 61 f3          	punpcklwd %xmm3,%xmm6
    2926:	66 0f 69 d3          	punpckhwd %xmm3,%xmm2
    292a:	66 0f 6f d8          	movdqa %xmm0,%xmm3
    292e:	66 0f fe ce          	paddd  %xmm6,%xmm1
    2932:	66 0f fe ca          	paddd  %xmm2,%xmm1
    2936:	66 0f 6f d4          	movdqa %xmm4,%xmm2
    293a:	66 0f 65 d0          	pcmpgtw %xmm0,%xmm2
    293e:	66 0f 61 da          	punpcklwd %xmm2,%xmm3
    2942:	66 0f 69 c2          	punpckhwd %xmm2,%xmm0
    2946:	66 0f fe cb          	paddd  %xmm3,%xmm1
    294a:	66 0f fe c8          	paddd  %xmm0,%xmm1
    294e:	39 ca                	cmp    %ecx,%edx
    2950:	0f 82 7a ff ff ff    	jb     28d0 <riscv_dsp_corr_q7+0x7f0>
    2956:	66 0f 6f c1          	movdqa %xmm1,%xmm0
    295a:	c1 e1 04             	shl    $0x4,%ecx
    295d:	89 dd                	mov    %ebx,%ebp
    295f:	66 0f 73 d8 08       	psrldq $0x8,%xmm0
    2964:	41 89 ca             	mov    %ecx,%r10d
    2967:	29 cd                	sub    %ecx,%ebp
    2969:	66 0f fe c8          	paddd  %xmm0,%xmm1
    296d:	4e 8d 1c 16          	lea    (%rsi,%r10,1),%r11
    2971:	4d 01 ea             	add    %r13,%r10
    2974:	66 0f 6f c1          	movdqa %xmm1,%xmm0
    2978:	66 0f 73 d8 04       	psrldq $0x4,%xmm0
    297d:	66 0f fe c8          	paddd  %xmm0,%xmm1
    2981:	66 0f 7e ca          	movd   %xmm1,%edx
    2985:	39 cb                	cmp    %ecx,%ebx
    2987:	0f 84 80 02 00 00    	je     2c0d <riscv_dsp_corr_q7+0xb2d>
    298d:	41 0f be 03          	movsbl (%r11),%eax
    2991:	41 0f be 0a          	movsbl (%r10),%ecx
    2995:	0f af c1             	imul   %ecx,%eax
    2998:	01 d0                	add    %edx,%eax
    299a:	83 fd 01             	cmp    $0x1,%ebp
    299d:	0f 84 35 01 00 00    	je     2ad8 <riscv_dsp_corr_q7+0x9f8>
    29a3:	41 0f be 53 01       	movsbl 0x1(%r11),%edx
    29a8:	41 0f be 4a 01       	movsbl 0x1(%r10),%ecx
    29ad:	0f af d1             	imul   %ecx,%edx
    29b0:	01 d0                	add    %edx,%eax
    29b2:	83 fd 02             	cmp    $0x2,%ebp
    29b5:	0f 84 1d 01 00 00    	je     2ad8 <riscv_dsp_corr_q7+0x9f8>
    29bb:	41 0f be 53 02       	movsbl 0x2(%r11),%edx
    29c0:	41 0f be 4a 02       	movsbl 0x2(%r10),%ecx
    29c5:	0f af d1             	imul   %ecx,%edx
    29c8:	01 d0                	add    %edx,%eax
    29ca:	83 fd 03             	cmp    $0x3,%ebp
    29cd:	0f 84 05 01 00 00    	je     2ad8 <riscv_dsp_corr_q7+0x9f8>
    29d3:	41 0f be 52 03       	movsbl 0x3(%r10),%edx
    29d8:	41 0f be 4b 03       	movsbl 0x3(%r11),%ecx
    29dd:	0f af d1             	imul   %ecx,%edx
    29e0:	01 d0                	add    %edx,%eax
    29e2:	83 fd 04             	cmp    $0x4,%ebp
    29e5:	0f 84 ed 00 00 00    	je     2ad8 <riscv_dsp_corr_q7+0x9f8>
    29eb:	41 0f be 53 04       	movsbl 0x4(%r11),%edx
    29f0:	41 0f be 4a 04       	movsbl 0x4(%r10),%ecx
    29f5:	0f af d1             	imul   %ecx,%edx
    29f8:	01 d0                	add    %edx,%eax
    29fa:	83 fd 05             	cmp    $0x5,%ebp
    29fd:	0f 84 d5 00 00 00    	je     2ad8 <riscv_dsp_corr_q7+0x9f8>
    2a03:	41 0f be 53 05       	movsbl 0x5(%r11),%edx
    2a08:	41 0f be 4a 05       	movsbl 0x5(%r10),%ecx
    2a0d:	0f af d1             	imul   %ecx,%edx
    2a10:	01 d0                	add    %edx,%eax
    2a12:	83 fd 06             	cmp    $0x6,%ebp
    2a15:	0f 84 bd 00 00 00    	je     2ad8 <riscv_dsp_corr_q7+0x9f8>
    2a1b:	41 0f be 53 06       	movsbl 0x6(%r11),%edx
    2a20:	41 0f be 4a 06       	movsbl 0x6(%r10),%ecx
    2a25:	0f af d1             	imul   %ecx,%edx
    2a28:	01 d0                	add    %edx,%eax
    2a2a:	83 fd 07             	cmp    $0x7,%ebp
    2a2d:	0f 84 a5 00 00 00    	je     2ad8 <riscv_dsp_corr_q7+0x9f8>
    2a33:	41 0f be 52 07       	movsbl 0x7(%r10),%edx
    2a38:	41 0f be 4b 07       	movsbl 0x7(%r11),%ecx
    2a3d:	0f af d1             	imul   %ecx,%edx
    2a40:	01 d0                	add    %edx,%eax
    2a42:	83 fd 08             	cmp    $0x8,%ebp
    2a45:	0f 84 8d 00 00 00    	je     2ad8 <riscv_dsp_corr_q7+0x9f8>
    2a4b:	41 0f be 53 08       	movsbl 0x8(%r11),%edx
    2a50:	41 0f be 4a 08       	movsbl 0x8(%r10),%ecx
    2a55:	0f af d1             	imul   %ecx,%edx
    2a58:	01 d0                	add    %edx,%eax
    2a5a:	83 fd 09             	cmp    $0x9,%ebp
    2a5d:	74 79                	je     2ad8 <riscv_dsp_corr_q7+0x9f8>
    2a5f:	41 0f be 53 09       	movsbl 0x9(%r11),%edx
    2a64:	41 0f be 4a 09       	movsbl 0x9(%r10),%ecx
    2a69:	0f af d1             	imul   %ecx,%edx
    2a6c:	01 d0                	add    %edx,%eax
    2a6e:	83 fd 0a             	cmp    $0xa,%ebp
    2a71:	74 65                	je     2ad8 <riscv_dsp_corr_q7+0x9f8>
    2a73:	41 0f be 53 0a       	movsbl 0xa(%r11),%edx
    2a78:	41 0f be 4a 0a       	movsbl 0xa(%r10),%ecx
    2a7d:	0f af d1             	imul   %ecx,%edx
    2a80:	01 d0                	add    %edx,%eax
    2a82:	83 fd 0b             	cmp    $0xb,%ebp
    2a85:	74 51                	je     2ad8 <riscv_dsp_corr_q7+0x9f8>
    2a87:	41 0f be 53 0b       	movsbl 0xb(%r11),%edx
    2a8c:	41 0f be 4a 0b       	movsbl 0xb(%r10),%ecx
    2a91:	0f af d1             	imul   %ecx,%edx
    2a94:	01 d0                	add    %edx,%eax
    2a96:	83 fd 0c             	cmp    $0xc,%ebp
    2a99:	74 3d                	je     2ad8 <riscv_dsp_corr_q7+0x9f8>
    2a9b:	41 0f be 53 0c       	movsbl 0xc(%r11),%edx
    2aa0:	41 0f be 4a 0c       	movsbl 0xc(%r10),%ecx
    2aa5:	0f af d1             	imul   %ecx,%edx
    2aa8:	01 d0                	add    %edx,%eax
    2aaa:	83 fd 0d             	cmp    $0xd,%ebp
    2aad:	74 29                	je     2ad8 <riscv_dsp_corr_q7+0x9f8>
    2aaf:	41 0f be 53 0d       	movsbl 0xd(%r11),%edx
    2ab4:	41 0f be 4a 0d       	movsbl 0xd(%r10),%ecx
    2ab9:	0f af d1             	imul   %ecx,%edx
    2abc:	01 d0                	add    %edx,%eax
    2abe:	83 fd 0e             	cmp    $0xe,%ebp
    2ac1:	74 15                	je     2ad8 <riscv_dsp_corr_q7+0x9f8>
    2ac3:	41 0f be 52 0e       	movsbl 0xe(%r10),%edx
    2ac8:	41 0f be 4b 0e       	movsbl 0xe(%r11),%ecx
    2acd:	0f af d1             	imul   %ecx,%edx
    2ad0:	01 d0                	add    %edx,%eax
    2ad2:	66 0f 1f 44 00 00    	nopw   0x0(%rax,%rax,1)
    2ad8:	ba 80 ff ff ff       	mov    $0xffffff80,%edx
    2add:	c1 f8 07             	sar    $0x7,%eax
    2ae0:	39 d0                	cmp    %edx,%eax
    2ae2:	0f 4c c2             	cmovl  %edx,%eax
    2ae5:	ba 7f 00 00 00       	mov    $0x7f,%edx
    2aea:	39 d0                	cmp    %edx,%eax
    2aec:	0f 4f c2             	cmovg  %edx,%eax
    2aef:	48 83 c6 01          	add    $0x1,%rsi
    2af3:	41 88 00             	mov    %al,(%r8)
    2af6:	4d 01 c8             	add    %r9,%r8
    2af9:	85 ff                	test   %edi,%edi
    2afb:	0f 84 d7 00 00 00    	je     2bd8 <riscv_dsp_corr_q7+0xaf8>
    2b01:	89 fb                	mov    %edi,%ebx
    2b03:	8d 7b ff             	lea    -0x1(%rbx),%edi
    2b06:	83 ff 0e             	cmp    $0xe,%edi
    2b09:	0f 87 a9 fd ff ff    	ja     28b8 <riscv_dsp_corr_q7+0x7d8>
    2b0f:	89 dd                	mov    %ebx,%ebp
    2b11:	4d 89 ea             	mov    %r13,%r10
    2b14:	49 89 f3             	mov    %rsi,%r11
    2b17:	31 d2                	xor    %edx,%edx
    2b19:	e9 6f fe ff ff       	jmp    298d <riscv_dsp_corr_q7+0x8ad>
    2b1e:	44 89 ff             	mov    %r15d,%edi
    2b21:	48 89 e9             	mov    %rbp,%rcx
    2b24:	31 c0                	xor    %eax,%eax
    2b26:	e9 23 f7 ff ff       	jmp    224e <riscv_dsp_corr_q7+0x16e>
    2b2b:	8b 44 24 e0          	mov    -0x20(%rsp),%eax
    2b2f:	85 c0                	test   %eax,%eax
    2b31:	0f 84 4c fd ff ff    	je     2883 <riscv_dsp_corr_q7+0x7a3>
    2b37:	48 8b 4c 24 a0       	mov    -0x60(%rsp),%rcx
    2b3c:	44 8b 5c 24 d8       	mov    -0x28(%rsp),%r11d
    2b41:	48 89 ee             	mov    %rbp,%rsi
    2b44:	31 d2                	xor    %edx,%edx
    2b46:	44 8b 44 24 e0       	mov    -0x20(%rsp),%r8d
    2b4b:	4c 8b 54 24 98       	mov    -0x68(%rsp),%r10
    2b50:	31 c0                	xor    %eax,%eax
    2b52:	45 85 c9             	test   %r9d,%r9d
    2b55:	74 49                	je     2ba0 <riscv_dsp_corr_q7+0xac0>
    2b57:	0f be 06             	movsbl (%rsi),%eax
    2b5a:	41 0f be 7d 00       	movsbl 0x0(%r13),%edi
    2b5f:	0f af c7             	imul   %edi,%eax
    2b62:	45 85 db             	test   %r11d,%r11d
    2b65:	74 22                	je     2b89 <riscv_dsp_corr_q7+0xaa9>
    2b67:	0f be 7e 01          	movsbl 0x1(%rsi),%edi
    2b6b:	41 0f be 5d 01       	movsbl 0x1(%r13),%ebx
    2b70:	0f af fb             	imul   %ebx,%edi
    2b73:	01 f8                	add    %edi,%eax
    2b75:	41 83 f9 02          	cmp    $0x2,%r9d
    2b79:	74 0e                	je     2b89 <riscv_dsp_corr_q7+0xaa9>
    2b7b:	0f be 76 02          	movsbl 0x2(%rsi),%esi
    2b7f:	41 0f be 7d 02       	movsbl 0x2(%r13),%edi
    2b84:	0f af f7             	imul   %edi,%esi
    2b87:	01 f0                	add    %esi,%eax
    2b89:	be 80 ff ff ff       	mov    $0xffffff80,%esi
    2b8e:	c1 f8 07             	sar    $0x7,%eax
    2b91:	39 f0                	cmp    %esi,%eax
    2b93:	0f 4c c6             	cmovl  %esi,%eax
    2b96:	be 7f 00 00 00       	mov    $0x7f,%esi
    2b9b:	39 f0                	cmp    %esi,%eax
    2b9d:	0f 4f c6             	cmovg  %esi,%eax
    2ba0:	88 01                	mov    %al,(%rcx)
    2ba2:	8d 42 01             	lea    0x1(%rdx),%eax
    2ba5:	4c 01 d1             	add    %r10,%rcx
    2ba8:	48 89 c2             	mov    %rax,%rdx
    2bab:	48 8d 74 05 00       	lea    0x0(%rbp,%rax,1),%rsi
    2bb0:	41 39 c0             	cmp    %eax,%r8d
    2bb3:	75 9b                	jne    2b50 <riscv_dsp_corr_q7+0xa70>
    2bb5:	8b 4c 24 d8          	mov    -0x28(%rsp),%ecx
    2bb9:	8b 74 24 dc          	mov    -0x24(%rsp),%esi
    2bbd:	48 2b 74 24 e8       	sub    -0x18(%rsp),%rsi
    2bc2:	48 0f af 44 24 98    	imul   -0x68(%rsp),%rax
    2bc8:	48 01 ee             	add    %rbp,%rsi
    2bcb:	48 01 44 24 a0       	add    %rax,-0x60(%rsp)
    2bd0:	85 c9                	test   %ecx,%ecx
    2bd2:	0f 85 b7 fc ff ff    	jne    288f <riscv_dsp_corr_q7+0x7af>
    2bd8:	5b                   	pop    %rbx
    2bd9:	5d                   	pop    %rbp
    2bda:	41 5c                	pop    %r12
    2bdc:	41 5d                	pop    %r13
    2bde:	41 5e                	pop    %r14
    2be0:	41 5f                	pop    %r15
    2be2:	c3                   	ret    
    2be3:	8d 44 0e fe          	lea    -0x2(%rsi,%rcx,1),%eax
    2be7:	89 4c 24 dc          	mov    %ecx,-0x24(%rsp)
    2beb:	41 89 f1             	mov    %esi,%r9d
    2bee:	48 c7 44 24 98 ff ff 	movq   $0xffffffffffffffff,-0x68(%rsp)
    2bf5:	ff ff 
    2bf7:	4c 01 c0             	add    %r8,%rax
    2bfa:	48 89 44 24 a0       	mov    %rax,-0x60(%rsp)
    2bff:	48 89 e8             	mov    %rbp,%rax
    2c02:	48 89 d5             	mov    %rdx,%rbp
    2c05:	49 89 c5             	mov    %rax,%r13
    2c08:	e9 0b f5 ff ff       	jmp    2118 <riscv_dsp_corr_q7+0x38>
    2c0d:	b8 80 ff ff ff       	mov    $0xffffff80,%eax
    2c12:	c1 fa 07             	sar    $0x7,%edx
    2c15:	89 fb                	mov    %edi,%ebx
    2c17:	39 c2                	cmp    %eax,%edx
    2c19:	0f 4c d0             	cmovl  %eax,%edx
    2c1c:	b8 7f 00 00 00       	mov    $0x7f,%eax
    2c21:	39 c2                	cmp    %eax,%edx
    2c23:	0f 4f d0             	cmovg  %eax,%edx
    2c26:	48 83 c6 01          	add    $0x1,%rsi
    2c2a:	41 88 10             	mov    %dl,(%r8)
    2c2d:	4d 01 c8             	add    %r9,%r8
    2c30:	e9 ce fe ff ff       	jmp    2b03 <riscv_dsp_corr_q7+0xa23>
    2c35:	41 0f be 7d 00       	movsbl 0x0(%r13),%edi
    2c3a:	41 0f be 06          	movsbl (%r14),%eax
    2c3e:	49 8d 76 01          	lea    0x1(%r14),%rsi
    2c42:	48 8b 4c 24 c0       	mov    -0x40(%rsp),%rcx
    2c47:	0f af c7             	imul   %edi,%eax
    2c4a:	8b 7c 24 c8          	mov    -0x38(%rsp),%edi
    2c4e:	e9 a0 fa ff ff       	jmp    26f3 <riscv_dsp_corr_q7+0x613>
    2c53:	8b 54 24 e0          	mov    -0x20(%rsp),%edx
    2c57:	85 d2                	test   %edx,%edx
    2c59:	0f 85 d8 fe ff ff    	jne    2b37 <riscv_dsp_corr_q7+0xa57>
    2c5f:	e9 74 ff ff ff       	jmp    2bd8 <riscv_dsp_corr_q7+0xaf8>
    2c64:	c7 44 24 ac 00 00 00 	movl   $0x0,-0x54(%rsp)
    2c6b:	00 
    2c6c:	49 89 ee             	mov    %rbp,%r14
    2c6f:	e9 25 f9 ff ff       	jmp    2599 <riscv_dsp_corr_q7+0x4b9>

Disassembly of section .fini:

0000000000002c74 <_fini>:
    2c74:	f3 0f 1e fa          	endbr64 
    2c78:	48 83 ec 08          	sub    $0x8,%rsp
    2c7c:	48 83 c4 08          	add    $0x8,%rsp
    2c80:	c3                   	ret    
