
t_convert_f32_q31:     file format elf64-x86-64


Disassembly of section .init:

0000000000001000 <_init>:
    1000:	f3 0f 1e fa          	endbr64 
    1004:	48 83 ec 08          	sub    $0x8,%rsp
    1008:	48 8b 05 d9 2f 00 00 	mov    0x2fd9(%rip),%rax        # 3fe8 <__gmon_start__@Base>
    100f:	48 85 c0             	test   %rax,%rax
    1012:	74 02                	je     1016 <_init+0x16>
    1014:	ff d0                	call   *%rax
    1016:	48 83 c4 08          	add    $0x8,%rsp
    101a:	c3                   	ret    

Disassembly of section .plt:

0000000000001020 <.plt>:
    1020:	ff 35 5a 2f 00 00    	push   0x2f5a(%rip)        # 3f80 <_GLOBAL_OFFSET_TABLE_+0x8>
    1026:	f2 ff 25 5b 2f 00 00 	bnd jmp *0x2f5b(%rip)        # 3f88 <_GLOBAL_OFFSET_TABLE_+0x10>
    102d:	0f 1f 00             	nopl   (%rax)
    1030:	f3 0f 1e fa          	endbr64 
    1034:	68 00 00 00 00       	push   $0x0
    1039:	f2 e9 e1 ff ff ff    	bnd jmp 1020 <_init+0x20>
    103f:	90                   	nop
    1040:	f3 0f 1e fa          	endbr64 
    1044:	68 01 00 00 00       	push   $0x1
    1049:	f2 e9 d1 ff ff ff    	bnd jmp 1020 <_init+0x20>
    104f:	90                   	nop
    1050:	f3 0f 1e fa          	endbr64 
    1054:	68 02 00 00 00       	push   $0x2
    1059:	f2 e9 c1 ff ff ff    	bnd jmp 1020 <_init+0x20>
    105f:	90                   	nop
    1060:	f3 0f 1e fa          	endbr64 
    1064:	68 03 00 00 00       	push   $0x3
    1069:	f2 e9 b1 ff ff ff    	bnd jmp 1020 <_init+0x20>
    106f:	90                   	nop
    1070:	f3 0f 1e fa          	endbr64 
    1074:	68 04 00 00 00       	push   $0x4
    1079:	f2 e9 a1 ff ff ff    	bnd jmp 1020 <_init+0x20>
    107f:	90                   	nop
    1080:	f3 0f 1e fa          	endbr64 
    1084:	68 05 00 00 00       	push   $0x5
    1089:	f2 e9 91 ff ff ff    	bnd jmp 1020 <_init+0x20>
    108f:	90                   	nop
    1090:	f3 0f 1e fa          	endbr64 
    1094:	68 06 00 00 00       	push   $0x6
    1099:	f2 e9 81 ff ff ff    	bnd jmp 1020 <_init+0x20>
    109f:	90                   	nop
    10a0:	f3 0f 1e fa          	endbr64 
    10a4:	68 07 00 00 00       	push   $0x7
    10a9:	f2 e9 71 ff ff ff    	bnd jmp 1020 <_init+0x20>
    10af:	90                   	nop
    10b0:	f3 0f 1e fa          	endbr64 
    10b4:	68 08 00 00 00       	push   $0x8
    10b9:	f2 e9 61 ff ff ff    	bnd jmp 1020 <_init+0x20>
    10bf:	90                   	nop

Disassembly of section .plt.got:

00000000000010c0 <__cxa_finalize@plt>:
    10c0:	f3 0f 1e fa          	endbr64 
    10c4:	f2 ff 25 2d 2f 00 00 	bnd jmp *0x2f2d(%rip)        # 3ff8 <__cxa_finalize@GLIBC_2.2.5>
    10cb:	0f 1f 44 00 00       	nopl   0x0(%rax,%rax,1)

Disassembly of section .plt.sec:

00000000000010d0 <puts@plt>:
    10d0:	f3 0f 1e fa          	endbr64 
    10d4:	f2 ff 25 b5 2e 00 00 	bnd jmp *0x2eb5(%rip)        # 3f90 <puts@GLIBC_2.2.5>
    10db:	0f 1f 44 00 00       	nopl   0x0(%rax,%rax,1)

00000000000010e0 <fread@plt>:
    10e0:	f3 0f 1e fa          	endbr64 
    10e4:	f2 ff 25 ad 2e 00 00 	bnd jmp *0x2ead(%rip)        # 3f98 <fread@GLIBC_2.2.5>
    10eb:	0f 1f 44 00 00       	nopl   0x0(%rax,%rax,1)

00000000000010f0 <fclose@plt>:
    10f0:	f3 0f 1e fa          	endbr64 
    10f4:	f2 ff 25 a5 2e 00 00 	bnd jmp *0x2ea5(%rip)        # 3fa0 <fclose@GLIBC_2.2.5>
    10fb:	0f 1f 44 00 00       	nopl   0x0(%rax,%rax,1)

0000000000001100 <__stack_chk_fail@plt>:
    1100:	f3 0f 1e fa          	endbr64 
    1104:	f2 ff 25 9d 2e 00 00 	bnd jmp *0x2e9d(%rip)        # 3fa8 <__stack_chk_fail@GLIBC_2.4>
    110b:	0f 1f 44 00 00       	nopl   0x0(%rax,%rax,1)

0000000000001110 <log10f@plt>:
    1110:	f3 0f 1e fa          	endbr64 
    1114:	f2 ff 25 95 2e 00 00 	bnd jmp *0x2e95(%rip)        # 3fb0 <log10f@GLIBC_2.2.5>
    111b:	0f 1f 44 00 00       	nopl   0x0(%rax,%rax,1)

0000000000001120 <__printf_chk@plt>:
    1120:	f3 0f 1e fa          	endbr64 
    1124:	f2 ff 25 8d 2e 00 00 	bnd jmp *0x2e8d(%rip)        # 3fb8 <__printf_chk@GLIBC_2.3.4>
    112b:	0f 1f 44 00 00       	nopl   0x0(%rax,%rax,1)

0000000000001130 <fopen@plt>:
    1130:	f3 0f 1e fa          	endbr64 
    1134:	f2 ff 25 85 2e 00 00 	bnd jmp *0x2e85(%rip)        # 3fc0 <fopen@GLIBC_2.2.5>
    113b:	0f 1f 44 00 00       	nopl   0x0(%rax,%rax,1)

0000000000001140 <sqrt@plt>:
    1140:	f3 0f 1e fa          	endbr64 
    1144:	f2 ff 25 7d 2e 00 00 	bnd jmp *0x2e7d(%rip)        # 3fc8 <sqrt@GLIBC_2.2.5>
    114b:	0f 1f 44 00 00       	nopl   0x0(%rax,%rax,1)

0000000000001150 <__sprintf_chk@plt>:
    1150:	f3 0f 1e fa          	endbr64 
    1154:	f2 ff 25 75 2e 00 00 	bnd jmp *0x2e75(%rip)        # 3fd0 <__sprintf_chk@GLIBC_2.3.4>
    115b:	0f 1f 44 00 00       	nopl   0x0(%rax,%rax,1)

Disassembly of section .text:

0000000000001160 <main>:
    1160:	f3 0f 1e fa          	endbr64 
    1164:	55                   	push   %rbp
    1165:	48 89 e5             	mov    %rsp,%rbp
    1168:	41 57                	push   %r15
    116a:	41 56                	push   %r14
    116c:	41 55                	push   %r13
    116e:	41 54                	push   %r12
    1170:	53                   	push   %rbx
    1171:	48 81 ec 38 02 00 00 	sub    $0x238,%rsp
    1178:	64 48 8b 04 25 28 00 	mov    %fs:0x28,%rax
    117f:	00 00 
    1181:	48 89 45 c8          	mov    %rax,-0x38(%rbp)
    1185:	31 c0                	xor    %eax,%eax
    1187:	48 8d 84 24 00 d0 fe 	lea    -0x13000(%rsp),%rax
    118e:	ff 
    118f:	48 39 c4             	cmp    %rax,%rsp
    1192:	74 15                	je     11a9 <main+0x49>
    1194:	48 81 ec 00 10 00 00 	sub    $0x1000,%rsp
    119b:	48 83 8c 24 f8 0f 00 	orq    $0x0,0xff8(%rsp)
    11a2:	00 00 
    11a4:	48 39 c4             	cmp    %rax,%rsp
    11a7:	75 eb                	jne    1194 <main+0x34>
    11a9:	48 81 ec 80 08 00 00 	sub    $0x880,%rsp
    11b0:	48 83 8c 24 78 08 00 	orq    $0x0,0x878(%rsp)
    11b7:	00 00 
    11b9:	49 89 e1             	mov    %rsp,%r9
    11bc:	48 8d 84 24 00 d0 fe 	lea    -0x13000(%rsp),%rax
    11c3:	ff 
    11c4:	48 39 c4             	cmp    %rax,%rsp
    11c7:	74 12                	je     11db <main+0x7b>
    11c9:	48 81 ec 00 10 00 00 	sub    $0x1000,%rsp
    11d0:	48 83 8c 24 f8 0f 00 	orq    $0x0,0xff8(%rsp)
    11d7:	00 00 
    11d9:	eb e9                	jmp    11c4 <main+0x64>
    11db:	48 81 ec 80 08 00 00 	sub    $0x880,%rsp
    11e2:	48 83 8c 24 78 08 00 	orq    $0x0,0x878(%rsp)
    11e9:	00 00 
    11eb:	49 89 e5             	mov    %rsp,%r13
    11ee:	48 8d 84 24 00 d0 fe 	lea    -0x13000(%rsp),%rax
    11f5:	ff 
    11f6:	48 39 c4             	cmp    %rax,%rsp
    11f9:	74 12                	je     120d <main+0xad>
    11fb:	48 81 ec 00 10 00 00 	sub    $0x1000,%rsp
    1202:	48 83 8c 24 f8 0f 00 	orq    $0x0,0xff8(%rsp)
    1209:	00 00 
    120b:	eb e9                	jmp    11f6 <main+0x96>
    120d:	4c 89 8d b8 fd ff ff 	mov    %r9,-0x248(%rbp)
    1214:	48 81 ec 80 08 00 00 	sub    $0x880,%rsp
    121b:	48 83 8c 24 78 08 00 	orq    $0x0,0x878(%rsp)
    1222:	00 00 
    1224:	4c 8d 05 dd 0d 00 00 	lea    0xddd(%rip),%r8        # 2008 <_IO_stdin_used+0x8>
    122b:	ba 00 02 00 00       	mov    $0x200,%edx
    1230:	31 c0                	xor    %eax,%eax
    1232:	48 8d 0d 69 0e 00 00 	lea    0xe69(%rip),%rcx        # 20a2 <_IO_stdin_used+0xa2>
    1239:	be 01 00 00 00       	mov    $0x1,%esi
    123e:	48 8d 1d 6e 0e 00 00 	lea    0xe6e(%rip),%rbx        # 20b3 <_IO_stdin_used+0xb3>
    1245:	4c 8d a5 c0 fd ff ff 	lea    -0x240(%rbp),%r12
    124c:	49 89 e7             	mov    %rsp,%r15
    124f:	4c 89 e7             	mov    %r12,%rdi
    1252:	e8 f9 fe ff ff       	call   1150 <__sprintf_chk@plt>
    1257:	4c 89 e7             	mov    %r12,%rdi
    125a:	48 89 de             	mov    %rbx,%rsi
    125d:	e8 ce fe ff ff       	call   1130 <fopen@plt>
    1262:	4c 8d 05 9f 0d 00 00 	lea    0xd9f(%rip),%r8        # 2008 <_IO_stdin_used+0x8>
    1269:	ba 00 02 00 00       	mov    $0x200,%edx
    126e:	4c 89 e7             	mov    %r12,%rdi
    1271:	48 8d 0d 3d 0e 00 00 	lea    0xe3d(%rip),%rcx        # 20b5 <_IO_stdin_used+0xb5>
    1278:	49 89 c6             	mov    %rax,%r14
    127b:	be 01 00 00 00       	mov    $0x1,%esi
    1280:	31 c0                	xor    %eax,%eax
    1282:	e8 c9 fe ff ff       	call   1150 <__sprintf_chk@plt>
    1287:	4c 89 e7             	mov    %r12,%rdi
    128a:	48 89 de             	mov    %rbx,%rsi
    128d:	e8 9e fe ff ff       	call   1130 <fopen@plt>
    1292:	48 8b bd b8 fd ff ff 	mov    -0x248(%rbp),%rdi
    1299:	4c 89 f6             	mov    %r14,%rsi
    129c:	49 89 c4             	mov    %rax,%r12
    129f:	e8 8c 04 00 00       	call   1730 <test_Fread.constprop.0.isra.0>
    12a4:	4c 89 e6             	mov    %r12,%rsi
    12a7:	4c 89 ef             	mov    %r13,%rdi
    12aa:	e8 81 04 00 00       	call   1730 <test_Fread.constprop.0.isra.0>
    12af:	48 8b bd b8 fd ff ff 	mov    -0x248(%rbp),%rdi
    12b6:	ba 20 4e 00 00       	mov    $0x4e20,%edx
    12bb:	4c 89 fe             	mov    %r15,%rsi
    12be:	e8 8d 04 00 00       	call   1750 <riscv_dsp_convert_f32_q31>
    12c3:	31 c0                	xor    %eax,%eax
    12c5:	66 0f ef d2          	pxor   %xmm2,%xmm2
    12c9:	0f 1f 80 00 00 00 00 	nopl   0x0(%rax)
    12d0:	f3 41 0f 6f 44 05 00 	movdqu 0x0(%r13,%rax,1),%xmm0
    12d7:	f3 41 0f 6f 3c 07    	movdqu (%r15,%rax,1),%xmm7
    12dd:	48 83 c0 10          	add    $0x10,%rax
    12e1:	66 0f fa c7          	psubd  %xmm7,%xmm0
    12e5:	66 0f 6f c8          	movdqa %xmm0,%xmm1
    12e9:	66 0f 72 e1 1f       	psrad  $0x1f,%xmm1
    12ee:	66 0f ef c1          	pxor   %xmm1,%xmm0
    12f2:	66 0f fa c1          	psubd  %xmm1,%xmm0
    12f6:	66 0f 6f c8          	movdqa %xmm0,%xmm1
    12fa:	66 0f 66 ca          	pcmpgtd %xmm2,%xmm1
    12fe:	66 0f db c1          	pand   %xmm1,%xmm0
    1302:	66 0f df ca          	pandn  %xmm2,%xmm1
    1306:	66 0f 6f d1          	movdqa %xmm1,%xmm2
    130a:	66 0f eb d0          	por    %xmm0,%xmm2
    130e:	48 3d 80 38 01 00    	cmp    $0x13880,%rax
    1314:	75 ba                	jne    12d0 <main+0x170>
    1316:	66 0f 6f c2          	movdqa %xmm2,%xmm0
    131a:	48 8d 35 ab 0d 00 00 	lea    0xdab(%rip),%rsi        # 20cc <_IO_stdin_used+0xcc>
    1321:	bf 01 00 00 00       	mov    $0x1,%edi
    1326:	31 c0                	xor    %eax,%eax
    1328:	66 0f 73 d8 08       	psrldq $0x8,%xmm0
    132d:	66 0f 6f c8          	movdqa %xmm0,%xmm1
    1331:	66 0f 66 ca          	pcmpgtd %xmm2,%xmm1
    1335:	66 0f db c1          	pand   %xmm1,%xmm0
    1339:	66 0f df ca          	pandn  %xmm2,%xmm1
    133d:	66 0f eb c8          	por    %xmm0,%xmm1
    1341:	66 0f 6f d1          	movdqa %xmm1,%xmm2
    1345:	66 0f 73 da 04       	psrldq $0x4,%xmm2
    134a:	66 0f 6f c2          	movdqa %xmm2,%xmm0
    134e:	66 0f 66 c1          	pcmpgtd %xmm1,%xmm0
    1352:	66 0f db d0          	pand   %xmm0,%xmm2
    1356:	66 0f df c1          	pandn  %xmm1,%xmm0
    135a:	66 0f eb c2          	por    %xmm2,%xmm0
    135e:	66 0f 7e c2          	movd   %xmm0,%edx
    1362:	e8 b9 fd ff ff       	call   1120 <__printf_chk@plt>
    1367:	4c 89 f7             	mov    %r14,%rdi
    136a:	e8 81 fd ff ff       	call   10f0 <fclose@plt>
    136f:	4c 89 e7             	mov    %r12,%rdi
    1372:	e8 79 fd ff ff       	call   10f0 <fclose@plt>
    1377:	48 8d 84 24 00 d0 fe 	lea    -0x13000(%rsp),%rax
    137e:	ff 
    137f:	48 39 c4             	cmp    %rax,%rsp
    1382:	74 15                	je     1399 <main+0x239>
    1384:	48 81 ec 00 10 00 00 	sub    $0x1000,%rsp
    138b:	48 83 8c 24 f8 0f 00 	orq    $0x0,0xff8(%rsp)
    1392:	00 00 
    1394:	48 39 c4             	cmp    %rax,%rsp
    1397:	75 eb                	jne    1384 <main+0x224>
    1399:	48 81 ec 80 08 00 00 	sub    $0x880,%rsp
    13a0:	48 83 8c 24 78 08 00 	orq    $0x0,0x878(%rsp)
    13a7:	00 00 
    13a9:	48 89 e3             	mov    %rsp,%rbx
    13ac:	48 8d 84 24 00 d0 fe 	lea    -0x13000(%rsp),%rax
    13b3:	ff 
    13b4:	48 39 c4             	cmp    %rax,%rsp
    13b7:	74 12                	je     13cb <main+0x26b>
    13b9:	48 81 ec 00 10 00 00 	sub    $0x1000,%rsp
    13c0:	48 83 8c 24 f8 0f 00 	orq    $0x0,0xff8(%rsp)
    13c7:	00 00 
    13c9:	eb e9                	jmp    13b4 <main+0x254>
    13cb:	48 81 ec 80 08 00 00 	sub    $0x880,%rsp
    13d2:	48 83 8c 24 78 08 00 	orq    $0x0,0x878(%rsp)
    13d9:	00 00 
    13db:	ba 20 4e 00 00       	mov    $0x4e20,%edx
    13e0:	48 89 de             	mov    %rbx,%rsi
    13e3:	4c 89 ef             	mov    %r13,%rdi
    13e6:	49 89 e4             	mov    %rsp,%r12
    13e9:	e8 f2 03 00 00       	call   17e0 <riscv_dsp_convert_q31_f32>
    13ee:	ba 20 4e 00 00       	mov    $0x4e20,%edx
    13f3:	4c 89 e6             	mov    %r12,%rsi
    13f6:	4c 89 ff             	mov    %r15,%rdi
    13f9:	e8 e2 03 00 00       	call   17e0 <riscv_dsp_convert_q31_f32>
    13fe:	66 0f ef db          	pxor   %xmm3,%xmm3
    1402:	66 0f ef ff          	pxor   %xmm7,%xmm7
    1406:	31 c0                	xor    %eax,%eax
    1408:	66 0f 28 ef          	movapd %xmm7,%xmm5
    140c:	0f 28 c3             	movaps %xmm3,%xmm0
    140f:	44 0f 28 c3          	movaps %xmm3,%xmm8
    1413:	f3 44 0f 10 0d e4 0c 	movss  0xce4(%rip),%xmm9        # 2100 <_IO_stdin_used+0x100>
    141a:	00 00 
    141c:	0f 28 f3             	movaps %xmm3,%xmm6
    141f:	90                   	nop
    1420:	f3 41 0f 10 0c 04    	movss  (%r12,%rax,1),%xmm1
    1426:	f3 0f 10 14 03       	movss  (%rbx,%rax,1),%xmm2
    142b:	66 0f 7e c9          	movd   %xmm1,%ecx
    142f:	81 f9 00 00 c0 7f    	cmp    $0x7fc00000,%ecx
    1435:	0f 84 b7 01 00 00    	je     15f2 <main+0x492>
    143b:	0f 28 e2             	movaps %xmm2,%xmm4
    143e:	f3 0f 5c ca          	subss  %xmm2,%xmm1
    1442:	48 83 c0 04          	add    $0x4,%rax
    1446:	f3 0f 5f e6          	maxss  %xmm6,%xmm4
    144a:	0f 28 f4             	movaps %xmm4,%xmm6
    144d:	0f 28 e2             	movaps %xmm2,%xmm4
    1450:	f3 41 0f 5d e0       	minss  %xmm8,%xmm4
    1455:	f3 0f 59 d2          	mulss  %xmm2,%xmm2
    1459:	44 0f 28 c4          	movaps %xmm4,%xmm8
    145d:	0f 28 e1             	movaps %xmm1,%xmm4
    1460:	f3 0f 59 c9          	mulss  %xmm1,%xmm1
    1464:	41 0f 54 e1          	andps  %xmm9,%xmm4
    1468:	f3 0f 58 c4          	addss  %xmm4,%xmm0
    146c:	f3 0f 5f e3          	maxss  %xmm3,%xmm4
    1470:	f3 0f 5a d2          	cvtss2sd %xmm2,%xmm2
    1474:	f2 0f 58 fa          	addsd  %xmm2,%xmm7
    1478:	0f 28 dc             	movaps %xmm4,%xmm3
    147b:	f3 0f 5a c9          	cvtss2sd %xmm1,%xmm1
    147f:	f2 0f 58 e9          	addsd  %xmm1,%xmm5
    1483:	48 3d 80 38 01 00    	cmp    $0x13880,%rax
    1489:	75 95                	jne    1420 <main+0x2c0>
    148b:	66 48 0f 7e e8       	movq   %xmm5,%rax
    1490:	f3 0f 11 a5 ac fd ff 	movss  %xmm4,-0x254(%rbp)
    1497:	ff 
    1498:	f3 44 0f 11 85 b0 fd 	movss  %xmm8,-0x250(%rbp)
    149f:	ff ff 
    14a1:	f3 0f 11 b5 b4 fd ff 	movss  %xmm6,-0x24c(%rbp)
    14a8:	ff 
    14a9:	f2 0f 11 bd b8 fd ff 	movsd  %xmm7,-0x248(%rbp)
    14b0:	ff 
    14b1:	3d 00 00 c0 7f       	cmp    $0x7fc00000,%eax
    14b6:	0f 84 36 01 00 00    	je     15f2 <main+0x492>
    14bc:	f3 0f 5e 05 34 0c 00 	divss  0xc34(%rip),%xmm0        # 20f8 <_IO_stdin_used+0xf8>
    14c3:	00 
    14c4:	f2 0f 11 ad a0 fd ff 	movsd  %xmm5,-0x260(%rbp)
    14cb:	ff 
    14cc:	66 41 0f 7e c6       	movd   %xmm0,%r14d
    14d1:	66 0f 28 c5          	movapd %xmm5,%xmm0
    14d5:	f2 0f 5e 05 33 0c 00 	divsd  0xc33(%rip),%xmm0        # 2110 <_IO_stdin_used+0x110>
    14dc:	00 
    14dd:	e8 5e fc ff ff       	call   1140 <sqrt@plt>
    14e2:	f3 0f 10 b5 b4 fd ff 	movss  -0x24c(%rbp),%xmm6
    14e9:	ff 
    14ea:	f3 44 0f 10 85 b0 fd 	movss  -0x250(%rbp),%xmm8
    14f1:	ff ff 
    14f3:	66 0f ef c9          	pxor   %xmm1,%xmm1
    14f7:	f2 0f 10 bd b8 fd ff 	movsd  -0x248(%rbp),%xmm7
    14fe:	ff 
    14ff:	f3 0f 10 9d ac fd ff 	movss  -0x254(%rbp),%xmm3
    1506:	ff 
    1507:	f3 41 0f 5c f0       	subss  %xmm8,%xmm6
    150c:	f2 0f 5a c8          	cvtsd2ss %xmm0,%xmm1
    1510:	0f 28 e9             	movaps %xmm1,%xmm5
    1513:	f3 0f 5e ee          	divss  %xmm6,%xmm5
    1517:	66 0f ef f6          	pxor   %xmm6,%xmm6
    151b:	66 0f 7e eb          	movd   %xmm5,%ebx
    151f:	f2 0f 10 ad a0 fd ff 	movsd  -0x260(%rbp),%xmm5
    1526:	ff 
    1527:	66 0f 2e ee          	ucomisd %xmm6,%xmm5
    152b:	0f 8a c5 00 00 00    	jp     15f6 <main+0x496>
    1531:	f3 0f 10 25 bb 0b 00 	movss  0xbbb(%rip),%xmm4        # 20f4 <_IO_stdin_used+0xf4>
    1538:	00 
    1539:	0f 85 b7 00 00 00    	jne    15f6 <main+0x496>
    153f:	48 8d 3d 99 0b 00 00 	lea    0xb99(%rip),%rdi        # 20df <_IO_stdin_used+0xdf>
    1546:	f3 0f 11 9d b0 fd ff 	movss  %xmm3,-0x250(%rbp)
    154d:	ff 
    154e:	f3 0f 11 a5 b8 fd ff 	movss  %xmm4,-0x248(%rbp)
    1555:	ff 
    1556:	f3 0f 11 8d b4 fd ff 	movss  %xmm1,-0x24c(%rbp)
    155d:	ff 
    155e:	e8 6d fb ff ff       	call   10d0 <puts@plt>
    1563:	66 0f 6e eb          	movd   %ebx,%xmm5
    1567:	66 0f ef d2          	pxor   %xmm2,%xmm2
    156b:	f3 0f 10 a5 b8 fd ff 	movss  -0x248(%rbp),%xmm4
    1572:	ff 
    1573:	f3 0f 10 9d b0 fd ff 	movss  -0x250(%rbp),%xmm3
    157a:	ff 
    157b:	f3 0f 10 8d b4 fd ff 	movss  -0x24c(%rbp),%xmm1
    1582:	ff 
    1583:	f3 0f 5a d5          	cvtss2sd %xmm5,%xmm2
    1587:	66 0f ef c0          	pxor   %xmm0,%xmm0
    158b:	66 41 0f 6e ee       	movd   %r14d,%xmm5
    1590:	48 8d 35 b9 0a 00 00 	lea    0xab9(%rip),%rsi        # 2050 <_IO_stdin_used+0x50>
    1597:	bf 01 00 00 00       	mov    $0x1,%edi
    159c:	b8 05 00 00 00       	mov    $0x5,%eax
    15a1:	f3 0f 5a c5          	cvtss2sd %xmm5,%xmm0
    15a5:	f3 0f 5a e4          	cvtss2sd %xmm4,%xmm4
    15a9:	f3 0f 5a db          	cvtss2sd %xmm3,%xmm3
    15ad:	f3 0f 5a c9          	cvtss2sd %xmm1,%xmm1
    15b1:	f2 0f 11 95 b8 fd ff 	movsd  %xmm2,-0x248(%rbp)
    15b8:	ff 
    15b9:	e8 62 fb ff ff       	call   1120 <__printf_chk@plt>
    15be:	f2 0f 10 05 52 0b 00 	movsd  0xb52(%rip),%xmm0        # 2118 <_IO_stdin_used+0x118>
    15c5:	00 
    15c6:	f2 0f 10 95 b8 fd ff 	movsd  -0x248(%rbp),%xmm2
    15cd:	ff 
    15ce:	66 0f 2f c2          	comisd %xmm2,%xmm0
    15d2:	19 c0                	sbb    %eax,%eax
    15d4:	48 8b 55 c8          	mov    -0x38(%rbp),%rdx
    15d8:	64 48 2b 14 25 28 00 	sub    %fs:0x28,%rdx
    15df:	00 00 
    15e1:	75 54                	jne    1637 <main+0x4d7>
    15e3:	48 8d 65 d8          	lea    -0x28(%rbp),%rsp
    15e7:	5b                   	pop    %rbx
    15e8:	41 5c                	pop    %r12
    15ea:	41 5d                	pop    %r13
    15ec:	41 5e                	pop    %r14
    15ee:	41 5f                	pop    %r15
    15f0:	5d                   	pop    %rbp
    15f1:	c3                   	ret    
    15f2:	31 c0                	xor    %eax,%eax
    15f4:	eb de                	jmp    15d4 <main+0x474>
    15f6:	f2 0f 5e fd          	divsd  %xmm5,%xmm7
    15fa:	66 0f ef c0          	pxor   %xmm0,%xmm0
    15fe:	f3 0f 11 9d b4 fd ff 	movss  %xmm3,-0x24c(%rbp)
    1605:	ff 
    1606:	f3 0f 11 8d b8 fd ff 	movss  %xmm1,-0x248(%rbp)
    160d:	ff 
    160e:	f2 0f 5a c7          	cvtsd2ss %xmm7,%xmm0
    1612:	e8 f9 fa ff ff       	call   1110 <log10f@plt>
    1617:	f3 0f 59 05 dd 0a 00 	mulss  0xadd(%rip),%xmm0        # 20fc <_IO_stdin_used+0xfc>
    161e:	00 
    161f:	f3 0f 10 9d b4 fd ff 	movss  -0x24c(%rbp),%xmm3
    1626:	ff 
    1627:	f3 0f 10 8d b8 fd ff 	movss  -0x248(%rbp),%xmm1
    162e:	ff 
    162f:	0f 28 e0             	movaps %xmm0,%xmm4
    1632:	e9 08 ff ff ff       	jmp    153f <main+0x3df>
    1637:	e8 c4 fa ff ff       	call   1100 <__stack_chk_fail@plt>
    163c:	0f 1f 40 00          	nopl   0x0(%rax)

0000000000001640 <_start>:
    1640:	f3 0f 1e fa          	endbr64 
    1644:	31 ed                	xor    %ebp,%ebp
    1646:	49 89 d1             	mov    %rdx,%r9
    1649:	5e                   	pop    %rsi
    164a:	48 89 e2             	mov    %rsp,%rdx
    164d:	48 83 e4 f0          	and    $0xfffffffffffffff0,%rsp
    1651:	50                   	push   %rax
    1652:	54                   	push   %rsp
    1653:	45 31 c0             	xor    %r8d,%r8d
    1656:	31 c9                	xor    %ecx,%ecx
    1658:	48 8d 3d 01 fb ff ff 	lea    -0x4ff(%rip),%rdi        # 1160 <main>
    165f:	ff 15 73 29 00 00    	call   *0x2973(%rip)        # 3fd8 <__libc_start_main@GLIBC_2.34>
    1665:	f4                   	hlt    
    1666:	66 2e 0f 1f 84 00 00 	cs nopw 0x0(%rax,%rax,1)
    166d:	00 00 00 

0000000000001670 <deregister_tm_clones>:
    1670:	48 8d 3d 99 29 00 00 	lea    0x2999(%rip),%rdi        # 4010 <__TMC_END__>
    1677:	48 8d 05 92 29 00 00 	lea    0x2992(%rip),%rax        # 4010 <__TMC_END__>
    167e:	48 39 f8             	cmp    %rdi,%rax
    1681:	74 15                	je     1698 <deregister_tm_clones+0x28>
    1683:	48 8b 05 56 29 00 00 	mov    0x2956(%rip),%rax        # 3fe0 <_ITM_deregisterTMCloneTable@Base>
    168a:	48 85 c0             	test   %rax,%rax
    168d:	74 09                	je     1698 <deregister_tm_clones+0x28>
    168f:	ff e0                	jmp    *%rax
    1691:	0f 1f 80 00 00 00 00 	nopl   0x0(%rax)
    1698:	c3                   	ret    
    1699:	0f 1f 80 00 00 00 00 	nopl   0x0(%rax)

00000000000016a0 <register_tm_clones>:
    16a0:	48 8d 3d 69 29 00 00 	lea    0x2969(%rip),%rdi        # 4010 <__TMC_END__>
    16a7:	48 8d 35 62 29 00 00 	lea    0x2962(%rip),%rsi        # 4010 <__TMC_END__>
    16ae:	48 29 fe             	sub    %rdi,%rsi
    16b1:	48 89 f0             	mov    %rsi,%rax
    16b4:	48 c1 ee 3f          	shr    $0x3f,%rsi
    16b8:	48 c1 f8 03          	sar    $0x3,%rax
    16bc:	48 01 c6             	add    %rax,%rsi
    16bf:	48 d1 fe             	sar    %rsi
    16c2:	74 14                	je     16d8 <register_tm_clones+0x38>
    16c4:	48 8b 05 25 29 00 00 	mov    0x2925(%rip),%rax        # 3ff0 <_ITM_registerTMCloneTable@Base>
    16cb:	48 85 c0             	test   %rax,%rax
    16ce:	74 08                	je     16d8 <register_tm_clones+0x38>
    16d0:	ff e0                	jmp    *%rax
    16d2:	66 0f 1f 44 00 00    	nopw   0x0(%rax,%rax,1)
    16d8:	c3                   	ret    
    16d9:	0f 1f 80 00 00 00 00 	nopl   0x0(%rax)

00000000000016e0 <__do_global_dtors_aux>:
    16e0:	f3 0f 1e fa          	endbr64 
    16e4:	80 3d 25 29 00 00 00 	cmpb   $0x0,0x2925(%rip)        # 4010 <__TMC_END__>
    16eb:	75 2b                	jne    1718 <__do_global_dtors_aux+0x38>
    16ed:	55                   	push   %rbp
    16ee:	48 83 3d 02 29 00 00 	cmpq   $0x0,0x2902(%rip)        # 3ff8 <__cxa_finalize@GLIBC_2.2.5>
    16f5:	00 
    16f6:	48 89 e5             	mov    %rsp,%rbp
    16f9:	74 0c                	je     1707 <__do_global_dtors_aux+0x27>
    16fb:	48 8b 3d 06 29 00 00 	mov    0x2906(%rip),%rdi        # 4008 <__dso_handle>
    1702:	e8 b9 f9 ff ff       	call   10c0 <__cxa_finalize@plt>
    1707:	e8 64 ff ff ff       	call   1670 <deregister_tm_clones>
    170c:	c6 05 fd 28 00 00 01 	movb   $0x1,0x28fd(%rip)        # 4010 <__TMC_END__>
    1713:	5d                   	pop    %rbp
    1714:	c3                   	ret    
    1715:	0f 1f 00             	nopl   (%rax)
    1718:	c3                   	ret    
    1719:	0f 1f 80 00 00 00 00 	nopl   0x0(%rax)

0000000000001720 <frame_dummy>:
    1720:	f3 0f 1e fa          	endbr64 
    1724:	e9 77 ff ff ff       	jmp    16a0 <register_tm_clones>
    1729:	0f 1f 80 00 00 00 00 	nopl   0x0(%rax)

0000000000001730 <test_Fread.constprop.0.isra.0>:
    1730:	48 89 f1             	mov    %rsi,%rcx
    1733:	ba 20 4e 00 00       	mov    $0x4e20,%edx
    1738:	be 04 00 00 00       	mov    $0x4,%esi
    173d:	e9 9e f9 ff ff       	jmp    10e0 <fread@plt>
    1742:	66 2e 0f 1f 84 00 00 	cs nopw 0x0(%rax,%rax,1)
    1749:	00 00 00 
    174c:	0f 1f 40 00          	nopl   0x0(%rax)

0000000000001750 <riscv_dsp_convert_f32_q31>:
    1750:	f3 0f 1e fa          	endbr64 
    1754:	85 d2                	test   %edx,%edx
    1756:	74 72                	je     17ca <riscv_dsp_convert_f32_q31+0x7a>
    1758:	f3 0f 10 0d c0 09 00 	movss  0x9c0(%rip),%xmm1        # 2120 <_IO_stdin_used+0x120>
    175f:	00 
    1760:	89 d2                	mov    %edx,%edx
    1762:	31 c0                	xor    %eax,%eax
    1764:	66 0f ef e4          	pxor   %xmm4,%xmm4
    1768:	f3 0f 10 15 84 09 00 	movss  0x984(%rip),%xmm2        # 20f4 <_IO_stdin_used+0xf4>
    176f:	00 
    1770:	f3 0f 10 2d ac 09 00 	movss  0x9ac(%rip),%xmm5        # 2124 <_IO_stdin_used+0x124>
    1777:	00 
    1778:	f3 0f 10 1d a8 09 00 	movss  0x9a8(%rip),%xmm3        # 2128 <_IO_stdin_used+0x128>
    177f:	00 
    1780:	eb 12                	jmp    1794 <riscv_dsp_convert_f32_q31+0x44>
    1782:	66 0f 1f 44 00 00    	nopw   0x0(%rax,%rax,1)
    1788:	89 0c 86             	mov    %ecx,(%rsi,%rax,4)
    178b:	48 83 c0 01          	add    $0x1,%rax
    178f:	48 39 c2             	cmp    %rax,%rdx
    1792:	74 36                	je     17ca <riscv_dsp_convert_f32_q31+0x7a>
    1794:	f3 0f 10 04 87       	movss  (%rdi,%rax,4),%xmm0
    1799:	b9 ff ff ff 7f       	mov    $0x7fffffff,%ecx
    179e:	0f 2f c1             	comiss %xmm1,%xmm0
    17a1:	77 e5                	ja     1788 <riscv_dsp_convert_f32_q31+0x38>
    17a3:	0f 2f d0             	comiss %xmm0,%xmm2
    17a6:	b9 00 00 00 80       	mov    $0x80000000,%ecx
    17ab:	77 db                	ja     1788 <riscv_dsp_convert_f32_q31+0x38>
    17ad:	f3 0f 59 c5          	mulss  %xmm5,%xmm0
    17b1:	0f 2f c4             	comiss %xmm4,%xmm0
    17b4:	72 1a                	jb     17d0 <riscv_dsp_convert_f32_q31+0x80>
    17b6:	f3 0f 58 c3          	addss  %xmm3,%xmm0
    17ba:	f3 0f 2c c8          	cvttss2si %xmm0,%ecx
    17be:	89 0c 86             	mov    %ecx,(%rsi,%rax,4)
    17c1:	48 83 c0 01          	add    $0x1,%rax
    17c5:	48 39 c2             	cmp    %rax,%rdx
    17c8:	75 ca                	jne    1794 <riscv_dsp_convert_f32_q31+0x44>
    17ca:	c3                   	ret    
    17cb:	0f 1f 44 00 00       	nopl   0x0(%rax,%rax,1)
    17d0:	f3 0f 5c c3          	subss  %xmm3,%xmm0
    17d4:	eb e4                	jmp    17ba <riscv_dsp_convert_f32_q31+0x6a>
    17d6:	66 2e 0f 1f 84 00 00 	cs nopw 0x0(%rax,%rax,1)
    17dd:	00 00 00 

00000000000017e0 <riscv_dsp_convert_q31_f32>:
    17e0:	f3 0f 1e fa          	endbr64 
    17e4:	48 89 f1             	mov    %rsi,%rcx
    17e7:	85 d2                	test   %edx,%edx
    17e9:	0f 84 97 00 00 00    	je     1886 <riscv_dsp_convert_q31_f32+0xa6>
    17ef:	8d 42 ff             	lea    -0x1(%rdx),%eax
    17f2:	83 f8 02             	cmp    $0x2,%eax
    17f5:	0f 86 96 00 00 00    	jbe    1891 <riscv_dsp_convert_q31_f32+0xb1>
    17fb:	89 d6                	mov    %edx,%esi
    17fd:	0f 28 0d 2c 09 00 00 	movaps 0x92c(%rip),%xmm1        # 2130 <_IO_stdin_used+0x130>
    1804:	31 c0                	xor    %eax,%eax
    1806:	c1 ee 02             	shr    $0x2,%esi
    1809:	48 c1 e6 04          	shl    $0x4,%rsi
    180d:	0f 1f 00             	nopl   (%rax)
    1810:	f3 0f 6f 14 07       	movdqu (%rdi,%rax,1),%xmm2
    1815:	0f 5b c2             	cvtdq2ps %xmm2,%xmm0
    1818:	0f 59 c1             	mulps  %xmm1,%xmm0
    181b:	0f 11 04 01          	movups %xmm0,(%rcx,%rax,1)
    181f:	48 83 c0 10          	add    $0x10,%rax
    1823:	48 39 f0             	cmp    %rsi,%rax
    1826:	75 e8                	jne    1810 <riscv_dsp_convert_q31_f32+0x30>
    1828:	89 d6                	mov    %edx,%esi
    182a:	83 e6 fc             	and    $0xfffffffc,%esi
    182d:	89 f0                	mov    %esi,%eax
    182f:	48 c1 e0 02          	shl    $0x2,%rax
    1833:	4c 8d 04 07          	lea    (%rdi,%rax,1),%r8
    1837:	48 01 c8             	add    %rcx,%rax
    183a:	39 f2                	cmp    %esi,%edx
    183c:	74 52                	je     1890 <riscv_dsp_convert_q31_f32+0xb0>
    183e:	29 f2                	sub    %esi,%edx
    1840:	83 fa 01             	cmp    $0x1,%edx
    1843:	74 2c                	je     1871 <riscv_dsp_convert_q31_f32+0x91>
    1845:	f3 0f 7e 0d e3 08 00 	movq   0x8e3(%rip),%xmm1        # 2130 <_IO_stdin_used+0x130>
    184c:	00 
    184d:	f3 0f 7e 04 b7       	movq   (%rdi,%rsi,4),%xmm0
    1852:	0f 5b c0             	cvtdq2ps %xmm0,%xmm0
    1855:	0f 59 c1             	mulps  %xmm1,%xmm0
    1858:	0f 13 04 b1          	movlps %xmm0,(%rcx,%rsi,4)
    185c:	89 d6                	mov    %edx,%esi
    185e:	83 e6 fe             	and    $0xfffffffe,%esi
    1861:	89 f1                	mov    %esi,%ecx
    1863:	48 c1 e1 02          	shl    $0x2,%rcx
    1867:	49 01 c8             	add    %rcx,%r8
    186a:	48 01 c8             	add    %rcx,%rax
    186d:	39 f2                	cmp    %esi,%edx
    186f:	74 15                	je     1886 <riscv_dsp_convert_q31_f32+0xa6>
    1871:	66 0f ef c0          	pxor   %xmm0,%xmm0
    1875:	f3 41 0f 2a 00       	cvtsi2ssl (%r8),%xmm0
    187a:	f3 0f 59 05 ae 08 00 	mulss  0x8ae(%rip),%xmm0        # 2130 <_IO_stdin_used+0x130>
    1881:	00 
    1882:	f3 0f 11 00          	movss  %xmm0,(%rax)
    1886:	c3                   	ret    
    1887:	66 0f 1f 84 00 00 00 	nopw   0x0(%rax,%rax,1)
    188e:	00 00 
    1890:	c3                   	ret    
    1891:	48 89 f0             	mov    %rsi,%rax
    1894:	49 89 f8             	mov    %rdi,%r8
    1897:	31 f6                	xor    %esi,%esi
    1899:	eb a3                	jmp    183e <riscv_dsp_convert_q31_f32+0x5e>

Disassembly of section .fini:

000000000000189c <_fini>:
    189c:	f3 0f 1e fa          	endbr64 
    18a0:	48 83 ec 08          	sub    $0x8,%rsp
    18a4:	48 83 c4 08          	add    $0x8,%rsp
    18a8:	c3                   	ret    
