
t_conv_partial_q15:     file format elf64-x86-64


Disassembly of section .init:

0000000000001000 <_init>:
    1000:	f3 0f 1e fa          	endbr64 
    1004:	48 83 ec 08          	sub    $0x8,%rsp
    1008:	48 8b 05 d9 3f 00 00 	mov    0x3fd9(%rip),%rax        # 4fe8 <__gmon_start__@Base>
    100f:	48 85 c0             	test   %rax,%rax
    1012:	74 02                	je     1016 <_init+0x16>
    1014:	ff d0                	call   *%rax
    1016:	48 83 c4 08          	add    $0x8,%rsp
    101a:	c3                   	ret    

Disassembly of section .plt:

0000000000001020 <.plt>:
    1020:	ff 35 52 3f 00 00    	push   0x3f52(%rip)        # 4f78 <_GLOBAL_OFFSET_TABLE_+0x8>
    1026:	f2 ff 25 53 3f 00 00 	bnd jmp *0x3f53(%rip)        # 4f80 <_GLOBAL_OFFSET_TABLE_+0x10>
    102d:	0f 1f 00             	nopl   (%rax)
    1030:	f3 0f 1e fa          	endbr64 
    1034:	68 00 00 00 00       	push   $0x0
    1039:	f2 e9 e1 ff ff ff    	bnd jmp 1020 <_init+0x20>
    103f:	90                   	nop
    1040:	f3 0f 1e fa          	endbr64 
    1044:	68 01 00 00 00       	push   $0x1
    1049:	f2 e9 d1 ff ff ff    	bnd jmp 1020 <_init+0x20>
    104f:	90                   	nop
    1050:	f3 0f 1e fa          	endbr64 
    1054:	68 02 00 00 00       	push   $0x2
    1059:	f2 e9 c1 ff ff ff    	bnd jmp 1020 <_init+0x20>
    105f:	90                   	nop
    1060:	f3 0f 1e fa          	endbr64 
    1064:	68 03 00 00 00       	push   $0x3
    1069:	f2 e9 b1 ff ff ff    	bnd jmp 1020 <_init+0x20>
    106f:	90                   	nop
    1070:	f3 0f 1e fa          	endbr64 
    1074:	68 04 00 00 00       	push   $0x4
    1079:	f2 e9 a1 ff ff ff    	bnd jmp 1020 <_init+0x20>
    107f:	90                   	nop
    1080:	f3 0f 1e fa          	endbr64 
    1084:	68 05 00 00 00       	push   $0x5
    1089:	f2 e9 91 ff ff ff    	bnd jmp 1020 <_init+0x20>
    108f:	90                   	nop
    1090:	f3 0f 1e fa          	endbr64 
    1094:	68 06 00 00 00       	push   $0x6
    1099:	f2 e9 81 ff ff ff    	bnd jmp 1020 <_init+0x20>
    109f:	90                   	nop
    10a0:	f3 0f 1e fa          	endbr64 
    10a4:	68 07 00 00 00       	push   $0x7
    10a9:	f2 e9 71 ff ff ff    	bnd jmp 1020 <_init+0x20>
    10af:	90                   	nop
    10b0:	f3 0f 1e fa          	endbr64 
    10b4:	68 08 00 00 00       	push   $0x8
    10b9:	f2 e9 61 ff ff ff    	bnd jmp 1020 <_init+0x20>
    10bf:	90                   	nop
    10c0:	f3 0f 1e fa          	endbr64 
    10c4:	68 09 00 00 00       	push   $0x9
    10c9:	f2 e9 51 ff ff ff    	bnd jmp 1020 <_init+0x20>
    10cf:	90                   	nop

Disassembly of section .plt.got:

00000000000010d0 <__cxa_finalize@plt>:
    10d0:	f3 0f 1e fa          	endbr64 
    10d4:	f2 ff 25 1d 3f 00 00 	bnd jmp *0x3f1d(%rip)        # 4ff8 <__cxa_finalize@GLIBC_2.2.5>
    10db:	0f 1f 44 00 00       	nopl   0x0(%rax,%rax,1)

Disassembly of section .plt.sec:

00000000000010e0 <puts@plt>:
    10e0:	f3 0f 1e fa          	endbr64 
    10e4:	f2 ff 25 9d 3e 00 00 	bnd jmp *0x3e9d(%rip)        # 4f88 <puts@GLIBC_2.2.5>
    10eb:	0f 1f 44 00 00       	nopl   0x0(%rax,%rax,1)

00000000000010f0 <fread@plt>:
    10f0:	f3 0f 1e fa          	endbr64 
    10f4:	f2 ff 25 95 3e 00 00 	bnd jmp *0x3e95(%rip)        # 4f90 <fread@GLIBC_2.2.5>
    10fb:	0f 1f 44 00 00       	nopl   0x0(%rax,%rax,1)

0000000000001100 <fclose@plt>:
    1100:	f3 0f 1e fa          	endbr64 
    1104:	f2 ff 25 8d 3e 00 00 	bnd jmp *0x3e8d(%rip)        # 4f98 <fclose@GLIBC_2.2.5>
    110b:	0f 1f 44 00 00       	nopl   0x0(%rax,%rax,1)

0000000000001110 <__stack_chk_fail@plt>:
    1110:	f3 0f 1e fa          	endbr64 
    1114:	f2 ff 25 85 3e 00 00 	bnd jmp *0x3e85(%rip)        # 4fa0 <__stack_chk_fail@GLIBC_2.4>
    111b:	0f 1f 44 00 00       	nopl   0x0(%rax,%rax,1)

0000000000001120 <log10f@plt>:
    1120:	f3 0f 1e fa          	endbr64 
    1124:	f2 ff 25 7d 3e 00 00 	bnd jmp *0x3e7d(%rip)        # 4fa8 <log10f@GLIBC_2.2.5>
    112b:	0f 1f 44 00 00       	nopl   0x0(%rax,%rax,1)

0000000000001130 <__printf_chk@plt>:
    1130:	f3 0f 1e fa          	endbr64 
    1134:	f2 ff 25 75 3e 00 00 	bnd jmp *0x3e75(%rip)        # 4fb0 <__printf_chk@GLIBC_2.3.4>
    113b:	0f 1f 44 00 00       	nopl   0x0(%rax,%rax,1)

0000000000001140 <__fread_chk@plt>:
    1140:	f3 0f 1e fa          	endbr64 
    1144:	f2 ff 25 6d 3e 00 00 	bnd jmp *0x3e6d(%rip)        # 4fb8 <__fread_chk@GLIBC_2.7>
    114b:	0f 1f 44 00 00       	nopl   0x0(%rax,%rax,1)

0000000000001150 <fopen@plt>:
    1150:	f3 0f 1e fa          	endbr64 
    1154:	f2 ff 25 65 3e 00 00 	bnd jmp *0x3e65(%rip)        # 4fc0 <fopen@GLIBC_2.2.5>
    115b:	0f 1f 44 00 00       	nopl   0x0(%rax,%rax,1)

0000000000001160 <sqrt@plt>:
    1160:	f3 0f 1e fa          	endbr64 
    1164:	f2 ff 25 5d 3e 00 00 	bnd jmp *0x3e5d(%rip)        # 4fc8 <sqrt@GLIBC_2.2.5>
    116b:	0f 1f 44 00 00       	nopl   0x0(%rax,%rax,1)

0000000000001170 <__sprintf_chk@plt>:
    1170:	f3 0f 1e fa          	endbr64 
    1174:	f2 ff 25 55 3e 00 00 	bnd jmp *0x3e55(%rip)        # 4fd0 <__sprintf_chk@GLIBC_2.3.4>
    117b:	0f 1f 44 00 00       	nopl   0x0(%rax,%rax,1)

Disassembly of section .text:

0000000000001180 <main>:
    1180:	f3 0f 1e fa          	endbr64 
    1184:	55                   	push   %rbp
    1185:	48 89 e5             	mov    %rsp,%rbp
    1188:	41 57                	push   %r15
    118a:	41 56                	push   %r14
    118c:	41 55                	push   %r13
    118e:	41 54                	push   %r12
    1190:	53                   	push   %rbx
    1191:	48 81 ec d8 02 00 00 	sub    $0x2d8,%rsp
    1198:	64 48 8b 04 25 28 00 	mov    %fs:0x28,%rax
    119f:	00 00 
    11a1:	48 89 45 c8          	mov    %rax,-0x38(%rbp)
    11a5:	48 89 e0             	mov    %rsp,%rax
    11a8:	48 39 c4             	cmp    %rax,%rsp
    11ab:	74 15                	je     11c2 <main+0x42>
    11ad:	48 81 ec 00 10 00 00 	sub    $0x1000,%rsp
    11b4:	48 83 8c 24 f8 0f 00 	orq    $0x0,0xff8(%rsp)
    11bb:	00 00 
    11bd:	48 39 c4             	cmp    %rax,%rsp
    11c0:	75 eb                	jne    11ad <main+0x2d>
    11c2:	48 81 ec b0 02 00 00 	sub    $0x2b0,%rsp
    11c9:	48 83 8c 24 a8 02 00 	orq    $0x0,0x2a8(%rsp)
    11d0:	00 00 
    11d2:	4c 8d 05 2f 1e 00 00 	lea    0x1e2f(%rip),%r8        # 3008 <_IO_stdin_used+0x8>
    11d9:	ba 00 02 00 00       	mov    $0x200,%edx
    11de:	31 c0                	xor    %eax,%eax
    11e0:	48 8d 0d e3 1e 00 00 	lea    0x1ee3(%rip),%rcx        # 30ca <_IO_stdin_used+0xca>
    11e7:	be 01 00 00 00       	mov    $0x1,%esi
    11ec:	4c 8d 2d ea 1e 00 00 	lea    0x1eea(%rip),%r13        # 30dd <_IO_stdin_used+0xdd>
    11f3:	4c 8d a5 c0 fd ff ff 	lea    -0x240(%rbp),%r12
    11fa:	49 89 e3             	mov    %rsp,%r11
    11fd:	4c 89 e7             	mov    %r12,%rdi
    1200:	4c 89 9d 48 fd ff ff 	mov    %r11,-0x2b8(%rbp)
    1207:	e8 64 ff ff ff       	call   1170 <__sprintf_chk@plt>
    120c:	4c 89 ee             	mov    %r13,%rsi
    120f:	4c 89 e7             	mov    %r12,%rdi
    1212:	e8 39 ff ff ff       	call   1150 <fopen@plt>
    1217:	4c 8b 9d 48 fd ff ff 	mov    -0x2b8(%rbp),%r11
    121e:	48 85 c0             	test   %rax,%rax
    1221:	48 89 85 28 fd ff ff 	mov    %rax,-0x2d8(%rbp)
    1228:	0f 84 0c 08 00 00    	je     1a3a <main+0x8ba>
    122e:	ba 00 02 00 00       	mov    $0x200,%edx
    1233:	be 01 00 00 00       	mov    $0x1,%esi
    1238:	4c 89 e7             	mov    %r12,%rdi
    123b:	31 c0                	xor    %eax,%eax
    123d:	4c 8d 05 c4 1d 00 00 	lea    0x1dc4(%rip),%r8        # 3008 <_IO_stdin_used+0x8>
    1244:	48 8d 0d 94 1e 00 00 	lea    0x1e94(%rip),%rcx        # 30df <_IO_stdin_used+0xdf>
    124b:	4c 89 9d 48 fd ff ff 	mov    %r11,-0x2b8(%rbp)
    1252:	e8 19 ff ff ff       	call   1170 <__sprintf_chk@plt>
    1257:	4c 89 ee             	mov    %r13,%rsi
    125a:	4c 89 e7             	mov    %r12,%rdi
    125d:	e8 ee fe ff ff       	call   1150 <fopen@plt>
    1262:	48 89 85 30 fd ff ff 	mov    %rax,-0x2d0(%rbp)
    1269:	48 85 c0             	test   %rax,%rax
    126c:	0f 84 c8 07 00 00    	je     1a3a <main+0x8ba>
    1272:	ba 00 02 00 00       	mov    $0x200,%edx
    1277:	be 01 00 00 00       	mov    $0x1,%esi
    127c:	4c 89 e7             	mov    %r12,%rdi
    127f:	31 c0                	xor    %eax,%eax
    1281:	4c 8d 05 80 1d 00 00 	lea    0x1d80(%rip),%r8        # 3008 <_IO_stdin_used+0x8>
    1288:	48 8d 0d c9 1d 00 00 	lea    0x1dc9(%rip),%rcx        # 3058 <_IO_stdin_used+0x58>
    128f:	e8 dc fe ff ff       	call   1170 <__sprintf_chk@plt>
    1294:	4c 89 ee             	mov    %r13,%rsi
    1297:	4c 89 e7             	mov    %r12,%rdi
    129a:	e8 b1 fe ff ff       	call   1150 <fopen@plt>
    129f:	48 89 85 20 fd ff ff 	mov    %rax,-0x2e0(%rbp)
    12a6:	48 85 c0             	test   %rax,%rax
    12a9:	0f 84 8b 07 00 00    	je     1a3a <main+0x8ba>
    12af:	31 c0                	xor    %eax,%eax
    12b1:	31 db                	xor    %ebx,%ebx
    12b3:	41 b9 05 00 00 00    	mov    $0x5,%r9d
    12b9:	41 bd 14 00 00 00    	mov    $0x14,%r13d
    12bf:	4c 8b 9d 48 fd ff ff 	mov    -0x2b8(%rbp),%r11
    12c6:	41 ba 1e 00 00 00    	mov    $0x1e,%r10d
    12cc:	4c 8d bd 80 fd ff ff 	lea    -0x280(%rbp),%r15
    12d3:	4c 8d b5 50 fd ff ff 	lea    -0x2b0(%rbp),%r14
    12da:	49 8d 7b 08          	lea    0x8(%r11),%rdi
    12de:	4c 89 d9             	mov    %r11,%rcx
    12e1:	49 c7 03 00 00 00 00 	movq   $0x0,(%r11)
    12e8:	4d 89 dc             	mov    %r11,%r12
    12eb:	49 c7 83 a6 02 00 00 	movq   $0x0,0x2a6(%r11)
    12f2:	00 00 00 00 
    12f6:	48 83 e7 f8          	and    $0xfffffffffffffff8,%rdi
    12fa:	48 29 f9             	sub    %rdi,%rcx
    12fd:	81 c1 ae 02 00 00    	add    $0x2ae,%ecx
    1303:	c1 e9 03             	shr    $0x3,%ecx
    1306:	f3 48 ab             	rep stos %rax,%es:(%rdi)
    1309:	4c 89 9d 18 fd ff ff 	mov    %r11,-0x2e8(%rbp)
    1310:	c7 85 48 fd ff ff 11 	movl   $0x11,-0x2b8(%rbp)
    1317:	00 00 00 
    131a:	eb 39                	jmp    1355 <main+0x1d5>
    131c:	0f 1f 40 00          	nopl   0x0(%rax)
    1320:	48 8d 05 59 1e 00 00 	lea    0x1e59(%rip),%rax        # 3180 <CSWTCH.31>
    1327:	44 8b 14 98          	mov    (%rax,%rbx,4),%r10d
    132b:	48 8d 05 2e 1e 00 00 	lea    0x1e2e(%rip),%rax        # 3160 <CSWTCH.32>
    1332:	44 8b 2c 98          	mov    (%rax,%rbx,4),%r13d
    1336:	48 8d 05 03 1e 00 00 	lea    0x1e03(%rip),%rax        # 3140 <CSWTCH.33>
    133d:	44 8b 0c 98          	mov    (%rax,%rbx,4),%r9d
    1341:	48 8d 05 d8 1d 00 00 	lea    0x1dd8(%rip),%rax        # 3120 <CSWTCH.34>
    1348:	8b 04 98             	mov    (%rax,%rbx,4),%eax
    134b:	48 83 c3 01          	add    $0x1,%rbx
    134f:	89 85 48 fd ff ff    	mov    %eax,-0x2b8(%rbp)
    1355:	44 89 d1             	mov    %r10d,%ecx
    1358:	ba 02 00 00 00       	mov    $0x2,%edx
    135d:	be 3c 00 00 00       	mov    $0x3c,%esi
    1362:	4c 89 ff             	mov    %r15,%rdi
    1365:	4c 8b 85 28 fd ff ff 	mov    -0x2d8(%rbp),%r8
    136c:	44 89 8d 38 fd ff ff 	mov    %r9d,-0x2c8(%rbp)
    1373:	44 89 95 40 fd ff ff 	mov    %r10d,-0x2c0(%rbp)
    137a:	e8 c1 fd ff ff       	call   1140 <__fread_chk@plt>
    137f:	44 89 e9             	mov    %r13d,%ecx
    1382:	ba 02 00 00 00       	mov    $0x2,%edx
    1387:	4c 89 f7             	mov    %r14,%rdi
    138a:	4c 8b 85 30 fd ff ff 	mov    -0x2d0(%rbp),%r8
    1391:	be 28 00 00 00       	mov    $0x28,%esi
    1396:	e8 a5 fd ff ff       	call   1140 <__fread_chk@plt>
    139b:	48 83 ec 08          	sub    $0x8,%rsp
    139f:	4d 89 e0             	mov    %r12,%r8
    13a2:	4c 89 f2             	mov    %r14,%rdx
    13a5:	8b 85 48 fd ff ff    	mov    -0x2b8(%rbp),%eax
    13ab:	44 89 e9             	mov    %r13d,%ecx
    13ae:	4c 89 ff             	mov    %r15,%rdi
    13b1:	49 83 c4 62          	add    $0x62,%r12
    13b5:	44 8b 8d 38 fd ff ff 	mov    -0x2c8(%rbp),%r9d
    13bc:	8b b5 40 fd ff ff    	mov    -0x2c0(%rbp),%esi
    13c2:	50                   	push   %rax
    13c3:	e8 78 07 00 00       	call   1b40 <riscv_dsp_conv_partial_q15>
    13c8:	58                   	pop    %rax
    13c9:	5a                   	pop    %rdx
    13ca:	48 83 fb 06          	cmp    $0x6,%rbx
    13ce:	0f 85 4c ff ff ff    	jne    1320 <main+0x1a0>
    13d4:	48 89 e0             	mov    %rsp,%rax
    13d7:	4c 8b 9d 18 fd ff ff 	mov    -0x2e8(%rbp),%r11
    13de:	48 39 c4             	cmp    %rax,%rsp
    13e1:	74 15                	je     13f8 <main+0x278>
    13e3:	48 81 ec 00 10 00 00 	sub    $0x1000,%rsp
    13ea:	48 83 8c 24 f8 0f 00 	orq    $0x0,0xff8(%rsp)
    13f1:	00 00 
    13f3:	48 39 c4             	cmp    %rax,%rsp
    13f6:	75 eb                	jne    13e3 <main+0x263>
    13f8:	4c 89 9d 48 fd ff ff 	mov    %r11,-0x2b8(%rbp)
    13ff:	48 81 ec b0 02 00 00 	sub    $0x2b0,%rsp
    1406:	48 83 8c 24 a8 02 00 	orq    $0x0,0x2a8(%rsp)
    140d:	00 00 
    140f:	ba 57 01 00 00       	mov    $0x157,%edx
    1414:	be 02 00 00 00       	mov    $0x2,%esi
    1419:	48 8b 8d 20 fd ff ff 	mov    -0x2e0(%rbp),%rcx
    1420:	49 89 e5             	mov    %rsp,%r13
    1423:	4c 89 ef             	mov    %r13,%rdi
    1426:	e8 c5 fc ff ff       	call   10f0 <fread@plt>
    142b:	66 0f ef d2          	pxor   %xmm2,%xmm2
    142f:	4c 8b 9d 48 fd ff ff 	mov    -0x2b8(%rbp),%r11
    1436:	31 c0                	xor    %eax,%eax
    1438:	66 0f 6f da          	movdqa %xmm2,%xmm3
    143c:	0f 1f 40 00          	nopl   0x0(%rax)
    1440:	f3 41 0f 6f 04 03    	movdqu (%r11,%rax,1),%xmm0
    1446:	f3 41 0f 6f 64 05 00 	movdqu 0x0(%r13,%rax,1),%xmm4
    144d:	66 0f 6f cb          	movdqa %xmm3,%xmm1
    1451:	48 83 c0 10          	add    $0x10,%rax
    1455:	66 0f f9 c4          	psubw  %xmm4,%xmm0
    1459:	66 0f f9 c8          	psubw  %xmm0,%xmm1
    145d:	66 0f ee c1          	pmaxsw %xmm1,%xmm0
    1461:	66 0f ee d0          	pmaxsw %xmm0,%xmm2
    1465:	48 3d a0 02 00 00    	cmp    $0x2a0,%rax
    146b:	75 d3                	jne    1440 <main+0x2c0>
    146d:	41 0f b7 93 a0 02 00 	movzwl 0x2a0(%r11),%edx
    1474:	00 
    1475:	66 41 2b 95 a0 02 00 	sub    0x2a0(%r13),%dx
    147c:	00 
    147d:	66 0f 6f c2          	movdqa %xmm2,%xmm0
    1481:	4c 89 9d 48 fd ff ff 	mov    %r11,-0x2b8(%rbp)
    1488:	89 d0                	mov    %edx,%eax
    148a:	66 0f 73 d8 08       	psrldq $0x8,%xmm0
    148f:	66 f7 d8             	neg    %ax
    1492:	66 0f ee d0          	pmaxsw %xmm0,%xmm2
    1496:	0f 48 c2             	cmovs  %edx,%eax
    1499:	41 0f b7 93 a2 02 00 	movzwl 0x2a2(%r11),%edx
    14a0:	00 
    14a1:	66 0f 6f c2          	movdqa %xmm2,%xmm0
    14a5:	66 41 2b 95 a2 02 00 	sub    0x2a2(%r13),%dx
    14ac:	00 
    14ad:	66 0f 73 d8 04       	psrldq $0x4,%xmm0
    14b2:	41 89 d2             	mov    %edx,%r10d
    14b5:	66 41 f7 da          	neg    %r10w
    14b9:	66 0f ee d0          	pmaxsw %xmm0,%xmm2
    14bd:	44 0f 48 d2          	cmovs  %edx,%r10d
    14c1:	41 0f b7 93 a4 02 00 	movzwl 0x2a4(%r11),%edx
    14c8:	00 
    14c9:	66 0f 6f c2          	movdqa %xmm2,%xmm0
    14cd:	66 41 2b 95 a4 02 00 	sub    0x2a4(%r13),%dx
    14d4:	00 
    14d5:	66 0f 73 d8 02       	psrldq $0x2,%xmm0
    14da:	41 89 d1             	mov    %edx,%r9d
    14dd:	66 41 f7 d9          	neg    %r9w
    14e1:	66 0f ee d0          	pmaxsw %xmm0,%xmm2
    14e5:	44 0f 48 ca          	cmovs  %edx,%r9d
    14e9:	41 0f b7 93 a6 02 00 	movzwl 0x2a6(%r11),%edx
    14f0:	00 
    14f1:	66 0f c5 ca 00       	pextrw $0x0,%xmm2,%ecx
    14f6:	66 41 2b 95 a6 02 00 	sub    0x2a6(%r13),%dx
    14fd:	00 
    14fe:	41 89 d0             	mov    %edx,%r8d
    1501:	66 41 f7 d8          	neg    %r8w
    1505:	44 0f 48 c2          	cmovs  %edx,%r8d
    1509:	41 0f b7 93 a8 02 00 	movzwl 0x2a8(%r11),%edx
    1510:	00 
    1511:	66 41 2b 95 a8 02 00 	sub    0x2a8(%r13),%dx
    1518:	00 
    1519:	89 d7                	mov    %edx,%edi
    151b:	66 f7 df             	neg    %di
    151e:	0f 48 fa             	cmovs  %edx,%edi
    1521:	41 0f b7 93 aa 02 00 	movzwl 0x2aa(%r11),%edx
    1528:	00 
    1529:	66 41 2b 95 aa 02 00 	sub    0x2aa(%r13),%dx
    1530:	00 
    1531:	89 d6                	mov    %edx,%esi
    1533:	66 f7 de             	neg    %si
    1536:	0f 48 f2             	cmovs  %edx,%esi
    1539:	41 0f b7 93 ac 02 00 	movzwl 0x2ac(%r11),%edx
    1540:	00 
    1541:	66 41 2b 95 ac 02 00 	sub    0x2ac(%r13),%dx
    1548:	00 
    1549:	89 d3                	mov    %edx,%ebx
    154b:	66 f7 db             	neg    %bx
    154e:	0f 49 d3             	cmovns %ebx,%edx
    1551:	66 44 39 d0          	cmp    %r10w,%ax
    1555:	41 0f 4c c2          	cmovl  %r10d,%eax
    1559:	66 44 39 c8          	cmp    %r9w,%ax
    155d:	41 0f 4c c1          	cmovl  %r9d,%eax
    1561:	66 44 39 c0          	cmp    %r8w,%ax
    1565:	41 0f 4c c0          	cmovl  %r8d,%eax
    1569:	66 39 f8             	cmp    %di,%ax
    156c:	0f 4c c7             	cmovl  %edi,%eax
    156f:	bf 01 00 00 00       	mov    $0x1,%edi
    1574:	66 39 f0             	cmp    %si,%ax
    1577:	0f 4c c6             	cmovl  %esi,%eax
    157a:	48 8d 35 71 1b 00 00 	lea    0x1b71(%rip),%rsi        # 30f2 <_IO_stdin_used+0xf2>
    1581:	66 39 d0             	cmp    %dx,%ax
    1584:	0f 4c c2             	cmovl  %edx,%eax
    1587:	66 39 c8             	cmp    %cx,%ax
    158a:	0f 4c c1             	cmovl  %ecx,%eax
    158d:	0f bf d0             	movswl %ax,%edx
    1590:	31 c0                	xor    %eax,%eax
    1592:	e8 99 fb ff ff       	call   1130 <__printf_chk@plt>
    1597:	48 8b bd 28 fd ff ff 	mov    -0x2d8(%rbp),%rdi
    159e:	e8 5d fb ff ff       	call   1100 <fclose@plt>
    15a3:	48 8b bd 30 fd ff ff 	mov    -0x2d0(%rbp),%rdi
    15aa:	e8 51 fb ff ff       	call   1100 <fclose@plt>
    15af:	48 8b bd 20 fd ff ff 	mov    -0x2e0(%rbp),%rdi
    15b6:	e8 45 fb ff ff       	call   1100 <fclose@plt>
    15bb:	48 89 e0             	mov    %rsp,%rax
    15be:	4c 8b 9d 48 fd ff ff 	mov    -0x2b8(%rbp),%r11
    15c5:	48 39 c4             	cmp    %rax,%rsp
    15c8:	74 15                	je     15df <main+0x45f>
    15ca:	48 81 ec 00 10 00 00 	sub    $0x1000,%rsp
    15d1:	48 83 8c 24 f8 0f 00 	orq    $0x0,0xff8(%rsp)
    15d8:	00 00 
    15da:	48 39 c4             	cmp    %rax,%rsp
    15dd:	75 eb                	jne    15ca <main+0x44a>
    15df:	48 81 ec 60 05 00 00 	sub    $0x560,%rsp
    15e6:	48 83 8c 24 58 05 00 	orq    $0x0,0x558(%rsp)
    15ed:	00 00 
    15ef:	48 89 e6             	mov    %rsp,%rsi
    15f2:	48 89 e0             	mov    %rsp,%rax
    15f5:	49 89 f4             	mov    %rsi,%r12
    15f8:	48 39 c4             	cmp    %rax,%rsp
    15fb:	74 12                	je     160f <main+0x48f>
    15fd:	48 81 ec 00 10 00 00 	sub    $0x1000,%rsp
    1604:	48 83 8c 24 f8 0f 00 	orq    $0x0,0xff8(%rsp)
    160b:	00 00 
    160d:	eb e9                	jmp    15f8 <main+0x478>
    160f:	4c 89 9d 48 fd ff ff 	mov    %r11,-0x2b8(%rbp)
    1616:	48 81 ec 60 05 00 00 	sub    $0x560,%rsp
    161d:	48 83 8c 24 58 05 00 	orq    $0x0,0x558(%rsp)
    1624:	00 00 
    1626:	ba 57 01 00 00       	mov    $0x157,%edx
    162b:	4c 89 ef             	mov    %r13,%rdi
    162e:	48 89 e3             	mov    %rsp,%rbx
    1631:	e8 da 09 00 00       	call   2010 <riscv_dsp_convert_q15_f32>
    1636:	48 8b bd 48 fd ff ff 	mov    -0x2b8(%rbp),%rdi
    163d:	48 89 de             	mov    %rbx,%rsi
    1640:	ba 57 01 00 00       	mov    $0x157,%edx
    1645:	4c 8d ab 5c 05 00 00 	lea    0x55c(%rbx),%r13
    164c:	e8 bf 09 00 00       	call   2010 <riscv_dsp_convert_q15_f32>
    1651:	66 45 0f ef e4       	pxor   %xmm12,%xmm12
    1656:	66 45 0f ef ed       	pxor   %xmm13,%xmm13
    165b:	f3 44 0f 10 1d 4c 1b 	movss  0x1b4c(%rip),%xmm11        # 31b0 <CSWTCH.31+0x30>
    1662:	00 00 
    1664:	41 0f 28 e4          	movaps %xmm12,%xmm4
    1668:	41 0f 28 dc          	movaps %xmm12,%xmm3
    166c:	45 0f 28 f4          	movaps %xmm12,%xmm14
    1670:	f3 44 0f 11 a5 48 fd 	movss  %xmm12,-0x2b8(%rbp)
    1677:	ff ff 
    1679:	41 0f 28 d4          	movaps %xmm12,%xmm2
    167d:	0f 1f 00             	nopl   (%rax)
    1680:	66 41 0f 28 fd       	movapd %xmm13,%xmm7
    1685:	66 41 0f 28 ed       	movapd %xmm13,%xmm5
    168a:	41 0f 28 cc          	movaps %xmm12,%xmm1
    168e:	31 c0                	xor    %eax,%eax
    1690:	45 0f 28 cc          	movaps %xmm12,%xmm9
    1694:	45 0f 28 c4          	movaps %xmm12,%xmm8
    1698:	41 0f 28 f4          	movaps %xmm12,%xmm6
    169c:	0f 1f 40 00          	nopl   0x0(%rax)
    16a0:	f3 0f 10 04 03       	movss  (%rbx,%rax,1),%xmm0
    16a5:	f3 45 0f 10 3c 04    	movss  (%r12,%rax,1),%xmm15
    16ab:	66 0f 7e c6          	movd   %xmm0,%esi
    16af:	81 fe 00 00 c0 7f    	cmp    $0x7fc00000,%esi
    16b5:	0f 84 e5 01 00 00    	je     18a0 <main+0x720>
    16bb:	45 0f 28 d7          	movaps %xmm15,%xmm10
    16bf:	f3 41 0f 5c c7       	subss  %xmm15,%xmm0
    16c4:	48 83 c0 04          	add    $0x4,%rax
    16c8:	f3 44 0f 5f d6       	maxss  %xmm6,%xmm10
    16cd:	41 0f 28 f2          	movaps %xmm10,%xmm6
    16d1:	45 0f 28 d7          	movaps %xmm15,%xmm10
    16d5:	f3 45 0f 5d d0       	minss  %xmm8,%xmm10
    16da:	f3 45 0f 59 ff       	mulss  %xmm15,%xmm15
    16df:	45 0f 28 c2          	movaps %xmm10,%xmm8
    16e3:	44 0f 28 d0          	movaps %xmm0,%xmm10
    16e7:	f3 0f 59 c0          	mulss  %xmm0,%xmm0
    16eb:	45 0f 54 d3          	andps  %xmm11,%xmm10
    16ef:	f3 45 0f 58 ca       	addss  %xmm10,%xmm9
    16f4:	f3 44 0f 5f d1       	maxss  %xmm1,%xmm10
    16f9:	f3 45 0f 5a ff       	cvtss2sd %xmm15,%xmm15
    16fe:	f2 41 0f 58 ff       	addsd  %xmm15,%xmm7
    1703:	41 0f 28 ca          	movaps %xmm10,%xmm1
    1707:	f3 0f 5a c0          	cvtss2sd %xmm0,%xmm0
    170b:	f2 0f 58 e8          	addsd  %xmm0,%xmm5
    170f:	48 3d c4 00 00 00    	cmp    $0xc4,%rax
    1715:	75 89                	jne    16a0 <main+0x520>
    1717:	66 48 0f 7e e8       	movq   %xmm5,%rax
    171c:	3d 00 00 c0 7f       	cmp    $0x7fc00000,%eax
    1721:	0f 84 79 01 00 00    	je     18a0 <main+0x720>
    1727:	f3 44 0f 5e 0d 6c 1a 	divss  0x1a6c(%rip),%xmm9        # 319c <CSWTCH.31+0x1c>
    172e:	00 00 
    1730:	66 0f 28 c5          	movapd %xmm5,%xmm0
    1734:	f2 0f 5e 05 84 1a 00 	divsd  0x1a84(%rip),%xmm0        # 31c0 <CSWTCH.31+0x40>
    173b:	00 
    173c:	66 44 0f 2e e8       	ucomisd %xmm0,%xmm13
    1741:	45 0f 28 d1          	movaps %xmm9,%xmm10
    1745:	0f 87 2c 02 00 00    	ja     1977 <main+0x7f7>
    174b:	f2 0f 51 c0          	sqrtsd %xmm0,%xmm0
    174f:	f3 41 0f 5c f0       	subss  %xmm8,%xmm6
    1754:	66 41 0f 2e ed       	ucomisd %xmm13,%xmm5
    1759:	66 45 0f ef ff       	pxor   %xmm15,%xmm15
    175e:	f2 44 0f 5a f8       	cvtsd2ss %xmm0,%xmm15
    1763:	45 0f 28 c7          	movaps %xmm15,%xmm8
    1767:	f3 44 0f 5e c6       	divss  %xmm6,%xmm8
    176c:	0f 8a 4c 01 00 00    	jp     18be <main+0x73e>
    1772:	f3 0f 10 05 1e 1a 00 	movss  0x1a1e(%rip),%xmm0        # 3198 <CSWTCH.31+0x18>
    1779:	00 
    177a:	0f 85 3e 01 00 00    	jne    18be <main+0x73e>
    1780:	48 81 c3 c4 00 00 00 	add    $0xc4,%rbx
    1787:	f3 41 0f 58 d0       	addss  %xmm8,%xmm2
    178c:	f3 45 0f 58 f2       	addss  %xmm10,%xmm14
    1791:	49 81 c4 c4 00 00 00 	add    $0xc4,%r12
    1798:	f3 44 0f 58 bd 48 fd 	addss  -0x2b8(%rbp),%xmm15
    179f:	ff ff 
    17a1:	f3 0f 58 d9          	addss  %xmm1,%xmm3
    17a5:	f3 0f 58 e0          	addss  %xmm0,%xmm4
    17a9:	f3 44 0f 11 bd 48 fd 	movss  %xmm15,-0x2b8(%rbp)
    17b0:	ff ff 
    17b2:	4c 39 eb             	cmp    %r13,%rbx
    17b5:	0f 85 c5 fe ff ff    	jne    1680 <main+0x500>
    17bb:	48 8d 3d 43 19 00 00 	lea    0x1943(%rip),%rdi        # 3105 <_IO_stdin_used+0x105>
    17c2:	f3 0f 11 95 28 fd ff 	movss  %xmm2,-0x2d8(%rbp)
    17c9:	ff 
    17ca:	f3 44 0f 11 b5 30 fd 	movss  %xmm14,-0x2d0(%rbp)
    17d1:	ff ff 
    17d3:	f3 0f 11 9d 38 fd ff 	movss  %xmm3,-0x2c8(%rbp)
    17da:	ff 
    17db:	f3 0f 11 a5 40 fd ff 	movss  %xmm4,-0x2c0(%rbp)
    17e2:	ff 
    17e3:	e8 f8 f8 ff ff       	call   10e0 <puts@plt>
    17e8:	f3 0f 10 05 b4 19 00 	movss  0x19b4(%rip),%xmm0        # 31a4 <CSWTCH.31+0x24>
    17ef:	00 
    17f0:	f3 0f 10 8d 48 fd ff 	movss  -0x2b8(%rbp),%xmm1
    17f7:	ff 
    17f8:	48 8d 35 79 18 00 00 	lea    0x1879(%rip),%rsi        # 3078 <_IO_stdin_used+0x78>
    17ff:	f3 0f 10 95 28 fd ff 	movss  -0x2d8(%rbp),%xmm2
    1806:	ff 
    1807:	bf 01 00 00 00       	mov    $0x1,%edi
    180c:	f3 0f 10 a5 40 fd ff 	movss  -0x2c0(%rbp),%xmm4
    1813:	ff 
    1814:	b8 05 00 00 00       	mov    $0x5,%eax
    1819:	f3 0f 10 9d 38 fd ff 	movss  -0x2c8(%rbp),%xmm3
    1820:	ff 
    1821:	f3 44 0f 10 b5 30 fd 	movss  -0x2d0(%rbp),%xmm14
    1828:	ff ff 
    182a:	f3 0f 5e d0          	divss  %xmm0,%xmm2
    182e:	f3 44 0f 5e f0       	divss  %xmm0,%xmm14
    1833:	f3 0f 5a d2          	cvtss2sd %xmm2,%xmm2
    1837:	f2 0f 11 95 48 fd ff 	movsd  %xmm2,-0x2b8(%rbp)
    183e:	ff 
    183f:	f3 0f 5e e0          	divss  %xmm0,%xmm4
    1843:	f3 0f 5e d8          	divss  %xmm0,%xmm3
    1847:	f3 0f 5a e4          	cvtss2sd %xmm4,%xmm4
    184b:	f3 0f 5e c8          	divss  %xmm0,%xmm1
    184f:	66 0f ef c0          	pxor   %xmm0,%xmm0
    1853:	f3 41 0f 5a c6       	cvtss2sd %xmm14,%xmm0
    1858:	f3 0f 5a db          	cvtss2sd %xmm3,%xmm3
    185c:	f3 0f 5a c9          	cvtss2sd %xmm1,%xmm1
    1860:	e8 cb f8 ff ff       	call   1130 <__printf_chk@plt>
    1865:	f2 0f 10 05 5b 19 00 	movsd  0x195b(%rip),%xmm0        # 31c8 <CSWTCH.31+0x48>
    186c:	00 
    186d:	f2 0f 10 95 48 fd ff 	movsd  -0x2b8(%rbp),%xmm2
    1874:	ff 
    1875:	66 0f 2f c2          	comisd %xmm2,%xmm0
    1879:	19 c0                	sbb    %eax,%eax
    187b:	48 8b 55 c8          	mov    -0x38(%rbp),%rdx
    187f:	64 48 2b 14 25 28 00 	sub    %fs:0x28,%rdx
    1886:	00 00 
    1888:	0f 85 b4 01 00 00    	jne    1a42 <main+0x8c2>
    188e:	48 8d 65 d8          	lea    -0x28(%rbp),%rsp
    1892:	5b                   	pop    %rbx
    1893:	41 5c                	pop    %r12
    1895:	41 5d                	pop    %r13
    1897:	41 5e                	pop    %r14
    1899:	41 5f                	pop    %r15
    189b:	5d                   	pop    %rbp
    189c:	c3                   	ret    
    189d:	0f 1f 00             	nopl   (%rax)
    18a0:	41 0f 28 cc          	movaps %xmm12,%xmm1
    18a4:	41 0f 28 c4          	movaps %xmm12,%xmm0
    18a8:	45 0f 28 fc          	movaps %xmm12,%xmm15
    18ac:	f3 44 0f 10 05 e3 18 	movss  0x18e3(%rip),%xmm8        # 3198 <CSWTCH.31+0x18>
    18b3:	00 00 
    18b5:	45 0f 28 d4          	movaps %xmm12,%xmm10
    18b9:	e9 c2 fe ff ff       	jmp    1780 <main+0x600>
    18be:	f2 0f 5e fd          	divsd  %xmm5,%xmm7
    18c2:	66 0f ef c0          	pxor   %xmm0,%xmm0
    18c6:	f3 0f 11 a5 10 fd ff 	movss  %xmm4,-0x2f0(%rbp)
    18cd:	ff 
    18ce:	f3 0f 11 9d 14 fd ff 	movss  %xmm3,-0x2ec(%rbp)
    18d5:	ff 
    18d6:	f3 44 0f 11 b5 18 fd 	movss  %xmm14,-0x2e8(%rbp)
    18dd:	ff ff 
    18df:	f3 0f 11 95 20 fd ff 	movss  %xmm2,-0x2e0(%rbp)
    18e6:	ff 
    18e7:	f3 0f 11 8d 28 fd ff 	movss  %xmm1,-0x2d8(%rbp)
    18ee:	ff 
    18ef:	f3 44 0f 11 85 30 fd 	movss  %xmm8,-0x2d0(%rbp)
    18f6:	ff ff 
    18f8:	f3 44 0f 11 bd 38 fd 	movss  %xmm15,-0x2c8(%rbp)
    18ff:	ff ff 
    1901:	f3 44 0f 11 95 40 fd 	movss  %xmm10,-0x2c0(%rbp)
    1908:	ff ff 
    190a:	f2 0f 5a c7          	cvtsd2ss %xmm7,%xmm0
    190e:	e8 0d f8 ff ff       	call   1120 <log10f@plt>
    1913:	66 45 0f ef e4       	pxor   %xmm12,%xmm12
    1918:	f3 44 0f 10 95 40 fd 	movss  -0x2c0(%rbp),%xmm10
    191f:	ff ff 
    1921:	f3 0f 59 05 77 18 00 	mulss  0x1877(%rip),%xmm0        # 31a0 <CSWTCH.31+0x20>
    1928:	00 
    1929:	f3 0f 10 8d 28 fd ff 	movss  -0x2d8(%rbp),%xmm1
    1930:	ff 
    1931:	66 45 0f ef ed       	pxor   %xmm13,%xmm13
    1936:	f3 44 0f 10 1d 71 18 	movss  0x1871(%rip),%xmm11        # 31b0 <CSWTCH.31+0x30>
    193d:	00 00 
    193f:	f3 0f 10 95 20 fd ff 	movss  -0x2e0(%rbp),%xmm2
    1946:	ff 
    1947:	f3 44 0f 10 bd 38 fd 	movss  -0x2c8(%rbp),%xmm15
    194e:	ff ff 
    1950:	f3 0f 10 9d 14 fd ff 	movss  -0x2ec(%rbp),%xmm3
    1957:	ff 
    1958:	f3 0f 10 a5 10 fd ff 	movss  -0x2f0(%rbp),%xmm4
    195f:	ff 
    1960:	f3 44 0f 10 85 30 fd 	movss  -0x2d0(%rbp),%xmm8
    1967:	ff ff 
    1969:	f3 44 0f 10 b5 18 fd 	movss  -0x2e8(%rbp),%xmm14
    1970:	ff ff 
    1972:	e9 09 fe ff ff       	jmp    1780 <main+0x600>
    1977:	f3 0f 11 a5 08 fd ff 	movss  %xmm4,-0x2f8(%rbp)
    197e:	ff 
    197f:	f3 0f 11 9d 0c fd ff 	movss  %xmm3,-0x2f4(%rbp)
    1986:	ff 
    1987:	f3 44 0f 11 b5 10 fd 	movss  %xmm14,-0x2f0(%rbp)
    198e:	ff ff 
    1990:	f3 0f 11 95 14 fd ff 	movss  %xmm2,-0x2ec(%rbp)
    1997:	ff 
    1998:	f3 0f 11 8d 18 fd ff 	movss  %xmm1,-0x2e8(%rbp)
    199f:	ff 
    19a0:	f3 44 0f 11 85 20 fd 	movss  %xmm8,-0x2e0(%rbp)
    19a7:	ff ff 
    19a9:	f3 0f 11 b5 28 fd ff 	movss  %xmm6,-0x2d8(%rbp)
    19b0:	ff 
    19b1:	f2 0f 11 bd 38 fd ff 	movsd  %xmm7,-0x2c8(%rbp)
    19b8:	ff 
    19b9:	f2 0f 11 ad 40 fd ff 	movsd  %xmm5,-0x2c0(%rbp)
    19c0:	ff 
    19c1:	f3 44 0f 11 8d 30 fd 	movss  %xmm9,-0x2d0(%rbp)
    19c8:	ff ff 
    19ca:	e8 91 f7 ff ff       	call   1160 <sqrt@plt>
    19cf:	f3 0f 10 a5 08 fd ff 	movss  -0x2f8(%rbp),%xmm4
    19d6:	ff 
    19d7:	f3 0f 10 9d 0c fd ff 	movss  -0x2f4(%rbp),%xmm3
    19de:	ff 
    19df:	f3 44 0f 10 1d c8 17 	movss  0x17c8(%rip),%xmm11        # 31b0 <CSWTCH.31+0x30>
    19e6:	00 00 
    19e8:	f3 44 0f 10 b5 10 fd 	movss  -0x2f0(%rbp),%xmm14
    19ef:	ff ff 
    19f1:	66 45 0f ef ed       	pxor   %xmm13,%xmm13
    19f6:	f3 0f 10 95 14 fd ff 	movss  -0x2ec(%rbp),%xmm2
    19fd:	ff 
    19fe:	66 45 0f ef e4       	pxor   %xmm12,%xmm12
    1a03:	f3 0f 10 8d 18 fd ff 	movss  -0x2e8(%rbp),%xmm1
    1a0a:	ff 
    1a0b:	f3 44 0f 10 85 20 fd 	movss  -0x2e0(%rbp),%xmm8
    1a12:	ff ff 
    1a14:	f3 0f 10 b5 28 fd ff 	movss  -0x2d8(%rbp),%xmm6
    1a1b:	ff 
    1a1c:	f2 0f 10 bd 38 fd ff 	movsd  -0x2c8(%rbp),%xmm7
    1a23:	ff 
    1a24:	f3 44 0f 10 95 30 fd 	movss  -0x2d0(%rbp),%xmm10
    1a2b:	ff ff 
    1a2d:	f2 0f 10 ad 40 fd ff 	movsd  -0x2c0(%rbp),%xmm5
    1a34:	ff 
    1a35:	e9 15 fd ff ff       	jmp    174f <main+0x5cf>
    1a3a:	83 c8 ff             	or     $0xffffffff,%eax
    1a3d:	e9 39 fe ff ff       	jmp    187b <main+0x6fb>
    1a42:	e8 c9 f6 ff ff       	call   1110 <__stack_chk_fail@plt>
    1a47:	66 0f 1f 84 00 00 00 	nopw   0x0(%rax,%rax,1)
    1a4e:	00 00 

0000000000001a50 <_start>:
    1a50:	f3 0f 1e fa          	endbr64 
    1a54:	31 ed                	xor    %ebp,%ebp
    1a56:	49 89 d1             	mov    %rdx,%r9
    1a59:	5e                   	pop    %rsi
    1a5a:	48 89 e2             	mov    %rsp,%rdx
    1a5d:	48 83 e4 f0          	and    $0xfffffffffffffff0,%rsp
    1a61:	50                   	push   %rax
    1a62:	54                   	push   %rsp
    1a63:	45 31 c0             	xor    %r8d,%r8d
    1a66:	31 c9                	xor    %ecx,%ecx
    1a68:	48 8d 3d 11 f7 ff ff 	lea    -0x8ef(%rip),%rdi        # 1180 <main>
    1a6f:	ff 15 63 35 00 00    	call   *0x3563(%rip)        # 4fd8 <__libc_start_main@GLIBC_2.34>
    1a75:	f4                   	hlt    
    1a76:	66 2e 0f 1f 84 00 00 	cs nopw 0x0(%rax,%rax,1)
    1a7d:	00 00 00 

0000000000001a80 <deregister_tm_clones>:
    1a80:	48 8d 3d 89 35 00 00 	lea    0x3589(%rip),%rdi        # 5010 <__TMC_END__>
    1a87:	48 8d 05 82 35 00 00 	lea    0x3582(%rip),%rax        # 5010 <__TMC_END__>
    1a8e:	48 39 f8             	cmp    %rdi,%rax
    1a91:	74 15                	je     1aa8 <deregister_tm_clones+0x28>
    1a93:	48 8b 05 46 35 00 00 	mov    0x3546(%rip),%rax        # 4fe0 <_ITM_deregisterTMCloneTable@Base>
    1a9a:	48 85 c0             	test   %rax,%rax
    1a9d:	74 09                	je     1aa8 <deregister_tm_clones+0x28>
    1a9f:	ff e0                	jmp    *%rax
    1aa1:	0f 1f 80 00 00 00 00 	nopl   0x0(%rax)
    1aa8:	c3                   	ret    
    1aa9:	0f 1f 80 00 00 00 00 	nopl   0x0(%rax)

0000000000001ab0 <register_tm_clones>:
    1ab0:	48 8d 3d 59 35 00 00 	lea    0x3559(%rip),%rdi        # 5010 <__TMC_END__>
    1ab7:	48 8d 35 52 35 00 00 	lea    0x3552(%rip),%rsi        # 5010 <__TMC_END__>
    1abe:	48 29 fe             	sub    %rdi,%rsi
    1ac1:	48 89 f0             	mov    %rsi,%rax
    1ac4:	48 c1 ee 3f          	shr    $0x3f,%rsi
    1ac8:	48 c1 f8 03          	sar    $0x3,%rax
    1acc:	48 01 c6             	add    %rax,%rsi
    1acf:	48 d1 fe             	sar    %rsi
    1ad2:	74 14                	je     1ae8 <register_tm_clones+0x38>
    1ad4:	48 8b 05 15 35 00 00 	mov    0x3515(%rip),%rax        # 4ff0 <_ITM_registerTMCloneTable@Base>
    1adb:	48 85 c0             	test   %rax,%rax
    1ade:	74 08                	je     1ae8 <register_tm_clones+0x38>
    1ae0:	ff e0                	jmp    *%rax
    1ae2:	66 0f 1f 44 00 00    	nopw   0x0(%rax,%rax,1)
    1ae8:	c3                   	ret    
    1ae9:	0f 1f 80 00 00 00 00 	nopl   0x0(%rax)

0000000000001af0 <__do_global_dtors_aux>:
    1af0:	f3 0f 1e fa          	endbr64 
    1af4:	80 3d 15 35 00 00 00 	cmpb   $0x0,0x3515(%rip)        # 5010 <__TMC_END__>
    1afb:	75 2b                	jne    1b28 <__do_global_dtors_aux+0x38>
    1afd:	55                   	push   %rbp
    1afe:	48 83 3d f2 34 00 00 	cmpq   $0x0,0x34f2(%rip)        # 4ff8 <__cxa_finalize@GLIBC_2.2.5>
    1b05:	00 
    1b06:	48 89 e5             	mov    %rsp,%rbp
    1b09:	74 0c                	je     1b17 <__do_global_dtors_aux+0x27>
    1b0b:	48 8b 3d f6 34 00 00 	mov    0x34f6(%rip),%rdi        # 5008 <__dso_handle>
    1b12:	e8 b9 f5 ff ff       	call   10d0 <__cxa_finalize@plt>
    1b17:	e8 64 ff ff ff       	call   1a80 <deregister_tm_clones>
    1b1c:	c6 05 ed 34 00 00 01 	movb   $0x1,0x34ed(%rip)        # 5010 <__TMC_END__>
    1b23:	5d                   	pop    %rbp
    1b24:	c3                   	ret    
    1b25:	0f 1f 00             	nopl   (%rax)
    1b28:	c3                   	ret    
    1b29:	0f 1f 80 00 00 00 00 	nopl   0x0(%rax)

0000000000001b30 <frame_dummy>:
    1b30:	f3 0f 1e fa          	endbr64 
    1b34:	e9 77 ff ff ff       	jmp    1ab0 <register_tm_clones>
    1b39:	0f 1f 80 00 00 00 00 	nopl   0x0(%rax)

0000000000001b40 <riscv_dsp_conv_partial_q15>:
    1b40:	f3 0f 1e fa          	endbr64 
    1b44:	41 57                	push   %r15
    1b46:	49 89 ff             	mov    %rdi,%r15
    1b49:	48 89 d7             	mov    %rdx,%rdi
    1b4c:	41 56                	push   %r14
    1b4e:	41 55                	push   %r13
    1b50:	41 54                	push   %r12
    1b52:	41 89 cc             	mov    %ecx,%r12d
    1b55:	55                   	push   %rbp
    1b56:	45 8d 5c 24 ff       	lea    -0x1(%r12),%r11d
    1b5b:	53                   	push   %rbx
    1b5c:	8b 4c 24 38          	mov    0x38(%rsp),%ecx
    1b60:	41 8d 04 09          	lea    (%r9,%rcx,1),%eax
    1b64:	48 89 54 24 c8       	mov    %rdx,-0x38(%rsp)
    1b69:	42 8d 14 1e          	lea    (%rsi,%r11,1),%edx
    1b6d:	89 74 24 d4          	mov    %esi,-0x2c(%rsp)
    1b71:	39 d0                	cmp    %edx,%eax
    1b73:	0f 87 8d 04 00 00    	ja     2006 <riscv_dsp_conv_partial_q15+0x4c6>
    1b79:	45 89 cd             	mov    %r9d,%r13d
    1b7c:	44 39 e6             	cmp    %r12d,%esi
    1b7f:	0f 82 29 04 00 00    	jb     1fae <riscv_dsp_conv_partial_q15+0x46e>
    1b85:	8b 5c 24 d4          	mov    -0x2c(%rsp),%ebx
    1b89:	89 c6                	mov    %eax,%esi
    1b8b:	31 d2                	xor    %edx,%edx
    1b8d:	29 de                	sub    %ebx,%esi
    1b8f:	39 d8                	cmp    %ebx,%eax
    1b91:	0f 4f d6             	cmovg  %esi,%edx
    1b94:	89 d7                	mov    %edx,%edi
    1b96:	44 29 ea             	sub    %r13d,%edx
    1b99:	01 da                	add    %ebx,%edx
    1b9b:	44 39 eb             	cmp    %r13d,%ebx
    1b9e:	44 89 eb             	mov    %r13d,%ebx
    1ba1:	0f 4f d7             	cmovg  %edi,%edx
    1ba4:	48 89 5c 24 e0       	mov    %rbx,-0x20(%rsp)
    1ba9:	48 01 db             	add    %rbx,%rbx
    1bac:	4d 8d 0c 18          	lea    (%r8,%rbx,1),%r9
    1bb0:	89 54 24 e8          	mov    %edx,-0x18(%rsp)
    1bb4:	89 d7                	mov    %edx,%edi
    1bb6:	44 89 e2             	mov    %r12d,%edx
    1bb9:	44 29 ea             	sub    %r13d,%edx
    1bbc:	8d 72 ff             	lea    -0x1(%rdx),%esi
    1bbf:	89 74 24 c0          	mov    %esi,-0x40(%rsp)
    1bc3:	85 f6                	test   %esi,%esi
    1bc5:	0f 8e 1b 04 00 00    	jle    1fe6 <riscv_dsp_conv_partial_q15+0x4a6>
    1bcb:	45 8d 45 01          	lea    0x1(%r13),%r8d
    1bcf:	48 03 5c 24 c8       	add    -0x38(%rsp),%rbx
    1bd4:	44 39 d8             	cmp    %r11d,%eax
    1bd7:	0f 87 ed 03 00 00    	ja     1fca <riscv_dsp_conv_partial_q15+0x48a>
    1bdd:	01 cf                	add    %ecx,%edi
    1bdf:	89 4c 24 c0          	mov    %ecx,-0x40(%rsp)
    1be3:	89 fa                	mov    %edi,%edx
    1be5:	44 01 ea             	add    %r13d,%edx
    1be8:	29 d0                	sub    %edx,%eax
    1bea:	ba 00 00 00 00       	mov    $0x0,%edx
    1bef:	0f 49 d0             	cmovns %eax,%edx
    1bf2:	89 54 24 d8          	mov    %edx,-0x28(%rsp)
    1bf6:	85 c9                	test   %ecx,%ecx
    1bf8:	0f 8e 9a 00 00 00    	jle    1c98 <riscv_dsp_conv_partial_q15+0x158>
    1bfe:	8b 44 24 c0          	mov    -0x40(%rsp),%eax
    1c02:	4c 89 cd             	mov    %r9,%rbp
    1c05:	46 8d 34 00          	lea    (%rax,%r8,1),%r14d
    1c09:	0f 1f 80 00 00 00 00 	nopl   0x0(%rax)
    1c10:	31 c9                	xor    %ecx,%ecx
    1c12:	45 85 c0             	test   %r8d,%r8d
    1c15:	74 4e                	je     1c65 <riscv_dsp_conv_partial_q15+0x125>
    1c17:	44 89 c0             	mov    %r8d,%eax
    1c1a:	48 89 de             	mov    %rbx,%rsi
    1c1d:	4c 89 fa             	mov    %r15,%rdx
    1c20:	31 c9                	xor    %ecx,%ecx
    1c22:	49 8d 3c 47          	lea    (%r15,%rax,2),%rdi
    1c26:	66 2e 0f 1f 84 00 00 	cs nopw 0x0(%rax,%rax,1)
    1c2d:	00 00 00 
    1c30:	0f bf 02             	movswl (%rdx),%eax
    1c33:	44 0f bf 16          	movswl (%rsi),%r10d
    1c37:	48 83 c2 02          	add    $0x2,%rdx
    1c3b:	48 83 ee 02          	sub    $0x2,%rsi
    1c3f:	41 0f af c2          	imul   %r10d,%eax
    1c43:	48 98                	cltq   
    1c45:	48 01 c1             	add    %rax,%rcx
    1c48:	48 39 fa             	cmp    %rdi,%rdx
    1c4b:	75 e3                	jne    1c30 <riscv_dsp_conv_partial_q15+0xf0>
    1c4d:	b8 00 80 ff ff       	mov    $0xffff8000,%eax
    1c52:	48 c1 f9 0f          	sar    $0xf,%rcx
    1c56:	39 c1                	cmp    %eax,%ecx
    1c58:	0f 4c c8             	cmovl  %eax,%ecx
    1c5b:	b8 ff 7f 00 00       	mov    $0x7fff,%eax
    1c60:	39 c1                	cmp    %eax,%ecx
    1c62:	0f 4f c8             	cmovg  %eax,%ecx
    1c65:	41 83 c0 01          	add    $0x1,%r8d
    1c69:	44 89 f0             	mov    %r14d,%eax
    1c6c:	48 83 c5 02          	add    $0x2,%rbp
    1c70:	66 89 4d fe          	mov    %cx,-0x2(%rbp)
    1c74:	44 29 c0             	sub    %r8d,%eax
    1c77:	48 83 c3 02          	add    $0x2,%rbx
    1c7b:	85 c0                	test   %eax,%eax
    1c7d:	7f 91                	jg     1c10 <riscv_dsp_conv_partial_q15+0xd0>
    1c7f:	48 63 44 24 c0       	movslq -0x40(%rsp),%rax
    1c84:	ba 02 00 00 00       	mov    $0x2,%edx
    1c89:	48 89 c3             	mov    %rax,%rbx
    1c8c:	48 01 c0             	add    %rax,%rax
    1c8f:	85 db                	test   %ebx,%ebx
    1c91:	48 0f 4e c2          	cmovle %rdx,%rax
    1c95:	49 01 c1             	add    %rax,%r9
    1c98:	4c 89 ff             	mov    %r15,%rdi
    1c9b:	45 39 e5             	cmp    %r12d,%r13d
    1c9e:	7c 10                	jl     1cb0 <riscv_dsp_conv_partial_q15+0x170>
    1ca0:	48 8b 44 24 e0       	mov    -0x20(%rsp),%rax
    1ca5:	44 89 e2             	mov    %r12d,%edx
    1ca8:	48 29 d0             	sub    %rdx,%rax
    1cab:	49 8d 7c 47 02       	lea    0x2(%r15,%rax,2),%rdi
    1cb0:	44 89 d8             	mov    %r11d,%eax
    1cb3:	48 8b 74 24 c8       	mov    -0x38(%rsp),%rsi
    1cb8:	8b 4c 24 d8          	mov    -0x28(%rsp),%ecx
    1cbc:	48 89 44 24 e0       	mov    %rax,-0x20(%rsp)
    1cc1:	48 01 c0             	add    %rax,%rax
    1cc4:	48 8d 1c 06          	lea    (%rsi,%rax,1),%rbx
    1cc8:	85 c9                	test   %ecx,%ecx
    1cca:	0f 84 2e 03 00 00    	je     1ffe <riscv_dsp_conv_partial_q15+0x4be>
    1cd0:	48 8d 44 06 fa       	lea    -0x6(%rsi,%rax,1),%rax
    1cd5:	45 89 e0             	mov    %r12d,%r8d
    1cd8:	45 89 e2             	mov    %r12d,%r10d
    1cdb:	41 c1 ec 03          	shr    $0x3,%r12d
    1cdf:	4c 8d 68 f0          	lea    -0x10(%rax),%r13
    1ce3:	48 89 44 24 c0       	mov    %rax,-0x40(%rsp)
    1ce8:	41 c1 e8 02          	shr    $0x2,%r8d
    1cec:	48 63 d1             	movslq %ecx,%rdx
    1cef:	41 8d 44 24 ff       	lea    -0x1(%r12),%eax
    1cf4:	4c 89 7c 24 f0       	mov    %r15,-0x10(%rsp)
    1cf9:	41 83 e2 03          	and    $0x3,%r10d
    1cfd:	49 8d 2c 51          	lea    (%r9,%rdx,2),%rbp
    1d01:	48 c1 e0 04          	shl    $0x4,%rax
    1d05:	48 89 5c 24 d8       	mov    %rbx,-0x28(%rsp)
    1d0a:	66 0f ef e4          	pxor   %xmm4,%xmm4
    1d0e:	49 29 c5             	sub    %rax,%r13
    1d11:	43 8d 04 24          	lea    (%r12,%r12,1),%eax
    1d15:	44 89 5c 24 ec       	mov    %r11d,-0x14(%rsp)
    1d1a:	48 89 c6             	mov    %rax,%rsi
    1d1d:	4c 8d 34 c5 00 00 00 	lea    0x0(,%rax,8),%r14
    1d24:	00 
    1d25:	48 89 d8             	mov    %rbx,%rax
    1d28:	4c 29 f0             	sub    %r14,%rax
    1d2b:	48 89 44 24 c8       	mov    %rax,-0x38(%rsp)
    1d30:	41 8d 40 ff          	lea    -0x1(%r8),%eax
    1d34:	4c 8d 24 c5 08 00 00 	lea    0x8(,%rax,8),%r12
    1d3b:	00 
    1d3c:	48 89 d8             	mov    %rbx,%rax
    1d3f:	89 f3                	mov    %esi,%ebx
    1d41:	4c 29 e0             	sub    %r12,%rax
    1d44:	49 89 c3             	mov    %rax,%r11
    1d47:	66 0f 1f 84 00 00 00 	nopw   0x0(%rax,%rax,1)
    1d4e:	00 00 
    1d50:	45 85 c0             	test   %r8d,%r8d
    1d53:	0f 84 37 02 00 00    	je     1f90 <riscv_dsp_conv_partial_q15+0x450>
    1d59:	41 83 f8 01          	cmp    $0x1,%r8d
    1d5d:	0f 84 3c 02 00 00    	je     1f9f <riscv_dsp_conv_partial_q15+0x45f>
    1d63:	66 0f ef ed          	pxor   %xmm5,%xmm5
    1d67:	48 8b 44 24 c0       	mov    -0x40(%rsp),%rax
    1d6c:	48 89 fa             	mov    %rdi,%rdx
    1d6f:	66 0f 6f f5          	movdqa %xmm5,%xmm6
    1d73:	66 0f 6f dd          	movdqa %xmm5,%xmm3
    1d77:	66 0f 6f fd          	movdqa %xmm5,%xmm7
    1d7b:	0f 1f 44 00 00       	nopl   0x0(%rax,%rax,1)
    1d80:	f3 0f 6f 0a          	movdqu (%rdx),%xmm1
    1d84:	f3 0f 6f 12          	movdqu (%rdx),%xmm2
    1d88:	48 83 e8 10          	sub    $0x10,%rax
    1d8c:	48 83 c2 10          	add    $0x10,%rdx
    1d90:	f3 0f 7e 40 10       	movq   0x10(%rax),%xmm0
    1d95:	0f 16 40 08          	movhps 0x8(%rax),%xmm0
    1d99:	f2 0f 70 c0 1b       	pshuflw $0x1b,%xmm0,%xmm0
    1d9e:	f3 0f 70 c0 1b       	pshufhw $0x1b,%xmm0,%xmm0
    1da3:	66 0f d5 c8          	pmullw %xmm0,%xmm1
    1da7:	66 0f e5 c2          	pmulhw %xmm2,%xmm0
    1dab:	66 0f 6f d1          	movdqa %xmm1,%xmm2
    1daf:	66 0f 69 c8          	punpckhwd %xmm0,%xmm1
    1db3:	66 0f 61 d0          	punpcklwd %xmm0,%xmm2
    1db7:	66 0f 6f c4          	movdqa %xmm4,%xmm0
    1dbb:	66 0f 66 c2          	pcmpgtd %xmm2,%xmm0
    1dbf:	66 44 0f 6f c2       	movdqa %xmm2,%xmm8
    1dc4:	66 44 0f 62 c0       	punpckldq %xmm0,%xmm8
    1dc9:	66 0f 6a d0          	punpckhdq %xmm0,%xmm2
    1dcd:	66 0f 6f c4          	movdqa %xmm4,%xmm0
    1dd1:	66 0f 66 c1          	pcmpgtd %xmm1,%xmm0
    1dd5:	66 0f d4 da          	paddq  %xmm2,%xmm3
    1dd9:	66 0f 6f d1          	movdqa %xmm1,%xmm2
    1ddd:	66 41 0f d4 f8       	paddq  %xmm8,%xmm7
    1de2:	66 0f 62 d0          	punpckldq %xmm0,%xmm2
    1de6:	66 0f 6a c8          	punpckhdq %xmm0,%xmm1
    1dea:	66 0f d4 f2          	paddq  %xmm2,%xmm6
    1dee:	66 0f d4 e9          	paddq  %xmm1,%xmm5
    1df2:	49 39 c5             	cmp    %rax,%r13
    1df5:	75 89                	jne    1d80 <riscv_dsp_conv_partial_q15+0x240>
    1df7:	66 0f d4 df          	paddq  %xmm7,%xmm3
    1dfb:	4a 8d 0c 37          	lea    (%rdi,%r14,1),%rcx
    1dff:	66 0f d4 de          	paddq  %xmm6,%xmm3
    1e03:	66 0f d4 dd          	paddq  %xmm5,%xmm3
    1e07:	66 0f 6f c3          	movdqa %xmm3,%xmm0
    1e0b:	66 0f 73 d8 08       	psrldq $0x8,%xmm0
    1e10:	66 0f d4 d8          	paddq  %xmm0,%xmm3
    1e14:	66 48 0f 7e d8       	movq   %xmm3,%rax
    1e19:	41 39 d8             	cmp    %ebx,%r8d
    1e1c:	74 47                	je     1e65 <riscv_dsp_conv_partial_q15+0x325>
    1e1e:	48 8b 74 24 c8       	mov    -0x38(%rsp),%rsi
    1e23:	4c 0f bf 39          	movswq (%rcx),%r15
    1e27:	48 0f bf 16          	movswq (%rsi),%rdx
    1e2b:	49 0f af d7          	imul   %r15,%rdx
    1e2f:	4c 0f bf 79 02       	movswq 0x2(%rcx),%r15
    1e34:	48 01 d0             	add    %rdx,%rax
    1e37:	48 0f bf 56 fe       	movswq -0x2(%rsi),%rdx
    1e3c:	49 0f af d7          	imul   %r15,%rdx
    1e40:	4c 0f bf 79 04       	movswq 0x4(%rcx),%r15
    1e45:	48 0f bf 49 06       	movswq 0x6(%rcx),%rcx
    1e4a:	48 01 c2             	add    %rax,%rdx
    1e4d:	48 0f bf 46 fc       	movswq -0x4(%rsi),%rax
    1e52:	49 0f af c7          	imul   %r15,%rax
    1e56:	48 01 c2             	add    %rax,%rdx
    1e59:	48 0f bf 46 fa       	movswq -0x6(%rsi),%rax
    1e5e:	48 0f af c1          	imul   %rcx,%rax
    1e62:	48 01 d0             	add    %rdx,%rax
    1e65:	4a 8d 34 27          	lea    (%rdi,%r12,1),%rsi
    1e69:	4c 89 d9             	mov    %r11,%rcx
    1e6c:	45 85 d2             	test   %r10d,%r10d
    1e6f:	74 3d                	je     1eae <riscv_dsp_conv_partial_q15+0x36e>
    1e71:	48 0f bf 11          	movswq (%rcx),%rdx
    1e75:	4c 0f bf 3e          	movswq (%rsi),%r15
    1e79:	49 0f af d7          	imul   %r15,%rdx
    1e7d:	48 01 d0             	add    %rdx,%rax
    1e80:	41 83 fa 01          	cmp    $0x1,%r10d
    1e84:	74 28                	je     1eae <riscv_dsp_conv_partial_q15+0x36e>
    1e86:	48 0f bf 56 02       	movswq 0x2(%rsi),%rdx
    1e8b:	4c 0f bf 79 fe       	movswq -0x2(%rcx),%r15
    1e90:	49 0f af d7          	imul   %r15,%rdx
    1e94:	48 01 d0             	add    %rdx,%rax
    1e97:	41 83 fa 02          	cmp    $0x2,%r10d
    1e9b:	74 11                	je     1eae <riscv_dsp_conv_partial_q15+0x36e>
    1e9d:	48 0f bf 56 04       	movswq 0x4(%rsi),%rdx
    1ea2:	48 0f bf 49 fc       	movswq -0x4(%rcx),%rcx
    1ea7:	48 0f af d1          	imul   %rcx,%rdx
    1eab:	48 01 d0             	add    %rdx,%rax
    1eae:	ba 00 80 ff ff       	mov    $0xffff8000,%edx
    1eb3:	48 c1 f8 0f          	sar    $0xf,%rax
    1eb7:	49 83 c1 02          	add    $0x2,%r9
    1ebb:	39 d0                	cmp    %edx,%eax
    1ebd:	0f 4c c2             	cmovl  %edx,%eax
    1ec0:	ba ff 7f 00 00       	mov    $0x7fff,%edx
    1ec5:	39 d0                	cmp    %edx,%eax
    1ec7:	0f 4f c2             	cmovg  %edx,%eax
    1eca:	48 83 c7 02          	add    $0x2,%rdi
    1ece:	66 41 89 41 fe       	mov    %ax,-0x2(%r9)
    1ed3:	49 39 e9             	cmp    %rbp,%r9
    1ed6:	0f 85 74 fe ff ff    	jne    1d50 <riscv_dsp_conv_partial_q15+0x210>
    1edc:	48 8b 5c 24 d8       	mov    -0x28(%rsp),%rbx
    1ee1:	44 8b 5c 24 ec       	mov    -0x14(%rsp),%r11d
    1ee6:	4c 8b 7c 24 f0       	mov    -0x10(%rsp),%r15
    1eeb:	8b 44 24 d4          	mov    -0x2c(%rsp),%eax
    1eef:	48 2b 44 24 e0       	sub    -0x20(%rsp),%rax
    1ef4:	49 8d 3c 47          	lea    (%r15,%rax,2),%rdi
    1ef8:	8b 44 24 e8          	mov    -0x18(%rsp),%eax
    1efc:	85 c0                	test   %eax,%eax
    1efe:	7e 7a                	jle    1f7a <riscv_dsp_conv_partial_q15+0x43a>
    1f00:	45 89 d8             	mov    %r11d,%r8d
    1f03:	41 29 c0             	sub    %eax,%r8d
    1f06:	66 2e 0f 1f 84 00 00 	cs nopw 0x0(%rax,%rax,1)
    1f0d:	00 00 00 
    1f10:	31 c9                	xor    %ecx,%ecx
    1f12:	45 85 db             	test   %r11d,%r11d
    1f15:	74 4e                	je     1f65 <riscv_dsp_conv_partial_q15+0x425>
    1f17:	44 89 d8             	mov    %r11d,%eax
    1f1a:	48 89 de             	mov    %rbx,%rsi
    1f1d:	48 89 fa             	mov    %rdi,%rdx
    1f20:	31 c9                	xor    %ecx,%ecx
    1f22:	4c 8d 14 47          	lea    (%rdi,%rax,2),%r10
    1f26:	66 2e 0f 1f 84 00 00 	cs nopw 0x0(%rax,%rax,1)
    1f2d:	00 00 00 
    1f30:	0f bf 02             	movswl (%rdx),%eax
    1f33:	44 0f bf 0e          	movswl (%rsi),%r9d
    1f37:	48 83 c2 02          	add    $0x2,%rdx
    1f3b:	48 83 ee 02          	sub    $0x2,%rsi
    1f3f:	41 0f af c1          	imul   %r9d,%eax
    1f43:	48 98                	cltq   
    1f45:	48 01 c1             	add    %rax,%rcx
    1f48:	4c 39 d2             	cmp    %r10,%rdx
    1f4b:	75 e3                	jne    1f30 <riscv_dsp_conv_partial_q15+0x3f0>
    1f4d:	b8 00 80 ff ff       	mov    $0xffff8000,%eax
    1f52:	48 c1 f9 0f          	sar    $0xf,%rcx
    1f56:	39 c1                	cmp    %eax,%ecx
    1f58:	0f 4c c8             	cmovl  %eax,%ecx
    1f5b:	b8 ff 7f 00 00       	mov    $0x7fff,%eax
    1f60:	39 c1                	cmp    %eax,%ecx
    1f62:	0f 4f c8             	cmovg  %eax,%ecx
    1f65:	41 83 eb 01          	sub    $0x1,%r11d
    1f69:	48 83 c5 02          	add    $0x2,%rbp
    1f6d:	48 83 c7 02          	add    $0x2,%rdi
    1f71:	66 89 4d fe          	mov    %cx,-0x2(%rbp)
    1f75:	45 39 c3             	cmp    %r8d,%r11d
    1f78:	75 96                	jne    1f10 <riscv_dsp_conv_partial_q15+0x3d0>
    1f7a:	31 c0                	xor    %eax,%eax
    1f7c:	5b                   	pop    %rbx
    1f7d:	5d                   	pop    %rbp
    1f7e:	41 5c                	pop    %r12
    1f80:	41 5d                	pop    %r13
    1f82:	41 5e                	pop    %r14
    1f84:	41 5f                	pop    %r15
    1f86:	c3                   	ret    
    1f87:	66 0f 1f 84 00 00 00 	nopw   0x0(%rax,%rax,1)
    1f8e:	00 00 
    1f90:	48 8b 4c 24 d8       	mov    -0x28(%rsp),%rcx
    1f95:	48 89 fe             	mov    %rdi,%rsi
    1f98:	31 c0                	xor    %eax,%eax
    1f9a:	e9 cd fe ff ff       	jmp    1e6c <riscv_dsp_conv_partial_q15+0x32c>
    1f9f:	48 8b 74 24 d8       	mov    -0x28(%rsp),%rsi
    1fa4:	48 89 f9             	mov    %rdi,%rcx
    1fa7:	31 c0                	xor    %eax,%eax
    1fa9:	e9 75 fe ff ff       	jmp    1e23 <riscv_dsp_conv_partial_q15+0x2e3>
    1fae:	4c 89 fa             	mov    %r15,%rdx
    1fb1:	44 89 64 24 d4       	mov    %r12d,-0x2c(%rsp)
    1fb6:	44 8d 5e ff          	lea    -0x1(%rsi),%r11d
    1fba:	49 89 ff             	mov    %rdi,%r15
    1fbd:	48 89 54 24 c8       	mov    %rdx,-0x38(%rsp)
    1fc2:	41 89 f4             	mov    %esi,%r12d
    1fc5:	e9 bb fb ff ff       	jmp    1b85 <riscv_dsp_conv_partial_q15+0x45>
    1fca:	8b 54 24 c0          	mov    -0x40(%rsp),%edx
    1fce:	01 fa                	add    %edi,%edx
    1fd0:	44 01 ea             	add    %r13d,%edx
    1fd3:	29 d0                	sub    %edx,%eax
    1fd5:	ba 00 00 00 00       	mov    $0x0,%edx
    1fda:	0f 49 d0             	cmovns %eax,%edx
    1fdd:	89 54 24 d8          	mov    %edx,-0x28(%rsp)
    1fe1:	e9 18 fc ff ff       	jmp    1bfe <riscv_dsp_conv_partial_q15+0xbe>
    1fe6:	41 8d 54 3d 00       	lea    0x0(%r13,%rdi,1),%edx
    1feb:	29 d0                	sub    %edx,%eax
    1fed:	ba 00 00 00 00       	mov    $0x0,%edx
    1ff2:	0f 49 d0             	cmovns %eax,%edx
    1ff5:	89 54 24 d8          	mov    %edx,-0x28(%rsp)
    1ff9:	e9 9a fc ff ff       	jmp    1c98 <riscv_dsp_conv_partial_q15+0x158>
    1ffe:	4c 89 cd             	mov    %r9,%rbp
    2001:	e9 e5 fe ff ff       	jmp    1eeb <riscv_dsp_conv_partial_q15+0x3ab>
    2006:	b8 ff ff ff ff       	mov    $0xffffffff,%eax
    200b:	e9 6c ff ff ff       	jmp    1f7c <riscv_dsp_conv_partial_q15+0x43c>

0000000000002010 <riscv_dsp_convert_q15_f32>:
    2010:	f3 0f 1e fa          	endbr64 
    2014:	48 89 f1             	mov    %rsi,%rcx
    2017:	85 d2                	test   %edx,%edx
    2019:	0f 84 36 01 00 00    	je     2155 <riscv_dsp_convert_q15_f32+0x145>
    201f:	8d 42 ff             	lea    -0x1(%rdx),%eax
    2022:	83 f8 06             	cmp    $0x6,%eax
    2025:	0f 86 36 01 00 00    	jbe    2161 <riscv_dsp_convert_q15_f32+0x151>
    202b:	89 d6                	mov    %edx,%esi
    202d:	0f 28 1d 9c 11 00 00 	movaps 0x119c(%rip),%xmm3        # 31d0 <CSWTCH.31+0x50>
    2034:	31 c0                	xor    %eax,%eax
    2036:	66 0f ef e4          	pxor   %xmm4,%xmm4
    203a:	c1 ee 03             	shr    $0x3,%esi
    203d:	48 c1 e6 04          	shl    $0x4,%rsi
    2041:	0f 1f 80 00 00 00 00 	nopl   0x0(%rax)
    2048:	f3 0f 6f 04 07       	movdqu (%rdi,%rax,1),%xmm0
    204d:	66 0f 6f d4          	movdqa %xmm4,%xmm2
    2051:	66 0f 65 d0          	pcmpgtw %xmm0,%xmm2
    2055:	66 0f 6f c8          	movdqa %xmm0,%xmm1
    2059:	66 0f 61 ca          	punpcklwd %xmm2,%xmm1
    205d:	66 0f 69 c2          	punpckhwd %xmm2,%xmm0
    2061:	0f 5b c9             	cvtdq2ps %xmm1,%xmm1
    2064:	0f 5b c0             	cvtdq2ps %xmm0,%xmm0
    2067:	0f 59 cb             	mulps  %xmm3,%xmm1
    206a:	0f 59 c3             	mulps  %xmm3,%xmm0
    206d:	0f 11 0c 41          	movups %xmm1,(%rcx,%rax,2)
    2071:	0f 11 44 41 10       	movups %xmm0,0x10(%rcx,%rax,2)
    2076:	48 83 c0 10          	add    $0x10,%rax
    207a:	48 39 f0             	cmp    %rsi,%rax
    207d:	75 c9                	jne    2048 <riscv_dsp_convert_q15_f32+0x38>
    207f:	89 d6                	mov    %edx,%esi
    2081:	83 e6 f8             	and    $0xfffffff8,%esi
    2084:	89 f0                	mov    %esi,%eax
    2086:	48 8d 3c 47          	lea    (%rdi,%rax,2),%rdi
    208a:	48 8d 0c 81          	lea    (%rcx,%rax,4),%rcx
    208e:	89 d0                	mov    %edx,%eax
    2090:	29 f0                	sub    %esi,%eax
    2092:	39 f2                	cmp    %esi,%edx
    2094:	0f 84 c6 00 00 00    	je     2160 <riscv_dsp_convert_q15_f32+0x150>
    209a:	0f bf 17             	movswl (%rdi),%edx
    209d:	66 0f ef c9          	pxor   %xmm1,%xmm1
    20a1:	f3 0f 10 05 27 11 00 	movss  0x1127(%rip),%xmm0        # 31d0 <CSWTCH.31+0x50>
    20a8:	00 
    20a9:	f3 0f 2a ca          	cvtsi2ss %edx,%xmm1
    20ad:	f3 0f 59 c8          	mulss  %xmm0,%xmm1
    20b1:	f3 0f 11 09          	movss  %xmm1,(%rcx)
    20b5:	83 f8 01             	cmp    $0x1,%eax
    20b8:	0f 84 97 00 00 00    	je     2155 <riscv_dsp_convert_q15_f32+0x145>
    20be:	0f bf 57 02          	movswl 0x2(%rdi),%edx
    20c2:	66 0f ef c9          	pxor   %xmm1,%xmm1
    20c6:	f3 0f 2a ca          	cvtsi2ss %edx,%xmm1
    20ca:	f3 0f 59 c8          	mulss  %xmm0,%xmm1
    20ce:	f3 0f 11 49 04       	movss  %xmm1,0x4(%rcx)
    20d3:	83 f8 02             	cmp    $0x2,%eax
    20d6:	74 7d                	je     2155 <riscv_dsp_convert_q15_f32+0x145>
    20d8:	0f bf 57 04          	movswl 0x4(%rdi),%edx
    20dc:	66 0f ef c9          	pxor   %xmm1,%xmm1
    20e0:	f3 0f 2a ca          	cvtsi2ss %edx,%xmm1
    20e4:	f3 0f 59 c8          	mulss  %xmm0,%xmm1
    20e8:	f3 0f 11 49 08       	movss  %xmm1,0x8(%rcx)
    20ed:	83 f8 03             	cmp    $0x3,%eax
    20f0:	74 63                	je     2155 <riscv_dsp_convert_q15_f32+0x145>
    20f2:	0f bf 57 06          	movswl 0x6(%rdi),%edx
    20f6:	66 0f ef c9          	pxor   %xmm1,%xmm1
    20fa:	f3 0f 2a ca          	cvtsi2ss %edx,%xmm1
    20fe:	f3 0f 59 c8          	mulss  %xmm0,%xmm1
    2102:	f3 0f 11 49 0c       	movss  %xmm1,0xc(%rcx)
    2107:	83 f8 04             	cmp    $0x4,%eax
    210a:	74 49                	je     2155 <riscv_dsp_convert_q15_f32+0x145>
    210c:	0f bf 57 08          	movswl 0x8(%rdi),%edx
    2110:	66 0f ef c9          	pxor   %xmm1,%xmm1
    2114:	f3 0f 2a ca          	cvtsi2ss %edx,%xmm1
    2118:	f3 0f 59 c8          	mulss  %xmm0,%xmm1
    211c:	f3 0f 11 49 10       	movss  %xmm1,0x10(%rcx)
    2121:	83 f8 05             	cmp    $0x5,%eax
    2124:	74 2f                	je     2155 <riscv_dsp_convert_q15_f32+0x145>
    2126:	0f bf 57 0a          	movswl 0xa(%rdi),%edx
    212a:	66 0f ef c9          	pxor   %xmm1,%xmm1
    212e:	f3 0f 2a ca          	cvtsi2ss %edx,%xmm1
    2132:	f3 0f 59 c8          	mulss  %xmm0,%xmm1
    2136:	f3 0f 11 49 14       	movss  %xmm1,0x14(%rcx)
    213b:	83 f8 06             	cmp    $0x6,%eax
    213e:	74 15                	je     2155 <riscv_dsp_convert_q15_f32+0x145>
    2140:	0f bf 47 0c          	movswl 0xc(%rdi),%eax
    2144:	66 0f ef c9          	pxor   %xmm1,%xmm1
    2148:	f3 0f 2a c8          	cvtsi2ss %eax,%xmm1
    214c:	f3 0f 59 c8          	mulss  %xmm0,%xmm1
    2150:	f3 0f 11 49 18       	movss  %xmm1,0x18(%rcx)
    2155:	c3                   	ret    
    2156:	66 2e 0f 1f 84 00 00 	cs nopw 0x0(%rax,%rax,1)
    215d:	00 00 00 
    2160:	c3                   	ret    
    2161:	89 d0                	mov    %edx,%eax
    2163:	e9 32 ff ff ff       	jmp    209a <riscv_dsp_convert_q15_f32+0x8a>

Disassembly of section .fini:

0000000000002168 <_fini>:
    2168:	f3 0f 1e fa          	endbr64 
    216c:	48 83 ec 08          	sub    $0x8,%rsp
    2170:	48 83 c4 08          	add    $0x8,%rsp
    2174:	c3                   	ret    
