
t_dcmfir_fast_q15:     file format elf64-x86-64


Disassembly of section .init:

0000000000001000 <_init>:
    1000:	f3 0f 1e fa          	endbr64 
    1004:	48 83 ec 08          	sub    $0x8,%rsp
    1008:	48 8b 05 d9 2f 00 00 	mov    0x2fd9(%rip),%rax        # 3fe8 <__gmon_start__@Base>
    100f:	48 85 c0             	test   %rax,%rax
    1012:	74 02                	je     1016 <_init+0x16>
    1014:	ff d0                	call   *%rax
    1016:	48 83 c4 08          	add    $0x8,%rsp
    101a:	c3                   	ret    

Disassembly of section .plt:

0000000000001020 <.plt>:
    1020:	ff 35 52 2f 00 00    	push   0x2f52(%rip)        # 3f78 <_GLOBAL_OFFSET_TABLE_+0x8>
    1026:	f2 ff 25 53 2f 00 00 	bnd jmp *0x2f53(%rip)        # 3f80 <_GLOBAL_OFFSET_TABLE_+0x10>
    102d:	0f 1f 00             	nopl   (%rax)
    1030:	f3 0f 1e fa          	endbr64 
    1034:	68 00 00 00 00       	push   $0x0
    1039:	f2 e9 e1 ff ff ff    	bnd jmp 1020 <_init+0x20>
    103f:	90                   	nop
    1040:	f3 0f 1e fa          	endbr64 
    1044:	68 01 00 00 00       	push   $0x1
    1049:	f2 e9 d1 ff ff ff    	bnd jmp 1020 <_init+0x20>
    104f:	90                   	nop
    1050:	f3 0f 1e fa          	endbr64 
    1054:	68 02 00 00 00       	push   $0x2
    1059:	f2 e9 c1 ff ff ff    	bnd jmp 1020 <_init+0x20>
    105f:	90                   	nop
    1060:	f3 0f 1e fa          	endbr64 
    1064:	68 03 00 00 00       	push   $0x3
    1069:	f2 e9 b1 ff ff ff    	bnd jmp 1020 <_init+0x20>
    106f:	90                   	nop
    1070:	f3 0f 1e fa          	endbr64 
    1074:	68 04 00 00 00       	push   $0x4
    1079:	f2 e9 a1 ff ff ff    	bnd jmp 1020 <_init+0x20>
    107f:	90                   	nop
    1080:	f3 0f 1e fa          	endbr64 
    1084:	68 05 00 00 00       	push   $0x5
    1089:	f2 e9 91 ff ff ff    	bnd jmp 1020 <_init+0x20>
    108f:	90                   	nop
    1090:	f3 0f 1e fa          	endbr64 
    1094:	68 06 00 00 00       	push   $0x6
    1099:	f2 e9 81 ff ff ff    	bnd jmp 1020 <_init+0x20>
    109f:	90                   	nop
    10a0:	f3 0f 1e fa          	endbr64 
    10a4:	68 07 00 00 00       	push   $0x7
    10a9:	f2 e9 71 ff ff ff    	bnd jmp 1020 <_init+0x20>
    10af:	90                   	nop
    10b0:	f3 0f 1e fa          	endbr64 
    10b4:	68 08 00 00 00       	push   $0x8
    10b9:	f2 e9 61 ff ff ff    	bnd jmp 1020 <_init+0x20>
    10bf:	90                   	nop
    10c0:	f3 0f 1e fa          	endbr64 
    10c4:	68 09 00 00 00       	push   $0x9
    10c9:	f2 e9 51 ff ff ff    	bnd jmp 1020 <_init+0x20>
    10cf:	90                   	nop

Disassembly of section .plt.got:

00000000000010d0 <__cxa_finalize@plt>:
    10d0:	f3 0f 1e fa          	endbr64 
    10d4:	f2 ff 25 1d 2f 00 00 	bnd jmp *0x2f1d(%rip)        # 3ff8 <__cxa_finalize@GLIBC_2.2.5>
    10db:	0f 1f 44 00 00       	nopl   0x0(%rax,%rax,1)

Disassembly of section .plt.sec:

00000000000010e0 <puts@plt>:
    10e0:	f3 0f 1e fa          	endbr64 
    10e4:	f2 ff 25 9d 2e 00 00 	bnd jmp *0x2e9d(%rip)        # 3f88 <puts@GLIBC_2.2.5>
    10eb:	0f 1f 44 00 00       	nopl   0x0(%rax,%rax,1)

00000000000010f0 <fread@plt>:
    10f0:	f3 0f 1e fa          	endbr64 
    10f4:	f2 ff 25 95 2e 00 00 	bnd jmp *0x2e95(%rip)        # 3f90 <fread@GLIBC_2.2.5>
    10fb:	0f 1f 44 00 00       	nopl   0x0(%rax,%rax,1)

0000000000001100 <fclose@plt>:
    1100:	f3 0f 1e fa          	endbr64 
    1104:	f2 ff 25 8d 2e 00 00 	bnd jmp *0x2e8d(%rip)        # 3f98 <fclose@GLIBC_2.2.5>
    110b:	0f 1f 44 00 00       	nopl   0x0(%rax,%rax,1)

0000000000001110 <__stack_chk_fail@plt>:
    1110:	f3 0f 1e fa          	endbr64 
    1114:	f2 ff 25 85 2e 00 00 	bnd jmp *0x2e85(%rip)        # 3fa0 <__stack_chk_fail@GLIBC_2.4>
    111b:	0f 1f 44 00 00       	nopl   0x0(%rax,%rax,1)

0000000000001120 <log10f@plt>:
    1120:	f3 0f 1e fa          	endbr64 
    1124:	f2 ff 25 7d 2e 00 00 	bnd jmp *0x2e7d(%rip)        # 3fa8 <log10f@GLIBC_2.2.5>
    112b:	0f 1f 44 00 00       	nopl   0x0(%rax,%rax,1)

0000000000001130 <__printf_chk@plt>:
    1130:	f3 0f 1e fa          	endbr64 
    1134:	f2 ff 25 75 2e 00 00 	bnd jmp *0x2e75(%rip)        # 3fb0 <__printf_chk@GLIBC_2.3.4>
    113b:	0f 1f 44 00 00       	nopl   0x0(%rax,%rax,1)

0000000000001140 <memmove@plt>:
    1140:	f3 0f 1e fa          	endbr64 
    1144:	f2 ff 25 6d 2e 00 00 	bnd jmp *0x2e6d(%rip)        # 3fb8 <memmove@GLIBC_2.2.5>
    114b:	0f 1f 44 00 00       	nopl   0x0(%rax,%rax,1)

0000000000001150 <fopen@plt>:
    1150:	f3 0f 1e fa          	endbr64 
    1154:	f2 ff 25 65 2e 00 00 	bnd jmp *0x2e65(%rip)        # 3fc0 <fopen@GLIBC_2.2.5>
    115b:	0f 1f 44 00 00       	nopl   0x0(%rax,%rax,1)

0000000000001160 <sqrt@plt>:
    1160:	f3 0f 1e fa          	endbr64 
    1164:	f2 ff 25 5d 2e 00 00 	bnd jmp *0x2e5d(%rip)        # 3fc8 <sqrt@GLIBC_2.2.5>
    116b:	0f 1f 44 00 00       	nopl   0x0(%rax,%rax,1)

0000000000001170 <__sprintf_chk@plt>:
    1170:	f3 0f 1e fa          	endbr64 
    1174:	f2 ff 25 55 2e 00 00 	bnd jmp *0x2e55(%rip)        # 3fd0 <__sprintf_chk@GLIBC_2.3.4>
    117b:	0f 1f 44 00 00       	nopl   0x0(%rax,%rax,1)

Disassembly of section .text:

0000000000001180 <main>:
    1180:	f3 0f 1e fa          	endbr64 
    1184:	55                   	push   %rbp
    1185:	48 89 e5             	mov    %rsp,%rbp
    1188:	41 57                	push   %r15
    118a:	41 56                	push   %r14
    118c:	41 55                	push   %r13
    118e:	41 54                	push   %r12
    1190:	53                   	push   %rbx
    1191:	48 81 ec 00 10 00 00 	sub    $0x1000,%rsp
    1198:	48 83 0c 24 00       	orq    $0x0,(%rsp)
    119d:	48 81 ec c8 02 00 00 	sub    $0x2c8,%rsp
    11a4:	b9 03 01 00 00       	mov    $0x103,%ecx
    11a9:	66 0f ef c0          	pxor   %xmm0,%xmm0
    11ad:	31 d2                	xor    %edx,%edx
    11af:	64 48 8b 04 25 28 00 	mov    %fs:0x28,%rax
    11b6:	00 00 
    11b8:	48 89 45 c8          	mov    %rax,-0x38(%rbp)
    11bc:	31 c0                	xor    %eax,%eax
    11be:	48 8d bd 80 ed ff ff 	lea    -0x1280(%rbp),%rdi
    11c5:	0f 29 85 60 ed ff ff 	movaps %xmm0,-0x12a0(%rbp)
    11cc:	48 c7 85 70 ed ff ff 	movq   $0x0,-0x1290(%rbp)
    11d3:	00 00 00 00 
    11d7:	c7 85 78 ed ff ff 00 	movl   $0x0,-0x1288(%rbp)
    11de:	00 00 00 
    11e1:	66 89 95 7c ed ff ff 	mov    %dx,-0x1284(%rbp)
    11e8:	f3 48 ab             	rep stos %rax,%es:(%rdi)
    11eb:	48 8b 05 3e 0f 00 00 	mov    0xf3e(%rip),%rax        # 2130 <_IO_stdin_used+0x130>
    11f2:	48 89 85 40 ed ff ff 	mov    %rax,-0x12c0(%rbp)
    11f9:	48 8d 85 60 ed ff ff 	lea    -0x12a0(%rbp),%rax
    1200:	66 48 0f 6e c0       	movq   %rax,%xmm0
    1205:	48 8d 85 80 ed ff ff 	lea    -0x1280(%rbp),%rax
    120c:	48 89 85 30 ed ff ff 	mov    %rax,-0x12d0(%rbp)
    1213:	48 89 e0             	mov    %rsp,%rax
    1216:	0f 16 85 30 ed ff ff 	movhps -0x12d0(%rbp),%xmm0
    121d:	0f 11 85 48 ed ff ff 	movups %xmm0,-0x12b8(%rbp)
    1224:	48 39 c4             	cmp    %rax,%rsp
    1227:	74 15                	je     123e <main+0xbe>
    1229:	48 81 ec 00 10 00 00 	sub    $0x1000,%rsp
    1230:	48 83 8c 24 f8 0f 00 	orq    $0x0,0xff8(%rsp)
    1237:	00 00 
    1239:	48 39 c4             	cmp    %rax,%rsp
    123c:	75 eb                	jne    1229 <main+0xa9>
    123e:	48 81 ec 00 08 00 00 	sub    $0x800,%rsp
    1245:	48 83 8c 24 f8 07 00 	orq    $0x0,0x7f8(%rsp)
    124c:	00 00 
    124e:	49 89 e5             	mov    %rsp,%r13
    1251:	48 89 e0             	mov    %rsp,%rax
    1254:	48 39 c4             	cmp    %rax,%rsp
    1257:	74 12                	je     126b <main+0xeb>
    1259:	48 81 ec 00 10 00 00 	sub    $0x1000,%rsp
    1260:	48 83 8c 24 f8 0f 00 	orq    $0x0,0xff8(%rsp)
    1267:	00 00 
    1269:	eb e9                	jmp    1254 <main+0xd4>
    126b:	48 81 ec 00 04 00 00 	sub    $0x400,%rsp
    1272:	48 83 8c 24 f8 03 00 	orq    $0x0,0x3f8(%rsp)
    1279:	00 00 
    127b:	49 89 e6             	mov    %rsp,%r14
    127e:	48 89 e0             	mov    %rsp,%rax
    1281:	48 39 c4             	cmp    %rax,%rsp
    1284:	74 12                	je     1298 <main+0x118>
    1286:	48 81 ec 00 10 00 00 	sub    $0x1000,%rsp
    128d:	48 83 8c 24 f8 0f 00 	orq    $0x0,0xff8(%rsp)
    1294:	00 00 
    1296:	eb e9                	jmp    1281 <main+0x101>
    1298:	48 81 ec 00 04 00 00 	sub    $0x400,%rsp
    129f:	48 83 8c 24 f8 03 00 	orq    $0x0,0x3f8(%rsp)
    12a6:	00 00 
    12a8:	4c 8d 05 91 0d 00 00 	lea    0xd91(%rip),%r8        # 2040 <_IO_stdin_used+0x40>
    12af:	ba 00 02 00 00       	mov    $0x200,%edx
    12b4:	31 c0                	xor    %eax,%eax
    12b6:	48 8d 0d 5a 0d 00 00 	lea    0xd5a(%rip),%rcx        # 2017 <_IO_stdin_used+0x17>
    12bd:	be 01 00 00 00       	mov    $0x1,%esi
    12c2:	48 8d 9d c0 fd ff ff 	lea    -0x240(%rbp),%rbx
    12c9:	49 89 e7             	mov    %rsp,%r15
    12cc:	48 89 df             	mov    %rbx,%rdi
    12cf:	e8 9c fe ff ff       	call   1170 <__sprintf_chk@plt>
    12d4:	48 8d 35 4d 0d 00 00 	lea    0xd4d(%rip),%rsi        # 2028 <_IO_stdin_used+0x28>
    12db:	48 89 df             	mov    %rbx,%rdi
    12de:	e8 6d fe ff ff       	call   1150 <fopen@plt>
    12e3:	48 89 85 28 ed ff ff 	mov    %rax,-0x12d8(%rbp)
    12ea:	48 85 c0             	test   %rax,%rax
    12ed:	0f 84 0d 04 00 00    	je     1700 <main+0x580>
    12f3:	ba 00 02 00 00       	mov    $0x200,%edx
    12f8:	be 01 00 00 00       	mov    $0x1,%esi
    12fd:	48 89 df             	mov    %rbx,%rdi
    1300:	31 c0                	xor    %eax,%eax
    1302:	4c 8d 05 37 0d 00 00 	lea    0xd37(%rip),%r8        # 2040 <_IO_stdin_used+0x40>
    1309:	48 8d 0d 78 0d 00 00 	lea    0xd78(%rip),%rcx        # 2088 <_IO_stdin_used+0x88>
    1310:	e8 5b fe ff ff       	call   1170 <__sprintf_chk@plt>
    1315:	48 8d 35 0c 0d 00 00 	lea    0xd0c(%rip),%rsi        # 2028 <_IO_stdin_used+0x28>
    131c:	48 89 df             	mov    %rbx,%rdi
    131f:	e8 2c fe ff ff       	call   1150 <fopen@plt>
    1324:	49 89 c4             	mov    %rax,%r12
    1327:	48 85 c0             	test   %rax,%rax
    132a:	0f 84 d0 03 00 00    	je     1700 <main+0x580>
    1330:	ba 00 02 00 00       	mov    $0x200,%edx
    1335:	be 01 00 00 00       	mov    $0x1,%esi
    133a:	48 89 df             	mov    %rbx,%rdi
    133d:	31 c0                	xor    %eax,%eax
    133f:	4c 8d 05 fa 0c 00 00 	lea    0xcfa(%rip),%r8        # 2040 <_IO_stdin_used+0x40>
    1346:	48 8d 0d 5b 0d 00 00 	lea    0xd5b(%rip),%rcx        # 20a8 <_IO_stdin_used+0xa8>
    134d:	e8 1e fe ff ff       	call   1170 <__sprintf_chk@plt>
    1352:	48 8d 35 cf 0c 00 00 	lea    0xccf(%rip),%rsi        # 2028 <_IO_stdin_used+0x28>
    1359:	48 89 df             	mov    %rbx,%rdi
    135c:	e8 ef fd ff ff       	call   1150 <fopen@plt>
    1361:	48 85 c0             	test   %rax,%rax
    1364:	48 89 85 38 ed ff ff 	mov    %rax,-0x12c8(%rbp)
    136b:	0f 84 8f 03 00 00    	je     1700 <main+0x580>
    1371:	48 8b 05 d8 0d 00 00 	mov    0xdd8(%rip),%rax        # 2150 <_IO_stdin_used+0x150>
    1378:	48 8b 9d 28 ed ff ff 	mov    -0x12d8(%rbp),%rbx
    137f:	be fe 03 00 00       	mov    $0x3fe,%esi
    1384:	4c 89 ef             	mov    %r13,%rdi
    1387:	66 0f 6f 05 c1 0d 00 	movdqa 0xdc1(%rip),%xmm0        # 2150 <_IO_stdin_used+0x150>
    138e:	00 
    138f:	c7 85 78 ed ff ff 00 	movl   $0x20002000,-0x1288(%rbp)
    1396:	20 00 20 
    1399:	48 89 85 70 ed ff ff 	mov    %rax,-0x1290(%rbp)
    13a0:	48 89 da             	mov    %rbx,%rdx
    13a3:	b8 00 20 00 00       	mov    $0x2000,%eax
    13a8:	66 89 85 7c ed ff ff 	mov    %ax,-0x1284(%rbp)
    13af:	0f 29 85 60 ed ff ff 	movaps %xmm0,-0x12a0(%rbp)
    13b6:	e8 d5 05 00 00       	call   1990 <test_Fread.constprop.0.isra.0>
    13bb:	4c 89 e2             	mov    %r12,%rdx
    13be:	be ff 01 00 00       	mov    $0x1ff,%esi
    13c3:	4c 89 ff             	mov    %r15,%rdi
    13c6:	e8 c5 05 00 00       	call   1990 <test_Fread.constprop.0.isra.0>
    13cb:	4c 8d 85 a0 f5 ff ff 	lea    -0xa60(%rbp),%r8
    13d2:	be 0c 04 00 00       	mov    $0x40c,%esi
    13d7:	48 8b 95 38 ed ff ff 	mov    -0x12c8(%rbp),%rdx
    13de:	4c 89 c7             	mov    %r8,%rdi
    13e1:	4c 89 85 38 ed ff ff 	mov    %r8,-0x12c8(%rbp)
    13e8:	e8 a3 05 00 00       	call   1990 <test_Fread.constprop.0.isra.0>
    13ed:	b9 fe 03 00 00       	mov    $0x3fe,%ecx
    13f2:	4c 89 f2             	mov    %r14,%rdx
    13f5:	4c 89 ee             	mov    %r13,%rsi
    13f8:	48 8d bd 40 ed ff ff 	lea    -0x12c0(%rbp),%rdi
    13ff:	e8 fc 06 00 00       	call   1b00 <riscv_dsp_dcmfir_fast_q15>
    1404:	ba ff 01 00 00       	mov    $0x1ff,%edx
    1409:	4c 89 f6             	mov    %r14,%rsi
    140c:	4c 89 ff             	mov    %r15,%rdi
    140f:	e8 ec 03 00 00       	call   1800 <dump2_q15>
    1414:	48 8b b5 30 ed ff ff 	mov    -0x12d0(%rbp),%rsi
    141b:	ba 0c 04 00 00       	mov    $0x40c,%edx
    1420:	48 8b bd 38 ed ff ff 	mov    -0x12c8(%rbp),%rdi
    1427:	e8 d4 03 00 00       	call   1800 <dump2_q15>
    142c:	66 85 c0             	test   %ax,%ax
    142f:	0f 85 cb 02 00 00    	jne    1700 <main+0x580>
    1435:	48 89 df             	mov    %rbx,%rdi
    1438:	e8 c3 fc ff ff       	call   1100 <fclose@plt>
    143d:	4c 89 e7             	mov    %r12,%rdi
    1440:	e8 bb fc ff ff       	call   1100 <fclose@plt>
    1445:	48 89 e0             	mov    %rsp,%rax
    1448:	48 39 c4             	cmp    %rax,%rsp
    144b:	74 15                	je     1462 <main+0x2e2>
    144d:	48 81 ec 00 10 00 00 	sub    $0x1000,%rsp
    1454:	48 83 8c 24 f8 0f 00 	orq    $0x0,0xff8(%rsp)
    145b:	00 00 
    145d:	48 39 c4             	cmp    %rax,%rsp
    1460:	75 eb                	jne    144d <main+0x2cd>
    1462:	48 81 ec 00 08 00 00 	sub    $0x800,%rsp
    1469:	48 83 8c 24 f8 07 00 	orq    $0x0,0x7f8(%rsp)
    1470:	00 00 
    1472:	48 89 e3             	mov    %rsp,%rbx
    1475:	48 89 e0             	mov    %rsp,%rax
    1478:	48 39 c4             	cmp    %rax,%rsp
    147b:	74 12                	je     148f <main+0x30f>
    147d:	48 81 ec 00 10 00 00 	sub    $0x1000,%rsp
    1484:	48 83 8c 24 f8 0f 00 	orq    $0x0,0xff8(%rsp)
    148b:	00 00 
    148d:	eb e9                	jmp    1478 <main+0x2f8>
    148f:	48 81 ec 00 08 00 00 	sub    $0x800,%rsp
    1496:	48 83 8c 24 f8 07 00 	orq    $0x0,0x7f8(%rsp)
    149d:	00 00 
    149f:	ba ff 01 00 00       	mov    $0x1ff,%edx
    14a4:	48 89 de             	mov    %rbx,%rsi
    14a7:	4c 89 ff             	mov    %r15,%rdi
    14aa:	49 89 e4             	mov    %rsp,%r12
    14ad:	e8 ee 04 00 00       	call   19a0 <riscv_dsp_convert_q15_f32>
    14b2:	ba ff 01 00 00       	mov    $0x1ff,%edx
    14b7:	4c 89 e6             	mov    %r12,%rsi
    14ba:	4c 89 f7             	mov    %r14,%rdi
    14bd:	e8 de 04 00 00       	call   19a0 <riscv_dsp_convert_q15_f32>
    14c2:	66 0f ef db          	pxor   %xmm3,%xmm3
    14c6:	66 0f ef ff          	pxor   %xmm7,%xmm7
    14ca:	31 c0                	xor    %eax,%eax
    14cc:	66 0f 28 ef          	movapd %xmm7,%xmm5
    14d0:	0f 28 e3             	movaps %xmm3,%xmm4
    14d3:	44 0f 28 c3          	movaps %xmm3,%xmm8
    14d7:	f3 44 0f 10 0d 80 0c 	movss  0xc80(%rip),%xmm9        # 2160 <_IO_stdin_used+0x160>
    14de:	00 00 
    14e0:	0f 28 f3             	movaps %xmm3,%xmm6
    14e3:	0f 1f 44 00 00       	nopl   0x0(%rax,%rax,1)
    14e8:	f3 41 0f 10 04 04    	movss  (%r12,%rax,1),%xmm0
    14ee:	f3 0f 10 0c 03       	movss  (%rbx,%rax,1),%xmm1
    14f3:	66 0f 7e c1          	movd   %xmm0,%ecx
    14f7:	81 f9 00 00 c0 7f    	cmp    $0x7fc00000,%ecx
    14fd:	0f 84 b7 01 00 00    	je     16ba <main+0x53a>
    1503:	0f 28 d1             	movaps %xmm1,%xmm2
    1506:	f3 0f 5c c1          	subss  %xmm1,%xmm0
    150a:	48 83 c0 04          	add    $0x4,%rax
    150e:	f3 0f 5f d6          	maxss  %xmm6,%xmm2
    1512:	0f 28 f2             	movaps %xmm2,%xmm6
    1515:	0f 28 d1             	movaps %xmm1,%xmm2
    1518:	f3 41 0f 5d d0       	minss  %xmm8,%xmm2
    151d:	f3 0f 59 c9          	mulss  %xmm1,%xmm1
    1521:	44 0f 28 c2          	movaps %xmm2,%xmm8
    1525:	0f 28 d0             	movaps %xmm0,%xmm2
    1528:	f3 0f 59 c0          	mulss  %xmm0,%xmm0
    152c:	41 0f 54 d1          	andps  %xmm9,%xmm2
    1530:	f3 0f 58 e2          	addss  %xmm2,%xmm4
    1534:	f3 0f 5f d3          	maxss  %xmm3,%xmm2
    1538:	f3 0f 5a c9          	cvtss2sd %xmm1,%xmm1
    153c:	f2 0f 58 f9          	addsd  %xmm1,%xmm7
    1540:	0f 28 da             	movaps %xmm2,%xmm3
    1543:	f3 0f 5a c0          	cvtss2sd %xmm0,%xmm0
    1547:	f2 0f 58 e8          	addsd  %xmm0,%xmm5
    154b:	48 3d fc 07 00 00    	cmp    $0x7fc,%rax
    1551:	75 95                	jne    14e8 <main+0x368>
    1553:	66 48 0f 7e e8       	movq   %xmm5,%rax
    1558:	f3 0f 11 95 24 ed ff 	movss  %xmm2,-0x12dc(%rbp)
    155f:	ff 
    1560:	f3 44 0f 11 85 28 ed 	movss  %xmm8,-0x12d8(%rbp)
    1567:	ff ff 
    1569:	f3 0f 11 b5 30 ed ff 	movss  %xmm6,-0x12d0(%rbp)
    1570:	ff 
    1571:	f2 0f 11 bd 38 ed ff 	movsd  %xmm7,-0x12c8(%rbp)
    1578:	ff 
    1579:	3d 00 00 c0 7f       	cmp    $0x7fc00000,%eax
    157e:	0f 84 36 01 00 00    	je     16ba <main+0x53a>
    1584:	66 0f 28 c5          	movapd %xmm5,%xmm0
    1588:	f2 0f 11 ad 18 ed ff 	movsd  %xmm5,-0x12e8(%rbp)
    158f:	ff 
    1590:	f3 0f 5e 25 90 0b 00 	divss  0xb90(%rip),%xmm4        # 2128 <_IO_stdin_used+0x128>
    1597:	00 
    1598:	f2 0f 5e 05 98 0b 00 	divsd  0xb98(%rip),%xmm0        # 2138 <_IO_stdin_used+0x138>
    159f:	00 
    15a0:	66 0f 7e e3          	movd   %xmm4,%ebx
    15a4:	e8 b7 fb ff ff       	call   1160 <sqrt@plt>
    15a9:	f3 0f 10 b5 30 ed ff 	movss  -0x12d0(%rbp),%xmm6
    15b0:	ff 
    15b1:	f3 44 0f 10 85 28 ed 	movss  -0x12d8(%rbp),%xmm8
    15b8:	ff ff 
    15ba:	66 0f ef c9          	pxor   %xmm1,%xmm1
    15be:	f2 0f 5a c8          	cvtsd2ss %xmm0,%xmm1
    15c2:	0f 28 f9             	movaps %xmm1,%xmm7
    15c5:	f2 0f 10 ad 18 ed ff 	movsd  -0x12e8(%rbp),%xmm5
    15cc:	ff 
    15cd:	f3 0f 10 9d 24 ed ff 	movss  -0x12dc(%rbp),%xmm3
    15d4:	ff 
    15d5:	f3 41 0f 5c f0       	subss  %xmm8,%xmm6
    15da:	f3 0f 5e fe          	divss  %xmm6,%xmm7
    15de:	66 41 0f 7e fc       	movd   %xmm7,%r12d
    15e3:	66 0f ef ff          	pxor   %xmm7,%xmm7
    15e7:	66 0f 2e ef          	ucomisd %xmm7,%xmm5
    15eb:	f2 0f 10 bd 38 ed ff 	movsd  -0x12c8(%rbp),%xmm7
    15f2:	ff 
    15f3:	0f 8a c5 00 00 00    	jp     16be <main+0x53e>
    15f9:	f3 0f 10 25 23 0b 00 	movss  0xb23(%rip),%xmm4        # 2124 <_IO_stdin_used+0x124>
    1600:	00 
    1601:	0f 85 b7 00 00 00    	jne    16be <main+0x53e>
    1607:	48 8d 3d 1c 0a 00 00 	lea    0xa1c(%rip),%rdi        # 202a <_IO_stdin_used+0x2a>
    160e:	f3 0f 11 9d 28 ed ff 	movss  %xmm3,-0x12d8(%rbp)
    1615:	ff 
    1616:	f3 0f 11 a5 38 ed ff 	movss  %xmm4,-0x12c8(%rbp)
    161d:	ff 
    161e:	f3 0f 11 8d 30 ed ff 	movss  %xmm1,-0x12d0(%rbp)
    1625:	ff 
    1626:	e8 b5 fa ff ff       	call   10e0 <puts@plt>
    162b:	66 41 0f 6e ec       	movd   %r12d,%xmm5
    1630:	66 0f ef d2          	pxor   %xmm2,%xmm2
    1634:	f3 0f 10 a5 38 ed ff 	movss  -0x12c8(%rbp),%xmm4
    163b:	ff 
    163c:	f3 0f 10 9d 28 ed ff 	movss  -0x12d8(%rbp),%xmm3
    1643:	ff 
    1644:	f3 0f 10 8d 30 ed ff 	movss  -0x12d0(%rbp),%xmm1
    164b:	ff 
    164c:	f3 0f 5a d5          	cvtss2sd %xmm5,%xmm2
    1650:	66 0f ef c0          	pxor   %xmm0,%xmm0
    1654:	66 0f 6e eb          	movd   %ebx,%xmm5
    1658:	48 8d 35 71 0a 00 00 	lea    0xa71(%rip),%rsi        # 20d0 <_IO_stdin_used+0xd0>
    165f:	bf 01 00 00 00       	mov    $0x1,%edi
    1664:	b8 05 00 00 00       	mov    $0x5,%eax
    1669:	f3 0f 5a c5          	cvtss2sd %xmm5,%xmm0
    166d:	f3 0f 5a e4          	cvtss2sd %xmm4,%xmm4
    1671:	f3 0f 5a db          	cvtss2sd %xmm3,%xmm3
    1675:	f3 0f 5a c9          	cvtss2sd %xmm1,%xmm1
    1679:	f2 0f 11 95 38 ed ff 	movsd  %xmm2,-0x12c8(%rbp)
    1680:	ff 
    1681:	e8 aa fa ff ff       	call   1130 <__printf_chk@plt>
    1686:	f2 0f 10 05 b2 0a 00 	movsd  0xab2(%rip),%xmm0        # 2140 <_IO_stdin_used+0x140>
    168d:	00 
    168e:	f2 0f 10 95 38 ed ff 	movsd  -0x12c8(%rbp),%xmm2
    1695:	ff 
    1696:	66 0f 2f c2          	comisd %xmm2,%xmm0
    169a:	19 c0                	sbb    %eax,%eax
    169c:	48 8b 55 c8          	mov    -0x38(%rbp),%rdx
    16a0:	64 48 2b 14 25 28 00 	sub    %fs:0x28,%rdx
    16a7:	00 00 
    16a9:	75 5a                	jne    1705 <main+0x585>
    16ab:	48 8d 65 d8          	lea    -0x28(%rbp),%rsp
    16af:	5b                   	pop    %rbx
    16b0:	41 5c                	pop    %r12
    16b2:	41 5d                	pop    %r13
    16b4:	41 5e                	pop    %r14
    16b6:	41 5f                	pop    %r15
    16b8:	5d                   	pop    %rbp
    16b9:	c3                   	ret    
    16ba:	31 c0                	xor    %eax,%eax
    16bc:	eb de                	jmp    169c <main+0x51c>
    16be:	f2 0f 5e fd          	divsd  %xmm5,%xmm7
    16c2:	66 0f ef c0          	pxor   %xmm0,%xmm0
    16c6:	f3 0f 11 9d 30 ed ff 	movss  %xmm3,-0x12d0(%rbp)
    16cd:	ff 
    16ce:	f3 0f 11 8d 38 ed ff 	movss  %xmm1,-0x12c8(%rbp)
    16d5:	ff 
    16d6:	f2 0f 5a c7          	cvtsd2ss %xmm7,%xmm0
    16da:	e8 41 fa ff ff       	call   1120 <log10f@plt>
    16df:	f3 0f 10 25 45 0a 00 	movss  0xa45(%rip),%xmm4        # 212c <_IO_stdin_used+0x12c>
    16e6:	00 
    16e7:	f3 0f 10 9d 30 ed ff 	movss  -0x12d0(%rbp),%xmm3
    16ee:	ff 
    16ef:	f3 0f 10 8d 38 ed ff 	movss  -0x12c8(%rbp),%xmm1
    16f6:	ff 
    16f7:	f3 0f 59 e0          	mulss  %xmm0,%xmm4
    16fb:	e9 07 ff ff ff       	jmp    1607 <main+0x487>
    1700:	83 c8 ff             	or     $0xffffffff,%eax
    1703:	eb 97                	jmp    169c <main+0x51c>
    1705:	e8 06 fa ff ff       	call   1110 <__stack_chk_fail@plt>
    170a:	66 0f 1f 44 00 00    	nopw   0x0(%rax,%rax,1)

0000000000001710 <_start>:
    1710:	f3 0f 1e fa          	endbr64 
    1714:	31 ed                	xor    %ebp,%ebp
    1716:	49 89 d1             	mov    %rdx,%r9
    1719:	5e                   	pop    %rsi
    171a:	48 89 e2             	mov    %rsp,%rdx
    171d:	48 83 e4 f0          	and    $0xfffffffffffffff0,%rsp
    1721:	50                   	push   %rax
    1722:	54                   	push   %rsp
    1723:	45 31 c0             	xor    %r8d,%r8d
    1726:	31 c9                	xor    %ecx,%ecx
    1728:	48 8d 3d 51 fa ff ff 	lea    -0x5af(%rip),%rdi        # 1180 <main>
    172f:	ff 15 a3 28 00 00    	call   *0x28a3(%rip)        # 3fd8 <__libc_start_main@GLIBC_2.34>
    1735:	f4                   	hlt    
    1736:	66 2e 0f 1f 84 00 00 	cs nopw 0x0(%rax,%rax,1)
    173d:	00 00 00 

0000000000001740 <deregister_tm_clones>:
    1740:	48 8d 3d c9 28 00 00 	lea    0x28c9(%rip),%rdi        # 4010 <__TMC_END__>
    1747:	48 8d 05 c2 28 00 00 	lea    0x28c2(%rip),%rax        # 4010 <__TMC_END__>
    174e:	48 39 f8             	cmp    %rdi,%rax
    1751:	74 15                	je     1768 <deregister_tm_clones+0x28>
    1753:	48 8b 05 86 28 00 00 	mov    0x2886(%rip),%rax        # 3fe0 <_ITM_deregisterTMCloneTable@Base>
    175a:	48 85 c0             	test   %rax,%rax
    175d:	74 09                	je     1768 <deregister_tm_clones+0x28>
    175f:	ff e0                	jmp    *%rax
    1761:	0f 1f 80 00 00 00 00 	nopl   0x0(%rax)
    1768:	c3                   	ret    
    1769:	0f 1f 80 00 00 00 00 	nopl   0x0(%rax)

0000000000001770 <register_tm_clones>:
    1770:	48 8d 3d 99 28 00 00 	lea    0x2899(%rip),%rdi        # 4010 <__TMC_END__>
    1777:	48 8d 35 92 28 00 00 	lea    0x2892(%rip),%rsi        # 4010 <__TMC_END__>
    177e:	48 29 fe             	sub    %rdi,%rsi
    1781:	48 89 f0             	mov    %rsi,%rax
    1784:	48 c1 ee 3f          	shr    $0x3f,%rsi
    1788:	48 c1 f8 03          	sar    $0x3,%rax
    178c:	48 01 c6             	add    %rax,%rsi
    178f:	48 d1 fe             	sar    %rsi
    1792:	74 14                	je     17a8 <register_tm_clones+0x38>
    1794:	48 8b 05 55 28 00 00 	mov    0x2855(%rip),%rax        # 3ff0 <_ITM_registerTMCloneTable@Base>
    179b:	48 85 c0             	test   %rax,%rax
    179e:	74 08                	je     17a8 <register_tm_clones+0x38>
    17a0:	ff e0                	jmp    *%rax
    17a2:	66 0f 1f 44 00 00    	nopw   0x0(%rax,%rax,1)
    17a8:	c3                   	ret    
    17a9:	0f 1f 80 00 00 00 00 	nopl   0x0(%rax)

00000000000017b0 <__do_global_dtors_aux>:
    17b0:	f3 0f 1e fa          	endbr64 
    17b4:	80 3d 55 28 00 00 00 	cmpb   $0x0,0x2855(%rip)        # 4010 <__TMC_END__>
    17bb:	75 2b                	jne    17e8 <__do_global_dtors_aux+0x38>
    17bd:	55                   	push   %rbp
    17be:	48 83 3d 32 28 00 00 	cmpq   $0x0,0x2832(%rip)        # 3ff8 <__cxa_finalize@GLIBC_2.2.5>
    17c5:	00 
    17c6:	48 89 e5             	mov    %rsp,%rbp
    17c9:	74 0c                	je     17d7 <__do_global_dtors_aux+0x27>
    17cb:	48 8b 3d 36 28 00 00 	mov    0x2836(%rip),%rdi        # 4008 <__dso_handle>
    17d2:	e8 f9 f8 ff ff       	call   10d0 <__cxa_finalize@plt>
    17d7:	e8 64 ff ff ff       	call   1740 <deregister_tm_clones>
    17dc:	c6 05 2d 28 00 00 01 	movb   $0x1,0x282d(%rip)        # 4010 <__TMC_END__>
    17e3:	5d                   	pop    %rbp
    17e4:	c3                   	ret    
    17e5:	0f 1f 00             	nopl   (%rax)
    17e8:	c3                   	ret    
    17e9:	0f 1f 80 00 00 00 00 	nopl   0x0(%rax)

00000000000017f0 <frame_dummy>:
    17f0:	f3 0f 1e fa          	endbr64 
    17f4:	e9 77 ff ff ff       	jmp    1770 <register_tm_clones>
    17f9:	0f 1f 80 00 00 00 00 	nopl   0x0(%rax)

0000000000001800 <dump2_q15>:
    1800:	41 54                	push   %r12
    1802:	89 d1                	mov    %edx,%ecx
    1804:	66 0f ef d2          	pxor   %xmm2,%xmm2
    1808:	c1 ea 03             	shr    $0x3,%edx
    180b:	48 c1 e2 04          	shl    $0x4,%rdx
    180f:	31 c0                	xor    %eax,%eax
    1811:	66 0f 6f da          	movdqa %xmm2,%xmm3
    1815:	0f 1f 00             	nopl   (%rax)
    1818:	f3 0f 6f 04 06       	movdqu (%rsi,%rax,1),%xmm0
    181d:	f3 0f 6f 24 07       	movdqu (%rdi,%rax,1),%xmm4
    1822:	66 0f 6f cb          	movdqa %xmm3,%xmm1
    1826:	48 83 c0 10          	add    $0x10,%rax
    182a:	66 0f f9 c4          	psubw  %xmm4,%xmm0
    182e:	66 0f f9 c8          	psubw  %xmm0,%xmm1
    1832:	66 0f ee c1          	pmaxsw %xmm1,%xmm0
    1836:	66 0f ee d0          	pmaxsw %xmm0,%xmm2
    183a:	48 39 d0             	cmp    %rdx,%rax
    183d:	75 d9                	jne    1818 <dump2_q15+0x18>
    183f:	66 0f 6f c2          	movdqa %xmm2,%xmm0
    1843:	89 c8                	mov    %ecx,%eax
    1845:	66 0f 73 d8 08       	psrldq $0x8,%xmm0
    184a:	83 e0 f8             	and    $0xfffffff8,%eax
    184d:	66 0f ee d0          	pmaxsw %xmm0,%xmm2
    1851:	89 c2                	mov    %eax,%edx
    1853:	66 0f 6f c2          	movdqa %xmm2,%xmm0
    1857:	48 01 d2             	add    %rdx,%rdx
    185a:	66 0f 73 d8 04       	psrldq $0x4,%xmm0
    185f:	48 01 d7             	add    %rdx,%rdi
    1862:	48 01 d6             	add    %rdx,%rsi
    1865:	66 0f ee d0          	pmaxsw %xmm0,%xmm2
    1869:	66 0f 6f c2          	movdqa %xmm2,%xmm0
    186d:	66 0f 73 d8 02       	psrldq $0x2,%xmm0
    1872:	66 0f ee d0          	pmaxsw %xmm0,%xmm2
    1876:	66 44 0f c5 e2 00    	pextrw $0x0,%xmm2,%r12d
    187c:	39 c1                	cmp    %eax,%ecx
    187e:	0f 84 ea 00 00 00    	je     196e <dump2_q15+0x16e>
    1884:	0f b7 16             	movzwl (%rsi),%edx
    1887:	66 2b 17             	sub    (%rdi),%dx
    188a:	41 89 d0             	mov    %edx,%r8d
    188d:	66 41 f7 d8          	neg    %r8w
    1891:	41 0f 49 d0          	cmovns %r8d,%edx
    1895:	66 41 39 d4          	cmp    %dx,%r12w
    1899:	44 0f 4c e2          	cmovl  %edx,%r12d
    189d:	8d 50 01             	lea    0x1(%rax),%edx
    18a0:	39 d1                	cmp    %edx,%ecx
    18a2:	0f 86 c6 00 00 00    	jbe    196e <dump2_q15+0x16e>
    18a8:	0f b7 56 02          	movzwl 0x2(%rsi),%edx
    18ac:	66 2b 57 02          	sub    0x2(%rdi),%dx
    18b0:	41 89 d0             	mov    %edx,%r8d
    18b3:	66 41 f7 d8          	neg    %r8w
    18b7:	41 0f 49 d0          	cmovns %r8d,%edx
    18bb:	66 41 39 d4          	cmp    %dx,%r12w
    18bf:	44 0f 4c e2          	cmovl  %edx,%r12d
    18c3:	8d 50 02             	lea    0x2(%rax),%edx
    18c6:	39 d1                	cmp    %edx,%ecx
    18c8:	0f 86 a0 00 00 00    	jbe    196e <dump2_q15+0x16e>
    18ce:	0f b7 56 04          	movzwl 0x4(%rsi),%edx
    18d2:	66 2b 57 04          	sub    0x4(%rdi),%dx
    18d6:	41 89 d0             	mov    %edx,%r8d
    18d9:	66 41 f7 d8          	neg    %r8w
    18dd:	41 0f 49 d0          	cmovns %r8d,%edx
    18e1:	66 41 39 d4          	cmp    %dx,%r12w
    18e5:	44 0f 4c e2          	cmovl  %edx,%r12d
    18e9:	8d 50 03             	lea    0x3(%rax),%edx
    18ec:	39 d1                	cmp    %edx,%ecx
    18ee:	76 7e                	jbe    196e <dump2_q15+0x16e>
    18f0:	0f b7 56 06          	movzwl 0x6(%rsi),%edx
    18f4:	66 2b 57 06          	sub    0x6(%rdi),%dx
    18f8:	41 89 d0             	mov    %edx,%r8d
    18fb:	66 41 f7 d8          	neg    %r8w
    18ff:	41 0f 49 d0          	cmovns %r8d,%edx
    1903:	66 41 39 d4          	cmp    %dx,%r12w
    1907:	44 0f 4c e2          	cmovl  %edx,%r12d
    190b:	8d 50 04             	lea    0x4(%rax),%edx
    190e:	39 d1                	cmp    %edx,%ecx
    1910:	76 5c                	jbe    196e <dump2_q15+0x16e>
    1912:	0f b7 56 08          	movzwl 0x8(%rsi),%edx
    1916:	66 2b 57 08          	sub    0x8(%rdi),%dx
    191a:	41 89 d0             	mov    %edx,%r8d
    191d:	66 41 f7 d8          	neg    %r8w
    1921:	41 0f 49 d0          	cmovns %r8d,%edx
    1925:	66 41 39 d4          	cmp    %dx,%r12w
    1929:	44 0f 4c e2          	cmovl  %edx,%r12d
    192d:	8d 50 05             	lea    0x5(%rax),%edx
    1930:	39 d1                	cmp    %edx,%ecx
    1932:	76 3a                	jbe    196e <dump2_q15+0x16e>
    1934:	0f b7 56 0a          	movzwl 0xa(%rsi),%edx
    1938:	66 2b 57 0a          	sub    0xa(%rdi),%dx
    193c:	41 89 d0             	mov    %edx,%r8d
    193f:	66 41 f7 d8          	neg    %r8w
    1943:	41 0f 49 d0          	cmovns %r8d,%edx
    1947:	66 41 39 d4          	cmp    %dx,%r12w
    194b:	44 0f 4c e2          	cmovl  %edx,%r12d
    194f:	83 c0 06             	add    $0x6,%eax
    1952:	39 c1                	cmp    %eax,%ecx
    1954:	76 18                	jbe    196e <dump2_q15+0x16e>
    1956:	0f b7 46 0c          	movzwl 0xc(%rsi),%eax
    195a:	66 2b 47 0c          	sub    0xc(%rdi),%ax
    195e:	89 c2                	mov    %eax,%edx
    1960:	66 f7 da             	neg    %dx
    1963:	0f 49 c2             	cmovns %edx,%eax
    1966:	66 41 39 c4          	cmp    %ax,%r12w
    196a:	44 0f 4c e0          	cmovl  %eax,%r12d
    196e:	41 0f bf d4          	movswl %r12w,%edx
    1972:	48 8d 35 8b 06 00 00 	lea    0x68b(%rip),%rsi        # 2004 <_IO_stdin_used+0x4>
    1979:	bf 01 00 00 00       	mov    $0x1,%edi
    197e:	31 c0                	xor    %eax,%eax
    1980:	e8 ab f7 ff ff       	call   1130 <__printf_chk@plt>
    1985:	44 89 e0             	mov    %r12d,%eax
    1988:	41 5c                	pop    %r12
    198a:	c3                   	ret    
    198b:	0f 1f 44 00 00       	nopl   0x0(%rax,%rax,1)

0000000000001990 <test_Fread.constprop.0.isra.0>:
    1990:	48 89 d1             	mov    %rdx,%rcx
    1993:	89 f2                	mov    %esi,%edx
    1995:	be 02 00 00 00       	mov    $0x2,%esi
    199a:	e9 51 f7 ff ff       	jmp    10f0 <fread@plt>
    199f:	90                   	nop

00000000000019a0 <riscv_dsp_convert_q15_f32>:
    19a0:	f3 0f 1e fa          	endbr64 
    19a4:	48 89 f1             	mov    %rsi,%rcx
    19a7:	85 d2                	test   %edx,%edx
    19a9:	0f 84 36 01 00 00    	je     1ae5 <riscv_dsp_convert_q15_f32+0x145>
    19af:	8d 42 ff             	lea    -0x1(%rdx),%eax
    19b2:	83 f8 06             	cmp    $0x6,%eax
    19b5:	0f 86 36 01 00 00    	jbe    1af1 <riscv_dsp_convert_q15_f32+0x151>
    19bb:	89 d6                	mov    %edx,%esi
    19bd:	0f 28 1d ac 07 00 00 	movaps 0x7ac(%rip),%xmm3        # 2170 <_IO_stdin_used+0x170>
    19c4:	31 c0                	xor    %eax,%eax
    19c6:	66 0f ef e4          	pxor   %xmm4,%xmm4
    19ca:	c1 ee 03             	shr    $0x3,%esi
    19cd:	48 c1 e6 04          	shl    $0x4,%rsi
    19d1:	0f 1f 80 00 00 00 00 	nopl   0x0(%rax)
    19d8:	f3 0f 6f 04 07       	movdqu (%rdi,%rax,1),%xmm0
    19dd:	66 0f 6f d4          	movdqa %xmm4,%xmm2
    19e1:	66 0f 65 d0          	pcmpgtw %xmm0,%xmm2
    19e5:	66 0f 6f c8          	movdqa %xmm0,%xmm1
    19e9:	66 0f 61 ca          	punpcklwd %xmm2,%xmm1
    19ed:	66 0f 69 c2          	punpckhwd %xmm2,%xmm0
    19f1:	0f 5b c9             	cvtdq2ps %xmm1,%xmm1
    19f4:	0f 5b c0             	cvtdq2ps %xmm0,%xmm0
    19f7:	0f 59 cb             	mulps  %xmm3,%xmm1
    19fa:	0f 59 c3             	mulps  %xmm3,%xmm0
    19fd:	0f 11 0c 41          	movups %xmm1,(%rcx,%rax,2)
    1a01:	0f 11 44 41 10       	movups %xmm0,0x10(%rcx,%rax,2)
    1a06:	48 83 c0 10          	add    $0x10,%rax
    1a0a:	48 39 f0             	cmp    %rsi,%rax
    1a0d:	75 c9                	jne    19d8 <riscv_dsp_convert_q15_f32+0x38>
    1a0f:	89 d6                	mov    %edx,%esi
    1a11:	83 e6 f8             	and    $0xfffffff8,%esi
    1a14:	89 f0                	mov    %esi,%eax
    1a16:	48 8d 3c 47          	lea    (%rdi,%rax,2),%rdi
    1a1a:	48 8d 0c 81          	lea    (%rcx,%rax,4),%rcx
    1a1e:	89 d0                	mov    %edx,%eax
    1a20:	29 f0                	sub    %esi,%eax
    1a22:	39 f2                	cmp    %esi,%edx
    1a24:	0f 84 c6 00 00 00    	je     1af0 <riscv_dsp_convert_q15_f32+0x150>
    1a2a:	0f bf 17             	movswl (%rdi),%edx
    1a2d:	66 0f ef c9          	pxor   %xmm1,%xmm1
    1a31:	f3 0f 10 05 37 07 00 	movss  0x737(%rip),%xmm0        # 2170 <_IO_stdin_used+0x170>
    1a38:	00 
    1a39:	f3 0f 2a ca          	cvtsi2ss %edx,%xmm1
    1a3d:	f3 0f 59 c8          	mulss  %xmm0,%xmm1
    1a41:	f3 0f 11 09          	movss  %xmm1,(%rcx)
    1a45:	83 f8 01             	cmp    $0x1,%eax
    1a48:	0f 84 97 00 00 00    	je     1ae5 <riscv_dsp_convert_q15_f32+0x145>
    1a4e:	0f bf 57 02          	movswl 0x2(%rdi),%edx
    1a52:	66 0f ef c9          	pxor   %xmm1,%xmm1
    1a56:	f3 0f 2a ca          	cvtsi2ss %edx,%xmm1
    1a5a:	f3 0f 59 c8          	mulss  %xmm0,%xmm1
    1a5e:	f3 0f 11 49 04       	movss  %xmm1,0x4(%rcx)
    1a63:	83 f8 02             	cmp    $0x2,%eax
    1a66:	74 7d                	je     1ae5 <riscv_dsp_convert_q15_f32+0x145>
    1a68:	0f bf 57 04          	movswl 0x4(%rdi),%edx
    1a6c:	66 0f ef c9          	pxor   %xmm1,%xmm1
    1a70:	f3 0f 2a ca          	cvtsi2ss %edx,%xmm1
    1a74:	f3 0f 59 c8          	mulss  %xmm0,%xmm1
    1a78:	f3 0f 11 49 08       	movss  %xmm1,0x8(%rcx)
    1a7d:	83 f8 03             	cmp    $0x3,%eax
    1a80:	74 63                	je     1ae5 <riscv_dsp_convert_q15_f32+0x145>
    1a82:	0f bf 57 06          	movswl 0x6(%rdi),%edx
    1a86:	66 0f ef c9          	pxor   %xmm1,%xmm1
    1a8a:	f3 0f 2a ca          	cvtsi2ss %edx,%xmm1
    1a8e:	f3 0f 59 c8          	mulss  %xmm0,%xmm1
    1a92:	f3 0f 11 49 0c       	movss  %xmm1,0xc(%rcx)
    1a97:	83 f8 04             	cmp    $0x4,%eax
    1a9a:	74 49                	je     1ae5 <riscv_dsp_convert_q15_f32+0x145>
    1a9c:	0f bf 57 08          	movswl 0x8(%rdi),%edx
    1aa0:	66 0f ef c9          	pxor   %xmm1,%xmm1
    1aa4:	f3 0f 2a ca          	cvtsi2ss %edx,%xmm1
    1aa8:	f3 0f 59 c8          	mulss  %xmm0,%xmm1
    1aac:	f3 0f 11 49 10       	movss  %xmm1,0x10(%rcx)
    1ab1:	83 f8 05             	cmp    $0x5,%eax
    1ab4:	74 2f                	je     1ae5 <riscv_dsp_convert_q15_f32+0x145>
    1ab6:	0f bf 57 0a          	movswl 0xa(%rdi),%edx
    1aba:	66 0f ef c9          	pxor   %xmm1,%xmm1
    1abe:	f3 0f 2a ca          	cvtsi2ss %edx,%xmm1
    1ac2:	f3 0f 59 c8          	mulss  %xmm0,%xmm1
    1ac6:	f3 0f 11 49 14       	movss  %xmm1,0x14(%rcx)
    1acb:	83 f8 06             	cmp    $0x6,%eax
    1ace:	74 15                	je     1ae5 <riscv_dsp_convert_q15_f32+0x145>
    1ad0:	0f bf 47 0c          	movswl 0xc(%rdi),%eax
    1ad4:	66 0f ef c9          	pxor   %xmm1,%xmm1
    1ad8:	f3 0f 2a c8          	cvtsi2ss %eax,%xmm1
    1adc:	f3 0f 59 c8          	mulss  %xmm0,%xmm1
    1ae0:	f3 0f 11 49 18       	movss  %xmm1,0x18(%rcx)
    1ae5:	c3                   	ret    
    1ae6:	66 2e 0f 1f 84 00 00 	cs nopw 0x0(%rax,%rax,1)
    1aed:	00 00 00 
    1af0:	c3                   	ret    
    1af1:	89 d0                	mov    %edx,%eax
    1af3:	e9 32 ff ff ff       	jmp    1a2a <riscv_dsp_convert_q15_f32+0x8a>
    1af8:	0f 1f 84 00 00 00 00 	nopl   0x0(%rax,%rax,1)
    1aff:	00 

0000000000001b00 <riscv_dsp_dcmfir_fast_q15>:
    1b00:	f3 0f 1e fa          	endbr64 
    1b04:	41 57                	push   %r15
    1b06:	89 c8                	mov    %ecx,%eax
    1b08:	49 89 f8             	mov    %rdi,%r8
    1b0b:	41 56                	push   %r14
    1b0d:	49 89 d6             	mov    %rdx,%r14
    1b10:	31 d2                	xor    %edx,%edx
    1b12:	41 55                	push   %r13
    1b14:	41 54                	push   %r12
    1b16:	55                   	push   %rbp
    1b17:	53                   	push   %rbx
    1b18:	48 83 ec 58          	sub    $0x58,%rsp
    1b1c:	44 8b 0f             	mov    (%rdi),%r9d
    1b1f:	44 8b 7f 04          	mov    0x4(%rdi),%r15d
    1b23:	48 8b 5f 10          	mov    0x10(%rdi),%rbx
    1b27:	41 f7 f1             	div    %r9d
    1b2a:	44 89 4c 24 1c       	mov    %r9d,0x1c(%rsp)
    1b2f:	48 89 5c 24 40       	mov    %rbx,0x40(%rsp)
    1b34:	41 8d 57 ff          	lea    -0x1(%r15),%edx
    1b38:	89 54 24 18          	mov    %edx,0x18(%rsp)
    1b3c:	48 8d 3c 53          	lea    (%rbx,%rdx,2),%rdi
    1b40:	41 39 c9             	cmp    %ecx,%r9d
    1b43:	0f 87 1f 03 00 00    	ja     1e68 <riscv_dsp_dcmfir_fast_q15+0x368>
    1b49:	83 e8 01             	sub    $0x1,%eax
    1b4c:	44 89 ca             	mov    %r9d,%edx
    1b4f:	4d 8b 60 08          	mov    0x8(%r8),%r12
    1b53:	48 83 c0 01          	add    $0x1,%rax
    1b57:	48 89 d1             	mov    %rdx,%rcx
    1b5a:	48 01 d2             	add    %rdx,%rdx
    1b5d:	48 89 44 24 48       	mov    %rax,0x48(%rsp)
    1b62:	49 8d 04 46          	lea    (%r14,%rax,2),%rax
    1b66:	48 89 44 24 20       	mov    %rax,0x20(%rsp)
    1b6b:	8d 41 ff             	lea    -0x1(%rcx),%eax
    1b6e:	44 89 f9             	mov    %r15d,%ecx
    1b71:	4c 8d 6c 00 02       	lea    0x2(%rax,%rax,1),%r13
    1b76:	44 89 f8             	mov    %r15d,%eax
    1b79:	83 e1 f8             	and    $0xfffffff8,%ecx
    1b7c:	48 89 54 24 10       	mov    %rdx,0x10(%rsp)
    1b81:	c1 e8 03             	shr    $0x3,%eax
    1b84:	89 4c 24 38          	mov    %ecx,0x38(%rsp)
    1b88:	8d 68 ff             	lea    -0x1(%rax),%ebp
    1b8b:	89 c8                	mov    %ecx,%eax
    1b8d:	48 01 c0             	add    %rax,%rax
    1b90:	48 83 c5 01          	add    $0x1,%rbp
    1b94:	48 89 44 24 28       	mov    %rax,0x28(%rsp)
    1b99:	4c 01 e0             	add    %r12,%rax
    1b9c:	48 c1 e5 04          	shl    $0x4,%rbp
    1ba0:	48 89 44 24 30       	mov    %rax,0x30(%rsp)
    1ba5:	44 89 f8             	mov    %r15d,%eax
    1ba8:	29 c8                	sub    %ecx,%eax
    1baa:	89 44 24 3c          	mov    %eax,0x3c(%rsp)
    1bae:	4c 89 e8             	mov    %r13,%rax
    1bb1:	45 89 fd             	mov    %r15d,%r13d
    1bb4:	49 89 c7             	mov    %rax,%r15
    1bb7:	66 0f 1f 84 00 00 00 	nopw   0x0(%rax,%rax,1)
    1bbe:	00 00 
    1bc0:	8b 4c 24 1c          	mov    0x1c(%rsp),%ecx
    1bc4:	85 c9                	test   %ecx,%ecx
    1bc6:	74 1b                	je     1be3 <riscv_dsp_dcmfir_fast_q15+0xe3>
    1bc8:	4c 89 fa             	mov    %r15,%rdx
    1bcb:	48 89 74 24 08       	mov    %rsi,0x8(%rsp)
    1bd0:	e8 6b f5 ff ff       	call   1140 <memmove@plt>
    1bd5:	48 8b 74 24 08       	mov    0x8(%rsp),%rsi
    1bda:	48 89 c7             	mov    %rax,%rdi
    1bdd:	4c 01 fe             	add    %r15,%rsi
    1be0:	4c 01 ff             	add    %r15,%rdi
    1be3:	45 85 ed             	test   %r13d,%r13d
    1be6:	0f 84 34 02 00 00    	je     1e20 <riscv_dsp_dcmfir_fast_q15+0x320>
    1bec:	83 7c 24 18 06       	cmpl   $0x6,0x18(%rsp)
    1bf1:	0f 86 30 02 00 00    	jbe    1e27 <riscv_dsp_dcmfir_fast_q15+0x327>
    1bf7:	31 c0                	xor    %eax,%eax
    1bf9:	66 0f ef c9          	pxor   %xmm1,%xmm1
    1bfd:	0f 1f 00             	nopl   (%rax)
    1c00:	f3 41 0f 6f 04 04    	movdqu (%r12,%rax,1),%xmm0
    1c06:	f3 0f 6f 14 03       	movdqu (%rbx,%rax,1),%xmm2
    1c0b:	48 83 c0 10          	add    $0x10,%rax
    1c0f:	66 0f f5 c2          	pmaddwd %xmm2,%xmm0
    1c13:	66 0f fe c8          	paddd  %xmm0,%xmm1
    1c17:	48 39 c5             	cmp    %rax,%rbp
    1c1a:	75 e4                	jne    1c00 <riscv_dsp_dcmfir_fast_q15+0x100>
    1c1c:	66 0f 6f c1          	movdqa %xmm1,%xmm0
    1c20:	48 8b 4c 24 28       	mov    0x28(%rsp),%rcx
    1c25:	66 0f 73 d8 08       	psrldq $0x8,%xmm0
    1c2a:	66 0f fe c8          	paddd  %xmm0,%xmm1
    1c2e:	48 8d 14 0b          	lea    (%rbx,%rcx,1),%rdx
    1c32:	66 0f 6f c1          	movdqa %xmm1,%xmm0
    1c36:	66 0f 73 d8 04       	psrldq $0x4,%xmm0
    1c3b:	66 0f fe c8          	paddd  %xmm0,%xmm1
    1c3f:	66 0f 7e c8          	movd   %xmm1,%eax
    1c43:	44 3b 6c 24 38       	cmp    0x38(%rsp),%r13d
    1c48:	0f 84 a3 00 00 00    	je     1cf1 <riscv_dsp_dcmfir_fast_q15+0x1f1>
    1c4e:	44 8b 4c 24 3c       	mov    0x3c(%rsp),%r9d
    1c53:	48 8b 4c 24 30       	mov    0x30(%rsp),%rcx
    1c58:	44 0f bf 11          	movswl (%rcx),%r10d
    1c5c:	44 0f bf 1a          	movswl (%rdx),%r11d
    1c60:	45 0f af d3          	imul   %r11d,%r10d
    1c64:	44 01 d0             	add    %r10d,%eax
    1c67:	41 83 f9 01          	cmp    $0x1,%r9d
    1c6b:	0f 84 80 00 00 00    	je     1cf1 <riscv_dsp_dcmfir_fast_q15+0x1f1>
    1c71:	44 0f bf 51 02       	movswl 0x2(%rcx),%r10d
    1c76:	44 0f bf 5a 02       	movswl 0x2(%rdx),%r11d
    1c7b:	45 0f af d3          	imul   %r11d,%r10d
    1c7f:	44 01 d0             	add    %r10d,%eax
    1c82:	41 83 f9 02          	cmp    $0x2,%r9d
    1c86:	74 69                	je     1cf1 <riscv_dsp_dcmfir_fast_q15+0x1f1>
    1c88:	44 0f bf 51 04       	movswl 0x4(%rcx),%r10d
    1c8d:	44 0f bf 5a 04       	movswl 0x4(%rdx),%r11d
    1c92:	45 0f af d3          	imul   %r11d,%r10d
    1c96:	44 01 d0             	add    %r10d,%eax
    1c99:	41 83 f9 03          	cmp    $0x3,%r9d
    1c9d:	74 52                	je     1cf1 <riscv_dsp_dcmfir_fast_q15+0x1f1>
    1c9f:	44 0f bf 51 06       	movswl 0x6(%rcx),%r10d
    1ca4:	44 0f bf 5a 06       	movswl 0x6(%rdx),%r11d
    1ca9:	45 0f af d3          	imul   %r11d,%r10d
    1cad:	44 01 d0             	add    %r10d,%eax
    1cb0:	41 83 f9 04          	cmp    $0x4,%r9d
    1cb4:	74 3b                	je     1cf1 <riscv_dsp_dcmfir_fast_q15+0x1f1>
    1cb6:	44 0f bf 51 08       	movswl 0x8(%rcx),%r10d
    1cbb:	44 0f bf 5a 08       	movswl 0x8(%rdx),%r11d
    1cc0:	45 0f af d3          	imul   %r11d,%r10d
    1cc4:	44 01 d0             	add    %r10d,%eax
    1cc7:	41 83 f9 05          	cmp    $0x5,%r9d
    1ccb:	74 24                	je     1cf1 <riscv_dsp_dcmfir_fast_q15+0x1f1>
    1ccd:	44 0f bf 51 0a       	movswl 0xa(%rcx),%r10d
    1cd2:	44 0f bf 5a 0a       	movswl 0xa(%rdx),%r11d
    1cd7:	45 0f af d3          	imul   %r11d,%r10d
    1cdb:	44 01 d0             	add    %r10d,%eax
    1cde:	41 83 f9 06          	cmp    $0x6,%r9d
    1ce2:	74 0d                	je     1cf1 <riscv_dsp_dcmfir_fast_q15+0x1f1>
    1ce4:	0f bf 49 0c          	movswl 0xc(%rcx),%ecx
    1ce8:	0f bf 52 0c          	movswl 0xc(%rdx),%edx
    1cec:	0f af ca             	imul   %edx,%ecx
    1cef:	01 c8                	add    %ecx,%eax
    1cf1:	ba 00 80 ff ff       	mov    $0xffff8000,%edx
    1cf6:	c1 f8 0f             	sar    $0xf,%eax
    1cf9:	39 d0                	cmp    %edx,%eax
    1cfb:	0f 4c c2             	cmovl  %edx,%eax
    1cfe:	ba ff 7f 00 00       	mov    $0x7fff,%edx
    1d03:	39 d0                	cmp    %edx,%eax
    1d05:	0f 4f c2             	cmovg  %edx,%eax
    1d08:	49 83 c6 02          	add    $0x2,%r14
    1d0c:	48 03 5c 24 10       	add    0x10(%rsp),%rbx
    1d11:	66 41 89 46 fe       	mov    %ax,-0x2(%r14)
    1d16:	4c 3b 74 24 20       	cmp    0x20(%rsp),%r14
    1d1b:	0f 85 9f fe ff ff    	jne    1bc0 <riscv_dsp_dcmfir_fast_q15+0xc0>
    1d21:	48 8b 44 24 10       	mov    0x10(%rsp),%rax
    1d26:	45 89 ef             	mov    %r13d,%r15d
    1d29:	48 0f af 44 24 48    	imul   0x48(%rsp),%rax
    1d2f:	48 03 44 24 40       	add    0x40(%rsp),%rax
    1d34:	8b 54 24 18          	mov    0x18(%rsp),%edx
    1d38:	85 d2                	test   %edx,%edx
    1d3a:	0f 84 cf 00 00 00    	je     1e0f <riscv_dsp_dcmfir_fast_q15+0x30f>
    1d40:	48 8b 7c 24 40       	mov    0x40(%rsp),%rdi
    1d45:	48 8d 70 02          	lea    0x2(%rax),%rsi
    1d49:	41 8d 57 fe          	lea    -0x2(%r15),%edx
    1d4d:	48 89 f9             	mov    %rdi,%rcx
    1d50:	48 29 f1             	sub    %rsi,%rcx
    1d53:	48 83 f9 0c          	cmp    $0xc,%rcx
    1d57:	0f 86 da 00 00 00    	jbe    1e37 <riscv_dsp_dcmfir_fast_q15+0x337>
    1d5d:	83 fa 02             	cmp    $0x2,%edx
    1d60:	0f 86 d1 00 00 00    	jbe    1e37 <riscv_dsp_dcmfir_fast_q15+0x337>
    1d66:	83 fa 06             	cmp    $0x6,%edx
    1d69:	0f 86 01 01 00 00    	jbe    1e70 <riscv_dsp_dcmfir_fast_q15+0x370>
    1d6f:	41 8d 77 f7          	lea    -0x9(%r15),%esi
    1d73:	31 d2                	xor    %edx,%edx
    1d75:	31 c9                	xor    %ecx,%ecx
    1d77:	c1 ee 03             	shr    $0x3,%esi
    1d7a:	83 c6 01             	add    $0x1,%esi
    1d7d:	0f 1f 00             	nopl   (%rax)
    1d80:	f3 0f 6f 1c 10       	movdqu (%rax,%rdx,1),%xmm3
    1d85:	83 c1 01             	add    $0x1,%ecx
    1d88:	0f 11 1c 17          	movups %xmm3,(%rdi,%rdx,1)
    1d8c:	48 83 c2 10          	add    $0x10,%rdx
    1d90:	39 ce                	cmp    %ecx,%esi
    1d92:	77 ec                	ja     1d80 <riscv_dsp_dcmfir_fast_q15+0x280>
    1d94:	8b 5c 24 18          	mov    0x18(%rsp),%ebx
    1d98:	44 8d 0c f5 00 00 00 	lea    0x0(,%rsi,8),%r9d
    1d9f:	00 
    1da0:	4b 8d 0c 09          	lea    (%r9,%r9,1),%rcx
    1da4:	41 89 d8             	mov    %ebx,%r8d
    1da7:	48 8d 3c 08          	lea    (%rax,%rcx,1),%rdi
    1dab:	48 03 4c 24 40       	add    0x40(%rsp),%rcx
    1db0:	45 29 c8             	sub    %r9d,%r8d
    1db3:	44 39 cb             	cmp    %r9d,%ebx
    1db6:	74 57                	je     1e0f <riscv_dsp_dcmfir_fast_q15+0x30f>
    1db8:	45 29 cf             	sub    %r9d,%r15d
    1dbb:	41 8d 57 ff          	lea    -0x1(%r15),%edx
    1dbf:	41 83 ef 02          	sub    $0x2,%r15d
    1dc3:	41 83 ff 02          	cmp    $0x2,%r15d
    1dc7:	76 24                	jbe    1ded <riscv_dsp_dcmfir_fast_q15+0x2ed>
    1dc9:	4a 8b 04 48          	mov    (%rax,%r9,2),%rax
    1dcd:	48 8b 74 24 40       	mov    0x40(%rsp),%rsi
    1dd2:	4a 89 04 4e          	mov    %rax,(%rsi,%r9,2)
    1dd6:	89 d6                	mov    %edx,%esi
    1dd8:	83 e6 fc             	and    $0xfffffffc,%esi
    1ddb:	89 f0                	mov    %esi,%eax
    1ddd:	41 29 f0             	sub    %esi,%r8d
    1de0:	48 01 c0             	add    %rax,%rax
    1de3:	48 01 c7             	add    %rax,%rdi
    1de6:	48 01 c1             	add    %rax,%rcx
    1de9:	39 f2                	cmp    %esi,%edx
    1deb:	74 22                	je     1e0f <riscv_dsp_dcmfir_fast_q15+0x30f>
    1ded:	0f b7 07             	movzwl (%rdi),%eax
    1df0:	66 89 01             	mov    %ax,(%rcx)
    1df3:	41 83 f8 01          	cmp    $0x1,%r8d
    1df7:	74 16                	je     1e0f <riscv_dsp_dcmfir_fast_q15+0x30f>
    1df9:	0f b7 47 02          	movzwl 0x2(%rdi),%eax
    1dfd:	66 89 41 02          	mov    %ax,0x2(%rcx)
    1e01:	41 83 f8 02          	cmp    $0x2,%r8d
    1e05:	74 08                	je     1e0f <riscv_dsp_dcmfir_fast_q15+0x30f>
    1e07:	0f b7 47 04          	movzwl 0x4(%rdi),%eax
    1e0b:	66 89 41 04          	mov    %ax,0x4(%rcx)
    1e0f:	48 83 c4 58          	add    $0x58,%rsp
    1e13:	5b                   	pop    %rbx
    1e14:	5d                   	pop    %rbp
    1e15:	41 5c                	pop    %r12
    1e17:	41 5d                	pop    %r13
    1e19:	41 5e                	pop    %r14
    1e1b:	41 5f                	pop    %r15
    1e1d:	c3                   	ret    
    1e1e:	66 90                	xchg   %ax,%ax
    1e20:	31 c0                	xor    %eax,%eax
    1e22:	e9 e1 fe ff ff       	jmp    1d08 <riscv_dsp_dcmfir_fast_q15+0x208>
    1e27:	45 89 e9             	mov    %r13d,%r9d
    1e2a:	4c 89 e1             	mov    %r12,%rcx
    1e2d:	48 89 da             	mov    %rbx,%rdx
    1e30:	31 c0                	xor    %eax,%eax
    1e32:	e9 21 fe ff ff       	jmp    1c58 <riscv_dsp_dcmfir_fast_q15+0x158>
    1e37:	8b 74 24 18          	mov    0x18(%rsp),%esi
    1e3b:	48 8b 7c 24 40       	mov    0x40(%rsp),%rdi
    1e40:	31 d2                	xor    %edx,%edx
    1e42:	66 0f 1f 44 00 00    	nopw   0x0(%rax,%rax,1)
    1e48:	0f b7 0c 50          	movzwl (%rax,%rdx,2),%ecx
    1e4c:	66 89 0c 57          	mov    %cx,(%rdi,%rdx,2)
    1e50:	48 83 c2 01          	add    $0x1,%rdx
    1e54:	48 39 f2             	cmp    %rsi,%rdx
    1e57:	75 ef                	jne    1e48 <riscv_dsp_dcmfir_fast_q15+0x348>
    1e59:	48 83 c4 58          	add    $0x58,%rsp
    1e5d:	5b                   	pop    %rbx
    1e5e:	5d                   	pop    %rbp
    1e5f:	41 5c                	pop    %r12
    1e61:	41 5d                	pop    %r13
    1e63:	41 5e                	pop    %r14
    1e65:	41 5f                	pop    %r15
    1e67:	c3                   	ret    
    1e68:	48 89 d8             	mov    %rbx,%rax
    1e6b:	e9 c4 fe ff ff       	jmp    1d34 <riscv_dsp_dcmfir_fast_q15+0x234>
    1e70:	8b 54 24 18          	mov    0x18(%rsp),%edx
    1e74:	48 89 f9             	mov    %rdi,%rcx
    1e77:	45 31 c9             	xor    %r9d,%r9d
    1e7a:	48 89 c7             	mov    %rax,%rdi
    1e7d:	41 89 d0             	mov    %edx,%r8d
    1e80:	e9 44 ff ff ff       	jmp    1dc9 <riscv_dsp_dcmfir_fast_q15+0x2c9>

Disassembly of section .fini:

0000000000001e88 <_fini>:
    1e88:	f3 0f 1e fa          	endbr64 
    1e8c:	48 83 ec 08          	sub    $0x8,%rsp
    1e90:	48 83 c4 08          	add    $0x8,%rsp
    1e94:	c3                   	ret    
