
t_dct_f32:     file format elf64-x86-64


Disassembly of section .init:

0000000000001000 <_init>:
    1000:	f3 0f 1e fa          	endbr64 
    1004:	48 83 ec 08          	sub    $0x8,%rsp
    1008:	48 8b 05 d9 9f 00 00 	mov    0x9fd9(%rip),%rax        # afe8 <__gmon_start__@Base>
    100f:	48 85 c0             	test   %rax,%rax
    1012:	74 02                	je     1016 <_init+0x16>
    1014:	ff d0                	call   *%rax
    1016:	48 83 c4 08          	add    $0x8,%rsp
    101a:	c3                   	ret    

Disassembly of section .plt:

0000000000001020 <.plt>:
    1020:	ff 35 5a 9f 00 00    	push   0x9f5a(%rip)        # af80 <_GLOBAL_OFFSET_TABLE_+0x8>
    1026:	f2 ff 25 5b 9f 00 00 	bnd jmp *0x9f5b(%rip)        # af88 <_GLOBAL_OFFSET_TABLE_+0x10>
    102d:	0f 1f 00             	nopl   (%rax)
    1030:	f3 0f 1e fa          	endbr64 
    1034:	68 00 00 00 00       	push   $0x0
    1039:	f2 e9 e1 ff ff ff    	bnd jmp 1020 <_init+0x20>
    103f:	90                   	nop
    1040:	f3 0f 1e fa          	endbr64 
    1044:	68 01 00 00 00       	push   $0x1
    1049:	f2 e9 d1 ff ff ff    	bnd jmp 1020 <_init+0x20>
    104f:	90                   	nop
    1050:	f3 0f 1e fa          	endbr64 
    1054:	68 02 00 00 00       	push   $0x2
    1059:	f2 e9 c1 ff ff ff    	bnd jmp 1020 <_init+0x20>
    105f:	90                   	nop
    1060:	f3 0f 1e fa          	endbr64 
    1064:	68 03 00 00 00       	push   $0x3
    1069:	f2 e9 b1 ff ff ff    	bnd jmp 1020 <_init+0x20>
    106f:	90                   	nop
    1070:	f3 0f 1e fa          	endbr64 
    1074:	68 04 00 00 00       	push   $0x4
    1079:	f2 e9 a1 ff ff ff    	bnd jmp 1020 <_init+0x20>
    107f:	90                   	nop
    1080:	f3 0f 1e fa          	endbr64 
    1084:	68 05 00 00 00       	push   $0x5
    1089:	f2 e9 91 ff ff ff    	bnd jmp 1020 <_init+0x20>
    108f:	90                   	nop
    1090:	f3 0f 1e fa          	endbr64 
    1094:	68 06 00 00 00       	push   $0x6
    1099:	f2 e9 81 ff ff ff    	bnd jmp 1020 <_init+0x20>
    109f:	90                   	nop
    10a0:	f3 0f 1e fa          	endbr64 
    10a4:	68 07 00 00 00       	push   $0x7
    10a9:	f2 e9 71 ff ff ff    	bnd jmp 1020 <_init+0x20>
    10af:	90                   	nop
    10b0:	f3 0f 1e fa          	endbr64 
    10b4:	68 08 00 00 00       	push   $0x8
    10b9:	f2 e9 61 ff ff ff    	bnd jmp 1020 <_init+0x20>
    10bf:	90                   	nop

Disassembly of section .plt.got:

00000000000010c0 <__cxa_finalize@plt>:
    10c0:	f3 0f 1e fa          	endbr64 
    10c4:	f2 ff 25 2d 9f 00 00 	bnd jmp *0x9f2d(%rip)        # aff8 <__cxa_finalize@GLIBC_2.2.5>
    10cb:	0f 1f 44 00 00       	nopl   0x0(%rax,%rax,1)

Disassembly of section .plt.sec:

00000000000010d0 <puts@plt>:
    10d0:	f3 0f 1e fa          	endbr64 
    10d4:	f2 ff 25 b5 9e 00 00 	bnd jmp *0x9eb5(%rip)        # af90 <puts@GLIBC_2.2.5>
    10db:	0f 1f 44 00 00       	nopl   0x0(%rax,%rax,1)

00000000000010e0 <fclose@plt>:
    10e0:	f3 0f 1e fa          	endbr64 
    10e4:	f2 ff 25 ad 9e 00 00 	bnd jmp *0x9ead(%rip)        # af98 <fclose@GLIBC_2.2.5>
    10eb:	0f 1f 44 00 00       	nopl   0x0(%rax,%rax,1)

00000000000010f0 <__stack_chk_fail@plt>:
    10f0:	f3 0f 1e fa          	endbr64 
    10f4:	f2 ff 25 a5 9e 00 00 	bnd jmp *0x9ea5(%rip)        # afa0 <__stack_chk_fail@GLIBC_2.4>
    10fb:	0f 1f 44 00 00       	nopl   0x0(%rax,%rax,1)

0000000000001100 <log10f@plt>:
    1100:	f3 0f 1e fa          	endbr64 
    1104:	f2 ff 25 9d 9e 00 00 	bnd jmp *0x9e9d(%rip)        # afa8 <log10f@GLIBC_2.2.5>
    110b:	0f 1f 44 00 00       	nopl   0x0(%rax,%rax,1)

0000000000001110 <memcpy@plt>:
    1110:	f3 0f 1e fa          	endbr64 
    1114:	f2 ff 25 95 9e 00 00 	bnd jmp *0x9e95(%rip)        # afb0 <memcpy@GLIBC_2.14>
    111b:	0f 1f 44 00 00       	nopl   0x0(%rax,%rax,1)

0000000000001120 <__printf_chk@plt>:
    1120:	f3 0f 1e fa          	endbr64 
    1124:	f2 ff 25 8d 9e 00 00 	bnd jmp *0x9e8d(%rip)        # afb8 <__printf_chk@GLIBC_2.3.4>
    112b:	0f 1f 44 00 00       	nopl   0x0(%rax,%rax,1)

0000000000001130 <fopen@plt>:
    1130:	f3 0f 1e fa          	endbr64 
    1134:	f2 ff 25 85 9e 00 00 	bnd jmp *0x9e85(%rip)        # afc0 <fopen@GLIBC_2.2.5>
    113b:	0f 1f 44 00 00       	nopl   0x0(%rax,%rax,1)

0000000000001140 <fwrite@plt>:
    1140:	f3 0f 1e fa          	endbr64 
    1144:	f2 ff 25 7d 9e 00 00 	bnd jmp *0x9e7d(%rip)        # afc8 <fwrite@GLIBC_2.2.5>
    114b:	0f 1f 44 00 00       	nopl   0x0(%rax,%rax,1)

0000000000001150 <sqrt@plt>:
    1150:	f3 0f 1e fa          	endbr64 
    1154:	f2 ff 25 75 9e 00 00 	bnd jmp *0x9e75(%rip)        # afd0 <sqrt@GLIBC_2.2.5>
    115b:	0f 1f 44 00 00       	nopl   0x0(%rax,%rax,1)

Disassembly of section .text:

0000000000001160 <main>:
    1160:	f3 0f 1e fa          	endbr64 
    1164:	41 57                	push   %r15
    1166:	48 8d 3d c1 2e 00 00 	lea    0x2ec1(%rip),%rdi        # 402e <_IO_stdin_used+0x2e>
    116d:	4c 8d 3d cc 9e 00 00 	lea    0x9ecc(%rip),%r15        # b040 <dct_golden>
    1174:	41 56                	push   %r14
    1176:	41 55                	push   %r13
    1178:	4c 8d 2d c1 a6 00 00 	lea    0xa6c1(%rip),%r13        # b840 <buf>
    117f:	41 54                	push   %r12
    1181:	55                   	push   %rbp
    1182:	48 8d 2d a3 2e 00 00 	lea    0x2ea3(%rip),%rbp        # 402c <_IO_stdin_used+0x2c>
    1189:	53                   	push   %rbx
    118a:	48 89 ee             	mov    %rbp,%rsi
    118d:	48 83 ec 08          	sub    $0x8,%rsp
    1191:	e8 9a ff ff ff       	call   1130 <fopen@plt>
    1196:	48 89 ee             	mov    %rbp,%rsi
    1199:	48 8d 3d a1 2e 00 00 	lea    0x2ea1(%rip),%rdi        # 4041 <_IO_stdin_used+0x41>
    11a0:	48 8d 2d 99 9e 00 00 	lea    0x9e99(%rip),%rbp        # b040 <dct_golden>
    11a7:	49 89 c6             	mov    %rax,%r14
    11aa:	e8 81 ff ff ff       	call   1130 <fopen@plt>
    11af:	b9 80 00 00 00       	mov    $0x80,%ecx
    11b4:	48 8d 3d 85 a2 00 00 	lea    0xa285(%rip),%rdi        # b440 <buf2>
    11bb:	49 89 c4             	mov    %rax,%r12
    11be:	48 8d 05 7b 43 00 00 	lea    0x437b(%rip),%rax        # 5540 <test_fft_Input_256>
    11c5:	48 89 c6             	mov    %rax,%rsi
    11c8:	f3 48 a5             	rep movsq %ds:(%rsi),%es:(%rdi)
    11cb:	48 89 c6             	mov    %rax,%rsi
    11ce:	48 8d 3d 6b a6 00 00 	lea    0xa66b(%rip),%rdi        # b840 <buf>
    11d5:	b9 80 00 00 00       	mov    $0x80,%ecx
    11da:	f3 48 a5             	rep movsq %ds:(%rsi),%es:(%rdi)
    11dd:	48 89 ef             	mov    %rbp,%rdi
    11e0:	48 8d 35 59 3f 00 00 	lea    0x3f59(%rip),%rsi        # 5140 <dct_f32_golden_256>
    11e7:	b9 80 00 00 00       	mov    $0x80,%ecx
    11ec:	f3 48 a5             	rep movsq %ds:(%rsi),%es:(%rdi)
    11ef:	be 08 00 00 00       	mov    $0x8,%esi
    11f4:	48 89 fd             	mov    %rdi,%rbp
    11f7:	4c 89 ef             	mov    %r13,%rdi
    11fa:	e8 c1 0c 00 00       	call   1ec0 <riscv_dsp_dct_f32>
    11ff:	48 8d 35 4f 2e 00 00 	lea    0x2e4f(%rip),%rsi        # 4055 <_IO_stdin_used+0x55>
    1206:	bf 01 00 00 00       	mov    $0x1,%edi
    120b:	31 c0                	xor    %eax,%eax
    120d:	e8 0e ff ff ff       	call   1120 <__printf_chk@plt>
    1212:	4c 89 ee             	mov    %r13,%rsi
    1215:	4c 89 ff             	mov    %r15,%rdi
    1218:	e8 63 04 00 00       	call   1680 <dump2_f32.constprop.0.isra.0>
    121d:	31 c9                	xor    %ecx,%ecx
    121f:	ba 00 01 00 00       	mov    $0x100,%edx
    1224:	4c 89 ee             	mov    %r13,%rsi
    1227:	4c 89 ff             	mov    %r15,%rdi
    122a:	e8 41 02 00 00       	call   1470 <dump_rmsd2.constprop.0>
    122f:	f3 0f 5a c0          	cvtss2sd %xmm0,%xmm0
    1233:	66 0f 2f 05 2d 77 00 	comisd 0x772d(%rip),%xmm0        # 8968 <test_fft_Input_f64_256+0x828>
    123a:	00 
    123b:	0f 87 20 01 00 00    	ja     1361 <main+0x201>
    1241:	4c 89 fb             	mov    %r15,%rbx
    1244:	0f 1f 40 00          	nopl   0x0(%rax)
    1248:	48 89 df             	mov    %rbx,%rdi
    124b:	4c 89 f1             	mov    %r14,%rcx
    124e:	ba 01 00 00 00       	mov    $0x1,%edx
    1253:	be 04 00 00 00       	mov    $0x4,%esi
    1258:	e8 e3 fe ff ff       	call   1140 <fwrite@plt>
    125d:	48 83 c3 04          	add    $0x4,%rbx
    1261:	48 39 eb             	cmp    %rbp,%rbx
    1264:	75 e2                	jne    1248 <main+0xe8>
    1266:	4c 89 f7             	mov    %r14,%rdi
    1269:	e8 72 fe ff ff       	call   10e0 <fclose@plt>
    126e:	be 08 00 00 00       	mov    $0x8,%esi
    1273:	4c 89 ff             	mov    %r15,%rdi
    1276:	e8 65 21 00 00       	call   33e0 <riscv_dsp_idct_f32>
    127b:	48 8d 35 e9 2d 00 00 	lea    0x2de9(%rip),%rsi        # 406b <_IO_stdin_used+0x6b>
    1282:	bf 01 00 00 00       	mov    $0x1,%edi
    1287:	31 c0                	xor    %eax,%eax
    1289:	e8 92 fe ff ff       	call   1120 <__printf_chk@plt>
    128e:	4c 89 fe             	mov    %r15,%rsi
    1291:	48 8d 3d a8 a1 00 00 	lea    0xa1a8(%rip),%rdi        # b440 <buf2>
    1298:	e8 e3 03 00 00       	call   1680 <dump2_f32.constprop.0.isra.0>
    129d:	31 c9                	xor    %ecx,%ecx
    129f:	ba 00 01 00 00       	mov    $0x100,%edx
    12a4:	4c 89 fe             	mov    %r15,%rsi
    12a7:	48 8d 3d 92 a1 00 00 	lea    0xa192(%rip),%rdi        # b440 <buf2>
    12ae:	e8 bd 01 00 00       	call   1470 <dump_rmsd2.constprop.0>
    12b3:	f3 0f 5a c0          	cvtss2sd %xmm0,%xmm0
    12b7:	66 0f 2f 05 a9 76 00 	comisd 0x76a9(%rip),%xmm0        # 8968 <test_fft_Input_f64_256+0x828>
    12be:	00 
    12bf:	0f 87 9c 00 00 00    	ja     1361 <main+0x201>
    12c5:	be 08 00 00 00       	mov    $0x8,%esi
    12ca:	4c 89 ef             	mov    %r13,%rdi
    12cd:	48 8d 1d 6c a1 00 00 	lea    0xa16c(%rip),%rbx        # b440 <buf2>
    12d4:	e8 07 21 00 00       	call   33e0 <riscv_dsp_idct_f32>
    12d9:	48 8d ab 00 04 00 00 	lea    0x400(%rbx),%rbp
    12e0:	48 89 df             	mov    %rbx,%rdi
    12e3:	4c 89 e1             	mov    %r12,%rcx
    12e6:	ba 01 00 00 00       	mov    $0x1,%edx
    12eb:	be 04 00 00 00       	mov    $0x4,%esi
    12f0:	e8 4b fe ff ff       	call   1140 <fwrite@plt>
    12f5:	48 83 c3 04          	add    $0x4,%rbx
    12f9:	48 39 dd             	cmp    %rbx,%rbp
    12fc:	75 e2                	jne    12e0 <main+0x180>
    12fe:	4c 89 e7             	mov    %r12,%rdi
    1301:	e8 da fd ff ff       	call   10e0 <fclose@plt>
    1306:	48 8d 35 f3 2d 00 00 	lea    0x2df3(%rip),%rsi        # 4100 <_IO_stdin_used+0x100>
    130d:	bf 01 00 00 00       	mov    $0x1,%edi
    1312:	31 c0                	xor    %eax,%eax
    1314:	e8 07 fe ff ff       	call   1120 <__printf_chk@plt>
    1319:	4c 89 ee             	mov    %r13,%rsi
    131c:	48 8d 3d 1d a1 00 00 	lea    0xa11d(%rip),%rdi        # b440 <buf2>
    1323:	e8 58 03 00 00       	call   1680 <dump2_f32.constprop.0.isra.0>
    1328:	31 c9                	xor    %ecx,%ecx
    132a:	ba 00 01 00 00       	mov    $0x100,%edx
    132f:	4c 89 ee             	mov    %r13,%rsi
    1332:	48 8d 3d 07 a1 00 00 	lea    0xa107(%rip),%rdi        # b440 <buf2>
    1339:	e8 32 01 00 00       	call   1470 <dump_rmsd2.constprop.0>
    133e:	f2 0f 10 0d 22 76 00 	movsd  0x7622(%rip),%xmm1        # 8968 <test_fft_Input_f64_256+0x828>
    1345:	00 
    1346:	f3 0f 5a c0          	cvtss2sd %xmm0,%xmm0
    134a:	66 0f 2f c8          	comisd %xmm0,%xmm1
    134e:	76 11                	jbe    1361 <main+0x201>
    1350:	31 c0                	xor    %eax,%eax
    1352:	48 83 c4 08          	add    $0x8,%rsp
    1356:	5b                   	pop    %rbx
    1357:	5d                   	pop    %rbp
    1358:	41 5c                	pop    %r12
    135a:	41 5d                	pop    %r13
    135c:	41 5e                	pop    %r14
    135e:	41 5f                	pop    %r15
    1360:	c3                   	ret    
    1361:	48 8d 35 78 2d 00 00 	lea    0x2d78(%rip),%rsi        # 40e0 <_IO_stdin_used+0xe0>
    1368:	bf 01 00 00 00       	mov    $0x1,%edi
    136d:	b8 01 00 00 00       	mov    $0x1,%eax
    1372:	e8 a9 fd ff ff       	call   1120 <__printf_chk@plt>
    1377:	83 c8 ff             	or     $0xffffffff,%eax
    137a:	eb d6                	jmp    1352 <main+0x1f2>
    137c:	0f 1f 40 00          	nopl   0x0(%rax)

0000000000001380 <_start>:
    1380:	f3 0f 1e fa          	endbr64 
    1384:	31 ed                	xor    %ebp,%ebp
    1386:	49 89 d1             	mov    %rdx,%r9
    1389:	5e                   	pop    %rsi
    138a:	48 89 e2             	mov    %rsp,%rdx
    138d:	48 83 e4 f0          	and    $0xfffffffffffffff0,%rsp
    1391:	50                   	push   %rax
    1392:	54                   	push   %rsp
    1393:	45 31 c0             	xor    %r8d,%r8d
    1396:	31 c9                	xor    %ecx,%ecx
    1398:	48 8d 3d c1 fd ff ff 	lea    -0x23f(%rip),%rdi        # 1160 <main>
    139f:	ff 15 33 9c 00 00    	call   *0x9c33(%rip)        # afd8 <__libc_start_main@GLIBC_2.34>
    13a5:	f4                   	hlt    
    13a6:	66 2e 0f 1f 84 00 00 	cs nopw 0x0(%rax,%rax,1)
    13ad:	00 00 00 

00000000000013b0 <deregister_tm_clones>:
    13b0:	48 8d 3d 59 9c 00 00 	lea    0x9c59(%rip),%rdi        # b010 <__TMC_END__>
    13b7:	48 8d 05 52 9c 00 00 	lea    0x9c52(%rip),%rax        # b010 <__TMC_END__>
    13be:	48 39 f8             	cmp    %rdi,%rax
    13c1:	74 15                	je     13d8 <deregister_tm_clones+0x28>
    13c3:	48 8b 05 16 9c 00 00 	mov    0x9c16(%rip),%rax        # afe0 <_ITM_deregisterTMCloneTable@Base>
    13ca:	48 85 c0             	test   %rax,%rax
    13cd:	74 09                	je     13d8 <deregister_tm_clones+0x28>
    13cf:	ff e0                	jmp    *%rax
    13d1:	0f 1f 80 00 00 00 00 	nopl   0x0(%rax)
    13d8:	c3                   	ret    
    13d9:	0f 1f 80 00 00 00 00 	nopl   0x0(%rax)

00000000000013e0 <register_tm_clones>:
    13e0:	48 8d 3d 29 9c 00 00 	lea    0x9c29(%rip),%rdi        # b010 <__TMC_END__>
    13e7:	48 8d 35 22 9c 00 00 	lea    0x9c22(%rip),%rsi        # b010 <__TMC_END__>
    13ee:	48 29 fe             	sub    %rdi,%rsi
    13f1:	48 89 f0             	mov    %rsi,%rax
    13f4:	48 c1 ee 3f          	shr    $0x3f,%rsi
    13f8:	48 c1 f8 03          	sar    $0x3,%rax
    13fc:	48 01 c6             	add    %rax,%rsi
    13ff:	48 d1 fe             	sar    %rsi
    1402:	74 14                	je     1418 <register_tm_clones+0x38>
    1404:	48 8b 05 e5 9b 00 00 	mov    0x9be5(%rip),%rax        # aff0 <_ITM_registerTMCloneTable@Base>
    140b:	48 85 c0             	test   %rax,%rax
    140e:	74 08                	je     1418 <register_tm_clones+0x38>
    1410:	ff e0                	jmp    *%rax
    1412:	66 0f 1f 44 00 00    	nopw   0x0(%rax,%rax,1)
    1418:	c3                   	ret    
    1419:	0f 1f 80 00 00 00 00 	nopl   0x0(%rax)

0000000000001420 <__do_global_dtors_aux>:
    1420:	f3 0f 1e fa          	endbr64 
    1424:	80 3d f5 9b 00 00 00 	cmpb   $0x0,0x9bf5(%rip)        # b020 <completed.0>
    142b:	75 2b                	jne    1458 <__do_global_dtors_aux+0x38>
    142d:	55                   	push   %rbp
    142e:	48 83 3d c2 9b 00 00 	cmpq   $0x0,0x9bc2(%rip)        # aff8 <__cxa_finalize@GLIBC_2.2.5>
    1435:	00 
    1436:	48 89 e5             	mov    %rsp,%rbp
    1439:	74 0c                	je     1447 <__do_global_dtors_aux+0x27>
    143b:	48 8b 3d c6 9b 00 00 	mov    0x9bc6(%rip),%rdi        # b008 <__dso_handle>
    1442:	e8 79 fc ff ff       	call   10c0 <__cxa_finalize@plt>
    1447:	e8 64 ff ff ff       	call   13b0 <deregister_tm_clones>
    144c:	c6 05 cd 9b 00 00 01 	movb   $0x1,0x9bcd(%rip)        # b020 <completed.0>
    1453:	5d                   	pop    %rbp
    1454:	c3                   	ret    
    1455:	0f 1f 00             	nopl   (%rax)
    1458:	c3                   	ret    
    1459:	0f 1f 80 00 00 00 00 	nopl   0x0(%rax)

0000000000001460 <frame_dummy>:
    1460:	f3 0f 1e fa          	endbr64 
    1464:	e9 77 ff ff ff       	jmp    13e0 <register_tm_clones>
    1469:	0f 1f 80 00 00 00 00 	nopl   0x0(%rax)

0000000000001470 <dump_rmsd2.constprop.0>:
    1470:	66 0f ef db          	pxor   %xmm3,%xmm3
    1474:	66 0f ef ff          	pxor   %xmm7,%xmm7
    1478:	31 c0                	xor    %eax,%eax
    147a:	66 0f 28 ef          	movapd %xmm7,%xmm5
    147e:	0f 28 c3             	movaps %xmm3,%xmm0
    1481:	44 0f 28 c3          	movaps %xmm3,%xmm8
    1485:	f3 44 0f 10 0d c2 74 	movss  0x74c2(%rip),%xmm9        # 8950 <test_fft_Input_f64_256+0x810>
    148c:	00 00 
    148e:	0f 28 f3             	movaps %xmm3,%xmm6
    1491:	0f 1f 80 00 00 00 00 	nopl   0x0(%rax)
    1498:	f3 0f 10 0c 06       	movss  (%rsi,%rax,1),%xmm1
    149d:	f3 0f 10 14 07       	movss  (%rdi,%rax,1),%xmm2
    14a2:	66 0f 7e ca          	movd   %xmm1,%edx
    14a6:	81 fa 00 00 c0 7f    	cmp    $0x7fc00000,%edx
    14ac:	0f 84 74 01 00 00    	je     1626 <dump_rmsd2.constprop.0+0x1b6>
    14b2:	0f 28 e2             	movaps %xmm2,%xmm4
    14b5:	f3 0f 5c ca          	subss  %xmm2,%xmm1
    14b9:	48 83 c0 04          	add    $0x4,%rax
    14bd:	f3 0f 5f e6          	maxss  %xmm6,%xmm4
    14c1:	0f 28 f4             	movaps %xmm4,%xmm6
    14c4:	0f 28 e2             	movaps %xmm2,%xmm4
    14c7:	f3 41 0f 5d e0       	minss  %xmm8,%xmm4
    14cc:	f3 0f 59 d2          	mulss  %xmm2,%xmm2
    14d0:	44 0f 28 c4          	movaps %xmm4,%xmm8
    14d4:	0f 28 e1             	movaps %xmm1,%xmm4
    14d7:	f3 0f 59 c9          	mulss  %xmm1,%xmm1
    14db:	41 0f 54 e1          	andps  %xmm9,%xmm4
    14df:	f3 0f 58 c4          	addss  %xmm4,%xmm0
    14e3:	f3 0f 5f e3          	maxss  %xmm3,%xmm4
    14e7:	f3 0f 5a d2          	cvtss2sd %xmm2,%xmm2
    14eb:	f2 0f 58 fa          	addsd  %xmm2,%xmm7
    14ef:	0f 28 dc             	movaps %xmm4,%xmm3
    14f2:	f3 0f 5a c9          	cvtss2sd %xmm1,%xmm1
    14f6:	f2 0f 58 e9          	addsd  %xmm1,%xmm5
    14fa:	48 3d 00 04 00 00    	cmp    $0x400,%rax
    1500:	75 96                	jne    1498 <dump_rmsd2.constprop.0+0x28>
    1502:	53                   	push   %rbx
    1503:	66 48 0f 7e e8       	movq   %xmm5,%rax
    1508:	48 83 ec 20          	sub    $0x20,%rsp
    150c:	f3 0f 11 64 24 14    	movss  %xmm4,0x14(%rsp)
    1512:	f3 44 0f 11 44 24 10 	movss  %xmm8,0x10(%rsp)
    1519:	f3 0f 11 74 24 0c    	movss  %xmm6,0xc(%rsp)
    151f:	f2 0f 11 3c 24       	movsd  %xmm7,(%rsp)
    1524:	3d 00 00 c0 7f       	cmp    $0x7fc00000,%eax
    1529:	0f 84 03 01 00 00    	je     1632 <dump_rmsd2.constprop.0+0x1c2>
    152f:	f3 0f 59 05 0d 74 00 	mulss  0x740d(%rip),%xmm0        # 8944 <test_fft_Input_f64_256+0x804>
    1536:	00 
    1537:	f2 0f 11 6c 24 18    	movsd  %xmm5,0x18(%rsp)
    153d:	66 0f 7e c3          	movd   %xmm0,%ebx
    1541:	66 0f 28 c5          	movapd %xmm5,%xmm0
    1545:	f2 0f 59 05 13 74 00 	mulsd  0x7413(%rip),%xmm0        # 8960 <test_fft_Input_f64_256+0x820>
    154c:	00 
    154d:	e8 fe fb ff ff       	call   1150 <sqrt@plt>
    1552:	f3 0f 10 74 24 0c    	movss  0xc(%rsp),%xmm6
    1558:	f3 44 0f 10 44 24 10 	movss  0x10(%rsp),%xmm8
    155f:	66 0f ef c9          	pxor   %xmm1,%xmm1
    1563:	f2 0f 10 6c 24 18    	movsd  0x18(%rsp),%xmm5
    1569:	66 0f ef ff          	pxor   %xmm7,%xmm7
    156d:	f2 0f 5a c8          	cvtsd2ss %xmm0,%xmm1
    1571:	f3 0f 10 5c 24 14    	movss  0x14(%rsp),%xmm3
    1577:	0f 28 c6             	movaps %xmm6,%xmm0
    157a:	0f 28 f1             	movaps %xmm1,%xmm6
    157d:	f3 41 0f 5c c0       	subss  %xmm8,%xmm0
    1582:	66 0f 2e ef          	ucomisd %xmm7,%xmm5
    1586:	f2 0f 10 3c 24       	movsd  (%rsp),%xmm7
    158b:	f3 0f 5e f0          	divss  %xmm0,%xmm6
    158f:	0f 8a a7 00 00 00    	jp     163c <dump_rmsd2.constprop.0+0x1cc>
    1595:	f3 0f 10 25 a3 73 00 	movss  0x73a3(%rip),%xmm4        # 8940 <test_fft_Input_f64_256+0x800>
    159c:	00 
    159d:	0f 85 99 00 00 00    	jne    163c <dump_rmsd2.constprop.0+0x1cc>
    15a3:	48 8d 3d 5a 2a 00 00 	lea    0x2a5a(%rip),%rdi        # 4004 <_IO_stdin_used+0x4>
    15aa:	f3 0f 11 74 24 14    	movss  %xmm6,0x14(%rsp)
    15b0:	f3 0f 11 5c 24 10    	movss  %xmm3,0x10(%rsp)
    15b6:	f3 0f 11 24 24       	movss  %xmm4,(%rsp)
    15bb:	f3 0f 11 4c 24 0c    	movss  %xmm1,0xc(%rsp)
    15c1:	e8 0a fb ff ff       	call   10d0 <puts@plt>
    15c6:	f3 0f 10 74 24 14    	movss  0x14(%rsp),%xmm6
    15cc:	f3 0f 10 24 24       	movss  (%rsp),%xmm4
    15d1:	66 0f 6e fb          	movd   %ebx,%xmm7
    15d5:	f3 0f 10 5c 24 10    	movss  0x10(%rsp),%xmm3
    15db:	f3 0f 10 4c 24 0c    	movss  0xc(%rsp),%xmm1
    15e1:	66 0f ef c0          	pxor   %xmm0,%xmm0
    15e5:	66 0f ef d2          	pxor   %xmm2,%xmm2
    15e9:	48 8d 35 98 2a 00 00 	lea    0x2a98(%rip),%rsi        # 4088 <_IO_stdin_used+0x88>
    15f0:	bf 01 00 00 00       	mov    $0x1,%edi
    15f5:	b8 05 00 00 00       	mov    $0x5,%eax
    15fa:	f3 0f 11 34 24       	movss  %xmm6,(%rsp)
    15ff:	f3 0f 5a d6          	cvtss2sd %xmm6,%xmm2
    1603:	f3 0f 5a c7          	cvtss2sd %xmm7,%xmm0
    1607:	f3 0f 5a e4          	cvtss2sd %xmm4,%xmm4
    160b:	f3 0f 5a db          	cvtss2sd %xmm3,%xmm3
    160f:	f3 0f 5a c9          	cvtss2sd %xmm1,%xmm1
    1613:	e8 08 fb ff ff       	call   1120 <__printf_chk@plt>
    1618:	f3 0f 10 34 24       	movss  (%rsp),%xmm6
    161d:	48 83 c4 20          	add    $0x20,%rsp
    1621:	0f 28 c6             	movaps %xmm6,%xmm0
    1624:	5b                   	pop    %rbx
    1625:	c3                   	ret    
    1626:	f3 0f 10 35 12 73 00 	movss  0x7312(%rip),%xmm6        # 8940 <test_fft_Input_f64_256+0x800>
    162d:	00 
    162e:	0f 28 c6             	movaps %xmm6,%xmm0
    1631:	c3                   	ret    
    1632:	f3 0f 10 35 06 73 00 	movss  0x7306(%rip),%xmm6        # 8940 <test_fft_Input_f64_256+0x800>
    1639:	00 
    163a:	eb e1                	jmp    161d <dump_rmsd2.constprop.0+0x1ad>
    163c:	f2 0f 5e fd          	divsd  %xmm5,%xmm7
    1640:	66 0f ef c0          	pxor   %xmm0,%xmm0
    1644:	f3 0f 11 0c 24       	movss  %xmm1,(%rsp)
    1649:	f3 0f 11 74 24 10    	movss  %xmm6,0x10(%rsp)
    164f:	f3 0f 11 5c 24 0c    	movss  %xmm3,0xc(%rsp)
    1655:	f2 0f 5a c7          	cvtsd2ss %xmm7,%xmm0
    1659:	e8 a2 fa ff ff       	call   1100 <log10f@plt>
    165e:	f3 0f 10 74 24 10    	movss  0x10(%rsp),%xmm6
    1664:	f3 0f 59 05 dc 72 00 	mulss  0x72dc(%rip),%xmm0        # 8948 <test_fft_Input_f64_256+0x808>
    166b:	00 
    166c:	f3 0f 10 5c 24 0c    	movss  0xc(%rsp),%xmm3
    1672:	f3 0f 10 0c 24       	movss  (%rsp),%xmm1
    1677:	0f 28 e0             	movaps %xmm0,%xmm4
    167a:	e9 24 ff ff ff       	jmp    15a3 <dump_rmsd2.constprop.0+0x133>
    167f:	90                   	nop

0000000000001680 <dump2_f32.constprop.0.isra.0>:
    1680:	31 c0                	xor    %eax,%eax
    1682:	66 0f ef c0          	pxor   %xmm0,%xmm0
    1686:	f3 0f 10 15 c2 72 00 	movss  0x72c2(%rip),%xmm2        # 8950 <test_fft_Input_f64_256+0x810>
    168d:	00 
    168e:	66 90                	xchg   %ax,%ax
    1690:	f3 0f 10 0c 06       	movss  (%rsi,%rax,1),%xmm1
    1695:	f3 0f 5c 0c 07       	subss  (%rdi,%rax,1),%xmm1
    169a:	48 83 c0 04          	add    $0x4,%rax
    169e:	0f 54 ca             	andps  %xmm2,%xmm1
    16a1:	f3 0f 5f c8          	maxss  %xmm0,%xmm1
    16a5:	0f 28 c1             	movaps %xmm1,%xmm0
    16a8:	48 3d 00 04 00 00    	cmp    $0x400,%rax
    16ae:	75 e0                	jne    1690 <dump2_f32.constprop.0.isra.0+0x10>
    16b0:	66 0f ef c0          	pxor   %xmm0,%xmm0
    16b4:	bf 01 00 00 00       	mov    $0x1,%edi
    16b9:	b8 01 00 00 00       	mov    $0x1,%eax
    16be:	48 8d 35 54 29 00 00 	lea    0x2954(%rip),%rsi        # 4019 <_IO_stdin_used+0x19>
    16c5:	f3 0f 5a c1          	cvtss2sd %xmm1,%xmm0
    16c9:	e9 52 fa ff ff       	jmp    1120 <__printf_chk@plt>
    16ce:	66 90                	xchg   %ax,%ax

00000000000016d0 <riscv_dsp_dct_swap_f32>:
    16d0:	55                   	push   %rbp
    16d1:	48 89 f9             	mov    %rdi,%rcx
    16d4:	89 d7                	mov    %edx,%edi
    16d6:	89 f2                	mov    %esi,%edx
    16d8:	d1 ea                	shr    %edx
    16da:	48 89 e5             	mov    %rsp,%rbp
    16dd:	48 83 ec 10          	sub    $0x10,%rsp
    16e1:	64 48 8b 04 25 28 00 	mov    %fs:0x28,%rax
    16e8:	00 00 
    16ea:	48 89 45 f8          	mov    %rax,-0x8(%rbp)
    16ee:	31 c0                	xor    %eax,%eax
    16f0:	89 d0                	mov    %edx,%eax
    16f2:	49 89 e0             	mov    %rsp,%r8
    16f5:	48 8d 04 85 0f 00 00 	lea    0xf(,%rax,4),%rax
    16fc:	00 
    16fd:	48 c1 e8 04          	shr    $0x4,%rax
    1701:	48 c1 e0 04          	shl    $0x4,%rax
    1705:	49 89 c1             	mov    %rax,%r9
    1708:	49 81 e1 00 f0 ff ff 	and    $0xfffffffffffff000,%r9
    170f:	4d 29 c8             	sub    %r9,%r8
    1712:	4c 39 c4             	cmp    %r8,%rsp
    1715:	74 15                	je     172c <riscv_dsp_dct_swap_f32+0x5c>
    1717:	48 81 ec 00 10 00 00 	sub    $0x1000,%rsp
    171e:	48 83 8c 24 f8 0f 00 	orq    $0x0,0xff8(%rsp)
    1725:	00 00 
    1727:	4c 39 c4             	cmp    %r8,%rsp
    172a:	75 eb                	jne    1717 <riscv_dsp_dct_swap_f32+0x47>
    172c:	25 ff 0f 00 00       	and    $0xfff,%eax
    1731:	48 29 c4             	sub    %rax,%rsp
    1734:	48 85 c0             	test   %rax,%rax
    1737:	0f 85 c3 00 00 00    	jne    1800 <riscv_dsp_dct_swap_f32+0x130>
    173d:	0f af d7             	imul   %edi,%edx
    1740:	0f af f7             	imul   %edi,%esi
    1743:	4c 8d 0c 91          	lea    (%rcx,%rdx,4),%r9
    1747:	48 89 e2             	mov    %rsp,%rdx
    174a:	4c 8d 14 b1          	lea    (%rcx,%rsi,4),%r10
    174e:	4d 39 d1             	cmp    %r10,%r9
    1751:	0f 84 b4 00 00 00    	je     180b <riscv_dsp_dct_swap_f32+0x13b>
    1757:	41 89 f8             	mov    %edi,%r8d
    175a:	48 89 d6             	mov    %rdx,%rsi
    175d:	4c 89 d0             	mov    %r10,%rax
    1760:	49 c1 e0 02          	shl    $0x2,%r8
    1764:	49 f7 d8             	neg    %r8
    1767:	66 0f 1f 84 00 00 00 	nopw   0x0(%rax,%rax,1)
    176e:	00 00 
    1770:	4c 01 c0             	add    %r8,%rax
    1773:	48 83 c6 04          	add    $0x4,%rsi
    1777:	f3 0f 10 00          	movss  (%rax),%xmm0
    177b:	f3 0f 11 46 fc       	movss  %xmm0,-0x4(%rsi)
    1780:	49 39 c1             	cmp    %rax,%r9
    1783:	75 eb                	jne    1770 <riscv_dsp_dct_swap_f32+0xa0>
    1785:	48 39 c1             	cmp    %rax,%rcx
    1788:	74 31                	je     17bb <riscv_dsp_dct_swap_f32+0xeb>
    178a:	41 89 f9             	mov    %edi,%r9d
    178d:	44 8d 04 3f          	lea    (%rdi,%rdi,1),%r8d
    1791:	4c 89 d6             	mov    %r10,%rsi
    1794:	49 c1 e1 02          	shl    $0x2,%r9
    1798:	49 c1 e0 02          	shl    $0x2,%r8
    179c:	49 f7 d9             	neg    %r9
    179f:	49 f7 d8             	neg    %r8
    17a2:	66 0f 1f 44 00 00    	nopw   0x0(%rax,%rax,1)
    17a8:	4c 01 c8             	add    %r9,%rax
    17ab:	4c 01 c6             	add    %r8,%rsi
    17ae:	f3 0f 10 00          	movss  (%rax),%xmm0
    17b2:	f3 0f 11 06          	movss  %xmm0,(%rsi)
    17b6:	48 39 c1             	cmp    %rax,%rcx
    17b9:	75 ed                	jne    17a8 <riscv_dsp_dct_swap_f32+0xd8>
    17bb:	4c 39 d1             	cmp    %r10,%rcx
    17be:	74 25                	je     17e5 <riscv_dsp_dct_swap_f32+0x115>
    17c0:	89 f8                	mov    %edi,%eax
    17c2:	48 8d 34 85 00 00 00 	lea    0x0(,%rax,4),%rsi
    17c9:	00 
    17ca:	48 c1 e0 03          	shl    $0x3,%rax
    17ce:	66 90                	xchg   %ax,%ax
    17d0:	f3 0f 10 02          	movss  (%rdx),%xmm0
    17d4:	48 83 c2 04          	add    $0x4,%rdx
    17d8:	f3 0f 11 04 31       	movss  %xmm0,(%rcx,%rsi,1)
    17dd:	48 01 c1             	add    %rax,%rcx
    17e0:	49 39 ca             	cmp    %rcx,%r10
    17e3:	75 eb                	jne    17d0 <riscv_dsp_dct_swap_f32+0x100>
    17e5:	48 8b 45 f8          	mov    -0x8(%rbp),%rax
    17e9:	64 48 2b 04 25 28 00 	sub    %fs:0x28,%rax
    17f0:	00 00 
    17f2:	75 1f                	jne    1813 <riscv_dsp_dct_swap_f32+0x143>
    17f4:	c9                   	leave  
    17f5:	c3                   	ret    
    17f6:	66 2e 0f 1f 84 00 00 	cs nopw 0x0(%rax,%rax,1)
    17fd:	00 00 00 
    1800:	48 83 4c 04 f8 00    	orq    $0x0,-0x8(%rsp,%rax,1)
    1806:	e9 32 ff ff ff       	jmp    173d <riscv_dsp_dct_swap_f32+0x6d>
    180b:	4c 89 d0             	mov    %r10,%rax
    180e:	e9 72 ff ff ff       	jmp    1785 <riscv_dsp_dct_swap_f32+0xb5>
    1813:	e8 d8 f8 ff ff       	call   10f0 <__stack_chk_fail@plt>
    1818:	0f 1f 84 00 00 00 00 	nopl   0x0(%rax,%rax,1)
    181f:	00 

0000000000001820 <riscv_dsp_idct_o_f32>:
    1820:	55                   	push   %rbp
    1821:	41 89 d2             	mov    %edx,%r10d
    1824:	43 8d 14 12          	lea    (%r10,%r10,1),%edx
    1828:	48 89 e5             	mov    %rsp,%rbp
    182b:	41 57                	push   %r15
    182d:	4e 8d 3c 95 00 00 00 	lea    0x0(,%r10,4),%r15
    1834:	00 
    1835:	41 56                	push   %r14
    1837:	41 55                	push   %r13
    1839:	41 54                	push   %r12
    183b:	4e 8d 24 3f          	lea    (%rdi,%r15,1),%r12
    183f:	53                   	push   %rbx
    1840:	48 89 fb             	mov    %rdi,%rbx
    1843:	48 83 ec 48          	sub    $0x48,%rsp
    1847:	64 48 8b 04 25 28 00 	mov    %fs:0x28,%rax
    184e:	00 00 
    1850:	48 89 45 c8          	mov    %rax,-0x38(%rbp)
    1854:	31 c0                	xor    %eax,%eax
    1856:	4c 89 55 b8          	mov    %r10,-0x48(%rbp)
    185a:	83 fe 02             	cmp    $0x2,%esi
    185d:	0f 85 ad 00 00 00    	jne    1910 <riscv_dsp_idct_o_f32+0xf0>
    1863:	89 d0                	mov    %edx,%eax
    1865:	f3 0f 10 0d 03 71 00 	movss  0x7103(%rip),%xmm1        # 8970 <test_fft_Input_f64_256+0x830>
    186c:	00 
    186d:	f3 0f 10 07          	movss  (%rdi),%xmm0
    1871:	48 8d 0c 87          	lea    (%rdi,%rax,4),%rcx
    1875:	41 8d 04 12          	lea    (%r10,%rdx,1),%eax
    1879:	f3 0f 10 35 f3 70 00 	movss  0x70f3(%rip),%xmm6        # 8974 <test_fft_Input_f64_256+0x834>
    1880:	00 
    1881:	f3 0f 10 2d ef 70 00 	movss  0x70ef(%rip),%xmm5        # 8978 <test_fft_Input_f64_256+0x838>
    1888:	00 
    1889:	f3 0f 59 09          	mulss  (%rcx),%xmm1
    188d:	0f 28 d0             	movaps %xmm0,%xmm2
    1890:	48 8d 04 87          	lea    (%rdi,%rax,4),%rax
    1894:	f3 0f 10 20          	movss  (%rax),%xmm4
    1898:	0f 28 fc             	movaps %xmm4,%xmm7
    189b:	f3 0f 59 e6          	mulss  %xmm6,%xmm4
    189f:	f3 0f 5c d1          	subss  %xmm1,%xmm2
    18a3:	f3 0f 58 c1          	addss  %xmm1,%xmm0
    18a7:	f3 41 0f 10 0c 24    	movss  (%r12),%xmm1
    18ad:	f3 0f 59 fd          	mulss  %xmm5,%xmm7
    18b1:	0f 28 d9             	movaps %xmm1,%xmm3
    18b4:	f3 0f 59 cd          	mulss  %xmm5,%xmm1
    18b8:	f3 0f 59 de          	mulss  %xmm6,%xmm3
    18bc:	f3 0f 58 cc          	addss  %xmm4,%xmm1
    18c0:	0f 28 e0             	movaps %xmm0,%xmm4
    18c3:	f3 0f 5c df          	subss  %xmm7,%xmm3
    18c7:	f3 0f 58 e1          	addss  %xmm1,%xmm4
    18cb:	f3 0f 5c c1          	subss  %xmm1,%xmm0
    18cf:	f3 0f 11 27          	movss  %xmm4,(%rdi)
    18d3:	0f 28 e2             	movaps %xmm2,%xmm4
    18d6:	f3 0f 5c d3          	subss  %xmm3,%xmm2
    18da:	f3 0f 58 e3          	addss  %xmm3,%xmm4
    18de:	f3 41 0f 11 24 24    	movss  %xmm4,(%r12)
    18e4:	f3 0f 11 11          	movss  %xmm2,(%rcx)
    18e8:	f3 0f 11 00          	movss  %xmm0,(%rax)
    18ec:	48 8b 45 c8          	mov    -0x38(%rbp),%rax
    18f0:	64 48 2b 04 25 28 00 	sub    %fs:0x28,%rax
    18f7:	00 00 
    18f9:	0f 85 a7 02 00 00    	jne    1ba6 <riscv_dsp_idct_o_f32+0x386>
    18ff:	48 8d 65 d8          	lea    -0x28(%rbp),%rsp
    1903:	5b                   	pop    %rbx
    1904:	41 5c                	pop    %r12
    1906:	41 5d                	pop    %r13
    1908:	41 5e                	pop    %r14
    190a:	41 5f                	pop    %r15
    190c:	5d                   	pop    %rbp
    190d:	c3                   	ret    
    190e:	66 90                	xchg   %ax,%ax
    1910:	41 bd 01 00 00 00    	mov    $0x1,%r13d
    1916:	89 f1                	mov    %esi,%ecx
    1918:	41 89 f3             	mov    %esi,%r11d
    191b:	44 89 55 9c          	mov    %r10d,-0x64(%rbp)
    191f:	45 89 ee             	mov    %r13d,%r14d
    1922:	44 89 5d a8          	mov    %r11d,-0x58(%rbp)
    1926:	41 d3 e6             	shl    %cl,%r14d
    1929:	b9 09 00 00 00       	mov    $0x9,%ecx
    192e:	89 55 ac             	mov    %edx,-0x54(%rbp)
    1931:	29 f1                	sub    %esi,%ecx
    1933:	8d 76 ff             	lea    -0x1(%rsi),%esi
    1936:	41 d3 e5             	shl    %cl,%r13d
    1939:	48 8d 0d c0 72 00 00 	lea    0x72c0(%rip),%rcx        # 8c00 <riscv_dsp_cos_recip_table_f32_1024>
    1940:	89 75 b0             	mov    %esi,-0x50(%rbp)
    1943:	44 89 e8             	mov    %r13d,%eax
    1946:	d1 e8                	shr    %eax
    1948:	4c 8d 04 81          	lea    (%rcx,%rax,4),%r8
    194c:	4c 89 45 a0          	mov    %r8,-0x60(%rbp)
    1950:	e8 cb fe ff ff       	call   1820 <riscv_dsp_idct_o_f32>
    1955:	44 8b 4d 9c          	mov    -0x64(%rbp),%r9d
    1959:	41 8d 46 ff          	lea    -0x1(%r14),%eax
    195d:	8b 75 b0             	mov    -0x50(%rbp),%esi
    1960:	8b 55 ac             	mov    -0x54(%rbp),%edx
    1963:	44 8b 5d a8          	mov    -0x58(%rbp),%r11d
    1967:	41 0f af c1          	imul   %r9d,%eax
    196b:	4c 8b 45 a0          	mov    -0x60(%rbp),%r8
    196f:	4c 8b 55 b8          	mov    -0x48(%rbp),%r10
    1973:	48 8d 04 83          	lea    (%rbx,%rax,4),%rax
    1977:	4c 39 e0             	cmp    %r12,%rax
    197a:	74 29                	je     19a5 <riscv_dsp_idct_o_f32+0x185>
    197c:	89 d1                	mov    %edx,%ecx
    197e:	48 c1 e1 02          	shl    $0x2,%rcx
    1982:	48 89 cf             	mov    %rcx,%rdi
    1985:	48 f7 df             	neg    %rdi
    1988:	0f 1f 84 00 00 00 00 	nopl   0x0(%rax,%rax,1)
    198f:	00 
    1990:	f3 0f 10 00          	movss  (%rax),%xmm0
    1994:	f3 0f 58 04 38       	addss  (%rax,%rdi,1),%xmm0
    1999:	f3 0f 11 00          	movss  %xmm0,(%rax)
    199d:	48 29 c8             	sub    %rcx,%rax
    19a0:	49 39 c4             	cmp    %rax,%r12
    19a3:	75 eb                	jne    1990 <riscv_dsp_idct_o_f32+0x170>
    19a5:	4c 89 e7             	mov    %r12,%rdi
    19a8:	41 d1 ee             	shr    %r14d
    19ab:	44 89 4d a8          	mov    %r9d,-0x58(%rbp)
    19af:	44 89 5d ac          	mov    %r11d,-0x54(%rbp)
    19b3:	4c 89 55 b0          	mov    %r10,-0x50(%rbp)
    19b7:	4c 89 45 b8          	mov    %r8,-0x48(%rbp)
    19bb:	e8 60 fe ff ff       	call   1820 <riscv_dsp_idct_o_f32>
    19c0:	44 89 f0             	mov    %r14d,%eax
    19c3:	48 89 e2             	mov    %rsp,%rdx
    19c6:	44 8b 4d a8          	mov    -0x58(%rbp),%r9d
    19ca:	48 8d 04 85 0f 00 00 	lea    0xf(,%rax,4),%rax
    19d1:	00 
    19d2:	44 8b 5d ac          	mov    -0x54(%rbp),%r11d
    19d6:	4c 8b 55 b0          	mov    -0x50(%rbp),%r10
    19da:	48 89 e6             	mov    %rsp,%rsi
    19dd:	48 c1 e8 04          	shr    $0x4,%rax
    19e1:	4c 8b 45 b8          	mov    -0x48(%rbp),%r8
    19e5:	48 c1 e0 04          	shl    $0x4,%rax
    19e9:	48 89 c1             	mov    %rax,%rcx
    19ec:	48 81 e1 00 f0 ff ff 	and    $0xfffffffffffff000,%rcx
    19f3:	48 29 ca             	sub    %rcx,%rdx
    19f6:	48 39 d4             	cmp    %rdx,%rsp
    19f9:	74 15                	je     1a10 <riscv_dsp_idct_o_f32+0x1f0>
    19fb:	48 81 ec 00 10 00 00 	sub    $0x1000,%rsp
    1a02:	48 83 8c 24 f8 0f 00 	orq    $0x0,0xff8(%rsp)
    1a09:	00 00 
    1a0b:	48 39 d4             	cmp    %rdx,%rsp
    1a0e:	75 eb                	jne    19fb <riscv_dsp_idct_o_f32+0x1db>
    1a10:	25 ff 0f 00 00       	and    $0xfff,%eax
    1a15:	48 29 c4             	sub    %rax,%rsp
    1a18:	48 85 c0             	test   %rax,%rax
    1a1b:	74 06                	je     1a23 <riscv_dsp_idct_o_f32+0x203>
    1a1d:	48 83 4c 04 f8 00    	orq    $0x0,-0x8(%rsp,%rax,1)
    1a23:	45 0f af f1          	imul   %r9d,%r14d
    1a27:	44 89 c8             	mov    %r9d,%eax
    1a2a:	44 89 d9             	mov    %r11d,%ecx
    1a2d:	48 89 e7             	mov    %rsp,%rdi
    1a30:	d3 e0                	shl    %cl,%eax
    1a32:	48 8d 04 83          	lea    (%rbx,%rax,4),%rax
    1a36:	4a 8d 14 b3          	lea    (%rbx,%r14,4),%rdx
    1a3a:	48 39 c3             	cmp    %rax,%rbx
    1a3d:	74 31                	je     1a70 <riscv_dsp_idct_o_f32+0x250>
    1a3f:	4d 89 fe             	mov    %r15,%r14
    1a42:	49 f7 da             	neg    %r10
    1a45:	49 89 fb             	mov    %rdi,%r11
    1a48:	48 89 c1             	mov    %rax,%rcx
    1a4b:	49 f7 de             	neg    %r14
    1a4e:	49 c1 e2 03          	shl    $0x3,%r10
    1a52:	66 0f 1f 44 00 00    	nopw   0x0(%rax,%rax,1)
    1a58:	f3 42 0f 10 04 31    	movss  (%rcx,%r14,1),%xmm0
    1a5e:	4c 01 d1             	add    %r10,%rcx
    1a61:	49 83 c3 04          	add    $0x4,%r11
    1a65:	f3 41 0f 11 43 fc    	movss  %xmm0,-0x4(%r11)
    1a6b:	48 39 d9             	cmp    %rbx,%rcx
    1a6e:	75 e8                	jne    1a58 <riscv_dsp_idct_o_f32+0x238>
    1a70:	49 89 da             	mov    %rbx,%r10
    1a73:	4c 89 e1             	mov    %r12,%rcx
    1a76:	4c 39 e2             	cmp    %r12,%rdx
    1a79:	74 29                	je     1aa4 <riscv_dsp_idct_o_f32+0x284>
    1a7b:	47 8d 1c 09          	lea    (%r9,%r9,1),%r11d
    1a7f:	49 c1 e3 02          	shl    $0x2,%r11
    1a83:	41 83 f9 01          	cmp    $0x1,%r9d
    1a87:	0f 85 a3 00 00 00    	jne    1b30 <riscv_dsp_idct_o_f32+0x310>
    1a8d:	0f 1f 00             	nopl   (%rax)
    1a90:	4d 01 da             	add    %r11,%r10
    1a93:	f3 41 0f 10 02       	movss  (%r10),%xmm0
    1a98:	f3 0f 11 01          	movss  %xmm0,(%rcx)
    1a9c:	4c 01 f9             	add    %r15,%rcx
    1a9f:	48 39 d1             	cmp    %rdx,%rcx
    1aa2:	75 ec                	jne    1a90 <riscv_dsp_idct_o_f32+0x270>
    1aa4:	48 39 c2             	cmp    %rax,%rdx
    1aa7:	74 23                	je     1acc <riscv_dsp_idct_o_f32+0x2ac>
    1aa9:	41 83 f9 01          	cmp    $0x1,%r9d
    1aad:	0f 85 9d 00 00 00    	jne    1b50 <riscv_dsp_idct_o_f32+0x330>
    1ab3:	0f 1f 44 00 00       	nopl   0x0(%rax,%rax,1)
    1ab8:	f3 0f 10 07          	movss  (%rdi),%xmm0
    1abc:	48 83 c7 04          	add    $0x4,%rdi
    1ac0:	f3 0f 11 02          	movss  %xmm0,(%rdx)
    1ac4:	4c 01 fa             	add    %r15,%rdx
    1ac7:	48 39 d0             	cmp    %rdx,%rax
    1aca:	75 ec                	jne    1ab8 <riscv_dsp_idct_o_f32+0x298>
    1acc:	48 89 f4             	mov    %rsi,%rsp
    1acf:	48 39 c3             	cmp    %rax,%rbx
    1ad2:	0f 84 14 fe ff ff    	je     18ec <riscv_dsp_idct_o_f32+0xcc>
    1ad8:	45 89 ed             	mov    %r13d,%r13d
    1adb:	4c 89 fa             	mov    %r15,%rdx
    1ade:	49 c1 e5 02          	shl    $0x2,%r13
    1ae2:	48 f7 da             	neg    %rdx
    1ae5:	41 83 f9 01          	cmp    $0x1,%r9d
    1ae9:	74 08                	je     1af3 <riscv_dsp_idct_o_f32+0x2d3>
    1aeb:	e9 83 00 00 00       	jmp    1b73 <riscv_dsp_idct_o_f32+0x353>
    1af0:	4d 01 fc             	add    %r15,%r12
    1af3:	48 01 d0             	add    %rdx,%rax
    1af6:	f3 0f 10 0b          	movss  (%rbx),%xmm1
    1afa:	f3 0f 10 00          	movss  (%rax),%xmm0
    1afe:	f3 41 0f 59 00       	mulss  (%r8),%xmm0
    1b03:	4d 01 e8             	add    %r13,%r8
    1b06:	0f 28 d1             	movaps %xmm1,%xmm2
    1b09:	f3 0f 5c d0          	subss  %xmm0,%xmm2
    1b0d:	f3 0f 58 c1          	addss  %xmm1,%xmm0
    1b11:	f3 0f 11 10          	movss  %xmm2,(%rax)
    1b15:	f3 0f 11 03          	movss  %xmm0,(%rbx)
    1b19:	4c 89 e3             	mov    %r12,%rbx
    1b1c:	49 39 c4             	cmp    %rax,%r12
    1b1f:	75 cf                	jne    1af0 <riscv_dsp_idct_o_f32+0x2d0>
    1b21:	e9 c6 fd ff ff       	jmp    18ec <riscv_dsp_idct_o_f32+0xcc>
    1b26:	66 2e 0f 1f 84 00 00 	cs nopw 0x0(%rax,%rax,1)
    1b2d:	00 00 00 
    1b30:	4d 01 da             	add    %r11,%r10
    1b33:	f3 41 0f 10 02       	movss  (%r10),%xmm0
    1b38:	f3 0f 11 01          	movss  %xmm0,(%rcx)
    1b3c:	4c 01 f9             	add    %r15,%rcx
    1b3f:	48 39 ca             	cmp    %rcx,%rdx
    1b42:	75 ec                	jne    1b30 <riscv_dsp_idct_o_f32+0x310>
    1b44:	e9 5b ff ff ff       	jmp    1aa4 <riscv_dsp_idct_o_f32+0x284>
    1b49:	0f 1f 80 00 00 00 00 	nopl   0x0(%rax)
    1b50:	f3 0f 10 07          	movss  (%rdi),%xmm0
    1b54:	48 83 c7 04          	add    $0x4,%rdi
    1b58:	f3 0f 11 02          	movss  %xmm0,(%rdx)
    1b5c:	4c 01 fa             	add    %r15,%rdx
    1b5f:	48 39 d0             	cmp    %rdx,%rax
    1b62:	75 ec                	jne    1b50 <riscv_dsp_idct_o_f32+0x330>
    1b64:	e9 63 ff ff ff       	jmp    1acc <riscv_dsp_idct_o_f32+0x2ac>
    1b69:	0f 1f 80 00 00 00 00 	nopl   0x0(%rax)
    1b70:	4d 01 fc             	add    %r15,%r12
    1b73:	48 01 d0             	add    %rdx,%rax
    1b76:	f3 0f 10 03          	movss  (%rbx),%xmm0
    1b7a:	f3 0f 10 08          	movss  (%rax),%xmm1
    1b7e:	f3 41 0f 59 08       	mulss  (%r8),%xmm1
    1b83:	4d 01 e8             	add    %r13,%r8
    1b86:	0f 28 d0             	movaps %xmm0,%xmm2
    1b89:	f3 0f 5c d1          	subss  %xmm1,%xmm2
    1b8d:	f3 0f 58 c1          	addss  %xmm1,%xmm0
    1b91:	f3 0f 11 10          	movss  %xmm2,(%rax)
    1b95:	f3 0f 11 03          	movss  %xmm0,(%rbx)
    1b99:	4c 89 e3             	mov    %r12,%rbx
    1b9c:	4c 39 e0             	cmp    %r12,%rax
    1b9f:	75 cf                	jne    1b70 <riscv_dsp_idct_o_f32+0x350>
    1ba1:	e9 46 fd ff ff       	jmp    18ec <riscv_dsp_idct_o_f32+0xcc>
    1ba6:	e8 45 f5 ff ff       	call   10f0 <__stack_chk_fail@plt>
    1bab:	0f 1f 44 00 00       	nopl   0x0(%rax,%rax,1)

0000000000001bb0 <riscv_dsp_dct_o_f32>:
    1bb0:	41 56                	push   %r14
    1bb2:	41 55                	push   %r13
    1bb4:	41 54                	push   %r12
    1bb6:	55                   	push   %rbp
    1bb7:	89 d5                	mov    %edx,%ebp
    1bb9:	53                   	push   %rbx
    1bba:	48 89 fb             	mov    %rdi,%rbx
    1bbd:	83 fe 02             	cmp    $0x2,%esi
    1bc0:	0f 84 aa 00 00 00    	je     1c70 <riscv_dsp_dct_o_f32+0xc0>
    1bc6:	b8 01 00 00 00       	mov    $0x1,%eax
    1bcb:	b9 08 00 00 00       	mov    $0x8,%ecx
    1bd0:	41 89 f4             	mov    %esi,%r12d
    1bd3:	29 f1                	sub    %esi,%ecx
    1bd5:	41 89 c5             	mov    %eax,%r13d
    1bd8:	41 d3 e5             	shl    %cl,%r13d
    1bdb:	48 8d 0d 1e 70 00 00 	lea    0x701e(%rip),%rcx        # 8c00 <riscv_dsp_cos_recip_table_f32_1024>
    1be2:	44 89 ea             	mov    %r13d,%edx
    1be5:	d1 ea                	shr    %edx
    1be7:	4c 8d 34 91          	lea    (%rcx,%rdx,4),%r14
    1beb:	89 f1                	mov    %esi,%ecx
    1bed:	d3 e0                	shl    %cl,%eax
    1bef:	83 e8 01             	sub    $0x1,%eax
    1bf2:	0f af c5             	imul   %ebp,%eax
    1bf5:	48 8d 04 87          	lea    (%rdi,%rax,4),%rax
    1bf9:	48 39 c7             	cmp    %rax,%rdi
    1bfc:	74 27                	je     1c25 <riscv_dsp_dct_o_f32+0x75>
    1bfe:	89 ea                	mov    %ebp,%edx
    1c00:	48 c1 e2 02          	shl    $0x2,%rdx
    1c04:	48 89 d1             	mov    %rdx,%rcx
    1c07:	48 f7 d9             	neg    %rcx
    1c0a:	66 0f 1f 44 00 00    	nopw   0x0(%rax,%rax,1)
    1c10:	f3 0f 10 00          	movss  (%rax),%xmm0
    1c14:	f3 0f 58 04 08       	addss  (%rax,%rcx,1),%xmm0
    1c19:	f3 0f 11 00          	movss  %xmm0,(%rax)
    1c1d:	48 29 d0             	sub    %rdx,%rax
    1c20:	48 39 c3             	cmp    %rax,%rbx
    1c23:	75 eb                	jne    1c10 <riscv_dsp_dct_o_f32+0x60>
    1c25:	89 ea                	mov    %ebp,%edx
    1c27:	44 89 e6             	mov    %r12d,%esi
    1c2a:	48 89 df             	mov    %rbx,%rdi
    1c2d:	49 c1 e5 02          	shl    $0x2,%r13
    1c31:	e8 ea fb ff ff       	call   1820 <riscv_dsp_idct_o_f32>
    1c36:	89 e8                	mov    %ebp,%eax
    1c38:	44 89 e1             	mov    %r12d,%ecx
    1c3b:	48 c1 e5 02          	shl    $0x2,%rbp
    1c3f:	d3 e0                	shl    %cl,%eax
    1c41:	48 8d 04 83          	lea    (%rbx,%rax,4),%rax
    1c45:	48 39 c3             	cmp    %rax,%rbx
    1c48:	74 18                	je     1c62 <riscv_dsp_dct_o_f32+0xb2>
    1c4a:	f3 0f 10 03          	movss  (%rbx),%xmm0
    1c4e:	f3 41 0f 59 06       	mulss  (%r14),%xmm0
    1c53:	4d 01 ee             	add    %r13,%r14
    1c56:	f3 0f 11 03          	movss  %xmm0,(%rbx)
    1c5a:	48 01 eb             	add    %rbp,%rbx
    1c5d:	48 39 d8             	cmp    %rbx,%rax
    1c60:	75 e8                	jne    1c4a <riscv_dsp_dct_o_f32+0x9a>
    1c62:	5b                   	pop    %rbx
    1c63:	5d                   	pop    %rbp
    1c64:	41 5c                	pop    %r12
    1c66:	41 5d                	pop    %r13
    1c68:	41 5e                	pop    %r14
    1c6a:	c3                   	ret    
    1c6b:	0f 1f 44 00 00       	nopl   0x0(%rax,%rax,1)
    1c70:	8d 4c 2d 00          	lea    0x0(%rbp,%rbp,1),%ecx
    1c74:	89 e8                	mov    %ebp,%eax
    1c76:	f3 0f 10 07          	movss  (%rdi),%xmm0
    1c7a:	f3 0f 10 2d ee 6c 00 	movss  0x6cee(%rip),%xmm5        # 8970 <test_fft_Input_f64_256+0x830>
    1c81:	00 
    1c82:	48 8d 14 87          	lea    (%rdi,%rax,4),%rdx
    1c86:	89 c8                	mov    %ecx,%eax
    1c88:	01 e9                	add    %ebp,%ecx
    1c8a:	48 8d 04 87          	lea    (%rdi,%rax,4),%rax
    1c8e:	f3 0f 10 1a          	movss  (%rdx),%xmm3
    1c92:	89 c9                	mov    %ecx,%ecx
    1c94:	0f 28 d0             	movaps %xmm0,%xmm2
    1c97:	f3 0f 10 08          	movss  (%rax),%xmm1
    1c9b:	48 8d 0c 8f          	lea    (%rdi,%rcx,4),%rcx
    1c9f:	0f 28 e0             	movaps %xmm0,%xmm4
    1ca2:	f3 0f 58 d3          	addss  %xmm3,%xmm2
    1ca6:	f3 0f 58 d9          	addss  %xmm1,%xmm3
    1caa:	f3 0f 58 09          	addss  (%rcx),%xmm1
    1cae:	f3 0f 58 ca          	addss  %xmm2,%xmm1
    1cb2:	f3 0f 59 dd          	mulss  %xmm5,%xmm3
    1cb6:	f3 0f 59 cd          	mulss  %xmm5,%xmm1
    1cba:	f3 0f 5c e3          	subss  %xmm3,%xmm4
    1cbe:	f3 0f 58 c3          	addss  %xmm3,%xmm0
    1cc2:	0f 28 da             	movaps %xmm2,%xmm3
    1cc5:	f3 0f 58 d9          	addss  %xmm1,%xmm3
    1cc9:	f3 0f 59 1d ab 6c 00 	mulss  0x6cab(%rip),%xmm3        # 897c <test_fft_Input_f64_256+0x83c>
    1cd0:	00 
    1cd1:	f3 0f 5c d1          	subss  %xmm1,%xmm2
    1cd5:	f3 0f 59 15 a3 6c 00 	mulss  0x6ca3(%rip),%xmm2        # 8980 <test_fft_Input_f64_256+0x840>
    1cdc:	00 
    1cdd:	0f 28 c8             	movaps %xmm0,%xmm1
    1ce0:	f3 0f 58 cb          	addss  %xmm3,%xmm1
    1ce4:	f3 0f 5c c3          	subss  %xmm3,%xmm0
    1ce8:	f3 0f 59 0d 94 6c 00 	mulss  0x6c94(%rip),%xmm1        # 8984 <test_fft_Input_f64_256+0x844>
    1cef:	00 
    1cf0:	f3 0f 59 05 90 6c 00 	mulss  0x6c90(%rip),%xmm0        # 8988 <test_fft_Input_f64_256+0x848>
    1cf7:	00 
    1cf8:	f3 0f 11 0f          	movss  %xmm1,(%rdi)
    1cfc:	f3 0f 11 01          	movss  %xmm0,(%rcx)
    1d00:	0f 28 c4             	movaps %xmm4,%xmm0
    1d03:	f3 0f 5c e2          	subss  %xmm2,%xmm4
    1d07:	f3 0f 58 c2          	addss  %xmm2,%xmm0
    1d0b:	f3 0f 59 25 7d 6c 00 	mulss  0x6c7d(%rip),%xmm4        # 8990 <test_fft_Input_f64_256+0x850>
    1d12:	00 
    1d13:	f3 0f 59 05 71 6c 00 	mulss  0x6c71(%rip),%xmm0        # 898c <test_fft_Input_f64_256+0x84c>
    1d1a:	00 
    1d1b:	f3 0f 11 02          	movss  %xmm0,(%rdx)
    1d1f:	f3 0f 11 20          	movss  %xmm4,(%rax)
    1d23:	5b                   	pop    %rbx
    1d24:	5d                   	pop    %rbp
    1d25:	41 5c                	pop    %r12
    1d27:	41 5d                	pop    %r13
    1d29:	41 5e                	pop    %r14
    1d2b:	c3                   	ret    
    1d2c:	0f 1f 40 00          	nopl   0x0(%rax)

0000000000001d30 <riscv_dsp_dct_e_f32>:
    1d30:	41 56                	push   %r14
    1d32:	41 89 f6             	mov    %esi,%r14d
    1d35:	89 d6                	mov    %edx,%esi
    1d37:	41 55                	push   %r13
    1d39:	49 89 f0             	mov    %rsi,%r8
    1d3c:	48 c1 e6 02          	shl    $0x2,%rsi
    1d40:	41 54                	push   %r12
    1d42:	4c 8d 2c 37          	lea    (%rdi,%rsi,1),%r13
    1d46:	47 8d 24 00          	lea    (%r8,%r8,1),%r12d
    1d4a:	55                   	push   %rbp
    1d4b:	48 89 fd             	mov    %rdi,%rbp
    1d4e:	48 83 ec 08          	sub    $0x8,%rsp
    1d52:	41 83 fe 02          	cmp    $0x2,%r14d
    1d56:	0f 84 c4 00 00 00    	je     1e20 <riscv_dsp_dct_e_f32+0xf0>
    1d5c:	44 89 f1             	mov    %r14d,%ecx
    1d5f:	44 89 c0             	mov    %r8d,%eax
    1d62:	41 b9 01 00 00 00    	mov    $0x1,%r9d
    1d68:	d3 e0                	shl    %cl,%eax
    1d6a:	41 d3 e1             	shl    %cl,%r9d
    1d6d:	48 8d 04 87          	lea    (%rdi,%rax,4),%rax
    1d71:	48 39 c7             	cmp    %rax,%rdi
    1d74:	74 38                	je     1dae <riscv_dsp_dct_e_f32+0x7e>
    1d76:	48 89 f1             	mov    %rsi,%rcx
    1d79:	48 89 fa             	mov    %rdi,%rdx
    1d7c:	48 f7 d9             	neg    %rcx
    1d7f:	41 83 f8 01          	cmp    $0x1,%r8d
    1d83:	75 6b                	jne    1df0 <riscv_dsp_dct_e_f32+0xc0>
    1d85:	0f 1f 00             	nopl   (%rax)
    1d88:	f3 0f 10 0a          	movss  (%rdx),%xmm1
    1d8c:	48 01 c8             	add    %rcx,%rax
    1d8f:	f3 0f 10 00          	movss  (%rax),%xmm0
    1d93:	0f 28 d1             	movaps %xmm1,%xmm2
    1d96:	f3 0f 5c d0          	subss  %xmm0,%xmm2
    1d9a:	f3 0f 58 c1          	addss  %xmm1,%xmm0
    1d9e:	f3 0f 11 10          	movss  %xmm2,(%rax)
    1da2:	f3 0f 11 02          	movss  %xmm0,(%rdx)
    1da6:	48 01 f2             	add    %rsi,%rdx
    1da9:	48 39 c2             	cmp    %rax,%rdx
    1dac:	75 da                	jne    1d88 <riscv_dsp_dct_e_f32+0x58>
    1dae:	44 89 c2             	mov    %r8d,%edx
    1db1:	44 89 ce             	mov    %r9d,%esi
    1db4:	48 89 ef             	mov    %rbp,%rdi
    1db7:	41 83 ee 01          	sub    $0x1,%r14d
    1dbb:	e8 10 f9 ff ff       	call   16d0 <riscv_dsp_dct_swap_f32>
    1dc0:	44 89 e2             	mov    %r12d,%edx
    1dc3:	44 89 f6             	mov    %r14d,%esi
    1dc6:	48 89 ef             	mov    %rbp,%rdi
    1dc9:	e8 62 ff ff ff       	call   1d30 <riscv_dsp_dct_e_f32>
    1dce:	48 83 c4 08          	add    $0x8,%rsp
    1dd2:	44 89 e2             	mov    %r12d,%edx
    1dd5:	44 89 f6             	mov    %r14d,%esi
    1dd8:	5d                   	pop    %rbp
    1dd9:	4c 89 ef             	mov    %r13,%rdi
    1ddc:	41 5c                	pop    %r12
    1dde:	41 5d                	pop    %r13
    1de0:	41 5e                	pop    %r14
    1de2:	e9 c9 fd ff ff       	jmp    1bb0 <riscv_dsp_dct_o_f32>
    1de7:	66 0f 1f 84 00 00 00 	nopw   0x0(%rax,%rax,1)
    1dee:	00 00 
    1df0:	f3 0f 10 02          	movss  (%rdx),%xmm0
    1df4:	48 01 c8             	add    %rcx,%rax
    1df7:	f3 0f 10 08          	movss  (%rax),%xmm1
    1dfb:	0f 28 d0             	movaps %xmm0,%xmm2
    1dfe:	f3 0f 5c d1          	subss  %xmm1,%xmm2
    1e02:	f3 0f 58 c1          	addss  %xmm1,%xmm0
    1e06:	f3 0f 11 10          	movss  %xmm2,(%rax)
    1e0a:	f3 0f 11 02          	movss  %xmm0,(%rdx)
    1e0e:	48 01 f2             	add    %rsi,%rdx
    1e11:	48 39 d0             	cmp    %rdx,%rax
    1e14:	75 da                	jne    1df0 <riscv_dsp_dct_e_f32+0xc0>
    1e16:	eb 96                	jmp    1dae <riscv_dsp_dct_e_f32+0x7e>
    1e18:	0f 1f 84 00 00 00 00 	nopl   0x0(%rax,%rax,1)
    1e1f:	00 
    1e20:	43 8d 04 20          	lea    (%r8,%r12,1),%eax
    1e24:	f3 0f 10 07          	movss  (%rdi),%xmm0
    1e28:	f3 41 0f 10 65 00    	movss  0x0(%r13),%xmm4
    1e2e:	4a 8d 14 a7          	lea    (%rdi,%r12,4),%rdx
    1e32:	48 8d 04 87          	lea    (%rdi,%rax,4),%rax
    1e36:	f3 0f 10 10          	movss  (%rax),%xmm2
    1e3a:	0f 28 c8             	movaps %xmm0,%xmm1
    1e3d:	0f 28 dc             	movaps %xmm4,%xmm3
    1e40:	f3 0f 5c ca          	subss  %xmm2,%xmm1
    1e44:	f3 0f 58 c2          	addss  %xmm2,%xmm0
    1e48:	f3 0f 10 12          	movss  (%rdx),%xmm2
    1e4c:	f3 0f 5c da          	subss  %xmm2,%xmm3
    1e50:	f3 0f 58 d4          	addss  %xmm4,%xmm2
    1e54:	0f 28 e0             	movaps %xmm0,%xmm4
    1e57:	f3 0f 5c c2          	subss  %xmm2,%xmm0
    1e5b:	f3 0f 59 05 0d 6b 00 	mulss  0x6b0d(%rip),%xmm0        # 8970 <test_fft_Input_f64_256+0x830>
    1e62:	00 
    1e63:	f3 0f 58 e2          	addss  %xmm2,%xmm4
    1e67:	f3 0f 10 15 09 6b 00 	movss  0x6b09(%rip),%xmm2        # 8978 <test_fft_Input_f64_256+0x838>
    1e6e:	00 
    1e6f:	0f 28 eb             	movaps %xmm3,%xmm5
    1e72:	f3 0f 59 da          	mulss  %xmm2,%xmm3
    1e76:	f3 0f 11 27          	movss  %xmm4,(%rdi)
    1e7a:	f3 0f 10 25 f2 6a 00 	movss  0x6af2(%rip),%xmm4        # 8974 <test_fft_Input_f64_256+0x834>
    1e81:	00 
    1e82:	f3 0f 11 02          	movss  %xmm0,(%rdx)
    1e86:	f3 0f 59 ec          	mulss  %xmm4,%xmm5
    1e8a:	0f 28 c1             	movaps %xmm1,%xmm0
    1e8d:	f3 0f 59 c2          	mulss  %xmm2,%xmm0
    1e91:	f3 0f 59 cc          	mulss  %xmm4,%xmm1
    1e95:	f3 0f 58 c5          	addss  %xmm5,%xmm0
    1e99:	f3 0f 5c cb          	subss  %xmm3,%xmm1
    1e9d:	f3 41 0f 11 45 00    	movss  %xmm0,0x0(%r13)
    1ea3:	f3 0f 11 08          	movss  %xmm1,(%rax)
    1ea7:	48 83 c4 08          	add    $0x8,%rsp
    1eab:	5d                   	pop    %rbp
    1eac:	41 5c                	pop    %r12
    1eae:	41 5d                	pop    %r13
    1eb0:	41 5e                	pop    %r14
    1eb2:	c3                   	ret    
    1eb3:	66 2e 0f 1f 84 00 00 	cs nopw 0x0(%rax,%rax,1)
    1eba:	00 00 00 
    1ebd:	0f 1f 00             	nopl   (%rax)

0000000000001ec0 <riscv_dsp_dct_f32>:
    1ec0:	f3 0f 1e fa          	endbr64 
    1ec4:	55                   	push   %rbp
    1ec5:	48 89 e5             	mov    %rsp,%rbp
    1ec8:	41 57                	push   %r15
    1eca:	41 56                	push   %r14
    1ecc:	41 55                	push   %r13
    1ece:	41 54                	push   %r12
    1ed0:	53                   	push   %rbx
    1ed1:	48 89 fb             	mov    %rdi,%rbx
    1ed4:	48 83 ec 68          	sub    $0x68,%rsp
    1ed8:	f3 0f 10 17          	movss  (%rdi),%xmm2
    1edc:	64 48 8b 04 25 28 00 	mov    %fs:0x28,%rax
    1ee3:	00 00 
    1ee5:	48 89 45 c8          	mov    %rax,-0x38(%rbp)
    1ee9:	31 c0                	xor    %eax,%eax
    1eeb:	83 fe 02             	cmp    $0x2,%esi
    1eee:	0f 84 94 0a 00 00    	je     2988 <riscv_dsp_dct_f32+0xac8>
    1ef4:	89 f1                	mov    %esi,%ecx
    1ef6:	bf 01 00 00 00       	mov    $0x1,%edi
    1efb:	41 89 f7             	mov    %esi,%r15d
    1efe:	d3 e7                	shl    %cl,%edi
    1f00:	89 fe                	mov    %edi,%esi
    1f02:	48 8d 04 b5 00 00 00 	lea    0x0(,%rsi,4),%rax
    1f09:	00 
    1f0a:	4c 8d 40 f8          	lea    -0x8(%rax),%r8
    1f0e:	48 8d 14 03          	lea    (%rbx,%rax,1),%rdx
    1f12:	4d 89 c3             	mov    %r8,%r11
    1f15:	49 c1 eb 03          	shr    $0x3,%r11
    1f19:	4c 89 d9             	mov    %r11,%rcx
    1f1c:	4d 8d 53 01          	lea    0x1(%r11),%r10
    1f20:	48 f7 d9             	neg    %rcx
    1f23:	4e 8d 0c 95 00 00 00 	lea    0x0(,%r10,4),%r9
    1f2a:	00 
    1f2b:	48 8d 4c 88 fc       	lea    -0x4(%rax,%rcx,4),%rcx
    1f30:	49 39 c9             	cmp    %rcx,%r9
    1f33:	0f 8f 27 10 00 00    	jg     2f60 <riscv_dsp_dct_f32+0x10a0>
    1f39:	48 83 f8 08          	cmp    $0x8,%rax
    1f3d:	0f 84 1d 10 00 00    	je     2f60 <riscv_dsp_dct_f32+0x10a0>
    1f43:	49 83 f8 10          	cmp    $0x10,%r8
    1f47:	0f 86 d5 0a 00 00    	jbe    2a22 <riscv_dsp_dct_f32+0xb62>
    1f4d:	4d 89 d1             	mov    %r10,%r9
    1f50:	48 8d 4c 03 f0       	lea    -0x10(%rbx,%rax,1),%rcx
    1f55:	48 89 d8             	mov    %rbx,%rax
    1f58:	49 c1 e9 02          	shr    $0x2,%r9
    1f5c:	49 c1 e1 04          	shl    $0x4,%r9
    1f60:	49 01 d9             	add    %rbx,%r9
    1f63:	0f 1f 44 00 00       	nopl   0x0(%rax,%rax,1)
    1f68:	0f 10 08             	movups (%rax),%xmm1
    1f6b:	0f 10 01             	movups (%rcx),%xmm0
    1f6e:	48 83 c0 10          	add    $0x10,%rax
    1f72:	48 83 e9 10          	sub    $0x10,%rcx
    1f76:	0f 28 d1             	movaps %xmm1,%xmm2
    1f79:	0f c6 c0 1b          	shufps $0x1b,%xmm0,%xmm0
    1f7d:	0f 58 c8             	addps  %xmm0,%xmm1
    1f80:	0f 5c d0             	subps  %xmm0,%xmm2
    1f83:	0f c6 d2 1b          	shufps $0x1b,%xmm2,%xmm2
    1f87:	0f 11 51 10          	movups %xmm2,0x10(%rcx)
    1f8b:	0f 11 48 f0          	movups %xmm1,-0x10(%rax)
    1f8f:	4c 39 c8             	cmp    %r9,%rax
    1f92:	75 d4                	jne    1f68 <riscv_dsp_dct_f32+0xa8>
    1f94:	4c 89 d0             	mov    %r10,%rax
    1f97:	48 83 e0 fc          	and    $0xfffffffffffffffc,%rax
    1f9b:	4c 8d 0c 85 00 00 00 	lea    0x0(,%rax,4),%r9
    1fa2:	00 
    1fa3:	4a 8d 0c 0b          	lea    (%rbx,%r9,1),%rcx
    1fa7:	4c 29 ca             	sub    %r9,%rdx
    1faa:	49 39 c2             	cmp    %rax,%r10
    1fad:	74 75                	je     2024 <riscv_dsp_dct_f32+0x164>
    1faf:	49 29 c2             	sub    %rax,%r10
    1fb2:	49 39 c3             	cmp    %rax,%r11
    1fb5:	74 50                	je     2007 <riscv_dsp_dct_f32+0x147>
    1fb7:	4c 8d 0c 85 00 00 00 	lea    0x0(,%rax,4),%r9
    1fbe:	00 
    1fbf:	4c 89 c0             	mov    %r8,%rax
    1fc2:	4c 29 c8             	sub    %r9,%rax
    1fc5:	4e 8d 1c 0b          	lea    (%rbx,%r9,1),%r11
    1fc9:	48 01 d8             	add    %rbx,%rax
    1fcc:	f3 41 0f 7e 03       	movq   (%r11),%xmm0
    1fd1:	f3 0f 7e 08          	movq   (%rax),%xmm1
    1fd5:	0f 28 d0             	movaps %xmm0,%xmm2
    1fd8:	0f c6 c9 e1          	shufps $0xe1,%xmm1,%xmm1
    1fdc:	0f 5c d1             	subps  %xmm1,%xmm2
    1fdf:	0f 58 c1             	addps  %xmm1,%xmm0
    1fe2:	0f c6 d2 e1          	shufps $0xe1,%xmm2,%xmm2
    1fe6:	0f 13 10             	movlps %xmm2,(%rax)
    1fe9:	4c 89 d0             	mov    %r10,%rax
    1fec:	48 83 e0 fe          	and    $0xfffffffffffffffe,%rax
    1ff0:	41 0f 13 03          	movlps %xmm0,(%r11)
    1ff4:	4c 8d 04 85 00 00 00 	lea    0x0(,%rax,4),%r8
    1ffb:	00 
    1ffc:	4c 01 c1             	add    %r8,%rcx
    1fff:	4c 29 c2             	sub    %r8,%rdx
    2002:	49 39 c2             	cmp    %rax,%r10
    2005:	74 1d                	je     2024 <riscv_dsp_dct_f32+0x164>
    2007:	f3 0f 10 01          	movss  (%rcx),%xmm0
    200b:	f3 0f 10 4a fc       	movss  -0x4(%rdx),%xmm1
    2010:	0f 28 d0             	movaps %xmm0,%xmm2
    2013:	f3 0f 58 c1          	addss  %xmm1,%xmm0
    2017:	f3 0f 5c d1          	subss  %xmm1,%xmm2
    201b:	f3 0f 11 52 fc       	movss  %xmm2,-0x4(%rdx)
    2020:	f3 0f 11 01          	movss  %xmm0,(%rcx)
    2024:	d1 ef                	shr    %edi
    2026:	48 89 e2             	mov    %rsp,%rdx
    2029:	49 89 e6             	mov    %rsp,%r14
    202c:	89 f9                	mov    %edi,%ecx
    202e:	48 c1 e1 02          	shl    $0x2,%rcx
    2032:	48 8d 41 0f          	lea    0xf(%rcx),%rax
    2036:	48 c1 e8 04          	shr    $0x4,%rax
    203a:	48 c1 e0 04          	shl    $0x4,%rax
    203e:	48 89 c7             	mov    %rax,%rdi
    2041:	48 81 e7 00 f0 ff ff 	and    $0xfffffffffffff000,%rdi
    2048:	48 29 fa             	sub    %rdi,%rdx
    204b:	48 39 d4             	cmp    %rdx,%rsp
    204e:	74 15                	je     2065 <riscv_dsp_dct_f32+0x1a5>
    2050:	48 81 ec 00 10 00 00 	sub    $0x1000,%rsp
    2057:	48 83 8c 24 f8 0f 00 	orq    $0x0,0xff8(%rsp)
    205e:	00 00 
    2060:	48 39 d4             	cmp    %rdx,%rsp
    2063:	75 eb                	jne    2050 <riscv_dsp_dct_f32+0x190>
    2065:	25 ff 0f 00 00       	and    $0xfff,%eax
    206a:	48 29 c4             	sub    %rax,%rsp
    206d:	48 85 c0             	test   %rax,%rax
    2070:	74 06                	je     2078 <riscv_dsp_dct_f32+0x1b8>
    2072:	48 83 4c 04 f8 00    	orq    $0x0,-0x8(%rsp,%rax,1)
    2078:	48 c1 e6 02          	shl    $0x2,%rsi
    207c:	49 89 e1             	mov    %rsp,%r9
    207f:	48 01 d9             	add    %rbx,%rcx
    2082:	48 8d 3c 33          	lea    (%rbx,%rsi,1),%rdi
    2086:	4d 89 cc             	mov    %r9,%r12
    2089:	48 39 f9             	cmp    %rdi,%rcx
    208c:	0f 84 84 10 00 00    	je     3116 <riscv_dsp_dct_f32+0x1256>
    2092:	48 8d 47 fc          	lea    -0x4(%rdi),%rax
    2096:	48 29 c8             	sub    %rcx,%rax
    2099:	49 89 c0             	mov    %rax,%r8
    209c:	49 c1 e8 02          	shr    $0x2,%r8
    20a0:	49 83 c0 01          	add    $0x1,%r8
    20a4:	48 83 f8 08          	cmp    $0x8,%rax
    20a8:	0f 86 11 11 00 00    	jbe    31bf <riscv_dsp_dct_f32+0x12ff>
    20ae:	4d 89 c3             	mov    %r8,%r11
    20b1:	48 8d 44 33 f0       	lea    -0x10(%rbx,%rsi,1),%rax
    20b6:	4c 89 ca             	mov    %r9,%rdx
    20b9:	49 c1 eb 02          	shr    $0x2,%r11
    20bd:	49 89 c2             	mov    %rax,%r10
    20c0:	49 c1 e3 04          	shl    $0x4,%r11
    20c4:	4d 29 da             	sub    %r11,%r10
    20c7:	66 0f 1f 84 00 00 00 	nopw   0x0(%rax,%rax,1)
    20ce:	00 00 
    20d0:	0f 10 00             	movups (%rax),%xmm0
    20d3:	48 83 e8 10          	sub    $0x10,%rax
    20d7:	48 83 c2 10          	add    $0x10,%rdx
    20db:	0f c6 c0 1b          	shufps $0x1b,%xmm0,%xmm0
    20df:	0f 11 42 f0          	movups %xmm0,-0x10(%rdx)
    20e3:	49 39 c2             	cmp    %rax,%r10
    20e6:	75 e8                	jne    20d0 <riscv_dsp_dct_f32+0x210>
    20e8:	4d 89 c3             	mov    %r8,%r11
    20eb:	4d 89 ca             	mov    %r9,%r10
    20ee:	49 83 e3 fc          	and    $0xfffffffffffffffc,%r11
    20f2:	4c 89 da             	mov    %r11,%rdx
    20f5:	48 f7 da             	neg    %rdx
    20f8:	48 c1 e2 02          	shl    $0x2,%rdx
    20fc:	48 8d 04 17          	lea    (%rdi,%rdx,1),%rax
    2100:	49 29 d2             	sub    %rdx,%r10
    2103:	4d 39 d8             	cmp    %r11,%r8
    2106:	74 32                	je     213a <riscv_dsp_dct_f32+0x27a>
    2108:	f3 0f 10 40 fc       	movss  -0x4(%rax),%xmm0
    210d:	48 8d 50 fc          	lea    -0x4(%rax),%rdx
    2111:	f3 41 0f 11 02       	movss  %xmm0,(%r10)
    2116:	48 39 d1             	cmp    %rdx,%rcx
    2119:	74 1f                	je     213a <riscv_dsp_dct_f32+0x27a>
    211b:	f3 0f 10 40 f8       	movss  -0x8(%rax),%xmm0
    2120:	48 8d 50 f8          	lea    -0x8(%rax),%rdx
    2124:	f3 41 0f 11 42 04    	movss  %xmm0,0x4(%r10)
    212a:	48 39 d1             	cmp    %rdx,%rcx
    212d:	74 0b                	je     213a <riscv_dsp_dct_f32+0x27a>
    212f:	f3 0f 10 40 f4       	movss  -0xc(%rax),%xmm0
    2134:	f3 41 0f 11 42 08    	movss  %xmm0,0x8(%r10)
    213a:	49 f7 d8             	neg    %r8
    213d:	4a 8d 0c 87          	lea    (%rdi,%r8,4),%rcx
    2141:	48 39 cb             	cmp    %rcx,%rbx
    2144:	0f 84 ee 00 00 00    	je     2238 <riscv_dsp_dct_f32+0x378>
    214a:	48 89 c8             	mov    %rcx,%rax
    214d:	4c 8d 54 33 fc       	lea    -0x4(%rbx,%rsi,1),%r10
    2152:	48 89 4d b8          	mov    %rcx,-0x48(%rbp)
    2156:	48 29 d8             	sub    %rbx,%rax
    2159:	4c 8d 68 fc          	lea    -0x4(%rax),%r13
    215d:	48 8d 46 f8          	lea    -0x8(%rsi),%rax
    2161:	4d 89 e8             	mov    %r13,%r8
    2164:	49 c1 e8 02          	shr    $0x2,%r8
    2168:	4c 89 c2             	mov    %r8,%rdx
    216b:	4d 8d 58 01          	lea    0x1(%r8),%r11
    216f:	48 f7 d2             	not    %rdx
    2172:	48 8d 14 91          	lea    (%rcx,%rdx,4),%rdx
    2176:	49 39 d2             	cmp    %rdx,%r10
    2179:	41 0f 96 c2          	setbe  %r10b
    217d:	49 f7 d8             	neg    %r8
    2180:	4e 8d 04 c0          	lea    (%rax,%r8,8),%r8
    2184:	49 01 d8             	add    %rbx,%r8
    2187:	4c 39 c1             	cmp    %r8,%rcx
    218a:	41 0f 96 c0          	setbe  %r8b
    218e:	45 08 d0             	or     %r10b,%r8b
    2191:	0f 84 09 0e 00 00    	je     2fa0 <riscv_dsp_dct_f32+0x10e0>
    2197:	49 83 fd 18          	cmp    $0x18,%r13
    219b:	0f 86 ff 0d 00 00    	jbe    2fa0 <riscv_dsp_dct_f32+0x10e0>
    21a1:	4d 89 da             	mov    %r11,%r10
    21a4:	49 89 c8             	mov    %rcx,%r8
    21a7:	48 01 d8             	add    %rbx,%rax
    21aa:	48 89 ca             	mov    %rcx,%rdx
    21ad:	49 c1 ea 02          	shr    $0x2,%r10
    21b1:	49 c1 e2 04          	shl    $0x4,%r10
    21b5:	4d 29 d0             	sub    %r10,%r8
    21b8:	0f 1f 84 00 00 00 00 	nopl   0x0(%rax,%rax,1)
    21bf:	00 
    21c0:	0f 10 42 f0          	movups -0x10(%rdx),%xmm0
    21c4:	f3 0f 10 4a fc       	movss  -0x4(%rdx),%xmm1
    21c9:	48 83 ea 10          	sub    $0x10,%rdx
    21cd:	48 83 e8 20          	sub    $0x20,%rax
    21d1:	f3 0f 11 48 20       	movss  %xmm1,0x20(%rax)
    21d6:	0f 28 c8             	movaps %xmm0,%xmm1
    21d9:	0f 15 c8             	unpckhps %xmm0,%xmm1
    21dc:	f3 0f 11 40 08       	movss  %xmm0,0x8(%rax)
    21e1:	f3 0f 11 48 18       	movss  %xmm1,0x18(%rax)
    21e6:	0f 28 c8             	movaps %xmm0,%xmm1
    21e9:	0f c6 c8 55          	shufps $0x55,%xmm0,%xmm1
    21ed:	f3 0f 11 48 10       	movss  %xmm1,0x10(%rax)
    21f2:	49 39 d0             	cmp    %rdx,%r8
    21f5:	75 c9                	jne    21c0 <riscv_dsp_dct_f32+0x300>
    21f7:	4c 89 d8             	mov    %r11,%rax
    21fa:	48 83 e0 fc          	and    $0xfffffffffffffffc,%rax
    21fe:	49 39 c3             	cmp    %rax,%r11
    2201:	74 35                	je     2238 <riscv_dsp_dct_f32+0x378>
    2203:	48 f7 d0             	not    %rax
    2206:	48 8d 14 81          	lea    (%rcx,%rax,4),%rdx
    220a:	48 8d 04 c7          	lea    (%rdi,%rax,8),%rax
    220e:	f3 0f 10 02          	movss  (%rdx),%xmm0
    2212:	f3 0f 11 00          	movss  %xmm0,(%rax)
    2216:	48 39 d3             	cmp    %rdx,%rbx
    2219:	74 1d                	je     2238 <riscv_dsp_dct_f32+0x378>
    221b:	f3 0f 10 42 fc       	movss  -0x4(%rdx),%xmm0
    2220:	48 8d 4a fc          	lea    -0x4(%rdx),%rcx
    2224:	f3 0f 11 40 f8       	movss  %xmm0,-0x8(%rax)
    2229:	48 39 cb             	cmp    %rcx,%rbx
    222c:	74 0a                	je     2238 <riscv_dsp_dct_f32+0x378>
    222e:	f3 0f 10 42 f8       	movss  -0x8(%rdx),%xmm0
    2233:	f3 0f 11 40 f0       	movss  %xmm0,-0x10(%rax)
    2238:	48 39 fb             	cmp    %rdi,%rbx
    223b:	0f 84 ad 00 00 00    	je     22ee <riscv_dsp_dct_f32+0x42e>
    2241:	48 83 ee 08          	sub    $0x8,%rsi
    2245:	49 89 f0             	mov    %rsi,%r8
    2248:	49 c1 e8 03          	shr    $0x3,%r8
    224c:	49 83 c0 01          	add    $0x1,%r8
    2250:	48 83 fe 10          	cmp    $0x10,%rsi
    2254:	0f 86 70 0f 00 00    	jbe    31ca <riscv_dsp_dct_f32+0x130a>
    225a:	4c 89 c1             	mov    %r8,%rcx
    225d:	48 8d 43 04          	lea    0x4(%rbx),%rax
    2261:	4c 89 ca             	mov    %r9,%rdx
    2264:	48 c1 e9 02          	shr    $0x2,%rcx
    2268:	48 c1 e1 04          	shl    $0x4,%rcx
    226c:	4c 01 c9             	add    %r9,%rcx
    226f:	90                   	nop
    2270:	0f 10 02             	movups (%rdx),%xmm0
    2273:	48 83 c2 10          	add    $0x10,%rdx
    2277:	48 83 c0 20          	add    $0x20,%rax
    227b:	0f 28 c8             	movaps %xmm0,%xmm1
    227e:	f3 0f 11 40 e0       	movss  %xmm0,-0x20(%rax)
    2283:	0f c6 c8 55          	shufps $0x55,%xmm0,%xmm1
    2287:	f3 0f 11 48 e8       	movss  %xmm1,-0x18(%rax)
    228c:	0f 28 c8             	movaps %xmm0,%xmm1
    228f:	0f 15 c8             	unpckhps %xmm0,%xmm1
    2292:	0f c6 c0 ff          	shufps $0xff,%xmm0,%xmm0
    2296:	f3 0f 11 40 f8       	movss  %xmm0,-0x8(%rax)
    229b:	f3 0f 11 48 f0       	movss  %xmm1,-0x10(%rax)
    22a0:	48 39 d1             	cmp    %rdx,%rcx
    22a3:	75 cb                	jne    2270 <riscv_dsp_dct_f32+0x3b0>
    22a5:	4c 89 c2             	mov    %r8,%rdx
    22a8:	48 83 e2 fc          	and    $0xfffffffffffffffc,%rdx
    22ac:	48 8d 04 d3          	lea    (%rbx,%rdx,8),%rax
    22b0:	4d 8d 24 91          	lea    (%r9,%rdx,4),%r12
    22b4:	4c 39 c2             	cmp    %r8,%rdx
    22b7:	74 35                	je     22ee <riscv_dsp_dct_f32+0x42e>
    22b9:	f3 41 0f 10 04 24    	movss  (%r12),%xmm0
    22bf:	48 8d 50 08          	lea    0x8(%rax),%rdx
    22c3:	f3 0f 11 40 04       	movss  %xmm0,0x4(%rax)
    22c8:	48 39 d7             	cmp    %rdx,%rdi
    22cb:	74 21                	je     22ee <riscv_dsp_dct_f32+0x42e>
    22cd:	f3 41 0f 10 44 24 04 	movss  0x4(%r12),%xmm0
    22d4:	48 8d 50 10          	lea    0x10(%rax),%rdx
    22d8:	f3 0f 11 40 0c       	movss  %xmm0,0xc(%rax)
    22dd:	48 39 d7             	cmp    %rdx,%rdi
    22e0:	74 0c                	je     22ee <riscv_dsp_dct_f32+0x42e>
    22e2:	f3 41 0f 10 44 24 08 	movss  0x8(%r12),%xmm0
    22e9:	f3 0f 11 40 14       	movss  %xmm0,0x14(%rax)
    22ee:	4c 89 f4             	mov    %r14,%rsp
    22f1:	45 8d 77 ff          	lea    -0x1(%r15),%r14d
    22f5:	41 83 ff 03          	cmp    $0x3,%r15d
    22f9:	0f 84 31 07 00 00    	je     2a30 <riscv_dsp_dct_f32+0xb70>
    22ff:	44 89 f1             	mov    %r14d,%ecx
    2302:	41 bc 02 00 00 00    	mov    $0x2,%r12d
    2308:	b8 01 00 00 00       	mov    $0x1,%eax
    230d:	41 d3 e4             	shl    %cl,%r12d
    2310:	d3 e0                	shl    %cl,%eax
    2312:	49 c1 e4 02          	shl    $0x2,%r12
    2316:	89 45 b8             	mov    %eax,-0x48(%rbp)
    2319:	48 89 d8             	mov    %rbx,%rax
    231c:	4a 8d 0c 23          	lea    (%rbx,%r12,1),%rcx
    2320:	48 89 ca             	mov    %rcx,%rdx
    2323:	48 39 cb             	cmp    %rcx,%rbx
    2326:	74 32                	je     235a <riscv_dsp_dct_f32+0x49a>
    2328:	0f 1f 84 00 00 00 00 	nopl   0x0(%rax,%rax,1)
    232f:	00 
    2330:	f3 0f 10 00          	movss  (%rax),%xmm0
    2334:	f3 0f 10 4a f8       	movss  -0x8(%rdx),%xmm1
    2339:	48 83 ea 08          	sub    $0x8,%rdx
    233d:	48 83 c0 08          	add    $0x8,%rax
    2341:	0f 28 d0             	movaps %xmm0,%xmm2
    2344:	f3 0f 58 c1          	addss  %xmm1,%xmm0
    2348:	f3 0f 5c d1          	subss  %xmm1,%xmm2
    234c:	f3 0f 11 12          	movss  %xmm2,(%rdx)
    2350:	f3 0f 11 40 f8       	movss  %xmm0,-0x8(%rax)
    2355:	48 39 c2             	cmp    %rax,%rdx
    2358:	75 d6                	jne    2330 <riscv_dsp_dct_f32+0x470>
    235a:	8b 55 b8             	mov    -0x48(%rbp),%edx
    235d:	48 89 e6             	mov    %rsp,%rsi
    2360:	48 89 e7             	mov    %rsp,%rdi
    2363:	d1 ea                	shr    %edx
    2365:	89 d0                	mov    %edx,%eax
    2367:	48 89 45 98          	mov    %rax,-0x68(%rbp)
    236b:	48 8d 04 85 0f 00 00 	lea    0xf(,%rax,4),%rax
    2372:	00 
    2373:	48 89 45 a0          	mov    %rax,-0x60(%rbp)
    2377:	48 c1 e8 04          	shr    $0x4,%rax
    237b:	48 c1 e0 04          	shl    $0x4,%rax
    237f:	49 89 c0             	mov    %rax,%r8
    2382:	49 81 e0 00 f0 ff ff 	and    $0xfffffffffffff000,%r8
    2389:	4c 29 c6             	sub    %r8,%rsi
    238c:	48 39 f4             	cmp    %rsi,%rsp
    238f:	74 15                	je     23a6 <riscv_dsp_dct_f32+0x4e6>
    2391:	48 81 ec 00 10 00 00 	sub    $0x1000,%rsp
    2398:	48 83 8c 24 f8 0f 00 	orq    $0x0,0xff8(%rsp)
    239f:	00 00 
    23a1:	48 39 f4             	cmp    %rsi,%rsp
    23a4:	75 eb                	jne    2391 <riscv_dsp_dct_f32+0x4d1>
    23a6:	25 ff 0f 00 00       	and    $0xfff,%eax
    23ab:	48 29 c4             	sub    %rax,%rsp
    23ae:	48 85 c0             	test   %rax,%rax
    23b1:	74 06                	je     23b9 <riscv_dsp_dct_f32+0x4f9>
    23b3:	48 83 4c 04 f8 00    	orq    $0x0,-0x8(%rsp,%rax,1)
    23b9:	01 d2                	add    %edx,%edx
    23bb:	48 89 e6             	mov    %rsp,%rsi
    23be:	48 8d 04 95 00 00 00 	lea    0x0(,%rdx,4),%rax
    23c5:	00 
    23c6:	49 89 f0             	mov    %rsi,%r8
    23c9:	49 89 f1             	mov    %rsi,%r9
    23cc:	48 89 ca             	mov    %rcx,%rdx
    23cf:	48 89 85 78 ff ff ff 	mov    %rax,-0x88(%rbp)
    23d6:	48 01 d8             	add    %rbx,%rax
    23d9:	48 39 c1             	cmp    %rax,%rcx
    23dc:	74 2e                	je     240c <riscv_dsp_dct_f32+0x54c>
    23de:	66 90                	xchg   %ax,%ax
    23e0:	f3 0f 10 42 f8       	movss  -0x8(%rdx),%xmm0
    23e5:	48 83 ea 08          	sub    $0x8,%rdx
    23e9:	49 83 c1 04          	add    $0x4,%r9
    23ed:	f3 41 0f 11 41 fc    	movss  %xmm0,-0x4(%r9)
    23f3:	48 39 d0             	cmp    %rdx,%rax
    23f6:	75 e8                	jne    23e0 <riscv_dsp_dct_f32+0x520>
    23f8:	48 8d 51 f8          	lea    -0x8(%rcx),%rdx
    23fc:	48 29 c2             	sub    %rax,%rdx
    23ff:	48 89 d0             	mov    %rdx,%rax
    2402:	48 f7 d0             	not    %rax
    2405:	48 83 e0 f8          	and    $0xfffffffffffffff8,%rax
    2409:	48 01 c8             	add    %rcx,%rax
    240c:	48 89 ca             	mov    %rcx,%rdx
    240f:	48 39 c3             	cmp    %rax,%rbx
    2412:	74 1a                	je     242e <riscv_dsp_dct_f32+0x56e>
    2414:	0f 1f 40 00          	nopl   0x0(%rax)
    2418:	f3 0f 10 40 f8       	movss  -0x8(%rax),%xmm0
    241d:	48 83 e8 08          	sub    $0x8,%rax
    2421:	48 83 ea 10          	sub    $0x10,%rdx
    2425:	f3 0f 11 02          	movss  %xmm0,(%rdx)
    2429:	48 39 c3             	cmp    %rax,%rbx
    242c:	75 ea                	jne    2418 <riscv_dsp_dct_f32+0x558>
    242e:	48 39 cb             	cmp    %rcx,%rbx
    2431:	0f 84 ba 00 00 00    	je     24f1 <riscv_dsp_dct_f32+0x631>
    2437:	49 8d 44 24 f0       	lea    -0x10(%r12),%rax
    243c:	49 89 c1             	mov    %rax,%r9
    243f:	49 c1 e9 04          	shr    $0x4,%r9
    2443:	49 83 c1 01          	add    $0x1,%r9
    2447:	48 83 f8 20          	cmp    $0x20,%rax
    244b:	0f 86 bf 0e 00 00    	jbe    3310 <riscv_dsp_dct_f32+0x1450>
    2451:	4d 89 c8             	mov    %r9,%r8
    2454:	48 8d 43 08          	lea    0x8(%rbx),%rax
    2458:	48 89 f2             	mov    %rsi,%rdx
    245b:	49 c1 e8 02          	shr    $0x2,%r8
    245f:	49 c1 e0 04          	shl    $0x4,%r8
    2463:	49 01 f0             	add    %rsi,%r8
    2466:	66 2e 0f 1f 84 00 00 	cs nopw 0x0(%rax,%rax,1)
    246d:	00 00 00 
    2470:	0f 10 02             	movups (%rdx),%xmm0
    2473:	48 83 c2 10          	add    $0x10,%rdx
    2477:	48 83 c0 40          	add    $0x40,%rax
    247b:	0f 28 c8             	movaps %xmm0,%xmm1
    247e:	f3 0f 11 40 c0       	movss  %xmm0,-0x40(%rax)
    2483:	0f c6 c8 55          	shufps $0x55,%xmm0,%xmm1
    2487:	f3 0f 11 48 d0       	movss  %xmm1,-0x30(%rax)
    248c:	0f 28 c8             	movaps %xmm0,%xmm1
    248f:	0f 15 c8             	unpckhps %xmm0,%xmm1
    2492:	0f c6 c0 ff          	shufps $0xff,%xmm0,%xmm0
    2496:	f3 0f 11 40 f0       	movss  %xmm0,-0x10(%rax)
    249b:	f3 0f 11 48 e0       	movss  %xmm1,-0x20(%rax)
    24a0:	4c 39 c2             	cmp    %r8,%rdx
    24a3:	75 cb                	jne    2470 <riscv_dsp_dct_f32+0x5b0>
    24a5:	4c 89 ca             	mov    %r9,%rdx
    24a8:	48 83 e2 fc          	and    $0xfffffffffffffffc,%rdx
    24ac:	48 89 d0             	mov    %rdx,%rax
    24af:	4c 8d 04 96          	lea    (%rsi,%rdx,4),%r8
    24b3:	48 c1 e0 04          	shl    $0x4,%rax
    24b7:	48 01 d8             	add    %rbx,%rax
    24ba:	4c 39 ca             	cmp    %r9,%rdx
    24bd:	74 32                	je     24f1 <riscv_dsp_dct_f32+0x631>
    24bf:	f3 41 0f 10 00       	movss  (%r8),%xmm0
    24c4:	48 8d 50 10          	lea    0x10(%rax),%rdx
    24c8:	f3 0f 11 40 08       	movss  %xmm0,0x8(%rax)
    24cd:	48 39 d1             	cmp    %rdx,%rcx
    24d0:	74 1f                	je     24f1 <riscv_dsp_dct_f32+0x631>
    24d2:	f3 41 0f 10 40 04    	movss  0x4(%r8),%xmm0
    24d8:	48 8d 50 20          	lea    0x20(%rax),%rdx
    24dc:	f3 0f 11 40 18       	movss  %xmm0,0x18(%rax)
    24e1:	48 39 d1             	cmp    %rdx,%rcx
    24e4:	74 0b                	je     24f1 <riscv_dsp_dct_f32+0x631>
    24e6:	f3 41 0f 10 40 08    	movss  0x8(%r8),%xmm0
    24ec:	f3 0f 11 40 28       	movss  %xmm0,0x28(%rax)
    24f1:	45 8d 6f fe          	lea    -0x2(%r15),%r13d
    24f5:	48 89 fc             	mov    %rdi,%rsp
    24f8:	41 83 ff 04          	cmp    $0x4,%r15d
    24fc:	0f 84 6e 06 00 00    	je     2b70 <riscv_dsp_dct_f32+0xcb0>
    2502:	44 89 e9             	mov    %r13d,%ecx
    2505:	b8 01 00 00 00       	mov    $0x1,%eax
    250a:	d3 e0                	shl    %cl,%eax
    250c:	89 45 b0             	mov    %eax,-0x50(%rbp)
    250f:	b8 04 00 00 00       	mov    $0x4,%eax
    2514:	d3 e0                	shl    %cl,%eax
    2516:	48 c1 e0 02          	shl    $0x2,%rax
    251a:	48 8d 0c 03          	lea    (%rbx,%rax,1),%rcx
    251e:	48 89 45 a8          	mov    %rax,-0x58(%rbp)
    2522:	48 89 d8             	mov    %rbx,%rax
    2525:	48 89 ca             	mov    %rcx,%rdx
    2528:	48 39 cb             	cmp    %rcx,%rbx
    252b:	74 2d                	je     255a <riscv_dsp_dct_f32+0x69a>
    252d:	0f 1f 00             	nopl   (%rax)
    2530:	f3 0f 10 00          	movss  (%rax),%xmm0
    2534:	f3 0f 10 4a f0       	movss  -0x10(%rdx),%xmm1
    2539:	48 83 ea 10          	sub    $0x10,%rdx
    253d:	48 83 c0 10          	add    $0x10,%rax
    2541:	0f 28 d0             	movaps %xmm0,%xmm2
    2544:	f3 0f 58 c1          	addss  %xmm1,%xmm0
    2548:	f3 0f 5c d1          	subss  %xmm1,%xmm2
    254c:	f3 0f 11 12          	movss  %xmm2,(%rdx)
    2550:	f3 0f 11 40 f0       	movss  %xmm0,-0x10(%rax)
    2555:	48 39 c2             	cmp    %rax,%rdx
    2558:	75 d6                	jne    2530 <riscv_dsp_dct_f32+0x670>
    255a:	8b 55 b0             	mov    -0x50(%rbp),%edx
    255d:	48 89 e6             	mov    %rsp,%rsi
    2560:	48 89 e7             	mov    %rsp,%rdi
    2563:	d1 ea                	shr    %edx
    2565:	48 c1 e2 02          	shl    $0x2,%rdx
    2569:	48 8d 42 0f          	lea    0xf(%rdx),%rax
    256d:	48 c1 e8 04          	shr    $0x4,%rax
    2571:	48 c1 e0 04          	shl    $0x4,%rax
    2575:	49 89 c0             	mov    %rax,%r8
    2578:	49 81 e0 00 f0 ff ff 	and    $0xfffffffffffff000,%r8
    257f:	4c 29 c6             	sub    %r8,%rsi
    2582:	48 39 f4             	cmp    %rsi,%rsp
    2585:	74 15                	je     259c <riscv_dsp_dct_f32+0x6dc>
    2587:	48 81 ec 00 10 00 00 	sub    $0x1000,%rsp
    258e:	48 83 8c 24 f8 0f 00 	orq    $0x0,0xff8(%rsp)
    2595:	00 00 
    2597:	48 39 f4             	cmp    %rsi,%rsp
    259a:	75 eb                	jne    2587 <riscv_dsp_dct_f32+0x6c7>
    259c:	25 ff 0f 00 00       	and    $0xfff,%eax
    25a1:	48 29 c4             	sub    %rax,%rsp
    25a4:	48 85 c0             	test   %rax,%rax
    25a7:	0f 85 25 0c 00 00    	jne    31d2 <riscv_dsp_dct_f32+0x1312>
    25ad:	89 d2                	mov    %edx,%edx
    25af:	48 89 e6             	mov    %rsp,%rsi
    25b2:	48 8d 04 93          	lea    (%rbx,%rdx,4),%rax
    25b6:	49 89 f0             	mov    %rsi,%r8
    25b9:	49 89 f1             	mov    %rsi,%r9
    25bc:	48 89 ca             	mov    %rcx,%rdx
    25bf:	48 39 c1             	cmp    %rax,%rcx
    25c2:	74 30                	je     25f4 <riscv_dsp_dct_f32+0x734>
    25c4:	0f 1f 40 00          	nopl   0x0(%rax)
    25c8:	f3 0f 10 42 f0       	movss  -0x10(%rdx),%xmm0
    25cd:	48 83 ea 10          	sub    $0x10,%rdx
    25d1:	49 83 c1 04          	add    $0x4,%r9
    25d5:	f3 41 0f 11 41 fc    	movss  %xmm0,-0x4(%r9)
    25db:	48 39 d0             	cmp    %rdx,%rax
    25de:	75 e8                	jne    25c8 <riscv_dsp_dct_f32+0x708>
    25e0:	48 8d 51 f0          	lea    -0x10(%rcx),%rdx
    25e4:	48 29 c2             	sub    %rax,%rdx
    25e7:	48 89 d0             	mov    %rdx,%rax
    25ea:	48 f7 d0             	not    %rax
    25ed:	48 83 e0 f0          	and    $0xfffffffffffffff0,%rax
    25f1:	48 01 c8             	add    %rcx,%rax
    25f4:	48 89 ca             	mov    %rcx,%rdx
    25f7:	48 39 c3             	cmp    %rax,%rbx
    25fa:	74 1a                	je     2616 <riscv_dsp_dct_f32+0x756>
    25fc:	0f 1f 40 00          	nopl   0x0(%rax)
    2600:	f3 0f 10 40 f0       	movss  -0x10(%rax),%xmm0
    2605:	48 83 e8 10          	sub    $0x10,%rax
    2609:	48 83 ea 20          	sub    $0x20,%rdx
    260d:	f3 0f 11 02          	movss  %xmm0,(%rdx)
    2611:	48 39 c3             	cmp    %rax,%rbx
    2614:	75 ea                	jne    2600 <riscv_dsp_dct_f32+0x740>
    2616:	48 39 cb             	cmp    %rcx,%rbx
    2619:	0f 84 f9 0c 00 00    	je     3318 <riscv_dsp_dct_f32+0x1458>
    261f:	48 8b 45 a8          	mov    -0x58(%rbp),%rax
    2623:	48 83 e8 20          	sub    $0x20,%rax
    2627:	49 89 c1             	mov    %rax,%r9
    262a:	49 c1 e9 05          	shr    $0x5,%r9
    262e:	49 83 c1 01          	add    $0x1,%r9
    2632:	48 83 f8 40          	cmp    $0x40,%rax
    2636:	0f 86 7d 0d 00 00    	jbe    33b9 <riscv_dsp_dct_f32+0x14f9>
    263c:	48 8d 43 10          	lea    0x10(%rbx),%rax
    2640:	4d 89 c8             	mov    %r9,%r8
    2643:	48 89 f2             	mov    %rsi,%rdx
    2646:	49 c1 e8 02          	shr    $0x2,%r8
    264a:	48 89 45 88          	mov    %rax,-0x78(%rbp)
    264e:	49 c1 e0 04          	shl    $0x4,%r8
    2652:	49 01 f0             	add    %rsi,%r8
    2655:	0f 1f 00             	nopl   (%rax)
    2658:	0f 10 02             	movups (%rdx),%xmm0
    265b:	48 83 c2 10          	add    $0x10,%rdx
    265f:	48 83 e8 80          	sub    $0xffffffffffffff80,%rax
    2663:	0f 28 c8             	movaps %xmm0,%xmm1
    2666:	f3 0f 11 40 80       	movss  %xmm0,-0x80(%rax)
    266b:	0f c6 c8 55          	shufps $0x55,%xmm0,%xmm1
    266f:	f3 0f 11 48 a0       	movss  %xmm1,-0x60(%rax)
    2674:	0f 28 c8             	movaps %xmm0,%xmm1
    2677:	0f 15 c8             	unpckhps %xmm0,%xmm1
    267a:	0f c6 c0 ff          	shufps $0xff,%xmm0,%xmm0
    267e:	f3 0f 11 40 e0       	movss  %xmm0,-0x20(%rax)
    2683:	f3 0f 11 48 c0       	movss  %xmm1,-0x40(%rax)
    2688:	4c 39 c2             	cmp    %r8,%rdx
    268b:	75 cb                	jne    2658 <riscv_dsp_dct_f32+0x798>
    268d:	4c 89 ca             	mov    %r9,%rdx
    2690:	48 83 e2 fc          	and    $0xfffffffffffffffc,%rdx
    2694:	48 89 d0             	mov    %rdx,%rax
    2697:	4c 8d 04 96          	lea    (%rsi,%rdx,4),%r8
    269b:	48 c1 e0 05          	shl    $0x5,%rax
    269f:	48 01 d8             	add    %rbx,%rax
    26a2:	4c 39 ca             	cmp    %r9,%rdx
    26a5:	74 32                	je     26d9 <riscv_dsp_dct_f32+0x819>
    26a7:	f3 41 0f 10 00       	movss  (%r8),%xmm0
    26ac:	48 8d 50 20          	lea    0x20(%rax),%rdx
    26b0:	f3 0f 11 40 10       	movss  %xmm0,0x10(%rax)
    26b5:	48 39 d1             	cmp    %rdx,%rcx
    26b8:	74 1f                	je     26d9 <riscv_dsp_dct_f32+0x819>
    26ba:	f3 41 0f 10 40 04    	movss  0x4(%r8),%xmm0
    26c0:	48 8d 50 40          	lea    0x40(%rax),%rdx
    26c4:	f3 0f 11 40 30       	movss  %xmm0,0x30(%rax)
    26c9:	48 39 d1             	cmp    %rdx,%rcx
    26cc:	74 0b                	je     26d9 <riscv_dsp_dct_f32+0x819>
    26ce:	f3 41 0f 10 40 08    	movss  0x8(%r8),%xmm0
    26d4:	f3 0f 11 40 50       	movss  %xmm0,0x50(%rax)
    26d9:	41 8d 47 fd          	lea    -0x3(%r15),%eax
    26dd:	48 89 fc             	mov    %rdi,%rsp
    26e0:	89 45 94             	mov    %eax,-0x6c(%rbp)
    26e3:	41 83 ff 05          	cmp    $0x5,%r15d
    26e7:	0f 84 db 08 00 00    	je     2fc8 <riscv_dsp_dct_f32+0x1108>
    26ed:	41 8d 7f fd          	lea    -0x3(%r15),%edi
    26f1:	b8 08 00 00 00       	mov    $0x8,%eax
    26f6:	be 01 00 00 00       	mov    $0x1,%esi
    26fb:	48 89 da             	mov    %rbx,%rdx
    26fe:	89 f9                	mov    %edi,%ecx
    2700:	d3 e0                	shl    %cl,%eax
    2702:	d3 e6                	shl    %cl,%esi
    2704:	48 8d 04 83          	lea    (%rbx,%rax,4),%rax
    2708:	48 39 c3             	cmp    %rax,%rbx
    270b:	74 2d                	je     273a <riscv_dsp_dct_f32+0x87a>
    270d:	0f 1f 00             	nopl   (%rax)
    2710:	f3 0f 10 02          	movss  (%rdx),%xmm0
    2714:	f3 0f 10 48 e0       	movss  -0x20(%rax),%xmm1
    2719:	48 83 e8 20          	sub    $0x20,%rax
    271d:	48 83 c2 20          	add    $0x20,%rdx
    2721:	0f 28 d0             	movaps %xmm0,%xmm2
    2724:	f3 0f 58 c1          	addss  %xmm1,%xmm0
    2728:	f3 0f 5c d1          	subss  %xmm1,%xmm2
    272c:	f3 0f 11 10          	movss  %xmm2,(%rax)
    2730:	f3 0f 11 42 e0       	movss  %xmm0,-0x20(%rdx)
    2735:	48 39 d0             	cmp    %rdx,%rax
    2738:	75 d6                	jne    2710 <riscv_dsp_dct_f32+0x850>
    273a:	ba 08 00 00 00       	mov    $0x8,%edx
    273f:	48 89 df             	mov    %rbx,%rdi
    2742:	e8 89 ef ff ff       	call   16d0 <riscv_dsp_dct_swap_f32>
    2747:	41 8d 47 fc          	lea    -0x4(%r15),%eax
    274b:	89 45 90             	mov    %eax,-0x70(%rbp)
    274e:	41 83 ff 06          	cmp    $0x6,%r15d
    2752:	0f 84 c8 09 00 00    	je     3120 <riscv_dsp_dct_f32+0x1260>
    2758:	41 8d 7f fc          	lea    -0x4(%r15),%edi
    275c:	b8 10 00 00 00       	mov    $0x10,%eax
    2761:	be 01 00 00 00       	mov    $0x1,%esi
    2766:	48 89 da             	mov    %rbx,%rdx
    2769:	89 f9                	mov    %edi,%ecx
    276b:	d3 e0                	shl    %cl,%eax
    276d:	d3 e6                	shl    %cl,%esi
    276f:	48 8d 04 83          	lea    (%rbx,%rax,4),%rax
    2773:	48 39 c3             	cmp    %rax,%rbx
    2776:	74 32                	je     27aa <riscv_dsp_dct_f32+0x8ea>
    2778:	0f 1f 84 00 00 00 00 	nopl   0x0(%rax,%rax,1)
    277f:	00 
    2780:	f3 0f 10 02          	movss  (%rdx),%xmm0
    2784:	f3 0f 10 48 c0       	movss  -0x40(%rax),%xmm1
    2789:	48 83 e8 40          	sub    $0x40,%rax
    278d:	48 83 c2 40          	add    $0x40,%rdx
    2791:	0f 28 d0             	movaps %xmm0,%xmm2
    2794:	f3 0f 58 c1          	addss  %xmm1,%xmm0
    2798:	f3 0f 5c d1          	subss  %xmm1,%xmm2
    279c:	f3 0f 11 10          	movss  %xmm2,(%rax)
    27a0:	f3 0f 11 42 c0       	movss  %xmm0,-0x40(%rdx)
    27a5:	48 39 d0             	cmp    %rdx,%rax
    27a8:	75 d6                	jne    2780 <riscv_dsp_dct_f32+0x8c0>
    27aa:	ba 10 00 00 00       	mov    $0x10,%edx
    27af:	48 89 df             	mov    %rbx,%rdi
    27b2:	e8 19 ef ff ff       	call   16d0 <riscv_dsp_dct_swap_f32>
    27b7:	41 8d 47 fb          	lea    -0x5(%r15),%eax
    27bb:	89 45 84             	mov    %eax,-0x7c(%rbp)
    27be:	41 83 ff 07          	cmp    $0x7,%r15d
    27c2:	0f 84 b4 0a 00 00    	je     327c <riscv_dsp_dct_f32+0x13bc>
    27c8:	41 8d 7f fb          	lea    -0x5(%r15),%edi
    27cc:	b8 20 00 00 00       	mov    $0x20,%eax
    27d1:	be 01 00 00 00       	mov    $0x1,%esi
    27d6:	48 89 da             	mov    %rbx,%rdx
    27d9:	89 f9                	mov    %edi,%ecx
    27db:	d3 e0                	shl    %cl,%eax
    27dd:	d3 e6                	shl    %cl,%esi
    27df:	48 8d 04 83          	lea    (%rbx,%rax,4),%rax
    27e3:	48 39 c3             	cmp    %rax,%rbx
    27e6:	74 32                	je     281a <riscv_dsp_dct_f32+0x95a>
    27e8:	0f 1f 84 00 00 00 00 	nopl   0x0(%rax,%rax,1)
    27ef:	00 
    27f0:	f3 0f 10 02          	movss  (%rdx),%xmm0
    27f4:	f3 0f 10 48 80       	movss  -0x80(%rax),%xmm1
    27f9:	48 83 c0 80          	add    $0xffffffffffffff80,%rax
    27fd:	48 83 ea 80          	sub    $0xffffffffffffff80,%rdx
    2801:	0f 28 d0             	movaps %xmm0,%xmm2
    2804:	f3 0f 58 c1          	addss  %xmm1,%xmm0
    2808:	f3 0f 5c d1          	subss  %xmm1,%xmm2
    280c:	f3 0f 11 10          	movss  %xmm2,(%rax)
    2810:	f3 0f 11 42 80       	movss  %xmm0,-0x80(%rdx)
    2815:	48 39 d0             	cmp    %rdx,%rax
    2818:	75 d6                	jne    27f0 <riscv_dsp_dct_f32+0x930>
    281a:	ba 20 00 00 00       	mov    $0x20,%edx
    281f:	48 89 df             	mov    %rbx,%rdi
    2822:	e8 a9 ee ff ff       	call   16d0 <riscv_dsp_dct_swap_f32>
    2827:	41 8d 47 fa          	lea    -0x6(%r15),%eax
    282b:	89 45 80             	mov    %eax,-0x80(%rbp)
    282e:	41 83 ff 08          	cmp    $0x8,%r15d
    2832:	0f 84 ed 0a 00 00    	je     3325 <riscv_dsp_dct_f32+0x1465>
    2838:	41 8d 7f fa          	lea    -0x6(%r15),%edi
    283c:	b8 40 00 00 00       	mov    $0x40,%eax
    2841:	be 01 00 00 00       	mov    $0x1,%esi
    2846:	48 89 da             	mov    %rbx,%rdx
    2849:	89 f9                	mov    %edi,%ecx
    284b:	d3 e0                	shl    %cl,%eax
    284d:	d3 e6                	shl    %cl,%esi
    284f:	48 8d 04 83          	lea    (%rbx,%rax,4),%rax
    2853:	48 39 c3             	cmp    %rax,%rbx
    2856:	74 3d                	je     2895 <riscv_dsp_dct_f32+0x9d5>
    2858:	0f 1f 84 00 00 00 00 	nopl   0x0(%rax,%rax,1)
    285f:	00 
    2860:	f3 0f 10 02          	movss  (%rdx),%xmm0
    2864:	f3 0f 10 88 00 ff ff 	movss  -0x100(%rax),%xmm1
    286b:	ff 
    286c:	48 2d 00 01 00 00    	sub    $0x100,%rax
    2872:	48 81 c2 00 01 00 00 	add    $0x100,%rdx
    2879:	0f 28 d0             	movaps %xmm0,%xmm2
    287c:	f3 0f 58 c1          	addss  %xmm1,%xmm0
    2880:	f3 0f 5c d1          	subss  %xmm1,%xmm2
    2884:	f3 0f 11 10          	movss  %xmm2,(%rax)
    2888:	f3 0f 11 82 00 ff ff 	movss  %xmm0,-0x100(%rdx)
    288f:	ff 
    2890:	48 39 d0             	cmp    %rdx,%rax
    2893:	75 cb                	jne    2860 <riscv_dsp_dct_f32+0x9a0>
    2895:	ba 40 00 00 00       	mov    $0x40,%edx
    289a:	48 89 df             	mov    %rbx,%rdi
    289d:	e8 2e ee ff ff       	call   16d0 <riscv_dsp_dct_swap_f32>
    28a2:	41 8d 4f f9          	lea    -0x7(%r15),%ecx
    28a6:	41 83 ff 09          	cmp    $0x9,%r15d
    28aa:	0f 84 38 09 00 00    	je     31e8 <riscv_dsp_dct_f32+0x1328>
    28b0:	b8 80 00 00 00       	mov    $0x80,%eax
    28b5:	be 01 00 00 00       	mov    $0x1,%esi
    28ba:	48 89 da             	mov    %rbx,%rdx
    28bd:	d3 e0                	shl    %cl,%eax
    28bf:	d3 e6                	shl    %cl,%esi
    28c1:	48 8d 04 83          	lea    (%rbx,%rax,4),%rax
    28c5:	48 39 c3             	cmp    %rax,%rbx
    28c8:	74 3b                	je     2905 <riscv_dsp_dct_f32+0xa45>
    28ca:	66 0f 1f 44 00 00    	nopw   0x0(%rax,%rax,1)
    28d0:	f3 0f 10 02          	movss  (%rdx),%xmm0
    28d4:	f3 0f 10 88 00 fe ff 	movss  -0x200(%rax),%xmm1
    28db:	ff 
    28dc:	48 2d 00 02 00 00    	sub    $0x200,%rax
    28e2:	48 81 c2 00 02 00 00 	add    $0x200,%rdx
    28e9:	0f 28 d0             	movaps %xmm0,%xmm2
    28ec:	f3 0f 58 c1          	addss  %xmm1,%xmm0
    28f0:	f3 0f 5c d1          	subss  %xmm1,%xmm2
    28f4:	f3 0f 11 10          	movss  %xmm2,(%rax)
    28f8:	f3 0f 11 82 00 fe ff 	movss  %xmm0,-0x200(%rdx)
    28ff:	ff 
    2900:	48 39 d0             	cmp    %rdx,%rax
    2903:	75 cb                	jne    28d0 <riscv_dsp_dct_f32+0xa10>
    2905:	ba 80 00 00 00       	mov    $0x80,%edx
    290a:	48 89 df             	mov    %rbx,%rdi
    290d:	41 83 ef 08          	sub    $0x8,%r15d
    2911:	89 8d 74 ff ff ff    	mov    %ecx,-0x8c(%rbp)
    2917:	e8 b4 ed ff ff       	call   16d0 <riscv_dsp_dct_swap_f32>
    291c:	ba 00 01 00 00       	mov    $0x100,%edx
    2921:	44 89 fe             	mov    %r15d,%esi
    2924:	48 89 df             	mov    %rbx,%rdi
    2927:	e8 04 f4 ff ff       	call   1d30 <riscv_dsp_dct_e_f32>
    292c:	48 8d bb 00 02 00 00 	lea    0x200(%rbx),%rdi
    2933:	ba 00 01 00 00       	mov    $0x100,%edx
    2938:	44 89 fe             	mov    %r15d,%esi
    293b:	e8 70 f2 ff ff       	call   1bb0 <riscv_dsp_dct_o_f32>
    2940:	8b 8d 74 ff ff ff    	mov    -0x8c(%rbp),%ecx
    2946:	48 8d bb 00 01 00 00 	lea    0x100(%rbx),%rdi
    294d:	ba 80 00 00 00       	mov    $0x80,%edx
    2952:	89 ce                	mov    %ecx,%esi
    2954:	e8 57 f2 ff ff       	call   1bb0 <riscv_dsp_dct_o_f32>
    2959:	8b 75 80             	mov    -0x80(%rbp),%esi
    295c:	48 8d bb 80 00 00 00 	lea    0x80(%rbx),%rdi
    2963:	ba 40 00 00 00       	mov    $0x40,%edx
    2968:	e8 43 f2 ff ff       	call   1bb0 <riscv_dsp_dct_o_f32>
    296d:	8b 75 84             	mov    -0x7c(%rbp),%esi
    2970:	48 8d 7b 40          	lea    0x40(%rbx),%rdi
    2974:	ba 20 00 00 00       	mov    $0x20,%edx
    2979:	e8 32 f2 ff ff       	call   1bb0 <riscv_dsp_dct_o_f32>
    297e:	e9 26 08 00 00       	jmp    31a9 <riscv_dsp_dct_f32+0x12e9>
    2983:	0f 1f 44 00 00       	nopl   0x0(%rax,%rax,1)
    2988:	f3 0f 10 47 0c       	movss  0xc(%rdi),%xmm0
    298d:	0f 28 ca             	movaps %xmm2,%xmm1
    2990:	f3 0f 10 5f 08       	movss  0x8(%rdi),%xmm3
    2995:	f3 0f 10 35 db 5f 00 	movss  0x5fdb(%rip),%xmm6        # 8978 <test_fft_Input_f64_256+0x838>
    299c:	00 
    299d:	f3 0f 10 3d cf 5f 00 	movss  0x5fcf(%rip),%xmm7        # 8974 <test_fft_Input_f64_256+0x834>
    29a4:	00 
    29a5:	f3 0f 5c c8          	subss  %xmm0,%xmm1
    29a9:	f3 0f 58 c2          	addss  %xmm2,%xmm0
    29ad:	f3 0f 10 57 04       	movss  0x4(%rdi),%xmm2
    29b2:	0f 28 e2             	movaps %xmm2,%xmm4
    29b5:	f3 0f 5c e3          	subss  %xmm3,%xmm4
    29b9:	0f 28 e9             	movaps %xmm1,%xmm5
    29bc:	f3 0f 58 da          	addss  %xmm2,%xmm3
    29c0:	f3 0f 59 cf          	mulss  %xmm7,%xmm1
    29c4:	0f 28 d0             	movaps %xmm0,%xmm2
    29c7:	f3 0f 59 ee          	mulss  %xmm6,%xmm5
    29cb:	44 0f 28 c4          	movaps %xmm4,%xmm8
    29cf:	f3 0f 5c c3          	subss  %xmm3,%xmm0
    29d3:	f3 0f 58 d3          	addss  %xmm3,%xmm2
    29d7:	f3 0f 59 e6          	mulss  %xmm6,%xmm4
    29db:	f3 44 0f 59 c7       	mulss  %xmm7,%xmm8
    29e0:	f3 0f 59 05 88 5f 00 	mulss  0x5f88(%rip),%xmm0        # 8970 <test_fft_Input_f64_256+0x830>
    29e7:	00 
    29e8:	f3 0f 5c cc          	subss  %xmm4,%xmm1
    29ec:	f3 41 0f 58 e8       	addss  %xmm8,%xmm5
    29f1:	0f 14 c1             	unpcklps %xmm1,%xmm0
    29f4:	0f 28 ca             	movaps %xmm2,%xmm1
    29f7:	0f 14 cd             	unpcklps %xmm5,%xmm1
    29fa:	0f 16 c8             	movlhps %xmm0,%xmm1
    29fd:	0f 11 0f             	movups %xmm1,(%rdi)
    2a00:	48 8b 45 c8          	mov    -0x38(%rbp),%rax
    2a04:	64 48 2b 04 25 28 00 	sub    %fs:0x28,%rax
    2a0b:	00 00 
    2a0d:	0f 85 be 09 00 00    	jne    33d1 <riscv_dsp_dct_f32+0x1511>
    2a13:	48 8d 65 d8          	lea    -0x28(%rbp),%rsp
    2a17:	5b                   	pop    %rbx
    2a18:	41 5c                	pop    %r12
    2a1a:	41 5d                	pop    %r13
    2a1c:	41 5e                	pop    %r14
    2a1e:	41 5f                	pop    %r15
    2a20:	5d                   	pop    %rbp
    2a21:	c3                   	ret    
    2a22:	48 89 d9             	mov    %rbx,%rcx
    2a25:	31 c0                	xor    %eax,%eax
    2a27:	e9 83 f5 ff ff       	jmp    1faf <riscv_dsp_dct_f32+0xef>
    2a2c:	0f 1f 40 00          	nopl   0x0(%rax)
    2a30:	f3 0f 10 03          	movss  (%rbx),%xmm0
    2a34:	f3 0f 10 4b 18       	movss  0x18(%rbx),%xmm1
    2a39:	f3 0f 10 7b 10       	movss  0x10(%rbx),%xmm7
    2a3e:	f3 0f 10 63 0c       	movss  0xc(%rbx),%xmm4
    2a43:	0f 28 d8             	movaps %xmm0,%xmm3
    2a46:	f3 0f 58 c1          	addss  %xmm1,%xmm0
    2a4a:	f3 0f 10 53 14       	movss  0x14(%rbx),%xmm2
    2a4f:	f3 44 0f 10 05 18 5f 	movss  0x5f18(%rip),%xmm8        # 8970 <test_fft_Input_f64_256+0x830>
    2a56:	00 00 
    2a58:	f3 44 0f 10 15 17 5f 	movss  0x5f17(%rip),%xmm10        # 8978 <test_fft_Input_f64_256+0x838>
    2a5f:	00 00 
    2a61:	f3 0f 5c d9          	subss  %xmm1,%xmm3
    2a65:	f3 0f 10 4b 08       	movss  0x8(%rbx),%xmm1
    2a6a:	f3 44 0f 10 1d 01 5f 	movss  0x5f01(%rip),%xmm11        # 8974 <test_fft_Input_f64_256+0x834>
    2a71:	00 00 
    2a73:	0f 28 f1             	movaps %xmm1,%xmm6
    2a76:	f3 0f 5c f7          	subss  %xmm7,%xmm6
    2a7a:	f3 0f 58 f9          	addss  %xmm1,%xmm7
    2a7e:	f3 0f 10 4b 04       	movss  0x4(%rbx),%xmm1
    2a83:	44 0f 28 e3          	movaps %xmm3,%xmm12
    2a87:	f3 45 0f 59 e2       	mulss  %xmm10,%xmm12
    2a8c:	f3 41 0f 59 db       	mulss  %xmm11,%xmm3
    2a91:	44 0f 28 c9          	movaps %xmm1,%xmm9
    2a95:	0f 28 e9             	movaps %xmm1,%xmm5
    2a98:	f3 44 0f 58 cc       	addss  %xmm4,%xmm9
    2a9d:	f3 0f 58 e2          	addss  %xmm2,%xmm4
    2aa1:	44 0f 28 f6          	movaps %xmm6,%xmm14
    2aa5:	f3 0f 58 53 1c       	addss  0x1c(%rbx),%xmm2
    2aaa:	f3 45 0f 59 f3       	mulss  %xmm11,%xmm14
    2aaf:	f3 41 0f 59 f2       	mulss  %xmm10,%xmm6
    2ab4:	f3 41 0f 59 e0       	mulss  %xmm8,%xmm4
    2ab9:	f3 41 0f 58 d1       	addss  %xmm9,%xmm2
    2abe:	f3 45 0f 58 e6       	addss  %xmm14,%xmm12
    2ac3:	f3 41 0f 59 d0       	mulss  %xmm8,%xmm2
    2ac8:	f3 0f 5c de          	subss  %xmm6,%xmm3
    2acc:	f3 0f 5c ec          	subss  %xmm4,%xmm5
    2ad0:	f3 0f 58 cc          	addss  %xmm4,%xmm1
    2ad4:	41 0f 28 e1          	movaps %xmm9,%xmm4
    2ad8:	44 0f 28 e9          	movaps %xmm1,%xmm13
    2adc:	44 0f 28 f5          	movaps %xmm5,%xmm14
    2ae0:	f3 44 0f 5c ca       	subss  %xmm2,%xmm9
    2ae5:	f3 0f 58 e2          	addss  %xmm2,%xmm4
    2ae9:	f3 0f 10 15 8f 5e 00 	movss  0x5e8f(%rip),%xmm2        # 8980 <test_fft_Input_f64_256+0x840>
    2af0:	00 
    2af1:	f3 0f 59 25 83 5e 00 	mulss  0x5e83(%rip),%xmm4        # 897c <test_fft_Input_f64_256+0x83c>
    2af8:	00 
    2af9:	f3 41 0f 59 d1       	mulss  %xmm9,%xmm2
    2afe:	44 0f 28 c8          	movaps %xmm0,%xmm9
    2b02:	f3 0f 5c c7          	subss  %xmm7,%xmm0
    2b06:	f3 44 0f 58 cf       	addss  %xmm7,%xmm9
    2b0b:	f3 44 0f 58 ec       	addss  %xmm4,%xmm13
    2b10:	f3 0f 5c cc          	subss  %xmm4,%xmm1
    2b14:	f3 44 0f 59 2d 67 5e 	mulss  0x5e67(%rip),%xmm13        # 8984 <test_fft_Input_f64_256+0x844>
    2b1b:	00 00 
    2b1d:	f3 41 0f 59 c0       	mulss  %xmm8,%xmm0
    2b22:	f3 0f 59 0d 5e 5e 00 	mulss  0x5e5e(%rip),%xmm1        # 8988 <test_fft_Input_f64_256+0x848>
    2b29:	00 
    2b2a:	f3 44 0f 58 f2       	addss  %xmm2,%xmm14
    2b2f:	f3 0f 5c ea          	subss  %xmm2,%xmm5
    2b33:	f3 44 0f 59 35 50 5e 	mulss  0x5e50(%rip),%xmm14        # 898c <test_fft_Input_f64_256+0x84c>
    2b3a:	00 00 
    2b3c:	f3 0f 59 2d 4c 5e 00 	mulss  0x5e4c(%rip),%xmm5        # 8990 <test_fft_Input_f64_256+0x850>
    2b43:	00 
    2b44:	45 0f 14 cd          	unpcklps %xmm13,%xmm9
    2b48:	0f 14 d9             	unpcklps %xmm1,%xmm3
    2b4b:	45 0f 14 e6          	unpcklps %xmm14,%xmm12
    2b4f:	0f 14 c5             	unpcklps %xmm5,%xmm0
    2b52:	45 0f 16 cc          	movlhps %xmm12,%xmm9
    2b56:	0f 16 c3             	movlhps %xmm3,%xmm0
    2b59:	44 0f 11 0b          	movups %xmm9,(%rbx)
    2b5d:	0f 11 43 10          	movups %xmm0,0x10(%rbx)
    2b61:	e9 9a fe ff ff       	jmp    2a00 <riscv_dsp_dct_f32+0xb40>
    2b66:	66 2e 0f 1f 84 00 00 	cs nopw 0x0(%rax,%rax,1)
    2b6d:	00 00 00 
    2b70:	f3 0f 10 03          	movss  (%rbx),%xmm0
    2b74:	f3 0f 10 53 30       	movss  0x30(%rbx),%xmm2
    2b79:	f3 0f 10 63 10       	movss  0x10(%rbx),%xmm4
    2b7e:	f3 0f 10 2d ea 5d 00 	movss  0x5dea(%rip),%xmm5        # 8970 <test_fft_Input_f64_256+0x830>
    2b85:	00 
    2b86:	0f 28 c8             	movaps %xmm0,%xmm1
    2b89:	f3 0f 58 c2          	addss  %xmm2,%xmm0
    2b8d:	f3 0f 5c ca          	subss  %xmm2,%xmm1
    2b91:	f3 0f 10 53 20       	movss  0x20(%rbx),%xmm2
    2b96:	0f 28 dc             	movaps %xmm4,%xmm3
    2b99:	f3 0f 5c da          	subss  %xmm2,%xmm3
    2b9d:	f3 0f 58 d4          	addss  %xmm4,%xmm2
    2ba1:	0f 28 e0             	movaps %xmm0,%xmm4
    2ba4:	f3 0f 5c c2          	subss  %xmm2,%xmm0
    2ba8:	f3 0f 58 e2          	addss  %xmm2,%xmm4
    2bac:	f3 0f 10 15 c4 5d 00 	movss  0x5dc4(%rip),%xmm2        # 8978 <test_fft_Input_f64_256+0x838>
    2bb3:	00 
    2bb4:	0f 28 f3             	movaps %xmm3,%xmm6
    2bb7:	f3 0f 59 da          	mulss  %xmm2,%xmm3
    2bbb:	f3 0f 59 c5          	mulss  %xmm5,%xmm0
    2bbf:	f3 0f 11 23          	movss  %xmm4,(%rbx)
    2bc3:	f3 0f 10 25 a9 5d 00 	movss  0x5da9(%rip),%xmm4        # 8974 <test_fft_Input_f64_256+0x834>
    2bca:	00 
    2bcb:	f3 0f 59 f4          	mulss  %xmm4,%xmm6
    2bcf:	f3 0f 11 43 20       	movss  %xmm0,0x20(%rbx)
    2bd4:	0f 28 c1             	movaps %xmm1,%xmm0
    2bd7:	f3 0f 59 c2          	mulss  %xmm2,%xmm0
    2bdb:	f3 0f 59 cc          	mulss  %xmm4,%xmm1
    2bdf:	f3 0f 58 c6          	addss  %xmm6,%xmm0
    2be3:	f3 0f 5c cb          	subss  %xmm3,%xmm1
    2be7:	f3 0f 10 5b 18       	movss  0x18(%rbx),%xmm3
    2bec:	f3 0f 11 43 10       	movss  %xmm0,0x10(%rbx)
    2bf1:	f3 0f 10 43 08       	movss  0x8(%rbx),%xmm0
    2bf6:	f3 0f 11 4b 30       	movss  %xmm1,0x30(%rbx)
    2bfb:	f3 0f 10 4b 28       	movss  0x28(%rbx),%xmm1
    2c00:	0f 28 d0             	movaps %xmm0,%xmm2
    2c03:	0f 28 e0             	movaps %xmm0,%xmm4
    2c06:	f3 0f 58 d3          	addss  %xmm3,%xmm2
    2c0a:	f3 0f 58 d9          	addss  %xmm1,%xmm3
    2c0e:	f3 0f 58 4b 38       	addss  0x38(%rbx),%xmm1
    2c13:	f3 0f 59 dd          	mulss  %xmm5,%xmm3
    2c17:	f3 0f 58 ca          	addss  %xmm2,%xmm1
    2c1b:	f3 0f 59 cd          	mulss  %xmm5,%xmm1
    2c1f:	f3 0f 5c e3          	subss  %xmm3,%xmm4
    2c23:	f3 0f 58 c3          	addss  %xmm3,%xmm0
    2c27:	0f 28 da             	movaps %xmm2,%xmm3
    2c2a:	f3 0f 58 d9          	addss  %xmm1,%xmm3
    2c2e:	f3 0f 59 1d 46 5d 00 	mulss  0x5d46(%rip),%xmm3        # 897c <test_fft_Input_f64_256+0x83c>
    2c35:	00 
    2c36:	f3 0f 5c d1          	subss  %xmm1,%xmm2
    2c3a:	f3 0f 59 15 3e 5d 00 	mulss  0x5d3e(%rip),%xmm2        # 8980 <test_fft_Input_f64_256+0x840>
    2c41:	00 
    2c42:	0f 28 c8             	movaps %xmm0,%xmm1
    2c45:	f3 0f 5c c3          	subss  %xmm3,%xmm0
    2c49:	f3 0f 59 05 37 5d 00 	mulss  0x5d37(%rip),%xmm0        # 8988 <test_fft_Input_f64_256+0x848>
    2c50:	00 
    2c51:	f3 0f 58 cb          	addss  %xmm3,%xmm1
    2c55:	f3 0f 59 0d 27 5d 00 	mulss  0x5d27(%rip),%xmm1        # 8984 <test_fft_Input_f64_256+0x844>
    2c5c:	00 
    2c5d:	f3 0f 11 43 38       	movss  %xmm0,0x38(%rbx)
    2c62:	0f 28 c4             	movaps %xmm4,%xmm0
    2c65:	f3 0f 5c e2          	subss  %xmm2,%xmm4
    2c69:	f3 0f 58 c2          	addss  %xmm2,%xmm0
    2c6d:	f3 0f 59 25 1b 5d 00 	mulss  0x5d1b(%rip),%xmm4        # 8990 <test_fft_Input_f64_256+0x850>
    2c74:	00 
    2c75:	f3 0f 11 4b 08       	movss  %xmm1,0x8(%rbx)
    2c7a:	f3 0f 59 05 0a 5d 00 	mulss  0x5d0a(%rip),%xmm0        # 898c <test_fft_Input_f64_256+0x84c>
    2c81:	00 
    2c82:	f3 0f 11 63 28       	movss  %xmm4,0x28(%rbx)
    2c87:	f3 0f 11 43 18       	movss  %xmm0,0x18(%rbx)
    2c8c:	8b 75 b8             	mov    -0x48(%rbp),%esi
    2c8f:	48 8d 43 04          	lea    0x4(%rbx),%rax
    2c93:	8d 4c 36 fe          	lea    -0x2(%rsi,%rsi,1),%ecx
    2c97:	48 c1 e1 02          	shl    $0x2,%rcx
    2c9b:	4c 8d 3c 08          	lea    (%rax,%rcx,1),%r15
    2c9f:	49 39 c7             	cmp    %rax,%r15
    2ca2:	74 25                	je     2cc9 <riscv_dsp_dct_f32+0xe09>
    2ca4:	f3 0f 10 4c 0b 04    	movss  0x4(%rbx,%rcx,1),%xmm1
    2caa:	4c 89 fa             	mov    %r15,%rdx
    2cad:	0f 1f 00             	nopl   (%rax)
    2cb0:	48 83 ea 08          	sub    $0x8,%rdx
    2cb4:	0f 28 c1             	movaps %xmm1,%xmm0
    2cb7:	f3 0f 10 0a          	movss  (%rdx),%xmm1
    2cbb:	f3 0f 58 c1          	addss  %xmm1,%xmm0
    2cbf:	f3 0f 11 42 08       	movss  %xmm0,0x8(%rdx)
    2cc4:	48 39 c2             	cmp    %rax,%rdx
    2cc7:	75 e7                	jne    2cb0 <riscv_dsp_dct_f32+0xdf0>
    2cc9:	48 89 c7             	mov    %rax,%rdi
    2ccc:	ba 04 00 00 00       	mov    $0x4,%edx
    2cd1:	44 89 ee             	mov    %r13d,%esi
    2cd4:	48 89 4d b0          	mov    %rcx,-0x50(%rbp)
    2cd8:	48 89 45 b8          	mov    %rax,-0x48(%rbp)
    2cdc:	e8 3f eb ff ff       	call   1820 <riscv_dsp_idct_o_f32>
    2ce1:	48 8d 7b 0c          	lea    0xc(%rbx),%rdi
    2ce5:	48 8b 45 b8          	mov    -0x48(%rbp),%rax
    2ce9:	48 8b 4d b0          	mov    -0x50(%rbp),%rcx
    2ced:	49 39 ff             	cmp    %rdi,%r15
    2cf0:	74 21                	je     2d13 <riscv_dsp_dct_f32+0xe53>
    2cf2:	f3 0f 10 4c 0b 04    	movss  0x4(%rbx,%rcx,1),%xmm1
    2cf8:	49 83 ef 10          	sub    $0x10,%r15
    2cfc:	0f 28 c1             	movaps %xmm1,%xmm0
    2cff:	f3 41 0f 10 0f       	movss  (%r15),%xmm1
    2d04:	f3 0f 58 c1          	addss  %xmm1,%xmm0
    2d08:	f3 41 0f 11 47 10    	movss  %xmm0,0x10(%r15)
    2d0e:	4c 39 ff             	cmp    %r15,%rdi
    2d11:	75 e5                	jne    2cf8 <riscv_dsp_dct_f32+0xe38>
    2d13:	ba 04 00 00 00       	mov    $0x4,%edx
    2d18:	44 89 ee             	mov    %r13d,%esi
    2d1b:	48 89 45 b8          	mov    %rax,-0x48(%rbp)
    2d1f:	e8 fc ea ff ff       	call   1820 <riscv_dsp_idct_o_f32>
    2d24:	48 8b 55 a0          	mov    -0x60(%rbp),%rdx
    2d28:	48 89 e1             	mov    %rsp,%rcx
    2d2b:	48 8b 45 b8          	mov    -0x48(%rbp),%rax
    2d2f:	48 89 e6             	mov    %rsp,%rsi
    2d32:	48 c1 ea 04          	shr    $0x4,%rdx
    2d36:	48 c1 e2 04          	shl    $0x4,%rdx
    2d3a:	48 89 d7             	mov    %rdx,%rdi
    2d3d:	48 81 e7 00 f0 ff ff 	and    $0xfffffffffffff000,%rdi
    2d44:	48 29 f9             	sub    %rdi,%rcx
    2d47:	48 39 cc             	cmp    %rcx,%rsp
    2d4a:	74 15                	je     2d61 <riscv_dsp_dct_f32+0xea1>
    2d4c:	48 81 ec 00 10 00 00 	sub    $0x1000,%rsp
    2d53:	48 83 8c 24 f8 0f 00 	orq    $0x0,0xff8(%rsp)
    2d5a:	00 00 
    2d5c:	48 39 cc             	cmp    %rcx,%rsp
    2d5f:	75 eb                	jne    2d4c <riscv_dsp_dct_f32+0xe8c>
    2d61:	81 e2 ff 0f 00 00    	and    $0xfff,%edx
    2d67:	48 29 d4             	sub    %rdx,%rsp
    2d6a:	48 85 d2             	test   %rdx,%rdx
    2d6d:	0f 85 6a 04 00 00    	jne    31dd <riscv_dsp_dct_f32+0x131d>
    2d73:	4c 8b 85 78 ff ff ff 	mov    -0x88(%rbp),%r8
    2d7a:	48 89 e7             	mov    %rsp,%rdi
    2d7d:	49 01 c4             	add    %rax,%r12
    2d80:	49 89 f9             	mov    %rdi,%r9
    2d83:	48 89 f9             	mov    %rdi,%rcx
    2d86:	4c 89 e2             	mov    %r12,%rdx
    2d89:	49 01 c0             	add    %rax,%r8
    2d8c:	4c 39 e0             	cmp    %r12,%rax
    2d8f:	0f 84 34 06 00 00    	je     33c9 <riscv_dsp_dct_f32+0x1509>
    2d95:	0f 1f 00             	nopl   (%rax)
    2d98:	f3 0f 10 42 f8       	movss  -0x8(%rdx),%xmm0
    2d9d:	48 83 ea 10          	sub    $0x10,%rdx
    2da1:	48 83 c1 04          	add    $0x4,%rcx
    2da5:	f3 0f 11 41 fc       	movss  %xmm0,-0x4(%rcx)
    2daa:	48 39 d0             	cmp    %rdx,%rax
    2dad:	75 e9                	jne    2d98 <riscv_dsp_dct_f32+0xed8>
    2daf:	4c 89 e2             	mov    %r12,%rdx
    2db2:	48 29 da             	sub    %rbx,%rdx
    2db5:	48 8d 4a ec          	lea    -0x14(%rdx),%rcx
    2db9:	48 f7 d1             	not    %rcx
    2dbc:	48 83 e1 f0          	and    $0xfffffffffffffff0,%rcx
    2dc0:	4c 01 e1             	add    %r12,%rcx
    2dc3:	4d 8d 50 f8          	lea    -0x8(%r8),%r10
    2dc7:	4c 8d 59 08          	lea    0x8(%rcx),%r11
    2dcb:	31 d2                	xor    %edx,%edx
    2dcd:	49 29 ca             	sub    %rcx,%r10
    2dd0:	4d 39 d8             	cmp    %r11,%r8
    2dd3:	74 18                	je     2ded <riscv_dsp_dct_f32+0xf2d>
    2dd5:	0f 1f 00             	nopl   (%rax)
    2dd8:	f3 0f 10 44 51 10    	movss  0x10(%rcx,%rdx,2),%xmm0
    2dde:	f3 0f 11 44 11 08    	movss  %xmm0,0x8(%rcx,%rdx,1)
    2de4:	48 83 c2 08          	add    $0x8,%rdx
    2de8:	4c 39 d2             	cmp    %r10,%rdx
    2deb:	75 eb                	jne    2dd8 <riscv_dsp_dct_f32+0xf18>
    2ded:	4d 39 e0             	cmp    %r12,%r8
    2df0:	0f 84 b7 00 00 00    	je     2ead <riscv_dsp_dct_f32+0xfed>
    2df6:	49 8d 54 24 f8       	lea    -0x8(%r12),%rdx
    2dfb:	4c 29 c2             	sub    %r8,%rdx
    2dfe:	49 89 d2             	mov    %rdx,%r10
    2e01:	49 c1 ea 03          	shr    $0x3,%r10
    2e05:	49 83 c2 01          	add    $0x1,%r10
    2e09:	48 83 fa 10          	cmp    $0x10,%rdx
    2e0d:	76 6a                	jbe    2e79 <riscv_dsp_dct_f32+0xfb9>
    2e0f:	48 8b 4d 98          	mov    -0x68(%rbp),%rcx
    2e13:	4d 89 d1             	mov    %r10,%r9
    2e16:	49 c1 e9 02          	shr    $0x2,%r9
    2e1a:	48 8d 54 cb 04       	lea    0x4(%rbx,%rcx,8),%rdx
    2e1f:	49 c1 e1 05          	shl    $0x5,%r9
    2e23:	48 89 f9             	mov    %rdi,%rcx
    2e26:	49 01 d1             	add    %rdx,%r9
    2e29:	0f 1f 80 00 00 00 00 	nopl   0x0(%rax)
    2e30:	0f 10 01             	movups (%rcx),%xmm0
    2e33:	48 83 c2 20          	add    $0x20,%rdx
    2e37:	48 83 c1 10          	add    $0x10,%rcx
    2e3b:	0f 28 c8             	movaps %xmm0,%xmm1
    2e3e:	f3 0f 11 42 e0       	movss  %xmm0,-0x20(%rdx)
    2e43:	0f c6 c8 55          	shufps $0x55,%xmm0,%xmm1
    2e47:	f3 0f 11 4a e8       	movss  %xmm1,-0x18(%rdx)
    2e4c:	0f 28 c8             	movaps %xmm0,%xmm1
    2e4f:	0f 15 c8             	unpckhps %xmm0,%xmm1
    2e52:	0f c6 c0 ff          	shufps $0xff,%xmm0,%xmm0
    2e56:	f3 0f 11 42 f8       	movss  %xmm0,-0x8(%rdx)
    2e5b:	f3 0f 11 4a f0       	movss  %xmm1,-0x10(%rdx)
    2e60:	49 39 d1             	cmp    %rdx,%r9
    2e63:	75 cb                	jne    2e30 <riscv_dsp_dct_f32+0xf70>
    2e65:	4c 89 d2             	mov    %r10,%rdx
    2e68:	48 83 e2 fc          	and    $0xfffffffffffffffc,%rdx
    2e6c:	4c 8d 0c 97          	lea    (%rdi,%rdx,4),%r9
    2e70:	4d 8d 04 d0          	lea    (%r8,%rdx,8),%r8
    2e74:	4c 39 d2             	cmp    %r10,%rdx
    2e77:	74 34                	je     2ead <riscv_dsp_dct_f32+0xfed>
    2e79:	f3 41 0f 10 01       	movss  (%r9),%xmm0
    2e7e:	49 8d 50 08          	lea    0x8(%r8),%rdx
    2e82:	f3 41 0f 11 00       	movss  %xmm0,(%r8)
    2e87:	49 39 d4             	cmp    %rdx,%r12
    2e8a:	74 21                	je     2ead <riscv_dsp_dct_f32+0xfed>
    2e8c:	f3 41 0f 10 41 04    	movss  0x4(%r9),%xmm0
    2e92:	49 8d 50 10          	lea    0x10(%r8),%rdx
    2e96:	f3 41 0f 11 40 08    	movss  %xmm0,0x8(%r8)
    2e9c:	49 39 d4             	cmp    %rdx,%r12
    2e9f:	74 0c                	je     2ead <riscv_dsp_dct_f32+0xfed>
    2ea1:	f3 41 0f 10 41 08    	movss  0x8(%r9),%xmm0
    2ea7:	f3 41 0f 11 40 10    	movss  %xmm0,0x10(%r8)
    2ead:	48 89 f4             	mov    %rsi,%rsp
    2eb0:	4c 39 e0             	cmp    %r12,%rax
    2eb3:	0f 84 47 fb ff ff    	je     2a00 <riscv_dsp_dct_f32+0xb40>
    2eb9:	b9 09 00 00 00       	mov    $0x9,%ecx
    2ebe:	bf 01 00 00 00       	mov    $0x1,%edi
    2ec3:	4c 8d 05 36 5d 00 00 	lea    0x5d36(%rip),%r8        # 8c00 <riscv_dsp_cos_recip_table_f32_1024>
    2eca:	44 29 f1             	sub    %r14d,%ecx
    2ecd:	d3 e7                	shl    %cl,%edi
    2ecf:	4c 89 e1             	mov    %r12,%rcx
    2ed2:	89 fa                	mov    %edi,%edx
    2ed4:	48 c1 e7 02          	shl    $0x2,%rdi
    2ed8:	d1 ea                	shr    %edx
    2eda:	49 8d 34 90          	lea    (%r8,%rdx,4),%rsi
    2ede:	48 89 c2             	mov    %rax,%rdx
    2ee1:	0f 1f 80 00 00 00 00 	nopl   0x0(%rax)
    2ee8:	f3 0f 10 49 f8       	movss  -0x8(%rcx),%xmm1
    2eed:	f3 0f 59 0e          	mulss  (%rsi),%xmm1
    2ef1:	48 83 e9 08          	sub    $0x8,%rcx
    2ef5:	48 83 c2 08          	add    $0x8,%rdx
    2ef9:	f3 0f 10 42 f8       	movss  -0x8(%rdx),%xmm0
    2efe:	48 01 fe             	add    %rdi,%rsi
    2f01:	0f 28 d0             	movaps %xmm0,%xmm2
    2f04:	f3 0f 5c d1          	subss  %xmm1,%xmm2
    2f08:	f3 0f 58 c1          	addss  %xmm1,%xmm0
    2f0c:	f3 0f 11 11          	movss  %xmm2,(%rcx)
    2f10:	f3 0f 11 42 f8       	movss  %xmm0,-0x8(%rdx)
    2f15:	48 39 d1             	cmp    %rdx,%rcx
    2f18:	75 ce                	jne    2ee8 <riscv_dsp_dct_f32+0x1028>
    2f1a:	b9 08 00 00 00       	mov    $0x8,%ecx
    2f1f:	ba 01 00 00 00       	mov    $0x1,%edx
    2f24:	44 29 f1             	sub    %r14d,%ecx
    2f27:	d3 e2                	shl    %cl,%edx
    2f29:	89 d1                	mov    %edx,%ecx
    2f2b:	d1 ea                	shr    %edx
    2f2d:	49 8d 14 90          	lea    (%r8,%rdx,4),%rdx
    2f31:	48 c1 e1 02          	shl    $0x2,%rcx
    2f35:	0f 1f 00             	nopl   (%rax)
    2f38:	f3 0f 10 00          	movss  (%rax),%xmm0
    2f3c:	f3 0f 59 02          	mulss  (%rdx),%xmm0
    2f40:	48 83 c0 08          	add    $0x8,%rax
    2f44:	48 01 ca             	add    %rcx,%rdx
    2f47:	f3 0f 11 40 f8       	movss  %xmm0,-0x8(%rax)
    2f4c:	4c 39 e0             	cmp    %r12,%rax
    2f4f:	75 e7                	jne    2f38 <riscv_dsp_dct_f32+0x1078>
    2f51:	e9 aa fa ff ff       	jmp    2a00 <riscv_dsp_dct_f32+0xb40>
    2f56:	66 2e 0f 1f 84 00 00 	cs nopw 0x0(%rax,%rax,1)
    2f5d:	00 00 00 
    2f60:	48 89 d8             	mov    %rbx,%rax
    2f63:	0f 1f 44 00 00       	nopl   0x0(%rax,%rax,1)
    2f68:	f3 0f 10 00          	movss  (%rax),%xmm0
    2f6c:	f3 0f 10 4a fc       	movss  -0x4(%rdx),%xmm1
    2f71:	48 83 ea 04          	sub    $0x4,%rdx
    2f75:	48 83 c0 04          	add    $0x4,%rax
    2f79:	0f 28 d0             	movaps %xmm0,%xmm2
    2f7c:	f3 0f 58 c1          	addss  %xmm1,%xmm0
    2f80:	f3 0f 5c d1          	subss  %xmm1,%xmm2
    2f84:	f3 0f 11 12          	movss  %xmm2,(%rdx)
    2f88:	f3 0f 11 40 fc       	movss  %xmm0,-0x4(%rax)
    2f8d:	48 39 c2             	cmp    %rax,%rdx
    2f90:	75 d6                	jne    2f68 <riscv_dsp_dct_f32+0x10a8>
    2f92:	e9 8d f0 ff ff       	jmp    2024 <riscv_dsp_dct_f32+0x164>
    2f97:	66 0f 1f 84 00 00 00 	nopw   0x0(%rax,%rax,1)
    2f9e:	00 00 
    2fa0:	48 89 f8             	mov    %rdi,%rax
    2fa3:	0f 1f 44 00 00       	nopl   0x0(%rax,%rax,1)
    2fa8:	f3 0f 10 41 fc       	movss  -0x4(%rcx),%xmm0
    2fad:	48 83 e9 04          	sub    $0x4,%rcx
    2fb1:	48 83 e8 08          	sub    $0x8,%rax
    2fb5:	f3 0f 11 00          	movss  %xmm0,(%rax)
    2fb9:	48 39 cb             	cmp    %rcx,%rbx
    2fbc:	75 ea                	jne    2fa8 <riscv_dsp_dct_f32+0x10e8>
    2fbe:	e9 75 f2 ff ff       	jmp    2238 <riscv_dsp_dct_f32+0x378>
    2fc3:	0f 1f 44 00 00       	nopl   0x0(%rax,%rax,1)
    2fc8:	f3 0f 10 03          	movss  (%rbx),%xmm0
    2fcc:	f3 0f 10 53 60       	movss  0x60(%rbx),%xmm2
    2fd1:	f3 0f 10 63 20       	movss  0x20(%rbx),%xmm4
    2fd6:	0f 28 c8             	movaps %xmm0,%xmm1
    2fd9:	f3 0f 58 c2          	addss  %xmm2,%xmm0
    2fdd:	f3 0f 5c ca          	subss  %xmm2,%xmm1
    2fe1:	f3 0f 10 53 40       	movss  0x40(%rbx),%xmm2
    2fe6:	0f 28 dc             	movaps %xmm4,%xmm3
    2fe9:	f3 0f 5c da          	subss  %xmm2,%xmm3
    2fed:	f3 0f 58 d4          	addss  %xmm4,%xmm2
    2ff1:	0f 28 e0             	movaps %xmm0,%xmm4
    2ff4:	f3 0f 5c c2          	subss  %xmm2,%xmm0
    2ff8:	f3 0f 59 05 70 59 00 	mulss  0x5970(%rip),%xmm0        # 8970 <test_fft_Input_f64_256+0x830>
    2fff:	00 
    3000:	f3 0f 58 e2          	addss  %xmm2,%xmm4
    3004:	f3 0f 10 15 6c 59 00 	movss  0x596c(%rip),%xmm2        # 8978 <test_fft_Input_f64_256+0x838>
    300b:	00 
    300c:	0f 28 eb             	movaps %xmm3,%xmm5
    300f:	f3 0f 59 da          	mulss  %xmm2,%xmm3
    3013:	f3 0f 11 23          	movss  %xmm4,(%rbx)
    3017:	f3 0f 10 25 55 59 00 	movss  0x5955(%rip),%xmm4        # 8974 <test_fft_Input_f64_256+0x834>
    301e:	00 
    301f:	f3 0f 11 43 40       	movss  %xmm0,0x40(%rbx)
    3024:	f3 0f 59 ec          	mulss  %xmm4,%xmm5
    3028:	0f 28 c1             	movaps %xmm1,%xmm0
    302b:	f3 0f 59 c2          	mulss  %xmm2,%xmm0
    302f:	f3 0f 59 cc          	mulss  %xmm4,%xmm1
    3033:	f3 0f 58 c5          	addss  %xmm5,%xmm0
    3037:	f3 0f 5c cb          	subss  %xmm3,%xmm1
    303b:	f3 0f 11 43 20       	movss  %xmm0,0x20(%rbx)
    3040:	f3 0f 11 4b 60       	movss  %xmm1,0x60(%rbx)
    3045:	8b 75 94             	mov    -0x6c(%rbp),%esi
    3048:	48 8b 7d 88          	mov    -0x78(%rbp),%rdi
    304c:	ba 08 00 00 00       	mov    $0x8,%edx
    3051:	e8 5a eb ff ff       	call   1bb0 <riscv_dsp_dct_o_f32>
    3056:	b9 08 00 00 00       	mov    $0x8,%ecx
    305b:	8b 75 b0             	mov    -0x50(%rbp),%esi
    305e:	48 8d 43 08          	lea    0x8(%rbx),%rax
    3062:	44 29 e9             	sub    %r13d,%ecx
    3065:	41 b8 01 00 00 00    	mov    $0x1,%r8d
    306b:	41 d3 e0             	shl    %cl,%r8d
    306e:	8d 34 b5 fc ff ff ff 	lea    -0x4(,%rsi,4),%esi
    3075:	48 8d 0d 84 5b 00 00 	lea    0x5b84(%rip),%rcx        # 8c00 <riscv_dsp_cos_recip_table_f32_1024>
    307c:	44 89 c2             	mov    %r8d,%edx
    307f:	48 c1 e6 02          	shl    $0x2,%rsi
    3083:	d1 ea                	shr    %edx
    3085:	48 8d 0c 91          	lea    (%rcx,%rdx,4),%rcx
    3089:	48 8d 14 30          	lea    (%rax,%rsi,1),%rdx
    308d:	48 39 c2             	cmp    %rax,%rdx
    3090:	74 27                	je     30b9 <riscv_dsp_dct_f32+0x11f9>
    3092:	f3 0f 10 4c 33 08    	movss  0x8(%rbx,%rsi,1),%xmm1
    3098:	0f 1f 84 00 00 00 00 	nopl   0x0(%rax,%rax,1)
    309f:	00 
    30a0:	48 83 ea 10          	sub    $0x10,%rdx
    30a4:	0f 28 c1             	movaps %xmm1,%xmm0
    30a7:	f3 0f 10 0a          	movss  (%rdx),%xmm1
    30ab:	f3 0f 58 c1          	addss  %xmm1,%xmm0
    30af:	f3 0f 11 42 10       	movss  %xmm0,0x10(%rdx)
    30b4:	48 39 c2             	cmp    %rax,%rdx
    30b7:	75 e7                	jne    30a0 <riscv_dsp_dct_f32+0x11e0>
    30b9:	ba 04 00 00 00       	mov    $0x4,%edx
    30be:	48 89 c7             	mov    %rax,%rdi
    30c1:	44 89 ee             	mov    %r13d,%esi
    30c4:	48 89 4d 88          	mov    %rcx,-0x78(%rbp)
    30c8:	44 89 45 94          	mov    %r8d,-0x6c(%rbp)
    30cc:	48 89 45 b0          	mov    %rax,-0x50(%rbp)
    30d0:	e8 4b e7 ff ff       	call   1820 <riscv_dsp_idct_o_f32>
    30d5:	48 8b 45 b0          	mov    -0x50(%rbp),%rax
    30d9:	48 8b 55 a8          	mov    -0x58(%rbp),%rdx
    30dd:	44 8b 45 94          	mov    -0x6c(%rbp),%r8d
    30e1:	48 8b 4d 88          	mov    -0x78(%rbp),%rcx
    30e5:	48 01 c2             	add    %rax,%rdx
    30e8:	49 c1 e0 02          	shl    $0x2,%r8
    30ec:	48 39 c2             	cmp    %rax,%rdx
    30ef:	0f 84 97 fb ff ff    	je     2c8c <riscv_dsp_dct_f32+0xdcc>
    30f5:	0f 1f 00             	nopl   (%rax)
    30f8:	f3 0f 10 00          	movss  (%rax),%xmm0
    30fc:	f3 0f 59 01          	mulss  (%rcx),%xmm0
    3100:	48 83 c0 10          	add    $0x10,%rax
    3104:	4c 01 c1             	add    %r8,%rcx
    3107:	f3 0f 11 40 f0       	movss  %xmm0,-0x10(%rax)
    310c:	48 39 c2             	cmp    %rax,%rdx
    310f:	75 e7                	jne    30f8 <riscv_dsp_dct_f32+0x1238>
    3111:	e9 76 fb ff ff       	jmp    2c8c <riscv_dsp_dct_f32+0xdcc>
    3116:	48 89 f9             	mov    %rdi,%rcx
    3119:	e9 23 f0 ff ff       	jmp    2141 <riscv_dsp_dct_f32+0x281>
    311e:	66 90                	xchg   %ax,%ax
    3120:	f3 0f 10 03          	movss  (%rbx),%xmm0
    3124:	f3 0f 10 93 c0 00 00 	movss  0xc0(%rbx),%xmm2
    312b:	00 
    312c:	f3 0f 10 63 40       	movss  0x40(%rbx),%xmm4
    3131:	0f 28 c8             	movaps %xmm0,%xmm1
    3134:	f3 0f 58 c2          	addss  %xmm2,%xmm0
    3138:	f3 0f 5c ca          	subss  %xmm2,%xmm1
    313c:	f3 0f 10 93 80 00 00 	movss  0x80(%rbx),%xmm2
    3143:	00 
    3144:	0f 28 dc             	movaps %xmm4,%xmm3
    3147:	f3 0f 5c da          	subss  %xmm2,%xmm3
    314b:	f3 0f 58 d4          	addss  %xmm4,%xmm2
    314f:	0f 28 e0             	movaps %xmm0,%xmm4
    3152:	f3 0f 5c c2          	subss  %xmm2,%xmm0
    3156:	f3 0f 59 05 12 58 00 	mulss  0x5812(%rip),%xmm0        # 8970 <test_fft_Input_f64_256+0x830>
    315d:	00 
    315e:	f3 0f 58 e2          	addss  %xmm2,%xmm4
    3162:	f3 0f 10 15 0e 58 00 	movss  0x580e(%rip),%xmm2        # 8978 <test_fft_Input_f64_256+0x838>
    3169:	00 
    316a:	0f 28 eb             	movaps %xmm3,%xmm5
    316d:	f3 0f 59 da          	mulss  %xmm2,%xmm3
    3171:	f3 0f 11 23          	movss  %xmm4,(%rbx)
    3175:	f3 0f 10 25 f7 57 00 	movss  0x57f7(%rip),%xmm4        # 8974 <test_fft_Input_f64_256+0x834>
    317c:	00 
    317d:	f3 0f 11 83 80 00 00 	movss  %xmm0,0x80(%rbx)
    3184:	00 
    3185:	f3 0f 59 ec          	mulss  %xmm4,%xmm5
    3189:	0f 28 c1             	movaps %xmm1,%xmm0
    318c:	f3 0f 59 c2          	mulss  %xmm2,%xmm0
    3190:	f3 0f 59 cc          	mulss  %xmm4,%xmm1
    3194:	f3 0f 58 c5          	addss  %xmm5,%xmm0
    3198:	f3 0f 5c cb          	subss  %xmm3,%xmm1
    319c:	f3 0f 11 43 40       	movss  %xmm0,0x40(%rbx)
    31a1:	f3 0f 11 8b c0 00 00 	movss  %xmm1,0xc0(%rbx)
    31a8:	00 
    31a9:	8b 75 90             	mov    -0x70(%rbp),%esi
    31ac:	48 8d 7b 20          	lea    0x20(%rbx),%rdi
    31b0:	ba 10 00 00 00       	mov    $0x10,%edx
    31b5:	e8 f6 e9 ff ff       	call   1bb0 <riscv_dsp_dct_o_f32>
    31ba:	e9 86 fe ff ff       	jmp    3045 <riscv_dsp_dct_f32+0x1185>
    31bf:	4d 89 ca             	mov    %r9,%r10
    31c2:	48 89 f8             	mov    %rdi,%rax
    31c5:	e9 3e ef ff ff       	jmp    2108 <riscv_dsp_dct_f32+0x248>
    31ca:	48 89 d8             	mov    %rbx,%rax
    31cd:	e9 e7 f0 ff ff       	jmp    22b9 <riscv_dsp_dct_f32+0x3f9>
    31d2:	48 83 4c 04 f8 00    	orq    $0x0,-0x8(%rsp,%rax,1)
    31d8:	e9 d0 f3 ff ff       	jmp    25ad <riscv_dsp_dct_f32+0x6ed>
    31dd:	48 83 4c 14 f8 00    	orq    $0x0,-0x8(%rsp,%rdx,1)
    31e3:	e9 8b fb ff ff       	jmp    2d73 <riscv_dsp_dct_f32+0xeb3>
    31e8:	f3 0f 10 03          	movss  (%rbx),%xmm0
    31ec:	f3 0f 10 93 00 06 00 	movss  0x600(%rbx),%xmm2
    31f3:	00 
    31f4:	f3 0f 10 a3 00 02 00 	movss  0x200(%rbx),%xmm4
    31fb:	00 
    31fc:	0f 28 c8             	movaps %xmm0,%xmm1
    31ff:	f3 0f 58 c2          	addss  %xmm2,%xmm0
    3203:	f3 0f 5c ca          	subss  %xmm2,%xmm1
    3207:	f3 0f 10 93 00 04 00 	movss  0x400(%rbx),%xmm2
    320e:	00 
    320f:	0f 28 dc             	movaps %xmm4,%xmm3
    3212:	f3 0f 5c da          	subss  %xmm2,%xmm3
    3216:	f3 0f 58 d4          	addss  %xmm4,%xmm2
    321a:	0f 28 e0             	movaps %xmm0,%xmm4
    321d:	f3 0f 5c c2          	subss  %xmm2,%xmm0
    3221:	f3 0f 59 05 47 57 00 	mulss  0x5747(%rip),%xmm0        # 8970 <test_fft_Input_f64_256+0x830>
    3228:	00 
    3229:	f3 0f 58 e2          	addss  %xmm2,%xmm4
    322d:	f3 0f 10 15 43 57 00 	movss  0x5743(%rip),%xmm2        # 8978 <test_fft_Input_f64_256+0x838>
    3234:	00 
    3235:	0f 28 eb             	movaps %xmm3,%xmm5
    3238:	f3 0f 59 da          	mulss  %xmm2,%xmm3
    323c:	f3 0f 11 23          	movss  %xmm4,(%rbx)
    3240:	f3 0f 10 25 2c 57 00 	movss  0x572c(%rip),%xmm4        # 8974 <test_fft_Input_f64_256+0x834>
    3247:	00 
    3248:	f3 0f 11 83 00 04 00 	movss  %xmm0,0x400(%rbx)
    324f:	00 
    3250:	f3 0f 59 ec          	mulss  %xmm4,%xmm5
    3254:	0f 28 c1             	movaps %xmm1,%xmm0
    3257:	f3 0f 59 c2          	mulss  %xmm2,%xmm0
    325b:	f3 0f 59 cc          	mulss  %xmm4,%xmm1
    325f:	f3 0f 58 c5          	addss  %xmm5,%xmm0
    3263:	f3 0f 5c cb          	subss  %xmm3,%xmm1
    3267:	f3 0f 11 83 00 02 00 	movss  %xmm0,0x200(%rbx)
    326e:	00 
    326f:	f3 0f 11 8b 00 06 00 	movss  %xmm1,0x600(%rbx)
    3276:	00 
    3277:	e9 ca f6 ff ff       	jmp    2946 <riscv_dsp_dct_f32+0xa86>
    327c:	f3 0f 10 03          	movss  (%rbx),%xmm0
    3280:	f3 0f 10 93 80 01 00 	movss  0x180(%rbx),%xmm2
    3287:	00 
    3288:	f3 0f 10 a3 80 00 00 	movss  0x80(%rbx),%xmm4
    328f:	00 
    3290:	0f 28 c8             	movaps %xmm0,%xmm1
    3293:	f3 0f 58 c2          	addss  %xmm2,%xmm0
    3297:	f3 0f 5c ca          	subss  %xmm2,%xmm1
    329b:	f3 0f 10 93 00 01 00 	movss  0x100(%rbx),%xmm2
    32a2:	00 
    32a3:	0f 28 dc             	movaps %xmm4,%xmm3
    32a6:	f3 0f 5c da          	subss  %xmm2,%xmm3
    32aa:	f3 0f 58 d4          	addss  %xmm4,%xmm2
    32ae:	0f 28 e0             	movaps %xmm0,%xmm4
    32b1:	f3 0f 5c c2          	subss  %xmm2,%xmm0
    32b5:	f3 0f 59 05 b3 56 00 	mulss  0x56b3(%rip),%xmm0        # 8970 <test_fft_Input_f64_256+0x830>
    32bc:	00 
    32bd:	f3 0f 58 e2          	addss  %xmm2,%xmm4
    32c1:	f3 0f 10 15 af 56 00 	movss  0x56af(%rip),%xmm2        # 8978 <test_fft_Input_f64_256+0x838>
    32c8:	00 
    32c9:	0f 28 eb             	movaps %xmm3,%xmm5
    32cc:	f3 0f 59 da          	mulss  %xmm2,%xmm3
    32d0:	f3 0f 11 23          	movss  %xmm4,(%rbx)
    32d4:	f3 0f 10 25 98 56 00 	movss  0x5698(%rip),%xmm4        # 8974 <test_fft_Input_f64_256+0x834>
    32db:	00 
    32dc:	f3 0f 11 83 00 01 00 	movss  %xmm0,0x100(%rbx)
    32e3:	00 
    32e4:	f3 0f 59 ec          	mulss  %xmm4,%xmm5
    32e8:	0f 28 c1             	movaps %xmm1,%xmm0
    32eb:	f3 0f 59 c2          	mulss  %xmm2,%xmm0
    32ef:	f3 0f 59 cc          	mulss  %xmm4,%xmm1
    32f3:	f3 0f 58 c5          	addss  %xmm5,%xmm0
    32f7:	f3 0f 5c cb          	subss  %xmm3,%xmm1
    32fb:	f3 0f 11 83 80 00 00 	movss  %xmm0,0x80(%rbx)
    3302:	00 
    3303:	f3 0f 11 8b 80 01 00 	movss  %xmm1,0x180(%rbx)
    330a:	00 
    330b:	e9 5d f6 ff ff       	jmp    296d <riscv_dsp_dct_f32+0xaad>
    3310:	48 89 d8             	mov    %rbx,%rax
    3313:	e9 a7 f1 ff ff       	jmp    24bf <riscv_dsp_dct_f32+0x5ff>
    3318:	48 8d 43 10          	lea    0x10(%rbx),%rax
    331c:	48 89 45 88          	mov    %rax,-0x78(%rbp)
    3320:	e9 b4 f3 ff ff       	jmp    26d9 <riscv_dsp_dct_f32+0x819>
    3325:	f3 0f 10 03          	movss  (%rbx),%xmm0
    3329:	f3 0f 10 93 00 03 00 	movss  0x300(%rbx),%xmm2
    3330:	00 
    3331:	f3 0f 10 a3 00 01 00 	movss  0x100(%rbx),%xmm4
    3338:	00 
    3339:	0f 28 c8             	movaps %xmm0,%xmm1
    333c:	f3 0f 58 c2          	addss  %xmm2,%xmm0
    3340:	f3 0f 5c ca          	subss  %xmm2,%xmm1
    3344:	f3 0f 10 93 00 02 00 	movss  0x200(%rbx),%xmm2
    334b:	00 
    334c:	0f 28 dc             	movaps %xmm4,%xmm3
    334f:	f3 0f 5c da          	subss  %xmm2,%xmm3
    3353:	f3 0f 58 d4          	addss  %xmm4,%xmm2
    3357:	0f 28 e0             	movaps %xmm0,%xmm4
    335a:	f3 0f 5c c2          	subss  %xmm2,%xmm0
    335e:	f3 0f 59 05 0a 56 00 	mulss  0x560a(%rip),%xmm0        # 8970 <test_fft_Input_f64_256+0x830>
    3365:	00 
    3366:	f3 0f 58 e2          	addss  %xmm2,%xmm4
    336a:	f3 0f 10 15 06 56 00 	movss  0x5606(%rip),%xmm2        # 8978 <test_fft_Input_f64_256+0x838>
    3371:	00 
    3372:	0f 28 eb             	movaps %xmm3,%xmm5
    3375:	f3 0f 59 da          	mulss  %xmm2,%xmm3
    3379:	f3 0f 11 23          	movss  %xmm4,(%rbx)
    337d:	f3 0f 10 25 ef 55 00 	movss  0x55ef(%rip),%xmm4        # 8974 <test_fft_Input_f64_256+0x834>
    3384:	00 
    3385:	f3 0f 11 83 00 02 00 	movss  %xmm0,0x200(%rbx)
    338c:	00 
    338d:	f3 0f 59 ec          	mulss  %xmm4,%xmm5
    3391:	0f 28 c1             	movaps %xmm1,%xmm0
    3394:	f3 0f 59 c2          	mulss  %xmm2,%xmm0
    3398:	f3 0f 59 cc          	mulss  %xmm4,%xmm1
    339c:	f3 0f 58 c5          	addss  %xmm5,%xmm0
    33a0:	f3 0f 5c cb          	subss  %xmm3,%xmm1
    33a4:	f3 0f 11 83 00 01 00 	movss  %xmm0,0x100(%rbx)
    33ab:	00 
    33ac:	f3 0f 11 8b 00 03 00 	movss  %xmm1,0x300(%rbx)
    33b3:	00 
    33b4:	e9 a0 f5 ff ff       	jmp    2959 <riscv_dsp_dct_f32+0xa99>
    33b9:	48 8d 73 10          	lea    0x10(%rbx),%rsi
    33bd:	48 89 d8             	mov    %rbx,%rax
    33c0:	48 89 75 88          	mov    %rsi,-0x78(%rbp)
    33c4:	e9 de f2 ff ff       	jmp    26a7 <riscv_dsp_dct_f32+0x7e7>
    33c9:	48 89 c1             	mov    %rax,%rcx
    33cc:	e9 f2 f9 ff ff       	jmp    2dc3 <riscv_dsp_dct_f32+0xf03>
    33d1:	e8 1a dd ff ff       	call   10f0 <__stack_chk_fail@plt>
    33d6:	66 2e 0f 1f 84 00 00 	cs nopw 0x0(%rax,%rax,1)
    33dd:	00 00 00 

00000000000033e0 <riscv_dsp_idct_f32>:
    33e0:	f3 0f 1e fa          	endbr64 
    33e4:	55                   	push   %rbp
    33e5:	89 f1                	mov    %esi,%ecx
    33e7:	48 89 e5             	mov    %rsp,%rbp
    33ea:	41 57                	push   %r15
    33ec:	41 56                	push   %r14
    33ee:	41 89 f6             	mov    %esi,%r14d
    33f1:	41 55                	push   %r13
    33f3:	41 bd 01 00 00 00    	mov    $0x1,%r13d
    33f9:	41 54                	push   %r12
    33fb:	53                   	push   %rbx
    33fc:	48 89 fb             	mov    %rdi,%rbx
    33ff:	48 83 ec 38          	sub    $0x38,%rsp
    3403:	f3 0f 10 05 89 55 00 	movss  0x5589(%rip),%xmm0        # 8994 <test_fft_Input_f64_256+0x854>
    340a:	00 
    340b:	64 48 8b 04 25 28 00 	mov    %fs:0x28,%rax
    3412:	00 00 
    3414:	48 89 45 c8          	mov    %rax,-0x38(%rbp)
    3418:	31 c0                	xor    %eax,%eax
    341a:	f3 0f 59 07          	mulss  (%rdi),%xmm0
    341e:	44 89 e8             	mov    %r13d,%eax
    3421:	d3 e0                	shl    %cl,%eax
    3423:	41 89 c4             	mov    %eax,%r12d
    3426:	89 45 b0             	mov    %eax,-0x50(%rbp)
    3429:	49 c1 e4 02          	shl    $0x2,%r12
    342d:	4a 8d 04 27          	lea    (%rdi,%r12,1),%rax
    3431:	48 89 45 b8          	mov    %rax,-0x48(%rbp)
    3435:	f3 0f 11 07          	movss  %xmm0,(%rdi)
    3439:	83 fe 02             	cmp    $0x2,%esi
    343c:	0f 85 4e 01 00 00    	jne    3590 <riscv_dsp_idct_f32+0x1b0>
    3442:	f3 0f 10 0d 26 55 00 	movss  0x5526(%rip),%xmm1        # 8970 <test_fft_Input_f64_256+0x830>
    3449:	00 
    344a:	f3 0f 59 4f 08       	mulss  0x8(%rdi),%xmm1
    344f:	0f 28 d0             	movaps %xmm0,%xmm2
    3452:	f3 0f 10 25 1a 55 00 	movss  0x551a(%rip),%xmm4        # 8974 <test_fft_Input_f64_256+0x834>
    3459:	00 
    345a:	f3 0f 10 2d 16 55 00 	movss  0x5516(%rip),%xmm5        # 8978 <test_fft_Input_f64_256+0x838>
    3461:	00 
    3462:	f3 0f 5c d1          	subss  %xmm1,%xmm2
    3466:	f3 0f 58 c1          	addss  %xmm1,%xmm0
    346a:	0f 28 ca             	movaps %xmm2,%xmm1
    346d:	0f 14 c8             	unpcklps %xmm0,%xmm1
    3470:	0f 14 c2             	unpcklps %xmm2,%xmm0
    3473:	f3 0f 10 57 04       	movss  0x4(%rdi),%xmm2
    3478:	0f 16 c1             	movlhps %xmm1,%xmm0
    347b:	f3 0f 10 4f 0c       	movss  0xc(%rdi),%xmm1
    3480:	0f 28 da             	movaps %xmm2,%xmm3
    3483:	f3 0f 59 dc          	mulss  %xmm4,%xmm3
    3487:	0f 28 f1             	movaps %xmm1,%xmm6
    348a:	f3 0f 59 e1          	mulss  %xmm1,%xmm4
    348e:	0f 28 ca             	movaps %xmm2,%xmm1
    3491:	f3 0f 59 f5          	mulss  %xmm5,%xmm6
    3495:	f3 0f 59 cd          	mulss  %xmm5,%xmm1
    3499:	f3 0f 5c de          	subss  %xmm6,%xmm3
    349d:	f3 0f 58 cc          	addss  %xmm4,%xmm1
    34a1:	0f 28 d3             	movaps %xmm3,%xmm2
    34a4:	0f 14 d1             	unpcklps %xmm1,%xmm2
    34a7:	0f 14 cb             	unpcklps %xmm3,%xmm1
    34aa:	0f 16 ca             	movlhps %xmm2,%xmm1
    34ad:	0f 28 d0             	movaps %xmm0,%xmm2
    34b0:	0f 58 d1             	addps  %xmm1,%xmm2
    34b3:	0f 5c c1             	subps  %xmm1,%xmm0
    34b6:	0f 28 ca             	movaps %xmm2,%xmm1
    34b9:	0f c6 c8 e4          	shufps $0xe4,%xmm0,%xmm1
    34bd:	0f 11 0f             	movups %xmm1,(%rdi)
    34c0:	41 8d 56 fe          	lea    -0x2(%r14),%edx
    34c4:	48 8d 05 f5 56 00 00 	lea    0x56f5(%rip),%rax        # 8bc0 <riscv_dsp_recip_table_f32>
    34cb:	f3 0f 10 0c 90       	movss  (%rax,%rdx,4),%xmm1
    34d0:	48 3b 5d b8          	cmp    -0x48(%rbp),%rbx
    34d4:	0f 84 8e 00 00 00    	je     3568 <riscv_dsp_idct_f32+0x188>
    34da:	49 83 ec 04          	sub    $0x4,%r12
    34de:	48 89 d8             	mov    %rbx,%rax
    34e1:	4c 89 e6             	mov    %r12,%rsi
    34e4:	48 c1 ee 02          	shr    $0x2,%rsi
    34e8:	48 8d 4e 01          	lea    0x1(%rsi),%rcx
    34ec:	49 83 fc 08          	cmp    $0x8,%r12
    34f0:	0f 86 89 04 00 00    	jbe    397f <riscv_dsp_idct_f32+0x59f>
    34f6:	48 89 ca             	mov    %rcx,%rdx
    34f9:	0f 28 d1             	movaps %xmm1,%xmm2
    34fc:	48 c1 ea 02          	shr    $0x2,%rdx
    3500:	0f c6 d2 00          	shufps $0x0,%xmm2,%xmm2
    3504:	48 c1 e2 04          	shl    $0x4,%rdx
    3508:	48 01 da             	add    %rbx,%rdx
    350b:	0f 1f 44 00 00       	nopl   0x0(%rax,%rax,1)
    3510:	0f 10 00             	movups (%rax),%xmm0
    3513:	48 83 c0 10          	add    $0x10,%rax
    3517:	0f 59 c2             	mulps  %xmm2,%xmm0
    351a:	0f 11 40 f0          	movups %xmm0,-0x10(%rax)
    351e:	48 39 c2             	cmp    %rax,%rdx
    3521:	75 ed                	jne    3510 <riscv_dsp_idct_f32+0x130>
    3523:	48 89 ca             	mov    %rcx,%rdx
    3526:	48 83 e2 fc          	and    $0xfffffffffffffffc,%rdx
    352a:	48 8d 04 93          	lea    (%rbx,%rdx,4),%rax
    352e:	48 39 ca             	cmp    %rcx,%rdx
    3531:	74 35                	je     3568 <riscv_dsp_idct_f32+0x188>
    3533:	48 29 d1             	sub    %rdx,%rcx
    3536:	48 39 f2             	cmp    %rsi,%rdx
    3539:	74 25                	je     3560 <riscv_dsp_idct_f32+0x180>
    353b:	48 8d 14 93          	lea    (%rbx,%rdx,4),%rdx
    353f:	0f 28 d1             	movaps %xmm1,%xmm2
    3542:	f3 0f 7e 02          	movq   (%rdx),%xmm0
    3546:	0f c6 d2 e0          	shufps $0xe0,%xmm2,%xmm2
    354a:	0f 59 c2             	mulps  %xmm2,%xmm0
    354d:	0f 13 02             	movlps %xmm0,(%rdx)
    3550:	48 89 ca             	mov    %rcx,%rdx
    3553:	48 83 e2 fe          	and    $0xfffffffffffffffe,%rdx
    3557:	48 8d 04 90          	lea    (%rax,%rdx,4),%rax
    355b:	48 39 d1             	cmp    %rdx,%rcx
    355e:	74 08                	je     3568 <riscv_dsp_idct_f32+0x188>
    3560:	f3 0f 59 08          	mulss  (%rax),%xmm1
    3564:	f3 0f 11 08          	movss  %xmm1,(%rax)
    3568:	48 8b 45 c8          	mov    -0x38(%rbp),%rax
    356c:	64 48 2b 04 25 28 00 	sub    %fs:0x28,%rax
    3573:	00 00 
    3575:	0f 85 41 04 00 00    	jne    39bc <riscv_dsp_idct_f32+0x5dc>
    357b:	48 8d 65 d8          	lea    -0x28(%rbp),%rsp
    357f:	5b                   	pop    %rbx
    3580:	41 5c                	pop    %r12
    3582:	41 5d                	pop    %r13
    3584:	41 5e                	pop    %r14
    3586:	41 5f                	pop    %r15
    3588:	5d                   	pop    %rbp
    3589:	c3                   	ret    
    358a:	66 0f 1f 44 00 00    	nopw   0x0(%rax,%rax,1)
    3590:	b9 09 00 00 00       	mov    $0x9,%ecx
    3595:	4c 8d 3d 64 56 00 00 	lea    0x5664(%rip),%r15        # 8c00 <riscv_dsp_cos_recip_table_f32_1024>
    359c:	29 f1                	sub    %esi,%ecx
    359e:	8d 76 ff             	lea    -0x1(%rsi),%esi
    35a1:	41 d3 e5             	shl    %cl,%r13d
    35a4:	89 75 a0             	mov    %esi,-0x60(%rbp)
    35a7:	44 89 ea             	mov    %r13d,%edx
    35aa:	d1 ea                	shr    %edx
    35ac:	48 8d 04 95 00 00 00 	lea    0x0(,%rdx,4),%rax
    35b3:	00 
    35b4:	ba 02 00 00 00       	mov    $0x2,%edx
    35b9:	49 01 c7             	add    %rax,%r15
    35bc:	48 89 45 a8          	mov    %rax,-0x58(%rbp)
    35c0:	e8 5b e2 ff ff       	call   1820 <riscv_dsp_idct_o_f32>
    35c5:	8b 45 b0             	mov    -0x50(%rbp),%eax
    35c8:	48 8d 7b 04          	lea    0x4(%rbx),%rdi
    35cc:	8b 75 a0             	mov    -0x60(%rbp),%esi
    35cf:	8d 50 ff             	lea    -0x1(%rax),%edx
    35d2:	48 8d 14 93          	lea    (%rbx,%rdx,4),%rdx
    35d6:	48 39 d7             	cmp    %rdx,%rdi
    35d9:	74 1e                	je     35f9 <riscv_dsp_idct_f32+0x219>
    35db:	f3 0f 10 0a          	movss  (%rdx),%xmm1
    35df:	90                   	nop
    35e0:	48 83 ea 08          	sub    $0x8,%rdx
    35e4:	0f 28 c1             	movaps %xmm1,%xmm0
    35e7:	f3 0f 10 0a          	movss  (%rdx),%xmm1
    35eb:	f3 0f 58 c1          	addss  %xmm1,%xmm0
    35ef:	f3 0f 11 42 08       	movss  %xmm0,0x8(%rdx)
    35f4:	48 39 d7             	cmp    %rdx,%rdi
    35f7:	75 e7                	jne    35e0 <riscv_dsp_idct_f32+0x200>
    35f9:	ba 02 00 00 00       	mov    $0x2,%edx
    35fe:	89 45 b0             	mov    %eax,-0x50(%rbp)
    3601:	e8 1a e2 ff ff       	call   1820 <riscv_dsp_idct_o_f32>
    3606:	8b 45 b0             	mov    -0x50(%rbp),%eax
    3609:	48 89 e1             	mov    %rsp,%rcx
    360c:	49 89 e0             	mov    %rsp,%r8
    360f:	d1 e8                	shr    %eax
    3611:	89 c2                	mov    %eax,%edx
    3613:	48 c1 e2 02          	shl    $0x2,%rdx
    3617:	48 8d 42 0f          	lea    0xf(%rdx),%rax
    361b:	48 c1 e8 04          	shr    $0x4,%rax
    361f:	48 c1 e0 04          	shl    $0x4,%rax
    3623:	48 89 c6             	mov    %rax,%rsi
    3626:	48 81 e6 00 f0 ff ff 	and    $0xfffffffffffff000,%rsi
    362d:	48 29 f1             	sub    %rsi,%rcx
    3630:	48 39 cc             	cmp    %rcx,%rsp
    3633:	74 15                	je     364a <riscv_dsp_idct_f32+0x26a>
    3635:	48 81 ec 00 10 00 00 	sub    $0x1000,%rsp
    363c:	48 83 8c 24 f8 0f 00 	orq    $0x0,0xff8(%rsp)
    3643:	00 00 
    3645:	48 39 cc             	cmp    %rcx,%rsp
    3648:	75 eb                	jne    3635 <riscv_dsp_idct_f32+0x255>
    364a:	25 ff 0f 00 00       	and    $0xfff,%eax
    364f:	48 29 c4             	sub    %rax,%rsp
    3652:	48 85 c0             	test   %rax,%rax
    3655:	74 06                	je     365d <riscv_dsp_idct_f32+0x27d>
    3657:	48 83 4c 04 f8 00    	orq    $0x0,-0x8(%rsp,%rax,1)
    365d:	48 8b 75 b8          	mov    -0x48(%rbp),%rsi
    3661:	49 89 e2             	mov    %rsp,%r10
    3664:	48 8d 3c 13          	lea    (%rbx,%rdx,1),%rdi
    3668:	4c 89 d1             	mov    %r10,%rcx
    366b:	48 89 f0             	mov    %rsi,%rax
    366e:	48 39 f3             	cmp    %rsi,%rbx
    3671:	0f 84 33 03 00 00    	je     39aa <riscv_dsp_idct_f32+0x5ca>
    3677:	66 0f 1f 84 00 00 00 	nopw   0x0(%rax,%rax,1)
    367e:	00 00 
    3680:	f3 0f 10 40 fc       	movss  -0x4(%rax),%xmm0
    3685:	48 83 e8 08          	sub    $0x8,%rax
    3689:	48 83 c1 04          	add    $0x4,%rcx
    368d:	f3 0f 11 41 fc       	movss  %xmm0,-0x4(%rcx)
    3692:	48 39 c3             	cmp    %rax,%rbx
    3695:	75 e9                	jne    3680 <riscv_dsp_idct_f32+0x2a0>
    3697:	49 8d 44 24 f8       	lea    -0x8(%r12),%rax
    369c:	48 f7 d0             	not    %rax
    369f:	48 83 e0 f8          	and    $0xfffffffffffffff8,%rax
    36a3:	48 03 45 b8          	add    -0x48(%rbp),%rax
    36a7:	48 8d 70 04          	lea    0x4(%rax),%rsi
    36ab:	48 39 f7             	cmp    %rsi,%rdi
    36ae:	0f 84 b4 00 00 00    	je     3768 <riscv_dsp_idct_f32+0x388>
    36b4:	48 8d 4f f8          	lea    -0x8(%rdi),%rcx
    36b8:	48 29 c1             	sub    %rax,%rcx
    36bb:	49 89 cb             	mov    %rcx,%r11
    36be:	49 c1 eb 02          	shr    $0x2,%r11
    36c2:	4e 8d 4c d8 0c       	lea    0xc(%rax,%r11,8),%r9
    36c7:	4c 39 ce             	cmp    %r9,%rsi
    36ca:	4c 8d 48 08          	lea    0x8(%rax),%r9
    36ce:	0f 93 45 b0          	setae  -0x50(%rbp)
    36d2:	4c 39 cf             	cmp    %r9,%rdi
    36d5:	41 0f 96 c1          	setbe  %r9b
    36d9:	44 0a 4d b0          	or     -0x50(%rbp),%r9b
    36dd:	0f 84 a3 02 00 00    	je     3986 <riscv_dsp_idct_f32+0x5a6>
    36e3:	48 83 f9 0c          	cmp    $0xc,%rcx
    36e7:	0f 86 99 02 00 00    	jbe    3986 <riscv_dsp_idct_f32+0x5a6>
    36ed:	48 83 e1 f0          	and    $0xfffffffffffffff0,%rcx
    36f1:	45 31 c9             	xor    %r9d,%r9d
    36f4:	0f 1f 40 00          	nopl   0x0(%rax)
    36f8:	42 0f 10 44 48 08    	movups 0x8(%rax,%r9,2),%xmm0
    36fe:	42 0f 10 74 48 18    	movups 0x18(%rax,%r9,2),%xmm6
    3704:	0f c6 c6 88          	shufps $0x88,%xmm6,%xmm0
    3708:	42 0f 11 44 08 04    	movups %xmm0,0x4(%rax,%r9,1)
    370e:	49 83 c1 10          	add    $0x10,%r9
    3712:	49 39 c9             	cmp    %rcx,%r9
    3715:	75 e1                	jne    36f8 <riscv_dsp_idct_f32+0x318>
    3717:	4c 89 d9             	mov    %r11,%rcx
    371a:	48 83 e1 fc          	and    $0xfffffffffffffffc,%rcx
    371e:	48 8d 44 c8 08       	lea    0x8(%rax,%rcx,8),%rax
    3723:	48 8d 34 8e          	lea    (%rsi,%rcx,4),%rsi
    3727:	f3 0f 10 00          	movss  (%rax),%xmm0
    372b:	48 8d 4e 04          	lea    0x4(%rsi),%rcx
    372f:	f3 0f 11 06          	movss  %xmm0,(%rsi)
    3733:	48 39 cf             	cmp    %rcx,%rdi
    3736:	74 30                	je     3768 <riscv_dsp_idct_f32+0x388>
    3738:	f3 0f 10 40 08       	movss  0x8(%rax),%xmm0
    373d:	48 8d 4e 08          	lea    0x8(%rsi),%rcx
    3741:	f3 0f 11 46 04       	movss  %xmm0,0x4(%rsi)
    3746:	48 39 cf             	cmp    %rcx,%rdi
    3749:	74 1d                	je     3768 <riscv_dsp_idct_f32+0x388>
    374b:	f3 0f 10 40 10       	movss  0x10(%rax),%xmm0
    3750:	48 8d 4e 0c          	lea    0xc(%rsi),%rcx
    3754:	f3 0f 11 46 08       	movss  %xmm0,0x8(%rsi)
    3759:	48 39 cf             	cmp    %rcx,%rdi
    375c:	74 0a                	je     3768 <riscv_dsp_idct_f32+0x388>
    375e:	f3 0f 10 40 18       	movss  0x18(%rax),%xmm0
    3763:	f3 0f 11 46 0c       	movss  %xmm0,0xc(%rsi)
    3768:	48 3b 7d b8          	cmp    -0x48(%rbp),%rdi
    376c:	74 19                	je     3787 <riscv_dsp_idct_f32+0x3a7>
    376e:	4d 89 e1             	mov    %r12,%r9
    3771:	4c 89 d6             	mov    %r10,%rsi
    3774:	4c 89 45 b0          	mov    %r8,-0x50(%rbp)
    3778:	49 29 d1             	sub    %rdx,%r9
    377b:	4c 89 ca             	mov    %r9,%rdx
    377e:	e8 8d d9 ff ff       	call   1110 <memcpy@plt>
    3783:	4c 8b 45 b0          	mov    -0x50(%rbp),%r8
    3787:	44 89 f1             	mov    %r14d,%ecx
    378a:	b8 01 00 00 00       	mov    $0x1,%eax
    378f:	45 89 ed             	mov    %r13d,%r13d
    3792:	4c 89 c4             	mov    %r8,%rsp
    3795:	d3 e0                	shl    %cl,%eax
    3797:	4a 8d 3c ad 00 00 00 	lea    0x0(,%r13,4),%rdi
    379e:	00 
    379f:	48 89 da             	mov    %rbx,%rdx
    37a2:	48 c1 e0 02          	shl    $0x2,%rax
    37a6:	48 8d 48 f8          	lea    -0x8(%rax),%rcx
    37aa:	48 8d 34 03          	lea    (%rbx,%rax,1),%rsi
    37ae:	48 89 4d b0          	mov    %rcx,-0x50(%rbp)
    37b2:	48 c1 e9 03          	shr    $0x3,%rcx
    37b6:	4c 8d 49 01          	lea    0x1(%rcx),%r9
    37ba:	48 89 4d a0          	mov    %rcx,-0x60(%rbp)
    37be:	48 f7 d9             	neg    %rcx
    37c1:	4e 8d 04 8d 00 00 00 	lea    0x0(,%r9,4),%r8
    37c8:	00 
    37c9:	48 8d 4c 88 fc       	lea    -0x4(%rax,%rcx,4),%rcx
    37ce:	49 39 c8             	cmp    %rcx,%r8
    37d1:	0f 8f 69 01 00 00    	jg     3940 <riscv_dsp_idct_f32+0x560>
    37d7:	48 83 f8 08          	cmp    $0x8,%rax
    37db:	0f 84 5f 01 00 00    	je     3940 <riscv_dsp_idct_f32+0x560>
    37e1:	48 83 7d b0 10       	cmpq   $0x10,-0x50(%rbp)
    37e6:	0f 86 c6 01 00 00    	jbe    39b2 <riscv_dsp_idct_f32+0x5d2>
    37ec:	4d 89 c8             	mov    %r9,%r8
    37ef:	4f 8d 54 6d 00       	lea    0x0(%r13,%r13,2),%r10
    37f4:	48 8d 4c 03 f0       	lea    -0x10(%rbx,%rax,1),%rcx
    37f9:	4d 89 eb             	mov    %r13,%r11
    37fc:	49 c1 e8 02          	shr    $0x2,%r8
    3800:	49 c1 e3 04          	shl    $0x4,%r11
    3804:	4c 89 f8             	mov    %r15,%rax
    3807:	49 c1 e0 04          	shl    $0x4,%r8
    380b:	49 c1 e2 02          	shl    $0x2,%r10
    380f:	49 01 d8             	add    %rbx,%r8
    3812:	66 0f 1f 44 00 00    	nopw   0x0(%rax,%rax,1)
    3818:	f3 0f 10 14 78       	movss  (%rax,%rdi,2),%xmm2
    381d:	0f 10 0a             	movups (%rdx),%xmm1
    3820:	48 83 c2 10          	add    $0x10,%rdx
    3824:	48 83 e9 10          	sub    $0x10,%rcx
    3828:	f3 42 0f 10 04 10    	movss  (%rax,%r10,1),%xmm0
    382e:	f3 0f 10 1c 38       	movss  (%rax,%rdi,1),%xmm3
    3833:	0f 14 d0             	unpcklps %xmm0,%xmm2
    3836:	f3 0f 10 00          	movss  (%rax),%xmm0
    383a:	4c 01 d8             	add    %r11,%rax
    383d:	0f 14 c3             	unpcklps %xmm3,%xmm0
    3840:	0f 16 c2             	movlhps %xmm2,%xmm0
    3843:	0f 10 51 10          	movups 0x10(%rcx),%xmm2
    3847:	0f c6 d2 1b          	shufps $0x1b,%xmm2,%xmm2
    384b:	0f 59 c2             	mulps  %xmm2,%xmm0
    384e:	0f 28 d1             	movaps %xmm1,%xmm2
    3851:	0f 5c d0             	subps  %xmm0,%xmm2
    3854:	0f 58 c8             	addps  %xmm0,%xmm1
    3857:	0f c6 d2 1b          	shufps $0x1b,%xmm2,%xmm2
    385b:	0f 11 51 10          	movups %xmm2,0x10(%rcx)
    385f:	0f 11 4a f0          	movups %xmm1,-0x10(%rdx)
    3863:	4c 39 c2             	cmp    %r8,%rdx
    3866:	75 b0                	jne    3818 <riscv_dsp_idct_f32+0x438>
    3868:	4c 89 c8             	mov    %r9,%rax
    386b:	48 83 e0 fc          	and    $0xfffffffffffffffc,%rax
    386f:	48 8d 0c 85 00 00 00 	lea    0x0(,%rax,4),%rcx
    3876:	00 
    3877:	48 8d 14 0b          	lea    (%rbx,%rcx,1),%rdx
    387b:	48 29 ce             	sub    %rcx,%rsi
    387e:	48 89 f9             	mov    %rdi,%rcx
    3881:	48 0f af c8          	imul   %rax,%rcx
    3885:	49 01 cf             	add    %rcx,%r15
    3888:	49 39 c1             	cmp    %rax,%r9
    388b:	0f 84 2f fc ff ff    	je     34c0 <riscv_dsp_idct_f32+0xe0>
    3891:	49 29 c1             	sub    %rax,%r9
    3894:	48 39 45 a0          	cmp    %rax,-0x60(%rbp)
    3898:	74 7e                	je     3918 <riscv_dsp_idct_f32+0x538>
    389a:	4c 8b 55 b0          	mov    -0x50(%rbp),%r10
    389e:	4c 8d 04 85 00 00 00 	lea    0x0(,%rax,4),%r8
    38a5:	00 
    38a6:	4c 8d 1d 53 53 00 00 	lea    0x5353(%rip),%r11        # 8c00 <riscv_dsp_cos_recip_table_f32_1024>
    38ad:	48 0f af c7          	imul   %rdi,%rax
    38b1:	48 03 45 a8          	add    -0x58(%rbp),%rax
    38b5:	4a 8d 0c 03          	lea    (%rbx,%r8,1),%rcx
    38b9:	4d 29 c2             	sub    %r8,%r10
    38bc:	4c 01 d8             	add    %r11,%rax
    38bf:	f3 0f 7e 01          	movq   (%rcx),%xmm0
    38c3:	49 01 da             	add    %rbx,%r10
    38c6:	f3 42 0f 10 1c a8    	movss  (%rax,%r13,4),%xmm3
    38cc:	f3 0f 10 08          	movss  (%rax),%xmm1
    38d0:	4c 89 c8             	mov    %r9,%rax
    38d3:	f3 41 0f 7e 12       	movq   (%r10),%xmm2
    38d8:	48 83 e0 fe          	and    $0xfffffffffffffffe,%rax
    38dc:	0f 14 cb             	unpcklps %xmm3,%xmm1
    38df:	48 0f af f8          	imul   %rax,%rdi
    38e3:	0f c6 d2 e1          	shufps $0xe1,%xmm2,%xmm2
    38e7:	0f 59 ca             	mulps  %xmm2,%xmm1
    38ea:	0f 28 d0             	movaps %xmm0,%xmm2
    38ed:	49 01 ff             	add    %rdi,%r15
    38f0:	0f 5c d1             	subps  %xmm1,%xmm2
    38f3:	0f 58 c1             	addps  %xmm1,%xmm0
    38f6:	0f c6 d2 e1          	shufps $0xe1,%xmm2,%xmm2
    38fa:	41 0f 13 12          	movlps %xmm2,(%r10)
    38fe:	0f 13 01             	movlps %xmm0,(%rcx)
    3901:	48 8d 0c 85 00 00 00 	lea    0x0(,%rax,4),%rcx
    3908:	00 
    3909:	48 01 ca             	add    %rcx,%rdx
    390c:	48 29 ce             	sub    %rcx,%rsi
    390f:	49 39 c1             	cmp    %rax,%r9
    3912:	0f 84 a8 fb ff ff    	je     34c0 <riscv_dsp_idct_f32+0xe0>
    3918:	f3 0f 10 4e fc       	movss  -0x4(%rsi),%xmm1
    391d:	f3 41 0f 59 0f       	mulss  (%r15),%xmm1
    3922:	f3 0f 10 02          	movss  (%rdx),%xmm0
    3926:	0f 28 d0             	movaps %xmm0,%xmm2
    3929:	f3 0f 5c d1          	subss  %xmm1,%xmm2
    392d:	f3 0f 58 c1          	addss  %xmm1,%xmm0
    3931:	f3 0f 11 56 fc       	movss  %xmm2,-0x4(%rsi)
    3936:	f3 0f 11 02          	movss  %xmm0,(%rdx)
    393a:	e9 81 fb ff ff       	jmp    34c0 <riscv_dsp_idct_f32+0xe0>
    393f:	90                   	nop
    3940:	48 89 d8             	mov    %rbx,%rax
    3943:	0f 1f 44 00 00       	nopl   0x0(%rax,%rax,1)
    3948:	f3 0f 10 4e fc       	movss  -0x4(%rsi),%xmm1
    394d:	f3 0f 10 00          	movss  (%rax),%xmm0
    3951:	48 83 ee 04          	sub    $0x4,%rsi
    3955:	48 83 c0 04          	add    $0x4,%rax
    3959:	f3 41 0f 59 0f       	mulss  (%r15),%xmm1
    395e:	49 01 ff             	add    %rdi,%r15
    3961:	0f 28 d0             	movaps %xmm0,%xmm2
    3964:	f3 0f 5c d1          	subss  %xmm1,%xmm2
    3968:	f3 0f 58 c1          	addss  %xmm1,%xmm0
    396c:	f3 0f 11 16          	movss  %xmm2,(%rsi)
    3970:	f3 0f 11 40 fc       	movss  %xmm0,-0x4(%rax)
    3975:	48 39 c6             	cmp    %rax,%rsi
    3978:	75 ce                	jne    3948 <riscv_dsp_idct_f32+0x568>
    397a:	e9 41 fb ff ff       	jmp    34c0 <riscv_dsp_idct_f32+0xe0>
    397f:	31 d2                	xor    %edx,%edx
    3981:	e9 ad fb ff ff       	jmp    3533 <riscv_dsp_idct_f32+0x153>
    3986:	48 8d 77 fc          	lea    -0x4(%rdi),%rsi
    398a:	31 c9                	xor    %ecx,%ecx
    398c:	48 29 c6             	sub    %rax,%rsi
    398f:	90                   	nop
    3990:	f3 0f 10 44 48 08    	movss  0x8(%rax,%rcx,2),%xmm0
    3996:	f3 0f 11 44 08 04    	movss  %xmm0,0x4(%rax,%rcx,1)
    399c:	48 83 c1 04          	add    $0x4,%rcx
    39a0:	48 39 f1             	cmp    %rsi,%rcx
    39a3:	75 eb                	jne    3990 <riscv_dsp_idct_f32+0x5b0>
    39a5:	e9 be fd ff ff       	jmp    3768 <riscv_dsp_idct_f32+0x388>
    39aa:	48 89 d8             	mov    %rbx,%rax
    39ad:	e9 f5 fc ff ff       	jmp    36a7 <riscv_dsp_idct_f32+0x2c7>
    39b2:	48 89 da             	mov    %rbx,%rdx
    39b5:	31 c0                	xor    %eax,%eax
    39b7:	e9 d5 fe ff ff       	jmp    3891 <riscv_dsp_idct_f32+0x4b1>
    39bc:	e8 2f d7 ff ff       	call   10f0 <__stack_chk_fail@plt>

Disassembly of section .fini:

00000000000039c4 <_fini>:
    39c4:	f3 0f 1e fa          	endbr64 
    39c8:	48 83 ec 08          	sub    $0x8,%rsp
    39cc:	48 83 c4 08          	add    $0x8,%rsp
    39d0:	c3                   	ret    
