
t_dprod_q31:     file format elf64-x86-64


Disassembly of section .init:

0000000000001000 <_init>:
    1000:	f3 0f 1e fa          	endbr64 
    1004:	48 83 ec 08          	sub    $0x8,%rsp
    1008:	48 8b 05 d9 2f 00 00 	mov    0x2fd9(%rip),%rax        # 3fe8 <__gmon_start__@Base>
    100f:	48 85 c0             	test   %rax,%rax
    1012:	74 02                	je     1016 <_init+0x16>
    1014:	ff d0                	call   *%rax
    1016:	48 83 c4 08          	add    $0x8,%rsp
    101a:	c3                   	ret    

Disassembly of section .plt:

0000000000001020 <.plt>:
    1020:	ff 35 5a 2f 00 00    	push   0x2f5a(%rip)        # 3f80 <_GLOBAL_OFFSET_TABLE_+0x8>
    1026:	f2 ff 25 5b 2f 00 00 	bnd jmp *0x2f5b(%rip)        # 3f88 <_GLOBAL_OFFSET_TABLE_+0x10>
    102d:	0f 1f 00             	nopl   (%rax)
    1030:	f3 0f 1e fa          	endbr64 
    1034:	68 00 00 00 00       	push   $0x0
    1039:	f2 e9 e1 ff ff ff    	bnd jmp 1020 <_init+0x20>
    103f:	90                   	nop
    1040:	f3 0f 1e fa          	endbr64 
    1044:	68 01 00 00 00       	push   $0x1
    1049:	f2 e9 d1 ff ff ff    	bnd jmp 1020 <_init+0x20>
    104f:	90                   	nop
    1050:	f3 0f 1e fa          	endbr64 
    1054:	68 02 00 00 00       	push   $0x2
    1059:	f2 e9 c1 ff ff ff    	bnd jmp 1020 <_init+0x20>
    105f:	90                   	nop
    1060:	f3 0f 1e fa          	endbr64 
    1064:	68 03 00 00 00       	push   $0x3
    1069:	f2 e9 b1 ff ff ff    	bnd jmp 1020 <_init+0x20>
    106f:	90                   	nop
    1070:	f3 0f 1e fa          	endbr64 
    1074:	68 04 00 00 00       	push   $0x4
    1079:	f2 e9 a1 ff ff ff    	bnd jmp 1020 <_init+0x20>
    107f:	90                   	nop
    1080:	f3 0f 1e fa          	endbr64 
    1084:	68 05 00 00 00       	push   $0x5
    1089:	f2 e9 91 ff ff ff    	bnd jmp 1020 <_init+0x20>
    108f:	90                   	nop
    1090:	f3 0f 1e fa          	endbr64 
    1094:	68 06 00 00 00       	push   $0x6
    1099:	f2 e9 81 ff ff ff    	bnd jmp 1020 <_init+0x20>
    109f:	90                   	nop
    10a0:	f3 0f 1e fa          	endbr64 
    10a4:	68 07 00 00 00       	push   $0x7
    10a9:	f2 e9 71 ff ff ff    	bnd jmp 1020 <_init+0x20>
    10af:	90                   	nop
    10b0:	f3 0f 1e fa          	endbr64 
    10b4:	68 08 00 00 00       	push   $0x8
    10b9:	f2 e9 61 ff ff ff    	bnd jmp 1020 <_init+0x20>
    10bf:	90                   	nop

Disassembly of section .plt.got:

00000000000010c0 <__cxa_finalize@plt>:
    10c0:	f3 0f 1e fa          	endbr64 
    10c4:	f2 ff 25 2d 2f 00 00 	bnd jmp *0x2f2d(%rip)        # 3ff8 <__cxa_finalize@GLIBC_2.2.5>
    10cb:	0f 1f 44 00 00       	nopl   0x0(%rax,%rax,1)

Disassembly of section .plt.sec:

00000000000010d0 <puts@plt>:
    10d0:	f3 0f 1e fa          	endbr64 
    10d4:	f2 ff 25 b5 2e 00 00 	bnd jmp *0x2eb5(%rip)        # 3f90 <puts@GLIBC_2.2.5>
    10db:	0f 1f 44 00 00       	nopl   0x0(%rax,%rax,1)

00000000000010e0 <fread@plt>:
    10e0:	f3 0f 1e fa          	endbr64 
    10e4:	f2 ff 25 ad 2e 00 00 	bnd jmp *0x2ead(%rip)        # 3f98 <fread@GLIBC_2.2.5>
    10eb:	0f 1f 44 00 00       	nopl   0x0(%rax,%rax,1)

00000000000010f0 <fclose@plt>:
    10f0:	f3 0f 1e fa          	endbr64 
    10f4:	f2 ff 25 a5 2e 00 00 	bnd jmp *0x2ea5(%rip)        # 3fa0 <fclose@GLIBC_2.2.5>
    10fb:	0f 1f 44 00 00       	nopl   0x0(%rax,%rax,1)

0000000000001100 <__stack_chk_fail@plt>:
    1100:	f3 0f 1e fa          	endbr64 
    1104:	f2 ff 25 9d 2e 00 00 	bnd jmp *0x2e9d(%rip)        # 3fa8 <__stack_chk_fail@GLIBC_2.4>
    110b:	0f 1f 44 00 00       	nopl   0x0(%rax,%rax,1)

0000000000001110 <log10f@plt>:
    1110:	f3 0f 1e fa          	endbr64 
    1114:	f2 ff 25 95 2e 00 00 	bnd jmp *0x2e95(%rip)        # 3fb0 <log10f@GLIBC_2.2.5>
    111b:	0f 1f 44 00 00       	nopl   0x0(%rax,%rax,1)

0000000000001120 <__printf_chk@plt>:
    1120:	f3 0f 1e fa          	endbr64 
    1124:	f2 ff 25 8d 2e 00 00 	bnd jmp *0x2e8d(%rip)        # 3fb8 <__printf_chk@GLIBC_2.3.4>
    112b:	0f 1f 44 00 00       	nopl   0x0(%rax,%rax,1)

0000000000001130 <fopen@plt>:
    1130:	f3 0f 1e fa          	endbr64 
    1134:	f2 ff 25 85 2e 00 00 	bnd jmp *0x2e85(%rip)        # 3fc0 <fopen@GLIBC_2.2.5>
    113b:	0f 1f 44 00 00       	nopl   0x0(%rax,%rax,1)

0000000000001140 <sqrt@plt>:
    1140:	f3 0f 1e fa          	endbr64 
    1144:	f2 ff 25 7d 2e 00 00 	bnd jmp *0x2e7d(%rip)        # 3fc8 <sqrt@GLIBC_2.2.5>
    114b:	0f 1f 44 00 00       	nopl   0x0(%rax,%rax,1)

0000000000001150 <__sprintf_chk@plt>:
    1150:	f3 0f 1e fa          	endbr64 
    1154:	f2 ff 25 75 2e 00 00 	bnd jmp *0x2e75(%rip)        # 3fd0 <__sprintf_chk@GLIBC_2.3.4>
    115b:	0f 1f 44 00 00       	nopl   0x0(%rax,%rax,1)

Disassembly of section .text:

0000000000001160 <main>:
    1160:	f3 0f 1e fa          	endbr64 
    1164:	55                   	push   %rbp
    1165:	48 89 e5             	mov    %rsp,%rbp
    1168:	41 57                	push   %r15
    116a:	41 56                	push   %r14
    116c:	41 55                	push   %r13
    116e:	41 54                	push   %r12
    1170:	53                   	push   %rbx
    1171:	48 81 ec 68 03 00 00 	sub    $0x368,%rsp
    1178:	64 48 8b 04 25 28 00 	mov    %fs:0x28,%rax
    117f:	00 00 
    1181:	48 89 45 c8          	mov    %rax,-0x38(%rbp)
    1185:	31 c0                	xor    %eax,%eax
    1187:	48 8d 84 24 00 f0 ff 	lea    -0x1000(%rsp),%rax
    118e:	ff 
    118f:	48 39 c4             	cmp    %rax,%rsp
    1192:	74 15                	je     11a9 <main+0x49>
    1194:	48 81 ec 00 10 00 00 	sub    $0x1000,%rsp
    119b:	48 83 8c 24 f8 0f 00 	orq    $0x0,0xff8(%rsp)
    11a2:	00 00 
    11a4:	48 39 c4             	cmp    %rax,%rsp
    11a7:	75 eb                	jne    1194 <main+0x34>
    11a9:	48 81 ec 40 0d 00 00 	sub    $0xd40,%rsp
    11b0:	48 83 8c 24 38 0d 00 	orq    $0x0,0xd38(%rsp)
    11b7:	00 00 
    11b9:	48 89 a5 90 fc ff ff 	mov    %rsp,-0x370(%rbp)
    11c0:	48 8d 84 24 00 f0 ff 	lea    -0x1000(%rsp),%rax
    11c7:	ff 
    11c8:	48 39 c4             	cmp    %rax,%rsp
    11cb:	74 12                	je     11df <main+0x7f>
    11cd:	48 81 ec 00 10 00 00 	sub    $0x1000,%rsp
    11d4:	48 83 8c 24 f8 0f 00 	orq    $0x0,0xff8(%rsp)
    11db:	00 00 
    11dd:	eb e9                	jmp    11c8 <main+0x68>
    11df:	48 81 ec 40 0d 00 00 	sub    $0xd40,%rsp
    11e6:	48 83 8c 24 38 0d 00 	orq    $0x0,0xd38(%rsp)
    11ed:	00 00 
    11ef:	4c 8d 05 12 0e 00 00 	lea    0xe12(%rip),%r8        # 2008 <_IO_stdin_used+0x8>
    11f6:	ba 00 02 00 00       	mov    $0x200,%edx
    11fb:	31 c0                	xor    %eax,%eax
    11fd:	48 8d 0d 9d 0e 00 00 	lea    0xe9d(%rip),%rcx        # 20a1 <_IO_stdin_used+0xa1>
    1204:	be 01 00 00 00       	mov    $0x1,%esi
    1209:	4c 8d 25 a4 0e 00 00 	lea    0xea4(%rip),%r12        # 20b4 <_IO_stdin_used+0xb4>
    1210:	4c 8d bd c0 fd ff ff 	lea    -0x240(%rbp),%r15
    1217:	48 89 a5 88 fc ff ff 	mov    %rsp,-0x378(%rbp)
    121e:	4c 89 ff             	mov    %r15,%rdi
    1221:	e8 2a ff ff ff       	call   1150 <__sprintf_chk@plt>
    1226:	4c 89 e6             	mov    %r12,%rsi
    1229:	4c 89 ff             	mov    %r15,%rdi
    122c:	e8 ff fe ff ff       	call   1130 <fopen@plt>
    1231:	49 89 c6             	mov    %rax,%r14
    1234:	48 85 c0             	test   %rax,%rax
    1237:	0f 84 49 04 00 00    	je     1686 <main+0x526>
    123d:	ba 00 02 00 00       	mov    $0x200,%edx
    1242:	be 01 00 00 00       	mov    $0x1,%esi
    1247:	4c 89 ff             	mov    %r15,%rdi
    124a:	31 c0                	xor    %eax,%eax
    124c:	4c 8d 05 b5 0d 00 00 	lea    0xdb5(%rip),%r8        # 2008 <_IO_stdin_used+0x8>
    1253:	48 8d 0d 5c 0e 00 00 	lea    0xe5c(%rip),%rcx        # 20b6 <_IO_stdin_used+0xb6>
    125a:	e8 f1 fe ff ff       	call   1150 <__sprintf_chk@plt>
    125f:	4c 89 e6             	mov    %r12,%rsi
    1262:	4c 89 ff             	mov    %r15,%rdi
    1265:	e8 c6 fe ff ff       	call   1130 <fopen@plt>
    126a:	4c 8d 05 97 0d 00 00 	lea    0xd97(%rip),%r8        # 2008 <_IO_stdin_used+0x8>
    1271:	ba 00 02 00 00       	mov    $0x200,%edx
    1276:	4c 89 ff             	mov    %r15,%rdi
    1279:	48 8d 0d 49 0e 00 00 	lea    0xe49(%rip),%rcx        # 20c9 <_IO_stdin_used+0xc9>
    1280:	be 01 00 00 00       	mov    $0x1,%esi
    1285:	49 89 c5             	mov    %rax,%r13
    1288:	31 c0                	xor    %eax,%eax
    128a:	e8 c1 fe ff ff       	call   1150 <__sprintf_chk@plt>
    128f:	4c 89 e6             	mov    %r12,%rsi
    1292:	4c 89 ff             	mov    %r15,%rdi
    1295:	e8 96 fe ff ff       	call   1130 <fopen@plt>
    129a:	48 89 85 80 fc ff ff 	mov    %rax,-0x380(%rbp)
    12a1:	48 85 c0             	test   %rax,%rax
    12a4:	0f 84 dc 03 00 00    	je     1686 <main+0x526>
    12aa:	48 8b 85 90 fc ff ff 	mov    -0x370(%rbp),%rax
    12b1:	4c 8d a5 a0 fc ff ff 	lea    -0x360(%rbp),%r12
    12b8:	48 8d 9d 30 fd ff ff 	lea    -0x2d0(%rbp),%rbx
    12bf:	49 89 c7             	mov    %rax,%r15
    12c2:	48 05 40 1d 00 00    	add    $0x1d40,%rax
    12c8:	48 89 85 98 fc ff ff 	mov    %rax,-0x368(%rbp)
    12cf:	90                   	nop
    12d0:	4c 89 f1             	mov    %r14,%rcx
    12d3:	ba 23 00 00 00       	mov    $0x23,%edx
    12d8:	be 04 00 00 00       	mov    $0x4,%esi
    12dd:	4c 89 e7             	mov    %r12,%rdi
    12e0:	e8 fb fd ff ff       	call   10e0 <fread@plt>
    12e5:	4c 89 e9             	mov    %r13,%rcx
    12e8:	ba 23 00 00 00       	mov    $0x23,%edx
    12ed:	48 89 df             	mov    %rbx,%rdi
    12f0:	be 04 00 00 00       	mov    $0x4,%esi
    12f5:	49 83 c7 08          	add    $0x8,%r15
    12f9:	e8 e2 fd ff ff       	call   10e0 <fread@plt>
    12fe:	ba 23 00 00 00       	mov    $0x23,%edx
    1303:	48 89 de             	mov    %rbx,%rsi
    1306:	4c 89 e7             	mov    %r12,%rdi
    1309:	e8 e2 04 00 00       	call   17f0 <riscv_dsp_dprod_q31>
    130e:	49 89 47 f8          	mov    %rax,-0x8(%r15)
    1312:	4c 39 bd 98 fc ff ff 	cmp    %r15,-0x368(%rbp)
    1319:	75 b5                	jne    12d0 <main+0x170>
    131b:	48 8b 8d 80 fc ff ff 	mov    -0x380(%rbp),%rcx
    1322:	ba a8 03 00 00       	mov    $0x3a8,%edx
    1327:	be 08 00 00 00       	mov    $0x8,%esi
    132c:	48 8b bd 88 fc ff ff 	mov    -0x378(%rbp),%rdi
    1333:	e8 a8 fd ff ff       	call   10e0 <fread@plt>
    1338:	31 c0                	xor    %eax,%eax
    133a:	31 d2                	xor    %edx,%edx
    133c:	0f 1f 40 00          	nopl   0x0(%rax)
    1340:	48 8b 9d 88 fc ff ff 	mov    -0x378(%rbp),%rbx
    1347:	48 8b 34 03          	mov    (%rbx,%rax,1),%rsi
    134b:	48 8b 9d 90 fc ff ff 	mov    -0x370(%rbp),%rbx
    1352:	48 8b 3c 03          	mov    (%rbx,%rax,1),%rdi
    1356:	49 89 f0             	mov    %rsi,%r8
    1359:	48 89 f9             	mov    %rdi,%rcx
    135c:	49 29 f8             	sub    %rdi,%r8
    135f:	48 29 f1             	sub    %rsi,%rcx
    1362:	48 39 f7             	cmp    %rsi,%rdi
    1365:	49 0f 4c c8          	cmovl  %r8,%rcx
    1369:	48 39 ca             	cmp    %rcx,%rdx
    136c:	48 0f 4c d1          	cmovl  %rcx,%rdx
    1370:	48 83 c0 08          	add    $0x8,%rax
    1374:	48 3d 40 1d 00 00    	cmp    $0x1d40,%rax
    137a:	75 c4                	jne    1340 <main+0x1e0>
    137c:	89 d1                	mov    %edx,%ecx
    137e:	48 8d 35 5c 0d 00 00 	lea    0xd5c(%rip),%rsi        # 20e1 <_IO_stdin_used+0xe1>
    1385:	48 c1 ea 20          	shr    $0x20,%rdx
    1389:	31 c0                	xor    %eax,%eax
    138b:	bf 01 00 00 00       	mov    $0x1,%edi
    1390:	e8 8b fd ff ff       	call   1120 <__printf_chk@plt>
    1395:	4c 89 f7             	mov    %r14,%rdi
    1398:	e8 53 fd ff ff       	call   10f0 <fclose@plt>
    139d:	4c 89 ef             	mov    %r13,%rdi
    13a0:	e8 4b fd ff ff       	call   10f0 <fclose@plt>
    13a5:	48 8b bd 80 fc ff ff 	mov    -0x380(%rbp),%rdi
    13ac:	e8 3f fd ff ff       	call   10f0 <fclose@plt>
    13b1:	48 8d 84 24 00 f0 ff 	lea    -0x1000(%rsp),%rax
    13b8:	ff 
    13b9:	48 39 c4             	cmp    %rax,%rsp
    13bc:	74 15                	je     13d3 <main+0x273>
    13be:	48 81 ec 00 10 00 00 	sub    $0x1000,%rsp
    13c5:	48 83 8c 24 f8 0f 00 	orq    $0x0,0xff8(%rsp)
    13cc:	00 00 
    13ce:	48 39 c4             	cmp    %rax,%rsp
    13d1:	75 eb                	jne    13be <main+0x25e>
    13d3:	48 81 ec 40 0d 00 00 	sub    $0xd40,%rsp
    13da:	48 83 8c 24 38 0d 00 	orq    $0x0,0xd38(%rsp)
    13e1:	00 00 
    13e3:	48 89 e2             	mov    %rsp,%rdx
    13e6:	48 8d 84 24 00 f0 ff 	lea    -0x1000(%rsp),%rax
    13ed:	ff 
    13ee:	48 39 c4             	cmp    %rax,%rsp
    13f1:	74 12                	je     1405 <main+0x2a5>
    13f3:	48 81 ec 00 10 00 00 	sub    $0x1000,%rsp
    13fa:	48 83 8c 24 f8 0f 00 	orq    $0x0,0xff8(%rsp)
    1401:	00 00 
    1403:	eb e9                	jmp    13ee <main+0x28e>
    1405:	48 81 ec 40 0d 00 00 	sub    $0xd40,%rsp
    140c:	48 83 8c 24 38 0d 00 	orq    $0x0,0xd38(%rsp)
    1413:	00 00 
    1415:	f3 0f 10 0d f7 0c 00 	movss  0xcf7(%rip),%xmm1        # 2114 <_IO_stdin_used+0x114>
    141c:	00 
    141d:	31 c0                	xor    %eax,%eax
    141f:	48 89 e1             	mov    %rsp,%rcx
    1422:	66 0f 1f 44 00 00    	nopw   0x0(%rax,%rax,1)
    1428:	48 8b 9d 88 fc ff ff 	mov    -0x378(%rbp),%rbx
    142f:	66 0f ef c0          	pxor   %xmm0,%xmm0
    1433:	f3 48 0f 2a 04 03    	cvtsi2ssq (%rbx,%rax,1),%xmm0
    1439:	f3 0f 59 c1          	mulss  %xmm1,%xmm0
    143d:	f3 0f 5a c0          	cvtss2sd %xmm0,%xmm0
    1441:	f2 0f 11 04 02       	movsd  %xmm0,(%rdx,%rax,1)
    1446:	48 83 c0 08          	add    $0x8,%rax
    144a:	48 3d 40 1d 00 00    	cmp    $0x1d40,%rax
    1450:	75 d6                	jne    1428 <main+0x2c8>
    1452:	31 c0                	xor    %eax,%eax
    1454:	0f 1f 40 00          	nopl   0x0(%rax)
    1458:	48 8b 9d 90 fc ff ff 	mov    -0x370(%rbp),%rbx
    145f:	66 0f ef c0          	pxor   %xmm0,%xmm0
    1463:	f3 48 0f 2a 04 03    	cvtsi2ssq (%rbx,%rax,1),%xmm0
    1469:	f3 0f 59 c1          	mulss  %xmm1,%xmm0
    146d:	f3 0f 5a c0          	cvtss2sd %xmm0,%xmm0
    1471:	f2 0f 11 04 01       	movsd  %xmm0,(%rcx,%rax,1)
    1476:	48 83 c0 08          	add    $0x8,%rax
    147a:	48 3d 40 1d 00 00    	cmp    $0x1d40,%rax
    1480:	75 d6                	jne    1458 <main+0x2f8>
    1482:	66 0f ef ed          	pxor   %xmm5,%xmm5
    1486:	66 45 0f ef c9       	pxor   %xmm9,%xmm9
    148b:	31 c0                	xor    %eax,%eax
    148d:	66 41 0f 28 f9       	movapd %xmm9,%xmm7
    1492:	66 41 0f 28 f1       	movapd %xmm9,%xmm6
    1497:	0f 28 dd             	movaps %xmm5,%xmm3
    149a:	0f 28 e5             	movaps %xmm5,%xmm4
    149d:	44 0f 28 c5          	movaps %xmm5,%xmm8
    14a1:	44 0f 28 d5          	movaps %xmm5,%xmm10
    14a5:	eb 43                	jmp    14ea <main+0x38a>
    14a7:	66 0f 1f 84 00 00 00 	nopw   0x0(%rax,%rax,1)
    14ae:	00 00 
    14b0:	f2 0f 5c d0          	subsd  %xmm0,%xmm2
    14b4:	66 0f ef c9          	pxor   %xmm1,%xmm1
    14b8:	f2 0f 5a ca          	cvtsd2ss %xmm2,%xmm1
    14bc:	f2 0f 59 c0          	mulsd  %xmm0,%xmm0
    14c0:	0f 28 d1             	movaps %xmm1,%xmm2
    14c3:	f3 0f 58 e1          	addss  %xmm1,%xmm4
    14c7:	48 83 c0 08          	add    $0x8,%rax
    14cb:	f3 0f 59 c9          	mulss  %xmm1,%xmm1
    14cf:	f3 0f 5f d3          	maxss  %xmm3,%xmm2
    14d3:	0f 28 da             	movaps %xmm2,%xmm3
    14d6:	f2 0f 58 f8          	addsd  %xmm0,%xmm7
    14da:	f3 0f 5a c9          	cvtss2sd %xmm1,%xmm1
    14de:	f2 0f 58 f1          	addsd  %xmm1,%xmm6
    14e2:	48 3d 40 1d 00 00    	cmp    $0x1d40,%rax
    14e8:	74 50                	je     153a <main+0x3da>
    14ea:	f2 0f 10 04 02       	movsd  (%rdx,%rax,1),%xmm0
    14ef:	66 0f ef c9          	pxor   %xmm1,%xmm1
    14f3:	f2 0f 10 14 01       	movsd  (%rcx,%rax,1),%xmm2
    14f8:	f3 41 0f 5a ca       	cvtss2sd %xmm10,%xmm1
    14fd:	66 0f 2f c1          	comisd %xmm1,%xmm0
    1501:	76 0a                	jbe    150d <main+0x3ad>
    1503:	66 45 0f ef d2       	pxor   %xmm10,%xmm10
    1508:	f2 44 0f 5a d0       	cvtsd2ss %xmm0,%xmm10
    150d:	66 0f ef c9          	pxor   %xmm1,%xmm1
    1511:	f3 41 0f 5a c8       	cvtss2sd %xmm8,%xmm1
    1516:	66 0f 2f c8          	comisd %xmm0,%xmm1
    151a:	76 0a                	jbe    1526 <main+0x3c6>
    151c:	66 45 0f ef c0       	pxor   %xmm8,%xmm8
    1521:	f2 44 0f 5a c0       	cvtsd2ss %xmm0,%xmm8
    1526:	66 0f 2f d0          	comisd %xmm0,%xmm2
    152a:	77 84                	ja     14b0 <main+0x350>
    152c:	66 0f 28 c8          	movapd %xmm0,%xmm1
    1530:	f2 0f 5c ca          	subsd  %xmm2,%xmm1
    1534:	f2 0f 5a c9          	cvtsd2ss %xmm1,%xmm1
    1538:	eb 82                	jmp    14bc <main+0x35c>
    153a:	66 0f 28 c6          	movapd %xmm6,%xmm0
    153e:	f2 0f 5e 05 da 0b 00 	divsd  0xbda(%rip),%xmm0        # 2120 <_IO_stdin_used+0x120>
    1545:	00 
    1546:	66 44 0f 2e c8       	ucomisd %xmm0,%xmm9
    154b:	f3 0f 5e 25 c5 0b 00 	divss  0xbc5(%rip),%xmm4        # 2118 <_IO_stdin_used+0x118>
    1552:	00 
    1553:	66 0f 7e e3          	movd   %xmm4,%ebx
    1557:	0f 87 33 01 00 00    	ja     1690 <main+0x530>
    155d:	f2 0f 51 c0          	sqrtsd %xmm0,%xmm0
    1561:	f3 45 0f 5c d0       	subss  %xmm8,%xmm10
    1566:	66 41 0f 2e f1       	ucomisd %xmm9,%xmm6
    156b:	66 0f ef c9          	pxor   %xmm1,%xmm1
    156f:	f2 0f 5a c8          	cvtsd2ss %xmm0,%xmm1
    1573:	0f 28 e1             	movaps %xmm1,%xmm4
    1576:	f3 41 0f 5e e2       	divss  %xmm10,%xmm4
    157b:	66 41 0f 7e e4       	movd   %xmm4,%r12d
    1580:	0f 8a be 00 00 00    	jp     1644 <main+0x4e4>
    1586:	f3 0f 10 25 82 0b 00 	movss  0xb82(%rip),%xmm4        # 2110 <_IO_stdin_used+0x110>
    158d:	00 
    158e:	0f 85 b0 00 00 00    	jne    1644 <main+0x4e4>
    1594:	48 8d 3d 5e 0b 00 00 	lea    0xb5e(%rip),%rdi        # 20f9 <_IO_stdin_used+0xf9>
    159b:	f3 0f 11 9d 88 fc ff 	movss  %xmm3,-0x378(%rbp)
    15a2:	ff 
    15a3:	f3 0f 11 a5 90 fc ff 	movss  %xmm4,-0x370(%rbp)
    15aa:	ff 
    15ab:	f3 0f 11 8d 98 fc ff 	movss  %xmm1,-0x368(%rbp)
    15b2:	ff 
    15b3:	e8 18 fb ff ff       	call   10d0 <puts@plt>
    15b8:	66 0f 6e eb          	movd   %ebx,%xmm5
    15bc:	66 41 0f 6e fc       	movd   %r12d,%xmm7
    15c1:	f3 0f 10 a5 90 fc ff 	movss  -0x370(%rbp),%xmm4
    15c8:	ff 
    15c9:	f3 0f 10 9d 88 fc ff 	movss  -0x378(%rbp),%xmm3
    15d0:	ff 
    15d1:	f3 0f 10 8d 98 fc ff 	movss  -0x368(%rbp),%xmm1
    15d8:	ff 
    15d9:	66 0f ef c0          	pxor   %xmm0,%xmm0
    15dd:	66 0f ef d2          	pxor   %xmm2,%xmm2
    15e1:	48 8d 35 68 0a 00 00 	lea    0xa68(%rip),%rsi        # 2050 <_IO_stdin_used+0x50>
    15e8:	f3 0f 5a c5          	cvtss2sd %xmm5,%xmm0
    15ec:	f3 0f 5a e4          	cvtss2sd %xmm4,%xmm4
    15f0:	f3 0f 5a d7          	cvtss2sd %xmm7,%xmm2
    15f4:	bf 01 00 00 00       	mov    $0x1,%edi
    15f9:	b8 05 00 00 00       	mov    $0x5,%eax
    15fe:	f3 0f 5a db          	cvtss2sd %xmm3,%xmm3
    1602:	f3 0f 5a c9          	cvtss2sd %xmm1,%xmm1
    1606:	e8 15 fb ff ff       	call   1120 <__printf_chk@plt>
    160b:	66 41 0f 6e f4       	movd   %r12d,%xmm6
    1610:	66 0f ef ed          	pxor   %xmm5,%xmm5
    1614:	31 c0                	xor    %eax,%eax
    1616:	0f 2e f5             	ucomiss %xmm5,%xmm6
    1619:	ba 01 00 00 00       	mov    $0x1,%edx
    161e:	0f 9a c0             	setp   %al
    1621:	0f 45 c2             	cmovne %edx,%eax
    1624:	f7 d8                	neg    %eax
    1626:	48 8b 55 c8          	mov    -0x38(%rbp),%rdx
    162a:	64 48 2b 14 25 28 00 	sub    %fs:0x28,%rdx
    1631:	00 00 
    1633:	75 56                	jne    168b <main+0x52b>
    1635:	48 8d 65 d8          	lea    -0x28(%rbp),%rsp
    1639:	5b                   	pop    %rbx
    163a:	41 5c                	pop    %r12
    163c:	41 5d                	pop    %r13
    163e:	41 5e                	pop    %r14
    1640:	41 5f                	pop    %r15
    1642:	5d                   	pop    %rbp
    1643:	c3                   	ret    
    1644:	f2 0f 5e fe          	divsd  %xmm6,%xmm7
    1648:	66 0f ef c0          	pxor   %xmm0,%xmm0
    164c:	f3 0f 11 9d 90 fc ff 	movss  %xmm3,-0x370(%rbp)
    1653:	ff 
    1654:	f3 0f 11 8d 98 fc ff 	movss  %xmm1,-0x368(%rbp)
    165b:	ff 
    165c:	f2 0f 5a c7          	cvtsd2ss %xmm7,%xmm0
    1660:	e8 ab fa ff ff       	call   1110 <log10f@plt>
    1665:	f3 0f 10 25 af 0a 00 	movss  0xaaf(%rip),%xmm4        # 211c <_IO_stdin_used+0x11c>
    166c:	00 
    166d:	f3 0f 10 9d 90 fc ff 	movss  -0x370(%rbp),%xmm3
    1674:	ff 
    1675:	f3 0f 10 8d 98 fc ff 	movss  -0x368(%rbp),%xmm1
    167c:	ff 
    167d:	f3 0f 59 e0          	mulss  %xmm0,%xmm4
    1681:	e9 0e ff ff ff       	jmp    1594 <main+0x434>
    1686:	83 c8 ff             	or     $0xffffffff,%eax
    1689:	eb 9b                	jmp    1626 <main+0x4c6>
    168b:	e8 70 fa ff ff       	call   1100 <__stack_chk_fail@plt>
    1690:	f3 44 0f 11 85 80 fc 	movss  %xmm8,-0x380(%rbp)
    1697:	ff ff 
    1699:	f3 44 0f 11 95 88 fc 	movss  %xmm10,-0x378(%rbp)
    16a0:	ff ff 
    16a2:	f2 0f 11 bd 90 fc ff 	movsd  %xmm7,-0x370(%rbp)
    16a9:	ff 
    16aa:	f2 0f 11 b5 98 fc ff 	movsd  %xmm6,-0x368(%rbp)
    16b1:	ff 
    16b2:	f3 0f 11 95 7c fc ff 	movss  %xmm2,-0x384(%rbp)
    16b9:	ff 
    16ba:	e8 81 fa ff ff       	call   1140 <sqrt@plt>
    16bf:	f3 0f 10 9d 7c fc ff 	movss  -0x384(%rbp),%xmm3
    16c6:	ff 
    16c7:	66 45 0f ef c9       	pxor   %xmm9,%xmm9
    16cc:	f3 44 0f 10 85 80 fc 	movss  -0x380(%rbp),%xmm8
    16d3:	ff ff 
    16d5:	f2 0f 10 bd 90 fc ff 	movsd  -0x370(%rbp),%xmm7
    16dc:	ff 
    16dd:	f2 0f 10 b5 98 fc ff 	movsd  -0x368(%rbp),%xmm6
    16e4:	ff 
    16e5:	f3 44 0f 10 95 88 fc 	movss  -0x378(%rbp),%xmm10
    16ec:	ff ff 
    16ee:	e9 6e fe ff ff       	jmp    1561 <main+0x401>
    16f3:	66 2e 0f 1f 84 00 00 	cs nopw 0x0(%rax,%rax,1)
    16fa:	00 00 00 
    16fd:	0f 1f 00             	nopl   (%rax)

0000000000001700 <_start>:
    1700:	f3 0f 1e fa          	endbr64 
    1704:	31 ed                	xor    %ebp,%ebp
    1706:	49 89 d1             	mov    %rdx,%r9
    1709:	5e                   	pop    %rsi
    170a:	48 89 e2             	mov    %rsp,%rdx
    170d:	48 83 e4 f0          	and    $0xfffffffffffffff0,%rsp
    1711:	50                   	push   %rax
    1712:	54                   	push   %rsp
    1713:	45 31 c0             	xor    %r8d,%r8d
    1716:	31 c9                	xor    %ecx,%ecx
    1718:	48 8d 3d 41 fa ff ff 	lea    -0x5bf(%rip),%rdi        # 1160 <main>
    171f:	ff 15 b3 28 00 00    	call   *0x28b3(%rip)        # 3fd8 <__libc_start_main@GLIBC_2.34>
    1725:	f4                   	hlt    
    1726:	66 2e 0f 1f 84 00 00 	cs nopw 0x0(%rax,%rax,1)
    172d:	00 00 00 

0000000000001730 <deregister_tm_clones>:
    1730:	48 8d 3d d9 28 00 00 	lea    0x28d9(%rip),%rdi        # 4010 <__TMC_END__>
    1737:	48 8d 05 d2 28 00 00 	lea    0x28d2(%rip),%rax        # 4010 <__TMC_END__>
    173e:	48 39 f8             	cmp    %rdi,%rax
    1741:	74 15                	je     1758 <deregister_tm_clones+0x28>
    1743:	48 8b 05 96 28 00 00 	mov    0x2896(%rip),%rax        # 3fe0 <_ITM_deregisterTMCloneTable@Base>
    174a:	48 85 c0             	test   %rax,%rax
    174d:	74 09                	je     1758 <deregister_tm_clones+0x28>
    174f:	ff e0                	jmp    *%rax
    1751:	0f 1f 80 00 00 00 00 	nopl   0x0(%rax)
    1758:	c3                   	ret    
    1759:	0f 1f 80 00 00 00 00 	nopl   0x0(%rax)

0000000000001760 <register_tm_clones>:
    1760:	48 8d 3d a9 28 00 00 	lea    0x28a9(%rip),%rdi        # 4010 <__TMC_END__>
    1767:	48 8d 35 a2 28 00 00 	lea    0x28a2(%rip),%rsi        # 4010 <__TMC_END__>
    176e:	48 29 fe             	sub    %rdi,%rsi
    1771:	48 89 f0             	mov    %rsi,%rax
    1774:	48 c1 ee 3f          	shr    $0x3f,%rsi
    1778:	48 c1 f8 03          	sar    $0x3,%rax
    177c:	48 01 c6             	add    %rax,%rsi
    177f:	48 d1 fe             	sar    %rsi
    1782:	74 14                	je     1798 <register_tm_clones+0x38>
    1784:	48 8b 05 65 28 00 00 	mov    0x2865(%rip),%rax        # 3ff0 <_ITM_registerTMCloneTable@Base>
    178b:	48 85 c0             	test   %rax,%rax
    178e:	74 08                	je     1798 <register_tm_clones+0x38>
    1790:	ff e0                	jmp    *%rax
    1792:	66 0f 1f 44 00 00    	nopw   0x0(%rax,%rax,1)
    1798:	c3                   	ret    
    1799:	0f 1f 80 00 00 00 00 	nopl   0x0(%rax)

00000000000017a0 <__do_global_dtors_aux>:
    17a0:	f3 0f 1e fa          	endbr64 
    17a4:	80 3d 65 28 00 00 00 	cmpb   $0x0,0x2865(%rip)        # 4010 <__TMC_END__>
    17ab:	75 2b                	jne    17d8 <__do_global_dtors_aux+0x38>
    17ad:	55                   	push   %rbp
    17ae:	48 83 3d 42 28 00 00 	cmpq   $0x0,0x2842(%rip)        # 3ff8 <__cxa_finalize@GLIBC_2.2.5>
    17b5:	00 
    17b6:	48 89 e5             	mov    %rsp,%rbp
    17b9:	74 0c                	je     17c7 <__do_global_dtors_aux+0x27>
    17bb:	48 8b 3d 46 28 00 00 	mov    0x2846(%rip),%rdi        # 4008 <__dso_handle>
    17c2:	e8 f9 f8 ff ff       	call   10c0 <__cxa_finalize@plt>
    17c7:	e8 64 ff ff ff       	call   1730 <deregister_tm_clones>
    17cc:	c6 05 3d 28 00 00 01 	movb   $0x1,0x283d(%rip)        # 4010 <__TMC_END__>
    17d3:	5d                   	pop    %rbp
    17d4:	c3                   	ret    
    17d5:	0f 1f 00             	nopl   (%rax)
    17d8:	c3                   	ret    
    17d9:	0f 1f 80 00 00 00 00 	nopl   0x0(%rax)

00000000000017e0 <frame_dummy>:
    17e0:	f3 0f 1e fa          	endbr64 
    17e4:	e9 77 ff ff ff       	jmp    1760 <register_tm_clones>
    17e9:	0f 1f 80 00 00 00 00 	nopl   0x0(%rax)

00000000000017f0 <riscv_dsp_dprod_q31>:
    17f0:	f3 0f 1e fa          	endbr64 
    17f4:	85 d2                	test   %edx,%edx
    17f6:	74 28                	je     1820 <riscv_dsp_dprod_q31+0x30>
    17f8:	89 d2                	mov    %edx,%edx
    17fa:	31 c9                	xor    %ecx,%ecx
    17fc:	45 31 c0             	xor    %r8d,%r8d
    17ff:	90                   	nop
    1800:	48 63 04 8f          	movslq (%rdi,%rcx,4),%rax
    1804:	4c 63 0c 8e          	movslq (%rsi,%rcx,4),%r9
    1808:	48 83 c1 01          	add    $0x1,%rcx
    180c:	49 0f af c1          	imul   %r9,%rax
    1810:	48 c1 f8 0e          	sar    $0xe,%rax
    1814:	49 01 c0             	add    %rax,%r8
    1817:	48 39 ca             	cmp    %rcx,%rdx
    181a:	75 e4                	jne    1800 <riscv_dsp_dprod_q31+0x10>
    181c:	4c 89 c0             	mov    %r8,%rax
    181f:	c3                   	ret    
    1820:	45 31 c0             	xor    %r8d,%r8d
    1823:	4c 89 c0             	mov    %r8,%rax
    1826:	c3                   	ret    

Disassembly of section .fini:

0000000000001828 <_fini>:
    1828:	f3 0f 1e fa          	endbr64 
    182c:	48 83 ec 08          	sub    $0x8,%rsp
    1830:	48 83 c4 08          	add    $0x8,%rsp
    1834:	c3                   	ret    
