
t_dprod_f32:     file format elf64-x86-64


Disassembly of section .init:

0000000000001000 <_init>:
    1000:	f3 0f 1e fa          	endbr64 
    1004:	48 83 ec 08          	sub    $0x8,%rsp
    1008:	48 8b 05 d9 2f 00 00 	mov    0x2fd9(%rip),%rax        # 3fe8 <__gmon_start__@Base>
    100f:	48 85 c0             	test   %rax,%rax
    1012:	74 02                	je     1016 <_init+0x16>
    1014:	ff d0                	call   *%rax
    1016:	48 83 c4 08          	add    $0x8,%rsp
    101a:	c3                   	ret    

Disassembly of section .plt:

0000000000001020 <.plt>:
    1020:	ff 35 5a 2f 00 00    	push   0x2f5a(%rip)        # 3f80 <_GLOBAL_OFFSET_TABLE_+0x8>
    1026:	f2 ff 25 5b 2f 00 00 	bnd jmp *0x2f5b(%rip)        # 3f88 <_GLOBAL_OFFSET_TABLE_+0x10>
    102d:	0f 1f 00             	nopl   (%rax)
    1030:	f3 0f 1e fa          	endbr64 
    1034:	68 00 00 00 00       	push   $0x0
    1039:	f2 e9 e1 ff ff ff    	bnd jmp 1020 <_init+0x20>
    103f:	90                   	nop
    1040:	f3 0f 1e fa          	endbr64 
    1044:	68 01 00 00 00       	push   $0x1
    1049:	f2 e9 d1 ff ff ff    	bnd jmp 1020 <_init+0x20>
    104f:	90                   	nop
    1050:	f3 0f 1e fa          	endbr64 
    1054:	68 02 00 00 00       	push   $0x2
    1059:	f2 e9 c1 ff ff ff    	bnd jmp 1020 <_init+0x20>
    105f:	90                   	nop
    1060:	f3 0f 1e fa          	endbr64 
    1064:	68 03 00 00 00       	push   $0x3
    1069:	f2 e9 b1 ff ff ff    	bnd jmp 1020 <_init+0x20>
    106f:	90                   	nop
    1070:	f3 0f 1e fa          	endbr64 
    1074:	68 04 00 00 00       	push   $0x4
    1079:	f2 e9 a1 ff ff ff    	bnd jmp 1020 <_init+0x20>
    107f:	90                   	nop
    1080:	f3 0f 1e fa          	endbr64 
    1084:	68 05 00 00 00       	push   $0x5
    1089:	f2 e9 91 ff ff ff    	bnd jmp 1020 <_init+0x20>
    108f:	90                   	nop
    1090:	f3 0f 1e fa          	endbr64 
    1094:	68 06 00 00 00       	push   $0x6
    1099:	f2 e9 81 ff ff ff    	bnd jmp 1020 <_init+0x20>
    109f:	90                   	nop
    10a0:	f3 0f 1e fa          	endbr64 
    10a4:	68 07 00 00 00       	push   $0x7
    10a9:	f2 e9 71 ff ff ff    	bnd jmp 1020 <_init+0x20>
    10af:	90                   	nop
    10b0:	f3 0f 1e fa          	endbr64 
    10b4:	68 08 00 00 00       	push   $0x8
    10b9:	f2 e9 61 ff ff ff    	bnd jmp 1020 <_init+0x20>
    10bf:	90                   	nop

Disassembly of section .plt.got:

00000000000010c0 <__cxa_finalize@plt>:
    10c0:	f3 0f 1e fa          	endbr64 
    10c4:	f2 ff 25 2d 2f 00 00 	bnd jmp *0x2f2d(%rip)        # 3ff8 <__cxa_finalize@GLIBC_2.2.5>
    10cb:	0f 1f 44 00 00       	nopl   0x0(%rax,%rax,1)

Disassembly of section .plt.sec:

00000000000010d0 <puts@plt>:
    10d0:	f3 0f 1e fa          	endbr64 
    10d4:	f2 ff 25 b5 2e 00 00 	bnd jmp *0x2eb5(%rip)        # 3f90 <puts@GLIBC_2.2.5>
    10db:	0f 1f 44 00 00       	nopl   0x0(%rax,%rax,1)

00000000000010e0 <fread@plt>:
    10e0:	f3 0f 1e fa          	endbr64 
    10e4:	f2 ff 25 ad 2e 00 00 	bnd jmp *0x2ead(%rip)        # 3f98 <fread@GLIBC_2.2.5>
    10eb:	0f 1f 44 00 00       	nopl   0x0(%rax,%rax,1)

00000000000010f0 <fclose@plt>:
    10f0:	f3 0f 1e fa          	endbr64 
    10f4:	f2 ff 25 a5 2e 00 00 	bnd jmp *0x2ea5(%rip)        # 3fa0 <fclose@GLIBC_2.2.5>
    10fb:	0f 1f 44 00 00       	nopl   0x0(%rax,%rax,1)

0000000000001100 <__stack_chk_fail@plt>:
    1100:	f3 0f 1e fa          	endbr64 
    1104:	f2 ff 25 9d 2e 00 00 	bnd jmp *0x2e9d(%rip)        # 3fa8 <__stack_chk_fail@GLIBC_2.4>
    110b:	0f 1f 44 00 00       	nopl   0x0(%rax,%rax,1)

0000000000001110 <log10f@plt>:
    1110:	f3 0f 1e fa          	endbr64 
    1114:	f2 ff 25 95 2e 00 00 	bnd jmp *0x2e95(%rip)        # 3fb0 <log10f@GLIBC_2.2.5>
    111b:	0f 1f 44 00 00       	nopl   0x0(%rax,%rax,1)

0000000000001120 <__printf_chk@plt>:
    1120:	f3 0f 1e fa          	endbr64 
    1124:	f2 ff 25 8d 2e 00 00 	bnd jmp *0x2e8d(%rip)        # 3fb8 <__printf_chk@GLIBC_2.3.4>
    112b:	0f 1f 44 00 00       	nopl   0x0(%rax,%rax,1)

0000000000001130 <fopen@plt>:
    1130:	f3 0f 1e fa          	endbr64 
    1134:	f2 ff 25 85 2e 00 00 	bnd jmp *0x2e85(%rip)        # 3fc0 <fopen@GLIBC_2.2.5>
    113b:	0f 1f 44 00 00       	nopl   0x0(%rax,%rax,1)

0000000000001140 <sqrt@plt>:
    1140:	f3 0f 1e fa          	endbr64 
    1144:	f2 ff 25 7d 2e 00 00 	bnd jmp *0x2e7d(%rip)        # 3fc8 <sqrt@GLIBC_2.2.5>
    114b:	0f 1f 44 00 00       	nopl   0x0(%rax,%rax,1)

0000000000001150 <__sprintf_chk@plt>:
    1150:	f3 0f 1e fa          	endbr64 
    1154:	f2 ff 25 75 2e 00 00 	bnd jmp *0x2e75(%rip)        # 3fd0 <__sprintf_chk@GLIBC_2.3.4>
    115b:	0f 1f 44 00 00       	nopl   0x0(%rax,%rax,1)

Disassembly of section .text:

0000000000001160 <main>:
    1160:	f3 0f 1e fa          	endbr64 
    1164:	55                   	push   %rbp
    1165:	48 89 e5             	mov    %rsp,%rbp
    1168:	41 57                	push   %r15
    116a:	41 56                	push   %r14
    116c:	41 55                	push   %r13
    116e:	41 54                	push   %r12
    1170:	53                   	push   %rbx
    1171:	48 81 ec 88 02 00 00 	sub    $0x288,%rsp
    1178:	64 48 8b 04 25 28 00 	mov    %fs:0x28,%rax
    117f:	00 00 
    1181:	48 89 45 c8          	mov    %rax,-0x38(%rbp)
    1185:	48 89 e0             	mov    %rsp,%rax
    1188:	48 39 c4             	cmp    %rax,%rsp
    118b:	74 15                	je     11a2 <main+0x42>
    118d:	48 81 ec 00 10 00 00 	sub    $0x1000,%rsp
    1194:	48 83 8c 24 f8 0f 00 	orq    $0x0,0xff8(%rsp)
    119b:	00 00 
    119d:	48 39 c4             	cmp    %rax,%rsp
    11a0:	75 eb                	jne    118d <main+0x2d>
    11a2:	48 81 ec 90 01 00 00 	sub    $0x190,%rsp
    11a9:	48 83 8c 24 88 01 00 	orq    $0x0,0x188(%rsp)
    11b0:	00 00 
    11b2:	48 89 a5 70 fd ff ff 	mov    %rsp,-0x290(%rbp)
    11b9:	48 89 e0             	mov    %rsp,%rax
    11bc:	48 39 c4             	cmp    %rax,%rsp
    11bf:	74 12                	je     11d3 <main+0x73>
    11c1:	48 81 ec 00 10 00 00 	sub    $0x1000,%rsp
    11c8:	48 83 8c 24 f8 0f 00 	orq    $0x0,0xff8(%rsp)
    11cf:	00 00 
    11d1:	eb e9                	jmp    11bc <main+0x5c>
    11d3:	48 81 ec 90 01 00 00 	sub    $0x190,%rsp
    11da:	48 83 8c 24 88 01 00 	orq    $0x0,0x188(%rsp)
    11e1:	00 00 
    11e3:	4c 8d 05 1e 0e 00 00 	lea    0xe1e(%rip),%r8        # 2008 <_IO_stdin_used+0x8>
    11ea:	ba 00 02 00 00       	mov    $0x200,%edx
    11ef:	31 c0                	xor    %eax,%eax
    11f1:	48 8d 0d aa 0e 00 00 	lea    0xeaa(%rip),%rcx        # 20a2 <_IO_stdin_used+0xa2>
    11f8:	be 01 00 00 00       	mov    $0x1,%esi
    11fd:	4c 8d 25 b5 0e 00 00 	lea    0xeb5(%rip),%r12        # 20b9 <_IO_stdin_used+0xb9>
    1204:	4c 8d bd c0 fd ff ff 	lea    -0x240(%rbp),%r15
    120b:	48 89 a5 68 fd ff ff 	mov    %rsp,-0x298(%rbp)
    1212:	4c 89 ff             	mov    %r15,%rdi
    1215:	e8 36 ff ff ff       	call   1150 <__sprintf_chk@plt>
    121a:	4c 89 e6             	mov    %r12,%rsi
    121d:	4c 89 ff             	mov    %r15,%rdi
    1220:	e8 0b ff ff ff       	call   1130 <fopen@plt>
    1225:	49 89 c6             	mov    %rax,%r14
    1228:	48 85 c0             	test   %rax,%rax
    122b:	0f 84 c3 03 00 00    	je     15f4 <main+0x494>
    1231:	ba 00 02 00 00       	mov    $0x200,%edx
    1236:	be 01 00 00 00       	mov    $0x1,%esi
    123b:	4c 89 ff             	mov    %r15,%rdi
    123e:	31 c0                	xor    %eax,%eax
    1240:	4c 8d 05 c1 0d 00 00 	lea    0xdc1(%rip),%r8        # 2008 <_IO_stdin_used+0x8>
    1247:	48 8d 0d 6d 0e 00 00 	lea    0xe6d(%rip),%rcx        # 20bb <_IO_stdin_used+0xbb>
    124e:	e8 fd fe ff ff       	call   1150 <__sprintf_chk@plt>
    1253:	4c 89 e6             	mov    %r12,%rsi
    1256:	4c 89 ff             	mov    %r15,%rdi
    1259:	e8 d2 fe ff ff       	call   1130 <fopen@plt>
    125e:	4c 8d 05 a3 0d 00 00 	lea    0xda3(%rip),%r8        # 2008 <_IO_stdin_used+0x8>
    1265:	ba 00 02 00 00       	mov    $0x200,%edx
    126a:	4c 89 ff             	mov    %r15,%rdi
    126d:	48 8d 0d 5e 0e 00 00 	lea    0xe5e(%rip),%rcx        # 20d2 <_IO_stdin_used+0xd2>
    1274:	be 01 00 00 00       	mov    $0x1,%esi
    1279:	49 89 c5             	mov    %rax,%r13
    127c:	31 c0                	xor    %eax,%eax
    127e:	e8 cd fe ff ff       	call   1150 <__sprintf_chk@plt>
    1283:	4c 89 e6             	mov    %r12,%rsi
    1286:	4c 89 ff             	mov    %r15,%rdi
    1289:	e8 a2 fe ff ff       	call   1130 <fopen@plt>
    128e:	48 89 85 60 fd ff ff 	mov    %rax,-0x2a0(%rbp)
    1295:	48 85 c0             	test   %rax,%rax
    1298:	0f 84 56 03 00 00    	je     15f4 <main+0x494>
    129e:	48 8b 85 70 fd ff ff 	mov    -0x290(%rbp),%rax
    12a5:	4c 8d a5 80 fd ff ff 	lea    -0x280(%rbp),%r12
    12ac:	48 8d 9d a0 fd ff ff 	lea    -0x260(%rbp),%rbx
    12b3:	49 89 c7             	mov    %rax,%r15
    12b6:	48 05 90 01 00 00    	add    $0x190,%rax
    12bc:	48 89 85 78 fd ff ff 	mov    %rax,-0x288(%rbp)
    12c3:	0f 1f 44 00 00       	nopl   0x0(%rax,%rax,1)
    12c8:	4c 89 f1             	mov    %r14,%rcx
    12cb:	ba 08 00 00 00       	mov    $0x8,%edx
    12d0:	be 04 00 00 00       	mov    $0x4,%esi
    12d5:	4c 89 e7             	mov    %r12,%rdi
    12d8:	e8 03 fe ff ff       	call   10e0 <fread@plt>
    12dd:	4c 89 e9             	mov    %r13,%rcx
    12e0:	ba 08 00 00 00       	mov    $0x8,%edx
    12e5:	48 89 df             	mov    %rbx,%rdi
    12e8:	be 04 00 00 00       	mov    $0x4,%esi
    12ed:	49 83 c7 04          	add    $0x4,%r15
    12f1:	e8 ea fd ff ff       	call   10e0 <fread@plt>
    12f6:	ba 08 00 00 00       	mov    $0x8,%edx
    12fb:	48 89 de             	mov    %rbx,%rsi
    12fe:	4c 89 e7             	mov    %r12,%rdi
    1301:	e8 ea 03 00 00       	call   16f0 <riscv_dsp_dprod_f32>
    1306:	f3 41 0f 11 47 fc    	movss  %xmm0,-0x4(%r15)
    130c:	4c 39 bd 78 fd ff ff 	cmp    %r15,-0x288(%rbp)
    1313:	75 b3                	jne    12c8 <main+0x168>
    1315:	48 8b 8d 60 fd ff ff 	mov    -0x2a0(%rbp),%rcx
    131c:	ba 64 00 00 00       	mov    $0x64,%edx
    1321:	be 04 00 00 00       	mov    $0x4,%esi
    1326:	48 8b bd 68 fd ff ff 	mov    -0x298(%rbp),%rdi
    132d:	e8 ae fd ff ff       	call   10e0 <fread@plt>
    1332:	31 c0                	xor    %eax,%eax
    1334:	66 0f ef c9          	pxor   %xmm1,%xmm1
    1338:	f3 0f 10 25 e0 0d 00 	movss  0xde0(%rip),%xmm4        # 2120 <_IO_stdin_used+0x120>
    133f:	00 
    1340:	48 8b 8d 70 fd ff ff 	mov    -0x290(%rbp),%rcx
    1347:	48 8b 9d 68 fd ff ff 	mov    -0x298(%rbp),%rbx
    134e:	f3 0f 10 04 01       	movss  (%rcx,%rax,1),%xmm0
    1353:	f3 0f 5c 04 03       	subss  (%rbx,%rax,1),%xmm0
    1358:	48 83 c0 04          	add    $0x4,%rax
    135c:	0f 54 c4             	andps  %xmm4,%xmm0
    135f:	f3 0f 5f c1          	maxss  %xmm1,%xmm0
    1363:	0f 28 c8             	movaps %xmm0,%xmm1
    1366:	48 3d 90 01 00 00    	cmp    $0x190,%rax
    136c:	75 d2                	jne    1340 <main+0x1e0>
    136e:	48 8d 35 75 0d 00 00 	lea    0xd75(%rip),%rsi        # 20ea <_IO_stdin_used+0xea>
    1375:	bf 01 00 00 00       	mov    $0x1,%edi
    137a:	b8 01 00 00 00       	mov    $0x1,%eax
    137f:	f3 0f 5a c0          	cvtss2sd %xmm0,%xmm0
    1383:	e8 98 fd ff ff       	call   1120 <__printf_chk@plt>
    1388:	4c 89 f7             	mov    %r14,%rdi
    138b:	e8 60 fd ff ff       	call   10f0 <fclose@plt>
    1390:	4c 89 ef             	mov    %r13,%rdi
    1393:	e8 58 fd ff ff       	call   10f0 <fclose@plt>
    1398:	48 8b bd 60 fd ff ff 	mov    -0x2a0(%rbp),%rdi
    139f:	e8 4c fd ff ff       	call   10f0 <fclose@plt>
    13a4:	66 0f ef db          	pxor   %xmm3,%xmm3
    13a8:	66 0f ef ff          	pxor   %xmm7,%xmm7
    13ac:	31 c0                	xor    %eax,%eax
    13ae:	66 0f 28 f7          	movapd %xmm7,%xmm6
    13b2:	0f 28 eb             	movaps %xmm3,%xmm5
    13b5:	44 0f 28 c3          	movaps %xmm3,%xmm8
    13b9:	44 0f 28 cb          	movaps %xmm3,%xmm9
    13bd:	f3 0f 10 25 5b 0d 00 	movss  0xd5b(%rip),%xmm4        # 2120 <_IO_stdin_used+0x120>
    13c4:	00 
    13c5:	0f 1f 00             	nopl   (%rax)
    13c8:	48 8b 9d 70 fd ff ff 	mov    -0x290(%rbp),%rbx
    13cf:	48 8b 8d 68 fd ff ff 	mov    -0x298(%rbp),%rcx
    13d6:	f3 0f 10 04 03       	movss  (%rbx,%rax,1),%xmm0
    13db:	f3 0f 10 0c 01       	movss  (%rcx,%rax,1),%xmm1
    13e0:	66 0f 7e c3          	movd   %xmm0,%ebx
    13e4:	81 fb 00 00 c0 7f    	cmp    $0x7fc00000,%ebx
    13ea:	0f 84 be 01 00 00    	je     15ae <main+0x44e>
    13f0:	0f 28 d1             	movaps %xmm1,%xmm2
    13f3:	f3 0f 5c c1          	subss  %xmm1,%xmm0
    13f7:	48 83 c0 04          	add    $0x4,%rax
    13fb:	f3 41 0f 5f d1       	maxss  %xmm9,%xmm2
    1400:	44 0f 28 ca          	movaps %xmm2,%xmm9
    1404:	0f 28 d1             	movaps %xmm1,%xmm2
    1407:	f3 41 0f 5d d0       	minss  %xmm8,%xmm2
    140c:	f3 0f 59 c9          	mulss  %xmm1,%xmm1
    1410:	44 0f 28 c2          	movaps %xmm2,%xmm8
    1414:	0f 28 d0             	movaps %xmm0,%xmm2
    1417:	f3 0f 59 c0          	mulss  %xmm0,%xmm0
    141b:	0f 54 d4             	andps  %xmm4,%xmm2
    141e:	f3 0f 58 ea          	addss  %xmm2,%xmm5
    1422:	f3 0f 5f d3          	maxss  %xmm3,%xmm2
    1426:	f3 0f 5a c9          	cvtss2sd %xmm1,%xmm1
    142a:	f2 0f 58 f9          	addsd  %xmm1,%xmm7
    142e:	0f 28 da             	movaps %xmm2,%xmm3
    1431:	f3 0f 5a c0          	cvtss2sd %xmm0,%xmm0
    1435:	f2 0f 58 f0          	addsd  %xmm0,%xmm6
    1439:	48 3d 90 01 00 00    	cmp    $0x190,%rax
    143f:	75 87                	jne    13c8 <main+0x268>
    1441:	66 48 0f 7e f0       	movq   %xmm6,%rax
    1446:	f3 0f 11 95 70 fd ff 	movss  %xmm2,-0x290(%rbp)
    144d:	ff 
    144e:	f3 44 0f 11 85 60 fd 	movss  %xmm8,-0x2a0(%rbp)
    1455:	ff ff 
    1457:	f3 44 0f 11 8d 68 fd 	movss  %xmm9,-0x298(%rbp)
    145e:	ff ff 
    1460:	f2 0f 11 bd 78 fd ff 	movsd  %xmm7,-0x288(%rbp)
    1467:	ff 
    1468:	3d 00 00 c0 7f       	cmp    $0x7fc00000,%eax
    146d:	0f 84 3b 01 00 00    	je     15ae <main+0x44e>
    1473:	66 0f 28 c6          	movapd %xmm6,%xmm0
    1477:	f3 0f 5e 2d 99 0c 00 	divss  0xc99(%rip),%xmm5        # 2118 <_IO_stdin_used+0x118>
    147e:	00 
    147f:	f2 0f 11 b5 58 fd ff 	movsd  %xmm6,-0x2a8(%rbp)
    1486:	ff 
    1487:	66 0f 7e eb          	movd   %xmm5,%ebx
    148b:	f2 0f 5e 05 9d 0c 00 	divsd  0xc9d(%rip),%xmm0        # 2130 <_IO_stdin_used+0x130>
    1492:	00 
    1493:	e8 a8 fc ff ff       	call   1140 <sqrt@plt>
    1498:	f3 44 0f 10 8d 68 fd 	movss  -0x298(%rbp),%xmm9
    149f:	ff ff 
    14a1:	f3 44 0f 10 85 60 fd 	movss  -0x2a0(%rbp),%xmm8
    14a8:	ff ff 
    14aa:	66 0f ef c9          	pxor   %xmm1,%xmm1
    14ae:	f2 0f 10 b5 58 fd ff 	movsd  -0x2a8(%rbp),%xmm6
    14b5:	ff 
    14b6:	66 0f ef ed          	pxor   %xmm5,%xmm5
    14ba:	f3 0f 10 9d 70 fd ff 	movss  -0x290(%rbp),%xmm3
    14c1:	ff 
    14c2:	f2 0f 5a c8          	cvtsd2ss %xmm0,%xmm1
    14c6:	41 0f 28 c1          	movaps %xmm9,%xmm0
    14ca:	0f 28 f9             	movaps %xmm1,%xmm7
    14cd:	f3 41 0f 5c c0       	subss  %xmm8,%xmm0
    14d2:	66 0f 2e f5          	ucomisd %xmm5,%xmm6
    14d6:	f3 0f 5e f8          	divss  %xmm0,%xmm7
    14da:	66 41 0f 7e fc       	movd   %xmm7,%r12d
    14df:	f2 0f 10 bd 78 fd ff 	movsd  -0x288(%rbp),%xmm7
    14e6:	ff 
    14e7:	0f 8a c5 00 00 00    	jp     15b2 <main+0x452>
    14ed:	f3 0f 10 25 1f 0c 00 	movss  0xc1f(%rip),%xmm4        # 2114 <_IO_stdin_used+0x114>
    14f4:	00 
    14f5:	0f 85 b7 00 00 00    	jne    15b2 <main+0x452>
    14fb:	48 8d 3d fb 0b 00 00 	lea    0xbfb(%rip),%rdi        # 20fd <_IO_stdin_used+0xfd>
    1502:	f3 0f 11 a5 68 fd ff 	movss  %xmm4,-0x298(%rbp)
    1509:	ff 
    150a:	f3 0f 11 9d 78 fd ff 	movss  %xmm3,-0x288(%rbp)
    1511:	ff 
    1512:	f3 0f 11 8d 70 fd ff 	movss  %xmm1,-0x290(%rbp)
    1519:	ff 
    151a:	e8 b1 fb ff ff       	call   10d0 <puts@plt>
    151f:	66 41 0f 6e ec       	movd   %r12d,%xmm5
    1524:	66 0f 6e f3          	movd   %ebx,%xmm6
    1528:	f3 0f 10 9d 78 fd ff 	movss  -0x288(%rbp),%xmm3
    152f:	ff 
    1530:	f3 0f 10 a5 68 fd ff 	movss  -0x298(%rbp),%xmm4
    1537:	ff 
    1538:	f3 0f 10 8d 70 fd ff 	movss  -0x290(%rbp),%xmm1
    153f:	ff 
    1540:	66 0f ef d2          	pxor   %xmm2,%xmm2
    1544:	66 0f ef c0          	pxor   %xmm0,%xmm0
    1548:	48 8d 35 01 0b 00 00 	lea    0xb01(%rip),%rsi        # 2050 <_IO_stdin_used+0x50>
    154f:	f3 0f 5a d5          	cvtss2sd %xmm5,%xmm2
    1553:	f3 0f 5a c6          	cvtss2sd %xmm6,%xmm0
    1557:	f3 0f 5a db          	cvtss2sd %xmm3,%xmm3
    155b:	bf 01 00 00 00       	mov    $0x1,%edi
    1560:	b8 05 00 00 00       	mov    $0x5,%eax
    1565:	f3 0f 5a e4          	cvtss2sd %xmm4,%xmm4
    1569:	f3 0f 5a c9          	cvtss2sd %xmm1,%xmm1
    156d:	f2 0f 11 95 78 fd ff 	movsd  %xmm2,-0x288(%rbp)
    1574:	ff 
    1575:	e8 a6 fb ff ff       	call   1120 <__printf_chk@plt>
    157a:	f2 0f 10 05 b6 0b 00 	movsd  0xbb6(%rip),%xmm0        # 2138 <_IO_stdin_used+0x138>
    1581:	00 
    1582:	f2 0f 10 95 78 fd ff 	movsd  -0x288(%rbp),%xmm2
    1589:	ff 
    158a:	66 0f 2f c2          	comisd %xmm2,%xmm0
    158e:	19 c0                	sbb    %eax,%eax
    1590:	48 8b 55 c8          	mov    -0x38(%rbp),%rdx
    1594:	64 48 2b 14 25 28 00 	sub    %fs:0x28,%rdx
    159b:	00 00 
    159d:	75 5a                	jne    15f9 <main+0x499>
    159f:	48 8d 65 d8          	lea    -0x28(%rbp),%rsp
    15a3:	5b                   	pop    %rbx
    15a4:	41 5c                	pop    %r12
    15a6:	41 5d                	pop    %r13
    15a8:	41 5e                	pop    %r14
    15aa:	41 5f                	pop    %r15
    15ac:	5d                   	pop    %rbp
    15ad:	c3                   	ret    
    15ae:	31 c0                	xor    %eax,%eax
    15b0:	eb de                	jmp    1590 <main+0x430>
    15b2:	f2 0f 5e fe          	divsd  %xmm6,%xmm7
    15b6:	66 0f ef c0          	pxor   %xmm0,%xmm0
    15ba:	f3 0f 11 9d 70 fd ff 	movss  %xmm3,-0x290(%rbp)
    15c1:	ff 
    15c2:	f3 0f 11 8d 78 fd ff 	movss  %xmm1,-0x288(%rbp)
    15c9:	ff 
    15ca:	f2 0f 5a c7          	cvtsd2ss %xmm7,%xmm0
    15ce:	e8 3d fb ff ff       	call   1110 <log10f@plt>
    15d3:	f3 0f 10 25 41 0b 00 	movss  0xb41(%rip),%xmm4        # 211c <_IO_stdin_used+0x11c>
    15da:	00 
    15db:	f3 0f 10 9d 70 fd ff 	movss  -0x290(%rbp),%xmm3
    15e2:	ff 
    15e3:	f3 0f 10 8d 78 fd ff 	movss  -0x288(%rbp),%xmm1
    15ea:	ff 
    15eb:	f3 0f 59 e0          	mulss  %xmm0,%xmm4
    15ef:	e9 07 ff ff ff       	jmp    14fb <main+0x39b>
    15f4:	83 c8 ff             	or     $0xffffffff,%eax
    15f7:	eb 97                	jmp    1590 <main+0x430>
    15f9:	e8 02 fb ff ff       	call   1100 <__stack_chk_fail@plt>
    15fe:	66 90                	xchg   %ax,%ax

0000000000001600 <_start>:
    1600:	f3 0f 1e fa          	endbr64 
    1604:	31 ed                	xor    %ebp,%ebp
    1606:	49 89 d1             	mov    %rdx,%r9
    1609:	5e                   	pop    %rsi
    160a:	48 89 e2             	mov    %rsp,%rdx
    160d:	48 83 e4 f0          	and    $0xfffffffffffffff0,%rsp
    1611:	50                   	push   %rax
    1612:	54                   	push   %rsp
    1613:	45 31 c0             	xor    %r8d,%r8d
    1616:	31 c9                	xor    %ecx,%ecx
    1618:	48 8d 3d 41 fb ff ff 	lea    -0x4bf(%rip),%rdi        # 1160 <main>
    161f:	ff 15 b3 29 00 00    	call   *0x29b3(%rip)        # 3fd8 <__libc_start_main@GLIBC_2.34>
    1625:	f4                   	hlt    
    1626:	66 2e 0f 1f 84 00 00 	cs nopw 0x0(%rax,%rax,1)
    162d:	00 00 00 

0000000000001630 <deregister_tm_clones>:
    1630:	48 8d 3d d9 29 00 00 	lea    0x29d9(%rip),%rdi        # 4010 <__TMC_END__>
    1637:	48 8d 05 d2 29 00 00 	lea    0x29d2(%rip),%rax        # 4010 <__TMC_END__>
    163e:	48 39 f8             	cmp    %rdi,%rax
    1641:	74 15                	je     1658 <deregister_tm_clones+0x28>
    1643:	48 8b 05 96 29 00 00 	mov    0x2996(%rip),%rax        # 3fe0 <_ITM_deregisterTMCloneTable@Base>
    164a:	48 85 c0             	test   %rax,%rax
    164d:	74 09                	je     1658 <deregister_tm_clones+0x28>
    164f:	ff e0                	jmp    *%rax
    1651:	0f 1f 80 00 00 00 00 	nopl   0x0(%rax)
    1658:	c3                   	ret    
    1659:	0f 1f 80 00 00 00 00 	nopl   0x0(%rax)

0000000000001660 <register_tm_clones>:
    1660:	48 8d 3d a9 29 00 00 	lea    0x29a9(%rip),%rdi        # 4010 <__TMC_END__>
    1667:	48 8d 35 a2 29 00 00 	lea    0x29a2(%rip),%rsi        # 4010 <__TMC_END__>
    166e:	48 29 fe             	sub    %rdi,%rsi
    1671:	48 89 f0             	mov    %rsi,%rax
    1674:	48 c1 ee 3f          	shr    $0x3f,%rsi
    1678:	48 c1 f8 03          	sar    $0x3,%rax
    167c:	48 01 c6             	add    %rax,%rsi
    167f:	48 d1 fe             	sar    %rsi
    1682:	74 14                	je     1698 <register_tm_clones+0x38>
    1684:	48 8b 05 65 29 00 00 	mov    0x2965(%rip),%rax        # 3ff0 <_ITM_registerTMCloneTable@Base>
    168b:	48 85 c0             	test   %rax,%rax
    168e:	74 08                	je     1698 <register_tm_clones+0x38>
    1690:	ff e0                	jmp    *%rax
    1692:	66 0f 1f 44 00 00    	nopw   0x0(%rax,%rax,1)
    1698:	c3                   	ret    
    1699:	0f 1f 80 00 00 00 00 	nopl   0x0(%rax)

00000000000016a0 <__do_global_dtors_aux>:
    16a0:	f3 0f 1e fa          	endbr64 
    16a4:	80 3d 65 29 00 00 00 	cmpb   $0x0,0x2965(%rip)        # 4010 <__TMC_END__>
    16ab:	75 2b                	jne    16d8 <__do_global_dtors_aux+0x38>
    16ad:	55                   	push   %rbp
    16ae:	48 83 3d 42 29 00 00 	cmpq   $0x0,0x2942(%rip)        # 3ff8 <__cxa_finalize@GLIBC_2.2.5>
    16b5:	00 
    16b6:	48 89 e5             	mov    %rsp,%rbp
    16b9:	74 0c                	je     16c7 <__do_global_dtors_aux+0x27>
    16bb:	48 8b 3d 46 29 00 00 	mov    0x2946(%rip),%rdi        # 4008 <__dso_handle>
    16c2:	e8 f9 f9 ff ff       	call   10c0 <__cxa_finalize@plt>
    16c7:	e8 64 ff ff ff       	call   1630 <deregister_tm_clones>
    16cc:	c6 05 3d 29 00 00 01 	movb   $0x1,0x293d(%rip)        # 4010 <__TMC_END__>
    16d3:	5d                   	pop    %rbp
    16d4:	c3                   	ret    
    16d5:	0f 1f 00             	nopl   (%rax)
    16d8:	c3                   	ret    
    16d9:	0f 1f 80 00 00 00 00 	nopl   0x0(%rax)

00000000000016e0 <frame_dummy>:
    16e0:	f3 0f 1e fa          	endbr64 
    16e4:	e9 77 ff ff ff       	jmp    1660 <register_tm_clones>
    16e9:	0f 1f 80 00 00 00 00 	nopl   0x0(%rax)

00000000000016f0 <riscv_dsp_dprod_f32>:
    16f0:	f3 0f 1e fa          	endbr64 
    16f4:	48 89 f9             	mov    %rdi,%rcx
    16f7:	85 d2                	test   %edx,%edx
    16f9:	0f 84 a9 00 00 00    	je     17a8 <riscv_dsp_dprod_f32+0xb8>
    16ff:	8d 42 ff             	lea    -0x1(%rdx),%eax
    1702:	83 f8 02             	cmp    $0x2,%eax
    1705:	0f 86 a6 00 00 00    	jbe    17b1 <riscv_dsp_dprod_f32+0xc1>
    170b:	89 d7                	mov    %edx,%edi
    170d:	31 c0                	xor    %eax,%eax
    170f:	66 0f ef c0          	pxor   %xmm0,%xmm0
    1713:	c1 ef 02             	shr    $0x2,%edi
    1716:	48 c1 e7 04          	shl    $0x4,%rdi
    171a:	66 0f 1f 44 00 00    	nopw   0x0(%rax,%rax,1)
    1720:	0f 10 0c 01          	movups (%rcx,%rax,1),%xmm1
    1724:	0f 10 1c 06          	movups (%rsi,%rax,1),%xmm3
    1728:	48 83 c0 10          	add    $0x10,%rax
    172c:	0f 59 cb             	mulps  %xmm3,%xmm1
    172f:	f3 0f 58 c1          	addss  %xmm1,%xmm0
    1733:	0f 28 d1             	movaps %xmm1,%xmm2
    1736:	0f c6 d1 55          	shufps $0x55,%xmm1,%xmm2
    173a:	f3 0f 58 c2          	addss  %xmm2,%xmm0
    173e:	0f 28 d1             	movaps %xmm1,%xmm2
    1741:	0f 15 d1             	unpckhps %xmm1,%xmm2
    1744:	0f c6 c9 ff          	shufps $0xff,%xmm1,%xmm1
    1748:	f3 0f 58 c2          	addss  %xmm2,%xmm0
    174c:	f3 0f 58 c1          	addss  %xmm1,%xmm0
    1750:	48 39 f8             	cmp    %rdi,%rax
    1753:	75 cb                	jne    1720 <riscv_dsp_dprod_f32+0x30>
    1755:	89 d7                	mov    %edx,%edi
    1757:	83 e7 fc             	and    $0xfffffffc,%edi
    175a:	89 f8                	mov    %edi,%eax
    175c:	48 c1 e0 02          	shl    $0x2,%rax
    1760:	48 01 c1             	add    %rax,%rcx
    1763:	48 01 c6             	add    %rax,%rsi
    1766:	89 d0                	mov    %edx,%eax
    1768:	29 f8                	sub    %edi,%eax
    176a:	39 fa                	cmp    %edi,%edx
    176c:	74 42                	je     17b0 <riscv_dsp_dprod_f32+0xc0>
    176e:	f3 0f 10 09          	movss  (%rcx),%xmm1
    1772:	f3 0f 59 0e          	mulss  (%rsi),%xmm1
    1776:	f3 0f 58 c1          	addss  %xmm1,%xmm0
    177a:	83 f8 01             	cmp    $0x1,%eax
    177d:	74 2d                	je     17ac <riscv_dsp_dprod_f32+0xbc>
    177f:	f3 0f 10 49 04       	movss  0x4(%rcx),%xmm1
    1784:	f3 0f 59 4e 04       	mulss  0x4(%rsi),%xmm1
    1789:	f3 0f 58 c1          	addss  %xmm1,%xmm0
    178d:	83 f8 02             	cmp    $0x2,%eax
    1790:	74 1a                	je     17ac <riscv_dsp_dprod_f32+0xbc>
    1792:	f3 0f 10 4e 08       	movss  0x8(%rsi),%xmm1
    1797:	f3 0f 59 49 08       	mulss  0x8(%rcx),%xmm1
    179c:	f3 0f 58 c1          	addss  %xmm1,%xmm0
    17a0:	c3                   	ret    
    17a1:	0f 1f 80 00 00 00 00 	nopl   0x0(%rax)
    17a8:	66 0f ef c0          	pxor   %xmm0,%xmm0
    17ac:	c3                   	ret    
    17ad:	0f 1f 00             	nopl   (%rax)
    17b0:	c3                   	ret    
    17b1:	89 d0                	mov    %edx,%eax
    17b3:	66 0f ef c0          	pxor   %xmm0,%xmm0
    17b7:	eb b5                	jmp    176e <riscv_dsp_dprod_f32+0x7e>

Disassembly of section .fini:

00000000000017bc <_fini>:
    17bc:	f3 0f 1e fa          	endbr64 
    17c0:	48 83 ec 08          	sub    $0x8,%rsp
    17c4:	48 83 c4 08          	add    $0x8,%rsp
    17c8:	c3                   	ret    
