
t_dup_f64:     file format elf64-x86-64


Disassembly of section .init:

0000000000001000 <_init>:
    1000:	f3 0f 1e fa          	endbr64 
    1004:	48 83 ec 08          	sub    $0x8,%rsp
    1008:	48 8b 05 d9 2f 00 00 	mov    0x2fd9(%rip),%rax        # 3fe8 <__gmon_start__@Base>
    100f:	48 85 c0             	test   %rax,%rax
    1012:	74 02                	je     1016 <_init+0x16>
    1014:	ff d0                	call   *%rax
    1016:	48 83 c4 08          	add    $0x8,%rsp
    101a:	c3                   	ret    

Disassembly of section .plt:

0000000000001020 <.plt>:
    1020:	ff 35 52 2f 00 00    	push   0x2f52(%rip)        # 3f78 <_GLOBAL_OFFSET_TABLE_+0x8>
    1026:	f2 ff 25 53 2f 00 00 	bnd jmp *0x2f53(%rip)        # 3f80 <_GLOBAL_OFFSET_TABLE_+0x10>
    102d:	0f 1f 00             	nopl   (%rax)
    1030:	f3 0f 1e fa          	endbr64 
    1034:	68 00 00 00 00       	push   $0x0
    1039:	f2 e9 e1 ff ff ff    	bnd jmp 1020 <_init+0x20>
    103f:	90                   	nop
    1040:	f3 0f 1e fa          	endbr64 
    1044:	68 01 00 00 00       	push   $0x1
    1049:	f2 e9 d1 ff ff ff    	bnd jmp 1020 <_init+0x20>
    104f:	90                   	nop
    1050:	f3 0f 1e fa          	endbr64 
    1054:	68 02 00 00 00       	push   $0x2
    1059:	f2 e9 c1 ff ff ff    	bnd jmp 1020 <_init+0x20>
    105f:	90                   	nop
    1060:	f3 0f 1e fa          	endbr64 
    1064:	68 03 00 00 00       	push   $0x3
    1069:	f2 e9 b1 ff ff ff    	bnd jmp 1020 <_init+0x20>
    106f:	90                   	nop
    1070:	f3 0f 1e fa          	endbr64 
    1074:	68 04 00 00 00       	push   $0x4
    1079:	f2 e9 a1 ff ff ff    	bnd jmp 1020 <_init+0x20>
    107f:	90                   	nop
    1080:	f3 0f 1e fa          	endbr64 
    1084:	68 05 00 00 00       	push   $0x5
    1089:	f2 e9 91 ff ff ff    	bnd jmp 1020 <_init+0x20>
    108f:	90                   	nop
    1090:	f3 0f 1e fa          	endbr64 
    1094:	68 06 00 00 00       	push   $0x6
    1099:	f2 e9 81 ff ff ff    	bnd jmp 1020 <_init+0x20>
    109f:	90                   	nop
    10a0:	f3 0f 1e fa          	endbr64 
    10a4:	68 07 00 00 00       	push   $0x7
    10a9:	f2 e9 71 ff ff ff    	bnd jmp 1020 <_init+0x20>
    10af:	90                   	nop
    10b0:	f3 0f 1e fa          	endbr64 
    10b4:	68 08 00 00 00       	push   $0x8
    10b9:	f2 e9 61 ff ff ff    	bnd jmp 1020 <_init+0x20>
    10bf:	90                   	nop
    10c0:	f3 0f 1e fa          	endbr64 
    10c4:	68 09 00 00 00       	push   $0x9
    10c9:	f2 e9 51 ff ff ff    	bnd jmp 1020 <_init+0x20>
    10cf:	90                   	nop

Disassembly of section .plt.got:

00000000000010d0 <__cxa_finalize@plt>:
    10d0:	f3 0f 1e fa          	endbr64 
    10d4:	f2 ff 25 1d 2f 00 00 	bnd jmp *0x2f1d(%rip)        # 3ff8 <__cxa_finalize@GLIBC_2.2.5>
    10db:	0f 1f 44 00 00       	nopl   0x0(%rax,%rax,1)

Disassembly of section .plt.sec:

00000000000010e0 <puts@plt>:
    10e0:	f3 0f 1e fa          	endbr64 
    10e4:	f2 ff 25 9d 2e 00 00 	bnd jmp *0x2e9d(%rip)        # 3f88 <puts@GLIBC_2.2.5>
    10eb:	0f 1f 44 00 00       	nopl   0x0(%rax,%rax,1)

00000000000010f0 <fread@plt>:
    10f0:	f3 0f 1e fa          	endbr64 
    10f4:	f2 ff 25 95 2e 00 00 	bnd jmp *0x2e95(%rip)        # 3f90 <fread@GLIBC_2.2.5>
    10fb:	0f 1f 44 00 00       	nopl   0x0(%rax,%rax,1)

0000000000001100 <fclose@plt>:
    1100:	f3 0f 1e fa          	endbr64 
    1104:	f2 ff 25 8d 2e 00 00 	bnd jmp *0x2e8d(%rip)        # 3f98 <fclose@GLIBC_2.2.5>
    110b:	0f 1f 44 00 00       	nopl   0x0(%rax,%rax,1)

0000000000001110 <__stack_chk_fail@plt>:
    1110:	f3 0f 1e fa          	endbr64 
    1114:	f2 ff 25 85 2e 00 00 	bnd jmp *0x2e85(%rip)        # 3fa0 <__stack_chk_fail@GLIBC_2.4>
    111b:	0f 1f 44 00 00       	nopl   0x0(%rax,%rax,1)

0000000000001120 <log10f@plt>:
    1120:	f3 0f 1e fa          	endbr64 
    1124:	f2 ff 25 7d 2e 00 00 	bnd jmp *0x2e7d(%rip)        # 3fa8 <log10f@GLIBC_2.2.5>
    112b:	0f 1f 44 00 00       	nopl   0x0(%rax,%rax,1)

0000000000001130 <memcpy@plt>:
    1130:	f3 0f 1e fa          	endbr64 
    1134:	f2 ff 25 75 2e 00 00 	bnd jmp *0x2e75(%rip)        # 3fb0 <memcpy@GLIBC_2.14>
    113b:	0f 1f 44 00 00       	nopl   0x0(%rax,%rax,1)

0000000000001140 <__printf_chk@plt>:
    1140:	f3 0f 1e fa          	endbr64 
    1144:	f2 ff 25 6d 2e 00 00 	bnd jmp *0x2e6d(%rip)        # 3fb8 <__printf_chk@GLIBC_2.3.4>
    114b:	0f 1f 44 00 00       	nopl   0x0(%rax,%rax,1)

0000000000001150 <fopen@plt>:
    1150:	f3 0f 1e fa          	endbr64 
    1154:	f2 ff 25 65 2e 00 00 	bnd jmp *0x2e65(%rip)        # 3fc0 <fopen@GLIBC_2.2.5>
    115b:	0f 1f 44 00 00       	nopl   0x0(%rax,%rax,1)

0000000000001160 <sqrt@plt>:
    1160:	f3 0f 1e fa          	endbr64 
    1164:	f2 ff 25 5d 2e 00 00 	bnd jmp *0x2e5d(%rip)        # 3fc8 <sqrt@GLIBC_2.2.5>
    116b:	0f 1f 44 00 00       	nopl   0x0(%rax,%rax,1)

0000000000001170 <__sprintf_chk@plt>:
    1170:	f3 0f 1e fa          	endbr64 
    1174:	f2 ff 25 55 2e 00 00 	bnd jmp *0x2e55(%rip)        # 3fd0 <__sprintf_chk@GLIBC_2.3.4>
    117b:	0f 1f 44 00 00       	nopl   0x0(%rax,%rax,1)

Disassembly of section .text:

0000000000001180 <main>:
    1180:	f3 0f 1e fa          	endbr64 
    1184:	55                   	push   %rbp
    1185:	48 89 e5             	mov    %rsp,%rbp
    1188:	41 56                	push   %r14
    118a:	41 55                	push   %r13
    118c:	41 54                	push   %r12
    118e:	53                   	push   %rbx
    118f:	48 83 ec 30          	sub    $0x30,%rsp
    1193:	64 48 8b 04 25 28 00 	mov    %fs:0x28,%rax
    119a:	00 00 
    119c:	48 89 45 d8          	mov    %rax,-0x28(%rbp)
    11a0:	31 c0                	xor    %eax,%eax
    11a2:	48 8d 84 24 00 f0 ff 	lea    -0x1000(%rsp),%rax
    11a9:	ff 
    11aa:	48 89 e3             	mov    %rsp,%rbx
    11ad:	48 39 c4             	cmp    %rax,%rsp
    11b0:	74 15                	je     11c7 <main+0x47>
    11b2:	48 81 ec 00 10 00 00 	sub    $0x1000,%rsp
    11b9:	48 83 8c 24 f8 0f 00 	orq    $0x0,0xff8(%rsp)
    11c0:	00 00 
    11c2:	48 39 c4             	cmp    %rax,%rsp
    11c5:	75 eb                	jne    11b2 <main+0x32>
    11c7:	48 81 ec 40 0f 00 00 	sub    $0xf40,%rsp
    11ce:	48 83 8c 24 38 0f 00 	orq    $0x0,0xf38(%rsp)
    11d5:	00 00 
    11d7:	49 89 e4             	mov    %rsp,%r12
    11da:	48 8d 84 24 00 f0 ff 	lea    -0x1000(%rsp),%rax
    11e1:	ff 
    11e2:	48 39 c4             	cmp    %rax,%rsp
    11e5:	74 12                	je     11f9 <main+0x79>
    11e7:	48 81 ec 00 10 00 00 	sub    $0x1000,%rsp
    11ee:	48 83 8c 24 f8 0f 00 	orq    $0x0,0xff8(%rsp)
    11f5:	00 00 
    11f7:	eb e9                	jmp    11e2 <main+0x62>
    11f9:	48 81 ec 40 0f 00 00 	sub    $0xf40,%rsp
    1200:	48 83 8c 24 38 0f 00 	orq    $0x0,0xf38(%rsp)
    1207:	00 00 
    1209:	48 8d 7d d0          	lea    -0x30(%rbp),%rdi
    120d:	48 c7 45 d0 00 00 00 	movq   $0x0,-0x30(%rbp)
    1214:	00 
    1215:	49 89 e5             	mov    %rsp,%r13
    1218:	e8 83 03 00 00       	call   15a0 <test_Fopen.constprop.0.isra.0>
    121d:	4c 8b 75 d0          	mov    -0x30(%rbp),%r14
    1221:	ba e8 03 00 00       	mov    $0x3e8,%edx
    1226:	4c 89 e7             	mov    %r12,%rdi
    1229:	be 08 00 00 00       	mov    $0x8,%esi
    122e:	4c 89 f1             	mov    %r14,%rcx
    1231:	e8 ba fe ff ff       	call   10f0 <fread@plt>
    1236:	4c 89 f7             	mov    %r14,%rdi
    1239:	e8 c2 fe ff ff       	call   1100 <fclose@plt>
    123e:	ba e8 03 00 00       	mov    $0x3e8,%edx
    1243:	4c 89 ee             	mov    %r13,%rsi
    1246:	4c 89 e7             	mov    %r12,%rdi
    1249:	e8 f2 03 00 00       	call   1640 <riscv_dsp_dup_f64>
    124e:	66 0f ef db          	pxor   %xmm3,%xmm3
    1252:	66 45 0f ef c9       	pxor   %xmm9,%xmm9
    1257:	31 c0                	xor    %eax,%eax
    1259:	66 41 0f 28 f1       	movapd %xmm9,%xmm6
    125e:	66 41 0f 28 e9       	movapd %xmm9,%xmm5
    1263:	0f 28 c3             	movaps %xmm3,%xmm0
    1266:	44 0f 28 c3          	movaps %xmm3,%xmm8
    126a:	0f 28 fb             	movaps %xmm3,%xmm7
    126d:	eb 3b                	jmp    12aa <main+0x12a>
    126f:	90                   	nop
    1270:	f2 0f 5c e1          	subsd  %xmm1,%xmm4
    1274:	66 0f ef d2          	pxor   %xmm2,%xmm2
    1278:	f2 0f 5a d4          	cvtsd2ss %xmm4,%xmm2
    127c:	f2 0f 59 c9          	mulsd  %xmm1,%xmm1
    1280:	0f 28 e2             	movaps %xmm2,%xmm4
    1283:	f3 0f 58 c2          	addss  %xmm2,%xmm0
    1287:	48 83 c0 08          	add    $0x8,%rax
    128b:	f3 0f 59 d2          	mulss  %xmm2,%xmm2
    128f:	f3 0f 5f e3          	maxss  %xmm3,%xmm4
    1293:	0f 28 dc             	movaps %xmm4,%xmm3
    1296:	f2 0f 58 f1          	addsd  %xmm1,%xmm6
    129a:	f3 0f 5a d2          	cvtss2sd %xmm2,%xmm2
    129e:	f2 0f 58 ea          	addsd  %xmm2,%xmm5
    12a2:	48 3d 40 1f 00 00    	cmp    $0x1f40,%rax
    12a8:	74 56                	je     1300 <main+0x180>
    12aa:	f2 41 0f 10 0c 04    	movsd  (%r12,%rax,1),%xmm1
    12b0:	66 0f ef d2          	pxor   %xmm2,%xmm2
    12b4:	f2 41 0f 10 64 05 00 	movsd  0x0(%r13,%rax,1),%xmm4
    12bb:	f3 0f 5a d7          	cvtss2sd %xmm7,%xmm2
    12bf:	66 0f 2f ca          	comisd %xmm2,%xmm1
    12c3:	76 08                	jbe    12cd <main+0x14d>
    12c5:	66 0f ef ff          	pxor   %xmm7,%xmm7
    12c9:	f2 0f 5a f9          	cvtsd2ss %xmm1,%xmm7
    12cd:	66 0f ef d2          	pxor   %xmm2,%xmm2
    12d1:	f3 41 0f 5a d0       	cvtss2sd %xmm8,%xmm2
    12d6:	66 0f 2f d1          	comisd %xmm1,%xmm2
    12da:	76 0a                	jbe    12e6 <main+0x166>
    12dc:	66 45 0f ef c0       	pxor   %xmm8,%xmm8
    12e1:	f2 44 0f 5a c1       	cvtsd2ss %xmm1,%xmm8
    12e6:	66 0f 2f e1          	comisd %xmm1,%xmm4
    12ea:	77 84                	ja     1270 <main+0xf0>
    12ec:	66 0f 28 d1          	movapd %xmm1,%xmm2
    12f0:	f2 0f 5c d4          	subsd  %xmm4,%xmm2
    12f4:	f2 0f 5a d2          	cvtsd2ss %xmm2,%xmm2
    12f8:	eb 82                	jmp    127c <main+0xfc>
    12fa:	66 0f 1f 44 00 00    	nopw   0x0(%rax,%rax,1)
    1300:	f3 0f 5e 05 10 0e 00 	divss  0xe10(%rip),%xmm0        # 2118 <_IO_stdin_used+0x118>
    1307:	00 
    1308:	66 41 0f 7e c6       	movd   %xmm0,%r14d
    130d:	66 0f 28 c5          	movapd %xmm5,%xmm0
    1311:	f2 0f 5e 05 07 0e 00 	divsd  0xe07(%rip),%xmm0        # 2120 <_IO_stdin_used+0x120>
    1318:	00 
    1319:	66 44 0f 2e c8       	ucomisd %xmm0,%xmm9
    131e:	0f 87 3f 01 00 00    	ja     1463 <main+0x2e3>
    1324:	f2 0f 51 c0          	sqrtsd %xmm0,%xmm0
    1328:	f3 41 0f 5c f8       	subss  %xmm8,%xmm7
    132d:	66 41 0f 2e e9       	ucomisd %xmm9,%xmm5
    1332:	66 0f ef c9          	pxor   %xmm1,%xmm1
    1336:	f2 0f 5a c8          	cvtsd2ss %xmm0,%xmm1
    133a:	0f 28 c1             	movaps %xmm1,%xmm0
    133d:	f3 0f 5e c7          	divss  %xmm7,%xmm0
    1341:	66 41 0f 7e c4       	movd   %xmm0,%r12d
    1346:	0f 8a c7 00 00 00    	jp     1413 <main+0x293>
    134c:	f3 0f 10 25 c0 0d 00 	movss  0xdc0(%rip),%xmm4        # 2114 <_IO_stdin_used+0x114>
    1353:	00 
    1354:	0f 85 b9 00 00 00    	jne    1413 <main+0x293>
    135a:	48 8d 3d d5 0c 00 00 	lea    0xcd5(%rip),%rdi        # 2036 <_IO_stdin_used+0x36>
    1361:	f3 0f 11 5d b8       	movss  %xmm3,-0x48(%rbp)
    1366:	f3 0f 11 65 c8       	movss  %xmm4,-0x38(%rbp)
    136b:	f3 0f 11 4d c0       	movss  %xmm1,-0x40(%rbp)
    1370:	e8 6b fd ff ff       	call   10e0 <puts@plt>
    1375:	f3 0f 10 65 c8       	movss  -0x38(%rbp),%xmm4
    137a:	f3 0f 10 5d b8       	movss  -0x48(%rbp),%xmm3
    137f:	66 41 0f 6e f4       	movd   %r12d,%xmm6
    1384:	f3 0f 10 4d c0       	movss  -0x40(%rbp),%xmm1
    1389:	66 41 0f 6e ee       	movd   %r14d,%xmm5
    138e:	66 0f ef d2          	pxor   %xmm2,%xmm2
    1392:	66 0f ef c0          	pxor   %xmm0,%xmm0
    1396:	f3 0f 5a d6          	cvtss2sd %xmm6,%xmm2
    139a:	f3 0f 5a c5          	cvtss2sd %xmm5,%xmm0
    139e:	48 8d 35 1b 0d 00 00 	lea    0xd1b(%rip),%rsi        # 20c0 <_IO_stdin_used+0xc0>
    13a5:	bf 01 00 00 00       	mov    $0x1,%edi
    13aa:	b8 05 00 00 00       	mov    $0x5,%eax
    13af:	f3 0f 5a e4          	cvtss2sd %xmm4,%xmm4
    13b3:	f3 0f 5a db          	cvtss2sd %xmm3,%xmm3
    13b7:	f3 0f 5a c9          	cvtss2sd %xmm1,%xmm1
    13bb:	f2 0f 11 55 c8       	movsd  %xmm2,-0x38(%rbp)
    13c0:	e8 7b fd ff ff       	call   1140 <__printf_chk@plt>
    13c5:	f2 0f 10 55 c8       	movsd  -0x38(%rbp),%xmm2
    13ca:	66 0f 2f 15 56 0d 00 	comisd 0xd56(%rip),%xmm2        # 2128 <_IO_stdin_used+0x128>
    13d1:	00 
    13d2:	48 8d 15 72 0c 00 00 	lea    0xc72(%rip),%rdx        # 204b <_IO_stdin_used+0x4b>
    13d9:	77 6d                	ja     1448 <main+0x2c8>
    13db:	48 8d 35 86 0c 00 00 	lea    0xc86(%rip),%rsi        # 2068 <_IO_stdin_used+0x68>
    13e2:	bf 01 00 00 00       	mov    $0x1,%edi
    13e7:	31 c0                	xor    %eax,%eax
    13e9:	e8 52 fd ff ff       	call   1140 <__printf_chk@plt>
    13ee:	31 c0                	xor    %eax,%eax
    13f0:	48 89 dc             	mov    %rbx,%rsp
    13f3:	48 8b 55 d8          	mov    -0x28(%rbp),%rdx
    13f7:	64 48 2b 14 25 28 00 	sub    %fs:0x28,%rdx
    13fe:	00 00 
    1400:	0f 85 a0 00 00 00    	jne    14a6 <main+0x326>
    1406:	48 8d 65 e0          	lea    -0x20(%rbp),%rsp
    140a:	5b                   	pop    %rbx
    140b:	41 5c                	pop    %r12
    140d:	41 5d                	pop    %r13
    140f:	41 5e                	pop    %r14
    1411:	5d                   	pop    %rbp
    1412:	c3                   	ret    
    1413:	f2 0f 5e f5          	divsd  %xmm5,%xmm6
    1417:	66 0f ef c0          	pxor   %xmm0,%xmm0
    141b:	f3 0f 11 5d c0       	movss  %xmm3,-0x40(%rbp)
    1420:	f3 0f 11 4d c8       	movss  %xmm1,-0x38(%rbp)
    1425:	f2 0f 5a c6          	cvtsd2ss %xmm6,%xmm0
    1429:	e8 f2 fc ff ff       	call   1120 <log10f@plt>
    142e:	f3 0f 10 5d c0       	movss  -0x40(%rbp),%xmm3
    1433:	f3 0f 59 05 e1 0c 00 	mulss  0xce1(%rip),%xmm0        # 211c <_IO_stdin_used+0x11c>
    143a:	00 
    143b:	f3 0f 10 4d c8       	movss  -0x38(%rbp),%xmm1
    1440:	0f 28 e0             	movaps %xmm0,%xmm4
    1443:	e9 12 ff ff ff       	jmp    135a <main+0x1da>
    1448:	48 8d 35 0e 0c 00 00 	lea    0xc0e(%rip),%rsi        # 205d <_IO_stdin_used+0x5d>
    144f:	bf 01 00 00 00       	mov    $0x1,%edi
    1454:	31 c0                	xor    %eax,%eax
    1456:	e8 e5 fc ff ff       	call   1140 <__printf_chk@plt>
    145b:	83 c8 ff             	or     $0xffffffff,%eax
    145e:	48 89 dc             	mov    %rbx,%rsp
    1461:	eb 90                	jmp    13f3 <main+0x273>
    1463:	f3 0f 11 7d b4       	movss  %xmm7,-0x4c(%rbp)
    1468:	f2 0f 11 75 b8       	movsd  %xmm6,-0x48(%rbp)
    146d:	f2 0f 11 6d c0       	movsd  %xmm5,-0x40(%rbp)
    1472:	f3 44 0f 11 45 c8    	movss  %xmm8,-0x38(%rbp)
    1478:	f3 0f 11 65 b0       	movss  %xmm4,-0x50(%rbp)
    147d:	e8 de fc ff ff       	call   1160 <sqrt@plt>
    1482:	f3 0f 10 5d b0       	movss  -0x50(%rbp),%xmm3
    1487:	f3 0f 10 7d b4       	movss  -0x4c(%rbp),%xmm7
    148c:	66 45 0f ef c9       	pxor   %xmm9,%xmm9
    1491:	f2 0f 10 75 b8       	movsd  -0x48(%rbp),%xmm6
    1496:	f2 0f 10 6d c0       	movsd  -0x40(%rbp),%xmm5
    149b:	f3 44 0f 10 45 c8    	movss  -0x38(%rbp),%xmm8
    14a1:	e9 82 fe ff ff       	jmp    1328 <main+0x1a8>
    14a6:	e8 65 fc ff ff       	call   1110 <__stack_chk_fail@plt>
    14ab:	0f 1f 44 00 00       	nopl   0x0(%rax,%rax,1)

00000000000014b0 <_start>:
    14b0:	f3 0f 1e fa          	endbr64 
    14b4:	31 ed                	xor    %ebp,%ebp
    14b6:	49 89 d1             	mov    %rdx,%r9
    14b9:	5e                   	pop    %rsi
    14ba:	48 89 e2             	mov    %rsp,%rdx
    14bd:	48 83 e4 f0          	and    $0xfffffffffffffff0,%rsp
    14c1:	50                   	push   %rax
    14c2:	54                   	push   %rsp
    14c3:	45 31 c0             	xor    %r8d,%r8d
    14c6:	31 c9                	xor    %ecx,%ecx
    14c8:	48 8d 3d b1 fc ff ff 	lea    -0x34f(%rip),%rdi        # 1180 <main>
    14cf:	ff 15 03 2b 00 00    	call   *0x2b03(%rip)        # 3fd8 <__libc_start_main@GLIBC_2.34>
    14d5:	f4                   	hlt    
    14d6:	66 2e 0f 1f 84 00 00 	cs nopw 0x0(%rax,%rax,1)
    14dd:	00 00 00 

00000000000014e0 <deregister_tm_clones>:
    14e0:	48 8d 3d 29 2b 00 00 	lea    0x2b29(%rip),%rdi        # 4010 <__TMC_END__>
    14e7:	48 8d 05 22 2b 00 00 	lea    0x2b22(%rip),%rax        # 4010 <__TMC_END__>
    14ee:	48 39 f8             	cmp    %rdi,%rax
    14f1:	74 15                	je     1508 <deregister_tm_clones+0x28>
    14f3:	48 8b 05 e6 2a 00 00 	mov    0x2ae6(%rip),%rax        # 3fe0 <_ITM_deregisterTMCloneTable@Base>
    14fa:	48 85 c0             	test   %rax,%rax
    14fd:	74 09                	je     1508 <deregister_tm_clones+0x28>
    14ff:	ff e0                	jmp    *%rax
    1501:	0f 1f 80 00 00 00 00 	nopl   0x0(%rax)
    1508:	c3                   	ret    
    1509:	0f 1f 80 00 00 00 00 	nopl   0x0(%rax)

0000000000001510 <register_tm_clones>:
    1510:	48 8d 3d f9 2a 00 00 	lea    0x2af9(%rip),%rdi        # 4010 <__TMC_END__>
    1517:	48 8d 35 f2 2a 00 00 	lea    0x2af2(%rip),%rsi        # 4010 <__TMC_END__>
    151e:	48 29 fe             	sub    %rdi,%rsi
    1521:	48 89 f0             	mov    %rsi,%rax
    1524:	48 c1 ee 3f          	shr    $0x3f,%rsi
    1528:	48 c1 f8 03          	sar    $0x3,%rax
    152c:	48 01 c6             	add    %rax,%rsi
    152f:	48 d1 fe             	sar    %rsi
    1532:	74 14                	je     1548 <register_tm_clones+0x38>
    1534:	48 8b 05 b5 2a 00 00 	mov    0x2ab5(%rip),%rax        # 3ff0 <_ITM_registerTMCloneTable@Base>
    153b:	48 85 c0             	test   %rax,%rax
    153e:	74 08                	je     1548 <register_tm_clones+0x38>
    1540:	ff e0                	jmp    *%rax
    1542:	66 0f 1f 44 00 00    	nopw   0x0(%rax,%rax,1)
    1548:	c3                   	ret    
    1549:	0f 1f 80 00 00 00 00 	nopl   0x0(%rax)

0000000000001550 <__do_global_dtors_aux>:
    1550:	f3 0f 1e fa          	endbr64 
    1554:	80 3d b5 2a 00 00 00 	cmpb   $0x0,0x2ab5(%rip)        # 4010 <__TMC_END__>
    155b:	75 2b                	jne    1588 <__do_global_dtors_aux+0x38>
    155d:	55                   	push   %rbp
    155e:	48 83 3d 92 2a 00 00 	cmpq   $0x0,0x2a92(%rip)        # 3ff8 <__cxa_finalize@GLIBC_2.2.5>
    1565:	00 
    1566:	48 89 e5             	mov    %rsp,%rbp
    1569:	74 0c                	je     1577 <__do_global_dtors_aux+0x27>
    156b:	48 8b 3d 96 2a 00 00 	mov    0x2a96(%rip),%rdi        # 4008 <__dso_handle>
    1572:	e8 59 fb ff ff       	call   10d0 <__cxa_finalize@plt>
    1577:	e8 64 ff ff ff       	call   14e0 <deregister_tm_clones>
    157c:	c6 05 8d 2a 00 00 01 	movb   $0x1,0x2a8d(%rip)        # 4010 <__TMC_END__>
    1583:	5d                   	pop    %rbp
    1584:	c3                   	ret    
    1585:	0f 1f 00             	nopl   (%rax)
    1588:	c3                   	ret    
    1589:	0f 1f 80 00 00 00 00 	nopl   0x0(%rax)

0000000000001590 <frame_dummy>:
    1590:	f3 0f 1e fa          	endbr64 
    1594:	e9 77 ff ff ff       	jmp    1510 <register_tm_clones>
    1599:	0f 1f 80 00 00 00 00 	nopl   0x0(%rax)

00000000000015a0 <test_Fopen.constprop.0.isra.0>:
    15a0:	55                   	push   %rbp
    15a1:	4c 8d 0d 5c 0a 00 00 	lea    0xa5c(%rip),%r9        # 2004 <_IO_stdin_used+0x4>
    15a8:	4c 8d 05 c9 0a 00 00 	lea    0xac9(%rip),%r8        # 2078 <_IO_stdin_used+0x78>
    15af:	ba 00 04 00 00       	mov    $0x400,%edx
    15b4:	53                   	push   %rbx
    15b5:	48 8d 0d 58 0a 00 00 	lea    0xa58(%rip),%rcx        # 2014 <_IO_stdin_used+0x14>
    15bc:	48 89 fb             	mov    %rdi,%rbx
    15bf:	be 01 00 00 00       	mov    $0x1,%esi
    15c4:	48 81 ec 18 04 00 00 	sub    $0x418,%rsp
    15cb:	64 48 8b 04 25 28 00 	mov    %fs:0x28,%rax
    15d2:	00 00 
    15d4:	48 89 84 24 08 04 00 	mov    %rax,0x408(%rsp)
    15db:	00 
    15dc:	31 c0                	xor    %eax,%eax
    15de:	48 89 e5             	mov    %rsp,%rbp
    15e1:	48 89 ef             	mov    %rbp,%rdi
    15e4:	e8 87 fb ff ff       	call   1170 <__sprintf_chk@plt>
    15e9:	48 8d 35 2a 0a 00 00 	lea    0xa2a(%rip),%rsi        # 201a <_IO_stdin_used+0x1a>
    15f0:	48 89 ef             	mov    %rbp,%rdi
    15f3:	e8 58 fb ff ff       	call   1150 <fopen@plt>
    15f8:	48 89 03             	mov    %rax,(%rbx)
    15fb:	48 85 c0             	test   %rax,%rax
    15fe:	74 1d                	je     161d <test_Fopen.constprop.0.isra.0+0x7d>
    1600:	48 8b 84 24 08 04 00 	mov    0x408(%rsp),%rax
    1607:	00 
    1608:	64 48 2b 04 25 28 00 	sub    %fs:0x28,%rax
    160f:	00 00 
    1611:	75 24                	jne    1637 <test_Fopen.constprop.0.isra.0+0x97>
    1613:	48 81 c4 18 04 00 00 	add    $0x418,%rsp
    161a:	5b                   	pop    %rbx
    161b:	5d                   	pop    %rbp
    161c:	c3                   	ret    
    161d:	48 8d 15 e0 09 00 00 	lea    0x9e0(%rip),%rdx        # 2004 <_IO_stdin_used+0x4>
    1624:	48 8d 35 f2 09 00 00 	lea    0x9f2(%rip),%rsi        # 201d <_IO_stdin_used+0x1d>
    162b:	bf 01 00 00 00       	mov    $0x1,%edi
    1630:	e8 0b fb ff ff       	call   1140 <__printf_chk@plt>
    1635:	eb c9                	jmp    1600 <test_Fopen.constprop.0.isra.0+0x60>
    1637:	e8 d4 fa ff ff       	call   1110 <__stack_chk_fail@plt>
    163c:	0f 1f 40 00          	nopl   0x0(%rax)

0000000000001640 <riscv_dsp_dup_f64>:
    1640:	f3 0f 1e fa          	endbr64 
    1644:	49 89 f8             	mov    %rdi,%r8
    1647:	48 89 f7             	mov    %rsi,%rdi
    164a:	85 d2                	test   %edx,%edx
    164c:	74 12                	je     1660 <riscv_dsp_dup_f64+0x20>
    164e:	89 d2                	mov    %edx,%edx
    1650:	4c 89 c6             	mov    %r8,%rsi
    1653:	48 c1 e2 03          	shl    $0x3,%rdx
    1657:	e9 d4 fa ff ff       	jmp    1130 <memcpy@plt>
    165c:	0f 1f 40 00          	nopl   0x0(%rax)
    1660:	c3                   	ret    

Disassembly of section .fini:

0000000000001664 <_fini>:
    1664:	f3 0f 1e fa          	endbr64 
    1668:	48 83 ec 08          	sub    $0x8,%rsp
    166c:	48 83 c4 08          	add    $0x8,%rsp
    1670:	c3                   	ret    
