
t_fir_fast_q31:     file format elf64-x86-64


Disassembly of section .init:

0000000000001000 <_init>:
    1000:	f3 0f 1e fa          	endbr64 
    1004:	48 83 ec 08          	sub    $0x8,%rsp
    1008:	48 8b 05 d9 3f 00 00 	mov    0x3fd9(%rip),%rax        # 4fe8 <__gmon_start__@Base>
    100f:	48 85 c0             	test   %rax,%rax
    1012:	74 02                	je     1016 <_init+0x16>
    1014:	ff d0                	call   *%rax
    1016:	48 83 c4 08          	add    $0x8,%rsp
    101a:	c3                   	ret    

Disassembly of section .plt:

0000000000001020 <.plt>:
    1020:	ff 35 4a 3f 00 00    	push   0x3f4a(%rip)        # 4f70 <_GLOBAL_OFFSET_TABLE_+0x8>
    1026:	f2 ff 25 4b 3f 00 00 	bnd jmp *0x3f4b(%rip)        # 4f78 <_GLOBAL_OFFSET_TABLE_+0x10>
    102d:	0f 1f 00             	nopl   (%rax)
    1030:	f3 0f 1e fa          	endbr64 
    1034:	68 00 00 00 00       	push   $0x0
    1039:	f2 e9 e1 ff ff ff    	bnd jmp 1020 <_init+0x20>
    103f:	90                   	nop
    1040:	f3 0f 1e fa          	endbr64 
    1044:	68 01 00 00 00       	push   $0x1
    1049:	f2 e9 d1 ff ff ff    	bnd jmp 1020 <_init+0x20>
    104f:	90                   	nop
    1050:	f3 0f 1e fa          	endbr64 
    1054:	68 02 00 00 00       	push   $0x2
    1059:	f2 e9 c1 ff ff ff    	bnd jmp 1020 <_init+0x20>
    105f:	90                   	nop
    1060:	f3 0f 1e fa          	endbr64 
    1064:	68 03 00 00 00       	push   $0x3
    1069:	f2 e9 b1 ff ff ff    	bnd jmp 1020 <_init+0x20>
    106f:	90                   	nop
    1070:	f3 0f 1e fa          	endbr64 
    1074:	68 04 00 00 00       	push   $0x4
    1079:	f2 e9 a1 ff ff ff    	bnd jmp 1020 <_init+0x20>
    107f:	90                   	nop
    1080:	f3 0f 1e fa          	endbr64 
    1084:	68 05 00 00 00       	push   $0x5
    1089:	f2 e9 91 ff ff ff    	bnd jmp 1020 <_init+0x20>
    108f:	90                   	nop
    1090:	f3 0f 1e fa          	endbr64 
    1094:	68 06 00 00 00       	push   $0x6
    1099:	f2 e9 81 ff ff ff    	bnd jmp 1020 <_init+0x20>
    109f:	90                   	nop
    10a0:	f3 0f 1e fa          	endbr64 
    10a4:	68 07 00 00 00       	push   $0x7
    10a9:	f2 e9 71 ff ff ff    	bnd jmp 1020 <_init+0x20>
    10af:	90                   	nop
    10b0:	f3 0f 1e fa          	endbr64 
    10b4:	68 08 00 00 00       	push   $0x8
    10b9:	f2 e9 61 ff ff ff    	bnd jmp 1020 <_init+0x20>
    10bf:	90                   	nop
    10c0:	f3 0f 1e fa          	endbr64 
    10c4:	68 09 00 00 00       	push   $0x9
    10c9:	f2 e9 51 ff ff ff    	bnd jmp 1020 <_init+0x20>
    10cf:	90                   	nop
    10d0:	f3 0f 1e fa          	endbr64 
    10d4:	68 0a 00 00 00       	push   $0xa
    10d9:	f2 e9 41 ff ff ff    	bnd jmp 1020 <_init+0x20>
    10df:	90                   	nop

Disassembly of section .plt.got:

00000000000010e0 <__cxa_finalize@plt>:
    10e0:	f3 0f 1e fa          	endbr64 
    10e4:	f2 ff 25 0d 3f 00 00 	bnd jmp *0x3f0d(%rip)        # 4ff8 <__cxa_finalize@GLIBC_2.2.5>
    10eb:	0f 1f 44 00 00       	nopl   0x0(%rax,%rax,1)

Disassembly of section .plt.sec:

00000000000010f0 <free@plt>:
    10f0:	f3 0f 1e fa          	endbr64 
    10f4:	f2 ff 25 85 3e 00 00 	bnd jmp *0x3e85(%rip)        # 4f80 <free@GLIBC_2.2.5>
    10fb:	0f 1f 44 00 00       	nopl   0x0(%rax,%rax,1)

0000000000001100 <puts@plt>:
    1100:	f3 0f 1e fa          	endbr64 
    1104:	f2 ff 25 7d 3e 00 00 	bnd jmp *0x3e7d(%rip)        # 4f88 <puts@GLIBC_2.2.5>
    110b:	0f 1f 44 00 00       	nopl   0x0(%rax,%rax,1)

0000000000001110 <fread@plt>:
    1110:	f3 0f 1e fa          	endbr64 
    1114:	f2 ff 25 75 3e 00 00 	bnd jmp *0x3e75(%rip)        # 4f90 <fread@GLIBC_2.2.5>
    111b:	0f 1f 44 00 00       	nopl   0x0(%rax,%rax,1)

0000000000001120 <fclose@plt>:
    1120:	f3 0f 1e fa          	endbr64 
    1124:	f2 ff 25 6d 3e 00 00 	bnd jmp *0x3e6d(%rip)        # 4f98 <fclose@GLIBC_2.2.5>
    112b:	0f 1f 44 00 00       	nopl   0x0(%rax,%rax,1)

0000000000001130 <__stack_chk_fail@plt>:
    1130:	f3 0f 1e fa          	endbr64 
    1134:	f2 ff 25 65 3e 00 00 	bnd jmp *0x3e65(%rip)        # 4fa0 <__stack_chk_fail@GLIBC_2.4>
    113b:	0f 1f 44 00 00       	nopl   0x0(%rax,%rax,1)

0000000000001140 <calloc@plt>:
    1140:	f3 0f 1e fa          	endbr64 
    1144:	f2 ff 25 5d 3e 00 00 	bnd jmp *0x3e5d(%rip)        # 4fa8 <calloc@GLIBC_2.2.5>
    114b:	0f 1f 44 00 00       	nopl   0x0(%rax,%rax,1)

0000000000001150 <log10f@plt>:
    1150:	f3 0f 1e fa          	endbr64 
    1154:	f2 ff 25 55 3e 00 00 	bnd jmp *0x3e55(%rip)        # 4fb0 <log10f@GLIBC_2.2.5>
    115b:	0f 1f 44 00 00       	nopl   0x0(%rax,%rax,1)

0000000000001160 <__printf_chk@plt>:
    1160:	f3 0f 1e fa          	endbr64 
    1164:	f2 ff 25 4d 3e 00 00 	bnd jmp *0x3e4d(%rip)        # 4fb8 <__printf_chk@GLIBC_2.3.4>
    116b:	0f 1f 44 00 00       	nopl   0x0(%rax,%rax,1)

0000000000001170 <fopen@plt>:
    1170:	f3 0f 1e fa          	endbr64 
    1174:	f2 ff 25 45 3e 00 00 	bnd jmp *0x3e45(%rip)        # 4fc0 <fopen@GLIBC_2.2.5>
    117b:	0f 1f 44 00 00       	nopl   0x0(%rax,%rax,1)

0000000000001180 <sqrt@plt>:
    1180:	f3 0f 1e fa          	endbr64 
    1184:	f2 ff 25 3d 3e 00 00 	bnd jmp *0x3e3d(%rip)        # 4fc8 <sqrt@GLIBC_2.2.5>
    118b:	0f 1f 44 00 00       	nopl   0x0(%rax,%rax,1)

0000000000001190 <__sprintf_chk@plt>:
    1190:	f3 0f 1e fa          	endbr64 
    1194:	f2 ff 25 35 3e 00 00 	bnd jmp *0x3e35(%rip)        # 4fd0 <__sprintf_chk@GLIBC_2.3.4>
    119b:	0f 1f 44 00 00       	nopl   0x0(%rax,%rax,1)

Disassembly of section .text:

00000000000011a0 <main>:
    11a0:	f3 0f 1e fa          	endbr64 
    11a4:	55                   	push   %rbp
    11a5:	be 04 00 00 00       	mov    $0x4,%esi
    11aa:	bf 0d 04 00 00       	mov    $0x40d,%edi
    11af:	48 89 e5             	mov    %rsp,%rbp
    11b2:	41 57                	push   %r15
    11b4:	41 56                	push   %r14
    11b6:	41 55                	push   %r13
    11b8:	41 54                	push   %r12
    11ba:	53                   	push   %rbx
    11bb:	48 81 ec 68 02 00 00 	sub    $0x268,%rsp
    11c2:	64 48 8b 04 25 28 00 	mov    %fs:0x28,%rax
    11c9:	00 00 
    11cb:	48 89 45 c8          	mov    %rax,-0x38(%rbp)
    11cf:	31 c0                	xor    %eax,%eax
    11d1:	e8 6a ff ff ff       	call   1140 <calloc@plt>
    11d6:	be 04 00 00 00       	mov    $0x4,%esi
    11db:	bf 0f 00 00 00       	mov    $0xf,%edi
    11e0:	48 89 c3             	mov    %rax,%rbx
    11e3:	48 89 85 80 fd ff ff 	mov    %rax,-0x280(%rbp)
    11ea:	e8 51 ff ff ff       	call   1140 <calloc@plt>
    11ef:	66 48 0f 6e c3       	movq   %rbx,%xmm0
    11f4:	c7 85 a0 fd ff ff 0f 	movl   $0xf,-0x260(%rbp)
    11fb:	00 00 00 
    11fe:	66 48 0f 6e e8       	movq   %rax,%xmm5
    1203:	49 89 c4             	mov    %rax,%r12
    1206:	48 8d 84 24 00 f0 ff 	lea    -0x1000(%rsp),%rax
    120d:	ff 
    120e:	66 0f 6c c5          	punpcklqdq %xmm5,%xmm0
    1212:	0f 11 85 a8 fd ff ff 	movups %xmm0,-0x258(%rbp)
    1219:	48 39 c4             	cmp    %rax,%rsp
    121c:	74 15                	je     1233 <main+0x93>
    121e:	48 81 ec 00 10 00 00 	sub    $0x1000,%rsp
    1225:	48 83 8c 24 f8 0f 00 	orq    $0x0,0xff8(%rsp)
    122c:	00 00 
    122e:	48 39 c4             	cmp    %rax,%rsp
    1231:	75 eb                	jne    121e <main+0x7e>
    1233:	48 89 a5 90 fd ff ff 	mov    %rsp,-0x270(%rbp)
    123a:	48 8d 84 24 00 f0 ff 	lea    -0x1000(%rsp),%rax
    1241:	ff 
    1242:	48 39 c4             	cmp    %rax,%rsp
    1245:	74 12                	je     1259 <main+0xb9>
    1247:	48 81 ec 00 10 00 00 	sub    $0x1000,%rsp
    124e:	48 83 8c 24 f8 0f 00 	orq    $0x0,0xff8(%rsp)
    1255:	00 00 
    1257:	eb e9                	jmp    1242 <main+0xa2>
    1259:	4c 8d 4c 24 03       	lea    0x3(%rsp),%r9
    125e:	4c 89 c8             	mov    %r9,%rax
    1261:	49 83 e1 fc          	and    $0xfffffffffffffffc,%r9
    1265:	48 c1 e8 02          	shr    $0x2,%rax
    1269:	4d 89 ce             	mov    %r9,%r14
    126c:	48 89 85 78 fd ff ff 	mov    %rax,-0x288(%rbp)
    1273:	48 8d 84 24 00 f0 ff 	lea    -0x1000(%rsp),%rax
    127a:	ff 
    127b:	48 39 c4             	cmp    %rax,%rsp
    127e:	74 12                	je     1292 <main+0xf2>
    1280:	48 81 ec 00 10 00 00 	sub    $0x1000,%rsp
    1287:	48 83 8c 24 f8 0f 00 	orq    $0x0,0xff8(%rsp)
    128e:	00 00 
    1290:	eb e9                	jmp    127b <main+0xdb>
    1292:	4c 8d 54 24 03       	lea    0x3(%rsp),%r10
    1297:	48 8d 84 24 00 f0 ff 	lea    -0x1000(%rsp),%rax
    129e:	ff 
    129f:	4c 89 d3             	mov    %r10,%rbx
    12a2:	49 83 e2 fc          	and    $0xfffffffffffffffc,%r10
    12a6:	48 c1 eb 02          	shr    $0x2,%rbx
    12aa:	4d 89 d5             	mov    %r10,%r13
    12ad:	48 39 c4             	cmp    %rax,%rsp
    12b0:	74 12                	je     12c4 <main+0x124>
    12b2:	48 81 ec 00 10 00 00 	sub    $0x1000,%rsp
    12b9:	48 83 8c 24 f8 0f 00 	orq    $0x0,0xff8(%rsp)
    12c0:	00 00 
    12c2:	eb e9                	jmp    12ad <main+0x10d>
    12c4:	48 83 ec 40          	sub    $0x40,%rsp
    12c8:	48 83 4c 24 38 00    	orq    $0x0,0x38(%rsp)
    12ce:	4c 8d 05 33 1d 00 00 	lea    0x1d33(%rip),%r8        # 3008 <_IO_stdin_used+0x8>
    12d5:	ba 00 02 00 00       	mov    $0x200,%edx
    12da:	31 c0                	xor    %eax,%eax
    12dc:	48 8d 0d bf 1d 00 00 	lea    0x1dbf(%rip),%rcx        # 30a2 <_IO_stdin_used+0xa2>
    12e3:	be 01 00 00 00       	mov    $0x1,%esi
    12e8:	4c 8d bd c0 fd ff ff 	lea    -0x240(%rbp),%r15
    12ef:	48 89 a5 70 fd ff ff 	mov    %rsp,-0x290(%rbp)
    12f6:	4c 89 ff             	mov    %r15,%rdi
    12f9:	e8 92 fe ff ff       	call   1190 <__sprintf_chk@plt>
    12fe:	48 8d 35 ae 1d 00 00 	lea    0x1dae(%rip),%rsi        # 30b3 <_IO_stdin_used+0xb3>
    1305:	4c 89 ff             	mov    %r15,%rdi
    1308:	e8 63 fe ff ff       	call   1170 <fopen@plt>
    130d:	48 89 85 88 fd ff ff 	mov    %rax,-0x278(%rbp)
    1314:	48 85 c0             	test   %rax,%rax
    1317:	0f 84 db 04 00 00    	je     17f8 <main+0x658>
    131d:	ba 00 02 00 00       	mov    $0x200,%edx
    1322:	be 01 00 00 00       	mov    $0x1,%esi
    1327:	4c 89 ff             	mov    %r15,%rdi
    132a:	31 c0                	xor    %eax,%eax
    132c:	4c 8d 05 d5 1c 00 00 	lea    0x1cd5(%rip),%r8        # 3008 <_IO_stdin_used+0x8>
    1333:	48 8d 0d 7b 1d 00 00 	lea    0x1d7b(%rip),%rcx        # 30b5 <_IO_stdin_used+0xb5>
    133a:	e8 51 fe ff ff       	call   1190 <__sprintf_chk@plt>
    133f:	48 8d 35 6d 1d 00 00 	lea    0x1d6d(%rip),%rsi        # 30b3 <_IO_stdin_used+0xb3>
    1346:	4c 89 ff             	mov    %r15,%rdi
    1349:	e8 22 fe ff ff       	call   1170 <fopen@plt>
    134e:	48 89 85 98 fd ff ff 	mov    %rax,-0x268(%rbp)
    1355:	48 85 c0             	test   %rax,%rax
    1358:	0f 84 9a 04 00 00    	je     17f8 <main+0x658>
    135e:	4c 89 ff             	mov    %r15,%rdi
    1361:	ba 00 02 00 00       	mov    $0x200,%edx
    1366:	be 01 00 00 00       	mov    $0x1,%esi
    136b:	31 c0                	xor    %eax,%eax
    136d:	4c 8d 05 94 1c 00 00 	lea    0x1c94(%rip),%r8        # 3008 <_IO_stdin_used+0x8>
    1374:	48 8d 0d 50 1d 00 00 	lea    0x1d50(%rip),%rcx        # 30cb <_IO_stdin_used+0xcb>
    137b:	e8 10 fe ff ff       	call   1190 <__sprintf_chk@plt>
    1380:	4c 89 ff             	mov    %r15,%rdi
    1383:	48 8d 35 29 1d 00 00 	lea    0x1d29(%rip),%rsi        # 30b3 <_IO_stdin_used+0xb3>
    138a:	e8 e1 fd ff ff       	call   1170 <fopen@plt>
    138f:	49 89 c7             	mov    %rax,%r15
    1392:	48 85 c0             	test   %rax,%rax
    1395:	0f 84 5d 04 00 00    	je     17f8 <main+0x658>
    139b:	66 0f 6f 05 7d 1d 00 	movdqa 0x1d7d(%rip),%xmm0        # 3120 <_IO_stdin_used+0x120>
    13a2:	00 
    13a3:	48 8b 05 b6 1d 00 00 	mov    0x1db6(%rip),%rax        # 3160 <_IO_stdin_used+0x160>
    13aa:	41 c7 44 24 38 00 00 	movl   $0x20000000,0x38(%r12)
    13b1:	00 20 
    13b3:	be ff 03 00 00       	mov    $0x3ff,%esi
    13b8:	48 8b 95 88 fd ff ff 	mov    -0x278(%rbp),%rdx
    13bf:	48 8b bd 90 fd ff ff 	mov    -0x270(%rbp),%rdi
    13c6:	41 0f 11 04 24       	movups %xmm0,(%r12)
    13cb:	66 0f 6f 05 5d 1d 00 	movdqa 0x1d5d(%rip),%xmm0        # 3130 <_IO_stdin_used+0x130>
    13d2:	00 
    13d3:	49 89 44 24 30       	mov    %rax,0x30(%r12)
    13d8:	41 0f 11 44 24 10    	movups %xmm0,0x10(%r12)
    13de:	66 0f 6f 05 5a 1d 00 	movdqa 0x1d5a(%rip),%xmm0        # 3140 <_IO_stdin_used+0x140>
    13e5:	00 
    13e6:	41 0f 11 44 24 20    	movups %xmm0,0x20(%r12)
    13ec:	e8 0f 05 00 00       	call   1900 <test_Fread.constprop.0.isra.0>
    13f1:	48 8b 95 98 fd ff ff 	mov    -0x268(%rbp),%rdx
    13f8:	be ff 03 00 00       	mov    $0x3ff,%esi
    13fd:	4c 89 ef             	mov    %r13,%rdi
    1400:	e8 fb 04 00 00       	call   1900 <test_Fread.constprop.0.isra.0>
    1405:	48 8b bd 70 fd ff ff 	mov    -0x290(%rbp),%rdi
    140c:	4c 89 fa             	mov    %r15,%rdx
    140f:	be 0d 04 00 00       	mov    $0x40d,%esi
    1414:	e8 e7 04 00 00       	call   1900 <test_Fread.constprop.0.isra.0>
    1419:	48 8b b5 90 fd ff ff 	mov    -0x270(%rbp),%rsi
    1420:	b9 ff 03 00 00       	mov    $0x3ff,%ecx
    1425:	4c 89 f2             	mov    %r14,%rdx
    1428:	48 8d bd a0 fd ff ff 	lea    -0x260(%rbp),%rdi
    142f:	e8 9c 05 00 00       	call   19d0 <riscv_dsp_fir_fast_q31>
    1434:	31 c0                	xor    %eax,%eax
    1436:	66 0f ef d2          	pxor   %xmm2,%xmm2
    143a:	66 0f 1f 44 00 00    	nopw   0x0(%rax,%rax,1)
    1440:	f3 41 0f 6f 44 05 00 	movdqu 0x0(%r13,%rax,1),%xmm0
    1447:	f3 41 0f 6f 3c 06    	movdqu (%r14,%rax,1),%xmm7
    144d:	48 83 c0 10          	add    $0x10,%rax
    1451:	66 0f fa c7          	psubd  %xmm7,%xmm0
    1455:	66 0f 6f c8          	movdqa %xmm0,%xmm1
    1459:	66 0f 72 e1 1f       	psrad  $0x1f,%xmm1
    145e:	66 0f ef c1          	pxor   %xmm1,%xmm0
    1462:	66 0f fa c1          	psubd  %xmm1,%xmm0
    1466:	66 0f 6f c8          	movdqa %xmm0,%xmm1
    146a:	66 0f 66 ca          	pcmpgtd %xmm2,%xmm1
    146e:	66 0f db c1          	pand   %xmm1,%xmm0
    1472:	66 0f df ca          	pandn  %xmm2,%xmm1
    1476:	66 0f 6f d1          	movdqa %xmm1,%xmm2
    147a:	66 0f eb d0          	por    %xmm0,%xmm2
    147e:	48 3d f0 0f 00 00    	cmp    $0xff0,%rax
    1484:	75 ba                	jne    1440 <main+0x2a0>
    1486:	48 8b 95 78 fd ff ff 	mov    -0x288(%rbp),%rdx
    148d:	66 0f 6f ca          	movdqa %xmm2,%xmm1
    1491:	8b 3c 9d f4 0f 00 00 	mov    0xff4(,%rbx,4),%edi
    1498:	66 0f 73 d9 08       	psrldq $0x8,%xmm1
    149d:	8b 34 9d f0 0f 00 00 	mov    0xff0(,%rbx,4),%esi
    14a4:	8b 0c 9d f8 0f 00 00 	mov    0xff8(,%rbx,4),%ecx
    14ab:	2b 3c 95 f4 0f 00 00 	sub    0xff4(,%rdx,4),%edi
    14b2:	66 0f 6f c1          	movdqa %xmm1,%xmm0
    14b6:	2b 34 95 f0 0f 00 00 	sub    0xff0(,%rdx,4),%esi
    14bd:	2b 0c 95 f8 0f 00 00 	sub    0xff8(,%rdx,4),%ecx
    14c4:	66 0f 66 c2          	pcmpgtd %xmm2,%xmm0
    14c8:	89 fa                	mov    %edi,%edx
    14ca:	f7 da                	neg    %edx
    14cc:	0f 48 d7             	cmovs  %edi,%edx
    14cf:	89 f7                	mov    %esi,%edi
    14d1:	66 0f db c8          	pand   %xmm0,%xmm1
    14d5:	66 0f df c2          	pandn  %xmm2,%xmm0
    14d9:	f7 df                	neg    %edi
    14db:	66 0f eb c1          	por    %xmm1,%xmm0
    14df:	0f 49 f7             	cmovns %edi,%esi
    14e2:	bf 01 00 00 00       	mov    $0x1,%edi
    14e7:	66 0f 6f d0          	movdqa %xmm0,%xmm2
    14eb:	39 f2                	cmp    %esi,%edx
    14ed:	66 0f 73 da 04       	psrldq $0x4,%xmm2
    14f2:	0f 4c d6             	cmovl  %esi,%edx
    14f5:	66 0f 6f ca          	movdqa %xmm2,%xmm1
    14f9:	89 ce                	mov    %ecx,%esi
    14fb:	66 0f 66 c8          	pcmpgtd %xmm0,%xmm1
    14ff:	f7 de                	neg    %esi
    1501:	0f 49 ce             	cmovns %esi,%ecx
    1504:	48 8d 35 dc 1b 00 00 	lea    0x1bdc(%rip),%rsi        # 30e7 <_IO_stdin_used+0xe7>
    150b:	66 0f db d1          	pand   %xmm1,%xmm2
    150f:	39 ca                	cmp    %ecx,%edx
    1511:	66 0f df c8          	pandn  %xmm0,%xmm1
    1515:	0f 4c d1             	cmovl  %ecx,%edx
    1518:	66 0f eb ca          	por    %xmm2,%xmm1
    151c:	66 0f 7e c8          	movd   %xmm1,%eax
    1520:	39 c2                	cmp    %eax,%edx
    1522:	0f 4c d0             	cmovl  %eax,%edx
    1525:	31 c0                	xor    %eax,%eax
    1527:	e8 34 fc ff ff       	call   1160 <__printf_chk@plt>
    152c:	48 8b bd 80 fd ff ff 	mov    -0x280(%rbp),%rdi
    1533:	e8 b8 fb ff ff       	call   10f0 <free@plt>
    1538:	4c 89 e7             	mov    %r12,%rdi
    153b:	e8 b0 fb ff ff       	call   10f0 <free@plt>
    1540:	48 8b bd 88 fd ff ff 	mov    -0x278(%rbp),%rdi
    1547:	e8 d4 fb ff ff       	call   1120 <fclose@plt>
    154c:	48 8b bd 98 fd ff ff 	mov    -0x268(%rbp),%rdi
    1553:	e8 c8 fb ff ff       	call   1120 <fclose@plt>
    1558:	48 8d 84 24 00 f0 ff 	lea    -0x1000(%rsp),%rax
    155f:	ff 
    1560:	48 39 c4             	cmp    %rax,%rsp
    1563:	74 15                	je     157a <main+0x3da>
    1565:	48 81 ec 00 10 00 00 	sub    $0x1000,%rsp
    156c:	48 83 8c 24 f8 0f 00 	orq    $0x0,0xff8(%rsp)
    1573:	00 00 
    1575:	48 39 c4             	cmp    %rax,%rsp
    1578:	75 eb                	jne    1565 <main+0x3c5>
    157a:	48 89 e3             	mov    %rsp,%rbx
    157d:	48 8d 84 24 00 f0 ff 	lea    -0x1000(%rsp),%rax
    1584:	ff 
    1585:	48 39 c4             	cmp    %rax,%rsp
    1588:	74 12                	je     159c <main+0x3fc>
    158a:	48 81 ec 00 10 00 00 	sub    $0x1000,%rsp
    1591:	48 83 8c 24 f8 0f 00 	orq    $0x0,0xff8(%rsp)
    1598:	00 00 
    159a:	eb e9                	jmp    1585 <main+0x3e5>
    159c:	ba ff 03 00 00       	mov    $0x3ff,%edx
    15a1:	48 89 de             	mov    %rbx,%rsi
    15a4:	4c 89 ef             	mov    %r13,%rdi
    15a7:	49 89 e4             	mov    %rsp,%r12
    15aa:	e8 61 03 00 00       	call   1910 <riscv_dsp_convert_q31_f32>
    15af:	ba ff 03 00 00       	mov    $0x3ff,%edx
    15b4:	4c 89 e6             	mov    %r12,%rsi
    15b7:	4c 89 f7             	mov    %r14,%rdi
    15ba:	e8 51 03 00 00       	call   1910 <riscv_dsp_convert_q31_f32>
    15bf:	66 0f ef db          	pxor   %xmm3,%xmm3
    15c3:	66 0f ef ff          	pxor   %xmm7,%xmm7
    15c7:	31 c0                	xor    %eax,%eax
    15c9:	66 0f 28 ef          	movapd %xmm7,%xmm5
    15cd:	0f 28 e3             	movaps %xmm3,%xmm4
    15d0:	44 0f 28 c3          	movaps %xmm3,%xmm8
    15d4:	f3 44 0f 10 0d 73 1b 	movss  0x1b73(%rip),%xmm9        # 3150 <_IO_stdin_used+0x150>
    15db:	00 00 
    15dd:	0f 28 f3             	movaps %xmm3,%xmm6
    15e0:	f3 41 0f 10 04 04    	movss  (%r12,%rax,1),%xmm0
    15e6:	f3 0f 10 0c 03       	movss  (%rbx,%rax,1),%xmm1
    15eb:	66 0f 7e c1          	movd   %xmm0,%ecx
    15ef:	81 f9 00 00 c0 7f    	cmp    $0x7fc00000,%ecx
    15f5:	0f 84 b7 01 00 00    	je     17b2 <main+0x612>
    15fb:	0f 28 d1             	movaps %xmm1,%xmm2
    15fe:	f3 0f 5c c1          	subss  %xmm1,%xmm0
    1602:	48 83 c0 04          	add    $0x4,%rax
    1606:	f3 0f 5f d6          	maxss  %xmm6,%xmm2
    160a:	0f 28 f2             	movaps %xmm2,%xmm6
    160d:	0f 28 d1             	movaps %xmm1,%xmm2
    1610:	f3 41 0f 5d d0       	minss  %xmm8,%xmm2
    1615:	f3 0f 59 c9          	mulss  %xmm1,%xmm1
    1619:	44 0f 28 c2          	movaps %xmm2,%xmm8
    161d:	0f 28 d0             	movaps %xmm0,%xmm2
    1620:	f3 0f 59 c0          	mulss  %xmm0,%xmm0
    1624:	41 0f 54 d1          	andps  %xmm9,%xmm2
    1628:	f3 0f 58 e2          	addss  %xmm2,%xmm4
    162c:	f3 0f 5f d3          	maxss  %xmm3,%xmm2
    1630:	f3 0f 5a c9          	cvtss2sd %xmm1,%xmm1
    1634:	f2 0f 58 f9          	addsd  %xmm1,%xmm7
    1638:	0f 28 da             	movaps %xmm2,%xmm3
    163b:	f3 0f 5a c0          	cvtss2sd %xmm0,%xmm0
    163f:	f2 0f 58 e8          	addsd  %xmm0,%xmm5
    1643:	48 3d fc 0f 00 00    	cmp    $0xffc,%rax
    1649:	75 95                	jne    15e0 <main+0x440>
    164b:	66 48 0f 7e e8       	movq   %xmm5,%rax
    1650:	f3 0f 11 95 80 fd ff 	movss  %xmm2,-0x280(%rbp)
    1657:	ff 
    1658:	f3 44 0f 11 85 88 fd 	movss  %xmm8,-0x278(%rbp)
    165f:	ff ff 
    1661:	f3 0f 11 b5 90 fd ff 	movss  %xmm6,-0x270(%rbp)
    1668:	ff 
    1669:	f2 0f 11 bd 98 fd ff 	movsd  %xmm7,-0x268(%rbp)
    1670:	ff 
    1671:	3d 00 00 c0 7f       	cmp    $0x7fc00000,%eax
    1676:	0f 84 36 01 00 00    	je     17b2 <main+0x612>
    167c:	66 0f 28 c5          	movapd %xmm5,%xmm0
    1680:	f3 0f 5e 25 8c 1a 00 	divss  0x1a8c(%rip),%xmm4        # 3114 <_IO_stdin_used+0x114>
    1687:	00 
    1688:	f2 0f 11 ad 78 fd ff 	movsd  %xmm5,-0x288(%rbp)
    168f:	ff 
    1690:	66 0f 7e e3          	movd   %xmm4,%ebx
    1694:	f2 0f 5e 05 cc 1a 00 	divsd  0x1acc(%rip),%xmm0        # 3168 <_IO_stdin_used+0x168>
    169b:	00 
    169c:	e8 df fa ff ff       	call   1180 <sqrt@plt>
    16a1:	f3 0f 10 b5 90 fd ff 	movss  -0x270(%rbp),%xmm6
    16a8:	ff 
    16a9:	f3 44 0f 10 85 88 fd 	movss  -0x278(%rbp),%xmm8
    16b0:	ff ff 
    16b2:	66 0f ef c9          	pxor   %xmm1,%xmm1
    16b6:	66 0f ef e4          	pxor   %xmm4,%xmm4
    16ba:	f2 0f 10 bd 98 fd ff 	movsd  -0x268(%rbp),%xmm7
    16c1:	ff 
    16c2:	f3 0f 10 9d 80 fd ff 	movss  -0x280(%rbp),%xmm3
    16c9:	ff 
    16ca:	f3 41 0f 5c f0       	subss  %xmm8,%xmm6
    16cf:	f2 0f 5a c8          	cvtsd2ss %xmm0,%xmm1
    16d3:	0f 28 e9             	movaps %xmm1,%xmm5
    16d6:	f3 0f 5e ee          	divss  %xmm6,%xmm5
    16da:	66 41 0f 7e ec       	movd   %xmm5,%r12d
    16df:	f2 0f 10 ad 78 fd ff 	movsd  -0x288(%rbp),%xmm5
    16e6:	ff 
    16e7:	66 0f 2e ec          	ucomisd %xmm4,%xmm5
    16eb:	0f 8a c5 00 00 00    	jp     17b6 <main+0x616>
    16f1:	f3 0f 10 25 17 1a 00 	movss  0x1a17(%rip),%xmm4        # 3110 <_IO_stdin_used+0x110>
    16f8:	00 
    16f9:	0f 85 b7 00 00 00    	jne    17b6 <main+0x616>
    16ff:	48 8d 3d f4 19 00 00 	lea    0x19f4(%rip),%rdi        # 30fa <_IO_stdin_used+0xfa>
    1706:	f3 0f 11 9d 88 fd ff 	movss  %xmm3,-0x278(%rbp)
    170d:	ff 
    170e:	f3 0f 11 a5 98 fd ff 	movss  %xmm4,-0x268(%rbp)
    1715:	ff 
    1716:	f3 0f 11 8d 90 fd ff 	movss  %xmm1,-0x270(%rbp)
    171d:	ff 
    171e:	e8 dd f9 ff ff       	call   1100 <puts@plt>
    1723:	66 41 0f 6e e4       	movd   %r12d,%xmm4
    1728:	66 0f ef d2          	pxor   %xmm2,%xmm2
    172c:	f3 0f 10 9d 88 fd ff 	movss  -0x278(%rbp),%xmm3
    1733:	ff 
    1734:	f3 0f 5a d4          	cvtss2sd %xmm4,%xmm2
    1738:	f3 0f 10 8d 90 fd ff 	movss  -0x270(%rbp),%xmm1
    173f:	ff 
    1740:	66 0f 6e eb          	movd   %ebx,%xmm5
    1744:	f3 0f 10 a5 98 fd ff 	movss  -0x268(%rbp),%xmm4
    174b:	ff 
    174c:	66 0f ef c0          	pxor   %xmm0,%xmm0
    1750:	48 8d 35 f9 18 00 00 	lea    0x18f9(%rip),%rsi        # 3050 <_IO_stdin_used+0x50>
    1757:	bf 01 00 00 00       	mov    $0x1,%edi
    175c:	b8 05 00 00 00       	mov    $0x5,%eax
    1761:	f3 0f 5a c5          	cvtss2sd %xmm5,%xmm0
    1765:	f3 0f 5a e4          	cvtss2sd %xmm4,%xmm4
    1769:	f3 0f 5a db          	cvtss2sd %xmm3,%xmm3
    176d:	f3 0f 5a c9          	cvtss2sd %xmm1,%xmm1
    1771:	f2 0f 11 95 98 fd ff 	movsd  %xmm2,-0x268(%rbp)
    1778:	ff 
    1779:	e8 e2 f9 ff ff       	call   1160 <__printf_chk@plt>
    177e:	f2 0f 10 05 ea 19 00 	movsd  0x19ea(%rip),%xmm0        # 3170 <_IO_stdin_used+0x170>
    1785:	00 
    1786:	f2 0f 10 95 98 fd ff 	movsd  -0x268(%rbp),%xmm2
    178d:	ff 
    178e:	66 0f 2f c2          	comisd %xmm2,%xmm0
    1792:	19 c0                	sbb    %eax,%eax
    1794:	48 8b 55 c8          	mov    -0x38(%rbp),%rdx
    1798:	64 48 2b 14 25 28 00 	sub    %fs:0x28,%rdx
    179f:	00 00 
    17a1:	75 5a                	jne    17fd <main+0x65d>
    17a3:	48 8d 65 d8          	lea    -0x28(%rbp),%rsp
    17a7:	5b                   	pop    %rbx
    17a8:	41 5c                	pop    %r12
    17aa:	41 5d                	pop    %r13
    17ac:	41 5e                	pop    %r14
    17ae:	41 5f                	pop    %r15
    17b0:	5d                   	pop    %rbp
    17b1:	c3                   	ret    
    17b2:	31 c0                	xor    %eax,%eax
    17b4:	eb de                	jmp    1794 <main+0x5f4>
    17b6:	f2 0f 5e fd          	divsd  %xmm5,%xmm7
    17ba:	66 0f ef c0          	pxor   %xmm0,%xmm0
    17be:	f3 0f 11 9d 90 fd ff 	movss  %xmm3,-0x270(%rbp)
    17c5:	ff 
    17c6:	f3 0f 11 8d 98 fd ff 	movss  %xmm1,-0x268(%rbp)
    17cd:	ff 
    17ce:	f2 0f 5a c7          	cvtsd2ss %xmm7,%xmm0
    17d2:	e8 79 f9 ff ff       	call   1150 <log10f@plt>
    17d7:	f3 0f 10 25 39 19 00 	movss  0x1939(%rip),%xmm4        # 3118 <_IO_stdin_used+0x118>
    17de:	00 
    17df:	f3 0f 10 9d 90 fd ff 	movss  -0x270(%rbp),%xmm3
    17e6:	ff 
    17e7:	f3 0f 10 8d 98 fd ff 	movss  -0x268(%rbp),%xmm1
    17ee:	ff 
    17ef:	f3 0f 59 e0          	mulss  %xmm0,%xmm4
    17f3:	e9 07 ff ff ff       	jmp    16ff <main+0x55f>
    17f8:	83 c8 ff             	or     $0xffffffff,%eax
    17fb:	eb 97                	jmp    1794 <main+0x5f4>
    17fd:	e8 2e f9 ff ff       	call   1130 <__stack_chk_fail@plt>
    1802:	66 2e 0f 1f 84 00 00 	cs nopw 0x0(%rax,%rax,1)
    1809:	00 00 00 
    180c:	0f 1f 40 00          	nopl   0x0(%rax)

0000000000001810 <_start>:
    1810:	f3 0f 1e fa          	endbr64 
    1814:	31 ed                	xor    %ebp,%ebp
    1816:	49 89 d1             	mov    %rdx,%r9
    1819:	5e                   	pop    %rsi
    181a:	48 89 e2             	mov    %rsp,%rdx
    181d:	48 83 e4 f0          	and    $0xfffffffffffffff0,%rsp
    1821:	50                   	push   %rax
    1822:	54                   	push   %rsp
    1823:	45 31 c0             	xor    %r8d,%r8d
    1826:	31 c9                	xor    %ecx,%ecx
    1828:	48 8d 3d 71 f9 ff ff 	lea    -0x68f(%rip),%rdi        # 11a0 <main>
    182f:	ff 15 a3 37 00 00    	call   *0x37a3(%rip)        # 4fd8 <__libc_start_main@GLIBC_2.34>
    1835:	f4                   	hlt    
    1836:	66 2e 0f 1f 84 00 00 	cs nopw 0x0(%rax,%rax,1)
    183d:	00 00 00 

0000000000001840 <deregister_tm_clones>:
    1840:	48 8d 3d c9 37 00 00 	lea    0x37c9(%rip),%rdi        # 5010 <__TMC_END__>
    1847:	48 8d 05 c2 37 00 00 	lea    0x37c2(%rip),%rax        # 5010 <__TMC_END__>
    184e:	48 39 f8             	cmp    %rdi,%rax
    1851:	74 15                	je     1868 <deregister_tm_clones+0x28>
    1853:	48 8b 05 86 37 00 00 	mov    0x3786(%rip),%rax        # 4fe0 <_ITM_deregisterTMCloneTable@Base>
    185a:	48 85 c0             	test   %rax,%rax
    185d:	74 09                	je     1868 <deregister_tm_clones+0x28>
    185f:	ff e0                	jmp    *%rax
    1861:	0f 1f 80 00 00 00 00 	nopl   0x0(%rax)
    1868:	c3                   	ret    
    1869:	0f 1f 80 00 00 00 00 	nopl   0x0(%rax)

0000000000001870 <register_tm_clones>:
    1870:	48 8d 3d 99 37 00 00 	lea    0x3799(%rip),%rdi        # 5010 <__TMC_END__>
    1877:	48 8d 35 92 37 00 00 	lea    0x3792(%rip),%rsi        # 5010 <__TMC_END__>
    187e:	48 29 fe             	sub    %rdi,%rsi
    1881:	48 89 f0             	mov    %rsi,%rax
    1884:	48 c1 ee 3f          	shr    $0x3f,%rsi
    1888:	48 c1 f8 03          	sar    $0x3,%rax
    188c:	48 01 c6             	add    %rax,%rsi
    188f:	48 d1 fe             	sar    %rsi
    1892:	74 14                	je     18a8 <register_tm_clones+0x38>
    1894:	48 8b 05 55 37 00 00 	mov    0x3755(%rip),%rax        # 4ff0 <_ITM_registerTMCloneTable@Base>
    189b:	48 85 c0             	test   %rax,%rax
    189e:	74 08                	je     18a8 <register_tm_clones+0x38>
    18a0:	ff e0                	jmp    *%rax
    18a2:	66 0f 1f 44 00 00    	nopw   0x0(%rax,%rax,1)
    18a8:	c3                   	ret    
    18a9:	0f 1f 80 00 00 00 00 	nopl   0x0(%rax)

00000000000018b0 <__do_global_dtors_aux>:
    18b0:	f3 0f 1e fa          	endbr64 
    18b4:	80 3d 55 37 00 00 00 	cmpb   $0x0,0x3755(%rip)        # 5010 <__TMC_END__>
    18bb:	75 2b                	jne    18e8 <__do_global_dtors_aux+0x38>
    18bd:	55                   	push   %rbp
    18be:	48 83 3d 32 37 00 00 	cmpq   $0x0,0x3732(%rip)        # 4ff8 <__cxa_finalize@GLIBC_2.2.5>
    18c5:	00 
    18c6:	48 89 e5             	mov    %rsp,%rbp
    18c9:	74 0c                	je     18d7 <__do_global_dtors_aux+0x27>
    18cb:	48 8b 3d 36 37 00 00 	mov    0x3736(%rip),%rdi        # 5008 <__dso_handle>
    18d2:	e8 09 f8 ff ff       	call   10e0 <__cxa_finalize@plt>
    18d7:	e8 64 ff ff ff       	call   1840 <deregister_tm_clones>
    18dc:	c6 05 2d 37 00 00 01 	movb   $0x1,0x372d(%rip)        # 5010 <__TMC_END__>
    18e3:	5d                   	pop    %rbp
    18e4:	c3                   	ret    
    18e5:	0f 1f 00             	nopl   (%rax)
    18e8:	c3                   	ret    
    18e9:	0f 1f 80 00 00 00 00 	nopl   0x0(%rax)

00000000000018f0 <frame_dummy>:
    18f0:	f3 0f 1e fa          	endbr64 
    18f4:	e9 77 ff ff ff       	jmp    1870 <register_tm_clones>
    18f9:	0f 1f 80 00 00 00 00 	nopl   0x0(%rax)

0000000000001900 <test_Fread.constprop.0.isra.0>:
    1900:	48 89 d1             	mov    %rdx,%rcx
    1903:	89 f2                	mov    %esi,%edx
    1905:	be 04 00 00 00       	mov    $0x4,%esi
    190a:	e9 01 f8 ff ff       	jmp    1110 <fread@plt>
    190f:	90                   	nop

0000000000001910 <riscv_dsp_convert_q31_f32>:
    1910:	f3 0f 1e fa          	endbr64 
    1914:	48 89 f1             	mov    %rsi,%rcx
    1917:	85 d2                	test   %edx,%edx
    1919:	0f 84 97 00 00 00    	je     19b6 <riscv_dsp_convert_q31_f32+0xa6>
    191f:	8d 42 ff             	lea    -0x1(%rdx),%eax
    1922:	83 f8 02             	cmp    $0x2,%eax
    1925:	0f 86 96 00 00 00    	jbe    19c1 <riscv_dsp_convert_q31_f32+0xb1>
    192b:	89 d6                	mov    %edx,%esi
    192d:	0f 28 0d 4c 18 00 00 	movaps 0x184c(%rip),%xmm1        # 3180 <_IO_stdin_used+0x180>
    1934:	31 c0                	xor    %eax,%eax
    1936:	c1 ee 02             	shr    $0x2,%esi
    1939:	48 c1 e6 04          	shl    $0x4,%rsi
    193d:	0f 1f 00             	nopl   (%rax)
    1940:	f3 0f 6f 14 07       	movdqu (%rdi,%rax,1),%xmm2
    1945:	0f 5b c2             	cvtdq2ps %xmm2,%xmm0
    1948:	0f 59 c1             	mulps  %xmm1,%xmm0
    194b:	0f 11 04 01          	movups %xmm0,(%rcx,%rax,1)
    194f:	48 83 c0 10          	add    $0x10,%rax
    1953:	48 39 f0             	cmp    %rsi,%rax
    1956:	75 e8                	jne    1940 <riscv_dsp_convert_q31_f32+0x30>
    1958:	89 d6                	mov    %edx,%esi
    195a:	83 e6 fc             	and    $0xfffffffc,%esi
    195d:	89 f0                	mov    %esi,%eax
    195f:	48 c1 e0 02          	shl    $0x2,%rax
    1963:	4c 8d 04 07          	lea    (%rdi,%rax,1),%r8
    1967:	48 01 c8             	add    %rcx,%rax
    196a:	39 f2                	cmp    %esi,%edx
    196c:	74 52                	je     19c0 <riscv_dsp_convert_q31_f32+0xb0>
    196e:	29 f2                	sub    %esi,%edx
    1970:	83 fa 01             	cmp    $0x1,%edx
    1973:	74 2c                	je     19a1 <riscv_dsp_convert_q31_f32+0x91>
    1975:	f3 0f 7e 0d 03 18 00 	movq   0x1803(%rip),%xmm1        # 3180 <_IO_stdin_used+0x180>
    197c:	00 
    197d:	f3 0f 7e 04 b7       	movq   (%rdi,%rsi,4),%xmm0
    1982:	0f 5b c0             	cvtdq2ps %xmm0,%xmm0
    1985:	0f 59 c1             	mulps  %xmm1,%xmm0
    1988:	0f 13 04 b1          	movlps %xmm0,(%rcx,%rsi,4)
    198c:	89 d6                	mov    %edx,%esi
    198e:	83 e6 fe             	and    $0xfffffffe,%esi
    1991:	89 f1                	mov    %esi,%ecx
    1993:	48 c1 e1 02          	shl    $0x2,%rcx
    1997:	49 01 c8             	add    %rcx,%r8
    199a:	48 01 c8             	add    %rcx,%rax
    199d:	39 f2                	cmp    %esi,%edx
    199f:	74 15                	je     19b6 <riscv_dsp_convert_q31_f32+0xa6>
    19a1:	66 0f ef c0          	pxor   %xmm0,%xmm0
    19a5:	f3 41 0f 2a 00       	cvtsi2ssl (%r8),%xmm0
    19aa:	f3 0f 59 05 ce 17 00 	mulss  0x17ce(%rip),%xmm0        # 3180 <_IO_stdin_used+0x180>
    19b1:	00 
    19b2:	f3 0f 11 00          	movss  %xmm0,(%rax)
    19b6:	c3                   	ret    
    19b7:	66 0f 1f 84 00 00 00 	nopw   0x0(%rax,%rax,1)
    19be:	00 00 
    19c0:	c3                   	ret    
    19c1:	48 89 f0             	mov    %rsi,%rax
    19c4:	49 89 f8             	mov    %rdi,%r8
    19c7:	31 f6                	xor    %esi,%esi
    19c9:	eb a3                	jmp    196e <riscv_dsp_convert_q31_f32+0x5e>
    19cb:	0f 1f 44 00 00       	nopl   0x0(%rax,%rax,1)

00000000000019d0 <riscv_dsp_fir_fast_q31>:
    19d0:	f3 0f 1e fa          	endbr64 
    19d4:	41 57                	push   %r15
    19d6:	41 56                	push   %r14
    19d8:	41 55                	push   %r13
    19da:	41 54                	push   %r12
    19dc:	55                   	push   %rbp
    19dd:	53                   	push   %rbx
    19de:	48 83 ec 70          	sub    $0x70,%rsp
    19e2:	8b 07                	mov    (%rdi),%eax
    19e4:	4c 8b 7f 08          	mov    0x8(%rdi),%r15
    19e8:	4c 8b 77 10          	mov    0x10(%rdi),%r14
    19ec:	48 89 74 24 e8       	mov    %rsi,-0x18(%rsp)
    19f1:	89 44 24 50          	mov    %eax,0x50(%rsp)
    19f5:	89 c7                	mov    %eax,%edi
    19f7:	83 e8 01             	sub    $0x1,%eax
    19fa:	4d 8d 0c 87          	lea    (%r15,%rax,4),%r9
    19fe:	89 44 24 3c          	mov    %eax,0x3c(%rsp)
    1a02:	48 89 44 24 58       	mov    %rax,0x58(%rsp)
    1a07:	89 c8                	mov    %ecx,%eax
    1a09:	c1 e8 03             	shr    $0x3,%eax
    1a0c:	48 89 54 24 48       	mov    %rdx,0x48(%rsp)
    1a11:	89 4c 24 54          	mov    %ecx,0x54(%rsp)
    1a15:	4c 89 7c 24 30       	mov    %r15,0x30(%rsp)
    1a1a:	4c 89 74 24 10       	mov    %r14,0x10(%rsp)
    1a1f:	4c 89 4c 24 40       	mov    %r9,0x40(%rsp)
    1a24:	0f 84 8c 0c 00 00    	je     26b6 <riscv_dsp_fir_fast_q31+0xce6>
    1a2a:	89 fb                	mov    %edi,%ebx
    1a2c:	89 c0                	mov    %eax,%eax
    1a2e:	83 e7 07             	and    $0x7,%edi
    1a31:	4c 89 4c 24 f0       	mov    %r9,-0x10(%rsp)
    1a36:	48 c1 e0 05          	shl    $0x5,%rax
    1a3a:	c1 eb 03             	shr    $0x3,%ebx
    1a3d:	49 8d 4f 1c          	lea    0x1c(%r15),%rcx
    1a41:	89 7c 24 38          	mov    %edi,0x38(%rsp)
    1a45:	48 01 c6             	add    %rax,%rsi
    1a48:	48 89 44 24 60       	mov    %rax,0x60(%rsp)
    1a4d:	8d 43 ff             	lea    -0x1(%rbx),%eax
    1a50:	48 83 c0 01          	add    $0x1,%rax
    1a54:	89 5c 24 1c          	mov    %ebx,0x1c(%rsp)
    1a58:	48 c1 e0 05          	shl    $0x5,%rax
    1a5c:	48 89 4c 24 f8       	mov    %rcx,-0x8(%rsp)
    1a61:	49 01 c6             	add    %rax,%r14
    1a64:	48 89 44 24 28       	mov    %rax,0x28(%rsp)
    1a69:	8d 47 ff             	lea    -0x1(%rdi),%eax
    1a6c:	48 8d 04 85 04 00 00 	lea    0x4(,%rax,4),%rax
    1a73:	00 
    1a74:	48 89 74 24 08       	mov    %rsi,0x8(%rsp)
    1a79:	4c 89 74 24 e0       	mov    %r14,-0x20(%rsp)
    1a7e:	48 89 44 24 20       	mov    %rax,0x20(%rsp)
    1a83:	48 89 14 24          	mov    %rdx,(%rsp)
    1a87:	66 0f 1f 84 00 00 00 	nopw   0x0(%rax,%rax,1)
    1a8e:	00 00 
    1a90:	48 8b 44 24 e8       	mov    -0x18(%rsp),%rax
    1a95:	48 83 44 24 f0 20    	addq   $0x20,-0x10(%rsp)
    1a9b:	f3 0f 6f 08          	movdqu (%rax),%xmm1
    1a9f:	f3 0f 6f 40 10       	movdqu 0x10(%rax),%xmm0
    1aa4:	48 83 c0 20          	add    $0x20,%rax
    1aa8:	48 89 44 24 e8       	mov    %rax,-0x18(%rsp)
    1aad:	48 8b 44 24 f0       	mov    -0x10(%rsp),%rax
    1ab2:	0f 11 40 f0          	movups %xmm0,-0x10(%rax)
    1ab6:	0f 11 48 e0          	movups %xmm1,-0x20(%rax)
    1aba:	48 8b 44 24 f8       	mov    -0x8(%rsp),%rax
    1abf:	8b 78 f4             	mov    -0xc(%rax),%edi
    1ac2:	48 63 70 e4          	movslq -0x1c(%rax),%rsi
    1ac6:	48 89 44 24 90       	mov    %rax,-0x70(%rsp)
    1acb:	8b 48 e8             	mov    -0x18(%rax),%ecx
    1ace:	8b 50 ec             	mov    -0x14(%rax),%edx
    1ad1:	44 8b 40 f0          	mov    -0x10(%rax),%r8d
    1ad5:	44 8b 78 f8          	mov    -0x8(%rax),%r15d
    1ad9:	89 7c 24 c4          	mov    %edi,-0x3c(%rsp)
    1add:	8b 7c 24 1c          	mov    0x1c(%rsp),%edi
    1ae1:	44 8b 50 fc          	mov    -0x4(%rax),%r10d
    1ae5:	89 74 24 d0          	mov    %esi,-0x30(%rsp)
    1ae9:	89 4c 24 cc          	mov    %ecx,-0x34(%rsp)
    1aed:	89 54 24 c8          	mov    %edx,-0x38(%rsp)
    1af1:	44 89 44 24 d4       	mov    %r8d,-0x2c(%rsp)
    1af6:	85 ff                	test   %edi,%edi
    1af8:	0f 84 5a 0b 00 00    	je     2658 <riscv_dsp_fir_fast_q31+0xc88>
    1afe:	48 89 74 24 b8       	mov    %rsi,-0x48(%rsp)
    1b03:	48 63 f1             	movslq %ecx,%rsi
    1b06:	48 63 ca             	movslq %edx,%rcx
    1b09:	48 63 44 24 c4       	movslq -0x3c(%rsp),%rax
    1b0e:	49 63 d7             	movslq %r15d,%rdx
    1b11:	48 89 4c 24 a0       	mov    %rcx,-0x60(%rsp)
    1b16:	49 63 c8             	movslq %r8d,%rcx
    1b19:	48 8b 7c 24 10       	mov    0x10(%rsp),%rdi
    1b1e:	c7 44 24 c0 00 00 00 	movl   $0x0,-0x40(%rsp)
    1b25:	00 
    1b26:	45 31 e4             	xor    %r12d,%r12d
    1b29:	45 31 ed             	xor    %r13d,%r13d
    1b2c:	31 db                	xor    %ebx,%ebx
    1b2e:	48 89 4c 24 a8       	mov    %rcx,-0x58(%rsp)
    1b33:	45 31 f6             	xor    %r14d,%r14d
    1b36:	45 31 db             	xor    %r11d,%r11d
    1b39:	31 ed                	xor    %ebp,%ebp
    1b3b:	48 89 54 24 b0       	mov    %rdx,-0x50(%rsp)
    1b40:	45 31 c9             	xor    %r9d,%r9d
    1b43:	49 89 ff             	mov    %rdi,%r15
    1b46:	48 89 44 24 98       	mov    %rax,-0x68(%rsp)
    1b4b:	49 63 c2             	movslq %r10d,%rax
    1b4e:	44 89 6c 24 d8       	mov    %r13d,-0x28(%rsp)
    1b53:	49 89 f5             	mov    %rsi,%r13
    1b56:	44 89 64 24 dc       	mov    %r12d,-0x24(%rsp)
    1b5b:	49 89 c4             	mov    %rax,%r12
    1b5e:	66 90                	xchg   %ax,%ax
    1b60:	49 63 07             	movslq (%r15),%rax
    1b63:	48 8b 4c 24 b8       	mov    -0x48(%rsp),%rcx
    1b68:	48 0f af c8          	imul   %rax,%rcx
    1b6c:	48 89 c6             	mov    %rax,%rsi
    1b6f:	48 89 ca             	mov    %rcx,%rdx
    1b72:	48 c1 fa 20          	sar    $0x20,%rdx
    1b76:	81 f9 00 00 00 80    	cmp    $0x80000000,%ecx
    1b7c:	83 da ff             	sbb    $0xffffffff,%edx
    1b7f:	49 0f af f5          	imul   %r13,%rsi
    1b83:	44 01 ca             	add    %r9d,%edx
    1b86:	48 89 f1             	mov    %rsi,%rcx
    1b89:	48 c1 f9 20          	sar    $0x20,%rcx
    1b8d:	81 fe 00 00 00 80    	cmp    $0x80000000,%esi
    1b93:	48 8b 74 24 a0       	mov    -0x60(%rsp),%rsi
    1b98:	83 d9 ff             	sbb    $0xffffffff,%ecx
    1b9b:	48 0f af f0          	imul   %rax,%rsi
    1b9f:	01 cd                	add    %ecx,%ebp
    1ba1:	48 89 f1             	mov    %rsi,%rcx
    1ba4:	48 c1 f9 20          	sar    $0x20,%rcx
    1ba8:	81 fe 00 00 00 80    	cmp    $0x80000000,%esi
    1bae:	83 d9 ff             	sbb    $0xffffffff,%ecx
    1bb1:	01 cb                	add    %ecx,%ebx
    1bb3:	48 8b 4c 24 a8       	mov    -0x58(%rsp),%rcx
    1bb8:	48 0f af c8          	imul   %rax,%rcx
    1bbc:	49 89 c9             	mov    %rcx,%r9
    1bbf:	49 c1 f9 20          	sar    $0x20,%r9
    1bc3:	81 f9 00 00 00 80    	cmp    $0x80000000,%ecx
    1bc9:	48 8b 4c 24 98       	mov    -0x68(%rsp),%rcx
    1bce:	41 83 d9 ff          	sbb    $0xffffffff,%r9d
    1bd2:	48 0f af c8          	imul   %rax,%rcx
    1bd6:	45 01 d9             	add    %r11d,%r9d
    1bd9:	4c 8b 5c 24 90       	mov    -0x70(%rsp),%r11
    1bde:	49 89 c8             	mov    %rcx,%r8
    1be1:	49 c1 f8 20          	sar    $0x20,%r8
    1be5:	81 f9 00 00 00 80    	cmp    $0x80000000,%ecx
    1beb:	48 8b 4c 24 b0       	mov    -0x50(%rsp),%rcx
    1bf0:	41 83 d8 ff          	sbb    $0xffffffff,%r8d
    1bf4:	44 03 44 24 d8       	add    -0x28(%rsp),%r8d
    1bf9:	48 0f af c8          	imul   %rax,%rcx
    1bfd:	48 89 cf             	mov    %rcx,%rdi
    1c00:	48 c1 ff 20          	sar    $0x20,%rdi
    1c04:	81 f9 00 00 00 80    	cmp    $0x80000000,%ecx
    1c0a:	83 df ff             	sbb    $0xffffffff,%edi
    1c0d:	44 01 f7             	add    %r14d,%edi
    1c10:	49 89 c6             	mov    %rax,%r14
    1c13:	4d 0f af f4          	imul   %r12,%r14
    1c17:	4c 89 f1             	mov    %r14,%rcx
    1c1a:	49 c1 fe 20          	sar    $0x20,%r14
    1c1e:	4c 89 f6             	mov    %r14,%rsi
    1c21:	4d 63 33             	movslq (%r11),%r14
    1c24:	81 f9 00 00 00 80    	cmp    $0x80000000,%ecx
    1c2a:	83 de ff             	sbb    $0xffffffff,%esi
    1c2d:	03 74 24 dc          	add    -0x24(%rsp),%esi
    1c31:	49 0f af c6          	imul   %r14,%rax
    1c35:	49 89 c2             	mov    %rax,%r10
    1c38:	49 c1 fa 20          	sar    $0x20,%r10
    1c3c:	3d 00 00 00 80       	cmp    $0x80000000,%eax
    1c41:	41 8b 43 04          	mov    0x4(%r11),%eax
    1c45:	4c 89 d1             	mov    %r10,%rcx
    1c48:	89 44 24 d0          	mov    %eax,-0x30(%rsp)
    1c4c:	49 63 47 04          	movslq 0x4(%r15),%rax
    1c50:	83 d9 ff             	sbb    $0xffffffff,%ecx
    1c53:	03 4c 24 c0          	add    -0x40(%rsp),%ecx
    1c57:	4c 0f af e8          	imul   %rax,%r13
    1c5b:	4d 89 ea             	mov    %r13,%r10
    1c5e:	49 c1 fa 20          	sar    $0x20,%r10
    1c62:	41 81 fd 00 00 00 80 	cmp    $0x80000000,%r13d
    1c69:	4c 8b 6c 24 a0       	mov    -0x60(%rsp),%r13
    1c6e:	41 83 da ff          	sbb    $0xffffffff,%r10d
    1c72:	4c 0f af e8          	imul   %rax,%r13
    1c76:	44 01 d2             	add    %r10d,%edx
    1c79:	4d 89 ea             	mov    %r13,%r10
    1c7c:	49 c1 fa 20          	sar    $0x20,%r10
    1c80:	41 81 fd 00 00 00 80 	cmp    $0x80000000,%r13d
    1c87:	4c 8b 6c 24 a8       	mov    -0x58(%rsp),%r13
    1c8c:	41 83 da ff          	sbb    $0xffffffff,%r10d
    1c90:	4c 0f af e8          	imul   %rax,%r13
    1c94:	44 01 d5             	add    %r10d,%ebp
    1c97:	4d 89 ea             	mov    %r13,%r10
    1c9a:	49 c1 fa 20          	sar    $0x20,%r10
    1c9e:	41 81 fd 00 00 00 80 	cmp    $0x80000000,%r13d
    1ca5:	41 83 da ff          	sbb    $0xffffffff,%r10d
    1ca9:	44 01 d3             	add    %r10d,%ebx
    1cac:	4c 8b 54 24 98       	mov    -0x68(%rsp),%r10
    1cb1:	4c 0f af d0          	imul   %rax,%r10
    1cb5:	4d 89 d5             	mov    %r10,%r13
    1cb8:	49 c1 fd 20          	sar    $0x20,%r13
    1cbc:	41 81 fa 00 00 00 80 	cmp    $0x80000000,%r10d
    1cc3:	4c 8b 54 24 b0       	mov    -0x50(%rsp),%r10
    1cc8:	41 83 dd ff          	sbb    $0xffffffff,%r13d
    1ccc:	4c 0f af d0          	imul   %rax,%r10
    1cd0:	45 01 cd             	add    %r9d,%r13d
    1cd3:	4d 89 d1             	mov    %r10,%r9
    1cd6:	49 c1 f9 20          	sar    $0x20,%r9
    1cda:	41 81 fa 00 00 00 80 	cmp    $0x80000000,%r10d
    1ce1:	41 83 d9 ff          	sbb    $0xffffffff,%r9d
    1ce5:	45 01 c1             	add    %r8d,%r9d
    1ce8:	49 89 c0             	mov    %rax,%r8
    1ceb:	4d 0f af c4          	imul   %r12,%r8
    1cef:	4d 89 c2             	mov    %r8,%r10
    1cf2:	49 c1 fa 20          	sar    $0x20,%r10
    1cf6:	41 81 f8 00 00 00 80 	cmp    $0x80000000,%r8d
    1cfd:	45 89 d0             	mov    %r10d,%r8d
    1d00:	41 83 d8 ff          	sbb    $0xffffffff,%r8d
    1d04:	41 01 f8             	add    %edi,%r8d
    1d07:	48 89 c7             	mov    %rax,%rdi
    1d0a:	49 0f af fe          	imul   %r14,%rdi
    1d0e:	44 89 44 24 c0       	mov    %r8d,-0x40(%rsp)
    1d13:	49 89 f8             	mov    %rdi,%r8
    1d16:	49 c1 f8 20          	sar    $0x20,%r8
    1d1a:	81 ff 00 00 00 80    	cmp    $0x80000000,%edi
    1d20:	48 63 7c 24 d0       	movslq -0x30(%rsp),%rdi
    1d25:	4d 89 c2             	mov    %r8,%r10
    1d28:	41 83 da ff          	sbb    $0xffffffff,%r10d
    1d2c:	48 0f af c7          	imul   %rdi,%rax
    1d30:	48 89 7c 24 b8       	mov    %rdi,-0x48(%rsp)
    1d35:	41 01 f2             	add    %esi,%r10d
    1d38:	48 8b 74 24 a0       	mov    -0x60(%rsp),%rsi
    1d3d:	49 89 c0             	mov    %rax,%r8
    1d40:	49 c1 f8 20          	sar    $0x20,%r8
    1d44:	3d 00 00 00 80       	cmp    $0x80000000,%eax
    1d49:	48 8b 44 24 90       	mov    -0x70(%rsp),%rax
    1d4e:	4d 89 c3             	mov    %r8,%r11
    1d51:	44 8b 40 08          	mov    0x8(%rax),%r8d
    1d55:	49 63 47 08          	movslq 0x8(%r15),%rax
    1d59:	41 83 db ff          	sbb    $0xffffffff,%r11d
    1d5d:	41 01 cb             	add    %ecx,%r11d
    1d60:	48 0f af f0          	imul   %rax,%rsi
    1d64:	44 89 44 24 cc       	mov    %r8d,-0x34(%rsp)
    1d69:	48 89 f1             	mov    %rsi,%rcx
    1d6c:	48 c1 fe 20          	sar    $0x20,%rsi
    1d70:	49 89 f0             	mov    %rsi,%r8
    1d73:	81 f9 00 00 00 80    	cmp    $0x80000000,%ecx
    1d79:	41 83 d8 ff          	sbb    $0xffffffff,%r8d
    1d7d:	41 01 d0             	add    %edx,%r8d
    1d80:	48 8b 54 24 a8       	mov    -0x58(%rsp),%rdx
    1d85:	48 0f af d0          	imul   %rax,%rdx
    1d89:	48 89 d6             	mov    %rdx,%rsi
    1d8c:	48 c1 fe 20          	sar    $0x20,%rsi
    1d90:	81 fa 00 00 00 80    	cmp    $0x80000000,%edx
    1d96:	48 8b 54 24 98       	mov    -0x68(%rsp),%rdx
    1d9b:	48 89 f7             	mov    %rsi,%rdi
    1d9e:	83 df ff             	sbb    $0xffffffff,%edi
    1da1:	48 0f af d0          	imul   %rax,%rdx
    1da5:	01 ef                	add    %ebp,%edi
    1da7:	48 89 d6             	mov    %rdx,%rsi
    1daa:	48 c1 fe 20          	sar    $0x20,%rsi
    1dae:	81 fa 00 00 00 80    	cmp    $0x80000000,%edx
    1db4:	48 8b 54 24 b0       	mov    -0x50(%rsp),%rdx
    1db9:	83 de ff             	sbb    $0xffffffff,%esi
    1dbc:	48 0f af d0          	imul   %rax,%rdx
    1dc0:	01 de                	add    %ebx,%esi
    1dc2:	48 89 c3             	mov    %rax,%rbx
    1dc5:	48 89 d1             	mov    %rdx,%rcx
    1dc8:	48 c1 f9 20          	sar    $0x20,%rcx
    1dcc:	81 fa 00 00 00 80    	cmp    $0x80000000,%edx
    1dd2:	83 d9 ff             	sbb    $0xffffffff,%ecx
    1dd5:	49 0f af dc          	imul   %r12,%rbx
    1dd9:	44 01 e9             	add    %r13d,%ecx
    1ddc:	4c 63 6c 24 cc       	movslq -0x34(%rsp),%r13
    1de1:	48 89 dd             	mov    %rbx,%rbp
    1de4:	48 c1 fd 20          	sar    $0x20,%rbp
    1de8:	81 fb 00 00 00 80    	cmp    $0x80000000,%ebx
    1dee:	48 89 c3             	mov    %rax,%rbx
    1df1:	48 89 ea             	mov    %rbp,%rdx
    1df4:	48 8b 6c 24 b8       	mov    -0x48(%rsp),%rbp
    1df9:	83 da ff             	sbb    $0xffffffff,%edx
    1dfc:	49 0f af de          	imul   %r14,%rbx
    1e00:	44 01 ca             	add    %r9d,%edx
    1e03:	49 89 d9             	mov    %rbx,%r9
    1e06:	49 c1 f9 20          	sar    $0x20,%r9
    1e0a:	81 fb 00 00 00 80    	cmp    $0x80000000,%ebx
    1e10:	41 83 d9 ff          	sbb    $0xffffffff,%r9d
    1e14:	48 0f af e8          	imul   %rax,%rbp
    1e18:	44 03 4c 24 c0       	add    -0x40(%rsp),%r9d
    1e1d:	48 89 eb             	mov    %rbp,%rbx
    1e20:	48 c1 fb 20          	sar    $0x20,%rbx
    1e24:	81 fd 00 00 00 80    	cmp    $0x80000000,%ebp
    1e2a:	83 db ff             	sbb    $0xffffffff,%ebx
    1e2d:	49 0f af c5          	imul   %r13,%rax
    1e31:	44 01 d3             	add    %r10d,%ebx
    1e34:	49 89 c2             	mov    %rax,%r10
    1e37:	49 c1 fa 20          	sar    $0x20,%r10
    1e3b:	3d 00 00 00 80       	cmp    $0x80000000,%eax
    1e40:	48 8b 44 24 90       	mov    -0x70(%rsp),%rax
    1e45:	41 83 da ff          	sbb    $0xffffffff,%r10d
    1e49:	45 01 da             	add    %r11d,%r10d
    1e4c:	44 8b 58 0c          	mov    0xc(%rax),%r11d
    1e50:	49 63 47 0c          	movslq 0xc(%r15),%rax
    1e54:	44 89 5c 24 c8       	mov    %r11d,-0x38(%rsp)
    1e59:	4c 8b 5c 24 a8       	mov    -0x58(%rsp),%r11
    1e5e:	4c 0f af d8          	imul   %rax,%r11
    1e62:	4c 89 dd             	mov    %r11,%rbp
    1e65:	49 c1 fb 20          	sar    $0x20,%r11
    1e69:	81 fd 00 00 00 80    	cmp    $0x80000000,%ebp
    1e6f:	41 83 db ff          	sbb    $0xffffffff,%r11d
    1e73:	45 01 c3             	add    %r8d,%r11d
    1e76:	4c 8b 44 24 98       	mov    -0x68(%rsp),%r8
    1e7b:	4c 0f af c0          	imul   %rax,%r8
    1e7f:	4c 89 c5             	mov    %r8,%rbp
    1e82:	49 c1 f8 20          	sar    $0x20,%r8
    1e86:	81 fd 00 00 00 80    	cmp    $0x80000000,%ebp
    1e8c:	48 8b 6c 24 b0       	mov    -0x50(%rsp),%rbp
    1e91:	41 83 d8 ff          	sbb    $0xffffffff,%r8d
    1e95:	48 0f af e8          	imul   %rax,%rbp
    1e99:	41 01 f8             	add    %edi,%r8d
    1e9c:	48 89 ef             	mov    %rbp,%rdi
    1e9f:	48 c1 ff 20          	sar    $0x20,%rdi
    1ea3:	81 fd 00 00 00 80    	cmp    $0x80000000,%ebp
    1ea9:	83 df ff             	sbb    $0xffffffff,%edi
    1eac:	01 f7                	add    %esi,%edi
    1eae:	48 89 c6             	mov    %rax,%rsi
    1eb1:	49 0f af f4          	imul   %r12,%rsi
    1eb5:	48 89 f5             	mov    %rsi,%rbp
    1eb8:	48 c1 fe 20          	sar    $0x20,%rsi
    1ebc:	81 fd 00 00 00 80    	cmp    $0x80000000,%ebp
    1ec2:	83 de ff             	sbb    $0xffffffff,%esi
    1ec5:	01 ce                	add    %ecx,%esi
    1ec7:	48 89 c1             	mov    %rax,%rcx
    1eca:	49 0f af ce          	imul   %r14,%rcx
    1ece:	48 89 cd             	mov    %rcx,%rbp
    1ed1:	48 c1 f9 20          	sar    $0x20,%rcx
    1ed5:	81 fd 00 00 00 80    	cmp    $0x80000000,%ebp
    1edb:	48 8b 6c 24 b8       	mov    -0x48(%rsp),%rbp
    1ee0:	83 d9 ff             	sbb    $0xffffffff,%ecx
    1ee3:	48 0f af e8          	imul   %rax,%rbp
    1ee7:	01 d1                	add    %edx,%ecx
    1ee9:	48 89 ea             	mov    %rbp,%rdx
    1eec:	48 c1 fa 20          	sar    $0x20,%rdx
    1ef0:	81 fd 00 00 00 80    	cmp    $0x80000000,%ebp
    1ef6:	83 da ff             	sbb    $0xffffffff,%edx
    1ef9:	44 01 ca             	add    %r9d,%edx
    1efc:	49 89 c1             	mov    %rax,%r9
    1eff:	4d 0f af cd          	imul   %r13,%r9
    1f03:	4c 89 cd             	mov    %r9,%rbp
    1f06:	49 c1 f9 20          	sar    $0x20,%r9
    1f0a:	81 fd 00 00 00 80    	cmp    $0x80000000,%ebp
    1f10:	41 83 d9 ff          	sbb    $0xffffffff,%r9d
    1f14:	41 01 d9             	add    %ebx,%r9d
    1f17:	48 63 5c 24 c8       	movslq -0x38(%rsp),%rbx
    1f1c:	48 0f af c3          	imul   %rbx,%rax
    1f20:	48 89 5c 24 a0       	mov    %rbx,-0x60(%rsp)
    1f25:	48 89 c3             	mov    %rax,%rbx
    1f28:	48 c1 fb 20          	sar    $0x20,%rbx
    1f2c:	3d 00 00 00 80       	cmp    $0x80000000,%eax
    1f31:	48 8b 44 24 90       	mov    -0x70(%rsp),%rax
    1f36:	83 db ff             	sbb    $0xffffffff,%ebx
    1f39:	44 01 d3             	add    %r10d,%ebx
    1f3c:	44 8b 50 10          	mov    0x10(%rax),%r10d
    1f40:	49 63 47 10          	movslq 0x10(%r15),%rax
    1f44:	44 89 54 24 d4       	mov    %r10d,-0x2c(%rsp)
    1f49:	4c 8b 54 24 98       	mov    -0x68(%rsp),%r10
    1f4e:	4c 0f af d0          	imul   %rax,%r10
    1f52:	4c 89 d5             	mov    %r10,%rbp
    1f55:	49 c1 fa 20          	sar    $0x20,%r10
    1f59:	81 fd 00 00 00 80    	cmp    $0x80000000,%ebp
    1f5f:	41 83 da ff          	sbb    $0xffffffff,%r10d
    1f63:	45 01 da             	add    %r11d,%r10d
    1f66:	4c 8b 5c 24 b0       	mov    -0x50(%rsp),%r11
    1f6b:	4c 0f af d8          	imul   %rax,%r11
    1f6f:	4c 89 dd             	mov    %r11,%rbp
    1f72:	49 c1 fb 20          	sar    $0x20,%r11
    1f76:	81 fd 00 00 00 80    	cmp    $0x80000000,%ebp
    1f7c:	41 83 db ff          	sbb    $0xffffffff,%r11d
    1f80:	45 01 c3             	add    %r8d,%r11d
    1f83:	49 89 c0             	mov    %rax,%r8
    1f86:	4d 0f af c4          	imul   %r12,%r8
    1f8a:	4c 89 c5             	mov    %r8,%rbp
    1f8d:	49 c1 f8 20          	sar    $0x20,%r8
    1f91:	81 fd 00 00 00 80    	cmp    $0x80000000,%ebp
    1f97:	41 83 d8 ff          	sbb    $0xffffffff,%r8d
    1f9b:	41 01 f8             	add    %edi,%r8d
    1f9e:	48 89 c7             	mov    %rax,%rdi
    1fa1:	49 0f af fe          	imul   %r14,%rdi
    1fa5:	48 89 fd             	mov    %rdi,%rbp
    1fa8:	48 c1 ff 20          	sar    $0x20,%rdi
    1fac:	81 fd 00 00 00 80    	cmp    $0x80000000,%ebp
    1fb2:	48 8b 6c 24 b8       	mov    -0x48(%rsp),%rbp
    1fb7:	83 df ff             	sbb    $0xffffffff,%edi
    1fba:	48 0f af e8          	imul   %rax,%rbp
    1fbe:	01 f7                	add    %esi,%edi
    1fc0:	48 89 ee             	mov    %rbp,%rsi
    1fc3:	48 c1 fe 20          	sar    $0x20,%rsi
    1fc7:	81 fd 00 00 00 80    	cmp    $0x80000000,%ebp
    1fcd:	83 de ff             	sbb    $0xffffffff,%esi
    1fd0:	01 ce                	add    %ecx,%esi
    1fd2:	48 89 c1             	mov    %rax,%rcx
    1fd5:	49 0f af cd          	imul   %r13,%rcx
    1fd9:	48 89 cd             	mov    %rcx,%rbp
    1fdc:	48 c1 f9 20          	sar    $0x20,%rcx
    1fe0:	81 fd 00 00 00 80    	cmp    $0x80000000,%ebp
    1fe6:	83 d9 ff             	sbb    $0xffffffff,%ecx
    1fe9:	01 d1                	add    %edx,%ecx
    1feb:	48 8b 54 24 a0       	mov    -0x60(%rsp),%rdx
    1ff0:	48 0f af d0          	imul   %rax,%rdx
    1ff4:	48 89 d5             	mov    %rdx,%rbp
    1ff7:	48 c1 fa 20          	sar    $0x20,%rdx
    1ffb:	81 fd 00 00 00 80    	cmp    $0x80000000,%ebp
    2001:	83 da ff             	sbb    $0xffffffff,%edx
    2004:	44 01 ca             	add    %r9d,%edx
    2007:	4c 63 4c 24 d4       	movslq -0x2c(%rsp),%r9
    200c:	49 0f af c1          	imul   %r9,%rax
    2010:	4c 89 4c 24 a8       	mov    %r9,-0x58(%rsp)
    2015:	49 89 c1             	mov    %rax,%r9
    2018:	49 c1 f9 20          	sar    $0x20,%r9
    201c:	3d 00 00 00 80       	cmp    $0x80000000,%eax
    2021:	48 8b 44 24 90       	mov    -0x70(%rsp),%rax
    2026:	41 83 d9 ff          	sbb    $0xffffffff,%r9d
    202a:	41 01 d9             	add    %ebx,%r9d
    202d:	8b 58 14             	mov    0x14(%rax),%ebx
    2030:	49 63 47 14          	movslq 0x14(%r15),%rax
    2034:	89 5c 24 c4          	mov    %ebx,-0x3c(%rsp)
    2038:	48 8b 5c 24 b0       	mov    -0x50(%rsp),%rbx
    203d:	48 0f af d8          	imul   %rax,%rbx
    2041:	48 89 dd             	mov    %rbx,%rbp
    2044:	48 c1 fb 20          	sar    $0x20,%rbx
    2048:	81 fd 00 00 00 80    	cmp    $0x80000000,%ebp
    204e:	83 db ff             	sbb    $0xffffffff,%ebx
    2051:	44 01 d3             	add    %r10d,%ebx
    2054:	49 89 c2             	mov    %rax,%r10
    2057:	4d 0f af d4          	imul   %r12,%r10
    205b:	4c 89 d5             	mov    %r10,%rbp
    205e:	49 c1 fa 20          	sar    $0x20,%r10
    2062:	81 fd 00 00 00 80    	cmp    $0x80000000,%ebp
    2068:	41 83 da ff          	sbb    $0xffffffff,%r10d
    206c:	45 01 da             	add    %r11d,%r10d
    206f:	49 89 c3             	mov    %rax,%r11
    2072:	4d 0f af de          	imul   %r14,%r11
    2076:	4c 89 dd             	mov    %r11,%rbp
    2079:	49 c1 fb 20          	sar    $0x20,%r11
    207d:	81 fd 00 00 00 80    	cmp    $0x80000000,%ebp
    2083:	48 8b 6c 24 b8       	mov    -0x48(%rsp),%rbp
    2088:	41 83 db ff          	sbb    $0xffffffff,%r11d
    208c:	48 0f af e8          	imul   %rax,%rbp
    2090:	45 01 c3             	add    %r8d,%r11d
    2093:	49 89 e8             	mov    %rbp,%r8
    2096:	49 c1 f8 20          	sar    $0x20,%r8
    209a:	81 fd 00 00 00 80    	cmp    $0x80000000,%ebp
    20a0:	41 83 d8 ff          	sbb    $0xffffffff,%r8d
    20a4:	41 01 f8             	add    %edi,%r8d
    20a7:	48 89 c7             	mov    %rax,%rdi
    20aa:	49 0f af fd          	imul   %r13,%rdi
    20ae:	48 89 fd             	mov    %rdi,%rbp
    20b1:	48 c1 ff 20          	sar    $0x20,%rdi
    20b5:	81 fd 00 00 00 80    	cmp    $0x80000000,%ebp
    20bb:	83 df ff             	sbb    $0xffffffff,%edi
    20be:	01 f7                	add    %esi,%edi
    20c0:	48 8b 74 24 a0       	mov    -0x60(%rsp),%rsi
    20c5:	48 0f af f0          	imul   %rax,%rsi
    20c9:	48 89 f5             	mov    %rsi,%rbp
    20cc:	48 c1 fe 20          	sar    $0x20,%rsi
    20d0:	81 fd 00 00 00 80    	cmp    $0x80000000,%ebp
    20d6:	83 de ff             	sbb    $0xffffffff,%esi
    20d9:	01 ce                	add    %ecx,%esi
    20db:	48 8b 4c 24 a8       	mov    -0x58(%rsp),%rcx
    20e0:	48 0f af c8          	imul   %rax,%rcx
    20e4:	48 89 cd             	mov    %rcx,%rbp
    20e7:	48 c1 f9 20          	sar    $0x20,%rcx
    20eb:	81 fd 00 00 00 80    	cmp    $0x80000000,%ebp
    20f1:	83 d9 ff             	sbb    $0xffffffff,%ecx
    20f4:	01 d1                	add    %edx,%ecx
    20f6:	48 63 54 24 c4       	movslq -0x3c(%rsp),%rdx
    20fb:	48 0f af c2          	imul   %rdx,%rax
    20ff:	48 89 54 24 98       	mov    %rdx,-0x68(%rsp)
    2104:	48 89 c2             	mov    %rax,%rdx
    2107:	48 c1 fa 20          	sar    $0x20,%rdx
    210b:	3d 00 00 00 80       	cmp    $0x80000000,%eax
    2110:	48 8b 44 24 90       	mov    -0x70(%rsp),%rax
    2115:	83 da ff             	sbb    $0xffffffff,%edx
    2118:	44 01 ca             	add    %r9d,%edx
    211b:	44 8b 48 18          	mov    0x18(%rax),%r9d
    211f:	44 89 4c 24 18       	mov    %r9d,0x18(%rsp)
    2124:	49 63 47 18          	movslq 0x18(%r15),%rax
    2128:	4c 0f af e0          	imul   %rax,%r12
    212c:	4c 89 e5             	mov    %r12,%rbp
    212f:	49 c1 fc 20          	sar    $0x20,%r12
    2133:	4d 89 e1             	mov    %r12,%r9
    2136:	81 fd 00 00 00 80    	cmp    $0x80000000,%ebp
    213c:	4c 8b 64 24 b8       	mov    -0x48(%rsp),%r12
    2141:	41 83 d9 ff          	sbb    $0xffffffff,%r9d
    2145:	41 01 d9             	add    %ebx,%r9d
    2148:	48 89 c3             	mov    %rax,%rbx
    214b:	49 0f af de          	imul   %r14,%rbx
    214f:	48 89 dd             	mov    %rbx,%rbp
    2152:	48 c1 fb 20          	sar    $0x20,%rbx
    2156:	81 fd 00 00 00 80    	cmp    $0x80000000,%ebp
    215c:	4c 89 e5             	mov    %r12,%rbp
    215f:	83 db ff             	sbb    $0xffffffff,%ebx
    2162:	48 0f af e8          	imul   %rax,%rbp
    2166:	44 01 d3             	add    %r10d,%ebx
    2169:	49 89 ea             	mov    %rbp,%r10
    216c:	49 c1 fa 20          	sar    $0x20,%r10
    2170:	81 fd 00 00 00 80    	cmp    $0x80000000,%ebp
    2176:	48 89 c5             	mov    %rax,%rbp
    2179:	41 83 da ff          	sbb    $0xffffffff,%r10d
    217d:	49 0f af ed          	imul   %r13,%rbp
    2181:	45 01 d3             	add    %r10d,%r11d
    2184:	49 89 ea             	mov    %rbp,%r10
    2187:	49 c1 fa 20          	sar    $0x20,%r10
    218b:	81 fd 00 00 00 80    	cmp    $0x80000000,%ebp
    2191:	48 8b 6c 24 a0       	mov    -0x60(%rsp),%rbp
    2196:	41 83 da ff          	sbb    $0xffffffff,%r10d
    219a:	48 0f af e8          	imul   %rax,%rbp
    219e:	45 01 d0             	add    %r10d,%r8d
    21a1:	49 89 ea             	mov    %rbp,%r10
    21a4:	49 c1 fa 20          	sar    $0x20,%r10
    21a8:	81 fd 00 00 00 80    	cmp    $0x80000000,%ebp
    21ae:	41 83 da ff          	sbb    $0xffffffff,%r10d
    21b2:	44 01 d7             	add    %r10d,%edi
    21b5:	4c 8b 54 24 a8       	mov    -0x58(%rsp),%r10
    21ba:	4c 0f af d0          	imul   %rax,%r10
    21be:	4c 89 d5             	mov    %r10,%rbp
    21c1:	49 c1 fa 20          	sar    $0x20,%r10
    21c5:	81 fd 00 00 00 80    	cmp    $0x80000000,%ebp
    21cb:	48 8b 6c 24 98       	mov    -0x68(%rsp),%rbp
    21d0:	41 83 da ff          	sbb    $0xffffffff,%r10d
    21d4:	48 0f af e8          	imul   %rax,%rbp
    21d8:	44 01 d6             	add    %r10d,%esi
    21db:	49 89 ea             	mov    %rbp,%r10
    21de:	49 c1 fa 20          	sar    $0x20,%r10
    21e2:	81 fd 00 00 00 80    	cmp    $0x80000000,%ebp
    21e8:	41 83 da ff          	sbb    $0xffffffff,%r10d
    21ec:	44 01 d1             	add    %r10d,%ecx
    21ef:	4c 63 54 24 18       	movslq 0x18(%rsp),%r10
    21f4:	49 0f af c2          	imul   %r10,%rax
    21f8:	4c 89 54 24 b0       	mov    %r10,-0x50(%rsp)
    21fd:	48 89 c5             	mov    %rax,%rbp
    2200:	48 c1 fd 20          	sar    $0x20,%rbp
    2204:	3d 00 00 00 80       	cmp    $0x80000000,%eax
    2209:	48 8b 44 24 90       	mov    -0x70(%rsp),%rax
    220e:	49 89 ea             	mov    %rbp,%r10
    2211:	41 83 da ff          	sbb    $0xffffffff,%r10d
    2215:	44 01 d2             	add    %r10d,%edx
    2218:	44 8b 50 1c          	mov    0x1c(%rax),%r10d
    221c:	49 63 47 1c          	movslq 0x1c(%r15),%rax
    2220:	4c 0f af f0          	imul   %rax,%r14
    2224:	4c 89 f5             	mov    %r14,%rbp
    2227:	48 c1 fd 20          	sar    $0x20,%rbp
    222b:	41 81 fe 00 00 00 80 	cmp    $0x80000000,%r14d
    2232:	83 dd ff             	sbb    $0xffffffff,%ebp
    2235:	4c 0f af e0          	imul   %rax,%r12
    2239:	41 01 e9             	add    %ebp,%r9d
    223c:	4d 89 e6             	mov    %r12,%r14
    223f:	49 c1 fe 20          	sar    $0x20,%r14
    2243:	41 81 fc 00 00 00 80 	cmp    $0x80000000,%r12d
    224a:	4c 89 f5             	mov    %r14,%rbp
    224d:	83 dd ff             	sbb    $0xffffffff,%ebp
    2250:	01 dd                	add    %ebx,%ebp
    2252:	48 89 c3             	mov    %rax,%rbx
    2255:	49 0f af dd          	imul   %r13,%rbx
    2259:	49 89 dc             	mov    %rbx,%r12
    225c:	48 c1 fb 20          	sar    $0x20,%rbx
    2260:	41 81 fc 00 00 00 80 	cmp    $0x80000000,%r12d
    2267:	4c 8b 64 24 a0       	mov    -0x60(%rsp),%r12
    226c:	83 db ff             	sbb    $0xffffffff,%ebx
    226f:	4c 0f af e0          	imul   %rax,%r12
    2273:	44 01 db             	add    %r11d,%ebx
    2276:	4d 89 e3             	mov    %r12,%r11
    2279:	49 c1 fb 20          	sar    $0x20,%r11
    227d:	41 81 fc 00 00 00 80 	cmp    $0x80000000,%r12d
    2284:	41 83 db ff          	sbb    $0xffffffff,%r11d
    2288:	45 01 c3             	add    %r8d,%r11d
    228b:	4c 8b 44 24 a8       	mov    -0x58(%rsp),%r8
    2290:	4c 0f af c0          	imul   %rax,%r8
    2294:	4d 89 c4             	mov    %r8,%r12
    2297:	49 c1 fc 20          	sar    $0x20,%r12
    229b:	41 81 f8 00 00 00 80 	cmp    $0x80000000,%r8d
    22a2:	45 89 e0             	mov    %r12d,%r8d
    22a5:	41 83 d8 ff          	sbb    $0xffffffff,%r8d
    22a9:	45 8d 34 38          	lea    (%r8,%rdi,1),%r14d
    22ad:	48 8b 7c 24 98       	mov    -0x68(%rsp),%rdi
    22b2:	44 89 74 24 d8       	mov    %r14d,-0x28(%rsp)
    22b7:	48 0f af f8          	imul   %rax,%rdi
    22bb:	49 89 fe             	mov    %rdi,%r14
    22be:	49 c1 fe 20          	sar    $0x20,%r14
    22c2:	81 ff 00 00 00 80    	cmp    $0x80000000,%edi
    22c8:	41 83 de ff          	sbb    $0xffffffff,%r14d
    22cc:	41 01 f6             	add    %esi,%r14d
    22cf:	48 8b 74 24 b0       	mov    -0x50(%rsp),%rsi
    22d4:	48 0f af f0          	imul   %rax,%rsi
    22d8:	49 89 f4             	mov    %rsi,%r12
    22db:	49 c1 fc 20          	sar    $0x20,%r12
    22df:	81 fe 00 00 00 80    	cmp    $0x80000000,%esi
    22e5:	41 83 dc ff          	sbb    $0xffffffff,%r12d
    22e9:	41 8d 3c 0c          	lea    (%r12,%rcx,1),%edi
    22ed:	4d 63 e2             	movslq %r10d,%r12
    22f0:	49 0f af c4          	imul   %r12,%rax
    22f4:	89 7c 24 dc          	mov    %edi,-0x24(%rsp)
    22f8:	48 89 c1             	mov    %rax,%rcx
    22fb:	48 c1 f9 20          	sar    $0x20,%rcx
    22ff:	3d 00 00 00 80       	cmp    $0x80000000,%eax
    2304:	83 d9 ff             	sbb    $0xffffffff,%ecx
    2307:	48 83 44 24 90 20    	addq   $0x20,-0x70(%rsp)
    230d:	49 83 c7 20          	add    $0x20,%r15
    2311:	8d 3c 0a             	lea    (%rdx,%rcx,1),%edi
    2314:	89 7c 24 c0          	mov    %edi,-0x40(%rsp)
    2318:	4c 39 7c 24 e0       	cmp    %r15,-0x20(%rsp)
    231d:	0f 85 3d f8 ff ff    	jne    1b60 <riscv_dsp_fir_fast_q31+0x190>
    2323:	48 8b 44 24 28       	mov    0x28(%rsp),%rax
    2328:	48 03 44 24 f8       	add    -0x8(%rsp),%rax
    232d:	44 8b 7c 24 18       	mov    0x18(%rsp),%r15d
    2332:	44 8b 6c 24 d8       	mov    -0x28(%rsp),%r13d
    2337:	48 89 44 24 90       	mov    %rax,-0x70(%rsp)
    233c:	44 8b 64 24 dc       	mov    -0x24(%rsp),%r12d
    2341:	48 8b 4c 24 e0       	mov    -0x20(%rsp),%rcx
    2346:	8b 54 24 38          	mov    0x38(%rsp),%edx
    234a:	85 d2                	test   %edx,%edx
    234c:	0f 84 50 01 00 00    	je     24a2 <riscv_dsp_fir_fast_q31+0xad2>
    2352:	48 8b 44 24 20       	mov    0x20(%rsp),%rax
    2357:	8b 74 24 c4          	mov    -0x3c(%rsp),%esi
    235b:	44 89 5c 24 a0       	mov    %r11d,-0x60(%rsp)
    2360:	4c 8b 5c 24 90       	mov    -0x70(%rsp),%r11
    2365:	8b 7c 24 c8          	mov    -0x38(%rsp),%edi
    2369:	89 6c 24 98          	mov    %ebp,-0x68(%rsp)
    236d:	4c 8d 04 01          	lea    (%rcx,%rax,1),%r8
    2371:	89 5c 24 90          	mov    %ebx,-0x70(%rsp)
    2375:	48 63 54 24 d0       	movslq -0x30(%rsp),%rdx
    237a:	44 89 4c 24 a8       	mov    %r9d,-0x58(%rsp)
    237f:	44 8b 4c 24 d4       	mov    -0x2c(%rsp),%r9d
    2384:	4c 89 44 24 b0       	mov    %r8,-0x50(%rsp)
    2389:	44 8b 44 24 cc       	mov    -0x34(%rsp),%r8d
    238e:	66 90                	xchg   %ax,%ax
    2390:	48 63 01             	movslq (%rcx),%rax
    2393:	48 83 c1 04          	add    $0x4,%rcx
    2397:	49 83 c3 04          	add    $0x4,%r11
    239b:	44 89 d3             	mov    %r10d,%ebx
    239e:	45 8b 53 fc          	mov    -0x4(%r11),%r10d
    23a2:	48 0f af d0          	imul   %rax,%rdx
    23a6:	48 89 d5             	mov    %rdx,%rbp
    23a9:	48 c1 fd 20          	sar    $0x20,%rbp
    23ad:	81 fa 00 00 00 80    	cmp    $0x80000000,%edx
    23b3:	49 63 d0             	movslq %r8d,%rdx
    23b6:	83 dd ff             	sbb    $0xffffffff,%ebp
    23b9:	48 0f af d0          	imul   %rax,%rdx
    23bd:	01 6c 24 a8          	add    %ebp,-0x58(%rsp)
    23c1:	48 89 d5             	mov    %rdx,%rbp
    23c4:	48 c1 fd 20          	sar    $0x20,%rbp
    23c8:	81 fa 00 00 00 80    	cmp    $0x80000000,%edx
    23ce:	48 63 d7             	movslq %edi,%rdx
    23d1:	83 dd ff             	sbb    $0xffffffff,%ebp
    23d4:	48 0f af d0          	imul   %rax,%rdx
    23d8:	01 6c 24 98          	add    %ebp,-0x68(%rsp)
    23dc:	48 89 d5             	mov    %rdx,%rbp
    23df:	48 c1 fd 20          	sar    $0x20,%rbp
    23e3:	81 fa 00 00 00 80    	cmp    $0x80000000,%edx
    23e9:	49 63 d1             	movslq %r9d,%rdx
    23ec:	83 dd ff             	sbb    $0xffffffff,%ebp
    23ef:	48 0f af d0          	imul   %rax,%rdx
    23f3:	01 6c 24 90          	add    %ebp,-0x70(%rsp)
    23f7:	48 89 d5             	mov    %rdx,%rbp
    23fa:	48 c1 fd 20          	sar    $0x20,%rbp
    23fe:	81 fa 00 00 00 80    	cmp    $0x80000000,%edx
    2404:	48 63 d6             	movslq %esi,%rdx
    2407:	83 dd ff             	sbb    $0xffffffff,%ebp
    240a:	48 0f af d0          	imul   %rax,%rdx
    240e:	01 6c 24 a0          	add    %ebp,-0x60(%rsp)
    2412:	48 89 d5             	mov    %rdx,%rbp
    2415:	48 c1 fd 20          	sar    $0x20,%rbp
    2419:	81 fa 00 00 00 80    	cmp    $0x80000000,%edx
    241f:	49 63 d7             	movslq %r15d,%rdx
    2422:	83 dd ff             	sbb    $0xffffffff,%ebp
    2425:	48 0f af d0          	imul   %rax,%rdx
    2429:	41 01 ed             	add    %ebp,%r13d
    242c:	48 89 d5             	mov    %rdx,%rbp
    242f:	48 c1 fd 20          	sar    $0x20,%rbp
    2433:	81 fa 00 00 00 80    	cmp    $0x80000000,%edx
    2439:	48 63 d3             	movslq %ebx,%rdx
    243c:	83 dd ff             	sbb    $0xffffffff,%ebp
    243f:	48 0f af d0          	imul   %rax,%rdx
    2443:	41 01 ee             	add    %ebp,%r14d
    2446:	48 89 d5             	mov    %rdx,%rbp
    2449:	48 c1 fd 20          	sar    $0x20,%rbp
    244d:	81 fa 00 00 00 80    	cmp    $0x80000000,%edx
    2453:	49 63 d2             	movslq %r10d,%rdx
    2456:	83 dd ff             	sbb    $0xffffffff,%ebp
    2459:	48 0f af c2          	imul   %rdx,%rax
    245d:	41 01 ec             	add    %ebp,%r12d
    2460:	48 89 c2             	mov    %rax,%rdx
    2463:	48 c1 fa 20          	sar    $0x20,%rdx
    2467:	3d 00 00 00 80       	cmp    $0x80000000,%eax
    246c:	83 da ff             	sbb    $0xffffffff,%edx
    246f:	01 54 24 c0          	add    %edx,-0x40(%rsp)
    2473:	49 63 d0             	movslq %r8d,%rdx
    2476:	41 89 f8             	mov    %edi,%r8d
    2479:	44 89 cf             	mov    %r9d,%edi
    247c:	41 89 f1             	mov    %esi,%r9d
    247f:	44 89 fe             	mov    %r15d,%esi
    2482:	41 89 df             	mov    %ebx,%r15d
    2485:	48 3b 4c 24 b0       	cmp    -0x50(%rsp),%rcx
    248a:	0f 85 00 ff ff ff    	jne    2390 <riscv_dsp_fir_fast_q31+0x9c0>
    2490:	8b 6c 24 98          	mov    -0x68(%rsp),%ebp
    2494:	44 8b 5c 24 a0       	mov    -0x60(%rsp),%r11d
    2499:	44 8b 4c 24 a8       	mov    -0x58(%rsp),%r9d
    249e:	8b 5c 24 90          	mov    -0x70(%rsp),%ebx
    24a2:	48 8b 3c 24          	mov    (%rsp),%rdi
    24a6:	43 8d 04 09          	lea    (%r9,%r9,1),%eax
    24aa:	01 db                	add    %ebx,%ebx
    24ac:	45 01 db             	add    %r11d,%r11d
    24af:	45 01 f6             	add    %r14d,%r14d
    24b2:	45 01 e4             	add    %r12d,%r12d
    24b5:	48 83 44 24 f8 20    	addq   $0x20,-0x8(%rsp)
    24bb:	48 8b 74 24 08       	mov    0x8(%rsp),%rsi
    24c0:	89 07                	mov    %eax,(%rdi)
    24c2:	8d 44 2d 00          	lea    0x0(%rbp,%rbp,1),%eax
    24c6:	48 83 c7 20          	add    $0x20,%rdi
    24ca:	89 47 e4             	mov    %eax,-0x1c(%rdi)
    24cd:	43 8d 44 2d 00       	lea    0x0(%r13,%r13,1),%eax
    24d2:	89 47 f0             	mov    %eax,-0x10(%rdi)
    24d5:	8b 44 24 c0          	mov    -0x40(%rsp),%eax
    24d9:	89 5f e8             	mov    %ebx,-0x18(%rdi)
    24dc:	44 89 5f ec          	mov    %r11d,-0x14(%rdi)
    24e0:	01 c0                	add    %eax,%eax
    24e2:	44 89 77 f4          	mov    %r14d,-0xc(%rdi)
    24e6:	44 89 67 f8          	mov    %r12d,-0x8(%rdi)
    24ea:	48 89 3c 24          	mov    %rdi,(%rsp)
    24ee:	89 47 fc             	mov    %eax,-0x4(%rdi)
    24f1:	48 39 74 24 e8       	cmp    %rsi,-0x18(%rsp)
    24f6:	0f 85 94 f5 ff ff    	jne    1a90 <riscv_dsp_fir_fast_q31+0xc0>
    24fc:	48 8b 44 24 60       	mov    0x60(%rsp),%rax
    2501:	48 01 44 24 48       	add    %rax,0x48(%rsp)
    2506:	48 01 44 24 40       	add    %rax,0x40(%rsp)
    250b:	48 8b 7c 24 30       	mov    0x30(%rsp),%rdi
    2510:	48 01 c7             	add    %rax,%rdi
    2513:	8b 44 24 54          	mov    0x54(%rsp),%eax
    2517:	83 e0 07             	and    $0x7,%eax
    251a:	0f 84 8f 00 00 00    	je     25af <riscv_dsp_fir_fast_q31+0xbdf>
    2520:	89 c0                	mov    %eax,%eax
    2522:	4c 8b 54 24 58       	mov    0x58(%rsp),%r10
    2527:	8b 5c 24 50          	mov    0x50(%rsp),%ebx
    252b:	45 31 c0             	xor    %r8d,%r8d
    252e:	4c 8b 5c 24 10       	mov    0x10(%rsp),%r11
    2533:	48 8b 6c 24 40       	mov    0x40(%rsp),%rbp
    2538:	4c 8d 0c 85 00 00 00 	lea    0x0(,%rax,4),%r9
    253f:	00 
    2540:	4c 8b 64 24 08       	mov    0x8(%rsp),%r12
    2545:	4c 8b 6c 24 48       	mov    0x48(%rsp),%r13
    254a:	66 0f 1f 44 00 00    	nopw   0x0(%rax,%rax,1)
    2550:	43 8b 04 04          	mov    (%r12,%r8,1),%eax
    2554:	4a 8d 34 07          	lea    (%rdi,%r8,1),%rsi
    2558:	42 89 44 05 00       	mov    %eax,0x0(%rbp,%r8,1)
    255d:	85 db                	test   %ebx,%ebx
    255f:	0f 84 1b 01 00 00    	je     2680 <riscv_dsp_fir_fast_q31+0xcb0>
    2565:	31 d2                	xor    %edx,%edx
    2567:	31 c9                	xor    %ecx,%ecx
    2569:	eb 08                	jmp    2573 <riscv_dsp_fir_fast_q31+0xba3>
    256b:	0f 1f 44 00 00       	nopl   0x0(%rax,%rax,1)
    2570:	48 89 c2             	mov    %rax,%rdx
    2573:	4c 63 34 96          	movslq (%rsi,%rdx,4),%r14
    2577:	49 63 04 93          	movslq (%r11,%rdx,4),%rax
    257b:	49 0f af c6          	imul   %r14,%rax
    257f:	49 89 c6             	mov    %rax,%r14
    2582:	49 c1 fe 20          	sar    $0x20,%r14
    2586:	3d 00 00 00 80       	cmp    $0x80000000,%eax
    258b:	44 89 f0             	mov    %r14d,%eax
    258e:	83 d8 ff             	sbb    $0xffffffff,%eax
    2591:	01 c1                	add    %eax,%ecx
    2593:	48 8d 42 01          	lea    0x1(%rdx),%rax
    2597:	49 39 d2             	cmp    %rdx,%r10
    259a:	75 d4                	jne    2570 <riscv_dsp_fir_fast_q31+0xba0>
    259c:	01 c9                	add    %ecx,%ecx
    259e:	43 89 4c 05 00       	mov    %ecx,0x0(%r13,%r8,1)
    25a3:	49 83 c0 04          	add    $0x4,%r8
    25a7:	4d 39 c8             	cmp    %r9,%r8
    25aa:	75 a4                	jne    2550 <riscv_dsp_fir_fast_q31+0xb80>
    25ac:	4c 01 c7             	add    %r8,%rdi
    25af:	8b 44 24 3c          	mov    0x3c(%rsp),%eax
    25b3:	85 c0                	test   %eax,%eax
    25b5:	0f 84 87 00 00 00    	je     2642 <riscv_dsp_fir_fast_q31+0xc72>
    25bb:	4c 8b 44 24 30       	mov    0x30(%rsp),%r8
    25c0:	8b 5c 24 50          	mov    0x50(%rsp),%ebx
    25c4:	48 8d 57 04          	lea    0x4(%rdi),%rdx
    25c8:	4c 89 c0             	mov    %r8,%rax
    25cb:	8d 73 fe             	lea    -0x2(%rbx),%esi
    25ce:	48 29 d0             	sub    %rdx,%rax
    25d1:	48 83 f8 08          	cmp    $0x8,%rax
    25d5:	0f 86 ac 00 00 00    	jbe    2687 <riscv_dsp_fir_fast_q31+0xcb7>
    25db:	83 fe 02             	cmp    $0x2,%esi
    25de:	0f 86 a3 00 00 00    	jbe    2687 <riscv_dsp_fir_fast_q31+0xcb7>
    25e4:	89 d8                	mov    %ebx,%eax
    25e6:	31 d2                	xor    %edx,%edx
    25e8:	31 c9                	xor    %ecx,%ecx
    25ea:	83 e8 05             	sub    $0x5,%eax
    25ed:	c1 e8 02             	shr    $0x2,%eax
    25f0:	83 c0 01             	add    $0x1,%eax
    25f3:	0f 1f 44 00 00       	nopl   0x0(%rax,%rax,1)
    25f8:	f3 0f 6f 14 17       	movdqu (%rdi,%rdx,1),%xmm2
    25fd:	83 c1 01             	add    $0x1,%ecx
    2600:	41 0f 11 14 10       	movups %xmm2,(%r8,%rdx,1)
    2605:	48 83 c2 10          	add    $0x10,%rdx
    2609:	39 c8                	cmp    %ecx,%eax
    260b:	77 eb                	ja     25f8 <riscv_dsp_fir_fast_q31+0xc28>
    260d:	8d 14 85 00 00 00 00 	lea    0x0(,%rax,4),%edx
    2614:	48 89 d0             	mov    %rdx,%rax
    2617:	48 c1 e2 02          	shl    $0x2,%rdx
    261b:	48 01 d7             	add    %rdx,%rdi
    261e:	48 03 54 24 30       	add    0x30(%rsp),%rdx
    2623:	39 44 24 3c          	cmp    %eax,0x3c(%rsp)
    2627:	74 19                	je     2642 <riscv_dsp_fir_fast_q31+0xc72>
    2629:	8b 0f                	mov    (%rdi),%ecx
    262b:	89 0a                	mov    %ecx,(%rdx)
    262d:	29 c6                	sub    %eax,%esi
    262f:	74 11                	je     2642 <riscv_dsp_fir_fast_q31+0xc72>
    2631:	8b 47 04             	mov    0x4(%rdi),%eax
    2634:	89 42 04             	mov    %eax,0x4(%rdx)
    2637:	83 fe 01             	cmp    $0x1,%esi
    263a:	74 06                	je     2642 <riscv_dsp_fir_fast_q31+0xc72>
    263c:	8b 47 08             	mov    0x8(%rdi),%eax
    263f:	89 42 08             	mov    %eax,0x8(%rdx)
    2642:	48 83 c4 70          	add    $0x70,%rsp
    2646:	5b                   	pop    %rbx
    2647:	5d                   	pop    %rbp
    2648:	41 5c                	pop    %r12
    264a:	41 5d                	pop    %r13
    264c:	41 5e                	pop    %r14
    264e:	41 5f                	pop    %r15
    2650:	c3                   	ret    
    2651:	0f 1f 80 00 00 00 00 	nopl   0x0(%rax)
    2658:	c7 44 24 c0 00 00 00 	movl   $0x0,-0x40(%rsp)
    265f:	00 
    2660:	45 31 e4             	xor    %r12d,%r12d
    2663:	45 31 f6             	xor    %r14d,%r14d
    2666:	31 db                	xor    %ebx,%ebx
    2668:	48 8b 4c 24 10       	mov    0x10(%rsp),%rcx
    266d:	45 31 ed             	xor    %r13d,%r13d
    2670:	45 31 db             	xor    %r11d,%r11d
    2673:	31 ed                	xor    %ebp,%ebp
    2675:	45 31 c9             	xor    %r9d,%r9d
    2678:	e9 c9 fc ff ff       	jmp    2346 <riscv_dsp_fir_fast_q31+0x976>
    267d:	0f 1f 00             	nopl   (%rax)
    2680:	31 c9                	xor    %ecx,%ecx
    2682:	e9 17 ff ff ff       	jmp    259e <riscv_dsp_fir_fast_q31+0xbce>
    2687:	8b 54 24 3c          	mov    0x3c(%rsp),%edx
    268b:	48 8b 74 24 30       	mov    0x30(%rsp),%rsi
    2690:	31 c0                	xor    %eax,%eax
    2692:	66 0f 1f 44 00 00    	nopw   0x0(%rax,%rax,1)
    2698:	8b 0c 87             	mov    (%rdi,%rax,4),%ecx
    269b:	89 0c 86             	mov    %ecx,(%rsi,%rax,4)
    269e:	48 83 c0 01          	add    $0x1,%rax
    26a2:	48 39 d0             	cmp    %rdx,%rax
    26a5:	75 f1                	jne    2698 <riscv_dsp_fir_fast_q31+0xcc8>
    26a7:	48 83 c4 70          	add    $0x70,%rsp
    26ab:	5b                   	pop    %rbx
    26ac:	5d                   	pop    %rbp
    26ad:	41 5c                	pop    %r12
    26af:	41 5d                	pop    %r13
    26b1:	41 5e                	pop    %r14
    26b3:	41 5f                	pop    %r15
    26b5:	c3                   	ret    
    26b6:	48 89 74 24 08       	mov    %rsi,0x8(%rsp)
    26bb:	4c 89 ff             	mov    %r15,%rdi
    26be:	e9 50 fe ff ff       	jmp    2513 <riscv_dsp_fir_fast_q31+0xb43>

Disassembly of section .fini:

00000000000026c4 <_fini>:
    26c4:	f3 0f 1e fa          	endbr64 
    26c8:	48 83 ec 08          	sub    $0x8,%rsp
    26cc:	48 83 c4 08          	add    $0x8,%rsp
    26d0:	c3                   	ret    
