
t_fir_fast_q15:     file format elf64-x86-64


Disassembly of section .init:

0000000000001000 <_init>:
    1000:	f3 0f 1e fa          	endbr64 
    1004:	48 83 ec 08          	sub    $0x8,%rsp
    1008:	48 8b 05 d9 3f 00 00 	mov    0x3fd9(%rip),%rax        # 4fe8 <__gmon_start__@Base>
    100f:	48 85 c0             	test   %rax,%rax
    1012:	74 02                	je     1016 <_init+0x16>
    1014:	ff d0                	call   *%rax
    1016:	48 83 c4 08          	add    $0x8,%rsp
    101a:	c3                   	ret    

Disassembly of section .plt:

0000000000001020 <.plt>:
    1020:	ff 35 4a 3f 00 00    	push   0x3f4a(%rip)        # 4f70 <_GLOBAL_OFFSET_TABLE_+0x8>
    1026:	f2 ff 25 4b 3f 00 00 	bnd jmp *0x3f4b(%rip)        # 4f78 <_GLOBAL_OFFSET_TABLE_+0x10>
    102d:	0f 1f 00             	nopl   (%rax)
    1030:	f3 0f 1e fa          	endbr64 
    1034:	68 00 00 00 00       	push   $0x0
    1039:	f2 e9 e1 ff ff ff    	bnd jmp 1020 <_init+0x20>
    103f:	90                   	nop
    1040:	f3 0f 1e fa          	endbr64 
    1044:	68 01 00 00 00       	push   $0x1
    1049:	f2 e9 d1 ff ff ff    	bnd jmp 1020 <_init+0x20>
    104f:	90                   	nop
    1050:	f3 0f 1e fa          	endbr64 
    1054:	68 02 00 00 00       	push   $0x2
    1059:	f2 e9 c1 ff ff ff    	bnd jmp 1020 <_init+0x20>
    105f:	90                   	nop
    1060:	f3 0f 1e fa          	endbr64 
    1064:	68 03 00 00 00       	push   $0x3
    1069:	f2 e9 b1 ff ff ff    	bnd jmp 1020 <_init+0x20>
    106f:	90                   	nop
    1070:	f3 0f 1e fa          	endbr64 
    1074:	68 04 00 00 00       	push   $0x4
    1079:	f2 e9 a1 ff ff ff    	bnd jmp 1020 <_init+0x20>
    107f:	90                   	nop
    1080:	f3 0f 1e fa          	endbr64 
    1084:	68 05 00 00 00       	push   $0x5
    1089:	f2 e9 91 ff ff ff    	bnd jmp 1020 <_init+0x20>
    108f:	90                   	nop
    1090:	f3 0f 1e fa          	endbr64 
    1094:	68 06 00 00 00       	push   $0x6
    1099:	f2 e9 81 ff ff ff    	bnd jmp 1020 <_init+0x20>
    109f:	90                   	nop
    10a0:	f3 0f 1e fa          	endbr64 
    10a4:	68 07 00 00 00       	push   $0x7
    10a9:	f2 e9 71 ff ff ff    	bnd jmp 1020 <_init+0x20>
    10af:	90                   	nop
    10b0:	f3 0f 1e fa          	endbr64 
    10b4:	68 08 00 00 00       	push   $0x8
    10b9:	f2 e9 61 ff ff ff    	bnd jmp 1020 <_init+0x20>
    10bf:	90                   	nop
    10c0:	f3 0f 1e fa          	endbr64 
    10c4:	68 09 00 00 00       	push   $0x9
    10c9:	f2 e9 51 ff ff ff    	bnd jmp 1020 <_init+0x20>
    10cf:	90                   	nop
    10d0:	f3 0f 1e fa          	endbr64 
    10d4:	68 0a 00 00 00       	push   $0xa
    10d9:	f2 e9 41 ff ff ff    	bnd jmp 1020 <_init+0x20>
    10df:	90                   	nop

Disassembly of section .plt.got:

00000000000010e0 <__cxa_finalize@plt>:
    10e0:	f3 0f 1e fa          	endbr64 
    10e4:	f2 ff 25 0d 3f 00 00 	bnd jmp *0x3f0d(%rip)        # 4ff8 <__cxa_finalize@GLIBC_2.2.5>
    10eb:	0f 1f 44 00 00       	nopl   0x0(%rax,%rax,1)

Disassembly of section .plt.sec:

00000000000010f0 <free@plt>:
    10f0:	f3 0f 1e fa          	endbr64 
    10f4:	f2 ff 25 85 3e 00 00 	bnd jmp *0x3e85(%rip)        # 4f80 <free@GLIBC_2.2.5>
    10fb:	0f 1f 44 00 00       	nopl   0x0(%rax,%rax,1)

0000000000001100 <puts@plt>:
    1100:	f3 0f 1e fa          	endbr64 
    1104:	f2 ff 25 7d 3e 00 00 	bnd jmp *0x3e7d(%rip)        # 4f88 <puts@GLIBC_2.2.5>
    110b:	0f 1f 44 00 00       	nopl   0x0(%rax,%rax,1)

0000000000001110 <fread@plt>:
    1110:	f3 0f 1e fa          	endbr64 
    1114:	f2 ff 25 75 3e 00 00 	bnd jmp *0x3e75(%rip)        # 4f90 <fread@GLIBC_2.2.5>
    111b:	0f 1f 44 00 00       	nopl   0x0(%rax,%rax,1)

0000000000001120 <fclose@plt>:
    1120:	f3 0f 1e fa          	endbr64 
    1124:	f2 ff 25 6d 3e 00 00 	bnd jmp *0x3e6d(%rip)        # 4f98 <fclose@GLIBC_2.2.5>
    112b:	0f 1f 44 00 00       	nopl   0x0(%rax,%rax,1)

0000000000001130 <__stack_chk_fail@plt>:
    1130:	f3 0f 1e fa          	endbr64 
    1134:	f2 ff 25 65 3e 00 00 	bnd jmp *0x3e65(%rip)        # 4fa0 <__stack_chk_fail@GLIBC_2.4>
    113b:	0f 1f 44 00 00       	nopl   0x0(%rax,%rax,1)

0000000000001140 <calloc@plt>:
    1140:	f3 0f 1e fa          	endbr64 
    1144:	f2 ff 25 5d 3e 00 00 	bnd jmp *0x3e5d(%rip)        # 4fa8 <calloc@GLIBC_2.2.5>
    114b:	0f 1f 44 00 00       	nopl   0x0(%rax,%rax,1)

0000000000001150 <log10f@plt>:
    1150:	f3 0f 1e fa          	endbr64 
    1154:	f2 ff 25 55 3e 00 00 	bnd jmp *0x3e55(%rip)        # 4fb0 <log10f@GLIBC_2.2.5>
    115b:	0f 1f 44 00 00       	nopl   0x0(%rax,%rax,1)

0000000000001160 <__printf_chk@plt>:
    1160:	f3 0f 1e fa          	endbr64 
    1164:	f2 ff 25 4d 3e 00 00 	bnd jmp *0x3e4d(%rip)        # 4fb8 <__printf_chk@GLIBC_2.3.4>
    116b:	0f 1f 44 00 00       	nopl   0x0(%rax,%rax,1)

0000000000001170 <fopen@plt>:
    1170:	f3 0f 1e fa          	endbr64 
    1174:	f2 ff 25 45 3e 00 00 	bnd jmp *0x3e45(%rip)        # 4fc0 <fopen@GLIBC_2.2.5>
    117b:	0f 1f 44 00 00       	nopl   0x0(%rax,%rax,1)

0000000000001180 <sqrt@plt>:
    1180:	f3 0f 1e fa          	endbr64 
    1184:	f2 ff 25 3d 3e 00 00 	bnd jmp *0x3e3d(%rip)        # 4fc8 <sqrt@GLIBC_2.2.5>
    118b:	0f 1f 44 00 00       	nopl   0x0(%rax,%rax,1)

0000000000001190 <__sprintf_chk@plt>:
    1190:	f3 0f 1e fa          	endbr64 
    1194:	f2 ff 25 35 3e 00 00 	bnd jmp *0x3e35(%rip)        # 4fd0 <__sprintf_chk@GLIBC_2.3.4>
    119b:	0f 1f 44 00 00       	nopl   0x0(%rax,%rax,1)

Disassembly of section .text:

00000000000011a0 <main>:
    11a0:	f3 0f 1e fa          	endbr64 
    11a4:	55                   	push   %rbp
    11a5:	be 02 00 00 00       	mov    $0x2,%esi
    11aa:	bf 0d 04 00 00       	mov    $0x40d,%edi
    11af:	48 89 e5             	mov    %rsp,%rbp
    11b2:	41 57                	push   %r15
    11b4:	41 56                	push   %r14
    11b6:	41 55                	push   %r13
    11b8:	41 54                	push   %r12
    11ba:	53                   	push   %rbx
    11bb:	48 81 ec 68 02 00 00 	sub    $0x268,%rsp
    11c2:	64 48 8b 04 25 28 00 	mov    %fs:0x28,%rax
    11c9:	00 00 
    11cb:	48 89 45 c8          	mov    %rax,-0x38(%rbp)
    11cf:	31 c0                	xor    %eax,%eax
    11d1:	e8 6a ff ff ff       	call   1140 <calloc@plt>
    11d6:	be 02 00 00 00       	mov    $0x2,%esi
    11db:	bf 0f 00 00 00       	mov    $0xf,%edi
    11e0:	48 89 c3             	mov    %rax,%rbx
    11e3:	e8 58 ff ff ff       	call   1140 <calloc@plt>
    11e8:	66 48 0f 6e c3       	movq   %rbx,%xmm0
    11ed:	c7 85 a0 fd ff ff 0f 	movl   $0xf,-0x260(%rbp)
    11f4:	00 00 00 
    11f7:	66 48 0f 6e f8       	movq   %rax,%xmm7
    11fc:	49 89 c4             	mov    %rax,%r12
    11ff:	48 89 e0             	mov    %rsp,%rax
    1202:	66 0f 6c c7          	punpcklqdq %xmm7,%xmm0
    1206:	0f 11 85 a8 fd ff ff 	movups %xmm0,-0x258(%rbp)
    120d:	48 39 c4             	cmp    %rax,%rsp
    1210:	74 15                	je     1227 <main+0x87>
    1212:	48 81 ec 00 10 00 00 	sub    $0x1000,%rsp
    1219:	48 83 8c 24 f8 0f 00 	orq    $0x0,0xff8(%rsp)
    1220:	00 00 
    1222:	48 39 c4             	cmp    %rax,%rsp
    1225:	75 eb                	jne    1212 <main+0x72>
    1227:	48 81 ec 00 08 00 00 	sub    $0x800,%rsp
    122e:	48 83 8c 24 f8 07 00 	orq    $0x0,0x7f8(%rsp)
    1235:	00 00 
    1237:	48 89 a5 98 fd ff ff 	mov    %rsp,-0x268(%rbp)
    123e:	48 89 e0             	mov    %rsp,%rax
    1241:	48 39 c4             	cmp    %rax,%rsp
    1244:	74 12                	je     1258 <main+0xb8>
    1246:	48 81 ec 00 10 00 00 	sub    $0x1000,%rsp
    124d:	48 83 8c 24 f8 0f 00 	orq    $0x0,0xff8(%rsp)
    1254:	00 00 
    1256:	eb e9                	jmp    1241 <main+0xa1>
    1258:	48 81 ec 00 08 00 00 	sub    $0x800,%rsp
    125f:	48 83 8c 24 f8 07 00 	orq    $0x0,0x7f8(%rsp)
    1266:	00 00 
    1268:	48 89 a5 90 fd ff ff 	mov    %rsp,-0x270(%rbp)
    126f:	48 89 e0             	mov    %rsp,%rax
    1272:	48 39 c4             	cmp    %rax,%rsp
    1275:	74 12                	je     1289 <main+0xe9>
    1277:	48 81 ec 00 10 00 00 	sub    $0x1000,%rsp
    127e:	48 83 8c 24 f8 0f 00 	orq    $0x0,0xff8(%rsp)
    1285:	00 00 
    1287:	eb e9                	jmp    1272 <main+0xd2>
    1289:	48 81 ec 00 08 00 00 	sub    $0x800,%rsp
    1290:	48 83 8c 24 f8 07 00 	orq    $0x0,0x7f8(%rsp)
    1297:	00 00 
    1299:	48 89 a5 88 fd ff ff 	mov    %rsp,-0x278(%rbp)
    12a0:	48 89 e0             	mov    %rsp,%rax
    12a3:	48 39 c4             	cmp    %rax,%rsp
    12a6:	74 12                	je     12ba <main+0x11a>
    12a8:	48 81 ec 00 10 00 00 	sub    $0x1000,%rsp
    12af:	48 83 8c 24 f8 0f 00 	orq    $0x0,0xff8(%rsp)
    12b6:	00 00 
    12b8:	eb e9                	jmp    12a3 <main+0x103>
    12ba:	48 81 ec 20 08 00 00 	sub    $0x820,%rsp
    12c1:	48 83 8c 24 18 08 00 	orq    $0x0,0x818(%rsp)
    12c8:	00 00 
    12ca:	4c 8d 05 a7 1d 00 00 	lea    0x1da7(%rip),%r8        # 3078 <_IO_stdin_used+0x78>
    12d1:	ba 00 02 00 00       	mov    $0x200,%edx
    12d6:	31 c0                	xor    %eax,%eax
    12d8:	48 8d 0d 38 1d 00 00 	lea    0x1d38(%rip),%rcx        # 3017 <_IO_stdin_used+0x17>
    12df:	be 01 00 00 00       	mov    $0x1,%esi
    12e4:	4c 8d bd c0 fd ff ff 	lea    -0x240(%rbp),%r15
    12eb:	49 89 e6             	mov    %rsp,%r14
    12ee:	4c 89 ff             	mov    %r15,%rdi
    12f1:	e8 9a fe ff ff       	call   1190 <__sprintf_chk@plt>
    12f6:	48 8d 35 2b 1d 00 00 	lea    0x1d2b(%rip),%rsi        # 3028 <_IO_stdin_used+0x28>
    12fd:	4c 89 ff             	mov    %r15,%rdi
    1300:	e8 6b fe ff ff       	call   1170 <fopen@plt>
    1305:	48 89 85 80 fd ff ff 	mov    %rax,-0x280(%rbp)
    130c:	48 85 c0             	test   %rax,%rax
    130f:	0f 84 22 01 00 00    	je     1437 <main+0x297>
    1315:	ba 00 02 00 00       	mov    $0x200,%edx
    131a:	be 01 00 00 00       	mov    $0x1,%esi
    131f:	4c 89 ff             	mov    %r15,%rdi
    1322:	31 c0                	xor    %eax,%eax
    1324:	4c 8d 05 4d 1d 00 00 	lea    0x1d4d(%rip),%r8        # 3078 <_IO_stdin_used+0x78>
    132b:	48 8d 0d f8 1c 00 00 	lea    0x1cf8(%rip),%rcx        # 302a <_IO_stdin_used+0x2a>
    1332:	e8 59 fe ff ff       	call   1190 <__sprintf_chk@plt>
    1337:	48 8d 35 ea 1c 00 00 	lea    0x1cea(%rip),%rsi        # 3028 <_IO_stdin_used+0x28>
    133e:	4c 89 ff             	mov    %r15,%rdi
    1341:	e8 2a fe ff ff       	call   1170 <fopen@plt>
    1346:	49 89 c5             	mov    %rax,%r13
    1349:	48 85 c0             	test   %rax,%rax
    134c:	0f 84 e5 00 00 00    	je     1437 <main+0x297>
    1352:	4c 89 ff             	mov    %r15,%rdi
    1355:	ba 00 02 00 00       	mov    $0x200,%edx
    135a:	be 01 00 00 00       	mov    $0x1,%esi
    135f:	31 c0                	xor    %eax,%eax
    1361:	4c 8d 05 10 1d 00 00 	lea    0x1d10(%rip),%r8        # 3078 <_IO_stdin_used+0x78>
    1368:	48 8d 0d d1 1c 00 00 	lea    0x1cd1(%rip),%rcx        # 3040 <_IO_stdin_used+0x40>
    136f:	e8 1c fe ff ff       	call   1190 <__sprintf_chk@plt>
    1374:	4c 89 ff             	mov    %r15,%rdi
    1377:	48 8d 35 aa 1c 00 00 	lea    0x1caa(%rip),%rsi        # 3028 <_IO_stdin_used+0x28>
    137e:	e8 ed fd ff ff       	call   1170 <fopen@plt>
    1383:	49 89 c7             	mov    %rax,%r15
    1386:	48 85 c0             	test   %rax,%rax
    1389:	0f 84 a8 00 00 00    	je     1437 <main+0x297>
    138f:	48 8b 05 aa 1d 00 00 	mov    0x1daa(%rip),%rax        # 3140 <_IO_stdin_used+0x140>
    1396:	66 0f 6f 05 82 1d 00 	movdqa 0x1d82(%rip),%xmm0        # 3120 <_IO_stdin_used+0x120>
    139d:	00 
    139e:	41 c7 44 24 18 00 20 	movl   $0x20002000,0x18(%r12)
    13a5:	00 20 
    13a7:	be ff 03 00 00       	mov    $0x3ff,%esi
    13ac:	48 8b 95 80 fd ff ff 	mov    -0x280(%rbp),%rdx
    13b3:	48 8b bd 98 fd ff ff 	mov    -0x268(%rbp),%rdi
    13ba:	49 89 44 24 10       	mov    %rax,0x10(%r12)
    13bf:	b8 00 20 00 00       	mov    $0x2000,%eax
    13c4:	66 41 89 44 24 1c    	mov    %ax,0x1c(%r12)
    13ca:	41 0f 11 04 24       	movups %xmm0,(%r12)
    13cf:	e8 6c 04 00 00       	call   1840 <test_Fread.constprop.0.isra.0>
    13d4:	48 8b bd 88 fd ff ff 	mov    -0x278(%rbp),%rdi
    13db:	4c 89 ea             	mov    %r13,%rdx
    13de:	be ff 03 00 00       	mov    $0x3ff,%esi
    13e3:	e8 58 04 00 00       	call   1840 <test_Fread.constprop.0.isra.0>
    13e8:	4c 89 fa             	mov    %r15,%rdx
    13eb:	be 0d 04 00 00       	mov    $0x40d,%esi
    13f0:	4c 89 f7             	mov    %r14,%rdi
    13f3:	e8 48 04 00 00       	call   1840 <test_Fread.constprop.0.isra.0>
    13f8:	48 8b 95 90 fd ff ff 	mov    -0x270(%rbp),%rdx
    13ff:	b9 ff 03 00 00       	mov    $0x3ff,%ecx
    1404:	48 8b b5 98 fd ff ff 	mov    -0x268(%rbp),%rsi
    140b:	48 8d bd a0 fd ff ff 	lea    -0x260(%rbp),%rdi
    1412:	e8 39 07 00 00       	call   1b50 <riscv_dsp_fir_fast_q15>
    1417:	31 c0                	xor    %eax,%eax
    1419:	eb 11                	jmp    142c <main+0x28c>
    141b:	0f 1f 44 00 00       	nopl   0x0(%rax,%rax,1)
    1420:	48 83 c0 02          	add    $0x2,%rax
    1424:	48 3d 1a 08 00 00    	cmp    $0x81a,%rax
    142a:	74 32                	je     145e <main+0x2be>
    142c:	41 0f b7 0c 06       	movzwl (%r14,%rax,1),%ecx
    1431:	66 39 0c 03          	cmp    %cx,(%rbx,%rax,1)
    1435:	74 e9                	je     1420 <main+0x280>
    1437:	b8 ff ff ff ff       	mov    $0xffffffff,%eax
    143c:	48 8b 55 c8          	mov    -0x38(%rbp),%rdx
    1440:	64 48 2b 14 25 28 00 	sub    %fs:0x28,%rdx
    1447:	00 00 
    1449:	0f 85 f5 02 00 00    	jne    1744 <main+0x5a4>
    144f:	48 8d 65 d8          	lea    -0x28(%rbp),%rsp
    1453:	5b                   	pop    %rbx
    1454:	41 5c                	pop    %r12
    1456:	41 5d                	pop    %r13
    1458:	41 5e                	pop    %r14
    145a:	41 5f                	pop    %r15
    145c:	5d                   	pop    %rbp
    145d:	c3                   	ret    
    145e:	ba 0d 04 00 00       	mov    $0x40d,%edx
    1463:	48 89 de             	mov    %rbx,%rsi
    1466:	4c 89 f7             	mov    %r14,%rdi
    1469:	e8 e2 03 00 00       	call   1850 <dump2_q15.isra.0>
    146e:	48 8b b5 90 fd ff ff 	mov    -0x270(%rbp),%rsi
    1475:	ba ff 03 00 00       	mov    $0x3ff,%edx
    147a:	48 8b bd 88 fd ff ff 	mov    -0x278(%rbp),%rdi
    1481:	e8 ca 03 00 00       	call   1850 <dump2_q15.isra.0>
    1486:	48 89 df             	mov    %rbx,%rdi
    1489:	e8 62 fc ff ff       	call   10f0 <free@plt>
    148e:	4c 89 e7             	mov    %r12,%rdi
    1491:	e8 5a fc ff ff       	call   10f0 <free@plt>
    1496:	48 8b bd 80 fd ff ff 	mov    -0x280(%rbp),%rdi
    149d:	e8 7e fc ff ff       	call   1120 <fclose@plt>
    14a2:	4c 89 ef             	mov    %r13,%rdi
    14a5:	e8 76 fc ff ff       	call   1120 <fclose@plt>
    14aa:	48 8d 84 24 00 f0 ff 	lea    -0x1000(%rsp),%rax
    14b1:	ff 
    14b2:	48 39 c4             	cmp    %rax,%rsp
    14b5:	74 12                	je     14c9 <main+0x329>
    14b7:	48 81 ec 00 10 00 00 	sub    $0x1000,%rsp
    14be:	48 83 8c 24 f8 0f 00 	orq    $0x0,0xff8(%rsp)
    14c5:	00 00 
    14c7:	eb e9                	jmp    14b2 <main+0x312>
    14c9:	49 89 e4             	mov    %rsp,%r12
    14cc:	48 8d 84 24 00 f0 ff 	lea    -0x1000(%rsp),%rax
    14d3:	ff 
    14d4:	48 39 c4             	cmp    %rax,%rsp
    14d7:	74 12                	je     14eb <main+0x34b>
    14d9:	48 81 ec 00 10 00 00 	sub    $0x1000,%rsp
    14e0:	48 83 8c 24 f8 0f 00 	orq    $0x0,0xff8(%rsp)
    14e7:	00 00 
    14e9:	eb e9                	jmp    14d4 <main+0x334>
    14eb:	ba ff 03 00 00       	mov    $0x3ff,%edx
    14f0:	48 8b bd 88 fd ff ff 	mov    -0x278(%rbp),%rdi
    14f7:	4c 89 e6             	mov    %r12,%rsi
    14fa:	49 89 e5             	mov    %rsp,%r13
    14fd:	e8 ee 04 00 00       	call   19f0 <riscv_dsp_convert_q15_f32>
    1502:	48 8b bd 90 fd ff ff 	mov    -0x270(%rbp),%rdi
    1509:	ba ff 03 00 00       	mov    $0x3ff,%edx
    150e:	4c 89 ee             	mov    %r13,%rsi
    1511:	e8 da 04 00 00       	call   19f0 <riscv_dsp_convert_q15_f32>
    1516:	66 0f ef db          	pxor   %xmm3,%xmm3
    151a:	66 0f ef ff          	pxor   %xmm7,%xmm7
    151e:	31 c0                	xor    %eax,%eax
    1520:	66 0f 28 ef          	movapd %xmm7,%xmm5
    1524:	0f 28 e3             	movaps %xmm3,%xmm4
    1527:	44 0f 28 c3          	movaps %xmm3,%xmm8
    152b:	f3 44 0f 10 0d fc 1b 	movss  0x1bfc(%rip),%xmm9        # 3130 <_IO_stdin_used+0x130>
    1532:	00 00 
    1534:	0f 28 f3             	movaps %xmm3,%xmm6
    1537:	66 0f 1f 84 00 00 00 	nopw   0x0(%rax,%rax,1)
    153e:	00 00 
    1540:	f3 41 0f 10 44 05 00 	movss  0x0(%r13,%rax,1),%xmm0
    1547:	f3 41 0f 10 0c 04    	movss  (%r12,%rax,1),%xmm1
    154d:	66 0f 7e c2          	movd   %xmm0,%edx
    1551:	81 fa 00 00 c0 7f    	cmp    $0x7fc00000,%edx
    1557:	0f 84 9e 01 00 00    	je     16fb <main+0x55b>
    155d:	0f 28 d1             	movaps %xmm1,%xmm2
    1560:	f3 0f 5c c1          	subss  %xmm1,%xmm0
    1564:	48 83 c0 04          	add    $0x4,%rax
    1568:	f3 0f 5f d6          	maxss  %xmm6,%xmm2
    156c:	0f 28 f2             	movaps %xmm2,%xmm6
    156f:	0f 28 d1             	movaps %xmm1,%xmm2
    1572:	f3 41 0f 5d d0       	minss  %xmm8,%xmm2
    1577:	f3 0f 59 c9          	mulss  %xmm1,%xmm1
    157b:	44 0f 28 c2          	movaps %xmm2,%xmm8
    157f:	0f 28 d0             	movaps %xmm0,%xmm2
    1582:	f3 0f 59 c0          	mulss  %xmm0,%xmm0
    1586:	41 0f 54 d1          	andps  %xmm9,%xmm2
    158a:	f3 0f 58 e2          	addss  %xmm2,%xmm4
    158e:	f3 0f 5f d3          	maxss  %xmm3,%xmm2
    1592:	f3 0f 5a c9          	cvtss2sd %xmm1,%xmm1
    1596:	f2 0f 58 f9          	addsd  %xmm1,%xmm7
    159a:	0f 28 da             	movaps %xmm2,%xmm3
    159d:	f3 0f 5a c0          	cvtss2sd %xmm0,%xmm0
    15a1:	f2 0f 58 e8          	addsd  %xmm0,%xmm5
    15a5:	48 3d fc 0f 00 00    	cmp    $0xffc,%rax
    15ab:	75 93                	jne    1540 <main+0x3a0>
    15ad:	66 48 0f 7e e8       	movq   %xmm5,%rax
    15b2:	f3 0f 11 95 80 fd ff 	movss  %xmm2,-0x280(%rbp)
    15b9:	ff 
    15ba:	f3 44 0f 11 85 88 fd 	movss  %xmm8,-0x278(%rbp)
    15c1:	ff ff 
    15c3:	f3 0f 11 b5 90 fd ff 	movss  %xmm6,-0x270(%rbp)
    15ca:	ff 
    15cb:	f2 0f 11 bd 98 fd ff 	movsd  %xmm7,-0x268(%rbp)
    15d2:	ff 
    15d3:	3d 00 00 c0 7f       	cmp    $0x7fc00000,%eax
    15d8:	0f 84 1d 01 00 00    	je     16fb <main+0x55b>
    15de:	66 0f 28 c5          	movapd %xmm5,%xmm0
    15e2:	f3 0f 5e 25 2e 1b 00 	divss  0x1b2e(%rip),%xmm4        # 3118 <_IO_stdin_used+0x118>
    15e9:	00 
    15ea:	f2 0f 11 ad 78 fd ff 	movsd  %xmm5,-0x288(%rbp)
    15f1:	ff 
    15f2:	66 0f 7e e3          	movd   %xmm4,%ebx
    15f6:	f2 0f 5e 05 4a 1b 00 	divsd  0x1b4a(%rip),%xmm0        # 3148 <_IO_stdin_used+0x148>
    15fd:	00 
    15fe:	e8 7d fb ff ff       	call   1180 <sqrt@plt>
    1603:	f3 0f 10 b5 90 fd ff 	movss  -0x270(%rbp),%xmm6
    160a:	ff 
    160b:	f3 44 0f 10 85 88 fd 	movss  -0x278(%rbp),%xmm8
    1612:	ff ff 
    1614:	66 0f ef c9          	pxor   %xmm1,%xmm1
    1618:	66 0f ef e4          	pxor   %xmm4,%xmm4
    161c:	f2 0f 10 bd 98 fd ff 	movsd  -0x268(%rbp),%xmm7
    1623:	ff 
    1624:	f3 0f 10 9d 80 fd ff 	movss  -0x280(%rbp),%xmm3
    162b:	ff 
    162c:	f3 41 0f 5c f0       	subss  %xmm8,%xmm6
    1631:	f2 0f 5a c8          	cvtsd2ss %xmm0,%xmm1
    1635:	0f 28 e9             	movaps %xmm1,%xmm5
    1638:	f3 0f 5e ee          	divss  %xmm6,%xmm5
    163c:	66 41 0f 7e ec       	movd   %xmm5,%r12d
    1641:	f2 0f 10 ad 78 fd ff 	movsd  -0x288(%rbp),%xmm5
    1648:	ff 
    1649:	66 0f 2e ec          	ucomisd %xmm4,%xmm5
    164d:	0f 8a af 00 00 00    	jp     1702 <main+0x562>
    1653:	f3 0f 10 25 b9 1a 00 	movss  0x1ab9(%rip),%xmm4        # 3114 <_IO_stdin_used+0x114>
    165a:	00 
    165b:	0f 85 a1 00 00 00    	jne    1702 <main+0x562>
    1661:	48 8d 3d f4 19 00 00 	lea    0x19f4(%rip),%rdi        # 305c <_IO_stdin_used+0x5c>
    1668:	f3 0f 11 9d 88 fd ff 	movss  %xmm3,-0x278(%rbp)
    166f:	ff 
    1670:	f3 0f 11 a5 98 fd ff 	movss  %xmm4,-0x268(%rbp)
    1677:	ff 
    1678:	f3 0f 11 8d 90 fd ff 	movss  %xmm1,-0x270(%rbp)
    167f:	ff 
    1680:	e8 7b fa ff ff       	call   1100 <puts@plt>
    1685:	66 41 0f 6e ec       	movd   %r12d,%xmm5
    168a:	66 0f ef d2          	pxor   %xmm2,%xmm2
    168e:	f3 0f 10 a5 98 fd ff 	movss  -0x268(%rbp),%xmm4
    1695:	ff 
    1696:	f3 0f 10 9d 88 fd ff 	movss  -0x278(%rbp),%xmm3
    169d:	ff 
    169e:	f3 0f 10 8d 90 fd ff 	movss  -0x270(%rbp),%xmm1
    16a5:	ff 
    16a6:	f3 0f 5a d5          	cvtss2sd %xmm5,%xmm2
    16aa:	66 0f ef c0          	pxor   %xmm0,%xmm0
    16ae:	66 0f 6e eb          	movd   %ebx,%xmm5
    16b2:	48 8d 35 07 1a 00 00 	lea    0x1a07(%rip),%rsi        # 30c0 <_IO_stdin_used+0xc0>
    16b9:	bf 01 00 00 00       	mov    $0x1,%edi
    16be:	b8 05 00 00 00       	mov    $0x5,%eax
    16c3:	f3 0f 5a c5          	cvtss2sd %xmm5,%xmm0
    16c7:	f3 0f 5a e4          	cvtss2sd %xmm4,%xmm4
    16cb:	f3 0f 5a db          	cvtss2sd %xmm3,%xmm3
    16cf:	f3 0f 5a c9          	cvtss2sd %xmm1,%xmm1
    16d3:	f2 0f 11 95 98 fd ff 	movsd  %xmm2,-0x268(%rbp)
    16da:	ff 
    16db:	e8 80 fa ff ff       	call   1160 <__printf_chk@plt>
    16e0:	f2 0f 10 05 68 1a 00 	movsd  0x1a68(%rip),%xmm0        # 3150 <_IO_stdin_used+0x150>
    16e7:	00 
    16e8:	f2 0f 10 95 98 fd ff 	movsd  -0x268(%rbp),%xmm2
    16ef:	ff 
    16f0:	66 0f 2f c2          	comisd %xmm2,%xmm0
    16f4:	19 c0                	sbb    %eax,%eax
    16f6:	e9 41 fd ff ff       	jmp    143c <main+0x29c>
    16fb:	31 c0                	xor    %eax,%eax
    16fd:	e9 3a fd ff ff       	jmp    143c <main+0x29c>
    1702:	f2 0f 5e fd          	divsd  %xmm5,%xmm7
    1706:	66 0f ef c0          	pxor   %xmm0,%xmm0
    170a:	f3 0f 11 9d 90 fd ff 	movss  %xmm3,-0x270(%rbp)
    1711:	ff 
    1712:	f3 0f 11 8d 98 fd ff 	movss  %xmm1,-0x268(%rbp)
    1719:	ff 
    171a:	f2 0f 5a c7          	cvtsd2ss %xmm7,%xmm0
    171e:	e8 2d fa ff ff       	call   1150 <log10f@plt>
    1723:	f3 0f 10 25 f1 19 00 	movss  0x19f1(%rip),%xmm4        # 311c <_IO_stdin_used+0x11c>
    172a:	00 
    172b:	f3 0f 10 9d 90 fd ff 	movss  -0x270(%rbp),%xmm3
    1732:	ff 
    1733:	f3 0f 10 8d 98 fd ff 	movss  -0x268(%rbp),%xmm1
    173a:	ff 
    173b:	f3 0f 59 e0          	mulss  %xmm0,%xmm4
    173f:	e9 1d ff ff ff       	jmp    1661 <main+0x4c1>
    1744:	e8 e7 f9 ff ff       	call   1130 <__stack_chk_fail@plt>
    1749:	0f 1f 80 00 00 00 00 	nopl   0x0(%rax)

0000000000001750 <_start>:
    1750:	f3 0f 1e fa          	endbr64 
    1754:	31 ed                	xor    %ebp,%ebp
    1756:	49 89 d1             	mov    %rdx,%r9
    1759:	5e                   	pop    %rsi
    175a:	48 89 e2             	mov    %rsp,%rdx
    175d:	48 83 e4 f0          	and    $0xfffffffffffffff0,%rsp
    1761:	50                   	push   %rax
    1762:	54                   	push   %rsp
    1763:	45 31 c0             	xor    %r8d,%r8d
    1766:	31 c9                	xor    %ecx,%ecx
    1768:	48 8d 3d 31 fa ff ff 	lea    -0x5cf(%rip),%rdi        # 11a0 <main>
    176f:	ff 15 63 38 00 00    	call   *0x3863(%rip)        # 4fd8 <__libc_start_main@GLIBC_2.34>
    1775:	f4                   	hlt    
    1776:	66 2e 0f 1f 84 00 00 	cs nopw 0x0(%rax,%rax,1)
    177d:	00 00 00 

0000000000001780 <deregister_tm_clones>:
    1780:	48 8d 3d 89 38 00 00 	lea    0x3889(%rip),%rdi        # 5010 <__TMC_END__>
    1787:	48 8d 05 82 38 00 00 	lea    0x3882(%rip),%rax        # 5010 <__TMC_END__>
    178e:	48 39 f8             	cmp    %rdi,%rax
    1791:	74 15                	je     17a8 <deregister_tm_clones+0x28>
    1793:	48 8b 05 46 38 00 00 	mov    0x3846(%rip),%rax        # 4fe0 <_ITM_deregisterTMCloneTable@Base>
    179a:	48 85 c0             	test   %rax,%rax
    179d:	74 09                	je     17a8 <deregister_tm_clones+0x28>
    179f:	ff e0                	jmp    *%rax
    17a1:	0f 1f 80 00 00 00 00 	nopl   0x0(%rax)
    17a8:	c3                   	ret    
    17a9:	0f 1f 80 00 00 00 00 	nopl   0x0(%rax)

00000000000017b0 <register_tm_clones>:
    17b0:	48 8d 3d 59 38 00 00 	lea    0x3859(%rip),%rdi        # 5010 <__TMC_END__>
    17b7:	48 8d 35 52 38 00 00 	lea    0x3852(%rip),%rsi        # 5010 <__TMC_END__>
    17be:	48 29 fe             	sub    %rdi,%rsi
    17c1:	48 89 f0             	mov    %rsi,%rax
    17c4:	48 c1 ee 3f          	shr    $0x3f,%rsi
    17c8:	48 c1 f8 03          	sar    $0x3,%rax
    17cc:	48 01 c6             	add    %rax,%rsi
    17cf:	48 d1 fe             	sar    %rsi
    17d2:	74 14                	je     17e8 <register_tm_clones+0x38>
    17d4:	48 8b 05 15 38 00 00 	mov    0x3815(%rip),%rax        # 4ff0 <_ITM_registerTMCloneTable@Base>
    17db:	48 85 c0             	test   %rax,%rax
    17de:	74 08                	je     17e8 <register_tm_clones+0x38>
    17e0:	ff e0                	jmp    *%rax
    17e2:	66 0f 1f 44 00 00    	nopw   0x0(%rax,%rax,1)
    17e8:	c3                   	ret    
    17e9:	0f 1f 80 00 00 00 00 	nopl   0x0(%rax)

00000000000017f0 <__do_global_dtors_aux>:
    17f0:	f3 0f 1e fa          	endbr64 
    17f4:	80 3d 15 38 00 00 00 	cmpb   $0x0,0x3815(%rip)        # 5010 <__TMC_END__>
    17fb:	75 2b                	jne    1828 <__do_global_dtors_aux+0x38>
    17fd:	55                   	push   %rbp
    17fe:	48 83 3d f2 37 00 00 	cmpq   $0x0,0x37f2(%rip)        # 4ff8 <__cxa_finalize@GLIBC_2.2.5>
    1805:	00 
    1806:	48 89 e5             	mov    %rsp,%rbp
    1809:	74 0c                	je     1817 <__do_global_dtors_aux+0x27>
    180b:	48 8b 3d f6 37 00 00 	mov    0x37f6(%rip),%rdi        # 5008 <__dso_handle>
    1812:	e8 c9 f8 ff ff       	call   10e0 <__cxa_finalize@plt>
    1817:	e8 64 ff ff ff       	call   1780 <deregister_tm_clones>
    181c:	c6 05 ed 37 00 00 01 	movb   $0x1,0x37ed(%rip)        # 5010 <__TMC_END__>
    1823:	5d                   	pop    %rbp
    1824:	c3                   	ret    
    1825:	0f 1f 00             	nopl   (%rax)
    1828:	c3                   	ret    
    1829:	0f 1f 80 00 00 00 00 	nopl   0x0(%rax)

0000000000001830 <frame_dummy>:
    1830:	f3 0f 1e fa          	endbr64 
    1834:	e9 77 ff ff ff       	jmp    17b0 <register_tm_clones>
    1839:	0f 1f 80 00 00 00 00 	nopl   0x0(%rax)

0000000000001840 <test_Fread.constprop.0.isra.0>:
    1840:	48 89 d1             	mov    %rdx,%rcx
    1843:	89 f2                	mov    %esi,%edx
    1845:	be 02 00 00 00       	mov    $0x2,%esi
    184a:	e9 c1 f8 ff ff       	jmp    1110 <fread@plt>
    184f:	90                   	nop

0000000000001850 <dump2_q15.isra.0>:
    1850:	89 d1                	mov    %edx,%ecx
    1852:	66 0f ef d2          	pxor   %xmm2,%xmm2
    1856:	c1 ea 03             	shr    $0x3,%edx
    1859:	31 c0                	xor    %eax,%eax
    185b:	48 c1 e2 04          	shl    $0x4,%rdx
    185f:	66 0f 6f da          	movdqa %xmm2,%xmm3
    1863:	0f 1f 44 00 00       	nopl   0x0(%rax,%rax,1)
    1868:	f3 0f 6f 04 06       	movdqu (%rsi,%rax,1),%xmm0
    186d:	f3 0f 6f 24 07       	movdqu (%rdi,%rax,1),%xmm4
    1872:	66 0f 6f cb          	movdqa %xmm3,%xmm1
    1876:	48 83 c0 10          	add    $0x10,%rax
    187a:	66 0f f9 c4          	psubw  %xmm4,%xmm0
    187e:	66 0f f9 c8          	psubw  %xmm0,%xmm1
    1882:	66 0f ee c1          	pmaxsw %xmm1,%xmm0
    1886:	66 0f ee d0          	pmaxsw %xmm0,%xmm2
    188a:	48 39 d0             	cmp    %rdx,%rax
    188d:	75 d9                	jne    1868 <dump2_q15.isra.0+0x18>
    188f:	66 0f 6f c2          	movdqa %xmm2,%xmm0
    1893:	89 c8                	mov    %ecx,%eax
    1895:	66 0f 73 d8 08       	psrldq $0x8,%xmm0
    189a:	83 e0 f8             	and    $0xfffffff8,%eax
    189d:	66 0f ee d0          	pmaxsw %xmm0,%xmm2
    18a1:	41 89 c0             	mov    %eax,%r8d
    18a4:	66 0f 6f c2          	movdqa %xmm2,%xmm0
    18a8:	4d 01 c0             	add    %r8,%r8
    18ab:	66 0f 73 d8 04       	psrldq $0x4,%xmm0
    18b0:	4c 01 c7             	add    %r8,%rdi
    18b3:	4c 01 c6             	add    %r8,%rsi
    18b6:	66 0f ee d0          	pmaxsw %xmm0,%xmm2
    18ba:	66 0f 6f c2          	movdqa %xmm2,%xmm0
    18be:	66 0f 73 d8 02       	psrldq $0x2,%xmm0
    18c3:	66 0f ee d0          	pmaxsw %xmm0,%xmm2
    18c7:	66 0f c5 d2 00       	pextrw $0x0,%xmm2,%edx
    18cc:	39 c1                	cmp    %eax,%ecx
    18ce:	0f 84 02 01 00 00    	je     19d6 <dump2_q15.isra.0+0x186>
    18d4:	44 0f b7 06          	movzwl (%rsi),%r8d
    18d8:	66 44 2b 07          	sub    (%rdi),%r8w
    18dc:	45 89 c1             	mov    %r8d,%r9d
    18df:	66 41 f7 d9          	neg    %r9w
    18e3:	45 0f 49 c1          	cmovns %r9d,%r8d
    18e7:	66 44 39 c2          	cmp    %r8w,%dx
    18eb:	41 0f 4c d0          	cmovl  %r8d,%edx
    18ef:	44 8d 40 01          	lea    0x1(%rax),%r8d
    18f3:	41 39 c8             	cmp    %ecx,%r8d
    18f6:	0f 83 da 00 00 00    	jae    19d6 <dump2_q15.isra.0+0x186>
    18fc:	44 0f b7 46 02       	movzwl 0x2(%rsi),%r8d
    1901:	66 44 2b 47 02       	sub    0x2(%rdi),%r8w
    1906:	45 89 c1             	mov    %r8d,%r9d
    1909:	66 41 f7 d9          	neg    %r9w
    190d:	45 0f 49 c1          	cmovns %r9d,%r8d
    1911:	66 44 39 c2          	cmp    %r8w,%dx
    1915:	41 0f 4c d0          	cmovl  %r8d,%edx
    1919:	44 8d 40 02          	lea    0x2(%rax),%r8d
    191d:	44 39 c1             	cmp    %r8d,%ecx
    1920:	0f 86 b0 00 00 00    	jbe    19d6 <dump2_q15.isra.0+0x186>
    1926:	44 0f b7 46 04       	movzwl 0x4(%rsi),%r8d
    192b:	66 44 2b 47 04       	sub    0x4(%rdi),%r8w
    1930:	45 89 c1             	mov    %r8d,%r9d
    1933:	66 41 f7 d9          	neg    %r9w
    1937:	45 0f 49 c1          	cmovns %r9d,%r8d
    193b:	66 44 39 c2          	cmp    %r8w,%dx
    193f:	41 0f 4c d0          	cmovl  %r8d,%edx
    1943:	44 8d 40 03          	lea    0x3(%rax),%r8d
    1947:	44 39 c1             	cmp    %r8d,%ecx
    194a:	0f 86 86 00 00 00    	jbe    19d6 <dump2_q15.isra.0+0x186>
    1950:	44 0f b7 46 06       	movzwl 0x6(%rsi),%r8d
    1955:	66 44 2b 47 06       	sub    0x6(%rdi),%r8w
    195a:	45 89 c1             	mov    %r8d,%r9d
    195d:	66 41 f7 d9          	neg    %r9w
    1961:	45 0f 49 c1          	cmovns %r9d,%r8d
    1965:	66 44 39 c2          	cmp    %r8w,%dx
    1969:	41 0f 4c d0          	cmovl  %r8d,%edx
    196d:	44 8d 40 04          	lea    0x4(%rax),%r8d
    1971:	44 39 c1             	cmp    %r8d,%ecx
    1974:	76 60                	jbe    19d6 <dump2_q15.isra.0+0x186>
    1976:	44 0f b7 46 08       	movzwl 0x8(%rsi),%r8d
    197b:	66 44 2b 47 08       	sub    0x8(%rdi),%r8w
    1980:	45 89 c1             	mov    %r8d,%r9d
    1983:	66 41 f7 d9          	neg    %r9w
    1987:	45 0f 49 c1          	cmovns %r9d,%r8d
    198b:	66 44 39 c2          	cmp    %r8w,%dx
    198f:	41 0f 4c d0          	cmovl  %r8d,%edx
    1993:	44 8d 40 05          	lea    0x5(%rax),%r8d
    1997:	44 39 c1             	cmp    %r8d,%ecx
    199a:	76 3a                	jbe    19d6 <dump2_q15.isra.0+0x186>
    199c:	44 0f b7 46 0a       	movzwl 0xa(%rsi),%r8d
    19a1:	66 44 2b 47 0a       	sub    0xa(%rdi),%r8w
    19a6:	45 89 c1             	mov    %r8d,%r9d
    19a9:	66 41 f7 d9          	neg    %r9w
    19ad:	45 0f 49 c1          	cmovns %r9d,%r8d
    19b1:	66 44 39 c2          	cmp    %r8w,%dx
    19b5:	41 0f 4c d0          	cmovl  %r8d,%edx
    19b9:	83 c0 06             	add    $0x6,%eax
    19bc:	39 c1                	cmp    %eax,%ecx
    19be:	76 16                	jbe    19d6 <dump2_q15.isra.0+0x186>
    19c0:	0f b7 46 0c          	movzwl 0xc(%rsi),%eax
    19c4:	66 2b 47 0c          	sub    0xc(%rdi),%ax
    19c8:	89 c1                	mov    %eax,%ecx
    19ca:	66 f7 d9             	neg    %cx
    19cd:	0f 49 c1             	cmovns %ecx,%eax
    19d0:	66 39 c2             	cmp    %ax,%dx
    19d3:	0f 4c d0             	cmovl  %eax,%edx
    19d6:	0f bf d2             	movswl %dx,%edx
    19d9:	48 8d 35 24 16 00 00 	lea    0x1624(%rip),%rsi        # 3004 <_IO_stdin_used+0x4>
    19e0:	bf 01 00 00 00       	mov    $0x1,%edi
    19e5:	31 c0                	xor    %eax,%eax
    19e7:	e9 74 f7 ff ff       	jmp    1160 <__printf_chk@plt>
    19ec:	0f 1f 40 00          	nopl   0x0(%rax)

00000000000019f0 <riscv_dsp_convert_q15_f32>:
    19f0:	f3 0f 1e fa          	endbr64 
    19f4:	48 89 f1             	mov    %rsi,%rcx
    19f7:	85 d2                	test   %edx,%edx
    19f9:	0f 84 36 01 00 00    	je     1b35 <riscv_dsp_convert_q15_f32+0x145>
    19ff:	8d 42 ff             	lea    -0x1(%rdx),%eax
    1a02:	83 f8 06             	cmp    $0x6,%eax
    1a05:	0f 86 36 01 00 00    	jbe    1b41 <riscv_dsp_convert_q15_f32+0x151>
    1a0b:	89 d6                	mov    %edx,%esi
    1a0d:	0f 28 1d 4c 17 00 00 	movaps 0x174c(%rip),%xmm3        # 3160 <_IO_stdin_used+0x160>
    1a14:	31 c0                	xor    %eax,%eax
    1a16:	66 0f ef e4          	pxor   %xmm4,%xmm4
    1a1a:	c1 ee 03             	shr    $0x3,%esi
    1a1d:	48 c1 e6 04          	shl    $0x4,%rsi
    1a21:	0f 1f 80 00 00 00 00 	nopl   0x0(%rax)
    1a28:	f3 0f 6f 04 07       	movdqu (%rdi,%rax,1),%xmm0
    1a2d:	66 0f 6f d4          	movdqa %xmm4,%xmm2
    1a31:	66 0f 65 d0          	pcmpgtw %xmm0,%xmm2
    1a35:	66 0f 6f c8          	movdqa %xmm0,%xmm1
    1a39:	66 0f 61 ca          	punpcklwd %xmm2,%xmm1
    1a3d:	66 0f 69 c2          	punpckhwd %xmm2,%xmm0
    1a41:	0f 5b c9             	cvtdq2ps %xmm1,%xmm1
    1a44:	0f 5b c0             	cvtdq2ps %xmm0,%xmm0
    1a47:	0f 59 cb             	mulps  %xmm3,%xmm1
    1a4a:	0f 59 c3             	mulps  %xmm3,%xmm0
    1a4d:	0f 11 0c 41          	movups %xmm1,(%rcx,%rax,2)
    1a51:	0f 11 44 41 10       	movups %xmm0,0x10(%rcx,%rax,2)
    1a56:	48 83 c0 10          	add    $0x10,%rax
    1a5a:	48 39 f0             	cmp    %rsi,%rax
    1a5d:	75 c9                	jne    1a28 <riscv_dsp_convert_q15_f32+0x38>
    1a5f:	89 d6                	mov    %edx,%esi
    1a61:	83 e6 f8             	and    $0xfffffff8,%esi
    1a64:	89 f0                	mov    %esi,%eax
    1a66:	48 8d 3c 47          	lea    (%rdi,%rax,2),%rdi
    1a6a:	48 8d 0c 81          	lea    (%rcx,%rax,4),%rcx
    1a6e:	89 d0                	mov    %edx,%eax
    1a70:	29 f0                	sub    %esi,%eax
    1a72:	39 f2                	cmp    %esi,%edx
    1a74:	0f 84 c6 00 00 00    	je     1b40 <riscv_dsp_convert_q15_f32+0x150>
    1a7a:	0f bf 17             	movswl (%rdi),%edx
    1a7d:	66 0f ef c9          	pxor   %xmm1,%xmm1
    1a81:	f3 0f 10 05 d7 16 00 	movss  0x16d7(%rip),%xmm0        # 3160 <_IO_stdin_used+0x160>
    1a88:	00 
    1a89:	f3 0f 2a ca          	cvtsi2ss %edx,%xmm1
    1a8d:	f3 0f 59 c8          	mulss  %xmm0,%xmm1
    1a91:	f3 0f 11 09          	movss  %xmm1,(%rcx)
    1a95:	83 f8 01             	cmp    $0x1,%eax
    1a98:	0f 84 97 00 00 00    	je     1b35 <riscv_dsp_convert_q15_f32+0x145>
    1a9e:	0f bf 57 02          	movswl 0x2(%rdi),%edx
    1aa2:	66 0f ef c9          	pxor   %xmm1,%xmm1
    1aa6:	f3 0f 2a ca          	cvtsi2ss %edx,%xmm1
    1aaa:	f3 0f 59 c8          	mulss  %xmm0,%xmm1
    1aae:	f3 0f 11 49 04       	movss  %xmm1,0x4(%rcx)
    1ab3:	83 f8 02             	cmp    $0x2,%eax
    1ab6:	74 7d                	je     1b35 <riscv_dsp_convert_q15_f32+0x145>
    1ab8:	0f bf 57 04          	movswl 0x4(%rdi),%edx
    1abc:	66 0f ef c9          	pxor   %xmm1,%xmm1
    1ac0:	f3 0f 2a ca          	cvtsi2ss %edx,%xmm1
    1ac4:	f3 0f 59 c8          	mulss  %xmm0,%xmm1
    1ac8:	f3 0f 11 49 08       	movss  %xmm1,0x8(%rcx)
    1acd:	83 f8 03             	cmp    $0x3,%eax
    1ad0:	74 63                	je     1b35 <riscv_dsp_convert_q15_f32+0x145>
    1ad2:	0f bf 57 06          	movswl 0x6(%rdi),%edx
    1ad6:	66 0f ef c9          	pxor   %xmm1,%xmm1
    1ada:	f3 0f 2a ca          	cvtsi2ss %edx,%xmm1
    1ade:	f3 0f 59 c8          	mulss  %xmm0,%xmm1
    1ae2:	f3 0f 11 49 0c       	movss  %xmm1,0xc(%rcx)
    1ae7:	83 f8 04             	cmp    $0x4,%eax
    1aea:	74 49                	je     1b35 <riscv_dsp_convert_q15_f32+0x145>
    1aec:	0f bf 57 08          	movswl 0x8(%rdi),%edx
    1af0:	66 0f ef c9          	pxor   %xmm1,%xmm1
    1af4:	f3 0f 2a ca          	cvtsi2ss %edx,%xmm1
    1af8:	f3 0f 59 c8          	mulss  %xmm0,%xmm1
    1afc:	f3 0f 11 49 10       	movss  %xmm1,0x10(%rcx)
    1b01:	83 f8 05             	cmp    $0x5,%eax
    1b04:	74 2f                	je     1b35 <riscv_dsp_convert_q15_f32+0x145>
    1b06:	0f bf 57 0a          	movswl 0xa(%rdi),%edx
    1b0a:	66 0f ef c9          	pxor   %xmm1,%xmm1
    1b0e:	f3 0f 2a ca          	cvtsi2ss %edx,%xmm1
    1b12:	f3 0f 59 c8          	mulss  %xmm0,%xmm1
    1b16:	f3 0f 11 49 14       	movss  %xmm1,0x14(%rcx)
    1b1b:	83 f8 06             	cmp    $0x6,%eax
    1b1e:	74 15                	je     1b35 <riscv_dsp_convert_q15_f32+0x145>
    1b20:	0f bf 47 0c          	movswl 0xc(%rdi),%eax
    1b24:	66 0f ef c9          	pxor   %xmm1,%xmm1
    1b28:	f3 0f 2a c8          	cvtsi2ss %eax,%xmm1
    1b2c:	f3 0f 59 c8          	mulss  %xmm0,%xmm1
    1b30:	f3 0f 11 49 18       	movss  %xmm1,0x18(%rcx)
    1b35:	c3                   	ret    
    1b36:	66 2e 0f 1f 84 00 00 	cs nopw 0x0(%rax,%rax,1)
    1b3d:	00 00 00 
    1b40:	c3                   	ret    
    1b41:	89 d0                	mov    %edx,%eax
    1b43:	e9 32 ff ff ff       	jmp    1a7a <riscv_dsp_convert_q15_f32+0x8a>
    1b48:	0f 1f 84 00 00 00 00 	nopl   0x0(%rax,%rax,1)
    1b4f:	00 

0000000000001b50 <riscv_dsp_fir_fast_q15>:
    1b50:	f3 0f 1e fa          	endbr64 
    1b54:	41 57                	push   %r15
    1b56:	41 56                	push   %r14
    1b58:	41 55                	push   %r13
    1b5a:	41 54                	push   %r12
    1b5c:	55                   	push   %rbp
    1b5d:	53                   	push   %rbx
    1b5e:	8b 1f                	mov    (%rdi),%ebx
    1b60:	4c 8b 57 08          	mov    0x8(%rdi),%r10
    1b64:	4c 8b 7f 10          	mov    0x10(%rdi),%r15
    1b68:	8d 43 ff             	lea    -0x1(%rbx),%eax
    1b6b:	89 44 24 c0          	mov    %eax,-0x40(%rsp)
    1b6f:	49 8d 04 42          	lea    (%r10,%rax,2),%rax
    1b73:	48 89 44 24 a0       	mov    %rax,-0x60(%rsp)
    1b78:	89 c8                	mov    %ecx,%eax
    1b7a:	c1 e8 02             	shr    $0x2,%eax
    1b7d:	48 89 74 24 e8       	mov    %rsi,-0x18(%rsp)
    1b82:	48 89 54 24 a8       	mov    %rdx,-0x58(%rsp)
    1b87:	89 4c 24 f4          	mov    %ecx,-0xc(%rsp)
    1b8b:	4c 89 54 24 e0       	mov    %r10,-0x20(%rsp)
    1b90:	89 5c 24 94          	mov    %ebx,-0x6c(%rsp)
    1b94:	0f 84 eb 0a 00 00    	je     2685 <riscv_dsp_fir_fast_q15+0xb35>
    1b9a:	89 c0                	mov    %eax,%eax
    1b9c:	89 df                	mov    %ebx,%edi
    1b9e:	48 89 74 24 98       	mov    %rsi,-0x68(%rsp)
    1ba3:	48 89 44 24 b0       	mov    %rax,-0x50(%rsp)
    1ba8:	89 d8                	mov    %ebx,%eax
    1baa:	83 e7 f8             	and    $0xfffffff8,%edi
    1bad:	c1 e8 03             	shr    $0x3,%eax
    1bb0:	89 fa                	mov    %edi,%edx
    1bb2:	29 fb                	sub    %edi,%ebx
    1bb4:	89 7c 24 c4          	mov    %edi,-0x3c(%rsp)
    1bb8:	83 e8 01             	sub    $0x1,%eax
    1bbb:	48 01 d2             	add    %rdx,%rdx
    1bbe:	89 5c 24 f0          	mov    %ebx,-0x10(%rsp)
    1bc2:	4c 89 d3             	mov    %r10,%rbx
    1bc5:	48 83 c0 01          	add    $0x1,%rax
    1bc9:	48 89 54 24 c8       	mov    %rdx,-0x38(%rsp)
    1bce:	4c 01 fa             	add    %r15,%rdx
    1bd1:	45 31 d2             	xor    %r10d,%r10d
    1bd4:	48 c1 e0 04          	shl    $0x4,%rax
    1bd8:	48 89 54 24 d8       	mov    %rdx,-0x28(%rsp)
    1bdd:	48 89 44 24 d0       	mov    %rax,-0x30(%rsp)
    1be2:	4c 89 7c 24 b8       	mov    %r15,-0x48(%rsp)
    1be7:	49 89 df             	mov    %rbx,%r15
    1bea:	66 0f 1f 44 00 00    	nopw   0x0(%rax,%rax,1)
    1bf0:	48 8b 5c 24 98       	mov    -0x68(%rsp),%rbx
    1bf5:	8b 54 24 94          	mov    -0x6c(%rsp),%edx
    1bf9:	48 8b 03             	mov    (%rbx),%rax
    1bfc:	48 83 c3 08          	add    $0x8,%rbx
    1c00:	48 89 5c 24 98       	mov    %rbx,-0x68(%rsp)
    1c05:	48 8b 5c 24 a0       	mov    -0x60(%rsp),%rbx
    1c0a:	4a 89 04 d3          	mov    %rax,(%rbx,%r10,8)
    1c0e:	85 d2                	test   %edx,%edx
    1c10:	0f 84 f2 09 00 00    	je     2608 <riscv_dsp_fir_fast_q15+0xab8>
    1c16:	83 7c 24 c0 06       	cmpl   $0x6,-0x40(%rsp)
    1c1b:	0f 86 ee 09 00 00    	jbe    260f <riscv_dsp_fir_fast_q15+0xabf>
    1c21:	48 8b 5c 24 d0       	mov    -0x30(%rsp),%rbx
    1c26:	66 0f ef ed          	pxor   %xmm5,%xmm5
    1c2a:	48 8b 54 24 b8       	mov    -0x48(%rsp),%rdx
    1c2f:	4c 89 f8             	mov    %r15,%rax
    1c32:	66 0f 6f e5          	movdqa %xmm5,%xmm4
    1c36:	66 0f 6f dd          	movdqa %xmm5,%xmm3
    1c3a:	66 0f 6f d5          	movdqa %xmm5,%xmm2
    1c3e:	4a 8d 0c 3b          	lea    (%rbx,%r15,1),%rcx
    1c42:	66 0f 1f 44 00 00    	nopw   0x0(%rax,%rax,1)
    1c48:	f3 0f 6f 02          	movdqu (%rdx),%xmm0
    1c4c:	f3 0f 6f 08          	movdqu (%rax),%xmm1
    1c50:	48 83 c0 10          	add    $0x10,%rax
    1c54:	48 83 c2 10          	add    $0x10,%rdx
    1c58:	f3 0f 6f 70 f6       	movdqu -0xa(%rax),%xmm6
    1c5d:	66 0f f5 c8          	pmaddwd %xmm0,%xmm1
    1c61:	66 0f fe d1          	paddd  %xmm1,%xmm2
    1c65:	f3 0f 6f 48 f2       	movdqu -0xe(%rax),%xmm1
    1c6a:	66 0f f5 c8          	pmaddwd %xmm0,%xmm1
    1c6e:	66 0f fe d9          	paddd  %xmm1,%xmm3
    1c72:	f3 0f 6f 48 f4       	movdqu -0xc(%rax),%xmm1
    1c77:	66 0f f5 c8          	pmaddwd %xmm0,%xmm1
    1c7b:	66 0f f5 c6          	pmaddwd %xmm6,%xmm0
    1c7f:	66 0f fe e1          	paddd  %xmm1,%xmm4
    1c83:	66 0f fe e8          	paddd  %xmm0,%xmm5
    1c87:	48 39 c1             	cmp    %rax,%rcx
    1c8a:	75 bc                	jne    1c48 <riscv_dsp_fir_fast_q15+0xf8>
    1c8c:	66 0f 6f c5          	movdqa %xmm5,%xmm0
    1c90:	48 8b 5c 24 c8       	mov    -0x38(%rsp),%rbx
    1c95:	44 8b 4c 24 c4       	mov    -0x3c(%rsp),%r9d
    1c9a:	66 0f 73 d8 08       	psrldq $0x8,%xmm0
    1c9f:	66 0f fe e8          	paddd  %xmm0,%xmm5
    1ca3:	49 8d 3c 1f          	lea    (%r15,%rbx,1),%rdi
    1ca7:	66 0f 6f c5          	movdqa %xmm5,%xmm0
    1cab:	66 0f 73 d8 04       	psrldq $0x4,%xmm0
    1cb0:	66 0f fe e8          	paddd  %xmm0,%xmm5
    1cb4:	66 0f 6f c4          	movdqa %xmm4,%xmm0
    1cb8:	66 0f 73 d8 08       	psrldq $0x8,%xmm0
    1cbd:	66 0f 7e e8          	movd   %xmm5,%eax
    1cc1:	66 0f fe e0          	paddd  %xmm0,%xmm4
    1cc5:	66 0f 6f c4          	movdqa %xmm4,%xmm0
    1cc9:	66 0f 73 d8 04       	psrldq $0x4,%xmm0
    1cce:	66 0f fe e0          	paddd  %xmm0,%xmm4
    1cd2:	66 0f 6f c3          	movdqa %xmm3,%xmm0
    1cd6:	66 0f 73 d8 08       	psrldq $0x8,%xmm0
    1cdb:	66 0f 7e e6          	movd   %xmm4,%esi
    1cdf:	66 0f fe d8          	paddd  %xmm0,%xmm3
    1ce3:	66 0f 6f c3          	movdqa %xmm3,%xmm0
    1ce7:	66 0f 73 d8 04       	psrldq $0x4,%xmm0
    1cec:	66 0f fe d8          	paddd  %xmm0,%xmm3
    1cf0:	66 0f 6f c2          	movdqa %xmm2,%xmm0
    1cf4:	66 0f 73 d8 08       	psrldq $0x8,%xmm0
    1cf9:	66 0f 7e d9          	movd   %xmm3,%ecx
    1cfd:	66 0f fe d0          	paddd  %xmm0,%xmm2
    1d01:	66 0f 6f c2          	movdqa %xmm2,%xmm0
    1d05:	66 0f 73 d8 04       	psrldq $0x4,%xmm0
    1d0a:	66 0f fe d0          	paddd  %xmm0,%xmm2
    1d0e:	66 0f 7e d2          	movd   %xmm2,%edx
    1d12:	44 39 4c 24 94       	cmp    %r9d,-0x6c(%rsp)
    1d17:	0f 84 a2 05 00 00    	je     22bf <riscv_dsp_fir_fast_q15+0x76f>
    1d1d:	44 8b 4c 24 f0       	mov    -0x10(%rsp),%r9d
    1d22:	4c 8b 44 24 d8       	mov    -0x28(%rsp),%r8
    1d27:	45 8d 59 ff          	lea    -0x1(%r9),%r11d
    1d2b:	41 83 fb 02          	cmp    $0x2,%r11d
    1d2f:	0f 86 fd 08 00 00    	jbe    2632 <riscv_dsp_fir_fast_q15+0xae2>
    1d35:	45 0f bf 28          	movswl (%r8),%r13d
    1d39:	44 0f bf 1f          	movswl (%rdi),%r11d
    1d3d:	0f bf 5f 02          	movswl 0x2(%rdi),%ebx
    1d41:	44 0f bf 77 06       	movswl 0x6(%rdi),%r14d
    1d46:	45 0f af dd          	imul   %r13d,%r11d
    1d4a:	44 89 ed             	mov    %r13d,%ebp
    1d4d:	45 89 ec             	mov    %r13d,%r12d
    1d50:	0f af eb             	imul   %ebx,%ebp
    1d53:	45 0f af ee          	imul   %r14d,%r13d
    1d57:	41 01 d3             	add    %edx,%r11d
    1d5a:	0f bf 57 04          	movswl 0x4(%rdi),%edx
    1d5e:	01 cd                	add    %ecx,%ebp
    1d60:	41 0f bf 48 02       	movswl 0x2(%r8),%ecx
    1d65:	44 0f af e2          	imul   %edx,%r12d
    1d69:	44 01 e8             	add    %r13d,%eax
    1d6c:	44 0f bf 6f 0a       	movswl 0xa(%rdi),%r13d
    1d71:	0f af d9             	imul   %ecx,%ebx
    1d74:	41 01 f4             	add    %esi,%r12d
    1d77:	89 d6                	mov    %edx,%esi
    1d79:	0f af f1             	imul   %ecx,%esi
    1d7c:	44 01 db             	add    %r11d,%ebx
    1d7f:	01 ee                	add    %ebp,%esi
    1d81:	44 89 f5             	mov    %r14d,%ebp
    1d84:	0f af e9             	imul   %ecx,%ebp
    1d87:	44 01 e5             	add    %r12d,%ebp
    1d8a:	44 0f bf 67 08       	movswl 0x8(%rdi),%r12d
    1d8f:	41 0f af cc          	imul   %r12d,%ecx
    1d93:	44 8d 1c 01          	lea    (%rcx,%rax,1),%r11d
    1d97:	41 0f bf 40 04       	movswl 0x4(%r8),%eax
    1d9c:	44 89 f1             	mov    %r14d,%ecx
    1d9f:	0f af c8             	imul   %eax,%ecx
    1da2:	0f af d0             	imul   %eax,%edx
    1da5:	01 f1                	add    %esi,%ecx
    1da7:	44 89 e6             	mov    %r12d,%esi
    1daa:	0f af f0             	imul   %eax,%esi
    1dad:	01 da                	add    %ebx,%edx
    1daf:	49 8d 58 06          	lea    0x6(%r8),%rbx
    1db3:	41 0f af c5          	imul   %r13d,%eax
    1db7:	01 ee                	add    %ebp,%esi
    1db9:	41 8d 69 fd          	lea    -0x3(%r9),%ebp
    1dbd:	89 6c 24 88          	mov    %ebp,-0x78(%rsp)
    1dc1:	41 8d 69 fc          	lea    -0x4(%r9),%ebp
    1dc5:	44 01 d8             	add    %r11d,%eax
    1dc8:	4c 8d 5f 06          	lea    0x6(%rdi),%r11
    1dcc:	83 fd 02             	cmp    $0x2,%ebp
    1dcf:	0f 86 83 03 00 00    	jbe    2158 <riscv_dsp_fir_fast_q15+0x608>
    1dd5:	41 0f bf 68 06       	movswl 0x6(%r8),%ebp
    1dda:	44 89 e3             	mov    %r12d,%ebx
    1ddd:	45 89 eb             	mov    %r13d,%r11d
    1de0:	0f af dd             	imul   %ebp,%ebx
    1de3:	44 0f af dd          	imul   %ebp,%r11d
    1de7:	44 0f af f5          	imul   %ebp,%r14d
    1deb:	01 cb                	add    %ecx,%ebx
    1ded:	41 0f bf 48 08       	movswl 0x8(%r8),%ecx
    1df2:	41 01 f3             	add    %esi,%r11d
    1df5:	44 89 ee             	mov    %r13d,%esi
    1df8:	44 0f af e1          	imul   %ecx,%r12d
    1dfc:	44 01 f2             	add    %r14d,%edx
    1dff:	44 0f bf 77 0c       	movswl 0xc(%rdi),%r14d
    1e04:	0f af f1             	imul   %ecx,%esi
    1e07:	41 0f af ee          	imul   %r14d,%ebp
    1e0b:	44 01 e2             	add    %r12d,%edx
    1e0e:	44 0f bf 67 0e       	movswl 0xe(%rdi),%r12d
    1e13:	01 de                	add    %ebx,%esi
    1e15:	44 89 f3             	mov    %r14d,%ebx
    1e18:	0f af d9             	imul   %ecx,%ebx
    1e1b:	01 e8                	add    %ebp,%eax
    1e1d:	41 8d 69 fa          	lea    -0x6(%r9),%ebp
    1e21:	41 0f af cc          	imul   %r12d,%ecx
    1e25:	89 6c 24 88          	mov    %ebp,-0x78(%rsp)
    1e29:	41 8d 69 f9          	lea    -0x7(%r9),%ebp
    1e2d:	44 01 db             	add    %r11d,%ebx
    1e30:	44 8d 1c 01          	lea    (%rcx,%rax,1),%r11d
    1e34:	41 0f bf 40 0a       	movswl 0xa(%r8),%eax
    1e39:	44 89 f1             	mov    %r14d,%ecx
    1e3c:	44 0f af e8          	imul   %eax,%r13d
    1e40:	0f af c8             	imul   %eax,%ecx
    1e43:	44 01 ea             	add    %r13d,%edx
    1e46:	44 0f bf 6f 10       	movswl 0x10(%rdi),%r13d
    1e4b:	01 f1                	add    %esi,%ecx
    1e4d:	44 89 e6             	mov    %r12d,%esi
    1e50:	0f af f0             	imul   %eax,%esi
    1e53:	41 0f af c5          	imul   %r13d,%eax
    1e57:	01 de                	add    %ebx,%esi
    1e59:	49 8d 58 0c          	lea    0xc(%r8),%rbx
    1e5d:	44 01 d8             	add    %r11d,%eax
    1e60:	4c 8d 5f 0c          	lea    0xc(%rdi),%r11
    1e64:	83 fd 02             	cmp    $0x2,%ebp
    1e67:	0f 86 eb 02 00 00    	jbe    2158 <riscv_dsp_fir_fast_q15+0x608>
    1e6d:	41 0f bf 68 0c       	movswl 0xc(%r8),%ebp
    1e72:	44 89 e3             	mov    %r12d,%ebx
    1e75:	45 89 eb             	mov    %r13d,%r11d
    1e78:	0f af dd             	imul   %ebp,%ebx
    1e7b:	44 0f af dd          	imul   %ebp,%r11d
    1e7f:	44 0f af f5          	imul   %ebp,%r14d
    1e83:	01 cb                	add    %ecx,%ebx
    1e85:	41 0f bf 48 0e       	movswl 0xe(%r8),%ecx
    1e8a:	41 01 f3             	add    %esi,%r11d
    1e8d:	44 89 ee             	mov    %r13d,%esi
    1e90:	44 0f af e1          	imul   %ecx,%r12d
    1e94:	44 01 f2             	add    %r14d,%edx
    1e97:	44 0f bf 77 12       	movswl 0x12(%rdi),%r14d
    1e9c:	0f af f1             	imul   %ecx,%esi
    1e9f:	41 0f af ee          	imul   %r14d,%ebp
    1ea3:	44 01 e2             	add    %r12d,%edx
    1ea6:	44 0f bf 67 14       	movswl 0x14(%rdi),%r12d
    1eab:	01 de                	add    %ebx,%esi
    1ead:	44 89 f3             	mov    %r14d,%ebx
    1eb0:	0f af d9             	imul   %ecx,%ebx
    1eb3:	01 e8                	add    %ebp,%eax
    1eb5:	41 8d 69 f7          	lea    -0x9(%r9),%ebp
    1eb9:	41 0f af cc          	imul   %r12d,%ecx
    1ebd:	89 6c 24 88          	mov    %ebp,-0x78(%rsp)
    1ec1:	41 8d 69 f6          	lea    -0xa(%r9),%ebp
    1ec5:	44 01 db             	add    %r11d,%ebx
    1ec8:	44 8d 1c 01          	lea    (%rcx,%rax,1),%r11d
    1ecc:	41 0f bf 40 10       	movswl 0x10(%r8),%eax
    1ed1:	44 89 f1             	mov    %r14d,%ecx
    1ed4:	44 0f af e8          	imul   %eax,%r13d
    1ed8:	0f af c8             	imul   %eax,%ecx
    1edb:	44 01 ea             	add    %r13d,%edx
    1ede:	44 0f bf 6f 16       	movswl 0x16(%rdi),%r13d
    1ee3:	01 f1                	add    %esi,%ecx
    1ee5:	44 89 e6             	mov    %r12d,%esi
    1ee8:	0f af f0             	imul   %eax,%esi
    1eeb:	41 0f af c5          	imul   %r13d,%eax
    1eef:	01 de                	add    %ebx,%esi
    1ef1:	49 8d 58 12          	lea    0x12(%r8),%rbx
    1ef5:	44 01 d8             	add    %r11d,%eax
    1ef8:	4c 8d 5f 12          	lea    0x12(%rdi),%r11
    1efc:	83 fd 02             	cmp    $0x2,%ebp
    1eff:	0f 86 53 02 00 00    	jbe    2158 <riscv_dsp_fir_fast_q15+0x608>
    1f05:	41 0f bf 68 12       	movswl 0x12(%r8),%ebp
    1f0a:	44 89 e3             	mov    %r12d,%ebx
    1f0d:	45 89 eb             	mov    %r13d,%r11d
    1f10:	0f af dd             	imul   %ebp,%ebx
    1f13:	44 0f af dd          	imul   %ebp,%r11d
    1f17:	44 0f af f5          	imul   %ebp,%r14d
    1f1b:	01 cb                	add    %ecx,%ebx
    1f1d:	41 0f bf 48 14       	movswl 0x14(%r8),%ecx
    1f22:	41 01 f3             	add    %esi,%r11d
    1f25:	44 89 ee             	mov    %r13d,%esi
    1f28:	44 0f af e1          	imul   %ecx,%r12d
    1f2c:	44 01 f2             	add    %r14d,%edx
    1f2f:	44 0f bf 77 18       	movswl 0x18(%rdi),%r14d
    1f34:	0f af f1             	imul   %ecx,%esi
    1f37:	41 0f af ee          	imul   %r14d,%ebp
    1f3b:	44 01 e2             	add    %r12d,%edx
    1f3e:	44 0f bf 67 1a       	movswl 0x1a(%rdi),%r12d
    1f43:	01 de                	add    %ebx,%esi
    1f45:	44 89 f3             	mov    %r14d,%ebx
    1f48:	0f af d9             	imul   %ecx,%ebx
    1f4b:	01 e8                	add    %ebp,%eax
    1f4d:	41 8d 69 f4          	lea    -0xc(%r9),%ebp
    1f51:	41 0f af cc          	imul   %r12d,%ecx
    1f55:	89 6c 24 88          	mov    %ebp,-0x78(%rsp)
    1f59:	41 8d 69 f3          	lea    -0xd(%r9),%ebp
    1f5d:	44 01 db             	add    %r11d,%ebx
    1f60:	44 8d 1c 01          	lea    (%rcx,%rax,1),%r11d
    1f64:	41 0f bf 40 16       	movswl 0x16(%r8),%eax
    1f69:	44 89 f1             	mov    %r14d,%ecx
    1f6c:	44 0f af e8          	imul   %eax,%r13d
    1f70:	0f af c8             	imul   %eax,%ecx
    1f73:	44 01 ea             	add    %r13d,%edx
    1f76:	44 0f bf 6f 1c       	movswl 0x1c(%rdi),%r13d
    1f7b:	01 f1                	add    %esi,%ecx
    1f7d:	44 89 e6             	mov    %r12d,%esi
    1f80:	0f af f0             	imul   %eax,%esi
    1f83:	41 0f af c5          	imul   %r13d,%eax
    1f87:	01 de                	add    %ebx,%esi
    1f89:	49 8d 58 18          	lea    0x18(%r8),%rbx
    1f8d:	44 01 d8             	add    %r11d,%eax
    1f90:	4c 8d 5f 18          	lea    0x18(%rdi),%r11
    1f94:	83 fd 02             	cmp    $0x2,%ebp
    1f97:	0f 86 bb 01 00 00    	jbe    2158 <riscv_dsp_fir_fast_q15+0x608>
    1f9d:	41 0f bf 68 18       	movswl 0x18(%r8),%ebp
    1fa2:	44 89 e3             	mov    %r12d,%ebx
    1fa5:	45 89 eb             	mov    %r13d,%r11d
    1fa8:	0f af dd             	imul   %ebp,%ebx
    1fab:	44 0f af dd          	imul   %ebp,%r11d
    1faf:	44 0f af f5          	imul   %ebp,%r14d
    1fb3:	01 cb                	add    %ecx,%ebx
    1fb5:	41 0f bf 48 1a       	movswl 0x1a(%r8),%ecx
    1fba:	41 01 f3             	add    %esi,%r11d
    1fbd:	44 89 ee             	mov    %r13d,%esi
    1fc0:	44 0f af e1          	imul   %ecx,%r12d
    1fc4:	44 01 f2             	add    %r14d,%edx
    1fc7:	44 0f bf 77 1e       	movswl 0x1e(%rdi),%r14d
    1fcc:	0f af f1             	imul   %ecx,%esi
    1fcf:	41 0f af ee          	imul   %r14d,%ebp
    1fd3:	44 01 e2             	add    %r12d,%edx
    1fd6:	44 0f bf 67 20       	movswl 0x20(%rdi),%r12d
    1fdb:	01 de                	add    %ebx,%esi
    1fdd:	44 89 f3             	mov    %r14d,%ebx
    1fe0:	0f af d9             	imul   %ecx,%ebx
    1fe3:	01 e8                	add    %ebp,%eax
    1fe5:	41 8d 69 f1          	lea    -0xf(%r9),%ebp
    1fe9:	41 0f af cc          	imul   %r12d,%ecx
    1fed:	89 6c 24 88          	mov    %ebp,-0x78(%rsp)
    1ff1:	41 8d 69 f0          	lea    -0x10(%r9),%ebp
    1ff5:	44 01 db             	add    %r11d,%ebx
    1ff8:	44 8d 1c 01          	lea    (%rcx,%rax,1),%r11d
    1ffc:	41 0f bf 40 1c       	movswl 0x1c(%r8),%eax
    2001:	44 89 f1             	mov    %r14d,%ecx
    2004:	44 0f af e8          	imul   %eax,%r13d
    2008:	0f af c8             	imul   %eax,%ecx
    200b:	44 01 ea             	add    %r13d,%edx
    200e:	44 0f bf 6f 22       	movswl 0x22(%rdi),%r13d
    2013:	01 f1                	add    %esi,%ecx
    2015:	44 89 e6             	mov    %r12d,%esi
    2018:	0f af f0             	imul   %eax,%esi
    201b:	41 0f af c5          	imul   %r13d,%eax
    201f:	01 de                	add    %ebx,%esi
    2021:	49 8d 58 1e          	lea    0x1e(%r8),%rbx
    2025:	44 01 d8             	add    %r11d,%eax
    2028:	4c 8d 5f 1e          	lea    0x1e(%rdi),%r11
    202c:	83 fd 02             	cmp    $0x2,%ebp
    202f:	0f 86 23 01 00 00    	jbe    2158 <riscv_dsp_fir_fast_q15+0x608>
    2035:	41 0f bf 68 1e       	movswl 0x1e(%r8),%ebp
    203a:	44 89 e3             	mov    %r12d,%ebx
    203d:	45 89 eb             	mov    %r13d,%r11d
    2040:	0f af dd             	imul   %ebp,%ebx
    2043:	44 0f af dd          	imul   %ebp,%r11d
    2047:	44 0f af f5          	imul   %ebp,%r14d
    204b:	01 cb                	add    %ecx,%ebx
    204d:	41 0f bf 48 20       	movswl 0x20(%r8),%ecx
    2052:	41 01 f3             	add    %esi,%r11d
    2055:	44 89 ee             	mov    %r13d,%esi
    2058:	44 0f af e1          	imul   %ecx,%r12d
    205c:	44 01 f2             	add    %r14d,%edx
    205f:	44 0f bf 77 24       	movswl 0x24(%rdi),%r14d
    2064:	0f af f1             	imul   %ecx,%esi
    2067:	41 0f af ee          	imul   %r14d,%ebp
    206b:	44 01 e2             	add    %r12d,%edx
    206e:	44 0f bf 67 26       	movswl 0x26(%rdi),%r12d
    2073:	01 de                	add    %ebx,%esi
    2075:	44 89 f3             	mov    %r14d,%ebx
    2078:	0f af d9             	imul   %ecx,%ebx
    207b:	01 e8                	add    %ebp,%eax
    207d:	41 8d 69 ee          	lea    -0x12(%r9),%ebp
    2081:	41 0f af cc          	imul   %r12d,%ecx
    2085:	89 6c 24 88          	mov    %ebp,-0x78(%rsp)
    2089:	41 8d 69 ed          	lea    -0x13(%r9),%ebp
    208d:	44 01 db             	add    %r11d,%ebx
    2090:	44 8d 1c 01          	lea    (%rcx,%rax,1),%r11d
    2094:	41 0f bf 40 22       	movswl 0x22(%r8),%eax
    2099:	44 89 f1             	mov    %r14d,%ecx
    209c:	44 0f af e8          	imul   %eax,%r13d
    20a0:	0f af c8             	imul   %eax,%ecx
    20a3:	44 01 ea             	add    %r13d,%edx
    20a6:	44 0f bf 6f 28       	movswl 0x28(%rdi),%r13d
    20ab:	01 f1                	add    %esi,%ecx
    20ad:	44 89 e6             	mov    %r12d,%esi
    20b0:	0f af f0             	imul   %eax,%esi
    20b3:	41 0f af c5          	imul   %r13d,%eax
    20b7:	01 de                	add    %ebx,%esi
    20b9:	49 8d 58 24          	lea    0x24(%r8),%rbx
    20bd:	44 01 d8             	add    %r11d,%eax
    20c0:	4c 8d 5f 24          	lea    0x24(%rdi),%r11
    20c4:	83 fd 02             	cmp    $0x2,%ebp
    20c7:	0f 86 8b 00 00 00    	jbe    2158 <riscv_dsp_fir_fast_q15+0x608>
    20cd:	45 0f bf 58 24       	movswl 0x24(%r8),%r11d
    20d2:	41 0f bf 68 26       	movswl 0x26(%r8),%ebp
    20d7:	44 89 db             	mov    %r11d,%ebx
    20da:	45 0f af f3          	imul   %r11d,%r14d
    20de:	41 0f af dc          	imul   %r12d,%ebx
    20e2:	44 0f af e5          	imul   %ebp,%r12d
    20e6:	44 01 f2             	add    %r14d,%edx
    20e9:	01 cb                	add    %ecx,%ebx
    20eb:	44 89 d9             	mov    %r11d,%ecx
    20ee:	41 0f af cd          	imul   %r13d,%ecx
    20f2:	01 ce                	add    %ecx,%esi
    20f4:	0f bf 4f 2a          	movswl 0x2a(%rdi),%ecx
    20f8:	44 0f af d9          	imul   %ecx,%r11d
    20fc:	41 01 c3             	add    %eax,%r11d
    20ff:	41 8d 04 14          	lea    (%r12,%rdx,1),%eax
    2103:	89 ea                	mov    %ebp,%edx
    2105:	41 0f af d5          	imul   %r13d,%edx
    2109:	01 d3                	add    %edx,%ebx
    210b:	89 ea                	mov    %ebp,%edx
    210d:	0f af d1             	imul   %ecx,%edx
    2110:	44 8d 24 32          	lea    (%rdx,%rsi,1),%r12d
    2114:	0f bf 77 2c          	movswl 0x2c(%rdi),%esi
    2118:	0f af ee             	imul   %esi,%ebp
    211b:	44 01 dd             	add    %r11d,%ebp
    211e:	45 0f bf 58 28       	movswl 0x28(%r8),%r11d
    2123:	45 0f af eb          	imul   %r11d,%r13d
    2127:	41 0f af cb          	imul   %r11d,%ecx
    212b:	41 0f af f3          	imul   %r11d,%esi
    212f:	41 8d 54 05 00       	lea    0x0(%r13,%rax,1),%edx
    2134:	0f bf 47 2e          	movswl 0x2e(%rdi),%eax
    2138:	01 d9                	add    %ebx,%ecx
    213a:	49 8d 58 2a          	lea    0x2a(%r8),%rbx
    213e:	41 0f af c3          	imul   %r11d,%eax
    2142:	4c 8d 5f 2a          	lea    0x2a(%rdi),%r11
    2146:	44 01 e6             	add    %r12d,%esi
    2149:	41 8d 79 eb          	lea    -0x15(%r9),%edi
    214d:	89 7c 24 88          	mov    %edi,-0x78(%rsp)
    2151:	01 e8                	add    %ebp,%eax
    2153:	0f 1f 44 00 00       	nopl   0x0(%rax,%rax,1)
    2158:	0f bf 3b             	movswl (%rbx),%edi
    215b:	45 0f bf 03          	movswl (%r11),%r8d
    215f:	45 0f bf 63 02       	movswl 0x2(%r11),%r12d
    2164:	45 0f bf 4b 04       	movswl 0x4(%r11),%r9d
    2169:	44 0f af c7          	imul   %edi,%r8d
    216d:	44 8b 74 24 88       	mov    -0x78(%rsp),%r14d
    2172:	44 01 c2             	add    %r8d,%edx
    2175:	41 89 f8             	mov    %edi,%r8d
    2178:	45 0f af c4          	imul   %r12d,%r8d
    217c:	44 01 c1             	add    %r8d,%ecx
    217f:	41 89 f8             	mov    %edi,%r8d
    2182:	45 0f af c1          	imul   %r9d,%r8d
    2186:	44 01 c6             	add    %r8d,%esi
    2189:	45 0f bf 43 06       	movswl 0x6(%r11),%r8d
    218e:	41 0f af f8          	imul   %r8d,%edi
    2192:	01 f8                	add    %edi,%eax
    2194:	41 83 fe 01          	cmp    $0x1,%r14d
    2198:	0f 84 21 01 00 00    	je     22bf <riscv_dsp_fir_fast_q15+0x76f>
    219e:	0f bf 7b 02          	movswl 0x2(%rbx),%edi
    21a2:	44 0f af e7          	imul   %edi,%r12d
    21a6:	44 01 e2             	add    %r12d,%edx
    21a9:	45 89 cc             	mov    %r9d,%r12d
    21ac:	44 0f af e7          	imul   %edi,%r12d
    21b0:	44 01 e1             	add    %r12d,%ecx
    21b3:	45 89 c4             	mov    %r8d,%r12d
    21b6:	44 0f af e7          	imul   %edi,%r12d
    21ba:	44 01 e6             	add    %r12d,%esi
    21bd:	45 0f bf 63 08       	movswl 0x8(%r11),%r12d
    21c2:	41 0f af fc          	imul   %r12d,%edi
    21c6:	01 f8                	add    %edi,%eax
    21c8:	41 83 fe 02          	cmp    $0x2,%r14d
    21cc:	0f 84 ed 00 00 00    	je     22bf <riscv_dsp_fir_fast_q15+0x76f>
    21d2:	0f bf 7b 04          	movswl 0x4(%rbx),%edi
    21d6:	44 0f af cf          	imul   %edi,%r9d
    21da:	44 01 ca             	add    %r9d,%edx
    21dd:	45 89 c1             	mov    %r8d,%r9d
    21e0:	44 0f af cf          	imul   %edi,%r9d
    21e4:	44 01 c9             	add    %r9d,%ecx
    21e7:	45 89 e1             	mov    %r12d,%r9d
    21ea:	44 0f af cf          	imul   %edi,%r9d
    21ee:	44 01 ce             	add    %r9d,%esi
    21f1:	45 0f bf 4b 0a       	movswl 0xa(%r11),%r9d
    21f6:	41 0f af f9          	imul   %r9d,%edi
    21fa:	01 f8                	add    %edi,%eax
    21fc:	41 83 fe 03          	cmp    $0x3,%r14d
    2200:	0f 84 b9 00 00 00    	je     22bf <riscv_dsp_fir_fast_q15+0x76f>
    2206:	0f bf 7b 06          	movswl 0x6(%rbx),%edi
    220a:	44 0f af c7          	imul   %edi,%r8d
    220e:	44 01 c2             	add    %r8d,%edx
    2211:	45 89 e0             	mov    %r12d,%r8d
    2214:	44 0f af c7          	imul   %edi,%r8d
    2218:	44 01 c1             	add    %r8d,%ecx
    221b:	45 89 c8             	mov    %r9d,%r8d
    221e:	44 0f af c7          	imul   %edi,%r8d
    2222:	44 01 c6             	add    %r8d,%esi
    2225:	45 0f bf 43 0c       	movswl 0xc(%r11),%r8d
    222a:	41 0f af f8          	imul   %r8d,%edi
    222e:	01 f8                	add    %edi,%eax
    2230:	41 83 fe 04          	cmp    $0x4,%r14d
    2234:	0f 84 85 00 00 00    	je     22bf <riscv_dsp_fir_fast_q15+0x76f>
    223a:	0f bf 7b 08          	movswl 0x8(%rbx),%edi
    223e:	44 0f af e7          	imul   %edi,%r12d
    2242:	44 01 e2             	add    %r12d,%edx
    2245:	45 89 cc             	mov    %r9d,%r12d
    2248:	44 0f af e7          	imul   %edi,%r12d
    224c:	44 01 e1             	add    %r12d,%ecx
    224f:	45 89 c4             	mov    %r8d,%r12d
    2252:	44 0f af e7          	imul   %edi,%r12d
    2256:	44 01 e6             	add    %r12d,%esi
    2259:	45 0f bf 63 0e       	movswl 0xe(%r11),%r12d
    225e:	41 0f af fc          	imul   %r12d,%edi
    2262:	01 f8                	add    %edi,%eax
    2264:	41 83 fe 05          	cmp    $0x5,%r14d
    2268:	74 55                	je     22bf <riscv_dsp_fir_fast_q15+0x76f>
    226a:	0f bf 7b 0a          	movswl 0xa(%rbx),%edi
    226e:	44 0f af cf          	imul   %edi,%r9d
    2272:	44 01 ca             	add    %r9d,%edx
    2275:	45 89 c1             	mov    %r8d,%r9d
    2278:	44 0f af cf          	imul   %edi,%r9d
    227c:	44 01 c9             	add    %r9d,%ecx
    227f:	45 89 e1             	mov    %r12d,%r9d
    2282:	44 0f af cf          	imul   %edi,%r9d
    2286:	44 01 ce             	add    %r9d,%esi
    2289:	45 0f bf 4b 10       	movswl 0x10(%r11),%r9d
    228e:	41 0f af f9          	imul   %r9d,%edi
    2292:	01 f8                	add    %edi,%eax
    2294:	41 83 fe 06          	cmp    $0x6,%r14d
    2298:	74 25                	je     22bf <riscv_dsp_fir_fast_q15+0x76f>
    229a:	0f bf 7b 0c          	movswl 0xc(%rbx),%edi
    229e:	44 0f af c7          	imul   %edi,%r8d
    22a2:	44 0f af e7          	imul   %edi,%r12d
    22a6:	44 0f af cf          	imul   %edi,%r9d
    22aa:	44 01 c2             	add    %r8d,%edx
    22ad:	45 0f bf 43 12       	movswl 0x12(%r11),%r8d
    22b2:	44 01 e1             	add    %r12d,%ecx
    22b5:	44 0f af c7          	imul   %edi,%r8d
    22b9:	44 01 ce             	add    %r9d,%esi
    22bc:	44 01 c0             	add    %r8d,%eax
    22bf:	bf 00 80 ff ff       	mov    $0xffff8000,%edi
    22c4:	c1 fa 0f             	sar    $0xf,%edx
    22c7:	39 fa                	cmp    %edi,%edx
    22c9:	0f 4c d7             	cmovl  %edi,%edx
    22cc:	bf ff 7f 00 00       	mov    $0x7fff,%edi
    22d1:	39 fa                	cmp    %edi,%edx
    22d3:	0f 4f d7             	cmovg  %edi,%edx
    22d6:	bf 00 80 ff ff       	mov    $0xffff8000,%edi
    22db:	c1 f9 0f             	sar    $0xf,%ecx
    22de:	39 f9                	cmp    %edi,%ecx
    22e0:	0f 4c cf             	cmovl  %edi,%ecx
    22e3:	bf ff 7f 00 00       	mov    $0x7fff,%edi
    22e8:	0f b7 d2             	movzwl %dx,%edx
    22eb:	39 f9                	cmp    %edi,%ecx
    22ed:	0f 4f cf             	cmovg  %edi,%ecx
    22f0:	bf 00 80 ff ff       	mov    $0xffff8000,%edi
    22f5:	c1 fe 0f             	sar    $0xf,%esi
    22f8:	39 fe                	cmp    %edi,%esi
    22fa:	0f 4c f7             	cmovl  %edi,%esi
    22fd:	bf ff 7f 00 00       	mov    $0x7fff,%edi
    2302:	0f b7 c9             	movzwl %cx,%ecx
    2305:	39 fe                	cmp    %edi,%esi
    2307:	0f 4f f7             	cmovg  %edi,%esi
    230a:	bf 00 80 ff ff       	mov    $0xffff8000,%edi
    230f:	c1 f8 0f             	sar    $0xf,%eax
    2312:	39 f8                	cmp    %edi,%eax
    2314:	0f 4c c7             	cmovl  %edi,%eax
    2317:	bf ff 7f 00 00       	mov    $0x7fff,%edi
    231c:	0f b7 f6             	movzwl %si,%esi
    231f:	39 f8                	cmp    %edi,%eax
    2321:	0f 4f c7             	cmovg  %edi,%eax
    2324:	0f b7 c0             	movzwl %ax,%eax
    2327:	48 c1 e0 10          	shl    $0x10,%rax
    232b:	48 09 f0             	or     %rsi,%rax
    232e:	48 c1 e0 10          	shl    $0x10,%rax
    2332:	48 09 c8             	or     %rcx,%rax
    2335:	48 c1 e0 10          	shl    $0x10,%rax
    2339:	48 09 d0             	or     %rdx,%rax
    233c:	48 8b 5c 24 a8       	mov    -0x58(%rsp),%rbx
    2341:	49 83 c7 08          	add    $0x8,%r15
    2345:	4a 89 04 d3          	mov    %rax,(%rbx,%r10,8)
    2349:	49 83 c2 01          	add    $0x1,%r10
    234d:	4c 39 54 24 b0       	cmp    %r10,-0x50(%rsp)
    2352:	0f 85 98 f8 ff ff    	jne    1bf0 <riscv_dsp_fir_fast_q15+0xa0>
    2358:	48 8b 44 24 b0       	mov    -0x50(%rsp),%rax
    235d:	48 8b 74 24 e0       	mov    -0x20(%rsp),%rsi
    2362:	4c 8b 7c 24 b8       	mov    -0x48(%rsp),%r15
    2367:	48 c1 e0 03          	shl    $0x3,%rax
    236b:	48 01 44 24 e8       	add    %rax,-0x18(%rsp)
    2370:	48 01 44 24 a8       	add    %rax,-0x58(%rsp)
    2375:	4c 8d 04 06          	lea    (%rsi,%rax,1),%r8
    2379:	48 01 44 24 a0       	add    %rax,-0x60(%rsp)
    237e:	8b 44 24 f4          	mov    -0xc(%rsp),%eax
    2382:	83 e0 03             	and    $0x3,%eax
    2385:	0f 84 8e 01 00 00    	je     2519 <riscv_dsp_fir_fast_q15+0x9c9>
    238b:	8b 5c 24 94          	mov    -0x6c(%rsp),%ebx
    238f:	89 c0                	mov    %eax,%eax
    2391:	31 c9                	xor    %ecx,%ecx
    2393:	4c 8d 14 00          	lea    (%rax,%rax,1),%r10
    2397:	89 dd                	mov    %ebx,%ebp
    2399:	89 d8                	mov    %ebx,%eax
    239b:	c1 e8 03             	shr    $0x3,%eax
    239e:	83 e5 f8             	and    $0xfffffff8,%ebp
    23a1:	8d 70 ff             	lea    -0x1(%rax),%esi
    23a4:	89 d8                	mov    %ebx,%eax
    23a6:	89 eb                	mov    %ebp,%ebx
    23a8:	48 01 db             	add    %rbx,%rbx
    23ab:	41 89 c6             	mov    %eax,%r14d
    23ae:	48 83 c6 01          	add    $0x1,%rsi
    23b2:	4d 8d 24 1f          	lea    (%r15,%rbx,1),%r12
    23b6:	41 29 ee             	sub    %ebp,%r14d
    23b9:	48 c1 e6 04          	shl    $0x4,%rsi
    23bd:	4c 89 64 24 88       	mov    %r12,-0x78(%rsp)
    23c2:	4c 8b 64 24 e8       	mov    -0x18(%rsp),%r12
    23c7:	44 89 74 24 98       	mov    %r14d,-0x68(%rsp)
    23cc:	41 89 c6             	mov    %eax,%r14d
    23cf:	41 0f b7 04 0c       	movzwl (%r12,%rcx,1),%eax
    23d4:	48 8b 7c 24 a0       	mov    -0x60(%rsp),%rdi
    23d9:	49 8d 14 08          	lea    (%r8,%rcx,1),%rdx
    23dd:	66 89 04 0f          	mov    %ax,(%rdi,%rcx,1)
    23e1:	45 85 f6             	test   %r14d,%r14d
    23e4:	0f 84 58 02 00 00    	je     2642 <riscv_dsp_fir_fast_q15+0xaf2>
    23ea:	83 7c 24 c0 06       	cmpl   $0x6,-0x40(%rsp)
    23ef:	0f 86 54 02 00 00    	jbe    2649 <riscv_dsp_fir_fast_q15+0xaf9>
    23f5:	31 c0                	xor    %eax,%eax
    23f7:	66 0f ef c9          	pxor   %xmm1,%xmm1
    23fb:	0f 1f 44 00 00       	nopl   0x0(%rax,%rax,1)
    2400:	f3 0f 6f 04 02       	movdqu (%rdx,%rax,1),%xmm0
    2405:	f3 41 0f 6f 3c 07    	movdqu (%r15,%rax,1),%xmm7
    240b:	48 83 c0 10          	add    $0x10,%rax
    240f:	66 0f f5 c7          	pmaddwd %xmm7,%xmm0
    2413:	66 0f fe c8          	paddd  %xmm0,%xmm1
    2417:	48 39 c6             	cmp    %rax,%rsi
    241a:	75 e4                	jne    2400 <riscv_dsp_fir_fast_q15+0x8b0>
    241c:	66 0f 6f c1          	movdqa %xmm1,%xmm0
    2420:	48 01 da             	add    %rbx,%rdx
    2423:	66 0f 73 d8 08       	psrldq $0x8,%xmm0
    2428:	66 0f fe c8          	paddd  %xmm0,%xmm1
    242c:	66 0f 6f c1          	movdqa %xmm1,%xmm0
    2430:	66 0f 73 d8 04       	psrldq $0x4,%xmm0
    2435:	66 0f fe c8          	paddd  %xmm0,%xmm1
    2439:	66 0f 7e c8          	movd   %xmm1,%eax
    243d:	41 39 ee             	cmp    %ebp,%r14d
    2440:	0f 84 a3 00 00 00    	je     24e9 <riscv_dsp_fir_fast_q15+0x999>
    2446:	44 8b 4c 24 98       	mov    -0x68(%rsp),%r9d
    244b:	48 8b 7c 24 88       	mov    -0x78(%rsp),%rdi
    2450:	44 0f bf 1a          	movswl (%rdx),%r11d
    2454:	44 0f bf 2f          	movswl (%rdi),%r13d
    2458:	45 0f af dd          	imul   %r13d,%r11d
    245c:	44 01 d8             	add    %r11d,%eax
    245f:	41 83 f9 01          	cmp    $0x1,%r9d
    2463:	0f 84 80 00 00 00    	je     24e9 <riscv_dsp_fir_fast_q15+0x999>
    2469:	44 0f bf 5a 02       	movswl 0x2(%rdx),%r11d
    246e:	44 0f bf 6f 02       	movswl 0x2(%rdi),%r13d
    2473:	45 0f af dd          	imul   %r13d,%r11d
    2477:	44 01 d8             	add    %r11d,%eax
    247a:	41 83 f9 02          	cmp    $0x2,%r9d
    247e:	74 69                	je     24e9 <riscv_dsp_fir_fast_q15+0x999>
    2480:	44 0f bf 5a 04       	movswl 0x4(%rdx),%r11d
    2485:	44 0f bf 6f 04       	movswl 0x4(%rdi),%r13d
    248a:	45 0f af dd          	imul   %r13d,%r11d
    248e:	44 01 d8             	add    %r11d,%eax
    2491:	41 83 f9 03          	cmp    $0x3,%r9d
    2495:	74 52                	je     24e9 <riscv_dsp_fir_fast_q15+0x999>
    2497:	44 0f bf 5a 06       	movswl 0x6(%rdx),%r11d
    249c:	44 0f bf 6f 06       	movswl 0x6(%rdi),%r13d
    24a1:	45 0f af dd          	imul   %r13d,%r11d
    24a5:	44 01 d8             	add    %r11d,%eax
    24a8:	41 83 f9 04          	cmp    $0x4,%r9d
    24ac:	74 3b                	je     24e9 <riscv_dsp_fir_fast_q15+0x999>
    24ae:	44 0f bf 5a 08       	movswl 0x8(%rdx),%r11d
    24b3:	44 0f bf 6f 08       	movswl 0x8(%rdi),%r13d
    24b8:	45 0f af dd          	imul   %r13d,%r11d
    24bc:	44 01 d8             	add    %r11d,%eax
    24bf:	41 83 f9 05          	cmp    $0x5,%r9d
    24c3:	74 24                	je     24e9 <riscv_dsp_fir_fast_q15+0x999>
    24c5:	44 0f bf 5a 0a       	movswl 0xa(%rdx),%r11d
    24ca:	44 0f bf 6f 0a       	movswl 0xa(%rdi),%r13d
    24cf:	45 0f af dd          	imul   %r13d,%r11d
    24d3:	44 01 d8             	add    %r11d,%eax
    24d6:	41 83 f9 06          	cmp    $0x6,%r9d
    24da:	74 0d                	je     24e9 <riscv_dsp_fir_fast_q15+0x999>
    24dc:	0f bf 52 0c          	movswl 0xc(%rdx),%edx
    24e0:	0f bf 7f 0c          	movswl 0xc(%rdi),%edi
    24e4:	0f af d7             	imul   %edi,%edx
    24e7:	01 d0                	add    %edx,%eax
    24e9:	ba 00 80 ff ff       	mov    $0xffff8000,%edx
    24ee:	c1 f8 0f             	sar    $0xf,%eax
    24f1:	39 d0                	cmp    %edx,%eax
    24f3:	0f 4c c2             	cmovl  %edx,%eax
    24f6:	ba ff 7f 00 00       	mov    $0x7fff,%edx
    24fb:	39 d0                	cmp    %edx,%eax
    24fd:	0f 4f c2             	cmovg  %edx,%eax
    2500:	48 8b 54 24 a8       	mov    -0x58(%rsp),%rdx
    2505:	66 89 04 0a          	mov    %ax,(%rdx,%rcx,1)
    2509:	48 83 c1 02          	add    $0x2,%rcx
    250d:	49 39 ca             	cmp    %rcx,%r10
    2510:	0f 85 b9 fe ff ff    	jne    23cf <riscv_dsp_fir_fast_q15+0x87f>
    2516:	4d 01 d0             	add    %r10,%r8
    2519:	8b 44 24 c0          	mov    -0x40(%rsp),%eax
    251d:	85 c0                	test   %eax,%eax
    251f:	0f 84 d4 00 00 00    	je     25f9 <riscv_dsp_fir_fast_q15+0xaa9>
    2525:	48 8b 74 24 e0       	mov    -0x20(%rsp),%rsi
    252a:	8b 5c 24 94          	mov    -0x6c(%rsp),%ebx
    252e:	49 8d 48 02          	lea    0x2(%r8),%rcx
    2532:	48 89 f2             	mov    %rsi,%rdx
    2535:	8d 43 fe             	lea    -0x2(%rbx),%eax
    2538:	48 29 ca             	sub    %rcx,%rdx
    253b:	48 83 fa 0c          	cmp    $0xc,%rdx
    253f:	0f 86 11 01 00 00    	jbe    2656 <riscv_dsp_fir_fast_q15+0xb06>
    2545:	83 f8 02             	cmp    $0x2,%eax
    2548:	0f 86 08 01 00 00    	jbe    2656 <riscv_dsp_fir_fast_q15+0xb06>
    254e:	83 f8 06             	cmp    $0x6,%eax
    2551:	0f 86 36 01 00 00    	jbe    268d <riscv_dsp_fir_fast_q15+0xb3d>
    2557:	8d 4b f7             	lea    -0x9(%rbx),%ecx
    255a:	31 c0                	xor    %eax,%eax
    255c:	31 d2                	xor    %edx,%edx
    255e:	c1 e9 03             	shr    $0x3,%ecx
    2561:	83 c1 01             	add    $0x1,%ecx
    2564:	0f 1f 40 00          	nopl   0x0(%rax)
    2568:	f3 41 0f 6f 3c 00    	movdqu (%r8,%rax,1),%xmm7
    256e:	83 c2 01             	add    $0x1,%edx
    2571:	0f 11 3c 06          	movups %xmm7,(%rsi,%rax,1)
    2575:	48 83 c0 10          	add    $0x10,%rax
    2579:	39 d1                	cmp    %edx,%ecx
    257b:	77 eb                	ja     2568 <riscv_dsp_fir_fast_q15+0xa18>
    257d:	8b 44 24 c0          	mov    -0x40(%rsp),%eax
    2581:	44 8d 14 cd 00 00 00 	lea    0x0(,%rcx,8),%r10d
    2588:	00 
    2589:	4b 8d 34 12          	lea    (%r10,%r10,1),%rsi
    258d:	41 89 c1             	mov    %eax,%r9d
    2590:	49 8d 3c 30          	lea    (%r8,%rsi,1),%rdi
    2594:	48 03 74 24 e0       	add    -0x20(%rsp),%rsi
    2599:	45 29 d1             	sub    %r10d,%r9d
    259c:	44 39 d0             	cmp    %r10d,%eax
    259f:	74 58                	je     25f9 <riscv_dsp_fir_fast_q15+0xaa9>
    25a1:	8b 44 24 94          	mov    -0x6c(%rsp),%eax
    25a5:	44 29 d0             	sub    %r10d,%eax
    25a8:	8d 50 ff             	lea    -0x1(%rax),%edx
    25ab:	83 e8 02             	sub    $0x2,%eax
    25ae:	83 f8 02             	cmp    $0x2,%eax
    25b1:	76 24                	jbe    25d7 <riscv_dsp_fir_fast_q15+0xa87>
    25b3:	4b 8b 04 50          	mov    (%r8,%r10,2),%rax
    25b7:	48 8b 5c 24 e0       	mov    -0x20(%rsp),%rbx
    25bc:	89 d1                	mov    %edx,%ecx
    25be:	83 e1 fc             	and    $0xfffffffc,%ecx
    25c1:	4a 89 04 53          	mov    %rax,(%rbx,%r10,2)
    25c5:	89 c8                	mov    %ecx,%eax
    25c7:	41 29 c9             	sub    %ecx,%r9d
    25ca:	48 01 c0             	add    %rax,%rax
    25cd:	48 01 c7             	add    %rax,%rdi
    25d0:	48 01 c6             	add    %rax,%rsi
    25d3:	39 d1                	cmp    %edx,%ecx
    25d5:	74 22                	je     25f9 <riscv_dsp_fir_fast_q15+0xaa9>
    25d7:	0f b7 07             	movzwl (%rdi),%eax
    25da:	66 89 06             	mov    %ax,(%rsi)
    25dd:	41 83 f9 01          	cmp    $0x1,%r9d
    25e1:	74 16                	je     25f9 <riscv_dsp_fir_fast_q15+0xaa9>
    25e3:	0f b7 47 02          	movzwl 0x2(%rdi),%eax
    25e7:	66 89 46 02          	mov    %ax,0x2(%rsi)
    25eb:	41 83 f9 02          	cmp    $0x2,%r9d
    25ef:	74 08                	je     25f9 <riscv_dsp_fir_fast_q15+0xaa9>
    25f1:	0f b7 47 04          	movzwl 0x4(%rdi),%eax
    25f5:	66 89 46 04          	mov    %ax,0x4(%rsi)
    25f9:	5b                   	pop    %rbx
    25fa:	5d                   	pop    %rbp
    25fb:	41 5c                	pop    %r12
    25fd:	41 5d                	pop    %r13
    25ff:	41 5e                	pop    %r14
    2601:	41 5f                	pop    %r15
    2603:	c3                   	ret    
    2604:	0f 1f 40 00          	nopl   0x0(%rax)
    2608:	31 c0                	xor    %eax,%eax
    260a:	e9 2d fd ff ff       	jmp    233c <riscv_dsp_fir_fast_q15+0x7ec>
    260f:	44 8b 4c 24 94       	mov    -0x6c(%rsp),%r9d
    2614:	4c 8b 44 24 b8       	mov    -0x48(%rsp),%r8
    2619:	4c 89 ff             	mov    %r15,%rdi
    261c:	31 c0                	xor    %eax,%eax
    261e:	31 f6                	xor    %esi,%esi
    2620:	31 c9                	xor    %ecx,%ecx
    2622:	31 d2                	xor    %edx,%edx
    2624:	45 8d 59 ff          	lea    -0x1(%r9),%r11d
    2628:	41 83 fb 02          	cmp    $0x2,%r11d
    262c:	0f 87 03 f7 ff ff    	ja     1d35 <riscv_dsp_fir_fast_q15+0x1e5>
    2632:	44 89 4c 24 88       	mov    %r9d,-0x78(%rsp)
    2637:	4c 89 c3             	mov    %r8,%rbx
    263a:	49 89 fb             	mov    %rdi,%r11
    263d:	e9 16 fb ff ff       	jmp    2158 <riscv_dsp_fir_fast_q15+0x608>
    2642:	31 c0                	xor    %eax,%eax
    2644:	e9 b7 fe ff ff       	jmp    2500 <riscv_dsp_fir_fast_q15+0x9b0>
    2649:	45 89 f1             	mov    %r14d,%r9d
    264c:	4c 89 ff             	mov    %r15,%rdi
    264f:	31 c0                	xor    %eax,%eax
    2651:	e9 fa fd ff ff       	jmp    2450 <riscv_dsp_fir_fast_q15+0x900>
    2656:	8b 4c 24 c0          	mov    -0x40(%rsp),%ecx
    265a:	48 8b 74 24 e0       	mov    -0x20(%rsp),%rsi
    265f:	31 c0                	xor    %eax,%eax
    2661:	0f 1f 80 00 00 00 00 	nopl   0x0(%rax)
    2668:	41 0f b7 14 40       	movzwl (%r8,%rax,2),%edx
    266d:	66 89 14 46          	mov    %dx,(%rsi,%rax,2)
    2671:	48 83 c0 01          	add    $0x1,%rax
    2675:	48 39 c1             	cmp    %rax,%rcx
    2678:	75 ee                	jne    2668 <riscv_dsp_fir_fast_q15+0xb18>
    267a:	5b                   	pop    %rbx
    267b:	5d                   	pop    %rbp
    267c:	41 5c                	pop    %r12
    267e:	41 5d                	pop    %r13
    2680:	41 5e                	pop    %r14
    2682:	41 5f                	pop    %r15
    2684:	c3                   	ret    
    2685:	4d 89 d0             	mov    %r10,%r8
    2688:	e9 f1 fc ff ff       	jmp    237e <riscv_dsp_fir_fast_q15+0x82e>
    268d:	8b 54 24 c0          	mov    -0x40(%rsp),%edx
    2691:	4c 89 c7             	mov    %r8,%rdi
    2694:	45 31 d2             	xor    %r10d,%r10d
    2697:	41 89 d1             	mov    %edx,%r9d
    269a:	e9 14 ff ff ff       	jmp    25b3 <riscv_dsp_fir_fast_q15+0xa63>

Disassembly of section .fini:

00000000000026a0 <_fini>:
    26a0:	f3 0f 1e fa          	endbr64 
    26a4:	48 83 ec 08          	sub    $0x8,%rsp
    26a8:	48 83 c4 08          	add    $0x8,%rsp
    26ac:	c3                   	ret    
