
t_log_f64:     file format elf64-x86-64


Disassembly of section .init:

0000000000001000 <_init>:
    1000:	f3 0f 1e fa          	endbr64 
    1004:	48 83 ec 08          	sub    $0x8,%rsp
    1008:	48 8b 05 d9 2f 00 00 	mov    0x2fd9(%rip),%rax        # 3fe8 <__gmon_start__@Base>
    100f:	48 85 c0             	test   %rax,%rax
    1012:	74 02                	je     1016 <_init+0x16>
    1014:	ff d0                	call   *%rax
    1016:	48 83 c4 08          	add    $0x8,%rsp
    101a:	c3                   	ret    

Disassembly of section .plt:

0000000000001020 <.plt>:
    1020:	ff 35 52 2f 00 00    	push   0x2f52(%rip)        # 3f78 <_GLOBAL_OFFSET_TABLE_+0x8>
    1026:	f2 ff 25 53 2f 00 00 	bnd jmp *0x2f53(%rip)        # 3f80 <_GLOBAL_OFFSET_TABLE_+0x10>
    102d:	0f 1f 00             	nopl   (%rax)
    1030:	f3 0f 1e fa          	endbr64 
    1034:	68 00 00 00 00       	push   $0x0
    1039:	f2 e9 e1 ff ff ff    	bnd jmp 1020 <_init+0x20>
    103f:	90                   	nop
    1040:	f3 0f 1e fa          	endbr64 
    1044:	68 01 00 00 00       	push   $0x1
    1049:	f2 e9 d1 ff ff ff    	bnd jmp 1020 <_init+0x20>
    104f:	90                   	nop
    1050:	f3 0f 1e fa          	endbr64 
    1054:	68 02 00 00 00       	push   $0x2
    1059:	f2 e9 c1 ff ff ff    	bnd jmp 1020 <_init+0x20>
    105f:	90                   	nop
    1060:	f3 0f 1e fa          	endbr64 
    1064:	68 03 00 00 00       	push   $0x3
    1069:	f2 e9 b1 ff ff ff    	bnd jmp 1020 <_init+0x20>
    106f:	90                   	nop
    1070:	f3 0f 1e fa          	endbr64 
    1074:	68 04 00 00 00       	push   $0x4
    1079:	f2 e9 a1 ff ff ff    	bnd jmp 1020 <_init+0x20>
    107f:	90                   	nop
    1080:	f3 0f 1e fa          	endbr64 
    1084:	68 05 00 00 00       	push   $0x5
    1089:	f2 e9 91 ff ff ff    	bnd jmp 1020 <_init+0x20>
    108f:	90                   	nop
    1090:	f3 0f 1e fa          	endbr64 
    1094:	68 06 00 00 00       	push   $0x6
    1099:	f2 e9 81 ff ff ff    	bnd jmp 1020 <_init+0x20>
    109f:	90                   	nop
    10a0:	f3 0f 1e fa          	endbr64 
    10a4:	68 07 00 00 00       	push   $0x7
    10a9:	f2 e9 71 ff ff ff    	bnd jmp 1020 <_init+0x20>
    10af:	90                   	nop
    10b0:	f3 0f 1e fa          	endbr64 
    10b4:	68 08 00 00 00       	push   $0x8
    10b9:	f2 e9 61 ff ff ff    	bnd jmp 1020 <_init+0x20>
    10bf:	90                   	nop
    10c0:	f3 0f 1e fa          	endbr64 
    10c4:	68 09 00 00 00       	push   $0x9
    10c9:	f2 e9 51 ff ff ff    	bnd jmp 1020 <_init+0x20>
    10cf:	90                   	nop

Disassembly of section .plt.got:

00000000000010d0 <__cxa_finalize@plt>:
    10d0:	f3 0f 1e fa          	endbr64 
    10d4:	f2 ff 25 1d 2f 00 00 	bnd jmp *0x2f1d(%rip)        # 3ff8 <__cxa_finalize@GLIBC_2.2.5>
    10db:	0f 1f 44 00 00       	nopl   0x0(%rax,%rax,1)

Disassembly of section .plt.sec:

00000000000010e0 <puts@plt>:
    10e0:	f3 0f 1e fa          	endbr64 
    10e4:	f2 ff 25 9d 2e 00 00 	bnd jmp *0x2e9d(%rip)        # 3f88 <puts@GLIBC_2.2.5>
    10eb:	0f 1f 44 00 00       	nopl   0x0(%rax,%rax,1)

00000000000010f0 <fread@plt>:
    10f0:	f3 0f 1e fa          	endbr64 
    10f4:	f2 ff 25 95 2e 00 00 	bnd jmp *0x2e95(%rip)        # 3f90 <fread@GLIBC_2.2.5>
    10fb:	0f 1f 44 00 00       	nopl   0x0(%rax,%rax,1)

0000000000001100 <fclose@plt>:
    1100:	f3 0f 1e fa          	endbr64 
    1104:	f2 ff 25 8d 2e 00 00 	bnd jmp *0x2e8d(%rip)        # 3f98 <fclose@GLIBC_2.2.5>
    110b:	0f 1f 44 00 00       	nopl   0x0(%rax,%rax,1)

0000000000001110 <__stack_chk_fail@plt>:
    1110:	f3 0f 1e fa          	endbr64 
    1114:	f2 ff 25 85 2e 00 00 	bnd jmp *0x2e85(%rip)        # 3fa0 <__stack_chk_fail@GLIBC_2.4>
    111b:	0f 1f 44 00 00       	nopl   0x0(%rax,%rax,1)

0000000000001120 <log@plt>:
    1120:	f3 0f 1e fa          	endbr64 
    1124:	f2 ff 25 7d 2e 00 00 	bnd jmp *0x2e7d(%rip)        # 3fa8 <log@GLIBC_2.29>
    112b:	0f 1f 44 00 00       	nopl   0x0(%rax,%rax,1)

0000000000001130 <log10f@plt>:
    1130:	f3 0f 1e fa          	endbr64 
    1134:	f2 ff 25 75 2e 00 00 	bnd jmp *0x2e75(%rip)        # 3fb0 <log10f@GLIBC_2.2.5>
    113b:	0f 1f 44 00 00       	nopl   0x0(%rax,%rax,1)

0000000000001140 <__printf_chk@plt>:
    1140:	f3 0f 1e fa          	endbr64 
    1144:	f2 ff 25 6d 2e 00 00 	bnd jmp *0x2e6d(%rip)        # 3fb8 <__printf_chk@GLIBC_2.3.4>
    114b:	0f 1f 44 00 00       	nopl   0x0(%rax,%rax,1)

0000000000001150 <fopen@plt>:
    1150:	f3 0f 1e fa          	endbr64 
    1154:	f2 ff 25 65 2e 00 00 	bnd jmp *0x2e65(%rip)        # 3fc0 <fopen@GLIBC_2.2.5>
    115b:	0f 1f 44 00 00       	nopl   0x0(%rax,%rax,1)

0000000000001160 <sqrt@plt>:
    1160:	f3 0f 1e fa          	endbr64 
    1164:	f2 ff 25 5d 2e 00 00 	bnd jmp *0x2e5d(%rip)        # 3fc8 <sqrt@GLIBC_2.2.5>
    116b:	0f 1f 44 00 00       	nopl   0x0(%rax,%rax,1)

0000000000001170 <__sprintf_chk@plt>:
    1170:	f3 0f 1e fa          	endbr64 
    1174:	f2 ff 25 55 2e 00 00 	bnd jmp *0x2e55(%rip)        # 3fd0 <__sprintf_chk@GLIBC_2.3.4>
    117b:	0f 1f 44 00 00       	nopl   0x0(%rax,%rax,1)

Disassembly of section .text:

0000000000001180 <main>:
    1180:	f3 0f 1e fa          	endbr64 
    1184:	41 56                	push   %r14
    1186:	be 01 00 00 00       	mov    $0x1,%esi
    118b:	4c 8d 05 76 0e 00 00 	lea    0xe76(%rip),%r8        # 2008 <_IO_stdin_used+0x8>
    1192:	48 8d 0d 08 0f 00 00 	lea    0xf08(%rip),%rcx        # 20a1 <_IO_stdin_used+0xa1>
    1199:	41 55                	push   %r13
    119b:	ba 00 02 00 00       	mov    $0x200,%edx
    11a0:	41 54                	push   %r12
    11a2:	4c 8d 25 0b 0f 00 00 	lea    0xf0b(%rip),%r12        # 20b4 <_IO_stdin_used+0xb4>
    11a9:	55                   	push   %rbp
    11aa:	53                   	push   %rbx
    11ab:	48 81 ec 10 03 00 00 	sub    $0x310,%rsp
    11b2:	64 48 8b 04 25 28 00 	mov    %fs:0x28,%rax
    11b9:	00 00 
    11bb:	48 89 84 24 08 03 00 	mov    %rax,0x308(%rsp)
    11c2:	00 
    11c3:	31 c0                	xor    %eax,%eax
    11c5:	48 8d ac 24 00 01 00 	lea    0x100(%rsp),%rbp
    11cc:	00 
    11cd:	48 89 ef             	mov    %rbp,%rdi
    11d0:	e8 9b ff ff ff       	call   1170 <__sprintf_chk@plt>
    11d5:	4c 89 e6             	mov    %r12,%rsi
    11d8:	48 89 ef             	mov    %rbp,%rdi
    11db:	e8 70 ff ff ff       	call   1150 <fopen@plt>
    11e0:	48 85 c0             	test   %rax,%rax
    11e3:	0f 84 31 08 00 00    	je     1a1a <main+0x89a>
    11e9:	ba 00 02 00 00       	mov    $0x200,%edx
    11ee:	be 01 00 00 00       	mov    $0x1,%esi
    11f3:	48 89 ef             	mov    %rbp,%rdi
    11f6:	49 89 c6             	mov    %rax,%r14
    11f9:	4c 8d 05 08 0e 00 00 	lea    0xe08(%rip),%r8        # 2008 <_IO_stdin_used+0x8>
    1200:	48 8d 0d af 0e 00 00 	lea    0xeaf(%rip),%rcx        # 20b6 <_IO_stdin_used+0xb6>
    1207:	31 c0                	xor    %eax,%eax
    1209:	e8 62 ff ff ff       	call   1170 <__sprintf_chk@plt>
    120e:	4c 89 e6             	mov    %r12,%rsi
    1211:	48 89 ef             	mov    %rbp,%rdi
    1214:	e8 37 ff ff ff       	call   1150 <fopen@plt>
    1219:	49 89 c5             	mov    %rax,%r13
    121c:	48 85 c0             	test   %rax,%rax
    121f:	0f 84 f5 07 00 00    	je     1a1a <main+0x89a>
    1225:	48 8d 6c 24 40       	lea    0x40(%rsp),%rbp
    122a:	4c 89 f6             	mov    %r14,%rsi
    122d:	31 db                	xor    %ebx,%ebx
    122f:	48 89 ef             	mov    %rbp,%rdi
    1232:	4c 8d a4 24 80 00 00 	lea    0x80(%rsp),%r12
    1239:	00 
    123a:	e8 e1 08 00 00       	call   1b20 <test_Fread.constprop.0.isra.0>
    123f:	48 8d bc 24 c0 00 00 	lea    0xc0(%rsp),%rdi
    1246:	00 
    1247:	4c 89 ee             	mov    %r13,%rsi
    124a:	e8 d1 08 00 00       	call   1b20 <test_Fread.constprop.0.isra.0>
    124f:	90                   	nop
    1250:	f2 0f 10 44 1d 00    	movsd  0x0(%rbp,%rbx,1),%xmm0
    1256:	e8 e5 08 00 00       	call   1b40 <riscv_dsp_log_f64>
    125b:	f2 41 0f 11 04 1c    	movsd  %xmm0,(%r12,%rbx,1)
    1261:	48 83 c3 08          	add    $0x8,%rbx
    1265:	48 83 fb 38          	cmp    $0x38,%rbx
    1269:	75 e5                	jne    1250 <main+0xd0>
    126b:	f2 0f 10 8c 24 c0 00 	movsd  0xc0(%rsp),%xmm1
    1272:	00 00 
    1274:	f2 0f 10 9c 24 80 00 	movsd  0x80(%rsp),%xmm3
    127b:	00 00 
    127d:	66 0f 2f cb          	comisd %xmm3,%xmm1
    1281:	0f 87 36 06 00 00    	ja     18bd <main+0x73d>
    1287:	66 0f 28 c3          	movapd %xmm3,%xmm0
    128b:	f2 0f 5c c1          	subsd  %xmm1,%xmm0
    128f:	f2 0f 10 94 24 c8 00 	movsd  0xc8(%rsp),%xmm2
    1296:	00 00 
    1298:	66 0f ef f6          	pxor   %xmm6,%xmm6
    129c:	f2 44 0f 10 9c 24 88 	movsd  0x88(%rsp),%xmm11
    12a3:	00 00 00 
    12a6:	f2 0f 5f c6          	maxsd  %xmm6,%xmm0
    12aa:	66 41 0f 2f d3       	comisd %xmm11,%xmm2
    12af:	0f 87 bf 06 00 00    	ja     1974 <main+0x7f4>
    12b5:	66 41 0f 28 cb       	movapd %xmm11,%xmm1
    12ba:	f2 0f 5c ca          	subsd  %xmm2,%xmm1
    12be:	f2 0f 10 94 24 d0 00 	movsd  0xd0(%rsp),%xmm2
    12c5:	00 00 
    12c7:	f2 0f 5f c8          	maxsd  %xmm0,%xmm1
    12cb:	f2 44 0f 10 94 24 90 	movsd  0x90(%rsp),%xmm10
    12d2:	00 00 00 
    12d5:	66 41 0f 2f d2       	comisd %xmm10,%xmm2
    12da:	0f 87 86 06 00 00    	ja     1966 <main+0x7e6>
    12e0:	66 41 0f 28 c2       	movapd %xmm10,%xmm0
    12e5:	f2 0f 5c c2          	subsd  %xmm2,%xmm0
    12e9:	f2 0f 10 94 24 d8 00 	movsd  0xd8(%rsp),%xmm2
    12f0:	00 00 
    12f2:	f2 0f 5f c1          	maxsd  %xmm1,%xmm0
    12f6:	f2 0f 10 a4 24 98 00 	movsd  0x98(%rsp),%xmm4
    12fd:	00 00 
    12ff:	66 0f 2f d4          	comisd %xmm4,%xmm2
    1303:	0f 87 50 06 00 00    	ja     1959 <main+0x7d9>
    1309:	66 0f 28 cc          	movapd %xmm4,%xmm1
    130d:	f2 0f 5c ca          	subsd  %xmm2,%xmm1
    1311:	f2 0f 10 ac 24 e0 00 	movsd  0xe0(%rsp),%xmm5
    1318:	00 00 
    131a:	f2 0f 5f c8          	maxsd  %xmm0,%xmm1
    131e:	f2 0f 10 94 24 a0 00 	movsd  0xa0(%rsp),%xmm2
    1325:	00 00 
    1327:	66 0f 2f ea          	comisd %xmm2,%xmm5
    132b:	0f 87 1b 06 00 00    	ja     194c <main+0x7cc>
    1331:	66 0f 28 c2          	movapd %xmm2,%xmm0
    1335:	f2 0f 5c c5          	subsd  %xmm5,%xmm0
    1339:	f2 0f 10 bc 24 e8 00 	movsd  0xe8(%rsp),%xmm7
    1340:	00 00 
    1342:	f2 0f 5f c1          	maxsd  %xmm1,%xmm0
    1346:	f2 0f 10 8c 24 a8 00 	movsd  0xa8(%rsp),%xmm1
    134d:	00 00 
    134f:	66 0f 2f f9          	comisd %xmm1,%xmm7
    1353:	0f 87 e6 05 00 00    	ja     193f <main+0x7bf>
    1359:	66 0f 28 e9          	movapd %xmm1,%xmm5
    135d:	f2 0f 5c ef          	subsd  %xmm7,%xmm5
    1361:	f2 44 0f 10 84 24 f0 	movsd  0xf0(%rsp),%xmm8
    1368:	00 00 00 
    136b:	f2 0f 5f e8          	maxsd  %xmm0,%xmm5
    136f:	f2 0f 10 bc 24 b0 00 	movsd  0xb0(%rsp),%xmm7
    1376:	00 00 
    1378:	66 44 0f 2f c7       	comisd %xmm7,%xmm8
    137d:	0f 86 ae 05 00 00    	jbe    1931 <main+0x7b1>
    1383:	66 41 0f 28 c0       	movapd %xmm8,%xmm0
    1388:	f2 0f 5c c7          	subsd  %xmm7,%xmm0
    138c:	f2 0f 5f c5          	maxsd  %xmm5,%xmm0
    1390:	bf 01 00 00 00       	mov    $0x1,%edi
    1395:	b8 01 00 00 00       	mov    $0x1,%eax
    139a:	f2 0f 11 4c 24 38    	movsd  %xmm1,0x38(%rsp)
    13a0:	48 8d 35 25 0d 00 00 	lea    0xd25(%rip),%rsi        # 20cc <_IO_stdin_used+0xcc>
    13a7:	f2 0f 11 54 24 30    	movsd  %xmm2,0x30(%rsp)
    13ad:	f2 0f 11 64 24 28    	movsd  %xmm4,0x28(%rsp)
    13b3:	f2 44 0f 11 54 24 20 	movsd  %xmm10,0x20(%rsp)
    13ba:	f2 44 0f 11 5c 24 18 	movsd  %xmm11,0x18(%rsp)
    13c1:	f2 0f 11 5c 24 10    	movsd  %xmm3,0x10(%rsp)
    13c7:	f2 0f 11 7c 24 08    	movsd  %xmm7,0x8(%rsp)
    13cd:	e8 6e fd ff ff       	call   1140 <__printf_chk@plt>
    13d2:	4c 89 f7             	mov    %r14,%rdi
    13d5:	e8 26 fd ff ff       	call   1100 <fclose@plt>
    13da:	4c 89 ef             	mov    %r13,%rdi
    13dd:	e8 1e fd ff ff       	call   1100 <fclose@plt>
    13e2:	66 0f ef f6          	pxor   %xmm6,%xmm6
    13e6:	f2 44 0f 10 84 24 c0 	movsd  0xc0(%rsp),%xmm8
    13ed:	00 00 00 
    13f0:	f2 0f 10 7c 24 08    	movsd  0x8(%rsp),%xmm7
    13f6:	f2 0f 10 5c 24 10    	movsd  0x10(%rsp),%xmm3
    13fc:	f2 44 0f 10 5c 24 18 	movsd  0x18(%rsp),%xmm11
    1403:	66 44 0f 2f c6       	comisd %xmm6,%xmm8
    1408:	f2 44 0f 10 54 24 20 	movsd  0x20(%rsp),%xmm10
    140f:	f2 0f 10 64 24 28    	movsd  0x28(%rsp),%xmm4
    1415:	f2 0f 10 54 24 30    	movsd  0x30(%rsp),%xmm2
    141b:	f2 0f 10 4c 24 38    	movsd  0x38(%rsp),%xmm1
    1421:	0f 86 d3 04 00 00    	jbe    18fa <main+0x77a>
    1427:	66 45 0f ef c9       	pxor   %xmm9,%xmm9
    142c:	66 45 0f ef e4       	pxor   %xmm12,%xmm12
    1431:	f2 45 0f 5a c8       	cvtsd2ss %xmm8,%xmm9
    1436:	66 41 0f 2f f0       	comisd %xmm8,%xmm6
    143b:	41 0f 28 ec          	movaps %xmm12,%xmm5
    143f:	76 09                	jbe    144a <main+0x2ca>
    1441:	66 0f ef ed          	pxor   %xmm5,%xmm5
    1445:	f2 41 0f 5a e8       	cvtsd2ss %xmm8,%xmm5
    144a:	66 41 0f 2f d8       	comisd %xmm8,%xmm3
    144f:	0f 87 93 04 00 00    	ja     18e8 <main+0x768>
    1455:	66 41 0f 28 c0       	movapd %xmm8,%xmm0
    145a:	f2 0f 5c c3          	subsd  %xmm3,%xmm0
    145e:	f2 0f 5a c0          	cvtsd2ss %xmm0,%xmm0
    1462:	f2 45 0f 59 c0       	mulsd  %xmm8,%xmm8
    1467:	44 0f 28 f0          	movaps %xmm0,%xmm14
    146b:	0f 28 d8             	movaps %xmm0,%xmm3
    146e:	f2 44 0f 10 ac 24 c8 	movsd  0xc8(%rsp),%xmm13
    1475:	00 00 00 
    1478:	f3 0f 59 c0          	mulss  %xmm0,%xmm0
    147c:	f3 45 0f 58 f4       	addss  %xmm12,%xmm14
    1481:	f3 41 0f 5f dc       	maxss  %xmm12,%xmm3
    1486:	66 45 0f ef e4       	pxor   %xmm12,%xmm12
    148b:	f2 44 0f 58 c6       	addsd  %xmm6,%xmm8
    1490:	f3 44 0f 5a e0       	cvtss2sd %xmm0,%xmm12
    1495:	f2 44 0f 58 e6       	addsd  %xmm6,%xmm12
    149a:	f2 44 0f 11 44 24 08 	movsd  %xmm8,0x8(%rsp)
    14a1:	66 45 0f ef c0       	pxor   %xmm8,%xmm8
    14a6:	f3 45 0f 5a c1       	cvtss2sd %xmm9,%xmm8
    14ab:	66 45 0f 2f e8       	comisd %xmm8,%xmm13
    14b0:	76 14                	jbe    14c6 <main+0x346>
    14b2:	66 45 0f ef c9       	pxor   %xmm9,%xmm9
    14b7:	66 45 0f ef c0       	pxor   %xmm8,%xmm8
    14bc:	f2 45 0f 5a cd       	cvtsd2ss %xmm13,%xmm9
    14c1:	f3 45 0f 5a c1       	cvtss2sd %xmm9,%xmm8
    14c6:	66 45 0f ef ff       	pxor   %xmm15,%xmm15
    14cb:	f3 44 0f 5a fd       	cvtss2sd %xmm5,%xmm15
    14d0:	66 45 0f 2f fd       	comisd %xmm13,%xmm15
    14d5:	76 13                	jbe    14ea <main+0x36a>
    14d7:	66 0f ef ed          	pxor   %xmm5,%xmm5
    14db:	66 45 0f ef ff       	pxor   %xmm15,%xmm15
    14e0:	f2 41 0f 5a ed       	cvtsd2ss %xmm13,%xmm5
    14e5:	f3 44 0f 5a fd       	cvtss2sd %xmm5,%xmm15
    14ea:	66 45 0f 2f dd       	comisd %xmm13,%xmm11
    14ef:	0f 87 e4 03 00 00    	ja     18d9 <main+0x759>
    14f5:	66 41 0f 28 c5       	movapd %xmm13,%xmm0
    14fa:	f2 41 0f 5c c3       	subsd  %xmm11,%xmm0
    14ff:	66 45 0f ef db       	pxor   %xmm11,%xmm11
    1504:	f2 44 0f 5a d8       	cvtsd2ss %xmm0,%xmm11
    1509:	f2 45 0f 59 ed       	mulsd  %xmm13,%xmm13
    150e:	41 0f 28 c6          	movaps %xmm14,%xmm0
    1512:	45 0f 28 f3          	movaps %xmm11,%xmm14
    1516:	f3 41 0f 58 c3       	addss  %xmm11,%xmm0
    151b:	f3 45 0f 59 db       	mulss  %xmm11,%xmm11
    1520:	f3 44 0f 5f f3       	maxss  %xmm3,%xmm14
    1525:	f2 44 0f 58 6c 24 08 	addsd  0x8(%rsp),%xmm13
    152c:	41 0f 28 de          	movaps %xmm14,%xmm3
    1530:	f3 45 0f 5a db       	cvtss2sd %xmm11,%xmm11
    1535:	f2 45 0f 58 dc       	addsd  %xmm12,%xmm11
    153a:	f2 44 0f 10 a4 24 d0 	movsd  0xd0(%rsp),%xmm12
    1541:	00 00 00 
    1544:	66 45 0f 2f e0       	comisd %xmm8,%xmm12
    1549:	76 14                	jbe    155f <main+0x3df>
    154b:	66 45 0f ef c9       	pxor   %xmm9,%xmm9
    1550:	66 45 0f ef c0       	pxor   %xmm8,%xmm8
    1555:	f2 45 0f 5a cc       	cvtsd2ss %xmm12,%xmm9
    155a:	f3 45 0f 5a c1       	cvtss2sd %xmm9,%xmm8
    155f:	66 45 0f 2f fc       	comisd %xmm12,%xmm15
    1564:	76 13                	jbe    1579 <main+0x3f9>
    1566:	66 0f ef ed          	pxor   %xmm5,%xmm5
    156a:	66 45 0f ef ff       	pxor   %xmm15,%xmm15
    156f:	f2 41 0f 5a ec       	cvtsd2ss %xmm12,%xmm5
    1574:	f3 44 0f 5a fd       	cvtss2sd %xmm5,%xmm15
    1579:	66 45 0f 2f d4       	comisd %xmm12,%xmm10
    157e:	0f 87 46 03 00 00    	ja     18ca <main+0x74a>
    1584:	66 45 0f 28 f4       	movapd %xmm12,%xmm14
    1589:	f2 45 0f 5c f2       	subsd  %xmm10,%xmm14
    158e:	66 45 0f ef d2       	pxor   %xmm10,%xmm10
    1593:	f2 45 0f 5a d6       	cvtsd2ss %xmm14,%xmm10
    1598:	f3 41 0f 58 c2       	addss  %xmm10,%xmm0
    159d:	f2 45 0f 59 e4       	mulsd  %xmm12,%xmm12
    15a2:	45 0f 28 f2          	movaps %xmm10,%xmm14
    15a6:	f3 45 0f 59 d2       	mulss  %xmm10,%xmm10
    15ab:	f3 44 0f 5f f3       	maxss  %xmm3,%xmm14
    15b0:	41 0f 28 de          	movaps %xmm14,%xmm3
    15b4:	f2 45 0f 58 e5       	addsd  %xmm13,%xmm12
    15b9:	f3 45 0f 5a d2       	cvtss2sd %xmm10,%xmm10
    15be:	f2 45 0f 58 d3       	addsd  %xmm11,%xmm10
    15c3:	f2 44 0f 10 9c 24 d8 	movsd  0xd8(%rsp),%xmm11
    15ca:	00 00 00 
    15cd:	66 45 0f 2f d8       	comisd %xmm8,%xmm11
    15d2:	76 14                	jbe    15e8 <main+0x468>
    15d4:	66 45 0f ef c9       	pxor   %xmm9,%xmm9
    15d9:	66 45 0f ef c0       	pxor   %xmm8,%xmm8
    15de:	f2 45 0f 5a cb       	cvtsd2ss %xmm11,%xmm9
    15e3:	f3 45 0f 5a c1       	cvtss2sd %xmm9,%xmm8
    15e8:	66 45 0f 2f fb       	comisd %xmm11,%xmm15
    15ed:	76 13                	jbe    1602 <main+0x482>
    15ef:	66 0f ef ed          	pxor   %xmm5,%xmm5
    15f3:	66 45 0f ef ff       	pxor   %xmm15,%xmm15
    15f8:	f2 41 0f 5a eb       	cvtsd2ss %xmm11,%xmm5
    15fd:	f3 44 0f 5a fd       	cvtss2sd %xmm5,%xmm15
    1602:	66 41 0f 2f e3       	comisd %xmm11,%xmm4
    1607:	0f 87 09 03 00 00    	ja     1916 <main+0x796>
    160d:	66 45 0f 28 eb       	movapd %xmm11,%xmm13
    1612:	f2 44 0f 5c ec       	subsd  %xmm4,%xmm13
    1617:	66 0f ef e4          	pxor   %xmm4,%xmm4
    161b:	f2 41 0f 5a e5       	cvtsd2ss %xmm13,%xmm4
    1620:	f3 0f 58 c4          	addss  %xmm4,%xmm0
    1624:	f2 45 0f 59 db       	mulsd  %xmm11,%xmm11
    1629:	44 0f 28 ec          	movaps %xmm4,%xmm13
    162d:	f3 0f 59 e4          	mulss  %xmm4,%xmm4
    1631:	f3 44 0f 5f eb       	maxss  %xmm3,%xmm13
    1636:	41 0f 28 dd          	movaps %xmm13,%xmm3
    163a:	f2 45 0f 58 dc       	addsd  %xmm12,%xmm11
    163f:	f3 0f 5a e4          	cvtss2sd %xmm4,%xmm4
    1643:	f2 41 0f 58 e2       	addsd  %xmm10,%xmm4
    1648:	f2 44 0f 10 94 24 e0 	movsd  0xe0(%rsp),%xmm10
    164f:	00 00 00 
    1652:	66 45 0f 2f d0       	comisd %xmm8,%xmm10
    1657:	76 14                	jbe    166d <main+0x4ed>
    1659:	66 45 0f ef c9       	pxor   %xmm9,%xmm9
    165e:	66 45 0f ef c0       	pxor   %xmm8,%xmm8
    1663:	f2 45 0f 5a ca       	cvtsd2ss %xmm10,%xmm9
    1668:	f3 45 0f 5a c1       	cvtss2sd %xmm9,%xmm8
    166d:	66 45 0f 2f fa       	comisd %xmm10,%xmm15
    1672:	76 13                	jbe    1687 <main+0x507>
    1674:	66 0f ef ed          	pxor   %xmm5,%xmm5
    1678:	66 45 0f ef ff       	pxor   %xmm15,%xmm15
    167d:	f2 41 0f 5a ea       	cvtsd2ss %xmm10,%xmm5
    1682:	f3 44 0f 5a fd       	cvtss2sd %xmm5,%xmm15
    1687:	66 41 0f 2f d2       	comisd %xmm10,%xmm2
    168c:	0f 87 76 02 00 00    	ja     1908 <main+0x788>
    1692:	66 45 0f 28 e2       	movapd %xmm10,%xmm12
    1697:	f2 44 0f 5c e2       	subsd  %xmm2,%xmm12
    169c:	66 0f ef d2          	pxor   %xmm2,%xmm2
    16a0:	f2 41 0f 5a d4       	cvtsd2ss %xmm12,%xmm2
    16a5:	f3 0f 58 c2          	addss  %xmm2,%xmm0
    16a9:	f2 45 0f 59 d2       	mulsd  %xmm10,%xmm10
    16ae:	44 0f 28 f2          	movaps %xmm2,%xmm14
    16b2:	f3 0f 59 d2          	mulss  %xmm2,%xmm2
    16b6:	f3 44 0f 5f f3       	maxss  %xmm3,%xmm14
    16bb:	41 0f 28 de          	movaps %xmm14,%xmm3
    16bf:	f2 45 0f 58 d3       	addsd  %xmm11,%xmm10
    16c4:	f3 0f 5a d2          	cvtss2sd %xmm2,%xmm2
    16c8:	f2 0f 58 d4          	addsd  %xmm4,%xmm2
    16cc:	f2 0f 10 a4 24 e8 00 	movsd  0xe8(%rsp),%xmm4
    16d3:	00 00 
    16d5:	66 41 0f 2f e0       	comisd %xmm8,%xmm4
    16da:	76 14                	jbe    16f0 <main+0x570>
    16dc:	66 45 0f ef c9       	pxor   %xmm9,%xmm9
    16e1:	66 45 0f ef c0       	pxor   %xmm8,%xmm8
    16e6:	f2 44 0f 5a cc       	cvtsd2ss %xmm4,%xmm9
    16eb:	f3 45 0f 5a c1       	cvtss2sd %xmm9,%xmm8
    16f0:	66 44 0f 2f fc       	comisd %xmm4,%xmm15
    16f5:	76 12                	jbe    1709 <main+0x589>
    16f7:	66 0f ef ed          	pxor   %xmm5,%xmm5
    16fb:	66 45 0f ef ff       	pxor   %xmm15,%xmm15
    1700:	f2 0f 5a ec          	cvtsd2ss %xmm4,%xmm5
    1704:	f3 44 0f 5a fd       	cvtss2sd %xmm5,%xmm15
    1709:	66 0f 2f cc          	comisd %xmm4,%xmm1
    170d:	0f 87 11 02 00 00    	ja     1924 <main+0x7a4>
    1713:	66 44 0f 28 dc       	movapd %xmm4,%xmm11
    1718:	f2 44 0f 5c d9       	subsd  %xmm1,%xmm11
    171d:	66 0f ef c9          	pxor   %xmm1,%xmm1
    1721:	f2 41 0f 5a cb       	cvtsd2ss %xmm11,%xmm1
    1726:	f2 0f 59 e4          	mulsd  %xmm4,%xmm4
    172a:	44 0f 28 e9          	movaps %xmm1,%xmm13
    172e:	f3 0f 58 c1          	addss  %xmm1,%xmm0
    1732:	f3 0f 59 c9          	mulss  %xmm1,%xmm1
    1736:	f3 44 0f 5f eb       	maxss  %xmm3,%xmm13
    173b:	41 0f 28 dd          	movaps %xmm13,%xmm3
    173f:	f2 41 0f 58 e2       	addsd  %xmm10,%xmm4
    1744:	f2 44 0f 10 94 24 f0 	movsd  0xf0(%rsp),%xmm10
    174b:	00 00 00 
    174e:	f3 0f 5a c9          	cvtss2sd %xmm1,%xmm1
    1752:	f2 0f 58 ca          	addsd  %xmm2,%xmm1
    1756:	66 45 0f 2f d0       	comisd %xmm8,%xmm10
    175b:	76 0a                	jbe    1767 <main+0x5e7>
    175d:	66 45 0f ef c9       	pxor   %xmm9,%xmm9
    1762:	f2 45 0f 5a ca       	cvtsd2ss %xmm10,%xmm9
    1767:	66 45 0f 2f fa       	comisd %xmm10,%xmm15
    176c:	76 09                	jbe    1777 <main+0x5f7>
    176e:	66 0f ef ed          	pxor   %xmm5,%xmm5
    1772:	f2 41 0f 5a ea       	cvtsd2ss %xmm10,%xmm5
    1777:	66 41 0f 2f fa       	comisd %xmm10,%xmm7
    177c:	0f 86 00 02 00 00    	jbe    1982 <main+0x802>
    1782:	f2 41 0f 5c fa       	subsd  %xmm10,%xmm7
    1787:	66 0f ef d2          	pxor   %xmm2,%xmm2
    178b:	f2 0f 5a d7          	cvtsd2ss %xmm7,%xmm2
    178f:	f3 0f 58 c2          	addss  %xmm2,%xmm0
    1793:	0f 28 fa             	movaps %xmm2,%xmm7
    1796:	f3 0f 5e 05 5e 09 00 	divss  0x95e(%rip),%xmm0        # 20fc <_IO_stdin_used+0xfc>
    179d:	00 
    179e:	66 0f 7e c3          	movd   %xmm0,%ebx
    17a2:	f3 0f 59 d2          	mulss  %xmm2,%xmm2
    17a6:	f3 0f 5f fb          	maxss  %xmm3,%xmm7
    17aa:	0f 28 df             	movaps %xmm7,%xmm3
    17ad:	f3 0f 5a d2          	cvtss2sd %xmm2,%xmm2
    17b1:	f2 0f 58 d1          	addsd  %xmm1,%xmm2
    17b5:	66 41 0f 28 ca       	movapd %xmm10,%xmm1
    17ba:	f2 41 0f 59 ca       	mulsd  %xmm10,%xmm1
    17bf:	66 0f 28 c2          	movapd %xmm2,%xmm0
    17c3:	f2 0f 5e 05 3d 09 00 	divsd  0x93d(%rip),%xmm0        # 2108 <_IO_stdin_used+0x108>
    17ca:	00 
    17cb:	66 0f 2e f0          	ucomisd %xmm0,%xmm6
    17cf:	f2 0f 58 cc          	addsd  %xmm4,%xmm1
    17d3:	0f 87 f5 01 00 00    	ja     19ce <main+0x84e>
    17d9:	f2 0f 51 c0          	sqrtsd %xmm0,%xmm0
    17dd:	f3 44 0f 5c cd       	subss  %xmm5,%xmm9
    17e2:	66 0f 2e d6          	ucomisd %xmm6,%xmm2
    17e6:	66 0f ef ff          	pxor   %xmm7,%xmm7
    17ea:	f2 0f 5a f8          	cvtsd2ss %xmm0,%xmm7
    17ee:	0f 28 ef             	movaps %xmm7,%xmm5
    17f1:	f3 41 0f 5e e9       	divss  %xmm9,%xmm5
    17f6:	66 0f 7e ed          	movd   %xmm5,%ebp
    17fa:	0f 8a 94 01 00 00    	jp     1994 <main+0x814>
    1800:	f3 0f 10 25 f0 08 00 	movss  0x8f0(%rip),%xmm4        # 20f8 <_IO_stdin_used+0xf8>
    1807:	00 
    1808:	0f 85 86 01 00 00    	jne    1994 <main+0x814>
    180e:	48 8d 3d cb 08 00 00 	lea    0x8cb(%rip),%rdi        # 20e0 <_IO_stdin_used+0xe0>
    1815:	f3 0f 11 64 24 18    	movss  %xmm4,0x18(%rsp)
    181b:	f3 0f 11 5c 24 08    	movss  %xmm3,0x8(%rsp)
    1821:	f3 0f 11 7c 24 10    	movss  %xmm7,0x10(%rsp)
    1827:	e8 b4 f8 ff ff       	call   10e0 <puts@plt>
    182c:	f3 0f 10 5c 24 08    	movss  0x8(%rsp),%xmm3
    1832:	f3 0f 10 64 24 18    	movss  0x18(%rsp),%xmm4
    1838:	66 0f 6e f5          	movd   %ebp,%xmm6
    183c:	f3 0f 10 7c 24 10    	movss  0x10(%rsp),%xmm7
    1842:	66 0f ef d2          	pxor   %xmm2,%xmm2
    1846:	66 0f ef c0          	pxor   %xmm0,%xmm0
    184a:	66 0f ef c9          	pxor   %xmm1,%xmm1
    184e:	f3 0f 5a d6          	cvtss2sd %xmm6,%xmm2
    1852:	48 8d 35 f7 07 00 00 	lea    0x7f7(%rip),%rsi        # 2050 <_IO_stdin_used+0x50>
    1859:	66 0f 6e f3          	movd   %ebx,%xmm6
    185d:	bf 01 00 00 00       	mov    $0x1,%edi
    1862:	f3 0f 5a c6          	cvtss2sd %xmm6,%xmm0
    1866:	f3 0f 5a e4          	cvtss2sd %xmm4,%xmm4
    186a:	f3 0f 5a db          	cvtss2sd %xmm3,%xmm3
    186e:	f3 0f 5a cf          	cvtss2sd %xmm7,%xmm1
    1872:	b8 05 00 00 00       	mov    $0x5,%eax
    1877:	f2 0f 11 54 24 08    	movsd  %xmm2,0x8(%rsp)
    187d:	e8 be f8 ff ff       	call   1140 <__printf_chk@plt>
    1882:	f2 0f 10 05 86 08 00 	movsd  0x886(%rip),%xmm0        # 2110 <_IO_stdin_used+0x110>
    1889:	00 
    188a:	f2 0f 10 54 24 08    	movsd  0x8(%rsp),%xmm2
    1890:	66 0f 2f c2          	comisd %xmm2,%xmm0
    1894:	19 c0                	sbb    %eax,%eax
    1896:	48 8b 94 24 08 03 00 	mov    0x308(%rsp),%rdx
    189d:	00 
    189e:	64 48 2b 14 25 28 00 	sub    %fs:0x28,%rdx
    18a5:	00 00 
    18a7:	0f 85 75 01 00 00    	jne    1a22 <main+0x8a2>
    18ad:	48 81 c4 10 03 00 00 	add    $0x310,%rsp
    18b4:	5b                   	pop    %rbx
    18b5:	5d                   	pop    %rbp
    18b6:	41 5c                	pop    %r12
    18b8:	41 5d                	pop    %r13
    18ba:	41 5e                	pop    %r14
    18bc:	c3                   	ret    
    18bd:	f2 0f 5c cb          	subsd  %xmm3,%xmm1
    18c1:	66 0f 28 c1          	movapd %xmm1,%xmm0
    18c5:	e9 c5 f9 ff ff       	jmp    128f <main+0x10f>
    18ca:	f2 45 0f 5c d4       	subsd  %xmm12,%xmm10
    18cf:	f2 45 0f 5a d2       	cvtsd2ss %xmm10,%xmm10
    18d4:	e9 bf fc ff ff       	jmp    1598 <main+0x418>
    18d9:	f2 45 0f 5c dd       	subsd  %xmm13,%xmm11
    18de:	f2 45 0f 5a db       	cvtsd2ss %xmm11,%xmm11
    18e3:	e9 21 fc ff ff       	jmp    1509 <main+0x389>
    18e8:	f2 41 0f 5c d8       	subsd  %xmm8,%xmm3
    18ed:	66 0f ef c0          	pxor   %xmm0,%xmm0
    18f1:	f2 0f 5a c3          	cvtsd2ss %xmm3,%xmm0
    18f5:	e9 68 fb ff ff       	jmp    1462 <main+0x2e2>
    18fa:	66 45 0f ef e4       	pxor   %xmm12,%xmm12
    18ff:	45 0f 28 cc          	movaps %xmm12,%xmm9
    1903:	e9 2e fb ff ff       	jmp    1436 <main+0x2b6>
    1908:	f2 41 0f 5c d2       	subsd  %xmm10,%xmm2
    190d:	f2 0f 5a d2          	cvtsd2ss %xmm2,%xmm2
    1911:	e9 8f fd ff ff       	jmp    16a5 <main+0x525>
    1916:	f2 41 0f 5c e3       	subsd  %xmm11,%xmm4
    191b:	f2 0f 5a e4          	cvtsd2ss %xmm4,%xmm4
    191f:	e9 fc fc ff ff       	jmp    1620 <main+0x4a0>
    1924:	f2 0f 5c cc          	subsd  %xmm4,%xmm1
    1928:	f2 0f 5a c9          	cvtsd2ss %xmm1,%xmm1
    192c:	e9 f5 fd ff ff       	jmp    1726 <main+0x5a6>
    1931:	66 0f 28 c7          	movapd %xmm7,%xmm0
    1935:	f2 41 0f 5c c0       	subsd  %xmm8,%xmm0
    193a:	e9 4d fa ff ff       	jmp    138c <main+0x20c>
    193f:	f2 0f 5c f9          	subsd  %xmm1,%xmm7
    1943:	66 0f 28 ef          	movapd %xmm7,%xmm5
    1947:	e9 15 fa ff ff       	jmp    1361 <main+0x1e1>
    194c:	f2 0f 5c ea          	subsd  %xmm2,%xmm5
    1950:	66 0f 28 c5          	movapd %xmm5,%xmm0
    1954:	e9 e0 f9 ff ff       	jmp    1339 <main+0x1b9>
    1959:	66 0f 28 ca          	movapd %xmm2,%xmm1
    195d:	f2 0f 5c cc          	subsd  %xmm4,%xmm1
    1961:	e9 ab f9 ff ff       	jmp    1311 <main+0x191>
    1966:	f2 41 0f 5c d2       	subsd  %xmm10,%xmm2
    196b:	66 0f 28 c2          	movapd %xmm2,%xmm0
    196f:	e9 75 f9 ff ff       	jmp    12e9 <main+0x169>
    1974:	66 0f 28 ca          	movapd %xmm2,%xmm1
    1978:	f2 41 0f 5c cb       	subsd  %xmm11,%xmm1
    197d:	e9 3c f9 ff ff       	jmp    12be <main+0x13e>
    1982:	66 41 0f 28 d2       	movapd %xmm10,%xmm2
    1987:	f2 0f 5c d7          	subsd  %xmm7,%xmm2
    198b:	f2 0f 5a d2          	cvtsd2ss %xmm2,%xmm2
    198f:	e9 fb fd ff ff       	jmp    178f <main+0x60f>
    1994:	f2 0f 5e ca          	divsd  %xmm2,%xmm1
    1998:	66 0f ef c0          	pxor   %xmm0,%xmm0
    199c:	f3 0f 11 5c 24 10    	movss  %xmm3,0x10(%rsp)
    19a2:	f3 0f 11 7c 24 08    	movss  %xmm7,0x8(%rsp)
    19a8:	f2 0f 5a c1          	cvtsd2ss %xmm1,%xmm0
    19ac:	e8 7f f7 ff ff       	call   1130 <log10f@plt>
    19b1:	f3 0f 10 5c 24 10    	movss  0x10(%rsp),%xmm3
    19b7:	f3 0f 10 25 41 07 00 	movss  0x741(%rip),%xmm4        # 2100 <_IO_stdin_used+0x100>
    19be:	00 
    19bf:	f3 0f 10 7c 24 08    	movss  0x8(%rsp),%xmm7
    19c5:	f3 0f 59 e0          	mulss  %xmm0,%xmm4
    19c9:	e9 40 fe ff ff       	jmp    180e <main+0x68e>
    19ce:	f3 44 0f 11 4c 24 28 	movss  %xmm9,0x28(%rsp)
    19d5:	f3 0f 11 6c 24 20    	movss  %xmm5,0x20(%rsp)
    19db:	f2 0f 11 4c 24 10    	movsd  %xmm1,0x10(%rsp)
    19e1:	f2 0f 11 54 24 08    	movsd  %xmm2,0x8(%rsp)
    19e7:	f3 0f 11 7c 24 18    	movss  %xmm7,0x18(%rsp)
    19ed:	e8 6e f7 ff ff       	call   1160 <sqrt@plt>
    19f2:	f3 44 0f 10 4c 24 28 	movss  0x28(%rsp),%xmm9
    19f9:	66 0f ef f6          	pxor   %xmm6,%xmm6
    19fd:	f3 0f 10 6c 24 20    	movss  0x20(%rsp),%xmm5
    1a03:	f3 0f 10 5c 24 18    	movss  0x18(%rsp),%xmm3
    1a09:	f2 0f 10 4c 24 10    	movsd  0x10(%rsp),%xmm1
    1a0f:	f2 0f 10 54 24 08    	movsd  0x8(%rsp),%xmm2
    1a15:	e9 c3 fd ff ff       	jmp    17dd <main+0x65d>
    1a1a:	83 c8 ff             	or     $0xffffffff,%eax
    1a1d:	e9 74 fe ff ff       	jmp    1896 <main+0x716>
    1a22:	e8 e9 f6 ff ff       	call   1110 <__stack_chk_fail@plt>
    1a27:	66 0f 1f 84 00 00 00 	nopw   0x0(%rax,%rax,1)
    1a2e:	00 00 

0000000000001a30 <_start>:
    1a30:	f3 0f 1e fa          	endbr64 
    1a34:	31 ed                	xor    %ebp,%ebp
    1a36:	49 89 d1             	mov    %rdx,%r9
    1a39:	5e                   	pop    %rsi
    1a3a:	48 89 e2             	mov    %rsp,%rdx
    1a3d:	48 83 e4 f0          	and    $0xfffffffffffffff0,%rsp
    1a41:	50                   	push   %rax
    1a42:	54                   	push   %rsp
    1a43:	45 31 c0             	xor    %r8d,%r8d
    1a46:	31 c9                	xor    %ecx,%ecx
    1a48:	48 8d 3d 31 f7 ff ff 	lea    -0x8cf(%rip),%rdi        # 1180 <main>
    1a4f:	ff 15 83 25 00 00    	call   *0x2583(%rip)        # 3fd8 <__libc_start_main@GLIBC_2.34>
    1a55:	f4                   	hlt    
    1a56:	66 2e 0f 1f 84 00 00 	cs nopw 0x0(%rax,%rax,1)
    1a5d:	00 00 00 

0000000000001a60 <deregister_tm_clones>:
    1a60:	48 8d 3d a9 25 00 00 	lea    0x25a9(%rip),%rdi        # 4010 <__TMC_END__>
    1a67:	48 8d 05 a2 25 00 00 	lea    0x25a2(%rip),%rax        # 4010 <__TMC_END__>
    1a6e:	48 39 f8             	cmp    %rdi,%rax
    1a71:	74 15                	je     1a88 <deregister_tm_clones+0x28>
    1a73:	48 8b 05 66 25 00 00 	mov    0x2566(%rip),%rax        # 3fe0 <_ITM_deregisterTMCloneTable@Base>
    1a7a:	48 85 c0             	test   %rax,%rax
    1a7d:	74 09                	je     1a88 <deregister_tm_clones+0x28>
    1a7f:	ff e0                	jmp    *%rax
    1a81:	0f 1f 80 00 00 00 00 	nopl   0x0(%rax)
    1a88:	c3                   	ret    
    1a89:	0f 1f 80 00 00 00 00 	nopl   0x0(%rax)

0000000000001a90 <register_tm_clones>:
    1a90:	48 8d 3d 79 25 00 00 	lea    0x2579(%rip),%rdi        # 4010 <__TMC_END__>
    1a97:	48 8d 35 72 25 00 00 	lea    0x2572(%rip),%rsi        # 4010 <__TMC_END__>
    1a9e:	48 29 fe             	sub    %rdi,%rsi
    1aa1:	48 89 f0             	mov    %rsi,%rax
    1aa4:	48 c1 ee 3f          	shr    $0x3f,%rsi
    1aa8:	48 c1 f8 03          	sar    $0x3,%rax
    1aac:	48 01 c6             	add    %rax,%rsi
    1aaf:	48 d1 fe             	sar    %rsi
    1ab2:	74 14                	je     1ac8 <register_tm_clones+0x38>
    1ab4:	48 8b 05 35 25 00 00 	mov    0x2535(%rip),%rax        # 3ff0 <_ITM_registerTMCloneTable@Base>
    1abb:	48 85 c0             	test   %rax,%rax
    1abe:	74 08                	je     1ac8 <register_tm_clones+0x38>
    1ac0:	ff e0                	jmp    *%rax
    1ac2:	66 0f 1f 44 00 00    	nopw   0x0(%rax,%rax,1)
    1ac8:	c3                   	ret    
    1ac9:	0f 1f 80 00 00 00 00 	nopl   0x0(%rax)

0000000000001ad0 <__do_global_dtors_aux>:
    1ad0:	f3 0f 1e fa          	endbr64 
    1ad4:	80 3d 35 25 00 00 00 	cmpb   $0x0,0x2535(%rip)        # 4010 <__TMC_END__>
    1adb:	75 2b                	jne    1b08 <__do_global_dtors_aux+0x38>
    1add:	55                   	push   %rbp
    1ade:	48 83 3d 12 25 00 00 	cmpq   $0x0,0x2512(%rip)        # 3ff8 <__cxa_finalize@GLIBC_2.2.5>
    1ae5:	00 
    1ae6:	48 89 e5             	mov    %rsp,%rbp
    1ae9:	74 0c                	je     1af7 <__do_global_dtors_aux+0x27>
    1aeb:	48 8b 3d 16 25 00 00 	mov    0x2516(%rip),%rdi        # 4008 <__dso_handle>
    1af2:	e8 d9 f5 ff ff       	call   10d0 <__cxa_finalize@plt>
    1af7:	e8 64 ff ff ff       	call   1a60 <deregister_tm_clones>
    1afc:	c6 05 0d 25 00 00 01 	movb   $0x1,0x250d(%rip)        # 4010 <__TMC_END__>
    1b03:	5d                   	pop    %rbp
    1b04:	c3                   	ret    
    1b05:	0f 1f 00             	nopl   (%rax)
    1b08:	c3                   	ret    
    1b09:	0f 1f 80 00 00 00 00 	nopl   0x0(%rax)

0000000000001b10 <frame_dummy>:
    1b10:	f3 0f 1e fa          	endbr64 
    1b14:	e9 77 ff ff ff       	jmp    1a90 <register_tm_clones>
    1b19:	0f 1f 80 00 00 00 00 	nopl   0x0(%rax)

0000000000001b20 <test_Fread.constprop.0.isra.0>:
    1b20:	48 89 f1             	mov    %rsi,%rcx
    1b23:	ba 07 00 00 00       	mov    $0x7,%edx
    1b28:	be 08 00 00 00       	mov    $0x8,%esi
    1b2d:	e9 be f5 ff ff       	jmp    10f0 <fread@plt>
    1b32:	66 2e 0f 1f 84 00 00 	cs nopw 0x0(%rax,%rax,1)
    1b39:	00 00 00 
    1b3c:	0f 1f 40 00          	nopl   0x0(%rax)

0000000000001b40 <riscv_dsp_log_f64>:
    1b40:	f3 0f 1e fa          	endbr64 
    1b44:	e9 d7 f5 ff ff       	jmp    1120 <log@plt>

Disassembly of section .fini:

0000000000001b4c <_fini>:
    1b4c:	f3 0f 1e fa          	endbr64 
    1b50:	48 83 ec 08          	sub    $0x8,%rsp
    1b54:	48 83 c4 08          	add    $0x8,%rsp
    1b58:	c3                   	ret    
