
t_mat_trans_q31:     file format elf64-x86-64


Disassembly of section .init:

0000000000001000 <_init>:
    1000:	f3 0f 1e fa          	endbr64 
    1004:	48 83 ec 08          	sub    $0x8,%rsp
    1008:	48 8b 05 d9 2f 00 00 	mov    0x2fd9(%rip),%rax        # 3fe8 <__gmon_start__@Base>
    100f:	48 85 c0             	test   %rax,%rax
    1012:	74 02                	je     1016 <_init+0x16>
    1014:	ff d0                	call   *%rax
    1016:	48 83 c4 08          	add    $0x8,%rsp
    101a:	c3                   	ret    

Disassembly of section .plt:

0000000000001020 <.plt>:
    1020:	ff 35 5a 2f 00 00    	push   0x2f5a(%rip)        # 3f80 <_GLOBAL_OFFSET_TABLE_+0x8>
    1026:	f2 ff 25 5b 2f 00 00 	bnd jmp *0x2f5b(%rip)        # 3f88 <_GLOBAL_OFFSET_TABLE_+0x10>
    102d:	0f 1f 00             	nopl   (%rax)
    1030:	f3 0f 1e fa          	endbr64 
    1034:	68 00 00 00 00       	push   $0x0
    1039:	f2 e9 e1 ff ff ff    	bnd jmp 1020 <_init+0x20>
    103f:	90                   	nop
    1040:	f3 0f 1e fa          	endbr64 
    1044:	68 01 00 00 00       	push   $0x1
    1049:	f2 e9 d1 ff ff ff    	bnd jmp 1020 <_init+0x20>
    104f:	90                   	nop
    1050:	f3 0f 1e fa          	endbr64 
    1054:	68 02 00 00 00       	push   $0x2
    1059:	f2 e9 c1 ff ff ff    	bnd jmp 1020 <_init+0x20>
    105f:	90                   	nop
    1060:	f3 0f 1e fa          	endbr64 
    1064:	68 03 00 00 00       	push   $0x3
    1069:	f2 e9 b1 ff ff ff    	bnd jmp 1020 <_init+0x20>
    106f:	90                   	nop
    1070:	f3 0f 1e fa          	endbr64 
    1074:	68 04 00 00 00       	push   $0x4
    1079:	f2 e9 a1 ff ff ff    	bnd jmp 1020 <_init+0x20>
    107f:	90                   	nop
    1080:	f3 0f 1e fa          	endbr64 
    1084:	68 05 00 00 00       	push   $0x5
    1089:	f2 e9 91 ff ff ff    	bnd jmp 1020 <_init+0x20>
    108f:	90                   	nop
    1090:	f3 0f 1e fa          	endbr64 
    1094:	68 06 00 00 00       	push   $0x6
    1099:	f2 e9 81 ff ff ff    	bnd jmp 1020 <_init+0x20>
    109f:	90                   	nop
    10a0:	f3 0f 1e fa          	endbr64 
    10a4:	68 07 00 00 00       	push   $0x7
    10a9:	f2 e9 71 ff ff ff    	bnd jmp 1020 <_init+0x20>
    10af:	90                   	nop
    10b0:	f3 0f 1e fa          	endbr64 
    10b4:	68 08 00 00 00       	push   $0x8
    10b9:	f2 e9 61 ff ff ff    	bnd jmp 1020 <_init+0x20>
    10bf:	90                   	nop

Disassembly of section .plt.got:

00000000000010c0 <__cxa_finalize@plt>:
    10c0:	f3 0f 1e fa          	endbr64 
    10c4:	f2 ff 25 2d 2f 00 00 	bnd jmp *0x2f2d(%rip)        # 3ff8 <__cxa_finalize@GLIBC_2.2.5>
    10cb:	0f 1f 44 00 00       	nopl   0x0(%rax,%rax,1)

Disassembly of section .plt.sec:

00000000000010d0 <puts@plt>:
    10d0:	f3 0f 1e fa          	endbr64 
    10d4:	f2 ff 25 b5 2e 00 00 	bnd jmp *0x2eb5(%rip)        # 3f90 <puts@GLIBC_2.2.5>
    10db:	0f 1f 44 00 00       	nopl   0x0(%rax,%rax,1)

00000000000010e0 <fread@plt>:
    10e0:	f3 0f 1e fa          	endbr64 
    10e4:	f2 ff 25 ad 2e 00 00 	bnd jmp *0x2ead(%rip)        # 3f98 <fread@GLIBC_2.2.5>
    10eb:	0f 1f 44 00 00       	nopl   0x0(%rax,%rax,1)

00000000000010f0 <fclose@plt>:
    10f0:	f3 0f 1e fa          	endbr64 
    10f4:	f2 ff 25 a5 2e 00 00 	bnd jmp *0x2ea5(%rip)        # 3fa0 <fclose@GLIBC_2.2.5>
    10fb:	0f 1f 44 00 00       	nopl   0x0(%rax,%rax,1)

0000000000001100 <__stack_chk_fail@plt>:
    1100:	f3 0f 1e fa          	endbr64 
    1104:	f2 ff 25 9d 2e 00 00 	bnd jmp *0x2e9d(%rip)        # 3fa8 <__stack_chk_fail@GLIBC_2.4>
    110b:	0f 1f 44 00 00       	nopl   0x0(%rax,%rax,1)

0000000000001110 <log10f@plt>:
    1110:	f3 0f 1e fa          	endbr64 
    1114:	f2 ff 25 95 2e 00 00 	bnd jmp *0x2e95(%rip)        # 3fb0 <log10f@GLIBC_2.2.5>
    111b:	0f 1f 44 00 00       	nopl   0x0(%rax,%rax,1)

0000000000001120 <__printf_chk@plt>:
    1120:	f3 0f 1e fa          	endbr64 
    1124:	f2 ff 25 8d 2e 00 00 	bnd jmp *0x2e8d(%rip)        # 3fb8 <__printf_chk@GLIBC_2.3.4>
    112b:	0f 1f 44 00 00       	nopl   0x0(%rax,%rax,1)

0000000000001130 <fopen@plt>:
    1130:	f3 0f 1e fa          	endbr64 
    1134:	f2 ff 25 85 2e 00 00 	bnd jmp *0x2e85(%rip)        # 3fc0 <fopen@GLIBC_2.2.5>
    113b:	0f 1f 44 00 00       	nopl   0x0(%rax,%rax,1)

0000000000001140 <sqrt@plt>:
    1140:	f3 0f 1e fa          	endbr64 
    1144:	f2 ff 25 7d 2e 00 00 	bnd jmp *0x2e7d(%rip)        # 3fc8 <sqrt@GLIBC_2.2.5>
    114b:	0f 1f 44 00 00       	nopl   0x0(%rax,%rax,1)

0000000000001150 <__sprintf_chk@plt>:
    1150:	f3 0f 1e fa          	endbr64 
    1154:	f2 ff 25 75 2e 00 00 	bnd jmp *0x2e75(%rip)        # 3fd0 <__sprintf_chk@GLIBC_2.3.4>
    115b:	0f 1f 44 00 00       	nopl   0x0(%rax,%rax,1)

Disassembly of section .text:

0000000000001160 <main>:
    1160:	f3 0f 1e fa          	endbr64 
    1164:	55                   	push   %rbp
    1165:	48 89 e5             	mov    %rsp,%rbp
    1168:	41 57                	push   %r15
    116a:	41 56                	push   %r14
    116c:	41 55                	push   %r13
    116e:	41 54                	push   %r12
    1170:	53                   	push   %rbx
    1171:	48 81 ec 48 02 00 00 	sub    $0x248,%rsp
    1178:	64 48 8b 04 25 28 00 	mov    %fs:0x28,%rax
    117f:	00 00 
    1181:	48 89 45 c8          	mov    %rax,-0x38(%rbp)
    1185:	31 c0                	xor    %eax,%eax
    1187:	48 8d 84 24 00 70 ff 	lea    -0x9000(%rsp),%rax
    118e:	ff 
    118f:	48 39 c4             	cmp    %rax,%rsp
    1192:	74 15                	je     11a9 <main+0x49>
    1194:	48 81 ec 00 10 00 00 	sub    $0x1000,%rsp
    119b:	48 83 8c 24 f8 0f 00 	orq    $0x0,0xff8(%rsp)
    11a2:	00 00 
    11a4:	48 39 c4             	cmp    %rax,%rsp
    11a7:	75 eb                	jne    1194 <main+0x34>
    11a9:	48 81 ec 30 09 00 00 	sub    $0x930,%rsp
    11b0:	48 83 8c 24 28 09 00 	orq    $0x0,0x928(%rsp)
    11b7:	00 00 
    11b9:	48 89 a5 b8 fd ff ff 	mov    %rsp,-0x248(%rbp)
    11c0:	48 8d 84 24 00 70 ff 	lea    -0x9000(%rsp),%rax
    11c7:	ff 
    11c8:	48 39 c4             	cmp    %rax,%rsp
    11cb:	74 12                	je     11df <main+0x7f>
    11cd:	48 81 ec 00 10 00 00 	sub    $0x1000,%rsp
    11d4:	48 83 8c 24 f8 0f 00 	orq    $0x0,0xff8(%rsp)
    11db:	00 00 
    11dd:	eb e9                	jmp    11c8 <main+0x68>
    11df:	48 81 ec 30 09 00 00 	sub    $0x930,%rsp
    11e6:	48 83 8c 24 28 09 00 	orq    $0x0,0x928(%rsp)
    11ed:	00 00 
    11ef:	4c 8d 74 24 03       	lea    0x3(%rsp),%r14
    11f4:	48 8d 84 24 00 70 ff 	lea    -0x9000(%rsp),%rax
    11fb:	ff 
    11fc:	4c 89 f3             	mov    %r14,%rbx
    11ff:	49 83 e6 fc          	and    $0xfffffffffffffffc,%r14
    1203:	48 c1 eb 02          	shr    $0x2,%rbx
    1207:	48 39 c4             	cmp    %rax,%rsp
    120a:	74 12                	je     121e <main+0xbe>
    120c:	48 81 ec 00 10 00 00 	sub    $0x1000,%rsp
    1213:	48 83 8c 24 f8 0f 00 	orq    $0x0,0xff8(%rsp)
    121a:	00 00 
    121c:	eb e9                	jmp    1207 <main+0xa7>
    121e:	48 81 ec 30 09 00 00 	sub    $0x930,%rsp
    1225:	48 83 8c 24 28 09 00 	orq    $0x0,0x928(%rsp)
    122c:	00 00 
    122e:	4c 8d 05 d3 0d 00 00 	lea    0xdd3(%rip),%r8        # 2008 <_IO_stdin_used+0x8>
    1235:	ba 00 02 00 00       	mov    $0x200,%edx
    123a:	31 c0                	xor    %eax,%eax
    123c:	48 8d 0d 57 0e 00 00 	lea    0xe57(%rip),%rcx        # 209a <_IO_stdin_used+0x9a>
    1243:	be 01 00 00 00       	mov    $0x1,%esi
    1248:	4c 8d 25 5e 0e 00 00 	lea    0xe5e(%rip),%r12        # 20ad <_IO_stdin_used+0xad>
    124f:	4c 8d 7c 24 03       	lea    0x3(%rsp),%r15
    1254:	48 8d bd c0 fd ff ff 	lea    -0x240(%rbp),%rdi
    125b:	4d 89 fa             	mov    %r15,%r10
    125e:	48 89 bd b0 fd ff ff 	mov    %rdi,-0x250(%rbp)
    1265:	49 83 e7 fc          	and    $0xfffffffffffffffc,%r15
    1269:	49 c1 ea 02          	shr    $0x2,%r10
    126d:	4c 89 95 a8 fd ff ff 	mov    %r10,-0x258(%rbp)
    1274:	e8 d7 fe ff ff       	call   1150 <__sprintf_chk@plt>
    1279:	48 8b bd b0 fd ff ff 	mov    -0x250(%rbp),%rdi
    1280:	4c 89 e6             	mov    %r12,%rsi
    1283:	e8 a8 fe ff ff       	call   1130 <fopen@plt>
    1288:	48 8b bd b0 fd ff ff 	mov    -0x250(%rbp),%rdi
    128f:	4c 8b 95 a8 fd ff ff 	mov    -0x258(%rbp),%r10
    1296:	48 85 c0             	test   %rax,%rax
    1299:	49 89 c5             	mov    %rax,%r13
    129c:	0f 84 c8 03 00 00    	je     166a <main+0x50a>
    12a2:	4c 8d 05 5f 0d 00 00 	lea    0xd5f(%rip),%r8        # 2008 <_IO_stdin_used+0x8>
    12a9:	48 8d 0d ff 0d 00 00 	lea    0xdff(%rip),%rcx        # 20af <_IO_stdin_used+0xaf>
    12b0:	ba 00 02 00 00       	mov    $0x200,%edx
    12b5:	31 c0                	xor    %eax,%eax
    12b7:	be 01 00 00 00       	mov    $0x1,%esi
    12bc:	4c 89 95 a8 fd ff ff 	mov    %r10,-0x258(%rbp)
    12c3:	48 89 bd b0 fd ff ff 	mov    %rdi,-0x250(%rbp)
    12ca:	e8 81 fe ff ff       	call   1150 <__sprintf_chk@plt>
    12cf:	48 8b bd b0 fd ff ff 	mov    -0x250(%rbp),%rdi
    12d6:	4c 89 e6             	mov    %r12,%rsi
    12d9:	e8 52 fe ff ff       	call   1130 <fopen@plt>
    12de:	49 89 c4             	mov    %rax,%r12
    12e1:	48 85 c0             	test   %rax,%rax
    12e4:	0f 84 80 03 00 00    	je     166a <main+0x50a>
    12ea:	48 8b bd b8 fd ff ff 	mov    -0x248(%rbp),%rdi
    12f1:	4c 89 ee             	mov    %r13,%rsi
    12f4:	e8 a7 04 00 00       	call   17a0 <test_Fread.constprop.0.isra.0>
    12f9:	4c 89 e6             	mov    %r12,%rsi
    12fc:	4c 89 ff             	mov    %r15,%rdi
    12ff:	e8 9c 04 00 00       	call   17a0 <test_Fread.constprop.0.isra.0>
    1304:	48 8b bd b8 fd ff ff 	mov    -0x248(%rbp),%rdi
    130b:	b9 63 00 00 00       	mov    $0x63,%ecx
    1310:	4c 89 f6             	mov    %r14,%rsi
    1313:	ba 63 00 00 00       	mov    $0x63,%edx
    1318:	e8 63 05 00 00       	call   1880 <riscv_dsp_mat_trans_q31>
    131d:	4c 8b 95 a8 fd ff ff 	mov    -0x258(%rbp),%r10
    1324:	31 c0                	xor    %eax,%eax
    1326:	66 0f ef d2          	pxor   %xmm2,%xmm2
    132a:	66 0f 1f 44 00 00    	nopw   0x0(%rax,%rax,1)
    1330:	f3 41 0f 6f 04 07    	movdqu (%r15,%rax,1),%xmm0
    1336:	f3 41 0f 6f 2c 06    	movdqu (%r14,%rax,1),%xmm5
    133c:	48 83 c0 10          	add    $0x10,%rax
    1340:	66 0f fa c5          	psubd  %xmm5,%xmm0
    1344:	66 0f 6f c8          	movdqa %xmm0,%xmm1
    1348:	66 0f 72 e1 1f       	psrad  $0x1f,%xmm1
    134d:	66 0f ef c1          	pxor   %xmm1,%xmm0
    1351:	66 0f fa c1          	psubd  %xmm1,%xmm0
    1355:	66 0f 6f c8          	movdqa %xmm0,%xmm1
    1359:	66 0f 66 ca          	pcmpgtd %xmm2,%xmm1
    135d:	66 0f db c1          	pand   %xmm1,%xmm0
    1361:	66 0f df ca          	pandn  %xmm2,%xmm1
    1365:	66 0f 6f d1          	movdqa %xmm1,%xmm2
    1369:	66 0f eb d0          	por    %xmm0,%xmm2
    136d:	48 3d 20 99 00 00    	cmp    $0x9920,%rax
    1373:	75 bb                	jne    1330 <main+0x1d0>
    1375:	66 0f 6f c2          	movdqa %xmm2,%xmm0
    1379:	42 8b 0c 95 20 99 00 	mov    0x9920(,%r10,4),%ecx
    1380:	00 
    1381:	bf 01 00 00 00       	mov    $0x1,%edi
    1386:	2b 0c 9d 20 99 00 00 	sub    0x9920(,%rbx,4),%ecx
    138d:	66 0f 73 d8 08       	psrldq $0x8,%xmm0
    1392:	89 ca                	mov    %ecx,%edx
    1394:	48 8d 35 30 0d 00 00 	lea    0xd30(%rip),%rsi        # 20cb <_IO_stdin_used+0xcb>
    139b:	66 0f 6f c8          	movdqa %xmm0,%xmm1
    139f:	f7 da                	neg    %edx
    13a1:	66 0f 66 ca          	pcmpgtd %xmm2,%xmm1
    13a5:	0f 48 d1             	cmovs  %ecx,%edx
    13a8:	66 0f db c1          	pand   %xmm1,%xmm0
    13ac:	66 0f df ca          	pandn  %xmm2,%xmm1
    13b0:	66 0f eb c8          	por    %xmm0,%xmm1
    13b4:	66 0f 6f d1          	movdqa %xmm1,%xmm2
    13b8:	66 0f 73 da 04       	psrldq $0x4,%xmm2
    13bd:	66 0f 6f c2          	movdqa %xmm2,%xmm0
    13c1:	66 0f 66 c1          	pcmpgtd %xmm1,%xmm0
    13c5:	66 0f db d0          	pand   %xmm0,%xmm2
    13c9:	66 0f df c1          	pandn  %xmm1,%xmm0
    13cd:	66 0f eb c2          	por    %xmm2,%xmm0
    13d1:	66 0f 7e c0          	movd   %xmm0,%eax
    13d5:	39 c2                	cmp    %eax,%edx
    13d7:	0f 4c d0             	cmovl  %eax,%edx
    13da:	31 c0                	xor    %eax,%eax
    13dc:	e8 3f fd ff ff       	call   1120 <__printf_chk@plt>
    13e1:	4c 89 ef             	mov    %r13,%rdi
    13e4:	e8 07 fd ff ff       	call   10f0 <fclose@plt>
    13e9:	4c 89 e7             	mov    %r12,%rdi
    13ec:	e8 ff fc ff ff       	call   10f0 <fclose@plt>
    13f1:	48 8d 84 24 00 70 ff 	lea    -0x9000(%rsp),%rax
    13f8:	ff 
    13f9:	48 39 c4             	cmp    %rax,%rsp
    13fc:	74 15                	je     1413 <main+0x2b3>
    13fe:	48 81 ec 00 10 00 00 	sub    $0x1000,%rsp
    1405:	48 83 8c 24 f8 0f 00 	orq    $0x0,0xff8(%rsp)
    140c:	00 00 
    140e:	48 39 c4             	cmp    %rax,%rsp
    1411:	75 eb                	jne    13fe <main+0x29e>
    1413:	48 81 ec 30 09 00 00 	sub    $0x930,%rsp
    141a:	48 83 8c 24 28 09 00 	orq    $0x0,0x928(%rsp)
    1421:	00 00 
    1423:	48 8d 84 24 00 70 ff 	lea    -0x9000(%rsp),%rax
    142a:	ff 
    142b:	48 89 e3             	mov    %rsp,%rbx
    142e:	48 39 c4             	cmp    %rax,%rsp
    1431:	74 15                	je     1448 <main+0x2e8>
    1433:	48 81 ec 00 10 00 00 	sub    $0x1000,%rsp
    143a:	48 83 8c 24 f8 0f 00 	orq    $0x0,0xff8(%rsp)
    1441:	00 00 
    1443:	48 39 c4             	cmp    %rax,%rsp
    1446:	75 eb                	jne    1433 <main+0x2d3>
    1448:	48 81 ec 30 09 00 00 	sub    $0x930,%rsp
    144f:	48 83 8c 24 28 09 00 	orq    $0x0,0x928(%rsp)
    1456:	00 00 
    1458:	ba 49 26 00 00       	mov    $0x2649,%edx
    145d:	48 89 de             	mov    %rbx,%rsi
    1460:	4c 89 ff             	mov    %r15,%rdi
    1463:	49 89 e4             	mov    %rsp,%r12
    1466:	e8 55 03 00 00       	call   17c0 <riscv_dsp_convert_q31_f32>
    146b:	ba 49 26 00 00       	mov    $0x2649,%edx
    1470:	4c 89 e6             	mov    %r12,%rsi
    1473:	4c 89 f7             	mov    %r14,%rdi
    1476:	e8 45 03 00 00       	call   17c0 <riscv_dsp_convert_q31_f32>
    147b:	66 0f ef ed          	pxor   %xmm5,%xmm5
    147f:	66 0f ef ff          	pxor   %xmm7,%xmm7
    1483:	31 c0                	xor    %eax,%eax
    1485:	66 0f 28 f7          	movapd %xmm7,%xmm6
    1489:	0f 28 dd             	movaps %xmm5,%xmm3
    148c:	0f 28 c5             	movaps %xmm5,%xmm0
    148f:	44 0f 28 c5          	movaps %xmm5,%xmm8
    1493:	44 0f 28 cd          	movaps %xmm5,%xmm9
    1497:	f3 44 0f 10 15 60 0c 	movss  0xc60(%rip),%xmm10        # 2100 <_IO_stdin_used+0x100>
    149e:	00 00 
    14a0:	f3 41 0f 10 0c 04    	movss  (%r12,%rax,1),%xmm1
    14a6:	f3 0f 10 14 03       	movss  (%rbx,%rax,1),%xmm2
    14ab:	66 0f 7e ce          	movd   %xmm1,%esi
    14af:	81 fe 00 00 c0 7f    	cmp    $0x7fc00000,%esi
    14b5:	0f 84 af 01 00 00    	je     166a <main+0x50a>
    14bb:	0f 28 e2             	movaps %xmm2,%xmm4
    14be:	f3 0f 5c ca          	subss  %xmm2,%xmm1
    14c2:	48 83 c0 04          	add    $0x4,%rax
    14c6:	f3 41 0f 5f e1       	maxss  %xmm9,%xmm4
    14cb:	44 0f 28 cc          	movaps %xmm4,%xmm9
    14cf:	0f 28 e2             	movaps %xmm2,%xmm4
    14d2:	f3 41 0f 5d e0       	minss  %xmm8,%xmm4
    14d7:	f3 0f 59 d2          	mulss  %xmm2,%xmm2
    14db:	44 0f 28 c4          	movaps %xmm4,%xmm8
    14df:	0f 28 e1             	movaps %xmm1,%xmm4
    14e2:	f3 0f 59 c9          	mulss  %xmm1,%xmm1
    14e6:	41 0f 54 e2          	andps  %xmm10,%xmm4
    14ea:	f3 0f 58 c4          	addss  %xmm4,%xmm0
    14ee:	f3 0f 5f e3          	maxss  %xmm3,%xmm4
    14f2:	f3 0f 5a d2          	cvtss2sd %xmm2,%xmm2
    14f6:	f2 0f 58 fa          	addsd  %xmm2,%xmm7
    14fa:	0f 28 dc             	movaps %xmm4,%xmm3
    14fd:	f3 0f 5a c9          	cvtss2sd %xmm1,%xmm1
    1501:	f2 0f 58 f1          	addsd  %xmm1,%xmm6
    1505:	48 3d 24 99 00 00    	cmp    $0x9924,%rax
    150b:	75 93                	jne    14a0 <main+0x340>
    150d:	66 48 0f 7e f0       	movq   %xmm6,%rax
    1512:	f3 0f 11 a5 a4 fd ff 	movss  %xmm4,-0x25c(%rbp)
    1519:	ff 
    151a:	f3 44 0f 11 85 a8 fd 	movss  %xmm8,-0x258(%rbp)
    1521:	ff ff 
    1523:	f3 44 0f 11 8d b0 fd 	movss  %xmm9,-0x250(%rbp)
    152a:	ff ff 
    152c:	f2 0f 11 bd b8 fd ff 	movsd  %xmm7,-0x248(%rbp)
    1533:	ff 
    1534:	3d 00 00 c0 7f       	cmp    $0x7fc00000,%eax
    1539:	0f 84 2b 01 00 00    	je     166a <main+0x50a>
    153f:	f3 0f 5e 05 b1 0b 00 	divss  0xbb1(%rip),%xmm0        # 20f8 <_IO_stdin_used+0xf8>
    1546:	00 
    1547:	f2 0f 11 b5 98 fd ff 	movsd  %xmm6,-0x268(%rbp)
    154e:	ff 
    154f:	66 41 0f 7e c5       	movd   %xmm0,%r13d
    1554:	66 0f 28 c6          	movapd %xmm6,%xmm0
    1558:	f2 0f 5e 05 b0 0b 00 	divsd  0xbb0(%rip),%xmm0        # 2110 <_IO_stdin_used+0x110>
    155f:	00 
    1560:	e8 db fb ff ff       	call   1140 <sqrt@plt>
    1565:	f3 44 0f 10 8d b0 fd 	movss  -0x250(%rbp),%xmm9
    156c:	ff ff 
    156e:	f3 44 0f 10 85 a8 fd 	movss  -0x258(%rbp),%xmm8
    1575:	ff ff 
    1577:	66 0f ef f6          	pxor   %xmm6,%xmm6
    157b:	66 0f ef ff          	pxor   %xmm7,%xmm7
    157f:	f3 0f 10 9d a4 fd ff 	movss  -0x25c(%rbp),%xmm3
    1586:	ff 
    1587:	f2 0f 5a f0          	cvtsd2ss %xmm0,%xmm6
    158b:	41 0f 28 c1          	movaps %xmm9,%xmm0
    158f:	66 0f 7e f3          	movd   %xmm6,%ebx
    1593:	f3 41 0f 5c c0       	subss  %xmm8,%xmm0
    1598:	f3 0f 5e f0          	divss  %xmm0,%xmm6
    159c:	66 41 0f 7e f4       	movd   %xmm6,%r12d
    15a1:	f2 0f 10 b5 98 fd ff 	movsd  -0x268(%rbp),%xmm6
    15a8:	ff 
    15a9:	66 0f 2e f7          	ucomisd %xmm7,%xmm6
    15ad:	f2 0f 10 bd b8 fd ff 	movsd  -0x248(%rbp),%xmm7
    15b4:	ff 
    15b5:	0f 8a b4 00 00 00    	jp     166f <main+0x50f>
    15bb:	44 8b 35 32 0b 00 00 	mov    0xb32(%rip),%r14d        # 20f4 <_IO_stdin_used+0xf4>
    15c2:	0f 85 a7 00 00 00    	jne    166f <main+0x50f>
    15c8:	48 8d 3d 0f 0b 00 00 	lea    0xb0f(%rip),%rdi        # 20de <_IO_stdin_used+0xde>
    15cf:	f3 0f 11 9d b8 fd ff 	movss  %xmm3,-0x248(%rbp)
    15d6:	ff 
    15d7:	e8 f4 fa ff ff       	call   10d0 <puts@plt>
    15dc:	66 41 0f 6e fd       	movd   %r13d,%xmm7
    15e1:	66 41 0f 6e f6       	movd   %r14d,%xmm6
    15e6:	f3 0f 10 9d b8 fd ff 	movss  -0x248(%rbp),%xmm3
    15ed:	ff 
    15ee:	66 0f ef c0          	pxor   %xmm0,%xmm0
    15f2:	66 0f ef e4          	pxor   %xmm4,%xmm4
    15f6:	66 0f ef d2          	pxor   %xmm2,%xmm2
    15fa:	bf 01 00 00 00       	mov    $0x1,%edi
    15ff:	f3 0f 5a c7          	cvtss2sd %xmm7,%xmm0
    1603:	f3 0f 5a e6          	cvtss2sd %xmm6,%xmm4
    1607:	66 0f ef c9          	pxor   %xmm1,%xmm1
    160b:	66 41 0f 6e fc       	movd   %r12d,%xmm7
    1610:	66 0f 6e f3          	movd   %ebx,%xmm6
    1614:	48 8d 35 2d 0a 00 00 	lea    0xa2d(%rip),%rsi        # 2048 <_IO_stdin_used+0x48>
    161b:	f3 0f 5a d7          	cvtss2sd %xmm7,%xmm2
    161f:	f3 0f 5a db          	cvtss2sd %xmm3,%xmm3
    1623:	b8 05 00 00 00       	mov    $0x5,%eax
    1628:	f3 0f 5a ce          	cvtss2sd %xmm6,%xmm1
    162c:	e8 ef fa ff ff       	call   1120 <__printf_chk@plt>
    1631:	66 41 0f 6e fc       	movd   %r12d,%xmm7
    1636:	66 0f ef ed          	pxor   %xmm5,%xmm5
    163a:	31 c0                	xor    %eax,%eax
    163c:	0f 2e fd             	ucomiss %xmm5,%xmm7
    163f:	ba 01 00 00 00       	mov    $0x1,%edx
    1644:	0f 9a c0             	setp   %al
    1647:	0f 45 c2             	cmovne %edx,%eax
    164a:	f7 d8                	neg    %eax
    164c:	48 8b 55 c8          	mov    -0x38(%rbp),%rdx
    1650:	64 48 2b 14 25 28 00 	sub    %fs:0x28,%rdx
    1657:	00 00 
    1659:	75 47                	jne    16a2 <main+0x542>
    165b:	48 8d 65 d8          	lea    -0x28(%rbp),%rsp
    165f:	5b                   	pop    %rbx
    1660:	41 5c                	pop    %r12
    1662:	41 5d                	pop    %r13
    1664:	41 5e                	pop    %r14
    1666:	41 5f                	pop    %r15
    1668:	5d                   	pop    %rbp
    1669:	c3                   	ret    
    166a:	83 c8 ff             	or     $0xffffffff,%eax
    166d:	eb dd                	jmp    164c <main+0x4ec>
    166f:	f2 0f 5e fe          	divsd  %xmm6,%xmm7
    1673:	66 0f ef c0          	pxor   %xmm0,%xmm0
    1677:	f3 0f 11 9d b8 fd ff 	movss  %xmm3,-0x248(%rbp)
    167e:	ff 
    167f:	f2 0f 5a c7          	cvtsd2ss %xmm7,%xmm0
    1683:	e8 88 fa ff ff       	call   1110 <log10f@plt>
    1688:	f3 0f 59 05 6c 0a 00 	mulss  0xa6c(%rip),%xmm0        # 20fc <_IO_stdin_used+0xfc>
    168f:	00 
    1690:	f3 0f 10 9d b8 fd ff 	movss  -0x248(%rbp),%xmm3
    1697:	ff 
    1698:	66 41 0f 7e c6       	movd   %xmm0,%r14d
    169d:	e9 26 ff ff ff       	jmp    15c8 <main+0x468>
    16a2:	e8 59 fa ff ff       	call   1100 <__stack_chk_fail@plt>
    16a7:	66 0f 1f 84 00 00 00 	nopw   0x0(%rax,%rax,1)
    16ae:	00 00 

00000000000016b0 <_start>:
    16b0:	f3 0f 1e fa          	endbr64 
    16b4:	31 ed                	xor    %ebp,%ebp
    16b6:	49 89 d1             	mov    %rdx,%r9
    16b9:	5e                   	pop    %rsi
    16ba:	48 89 e2             	mov    %rsp,%rdx
    16bd:	48 83 e4 f0          	and    $0xfffffffffffffff0,%rsp
    16c1:	50                   	push   %rax
    16c2:	54                   	push   %rsp
    16c3:	45 31 c0             	xor    %r8d,%r8d
    16c6:	31 c9                	xor    %ecx,%ecx
    16c8:	48 8d 3d 91 fa ff ff 	lea    -0x56f(%rip),%rdi        # 1160 <main>
    16cf:	ff 15 03 29 00 00    	call   *0x2903(%rip)        # 3fd8 <__libc_start_main@GLIBC_2.34>
    16d5:	f4                   	hlt    
    16d6:	66 2e 0f 1f 84 00 00 	cs nopw 0x0(%rax,%rax,1)
    16dd:	00 00 00 

00000000000016e0 <deregister_tm_clones>:
    16e0:	48 8d 3d 29 29 00 00 	lea    0x2929(%rip),%rdi        # 4010 <__TMC_END__>
    16e7:	48 8d 05 22 29 00 00 	lea    0x2922(%rip),%rax        # 4010 <__TMC_END__>
    16ee:	48 39 f8             	cmp    %rdi,%rax
    16f1:	74 15                	je     1708 <deregister_tm_clones+0x28>
    16f3:	48 8b 05 e6 28 00 00 	mov    0x28e6(%rip),%rax        # 3fe0 <_ITM_deregisterTMCloneTable@Base>
    16fa:	48 85 c0             	test   %rax,%rax
    16fd:	74 09                	je     1708 <deregister_tm_clones+0x28>
    16ff:	ff e0                	jmp    *%rax
    1701:	0f 1f 80 00 00 00 00 	nopl   0x0(%rax)
    1708:	c3                   	ret    
    1709:	0f 1f 80 00 00 00 00 	nopl   0x0(%rax)

0000000000001710 <register_tm_clones>:
    1710:	48 8d 3d f9 28 00 00 	lea    0x28f9(%rip),%rdi        # 4010 <__TMC_END__>
    1717:	48 8d 35 f2 28 00 00 	lea    0x28f2(%rip),%rsi        # 4010 <__TMC_END__>
    171e:	48 29 fe             	sub    %rdi,%rsi
    1721:	48 89 f0             	mov    %rsi,%rax
    1724:	48 c1 ee 3f          	shr    $0x3f,%rsi
    1728:	48 c1 f8 03          	sar    $0x3,%rax
    172c:	48 01 c6             	add    %rax,%rsi
    172f:	48 d1 fe             	sar    %rsi
    1732:	74 14                	je     1748 <register_tm_clones+0x38>
    1734:	48 8b 05 b5 28 00 00 	mov    0x28b5(%rip),%rax        # 3ff0 <_ITM_registerTMCloneTable@Base>
    173b:	48 85 c0             	test   %rax,%rax
    173e:	74 08                	je     1748 <register_tm_clones+0x38>
    1740:	ff e0                	jmp    *%rax
    1742:	66 0f 1f 44 00 00    	nopw   0x0(%rax,%rax,1)
    1748:	c3                   	ret    
    1749:	0f 1f 80 00 00 00 00 	nopl   0x0(%rax)

0000000000001750 <__do_global_dtors_aux>:
    1750:	f3 0f 1e fa          	endbr64 
    1754:	80 3d b5 28 00 00 00 	cmpb   $0x0,0x28b5(%rip)        # 4010 <__TMC_END__>
    175b:	75 2b                	jne    1788 <__do_global_dtors_aux+0x38>
    175d:	55                   	push   %rbp
    175e:	48 83 3d 92 28 00 00 	cmpq   $0x0,0x2892(%rip)        # 3ff8 <__cxa_finalize@GLIBC_2.2.5>
    1765:	00 
    1766:	48 89 e5             	mov    %rsp,%rbp
    1769:	74 0c                	je     1777 <__do_global_dtors_aux+0x27>
    176b:	48 8b 3d 96 28 00 00 	mov    0x2896(%rip),%rdi        # 4008 <__dso_handle>
    1772:	e8 49 f9 ff ff       	call   10c0 <__cxa_finalize@plt>
    1777:	e8 64 ff ff ff       	call   16e0 <deregister_tm_clones>
    177c:	c6 05 8d 28 00 00 01 	movb   $0x1,0x288d(%rip)        # 4010 <__TMC_END__>
    1783:	5d                   	pop    %rbp
    1784:	c3                   	ret    
    1785:	0f 1f 00             	nopl   (%rax)
    1788:	c3                   	ret    
    1789:	0f 1f 80 00 00 00 00 	nopl   0x0(%rax)

0000000000001790 <frame_dummy>:
    1790:	f3 0f 1e fa          	endbr64 
    1794:	e9 77 ff ff ff       	jmp    1710 <register_tm_clones>
    1799:	0f 1f 80 00 00 00 00 	nopl   0x0(%rax)

00000000000017a0 <test_Fread.constprop.0.isra.0>:
    17a0:	48 89 f1             	mov    %rsi,%rcx
    17a3:	ba 49 26 00 00       	mov    $0x2649,%edx
    17a8:	be 04 00 00 00       	mov    $0x4,%esi
    17ad:	e9 2e f9 ff ff       	jmp    10e0 <fread@plt>
    17b2:	66 2e 0f 1f 84 00 00 	cs nopw 0x0(%rax,%rax,1)
    17b9:	00 00 00 
    17bc:	0f 1f 40 00          	nopl   0x0(%rax)

00000000000017c0 <riscv_dsp_convert_q31_f32>:
    17c0:	f3 0f 1e fa          	endbr64 
    17c4:	48 89 f1             	mov    %rsi,%rcx
    17c7:	85 d2                	test   %edx,%edx
    17c9:	0f 84 97 00 00 00    	je     1866 <riscv_dsp_convert_q31_f32+0xa6>
    17cf:	8d 42 ff             	lea    -0x1(%rdx),%eax
    17d2:	83 f8 02             	cmp    $0x2,%eax
    17d5:	0f 86 96 00 00 00    	jbe    1871 <riscv_dsp_convert_q31_f32+0xb1>
    17db:	89 d6                	mov    %edx,%esi
    17dd:	0f 28 0d 3c 09 00 00 	movaps 0x93c(%rip),%xmm1        # 2120 <_IO_stdin_used+0x120>
    17e4:	31 c0                	xor    %eax,%eax
    17e6:	c1 ee 02             	shr    $0x2,%esi
    17e9:	48 c1 e6 04          	shl    $0x4,%rsi
    17ed:	0f 1f 00             	nopl   (%rax)
    17f0:	f3 0f 6f 14 07       	movdqu (%rdi,%rax,1),%xmm2
    17f5:	0f 5b c2             	cvtdq2ps %xmm2,%xmm0
    17f8:	0f 59 c1             	mulps  %xmm1,%xmm0
    17fb:	0f 11 04 01          	movups %xmm0,(%rcx,%rax,1)
    17ff:	48 83 c0 10          	add    $0x10,%rax
    1803:	48 39 f0             	cmp    %rsi,%rax
    1806:	75 e8                	jne    17f0 <riscv_dsp_convert_q31_f32+0x30>
    1808:	89 d6                	mov    %edx,%esi
    180a:	83 e6 fc             	and    $0xfffffffc,%esi
    180d:	89 f0                	mov    %esi,%eax
    180f:	48 c1 e0 02          	shl    $0x2,%rax
    1813:	4c 8d 04 07          	lea    (%rdi,%rax,1),%r8
    1817:	48 01 c8             	add    %rcx,%rax
    181a:	39 f2                	cmp    %esi,%edx
    181c:	74 52                	je     1870 <riscv_dsp_convert_q31_f32+0xb0>
    181e:	29 f2                	sub    %esi,%edx
    1820:	83 fa 01             	cmp    $0x1,%edx
    1823:	74 2c                	je     1851 <riscv_dsp_convert_q31_f32+0x91>
    1825:	f3 0f 7e 0d f3 08 00 	movq   0x8f3(%rip),%xmm1        # 2120 <_IO_stdin_used+0x120>
    182c:	00 
    182d:	f3 0f 7e 04 b7       	movq   (%rdi,%rsi,4),%xmm0
    1832:	0f 5b c0             	cvtdq2ps %xmm0,%xmm0
    1835:	0f 59 c1             	mulps  %xmm1,%xmm0
    1838:	0f 13 04 b1          	movlps %xmm0,(%rcx,%rsi,4)
    183c:	89 d6                	mov    %edx,%esi
    183e:	83 e6 fe             	and    $0xfffffffe,%esi
    1841:	89 f1                	mov    %esi,%ecx
    1843:	48 c1 e1 02          	shl    $0x2,%rcx
    1847:	49 01 c8             	add    %rcx,%r8
    184a:	48 01 c8             	add    %rcx,%rax
    184d:	39 f2                	cmp    %esi,%edx
    184f:	74 15                	je     1866 <riscv_dsp_convert_q31_f32+0xa6>
    1851:	66 0f ef c0          	pxor   %xmm0,%xmm0
    1855:	f3 41 0f 2a 00       	cvtsi2ssl (%r8),%xmm0
    185a:	f3 0f 59 05 be 08 00 	mulss  0x8be(%rip),%xmm0        # 2120 <_IO_stdin_used+0x120>
    1861:	00 
    1862:	f3 0f 11 00          	movss  %xmm0,(%rax)
    1866:	c3                   	ret    
    1867:	66 0f 1f 84 00 00 00 	nopw   0x0(%rax,%rax,1)
    186e:	00 00 
    1870:	c3                   	ret    
    1871:	48 89 f0             	mov    %rsi,%rax
    1874:	49 89 f8             	mov    %rdi,%r8
    1877:	31 f6                	xor    %esi,%esi
    1879:	eb a3                	jmp    181e <riscv_dsp_convert_q31_f32+0x5e>
    187b:	0f 1f 44 00 00       	nopl   0x0(%rax,%rax,1)

0000000000001880 <riscv_dsp_mat_trans_q31>:
    1880:	f3 0f 1e fa          	endbr64 
    1884:	48 89 f8             	mov    %rdi,%rax
    1887:	85 d2                	test   %edx,%edx
    1889:	74 35                	je     18c0 <riscv_dsp_mat_trans_q31+0x40>
    188b:	85 c9                	test   %ecx,%ecx
    188d:	74 31                	je     18c0 <riscv_dsp_mat_trans_q31+0x40>
    188f:	89 c9                	mov    %ecx,%ecx
    1891:	41 89 d2             	mov    %edx,%r10d
    1894:	4c 8d 0c 8d 00 00 00 	lea    0x0(,%rcx,4),%r9
    189b:	00 
    189c:	49 c1 e2 02          	shl    $0x2,%r10
    18a0:	4a 8d 0c 0f          	lea    (%rdi,%r9,1),%rcx
    18a4:	83 fa 01             	cmp    $0x1,%edx
    18a7:	75 18                	jne    18c1 <riscv_dsp_mat_trans_q31+0x41>
    18a9:	0f 1f 80 00 00 00 00 	nopl   0x0(%rax)
    18b0:	8b 10                	mov    (%rax),%edx
    18b2:	48 83 c0 04          	add    $0x4,%rax
    18b6:	89 16                	mov    %edx,(%rsi)
    18b8:	4c 01 d6             	add    %r10,%rsi
    18bb:	48 39 c8             	cmp    %rcx,%rax
    18be:	75 f0                	jne    18b0 <riscv_dsp_mat_trans_q31+0x30>
    18c0:	c3                   	ret    
    18c1:	83 ea 01             	sub    $0x1,%edx
    18c4:	49 89 c8             	mov    %rcx,%r8
    18c7:	4c 8d 5c 96 04       	lea    0x4(%rsi,%rdx,4),%r11
    18cc:	0f 1f 40 00          	nopl   0x0(%rax)
    18d0:	48 89 f2             	mov    %rsi,%rdx
    18d3:	0f 1f 44 00 00       	nopl   0x0(%rax,%rax,1)
    18d8:	8b 38                	mov    (%rax),%edi
    18da:	48 83 c0 04          	add    $0x4,%rax
    18de:	89 3a                	mov    %edi,(%rdx)
    18e0:	4c 01 d2             	add    %r10,%rdx
    18e3:	4c 39 c0             	cmp    %r8,%rax
    18e6:	75 f0                	jne    18d8 <riscv_dsp_mat_trans_q31+0x58>
    18e8:	48 83 c6 04          	add    $0x4,%rsi
    18ec:	48 89 c8             	mov    %rcx,%rax
    18ef:	4d 01 c8             	add    %r9,%r8
    18f2:	4c 39 de             	cmp    %r11,%rsi
    18f5:	74 c9                	je     18c0 <riscv_dsp_mat_trans_q31+0x40>
    18f7:	4c 01 c9             	add    %r9,%rcx
    18fa:	eb d4                	jmp    18d0 <riscv_dsp_mat_trans_q31+0x50>

Disassembly of section .fini:

00000000000018fc <_fini>:
    18fc:	f3 0f 1e fa          	endbr64 
    1900:	48 83 ec 08          	sub    $0x8,%rsp
    1904:	48 83 c4 08          	add    $0x8,%rsp
    1908:	c3                   	ret    
