
t_mat_solve_ut_f64:     file format elf64-x86-64


Disassembly of section .init:

0000000000001000 <_init>:
    1000:	f3 0f 1e fa          	endbr64 
    1004:	48 83 ec 08          	sub    $0x8,%rsp
    1008:	48 8b 05 d9 2f 00 00 	mov    0x2fd9(%rip),%rax        # 3fe8 <__gmon_start__@Base>
    100f:	48 85 c0             	test   %rax,%rax
    1012:	74 02                	je     1016 <_init+0x16>
    1014:	ff d0                	call   *%rax
    1016:	48 83 c4 08          	add    $0x8,%rsp
    101a:	c3                   	ret    

Disassembly of section .plt:

0000000000001020 <.plt>:
    1020:	ff 35 4a 2f 00 00    	push   0x2f4a(%rip)        # 3f70 <_GLOBAL_OFFSET_TABLE_+0x8>
    1026:	f2 ff 25 4b 2f 00 00 	bnd jmp *0x2f4b(%rip)        # 3f78 <_GLOBAL_OFFSET_TABLE_+0x10>
    102d:	0f 1f 00             	nopl   (%rax)
    1030:	f3 0f 1e fa          	endbr64 
    1034:	68 00 00 00 00       	push   $0x0
    1039:	f2 e9 e1 ff ff ff    	bnd jmp 1020 <_init+0x20>
    103f:	90                   	nop
    1040:	f3 0f 1e fa          	endbr64 
    1044:	68 01 00 00 00       	push   $0x1
    1049:	f2 e9 d1 ff ff ff    	bnd jmp 1020 <_init+0x20>
    104f:	90                   	nop
    1050:	f3 0f 1e fa          	endbr64 
    1054:	68 02 00 00 00       	push   $0x2
    1059:	f2 e9 c1 ff ff ff    	bnd jmp 1020 <_init+0x20>
    105f:	90                   	nop
    1060:	f3 0f 1e fa          	endbr64 
    1064:	68 03 00 00 00       	push   $0x3
    1069:	f2 e9 b1 ff ff ff    	bnd jmp 1020 <_init+0x20>
    106f:	90                   	nop
    1070:	f3 0f 1e fa          	endbr64 
    1074:	68 04 00 00 00       	push   $0x4
    1079:	f2 e9 a1 ff ff ff    	bnd jmp 1020 <_init+0x20>
    107f:	90                   	nop
    1080:	f3 0f 1e fa          	endbr64 
    1084:	68 05 00 00 00       	push   $0x5
    1089:	f2 e9 91 ff ff ff    	bnd jmp 1020 <_init+0x20>
    108f:	90                   	nop
    1090:	f3 0f 1e fa          	endbr64 
    1094:	68 06 00 00 00       	push   $0x6
    1099:	f2 e9 81 ff ff ff    	bnd jmp 1020 <_init+0x20>
    109f:	90                   	nop
    10a0:	f3 0f 1e fa          	endbr64 
    10a4:	68 07 00 00 00       	push   $0x7
    10a9:	f2 e9 71 ff ff ff    	bnd jmp 1020 <_init+0x20>
    10af:	90                   	nop
    10b0:	f3 0f 1e fa          	endbr64 
    10b4:	68 08 00 00 00       	push   $0x8
    10b9:	f2 e9 61 ff ff ff    	bnd jmp 1020 <_init+0x20>
    10bf:	90                   	nop
    10c0:	f3 0f 1e fa          	endbr64 
    10c4:	68 09 00 00 00       	push   $0x9
    10c9:	f2 e9 51 ff ff ff    	bnd jmp 1020 <_init+0x20>
    10cf:	90                   	nop
    10d0:	f3 0f 1e fa          	endbr64 
    10d4:	68 0a 00 00 00       	push   $0xa
    10d9:	f2 e9 41 ff ff ff    	bnd jmp 1020 <_init+0x20>
    10df:	90                   	nop

Disassembly of section .plt.got:

00000000000010e0 <__cxa_finalize@plt>:
    10e0:	f3 0f 1e fa          	endbr64 
    10e4:	f2 ff 25 0d 2f 00 00 	bnd jmp *0x2f0d(%rip)        # 3ff8 <__cxa_finalize@GLIBC_2.2.5>
    10eb:	0f 1f 44 00 00       	nopl   0x0(%rax,%rax,1)

Disassembly of section .plt.sec:

00000000000010f0 <puts@plt>:
    10f0:	f3 0f 1e fa          	endbr64 
    10f4:	f2 ff 25 85 2e 00 00 	bnd jmp *0x2e85(%rip)        # 3f80 <puts@GLIBC_2.2.5>
    10fb:	0f 1f 44 00 00       	nopl   0x0(%rax,%rax,1)

0000000000001100 <fread@plt>:
    1100:	f3 0f 1e fa          	endbr64 
    1104:	f2 ff 25 7d 2e 00 00 	bnd jmp *0x2e7d(%rip)        # 3f88 <fread@GLIBC_2.2.5>
    110b:	0f 1f 44 00 00       	nopl   0x0(%rax,%rax,1)

0000000000001110 <fclose@plt>:
    1110:	f3 0f 1e fa          	endbr64 
    1114:	f2 ff 25 75 2e 00 00 	bnd jmp *0x2e75(%rip)        # 3f90 <fclose@GLIBC_2.2.5>
    111b:	0f 1f 44 00 00       	nopl   0x0(%rax,%rax,1)

0000000000001120 <__stack_chk_fail@plt>:
    1120:	f3 0f 1e fa          	endbr64 
    1124:	f2 ff 25 6d 2e 00 00 	bnd jmp *0x2e6d(%rip)        # 3f98 <__stack_chk_fail@GLIBC_2.4>
    112b:	0f 1f 44 00 00       	nopl   0x0(%rax,%rax,1)

0000000000001130 <memset@plt>:
    1130:	f3 0f 1e fa          	endbr64 
    1134:	f2 ff 25 65 2e 00 00 	bnd jmp *0x2e65(%rip)        # 3fa0 <memset@GLIBC_2.2.5>
    113b:	0f 1f 44 00 00       	nopl   0x0(%rax,%rax,1)

0000000000001140 <log10f@plt>:
    1140:	f3 0f 1e fa          	endbr64 
    1144:	f2 ff 25 5d 2e 00 00 	bnd jmp *0x2e5d(%rip)        # 3fa8 <log10f@GLIBC_2.2.5>
    114b:	0f 1f 44 00 00       	nopl   0x0(%rax,%rax,1)

0000000000001150 <__printf_chk@plt>:
    1150:	f3 0f 1e fa          	endbr64 
    1154:	f2 ff 25 55 2e 00 00 	bnd jmp *0x2e55(%rip)        # 3fb0 <__printf_chk@GLIBC_2.3.4>
    115b:	0f 1f 44 00 00       	nopl   0x0(%rax,%rax,1)

0000000000001160 <fopen@plt>:
    1160:	f3 0f 1e fa          	endbr64 
    1164:	f2 ff 25 4d 2e 00 00 	bnd jmp *0x2e4d(%rip)        # 3fb8 <fopen@GLIBC_2.2.5>
    116b:	0f 1f 44 00 00       	nopl   0x0(%rax,%rax,1)

0000000000001170 <__memset_chk@plt>:
    1170:	f3 0f 1e fa          	endbr64 
    1174:	f2 ff 25 45 2e 00 00 	bnd jmp *0x2e45(%rip)        # 3fc0 <__memset_chk@GLIBC_2.3.4>
    117b:	0f 1f 44 00 00       	nopl   0x0(%rax,%rax,1)

0000000000001180 <sqrt@plt>:
    1180:	f3 0f 1e fa          	endbr64 
    1184:	f2 ff 25 3d 2e 00 00 	bnd jmp *0x2e3d(%rip)        # 3fc8 <sqrt@GLIBC_2.2.5>
    118b:	0f 1f 44 00 00       	nopl   0x0(%rax,%rax,1)

0000000000001190 <__sprintf_chk@plt>:
    1190:	f3 0f 1e fa          	endbr64 
    1194:	f2 ff 25 35 2e 00 00 	bnd jmp *0x2e35(%rip)        # 3fd0 <__sprintf_chk@GLIBC_2.3.4>
    119b:	0f 1f 44 00 00       	nopl   0x0(%rax,%rax,1)

Disassembly of section .text:

00000000000011a0 <main>:
    11a0:	f3 0f 1e fa          	endbr64 
    11a4:	41 55                	push   %r13
    11a6:	4c 8d 2d d3 ae 01 00 	lea    0x1aed3(%rip),%r13        # 1c080 <buf2>
    11ad:	41 54                	push   %r12
    11af:	4c 8d 25 ca 2e 02 00 	lea    0x22eca(%rip),%r12        # 24080 <buf1>
    11b6:	55                   	push   %rbp
    11b7:	48 8d 2d 6d 0f 00 00 	lea    0xf6d(%rip),%rbp        # 212b <_IO_stdin_used+0x12b>
    11be:	4c 89 e6             	mov    %r12,%rsi
    11c1:	53                   	push   %rbx
    11c2:	48 89 ef             	mov    %rbp,%rdi
    11c5:	48 83 ec 28          	sub    $0x28,%rsp
    11c9:	e8 32 05 00 00       	call   1700 <read_write_buffer.constprop.0>
    11ce:	4c 89 ee             	mov    %r13,%rsi
    11d1:	48 89 ef             	mov    %rbp,%rdi
    11d4:	48 8d 2d a5 2e 01 00 	lea    0x12ea5(%rip),%rbp        # 14080 <out>
    11db:	e8 20 05 00 00       	call   1700 <read_write_buffer.constprop.0>
    11e0:	48 8b 05 d1 0f 00 00 	mov    0xfd1(%rip),%rax        # 21b8 <_IO_stdin_used+0x1b8>
    11e7:	48 8d 3d 5a 0e 00 00 	lea    0xe5a(%rip),%rdi        # 2048 <_IO_stdin_used+0x48>
    11ee:	48 89 05 8b ae 01 00 	mov    %rax,0x1ae8b(%rip)        # 1c080 <buf2>
    11f5:	e8 f6 fe ff ff       	call   10f0 <puts@plt>
    11fa:	b9 40 00 00 00       	mov    $0x40,%ecx
    11ff:	ba 40 00 00 00       	mov    $0x40,%edx
    1204:	31 c0                	xor    %eax,%eax
    1206:	48 8d 35 63 0e 00 00 	lea    0xe63(%rip),%rsi        # 2070 <_IO_stdin_used+0x70>
    120d:	bf 01 00 00 00       	mov    $0x1,%edi
    1212:	e8 39 ff ff ff       	call   1150 <__printf_chk@plt>
    1217:	31 f6                	xor    %esi,%esi
    1219:	48 89 ef             	mov    %rbp,%rdi
    121c:	ba 00 80 00 00       	mov    $0x8000,%edx
    1221:	e8 0a ff ff ff       	call   1130 <memset@plt>
    1226:	be 40 00 00 00       	mov    $0x40,%esi
    122b:	4c 89 e7             	mov    %r12,%rdi
    122e:	e8 3d 05 00 00       	call   1770 <array_to_upper_triangular_matrix>
    1233:	85 c0                	test   %eax,%eax
    1235:	0f 85 da 02 00 00    	jne    1515 <main+0x375>
    123b:	48 89 ea             	mov    %rbp,%rdx
    123e:	4c 89 ee             	mov    %r13,%rsi
    1241:	b9 40 00 00 00       	mov    $0x40,%ecx
    1246:	41 b8 40 00 00 00    	mov    $0x40,%r8d
    124c:	48 8d 3d 2d ae 00 00 	lea    0xae2d(%rip),%rdi        # c080 <upper_triangular>
    1253:	e8 d8 05 00 00       	call   1830 <riscv_dsp_mat_solve_ut_f64>
    1258:	48 8d 35 de 0e 00 00 	lea    0xede(%rip),%rsi        # 213d <_IO_stdin_used+0x13d>
    125f:	bf 01 00 00 00       	mov    $0x1,%edi
    1264:	41 89 c4             	mov    %eax,%r12d
    1267:	89 c2                	mov    %eax,%edx
    1269:	31 c0                	xor    %eax,%eax
    126b:	e8 e0 fe ff ff       	call   1150 <__printf_chk@plt>
    1270:	45 85 e4             	test   %r12d,%r12d
    1273:	0f 85 9c 02 00 00    	jne    1515 <main+0x375>
    1279:	48 8d 1d 00 2e 00 00 	lea    0x2e00(%rip),%rbx        # 4080 <golden>
    1280:	48 8d 3d 09 0e 00 00 	lea    0xe09(%rip),%rdi        # 2090 <_IO_stdin_used+0x90>
    1287:	48 89 de             	mov    %rbx,%rsi
    128a:	e8 71 04 00 00       	call   1700 <read_write_buffer.constprop.0>
    128f:	66 0f ef ff          	pxor   %xmm7,%xmm7
    1293:	48 89 ea             	mov    %rbp,%rdx
    1296:	48 89 d8             	mov    %rbx,%rax
    1299:	66 0f 28 d7          	movapd %xmm7,%xmm2
    129d:	48 8d 8b 00 80 00 00 	lea    0x8000(%rbx),%rcx
    12a4:	eb 1f                	jmp    12c5 <main+0x125>
    12a6:	66 2e 0f 1f 84 00 00 	cs nopw 0x0(%rax,%rax,1)
    12ad:	00 00 00 
    12b0:	f2 0f 5c c1          	subsd  %xmm1,%xmm0
    12b4:	66 0f 28 d8          	movapd %xmm0,%xmm3
    12b8:	f2 0f 5f da          	maxsd  %xmm2,%xmm3
    12bc:	66 0f 28 d3          	movapd %xmm3,%xmm2
    12c0:	48 39 c8             	cmp    %rcx,%rax
    12c3:	74 2b                	je     12f0 <main+0x150>
    12c5:	f2 0f 10 00          	movsd  (%rax),%xmm0
    12c9:	f2 0f 10 0a          	movsd  (%rdx),%xmm1
    12cd:	48 83 c0 08          	add    $0x8,%rax
    12d1:	48 83 c2 08          	add    $0x8,%rdx
    12d5:	66 0f 2f c1          	comisd %xmm1,%xmm0
    12d9:	77 d5                	ja     12b0 <main+0x110>
    12db:	66 0f 28 d9          	movapd %xmm1,%xmm3
    12df:	f2 0f 5c d8          	subsd  %xmm0,%xmm3
    12e3:	f2 0f 5f da          	maxsd  %xmm2,%xmm3
    12e7:	66 0f 28 d3          	movapd %xmm3,%xmm2
    12eb:	48 39 c8             	cmp    %rcx,%rax
    12ee:	75 d5                	jne    12c5 <main+0x125>
    12f0:	66 0f 28 c3          	movapd %xmm3,%xmm0
    12f4:	bf 01 00 00 00       	mov    $0x1,%edi
    12f9:	b8 01 00 00 00       	mov    $0x1,%eax
    12fe:	48 8d 35 4c 0e 00 00 	lea    0xe4c(%rip),%rsi        # 2151 <_IO_stdin_used+0x151>
    1305:	e8 46 fe ff ff       	call   1150 <__printf_chk@plt>
    130a:	66 0f ef db          	pxor   %xmm3,%xmm3
    130e:	66 0f ef ff          	pxor   %xmm7,%xmm7
    1312:	48 8d 05 67 2d 01 00 	lea    0x12d67(%rip),%rax        # 14080 <out>
    1319:	66 0f 28 f7          	movapd %xmm7,%xmm6
    131d:	66 0f 28 ef          	movapd %xmm7,%xmm5
    1321:	0f 28 c3             	movaps %xmm3,%xmm0
    1324:	44 0f 28 c3          	movaps %xmm3,%xmm8
    1328:	44 0f 28 cb          	movaps %xmm3,%xmm9
    132c:	48 8d 15 4d 2d 00 00 	lea    0x2d4d(%rip),%rdx        # 4080 <golden>
    1333:	48 8d 88 00 80 00 00 	lea    0x8000(%rax),%rcx
    133a:	eb 37                	jmp    1373 <main+0x1d3>
    133c:	0f 1f 40 00          	nopl   0x0(%rax)
    1340:	f2 0f 5c e1          	subsd  %xmm1,%xmm4
    1344:	66 0f ef d2          	pxor   %xmm2,%xmm2
    1348:	f2 0f 5a d4          	cvtsd2ss %xmm4,%xmm2
    134c:	f2 0f 59 c9          	mulsd  %xmm1,%xmm1
    1350:	0f 28 e2             	movaps %xmm2,%xmm4
    1353:	f3 0f 58 c2          	addss  %xmm2,%xmm0
    1357:	f3 0f 59 d2          	mulss  %xmm2,%xmm2
    135b:	f3 0f 5f e3          	maxss  %xmm3,%xmm4
    135f:	0f 28 dc             	movaps %xmm4,%xmm3
    1362:	f2 0f 58 f1          	addsd  %xmm1,%xmm6
    1366:	f3 0f 5a d2          	cvtss2sd %xmm2,%xmm2
    136a:	f2 0f 58 ea          	addsd  %xmm2,%xmm5
    136e:	48 39 c8             	cmp    %rcx,%rax
    1371:	74 5d                	je     13d0 <main+0x230>
    1373:	f2 0f 10 0a          	movsd  (%rdx),%xmm1
    1377:	66 0f ef d2          	pxor   %xmm2,%xmm2
    137b:	48 83 c0 08          	add    $0x8,%rax
    137f:	48 83 c2 08          	add    $0x8,%rdx
    1383:	f3 41 0f 5a d1       	cvtss2sd %xmm9,%xmm2
    1388:	f2 0f 10 60 f8       	movsd  -0x8(%rax),%xmm4
    138d:	66 0f 2f ca          	comisd %xmm2,%xmm1
    1391:	76 0a                	jbe    139d <main+0x1fd>
    1393:	66 45 0f ef c9       	pxor   %xmm9,%xmm9
    1398:	f2 44 0f 5a c9       	cvtsd2ss %xmm1,%xmm9
    139d:	66 0f ef d2          	pxor   %xmm2,%xmm2
    13a1:	f3 41 0f 5a d0       	cvtss2sd %xmm8,%xmm2
    13a6:	66 0f 2f d1          	comisd %xmm1,%xmm2
    13aa:	76 0a                	jbe    13b6 <main+0x216>
    13ac:	66 45 0f ef c0       	pxor   %xmm8,%xmm8
    13b1:	f2 44 0f 5a c1       	cvtsd2ss %xmm1,%xmm8
    13b6:	66 0f 2f e1          	comisd %xmm1,%xmm4
    13ba:	77 84                	ja     1340 <main+0x1a0>
    13bc:	66 0f 28 d1          	movapd %xmm1,%xmm2
    13c0:	f2 0f 5c d4          	subsd  %xmm4,%xmm2
    13c4:	f2 0f 5a d2          	cvtsd2ss %xmm2,%xmm2
    13c8:	eb 82                	jmp    134c <main+0x1ac>
    13ca:	66 0f 1f 44 00 00    	nopw   0x0(%rax,%rax,1)
    13d0:	f3 0f 59 05 fc 0d 00 	mulss  0xdfc(%rip),%xmm0        # 21d4 <_IO_stdin_used+0x1d4>
    13d7:	00 
    13d8:	66 0f 7e c3          	movd   %xmm0,%ebx
    13dc:	f2 0f 10 05 dc 0d 00 	movsd  0xddc(%rip),%xmm0        # 21c0 <_IO_stdin_used+0x1c0>
    13e3:	00 
    13e4:	f2 0f 59 c5          	mulsd  %xmm5,%xmm0
    13e8:	66 0f 2e f8          	ucomisd %xmm0,%xmm7
    13ec:	0f 87 29 01 00 00    	ja     151b <main+0x37b>
    13f2:	f2 0f 51 c0          	sqrtsd %xmm0,%xmm0
    13f6:	f3 45 0f 5c c8       	subss  %xmm8,%xmm9
    13fb:	66 0f 2e ef          	ucomisd %xmm7,%xmm5
    13ff:	66 0f ef c9          	pxor   %xmm1,%xmm1
    1403:	f2 0f 5a c8          	cvtsd2ss %xmm0,%xmm1
    1407:	0f 28 e1             	movaps %xmm1,%xmm4
    140a:	f3 41 0f 5e e1       	divss  %xmm9,%xmm4
    140f:	66 0f 7e e5          	movd   %xmm4,%ebp
    1413:	0f 8a b2 00 00 00    	jp     14cb <main+0x32b>
    1419:	f3 0f 10 25 af 0d 00 	movss  0xdaf(%rip),%xmm4        # 21d0 <_IO_stdin_used+0x1d0>
    1420:	00 
    1421:	0f 85 a4 00 00 00    	jne    14cb <main+0x32b>
    1427:	48 8d 3d 37 0d 00 00 	lea    0xd37(%rip),%rdi        # 2165 <_IO_stdin_used+0x165>
    142e:	f3 0f 11 5c 24 14    	movss  %xmm3,0x14(%rsp)
    1434:	f3 0f 11 24 24       	movss  %xmm4,(%rsp)
    1439:	f3 0f 11 4c 24 08    	movss  %xmm1,0x8(%rsp)
    143f:	e8 ac fc ff ff       	call   10f0 <puts@plt>
    1444:	f3 0f 10 24 24       	movss  (%rsp),%xmm4
    1449:	f3 0f 10 5c 24 14    	movss  0x14(%rsp),%xmm3
    144f:	66 0f 6e fd          	movd   %ebp,%xmm7
    1453:	f3 0f 10 4c 24 08    	movss  0x8(%rsp),%xmm1
    1459:	66 0f ef d2          	pxor   %xmm2,%xmm2
    145d:	66 0f ef c0          	pxor   %xmm0,%xmm0
    1461:	48 8d 35 50 0c 00 00 	lea    0xc50(%rip),%rsi        # 20b8 <_IO_stdin_used+0xb8>
    1468:	f3 0f 5a d7          	cvtss2sd %xmm7,%xmm2
    146c:	66 0f 6e fb          	movd   %ebx,%xmm7
    1470:	f3 0f 5a e4          	cvtss2sd %xmm4,%xmm4
    1474:	f3 0f 5a db          	cvtss2sd %xmm3,%xmm3
    1478:	bf 01 00 00 00       	mov    $0x1,%edi
    147d:	b8 05 00 00 00       	mov    $0x5,%eax
    1482:	f3 0f 5a c7          	cvtss2sd %xmm7,%xmm0
    1486:	f3 0f 5a c9          	cvtss2sd %xmm1,%xmm1
    148a:	f2 0f 11 14 24       	movsd  %xmm2,(%rsp)
    148f:	e8 bc fc ff ff       	call   1150 <__printf_chk@plt>
    1494:	f2 0f 10 14 24       	movsd  (%rsp),%xmm2
    1499:	66 0f 2f 15 27 0d 00 	comisd 0xd27(%rip),%xmm2        # 21c8 <_IO_stdin_used+0x1c8>
    14a0:	00 
    14a1:	48 8d 15 d2 0c 00 00 	lea    0xcd2(%rip),%rdx        # 217a <_IO_stdin_used+0x17a>
    14a8:	77 58                	ja     1502 <main+0x362>
    14aa:	48 8d 35 ef 0c 00 00 	lea    0xcef(%rip),%rsi        # 21a0 <_IO_stdin_used+0x1a0>
    14b1:	bf 01 00 00 00       	mov    $0x1,%edi
    14b6:	31 c0                	xor    %eax,%eax
    14b8:	e8 93 fc ff ff       	call   1150 <__printf_chk@plt>
    14bd:	48 83 c4 28          	add    $0x28,%rsp
    14c1:	44 89 e0             	mov    %r12d,%eax
    14c4:	5b                   	pop    %rbx
    14c5:	5d                   	pop    %rbp
    14c6:	41 5c                	pop    %r12
    14c8:	41 5d                	pop    %r13
    14ca:	c3                   	ret    
    14cb:	f2 0f 5e f5          	divsd  %xmm5,%xmm6
    14cf:	66 0f ef c0          	pxor   %xmm0,%xmm0
    14d3:	f3 0f 11 5c 24 08    	movss  %xmm3,0x8(%rsp)
    14d9:	f3 0f 11 0c 24       	movss  %xmm1,(%rsp)
    14de:	f2 0f 5a c6          	cvtsd2ss %xmm6,%xmm0
    14e2:	e8 59 fc ff ff       	call   1140 <log10f@plt>
    14e7:	f3 0f 10 5c 24 08    	movss  0x8(%rsp),%xmm3
    14ed:	f3 0f 59 05 e3 0c 00 	mulss  0xce3(%rip),%xmm0        # 21d8 <_IO_stdin_used+0x1d8>
    14f4:	00 
    14f5:	f3 0f 10 0c 24       	movss  (%rsp),%xmm1
    14fa:	0f 28 e0             	movaps %xmm0,%xmm4
    14fd:	e9 25 ff ff ff       	jmp    1427 <main+0x287>
    1502:	48 8d 35 8c 0c 00 00 	lea    0xc8c(%rip),%rsi        # 2195 <_IO_stdin_used+0x195>
    1509:	bf 01 00 00 00       	mov    $0x1,%edi
    150e:	31 c0                	xor    %eax,%eax
    1510:	e8 3b fc ff ff       	call   1150 <__printf_chk@plt>
    1515:	41 83 cc ff          	or     $0xffffffff,%r12d
    1519:	eb a2                	jmp    14bd <main+0x31d>
    151b:	f3 44 0f 11 44 24 18 	movss  %xmm8,0x18(%rsp)
    1522:	f3 44 0f 11 4c 24 14 	movss  %xmm9,0x14(%rsp)
    1529:	f2 0f 11 74 24 08    	movsd  %xmm6,0x8(%rsp)
    152f:	f2 0f 11 2c 24       	movsd  %xmm5,(%rsp)
    1534:	f3 0f 11 64 24 1c    	movss  %xmm4,0x1c(%rsp)
    153a:	e8 41 fc ff ff       	call   1180 <sqrt@plt>
    153f:	f3 0f 10 5c 24 1c    	movss  0x1c(%rsp),%xmm3
    1545:	f2 0f 10 2c 24       	movsd  (%rsp),%xmm5
    154a:	66 0f ef ff          	pxor   %xmm7,%xmm7
    154e:	f3 44 0f 10 44 24 18 	movss  0x18(%rsp),%xmm8
    1555:	f3 44 0f 10 4c 24 14 	movss  0x14(%rsp),%xmm9
    155c:	f2 0f 10 74 24 08    	movsd  0x8(%rsp),%xmm6
    1562:	e9 8f fe ff ff       	jmp    13f6 <main+0x256>
    1567:	66 0f 1f 84 00 00 00 	nopw   0x0(%rax,%rax,1)
    156e:	00 00 

0000000000001570 <_start>:
    1570:	f3 0f 1e fa          	endbr64 
    1574:	31 ed                	xor    %ebp,%ebp
    1576:	49 89 d1             	mov    %rdx,%r9
    1579:	5e                   	pop    %rsi
    157a:	48 89 e2             	mov    %rsp,%rdx
    157d:	48 83 e4 f0          	and    $0xfffffffffffffff0,%rsp
    1581:	50                   	push   %rax
    1582:	54                   	push   %rsp
    1583:	45 31 c0             	xor    %r8d,%r8d
    1586:	31 c9                	xor    %ecx,%ecx
    1588:	48 8d 3d 11 fc ff ff 	lea    -0x3ef(%rip),%rdi        # 11a0 <main>
    158f:	ff 15 43 2a 00 00    	call   *0x2a43(%rip)        # 3fd8 <__libc_start_main@GLIBC_2.34>
    1595:	f4                   	hlt    
    1596:	66 2e 0f 1f 84 00 00 	cs nopw 0x0(%rax,%rax,1)
    159d:	00 00 00 

00000000000015a0 <deregister_tm_clones>:
    15a0:	48 8d 3d 69 2a 00 00 	lea    0x2a69(%rip),%rdi        # 4010 <__TMC_END__>
    15a7:	48 8d 05 62 2a 00 00 	lea    0x2a62(%rip),%rax        # 4010 <__TMC_END__>
    15ae:	48 39 f8             	cmp    %rdi,%rax
    15b1:	74 15                	je     15c8 <deregister_tm_clones+0x28>
    15b3:	48 8b 05 26 2a 00 00 	mov    0x2a26(%rip),%rax        # 3fe0 <_ITM_deregisterTMCloneTable@Base>
    15ba:	48 85 c0             	test   %rax,%rax
    15bd:	74 09                	je     15c8 <deregister_tm_clones+0x28>
    15bf:	ff e0                	jmp    *%rax
    15c1:	0f 1f 80 00 00 00 00 	nopl   0x0(%rax)
    15c8:	c3                   	ret    
    15c9:	0f 1f 80 00 00 00 00 	nopl   0x0(%rax)

00000000000015d0 <register_tm_clones>:
    15d0:	48 8d 3d 39 2a 00 00 	lea    0x2a39(%rip),%rdi        # 4010 <__TMC_END__>
    15d7:	48 8d 35 32 2a 00 00 	lea    0x2a32(%rip),%rsi        # 4010 <__TMC_END__>
    15de:	48 29 fe             	sub    %rdi,%rsi
    15e1:	48 89 f0             	mov    %rsi,%rax
    15e4:	48 c1 ee 3f          	shr    $0x3f,%rsi
    15e8:	48 c1 f8 03          	sar    $0x3,%rax
    15ec:	48 01 c6             	add    %rax,%rsi
    15ef:	48 d1 fe             	sar    %rsi
    15f2:	74 14                	je     1608 <register_tm_clones+0x38>
    15f4:	48 8b 05 f5 29 00 00 	mov    0x29f5(%rip),%rax        # 3ff0 <_ITM_registerTMCloneTable@Base>
    15fb:	48 85 c0             	test   %rax,%rax
    15fe:	74 08                	je     1608 <register_tm_clones+0x38>
    1600:	ff e0                	jmp    *%rax
    1602:	66 0f 1f 44 00 00    	nopw   0x0(%rax,%rax,1)
    1608:	c3                   	ret    
    1609:	0f 1f 80 00 00 00 00 	nopl   0x0(%rax)

0000000000001610 <__do_global_dtors_aux>:
    1610:	f3 0f 1e fa          	endbr64 
    1614:	80 3d 25 2a 00 00 00 	cmpb   $0x0,0x2a25(%rip)        # 4040 <completed.0>
    161b:	75 2b                	jne    1648 <__do_global_dtors_aux+0x38>
    161d:	55                   	push   %rbp
    161e:	48 83 3d d2 29 00 00 	cmpq   $0x0,0x29d2(%rip)        # 3ff8 <__cxa_finalize@GLIBC_2.2.5>
    1625:	00 
    1626:	48 89 e5             	mov    %rsp,%rbp
    1629:	74 0c                	je     1637 <__do_global_dtors_aux+0x27>
    162b:	48 8b 3d d6 29 00 00 	mov    0x29d6(%rip),%rdi        # 4008 <__dso_handle>
    1632:	e8 a9 fa ff ff       	call   10e0 <__cxa_finalize@plt>
    1637:	e8 64 ff ff ff       	call   15a0 <deregister_tm_clones>
    163c:	c6 05 fd 29 00 00 01 	movb   $0x1,0x29fd(%rip)        # 4040 <completed.0>
    1643:	5d                   	pop    %rbp
    1644:	c3                   	ret    
    1645:	0f 1f 00             	nopl   (%rax)
    1648:	c3                   	ret    
    1649:	0f 1f 80 00 00 00 00 	nopl   0x0(%rax)

0000000000001650 <frame_dummy>:
    1650:	f3 0f 1e fa          	endbr64 
    1654:	e9 77 ff ff ff       	jmp    15d0 <register_tm_clones>
    1659:	0f 1f 80 00 00 00 00 	nopl   0x0(%rax)

0000000000001660 <test_Fopen.constprop.0.isra.0>:
    1660:	41 54                	push   %r12
    1662:	49 89 f9             	mov    %rdi,%r9
    1665:	49 89 fc             	mov    %rdi,%r12
    1668:	4c 8d 05 99 09 00 00 	lea    0x999(%rip),%r8        # 2008 <_IO_stdin_used+0x8>
    166f:	55                   	push   %rbp
    1670:	48 8d 0d 92 0a 00 00 	lea    0xa92(%rip),%rcx        # 2109 <_IO_stdin_used+0x109>
    1677:	ba 00 04 00 00       	mov    $0x400,%edx
    167c:	53                   	push   %rbx
    167d:	48 89 f3             	mov    %rsi,%rbx
    1680:	be 01 00 00 00       	mov    $0x1,%esi
    1685:	48 81 ec 10 04 00 00 	sub    $0x410,%rsp
    168c:	64 48 8b 04 25 28 00 	mov    %fs:0x28,%rax
    1693:	00 00 
    1695:	48 89 84 24 08 04 00 	mov    %rax,0x408(%rsp)
    169c:	00 
    169d:	31 c0                	xor    %eax,%eax
    169f:	48 89 e5             	mov    %rsp,%rbp
    16a2:	48 89 ef             	mov    %rbp,%rdi
    16a5:	e8 e6 fa ff ff       	call   1190 <__sprintf_chk@plt>
    16aa:	48 8d 35 5e 0a 00 00 	lea    0xa5e(%rip),%rsi        # 210f <_IO_stdin_used+0x10f>
    16b1:	48 89 ef             	mov    %rbp,%rdi
    16b4:	e8 a7 fa ff ff       	call   1160 <fopen@plt>
    16b9:	48 89 03             	mov    %rax,(%rbx)
    16bc:	48 85 c0             	test   %rax,%rax
    16bf:	74 1f                	je     16e0 <test_Fopen.constprop.0.isra.0+0x80>
    16c1:	48 8b 84 24 08 04 00 	mov    0x408(%rsp),%rax
    16c8:	00 
    16c9:	64 48 2b 04 25 28 00 	sub    %fs:0x28,%rax
    16d0:	00 00 
    16d2:	75 22                	jne    16f6 <test_Fopen.constprop.0.isra.0+0x96>
    16d4:	48 81 c4 10 04 00 00 	add    $0x410,%rsp
    16db:	5b                   	pop    %rbx
    16dc:	5d                   	pop    %rbp
    16dd:	41 5c                	pop    %r12
    16df:	c3                   	ret    
    16e0:	4c 89 e2             	mov    %r12,%rdx
    16e3:	48 8d 35 28 0a 00 00 	lea    0xa28(%rip),%rsi        # 2112 <_IO_stdin_used+0x112>
    16ea:	bf 01 00 00 00       	mov    $0x1,%edi
    16ef:	e8 5c fa ff ff       	call   1150 <__printf_chk@plt>
    16f4:	eb cb                	jmp    16c1 <test_Fopen.constprop.0.isra.0+0x61>
    16f6:	e8 25 fa ff ff       	call   1120 <__stack_chk_fail@plt>
    16fb:	0f 1f 44 00 00       	nopl   0x0(%rax,%rax,1)

0000000000001700 <read_write_buffer.constprop.0>:
    1700:	41 54                	push   %r12
    1702:	55                   	push   %rbp
    1703:	48 89 f5             	mov    %rsi,%rbp
    1706:	48 83 ec 18          	sub    $0x18,%rsp
    170a:	64 48 8b 04 25 28 00 	mov    %fs:0x28,%rax
    1711:	00 00 
    1713:	48 89 44 24 08       	mov    %rax,0x8(%rsp)
    1718:	31 c0                	xor    %eax,%eax
    171a:	48 89 e6             	mov    %rsp,%rsi
    171d:	48 c7 04 24 00 00 00 	movq   $0x0,(%rsp)
    1724:	00 
    1725:	e8 36 ff ff ff       	call   1660 <test_Fopen.constprop.0.isra.0>
    172a:	4c 8b 24 24          	mov    (%rsp),%r12
    172e:	ba 00 10 00 00       	mov    $0x1000,%edx
    1733:	48 89 ef             	mov    %rbp,%rdi
    1736:	be 08 00 00 00       	mov    $0x8,%esi
    173b:	4c 89 e1             	mov    %r12,%rcx
    173e:	e8 bd f9 ff ff       	call   1100 <fread@plt>
    1743:	48 8b 44 24 08       	mov    0x8(%rsp),%rax
    1748:	64 48 2b 04 25 28 00 	sub    %fs:0x28,%rax
    174f:	00 00 
    1751:	75 0f                	jne    1762 <read_write_buffer.constprop.0+0x62>
    1753:	48 83 c4 18          	add    $0x18,%rsp
    1757:	4c 89 e7             	mov    %r12,%rdi
    175a:	5d                   	pop    %rbp
    175b:	41 5c                	pop    %r12
    175d:	e9 ae f9 ff ff       	jmp    1110 <fclose@plt>
    1762:	e8 b9 f9 ff ff       	call   1120 <__stack_chk_fail@plt>
    1767:	66 0f 1f 84 00 00 00 	nopw   0x0(%rax,%rax,1)
    176e:	00 00 

0000000000001770 <array_to_upper_triangular_matrix>:
    1770:	f3 0f 1e fa          	endbr64 
    1774:	89 f2                	mov    %esi,%edx
    1776:	55                   	push   %rbp
    1777:	b9 00 80 00 00       	mov    $0x8000,%ecx
    177c:	48 89 fd             	mov    %rdi,%rbp
    177f:	53                   	push   %rbx
    1780:	0f af d6             	imul   %esi,%edx
    1783:	89 f3                	mov    %esi,%ebx
    1785:	48 8d 3d f4 a8 00 00 	lea    0xa8f4(%rip),%rdi        # c080 <upper_triangular>
    178c:	31 f6                	xor    %esi,%esi
    178e:	48 83 ec 08          	sub    $0x8,%rsp
    1792:	48 c1 e2 03          	shl    $0x3,%rdx
    1796:	e8 d5 f9 ff ff       	call   1170 <__memset_chk@plt>
    179b:	85 db                	test   %ebx,%ebx
    179d:	74 5f                	je     17fe <array_to_upper_triangular_matrix+0x8e>
    179f:	f2 0f 10 0d 09 0a 00 	movsd  0xa09(%rip),%xmm1        # 21b0 <_IO_stdin_used+0x1b0>
    17a6:	00 
    17a7:	48 89 c7             	mov    %rax,%rdi
    17aa:	45 31 c0             	xor    %r8d,%r8d
    17ad:	31 f6                	xor    %esi,%esi
    17af:	45 31 d2             	xor    %r10d,%r10d
    17b2:	66 0f 1f 44 00 00    	nopw   0x0(%rax,%rax,1)
    17b8:	44 8d 4e 01          	lea    0x1(%rsi),%r9d
    17bc:	39 f3                	cmp    %esi,%ebx
    17be:	76 33                	jbe    17f3 <array_to_upper_triangular_matrix+0x83>
    17c0:	49 63 c2             	movslq %r10d,%rax
    17c3:	44 8d 4e 01          	lea    0x1(%rsi),%r9d
    17c7:	48 8d 4c c5 00       	lea    0x0(%rbp,%rax,8),%rcx
    17cc:	89 f0                	mov    %esi,%eax
    17ce:	66 90                	xchg   %ax,%ax
    17d0:	f2 0f 10 01          	movsd  (%rcx),%xmm0
    17d4:	42 8d 14 00          	lea    (%rax,%r8,1),%edx
    17d8:	39 c6                	cmp    %eax,%esi
    17da:	74 34                	je     1810 <array_to_upper_triangular_matrix+0xa0>
    17dc:	83 c0 01             	add    $0x1,%eax
    17df:	f2 0f 11 04 d7       	movsd  %xmm0,(%rdi,%rdx,8)
    17e4:	48 83 c1 08          	add    $0x8,%rcx
    17e8:	39 c3                	cmp    %eax,%ebx
    17ea:	75 e4                	jne    17d0 <array_to_upper_triangular_matrix+0x60>
    17ec:	89 d8                	mov    %ebx,%eax
    17ee:	29 f0                	sub    %esi,%eax
    17f0:	41 01 c2             	add    %eax,%r10d
    17f3:	44 89 ce             	mov    %r9d,%esi
    17f6:	41 01 d8             	add    %ebx,%r8d
    17f9:	44 39 cb             	cmp    %r9d,%ebx
    17fc:	75 ba                	jne    17b8 <array_to_upper_triangular_matrix+0x48>
    17fe:	48 83 c4 08          	add    $0x8,%rsp
    1802:	31 c0                	xor    %eax,%eax
    1804:	5b                   	pop    %rbx
    1805:	5d                   	pop    %rbp
    1806:	c3                   	ret    
    1807:	66 0f 1f 84 00 00 00 	nopw   0x0(%rax,%rax,1)
    180e:	00 00 
    1810:	f2 0f 58 c1          	addsd  %xmm1,%xmm0
    1814:	44 89 c8             	mov    %r9d,%eax
    1817:	48 83 c1 08          	add    $0x8,%rcx
    181b:	f2 0f 11 04 d7       	movsd  %xmm0,(%rdi,%rdx,8)
    1820:	44 39 cb             	cmp    %r9d,%ebx
    1823:	75 ab                	jne    17d0 <array_to_upper_triangular_matrix+0x60>
    1825:	eb c5                	jmp    17ec <array_to_upper_triangular_matrix+0x7c>
    1827:	66 0f 1f 84 00 00 00 	nopw   0x0(%rax,%rax,1)
    182e:	00 00 

0000000000001830 <riscv_dsp_mat_solve_ut_f64>:
    1830:	f3 0f 1e fa          	endbr64 
    1834:	41 57                	push   %r15
    1836:	41 56                	push   %r14
    1838:	41 55                	push   %r13
    183a:	41 54                	push   %r12
    183c:	55                   	push   %rbp
    183d:	53                   	push   %rbx
    183e:	48 89 7c 24 c0       	mov    %rdi,-0x40(%rsp)
    1843:	48 89 74 24 c8       	mov    %rsi,-0x38(%rsp)
    1848:	44 39 c1             	cmp    %r8d,%ecx
    184b:	0f 85 61 01 00 00    	jne    19b2 <riscv_dsp_mat_solve_ut_f64+0x182>
    1851:	41 89 cd             	mov    %ecx,%r13d
    1854:	85 c9                	test   %ecx,%ecx
    1856:	0f 8e 49 01 00 00    	jle    19a5 <riscv_dsp_mat_solve_ut_f64+0x175>
    185c:	44 8d 71 ff          	lea    -0x1(%rcx),%r14d
    1860:	48 89 d7             	mov    %rdx,%rdi
    1863:	66 0f ef d2          	pxor   %xmm2,%xmm2
    1867:	45 31 e4             	xor    %r12d,%r12d
    186a:	44 89 f3             	mov    %r14d,%ebx
    186d:	4d 63 fe             	movslq %r14d,%r15
    1870:	0f af d9             	imul   %ecx,%ebx
    1873:	48 8b 4c 24 c0       	mov    -0x40(%rsp),%rcx
    1878:	49 c1 e7 03          	shl    $0x3,%r15
    187c:	89 d8                	mov    %ebx,%eax
    187e:	89 5c 24 e8          	mov    %ebx,-0x18(%rsp)
    1882:	48 c1 e0 03          	shl    $0x3,%rax
    1886:	89 5c 24 d0          	mov    %ebx,-0x30(%rsp)
    188a:	48 01 c1             	add    %rax,%rcx
    188d:	48 03 44 24 c8       	add    -0x38(%rsp),%rax
    1892:	48 89 44 24 f0       	mov    %rax,-0x10(%rsp)
    1897:	41 8d 45 fe          	lea    -0x2(%r13),%eax
    189b:	89 44 24 d4          	mov    %eax,-0x2c(%rsp)
    189f:	42 8d 04 2b          	lea    (%rbx,%r13,1),%eax
    18a3:	89 44 24 fc          	mov    %eax,-0x4(%rsp)
    18a7:	89 d8                	mov    %ebx,%eax
    18a9:	44 29 e8             	sub    %r13d,%eax
    18ac:	48 89 4c 24 e0       	mov    %rcx,-0x20(%rsp)
    18b1:	89 44 24 f8          	mov    %eax,-0x8(%rsp)
    18b5:	89 d8                	mov    %ebx,%eax
    18b7:	44 29 e8             	sub    %r13d,%eax
    18ba:	89 44 24 ec          	mov    %eax,-0x14(%rsp)
    18be:	49 8d 47 f8          	lea    -0x8(%r15),%rax
    18c2:	48 89 44 24 d8       	mov    %rax,-0x28(%rsp)
    18c7:	45 85 f6             	test   %r14d,%r14d
    18ca:	0f 88 be 00 00 00    	js     198e <riscv_dsp_mat_solve_ut_f64+0x15e>
    18d0:	48 8b 44 24 f0       	mov    -0x10(%rsp),%rax
    18d5:	8b 6c 24 ec          	mov    -0x14(%rsp),%ebp
    18d9:	4c 89 fb             	mov    %r15,%rbx
    18dc:	45 89 f1             	mov    %r14d,%r9d
    18df:	44 8b 5c 24 f8       	mov    -0x8(%rsp),%r11d
    18e4:	4c 8b 54 24 e0       	mov    -0x20(%rsp),%r10
    18e9:	f2 42 0f 10 0c e0    	movsd  (%rax,%r12,8),%xmm1
    18ef:	8b 44 24 e8          	mov    -0x18(%rsp),%eax
    18f3:	0f 1f 44 00 00       	nopl   0x0(%rax,%rax,1)
    18f8:	f2 41 0f 10 04 1a    	movsd  (%r10,%rbx,1),%xmm0
    18fe:	66 0f 2e c2          	ucomisd %xmm2,%xmm0
    1902:	7a 06                	jp     190a <riscv_dsp_mat_solve_ut_f64+0xda>
    1904:	0f 84 a8 00 00 00    	je     19b2 <riscv_dsp_mat_solve_ut_f64+0x182>
    190a:	f2 0f 5e c8          	divsd  %xmm0,%xmm1
    190e:	44 01 e0             	add    %r12d,%eax
    1911:	89 c0                	mov    %eax,%eax
    1913:	f2 0f 11 0c c7       	movsd  %xmm1,(%rdi,%rax,8)
    1918:	41 83 e9 01          	sub    $0x1,%r9d
    191c:	72 70                	jb     198e <riscv_dsp_mat_solve_ut_f64+0x15e>
    191e:	48 8b 74 24 c8       	mov    -0x38(%rsp),%rsi
    1923:	44 89 d8             	mov    %r11d,%eax
    1926:	4c 01 e0             	add    %r12,%rax
    1929:	f2 0f 10 0c c6       	movsd  (%rsi,%rax,8),%xmm1
    192e:	48 8b 74 24 c0       	mov    -0x40(%rsp),%rsi
    1933:	89 e8                	mov    %ebp,%eax
    1935:	4c 8d 14 c6          	lea    (%rsi,%rax,8),%r10
    1939:	45 39 ce             	cmp    %r9d,%r14d
    193c:	7e 3e                	jle    197c <riscv_dsp_mat_solve_ut_f64+0x14c>
    193e:	8b 54 24 d4          	mov    -0x2c(%rsp),%edx
    1942:	48 8b 74 24 d8       	mov    -0x28(%rsp),%rsi
    1947:	4b 8d 04 3a          	lea    (%r10,%r15,1),%rax
    194b:	44 29 ca             	sub    %r9d,%edx
    194e:	4c 01 d6             	add    %r10,%rsi
    1951:	48 c1 e2 03          	shl    $0x3,%rdx
    1955:	48 29 d6             	sub    %rdx,%rsi
    1958:	8b 54 24 d0          	mov    -0x30(%rsp),%edx
    195c:	0f 1f 40 00          	nopl   0x0(%rax)
    1960:	89 d1                	mov    %edx,%ecx
    1962:	48 83 e8 08          	sub    $0x8,%rax
    1966:	44 29 c2             	sub    %r8d,%edx
    1969:	f2 0f 10 04 cf       	movsd  (%rdi,%rcx,8),%xmm0
    196e:	f2 0f 59 40 08       	mulsd  0x8(%rax),%xmm0
    1973:	f2 0f 5c c8          	subsd  %xmm0,%xmm1
    1977:	48 39 c6             	cmp    %rax,%rsi
    197a:	75 e4                	jne    1960 <riscv_dsp_mat_solve_ut_f64+0x130>
    197c:	44 89 d8             	mov    %r11d,%eax
    197f:	48 83 eb 08          	sub    $0x8,%rbx
    1983:	44 29 ed             	sub    %r13d,%ebp
    1986:	45 29 c3             	sub    %r8d,%r11d
    1989:	e9 6a ff ff ff       	jmp    18f8 <riscv_dsp_mat_solve_ut_f64+0xc8>
    198e:	83 44 24 d0 01       	addl   $0x1,-0x30(%rsp)
    1993:	49 83 c4 01          	add    $0x1,%r12
    1997:	8b 44 24 d0          	mov    -0x30(%rsp),%eax
    199b:	3b 44 24 fc          	cmp    -0x4(%rsp),%eax
    199f:	0f 85 22 ff ff ff    	jne    18c7 <riscv_dsp_mat_solve_ut_f64+0x97>
    19a5:	5b                   	pop    %rbx
    19a6:	31 c0                	xor    %eax,%eax
    19a8:	5d                   	pop    %rbp
    19a9:	41 5c                	pop    %r12
    19ab:	41 5d                	pop    %r13
    19ad:	41 5e                	pop    %r14
    19af:	41 5f                	pop    %r15
    19b1:	c3                   	ret    
    19b2:	5b                   	pop    %rbx
    19b3:	b8 ff ff ff ff       	mov    $0xffffffff,%eax
    19b8:	5d                   	pop    %rbp
    19b9:	41 5c                	pop    %r12
    19bb:	41 5d                	pop    %r13
    19bd:	41 5e                	pop    %r14
    19bf:	41 5f                	pop    %r15
    19c1:	c3                   	ret    

Disassembly of section .fini:

00000000000019c4 <_fini>:
    19c4:	f3 0f 1e fa          	endbr64 
    19c8:	48 83 ec 08          	sub    $0x8,%rsp
    19cc:	48 83 c4 08          	add    $0x8,%rsp
    19d0:	c3                   	ret    
