
t_max_u32:     file format elf64-x86-64


Disassembly of section .init:

0000000000001000 <_init>:
    1000:	f3 0f 1e fa          	endbr64 
    1004:	48 83 ec 08          	sub    $0x8,%rsp
    1008:	48 8b 05 d9 2f 00 00 	mov    0x2fd9(%rip),%rax        # 3fe8 <__gmon_start__@Base>
    100f:	48 85 c0             	test   %rax,%rax
    1012:	74 02                	je     1016 <_init+0x16>
    1014:	ff d0                	call   *%rax
    1016:	48 83 c4 08          	add    $0x8,%rsp
    101a:	c3                   	ret    

Disassembly of section .plt:

0000000000001020 <.plt>:
    1020:	ff 35 5a 2f 00 00    	push   0x2f5a(%rip)        # 3f80 <_GLOBAL_OFFSET_TABLE_+0x8>
    1026:	f2 ff 25 5b 2f 00 00 	bnd jmp *0x2f5b(%rip)        # 3f88 <_GLOBAL_OFFSET_TABLE_+0x10>
    102d:	0f 1f 00             	nopl   (%rax)
    1030:	f3 0f 1e fa          	endbr64 
    1034:	68 00 00 00 00       	push   $0x0
    1039:	f2 e9 e1 ff ff ff    	bnd jmp 1020 <_init+0x20>
    103f:	90                   	nop
    1040:	f3 0f 1e fa          	endbr64 
    1044:	68 01 00 00 00       	push   $0x1
    1049:	f2 e9 d1 ff ff ff    	bnd jmp 1020 <_init+0x20>
    104f:	90                   	nop
    1050:	f3 0f 1e fa          	endbr64 
    1054:	68 02 00 00 00       	push   $0x2
    1059:	f2 e9 c1 ff ff ff    	bnd jmp 1020 <_init+0x20>
    105f:	90                   	nop
    1060:	f3 0f 1e fa          	endbr64 
    1064:	68 03 00 00 00       	push   $0x3
    1069:	f2 e9 b1 ff ff ff    	bnd jmp 1020 <_init+0x20>
    106f:	90                   	nop
    1070:	f3 0f 1e fa          	endbr64 
    1074:	68 04 00 00 00       	push   $0x4
    1079:	f2 e9 a1 ff ff ff    	bnd jmp 1020 <_init+0x20>
    107f:	90                   	nop
    1080:	f3 0f 1e fa          	endbr64 
    1084:	68 05 00 00 00       	push   $0x5
    1089:	f2 e9 91 ff ff ff    	bnd jmp 1020 <_init+0x20>
    108f:	90                   	nop
    1090:	f3 0f 1e fa          	endbr64 
    1094:	68 06 00 00 00       	push   $0x6
    1099:	f2 e9 81 ff ff ff    	bnd jmp 1020 <_init+0x20>
    109f:	90                   	nop
    10a0:	f3 0f 1e fa          	endbr64 
    10a4:	68 07 00 00 00       	push   $0x7
    10a9:	f2 e9 71 ff ff ff    	bnd jmp 1020 <_init+0x20>
    10af:	90                   	nop
    10b0:	f3 0f 1e fa          	endbr64 
    10b4:	68 08 00 00 00       	push   $0x8
    10b9:	f2 e9 61 ff ff ff    	bnd jmp 1020 <_init+0x20>
    10bf:	90                   	nop

Disassembly of section .plt.got:

00000000000010c0 <__cxa_finalize@plt>:
    10c0:	f3 0f 1e fa          	endbr64 
    10c4:	f2 ff 25 2d 2f 00 00 	bnd jmp *0x2f2d(%rip)        # 3ff8 <__cxa_finalize@GLIBC_2.2.5>
    10cb:	0f 1f 44 00 00       	nopl   0x0(%rax,%rax,1)

Disassembly of section .plt.sec:

00000000000010d0 <puts@plt>:
    10d0:	f3 0f 1e fa          	endbr64 
    10d4:	f2 ff 25 b5 2e 00 00 	bnd jmp *0x2eb5(%rip)        # 3f90 <puts@GLIBC_2.2.5>
    10db:	0f 1f 44 00 00       	nopl   0x0(%rax,%rax,1)

00000000000010e0 <fread@plt>:
    10e0:	f3 0f 1e fa          	endbr64 
    10e4:	f2 ff 25 ad 2e 00 00 	bnd jmp *0x2ead(%rip)        # 3f98 <fread@GLIBC_2.2.5>
    10eb:	0f 1f 44 00 00       	nopl   0x0(%rax,%rax,1)

00000000000010f0 <fclose@plt>:
    10f0:	f3 0f 1e fa          	endbr64 
    10f4:	f2 ff 25 a5 2e 00 00 	bnd jmp *0x2ea5(%rip)        # 3fa0 <fclose@GLIBC_2.2.5>
    10fb:	0f 1f 44 00 00       	nopl   0x0(%rax,%rax,1)

0000000000001100 <__stack_chk_fail@plt>:
    1100:	f3 0f 1e fa          	endbr64 
    1104:	f2 ff 25 9d 2e 00 00 	bnd jmp *0x2e9d(%rip)        # 3fa8 <__stack_chk_fail@GLIBC_2.4>
    110b:	0f 1f 44 00 00       	nopl   0x0(%rax,%rax,1)

0000000000001110 <log10f@plt>:
    1110:	f3 0f 1e fa          	endbr64 
    1114:	f2 ff 25 95 2e 00 00 	bnd jmp *0x2e95(%rip)        # 3fb0 <log10f@GLIBC_2.2.5>
    111b:	0f 1f 44 00 00       	nopl   0x0(%rax,%rax,1)

0000000000001120 <__printf_chk@plt>:
    1120:	f3 0f 1e fa          	endbr64 
    1124:	f2 ff 25 8d 2e 00 00 	bnd jmp *0x2e8d(%rip)        # 3fb8 <__printf_chk@GLIBC_2.3.4>
    112b:	0f 1f 44 00 00       	nopl   0x0(%rax,%rax,1)

0000000000001130 <fopen@plt>:
    1130:	f3 0f 1e fa          	endbr64 
    1134:	f2 ff 25 85 2e 00 00 	bnd jmp *0x2e85(%rip)        # 3fc0 <fopen@GLIBC_2.2.5>
    113b:	0f 1f 44 00 00       	nopl   0x0(%rax,%rax,1)

0000000000001140 <sqrt@plt>:
    1140:	f3 0f 1e fa          	endbr64 
    1144:	f2 ff 25 7d 2e 00 00 	bnd jmp *0x2e7d(%rip)        # 3fc8 <sqrt@GLIBC_2.2.5>
    114b:	0f 1f 44 00 00       	nopl   0x0(%rax,%rax,1)

0000000000001150 <__sprintf_chk@plt>:
    1150:	f3 0f 1e fa          	endbr64 
    1154:	f2 ff 25 75 2e 00 00 	bnd jmp *0x2e75(%rip)        # 3fd0 <__sprintf_chk@GLIBC_2.3.4>
    115b:	0f 1f 44 00 00       	nopl   0x0(%rax,%rax,1)

Disassembly of section .text:

0000000000001160 <main>:
    1160:	f3 0f 1e fa          	endbr64 
    1164:	55                   	push   %rbp
    1165:	48 89 e5             	mov    %rsp,%rbp
    1168:	41 57                	push   %r15
    116a:	41 56                	push   %r14
    116c:	41 55                	push   %r13
    116e:	41 54                	push   %r12
    1170:	53                   	push   %rbx
    1171:	48 81 ec 58 02 00 00 	sub    $0x258,%rsp
    1178:	64 48 8b 04 25 28 00 	mov    %fs:0x28,%rax
    117f:	00 00 
    1181:	48 89 45 c8          	mov    %rax,-0x38(%rbp)
    1185:	48 89 e0             	mov    %rsp,%rax
    1188:	48 39 c4             	cmp    %rax,%rsp
    118b:	74 15                	je     11a2 <main+0x42>
    118d:	48 81 ec 00 10 00 00 	sub    $0x1000,%rsp
    1194:	48 83 8c 24 f8 0f 00 	orq    $0x0,0xff8(%rsp)
    119b:	00 00 
    119d:	48 39 c4             	cmp    %rax,%rsp
    11a0:	75 eb                	jne    118d <main+0x2d>
    11a2:	48 81 ec 00 04 00 00 	sub    $0x400,%rsp
    11a9:	48 83 8c 24 f8 03 00 	orq    $0x0,0x3f8(%rsp)
    11b0:	00 00 
    11b2:	48 89 e3             	mov    %rsp,%rbx
    11b5:	48 89 e0             	mov    %rsp,%rax
    11b8:	48 39 c4             	cmp    %rax,%rsp
    11bb:	74 12                	je     11cf <main+0x6f>
    11bd:	48 81 ec 00 10 00 00 	sub    $0x1000,%rsp
    11c4:	48 83 8c 24 f8 0f 00 	orq    $0x0,0xff8(%rsp)
    11cb:	00 00 
    11cd:	eb e9                	jmp    11b8 <main+0x58>
    11cf:	48 81 ec 90 01 00 00 	sub    $0x190,%rsp
    11d6:	48 83 8c 24 88 01 00 	orq    $0x0,0x188(%rsp)
    11dd:	00 00 
    11df:	48 89 a5 90 fd ff ff 	mov    %rsp,-0x270(%rbp)
    11e6:	48 89 e0             	mov    %rsp,%rax
    11e9:	48 39 c4             	cmp    %rax,%rsp
    11ec:	74 12                	je     1200 <main+0xa0>
    11ee:	48 81 ec 00 10 00 00 	sub    $0x1000,%rsp
    11f5:	48 83 8c 24 f8 0f 00 	orq    $0x0,0xff8(%rsp)
    11fc:	00 00 
    11fe:	eb e9                	jmp    11e9 <main+0x89>
    1200:	48 81 ec 90 01 00 00 	sub    $0x190,%rsp
    1207:	48 83 8c 24 88 01 00 	orq    $0x0,0x188(%rsp)
    120e:	00 00 
    1210:	4c 8d 05 f1 0d 00 00 	lea    0xdf1(%rip),%r8        # 2008 <_IO_stdin_used+0x8>
    1217:	ba 00 02 00 00       	mov    $0x200,%edx
    121c:	31 c0                	xor    %eax,%eax
    121e:	48 8d 0d 7d 0e 00 00 	lea    0xe7d(%rip),%rcx        # 20a2 <_IO_stdin_used+0xa2>
    1225:	be 01 00 00 00       	mov    $0x1,%esi
    122a:	4c 8d 25 c2 0e 00 00 	lea    0xec2(%rip),%r12        # 20f3 <_IO_stdin_used+0xf3>
    1231:	4c 8d ad c0 fd ff ff 	lea    -0x240(%rbp),%r13
    1238:	48 89 a5 88 fd ff ff 	mov    %rsp,-0x278(%rbp)
    123f:	4c 89 ef             	mov    %r13,%rdi
    1242:	e8 09 ff ff ff       	call   1150 <__sprintf_chk@plt>
    1247:	4c 89 e6             	mov    %r12,%rsi
    124a:	4c 89 ef             	mov    %r13,%rdi
    124d:	e8 de fe ff ff       	call   1130 <fopen@plt>
    1252:	49 89 c7             	mov    %rax,%r15
    1255:	48 85 c0             	test   %rax,%rax
    1258:	0f 84 26 01 00 00    	je     1384 <main+0x224>
    125e:	ba 00 02 00 00       	mov    $0x200,%edx
    1263:	be 01 00 00 00       	mov    $0x1,%esi
    1268:	4c 89 ef             	mov    %r13,%rdi
    126b:	31 c0                	xor    %eax,%eax
    126d:	4c 8d 05 94 0d 00 00 	lea    0xd94(%rip),%r8        # 2008 <_IO_stdin_used+0x8>
    1274:	48 8d 0d 38 0e 00 00 	lea    0xe38(%rip),%rcx        # 20b3 <_IO_stdin_used+0xb3>
    127b:	e8 d0 fe ff ff       	call   1150 <__sprintf_chk@plt>
    1280:	4c 89 e6             	mov    %r12,%rsi
    1283:	4c 89 ef             	mov    %r13,%rdi
    1286:	e8 a5 fe ff ff       	call   1130 <fopen@plt>
    128b:	48 89 85 80 fd ff ff 	mov    %rax,-0x280(%rbp)
    1292:	48 85 c0             	test   %rax,%rax
    1295:	0f 84 e9 00 00 00    	je     1384 <main+0x224>
    129b:	4c 89 ef             	mov    %r13,%rdi
    129e:	ba 00 02 00 00       	mov    $0x200,%edx
    12a3:	be 01 00 00 00       	mov    $0x1,%esi
    12a8:	31 c0                	xor    %eax,%eax
    12aa:	4c 8d 05 57 0d 00 00 	lea    0xd57(%rip),%r8        # 2008 <_IO_stdin_used+0x8>
    12b1:	48 8d 0d 15 0e 00 00 	lea    0xe15(%rip),%rcx        # 20cd <_IO_stdin_used+0xcd>
    12b8:	e8 93 fe ff ff       	call   1150 <__sprintf_chk@plt>
    12bd:	4c 89 ef             	mov    %r13,%rdi
    12c0:	4c 89 e6             	mov    %r12,%rsi
    12c3:	e8 68 fe ff ff       	call   1130 <fopen@plt>
    12c8:	49 89 c5             	mov    %rax,%r13
    12cb:	48 85 c0             	test   %rax,%rax
    12ce:	0f 84 b0 00 00 00    	je     1384 <main+0x224>
    12d4:	48 8b 85 90 fd ff ff 	mov    -0x270(%rbp),%rax
    12db:	4c 8d a5 b8 fd ff ff 	lea    -0x248(%rbp),%r12
    12e2:	49 89 c6             	mov    %rax,%r14
    12e5:	48 05 90 01 00 00    	add    $0x190,%rax
    12eb:	48 89 85 98 fd ff ff 	mov    %rax,-0x268(%rbp)
    12f2:	48 8d 85 bc fd ff ff 	lea    -0x244(%rbp),%rax
    12f9:	48 89 85 a0 fd ff ff 	mov    %rax,-0x260(%rbp)
    1300:	eb 17                	jmp    1319 <main+0x1b9>
    1302:	66 0f 1f 44 00 00    	nopw   0x0(%rax,%rax,1)
    1308:	49 83 c6 04          	add    $0x4,%r14
    130c:	4c 3b b5 98 fd ff ff 	cmp    -0x268(%rbp),%r14
    1313:	0f 84 92 00 00 00    	je     13ab <main+0x24b>
    1319:	4c 89 f9             	mov    %r15,%rcx
    131c:	ba ff 00 00 00       	mov    $0xff,%edx
    1321:	be 04 00 00 00       	mov    $0x4,%esi
    1326:	48 89 df             	mov    %rbx,%rdi
    1329:	e8 b2 fd ff ff       	call   10e0 <fread@plt>
    132e:	48 8b bd a0 fd ff ff 	mov    -0x260(%rbp),%rdi
    1335:	4c 89 e9             	mov    %r13,%rcx
    1338:	ba 01 00 00 00       	mov    $0x1,%edx
    133d:	be 04 00 00 00       	mov    $0x4,%esi
    1342:	e8 99 fd ff ff       	call   10e0 <fread@plt>
    1347:	4c 89 e2             	mov    %r12,%rdx
    134a:	31 f6                	xor    %esi,%esi
    134c:	48 89 df             	mov    %rbx,%rdi
    134f:	e8 8c 05 00 00       	call   18e0 <riscv_dsp_max_u32>
    1354:	4c 89 e2             	mov    %r12,%rdx
    1357:	be ff 00 00 00       	mov    $0xff,%esi
    135c:	48 89 df             	mov    %rbx,%rdi
    135f:	e8 7c 05 00 00       	call   18e0 <riscv_dsp_max_u32>
    1364:	41 89 06             	mov    %eax,(%r14)
    1367:	8b 85 bc fd ff ff    	mov    -0x244(%rbp),%eax
    136d:	2b 85 b8 fd ff ff    	sub    -0x248(%rbp),%eax
    1373:	83 f8 01             	cmp    $0x1,%eax
    1376:	74 90                	je     1308 <main+0x1a8>
    1378:	48 8d 3d 6a 0d 00 00 	lea    0xd6a(%rip),%rdi        # 20e9 <_IO_stdin_used+0xe9>
    137f:	e8 4c fd ff ff       	call   10d0 <puts@plt>
    1384:	b8 ff ff ff ff       	mov    $0xffffffff,%eax
    1389:	48 8b 55 c8          	mov    -0x38(%rbp),%rdx
    138d:	64 48 2b 14 25 28 00 	sub    %fs:0x28,%rdx
    1394:	00 00 
    1396:	0f 85 46 04 00 00    	jne    17e2 <main+0x682>
    139c:	48 8d 65 d8          	lea    -0x28(%rbp),%rsp
    13a0:	5b                   	pop    %rbx
    13a1:	41 5c                	pop    %r12
    13a3:	41 5d                	pop    %r13
    13a5:	41 5e                	pop    %r14
    13a7:	41 5f                	pop    %r15
    13a9:	5d                   	pop    %rbp
    13aa:	c3                   	ret    
    13ab:	48 8b 8d 80 fd ff ff 	mov    -0x280(%rbp),%rcx
    13b2:	ba 64 00 00 00       	mov    $0x64,%edx
    13b7:	be 04 00 00 00       	mov    $0x4,%esi
    13bc:	48 8b bd 88 fd ff ff 	mov    -0x278(%rbp),%rdi
    13c3:	e8 18 fd ff ff       	call   10e0 <fread@plt>
    13c8:	66 0f 6f 25 60 0d 00 	movdqa 0xd60(%rip),%xmm4        # 2130 <_IO_stdin_used+0x130>
    13cf:	00 
    13d0:	31 c0                	xor    %eax,%eax
    13d2:	66 0f ef d2          	pxor   %xmm2,%xmm2
    13d6:	66 2e 0f 1f 84 00 00 	cs nopw 0x0(%rax,%rax,1)
    13dd:	00 00 00 
    13e0:	48 8b 8d 88 fd ff ff 	mov    -0x278(%rbp),%rcx
    13e7:	f3 0f 6f 04 01       	movdqu (%rcx,%rax,1),%xmm0
    13ec:	48 8b 8d 90 fd ff ff 	mov    -0x270(%rbp),%rcx
    13f3:	f3 0f 6f 0c 01       	movdqu (%rcx,%rax,1),%xmm1
    13f8:	66 0f 6f d8          	movdqa %xmm0,%xmm3
    13fc:	48 83 c0 10          	add    $0x10,%rax
    1400:	66 0f 6f e9          	movdqa %xmm1,%xmm5
    1404:	66 0f fa d9          	psubd  %xmm1,%xmm3
    1408:	66 0f fa cc          	psubd  %xmm4,%xmm1
    140c:	66 0f fa e8          	psubd  %xmm0,%xmm5
    1410:	66 0f fa c4          	psubd  %xmm4,%xmm0
    1414:	66 0f 66 c1          	pcmpgtd %xmm1,%xmm0
    1418:	66 0f 6f ca          	movdqa %xmm2,%xmm1
    141c:	66 0f fa cc          	psubd  %xmm4,%xmm1
    1420:	66 0f db d8          	pand   %xmm0,%xmm3
    1424:	66 0f df c5          	pandn  %xmm5,%xmm0
    1428:	66 0f eb c3          	por    %xmm3,%xmm0
    142c:	66 0f 6f d8          	movdqa %xmm0,%xmm3
    1430:	66 0f fa dc          	psubd  %xmm4,%xmm3
    1434:	66 0f 66 cb          	pcmpgtd %xmm3,%xmm1
    1438:	66 0f db d1          	pand   %xmm1,%xmm2
    143c:	66 0f df c8          	pandn  %xmm0,%xmm1
    1440:	66 0f eb d1          	por    %xmm1,%xmm2
    1444:	48 3d 90 01 00 00    	cmp    $0x190,%rax
    144a:	75 94                	jne    13e0 <main+0x280>
    144c:	66 0f 6f c2          	movdqa %xmm2,%xmm0
    1450:	66 0f 6f da          	movdqa %xmm2,%xmm3
    1454:	bf 01 00 00 00       	mov    $0x1,%edi
    1459:	31 c0                	xor    %eax,%eax
    145b:	66 0f 73 d8 08       	psrldq $0x8,%xmm0
    1460:	66 0f fa dc          	psubd  %xmm4,%xmm3
    1464:	48 8d 35 8a 0c 00 00 	lea    0xc8a(%rip),%rsi        # 20f5 <_IO_stdin_used+0xf5>
    146b:	66 0f 6f c8          	movdqa %xmm0,%xmm1
    146f:	66 0f fa cc          	psubd  %xmm4,%xmm1
    1473:	66 0f 66 cb          	pcmpgtd %xmm3,%xmm1
    1477:	66 0f db c1          	pand   %xmm1,%xmm0
    147b:	66 0f df ca          	pandn  %xmm2,%xmm1
    147f:	66 0f eb c8          	por    %xmm0,%xmm1
    1483:	66 0f 6f d1          	movdqa %xmm1,%xmm2
    1487:	66 0f 6f d9          	movdqa %xmm1,%xmm3
    148b:	66 0f 73 da 04       	psrldq $0x4,%xmm2
    1490:	66 0f fa dc          	psubd  %xmm4,%xmm3
    1494:	66 0f 6f c2          	movdqa %xmm2,%xmm0
    1498:	66 0f fa c4          	psubd  %xmm4,%xmm0
    149c:	66 0f 66 c3          	pcmpgtd %xmm3,%xmm0
    14a0:	66 0f db d0          	pand   %xmm0,%xmm2
    14a4:	66 0f df c1          	pandn  %xmm1,%xmm0
    14a8:	66 0f eb c2          	por    %xmm2,%xmm0
    14ac:	66 0f 7e c2          	movd   %xmm0,%edx
    14b0:	e8 6b fc ff ff       	call   1120 <__printf_chk@plt>
    14b5:	4c 89 ff             	mov    %r15,%rdi
    14b8:	e8 33 fc ff ff       	call   10f0 <fclose@plt>
    14bd:	48 8b bd 80 fd ff ff 	mov    -0x280(%rbp),%rdi
    14c4:	e8 27 fc ff ff       	call   10f0 <fclose@plt>
    14c9:	4c 89 ef             	mov    %r13,%rdi
    14cc:	e8 1f fc ff ff       	call   10f0 <fclose@plt>
    14d1:	48 89 e0             	mov    %rsp,%rax
    14d4:	48 39 c4             	cmp    %rax,%rsp
    14d7:	74 12                	je     14eb <main+0x38b>
    14d9:	48 81 ec 00 10 00 00 	sub    $0x1000,%rsp
    14e0:	48 83 8c 24 f8 0f 00 	orq    $0x0,0xff8(%rsp)
    14e7:	00 00 
    14e9:	eb e9                	jmp    14d4 <main+0x374>
    14eb:	48 81 ec 90 01 00 00 	sub    $0x190,%rsp
    14f2:	48 83 8c 24 88 01 00 	orq    $0x0,0x188(%rsp)
    14f9:	00 00 
    14fb:	48 89 e2             	mov    %rsp,%rdx
    14fe:	48 89 e0             	mov    %rsp,%rax
    1501:	48 39 c4             	cmp    %rax,%rsp
    1504:	74 12                	je     1518 <main+0x3b8>
    1506:	48 81 ec 00 10 00 00 	sub    $0x1000,%rsp
    150d:	48 83 8c 24 f8 0f 00 	orq    $0x0,0xff8(%rsp)
    1514:	00 00 
    1516:	eb e9                	jmp    1501 <main+0x3a1>
    1518:	48 81 ec 90 01 00 00 	sub    $0x190,%rsp
    151f:	48 83 8c 24 88 01 00 	orq    $0x0,0x188(%rsp)
    1526:	00 00 
    1528:	66 0f 6f 15 10 0c 00 	movdqa 0xc10(%rip),%xmm2        # 2140 <_IO_stdin_used+0x140>
    152f:	00 
    1530:	0f 28 1d 19 0c 00 00 	movaps 0xc19(%rip),%xmm3        # 2150 <_IO_stdin_used+0x150>
    1537:	31 c0                	xor    %eax,%eax
    1539:	0f 28 25 20 0c 00 00 	movaps 0xc20(%rip),%xmm4        # 2160 <_IO_stdin_used+0x160>
    1540:	48 89 e1             	mov    %rsp,%rcx
    1543:	0f 1f 44 00 00       	nopl   0x0(%rax,%rax,1)
    1548:	48 8b 9d 88 fd ff ff 	mov    -0x278(%rbp),%rbx
    154f:	f3 0f 6f 3c 03       	movdqu (%rbx,%rax,1),%xmm7
    1554:	66 0f 6f c7          	movdqa %xmm7,%xmm0
    1558:	66 0f 6f cf          	movdqa %xmm7,%xmm1
    155c:	0f 29 bd a0 fd ff ff 	movaps %xmm7,-0x260(%rbp)
    1563:	66 0f 72 d0 10       	psrld  $0x10,%xmm0
    1568:	66 0f db ca          	pand   %xmm2,%xmm1
    156c:	0f 5b c0             	cvtdq2ps %xmm0,%xmm0
    156f:	0f 59 c3             	mulps  %xmm3,%xmm0
    1572:	0f 5b c9             	cvtdq2ps %xmm1,%xmm1
    1575:	0f 58 c1             	addps  %xmm1,%xmm0
    1578:	0f 59 c4             	mulps  %xmm4,%xmm0
    157b:	0f 11 04 02          	movups %xmm0,(%rdx,%rax,1)
    157f:	48 83 c0 10          	add    $0x10,%rax
    1583:	48 3d 90 01 00 00    	cmp    $0x190,%rax
    1589:	75 bd                	jne    1548 <main+0x3e8>
    158b:	31 c0                	xor    %eax,%eax
    158d:	0f 1f 00             	nopl   (%rax)
    1590:	48 8b 9d 90 fd ff ff 	mov    -0x270(%rbp),%rbx
    1597:	f3 0f 6f 34 03       	movdqu (%rbx,%rax,1),%xmm6
    159c:	66 0f 6f c6          	movdqa %xmm6,%xmm0
    15a0:	66 0f 6f ce          	movdqa %xmm6,%xmm1
    15a4:	0f 29 b5 a0 fd ff ff 	movaps %xmm6,-0x260(%rbp)
    15ab:	66 0f 72 d0 10       	psrld  $0x10,%xmm0
    15b0:	66 0f db ca          	pand   %xmm2,%xmm1
    15b4:	0f 5b c0             	cvtdq2ps %xmm0,%xmm0
    15b7:	0f 59 c3             	mulps  %xmm3,%xmm0
    15ba:	0f 5b c9             	cvtdq2ps %xmm1,%xmm1
    15bd:	0f 58 c1             	addps  %xmm1,%xmm0
    15c0:	0f 59 c4             	mulps  %xmm4,%xmm0
    15c3:	0f 11 04 01          	movups %xmm0,(%rcx,%rax,1)
    15c7:	48 83 c0 10          	add    $0x10,%rax
    15cb:	48 3d 90 01 00 00    	cmp    $0x190,%rax
    15d1:	75 bd                	jne    1590 <main+0x430>
    15d3:	66 0f ef ed          	pxor   %xmm5,%xmm5
    15d7:	66 0f ef ff          	pxor   %xmm7,%xmm7
    15db:	31 c0                	xor    %eax,%eax
    15dd:	66 0f 28 f7          	movapd %xmm7,%xmm6
    15e1:	0f 28 dd             	movaps %xmm5,%xmm3
    15e4:	0f 28 e5             	movaps %xmm5,%xmm4
    15e7:	44 0f 28 c5          	movaps %xmm5,%xmm8
    15eb:	44 0f 28 cd          	movaps %xmm5,%xmm9
    15ef:	f3 44 0f 10 15 78 0b 	movss  0xb78(%rip),%xmm10        # 2170 <_IO_stdin_used+0x170>
    15f6:	00 00 
    15f8:	0f 1f 84 00 00 00 00 	nopl   0x0(%rax,%rax,1)
    15ff:	00 
    1600:	f3 0f 10 04 01       	movss  (%rcx,%rax,1),%xmm0
    1605:	f3 0f 10 0c 02       	movss  (%rdx,%rax,1),%xmm1
    160a:	66 0f 7e c3          	movd   %xmm0,%ebx
    160e:	81 fb 00 00 c0 7f    	cmp    $0x7fc00000,%ebx
    1614:	0f 84 6a fd ff ff    	je     1384 <main+0x224>
    161a:	0f 28 d1             	movaps %xmm1,%xmm2
    161d:	f3 0f 5c c1          	subss  %xmm1,%xmm0
    1621:	48 83 c0 04          	add    $0x4,%rax
    1625:	f3 41 0f 5f d1       	maxss  %xmm9,%xmm2
    162a:	44 0f 28 ca          	movaps %xmm2,%xmm9
    162e:	0f 28 d1             	movaps %xmm1,%xmm2
    1631:	f3 41 0f 5d d0       	minss  %xmm8,%xmm2
    1636:	f3 0f 59 c9          	mulss  %xmm1,%xmm1
    163a:	44 0f 28 c2          	movaps %xmm2,%xmm8
    163e:	0f 28 d0             	movaps %xmm0,%xmm2
    1641:	f3 0f 59 c0          	mulss  %xmm0,%xmm0
    1645:	41 0f 54 d2          	andps  %xmm10,%xmm2
    1649:	f3 0f 58 e2          	addss  %xmm2,%xmm4
    164d:	f3 0f 5f d3          	maxss  %xmm3,%xmm2
    1651:	f3 0f 5a c9          	cvtss2sd %xmm1,%xmm1
    1655:	f2 0f 58 f9          	addsd  %xmm1,%xmm7
    1659:	0f 28 da             	movaps %xmm2,%xmm3
    165c:	f3 0f 5a c0          	cvtss2sd %xmm0,%xmm0
    1660:	f2 0f 58 f0          	addsd  %xmm0,%xmm6
    1664:	48 3d 90 01 00 00    	cmp    $0x190,%rax
    166a:	75 94                	jne    1600 <main+0x4a0>
    166c:	66 48 0f 7e f0       	movq   %xmm6,%rax
    1671:	f3 0f 11 95 88 fd ff 	movss  %xmm2,-0x278(%rbp)
    1678:	ff 
    1679:	f3 44 0f 11 85 90 fd 	movss  %xmm8,-0x270(%rbp)
    1680:	ff ff 
    1682:	f3 44 0f 11 8d 98 fd 	movss  %xmm9,-0x268(%rbp)
    1689:	ff ff 
    168b:	f2 0f 11 bd a0 fd ff 	movsd  %xmm7,-0x260(%rbp)
    1692:	ff 
    1693:	3d 00 00 c0 7f       	cmp    $0x7fc00000,%eax
    1698:	0f 84 e6 fc ff ff    	je     1384 <main+0x224>
    169e:	66 0f 28 c6          	movapd %xmm6,%xmm0
    16a2:	f2 0f 11 b5 80 fd ff 	movsd  %xmm6,-0x280(%rbp)
    16a9:	ff 
    16aa:	f3 0f 5e 25 72 0a 00 	divss  0xa72(%rip),%xmm4        # 2124 <_IO_stdin_used+0x124>
    16b1:	00 
    16b2:	f2 0f 5e 05 c6 0a 00 	divsd  0xac6(%rip),%xmm0        # 2180 <_IO_stdin_used+0x180>
    16b9:	00 
    16ba:	66 41 0f 7e e5       	movd   %xmm4,%r13d
    16bf:	e8 7c fa ff ff       	call   1140 <sqrt@plt>
    16c4:	66 0f ef f6          	pxor   %xmm6,%xmm6
    16c8:	f3 44 0f 10 8d 98 fd 	movss  -0x268(%rbp),%xmm9
    16cf:	ff ff 
    16d1:	f3 44 0f 10 85 90 fd 	movss  -0x270(%rbp),%xmm8
    16d8:	ff ff 
    16da:	f2 0f 5a f0          	cvtsd2ss %xmm0,%xmm6
    16de:	66 41 0f 7e f4       	movd   %xmm6,%r12d
    16e3:	66 0f ef ff          	pxor   %xmm7,%xmm7
    16e7:	f3 0f 10 9d 88 fd ff 	movss  -0x278(%rbp),%xmm3
    16ee:	ff 
    16ef:	41 0f 28 c1          	movaps %xmm9,%xmm0
    16f3:	f3 41 0f 5c c0       	subss  %xmm8,%xmm0
    16f8:	f3 0f 5e f0          	divss  %xmm0,%xmm6
    16fc:	66 0f 7e f3          	movd   %xmm6,%ebx
    1700:	f2 0f 10 b5 80 fd ff 	movsd  -0x280(%rbp),%xmm6
    1707:	ff 
    1708:	66 0f 2e f7          	ucomisd %xmm7,%xmm6
    170c:	f2 0f 10 bd a0 fd ff 	movsd  -0x260(%rbp),%xmm7
    1713:	ff 
    1714:	0f 8a 95 00 00 00    	jp     17af <main+0x64f>
    171a:	44 8b 35 ff 09 00 00 	mov    0x9ff(%rip),%r14d        # 2120 <_IO_stdin_used+0x120>
    1721:	0f 85 88 00 00 00    	jne    17af <main+0x64f>
    1727:	48 8d 3d da 09 00 00 	lea    0x9da(%rip),%rdi        # 2108 <_IO_stdin_used+0x108>
    172e:	f3 0f 11 9d a0 fd ff 	movss  %xmm3,-0x260(%rbp)
    1735:	ff 
    1736:	e8 95 f9 ff ff       	call   10d0 <puts@plt>
    173b:	66 41 0f 6e fd       	movd   %r13d,%xmm7
    1740:	66 41 0f 6e f6       	movd   %r14d,%xmm6
    1745:	f3 0f 10 9d a0 fd ff 	movss  -0x260(%rbp),%xmm3
    174c:	ff 
    174d:	66 0f ef c0          	pxor   %xmm0,%xmm0
    1751:	66 0f ef e4          	pxor   %xmm4,%xmm4
    1755:	66 0f ef d2          	pxor   %xmm2,%xmm2
    1759:	bf 01 00 00 00       	mov    $0x1,%edi
    175e:	f3 0f 5a c7          	cvtss2sd %xmm7,%xmm0
    1762:	f3 0f 5a e6          	cvtss2sd %xmm6,%xmm4
    1766:	66 0f 6e fb          	movd   %ebx,%xmm7
    176a:	66 41 0f 6e f4       	movd   %r12d,%xmm6
    176f:	66 0f ef c9          	pxor   %xmm1,%xmm1
    1773:	48 8d 35 d6 08 00 00 	lea    0x8d6(%rip),%rsi        # 2050 <_IO_stdin_used+0x50>
    177a:	f3 0f 5a d7          	cvtss2sd %xmm7,%xmm2
    177e:	f3 0f 5a db          	cvtss2sd %xmm3,%xmm3
    1782:	b8 05 00 00 00       	mov    $0x5,%eax
    1787:	f3 0f 5a ce          	cvtss2sd %xmm6,%xmm1
    178b:	e8 90 f9 ff ff       	call   1120 <__printf_chk@plt>
    1790:	66 0f 6e fb          	movd   %ebx,%xmm7
    1794:	66 0f ef ed          	pxor   %xmm5,%xmm5
    1798:	31 c0                	xor    %eax,%eax
    179a:	0f 2e fd             	ucomiss %xmm5,%xmm7
    179d:	ba 01 00 00 00       	mov    $0x1,%edx
    17a2:	0f 9a c0             	setp   %al
    17a5:	0f 45 c2             	cmovne %edx,%eax
    17a8:	f7 d8                	neg    %eax
    17aa:	e9 da fb ff ff       	jmp    1389 <main+0x229>
    17af:	f2 0f 5e fe          	divsd  %xmm6,%xmm7
    17b3:	66 0f ef c0          	pxor   %xmm0,%xmm0
    17b7:	f3 0f 11 9d a0 fd ff 	movss  %xmm3,-0x260(%rbp)
    17be:	ff 
    17bf:	f2 0f 5a c7          	cvtsd2ss %xmm7,%xmm0
    17c3:	e8 48 f9 ff ff       	call   1110 <log10f@plt>
    17c8:	f3 0f 59 05 58 09 00 	mulss  0x958(%rip),%xmm0        # 2128 <_IO_stdin_used+0x128>
    17cf:	00 
    17d0:	f3 0f 10 9d a0 fd ff 	movss  -0x260(%rbp),%xmm3
    17d7:	ff 
    17d8:	66 41 0f 7e c6       	movd   %xmm0,%r14d
    17dd:	e9 45 ff ff ff       	jmp    1727 <main+0x5c7>
    17e2:	e8 19 f9 ff ff       	call   1100 <__stack_chk_fail@plt>
    17e7:	66 0f 1f 84 00 00 00 	nopw   0x0(%rax,%rax,1)
    17ee:	00 00 

00000000000017f0 <_start>:
    17f0:	f3 0f 1e fa          	endbr64 
    17f4:	31 ed                	xor    %ebp,%ebp
    17f6:	49 89 d1             	mov    %rdx,%r9
    17f9:	5e                   	pop    %rsi
    17fa:	48 89 e2             	mov    %rsp,%rdx
    17fd:	48 83 e4 f0          	and    $0xfffffffffffffff0,%rsp
    1801:	50                   	push   %rax
    1802:	54                   	push   %rsp
    1803:	45 31 c0             	xor    %r8d,%r8d
    1806:	31 c9                	xor    %ecx,%ecx
    1808:	48 8d 3d 51 f9 ff ff 	lea    -0x6af(%rip),%rdi        # 1160 <main>
    180f:	ff 15 c3 27 00 00    	call   *0x27c3(%rip)        # 3fd8 <__libc_start_main@GLIBC_2.34>
    1815:	f4                   	hlt    
    1816:	66 2e 0f 1f 84 00 00 	cs nopw 0x0(%rax,%rax,1)
    181d:	00 00 00 

0000000000001820 <deregister_tm_clones>:
    1820:	48 8d 3d e9 27 00 00 	lea    0x27e9(%rip),%rdi        # 4010 <__TMC_END__>
    1827:	48 8d 05 e2 27 00 00 	lea    0x27e2(%rip),%rax        # 4010 <__TMC_END__>
    182e:	48 39 f8             	cmp    %rdi,%rax
    1831:	74 15                	je     1848 <deregister_tm_clones+0x28>
    1833:	48 8b 05 a6 27 00 00 	mov    0x27a6(%rip),%rax        # 3fe0 <_ITM_deregisterTMCloneTable@Base>
    183a:	48 85 c0             	test   %rax,%rax
    183d:	74 09                	je     1848 <deregister_tm_clones+0x28>
    183f:	ff e0                	jmp    *%rax
    1841:	0f 1f 80 00 00 00 00 	nopl   0x0(%rax)
    1848:	c3                   	ret    
    1849:	0f 1f 80 00 00 00 00 	nopl   0x0(%rax)

0000000000001850 <register_tm_clones>:
    1850:	48 8d 3d b9 27 00 00 	lea    0x27b9(%rip),%rdi        # 4010 <__TMC_END__>
    1857:	48 8d 35 b2 27 00 00 	lea    0x27b2(%rip),%rsi        # 4010 <__TMC_END__>
    185e:	48 29 fe             	sub    %rdi,%rsi
    1861:	48 89 f0             	mov    %rsi,%rax
    1864:	48 c1 ee 3f          	shr    $0x3f,%rsi
    1868:	48 c1 f8 03          	sar    $0x3,%rax
    186c:	48 01 c6             	add    %rax,%rsi
    186f:	48 d1 fe             	sar    %rsi
    1872:	74 14                	je     1888 <register_tm_clones+0x38>
    1874:	48 8b 05 75 27 00 00 	mov    0x2775(%rip),%rax        # 3ff0 <_ITM_registerTMCloneTable@Base>
    187b:	48 85 c0             	test   %rax,%rax
    187e:	74 08                	je     1888 <register_tm_clones+0x38>
    1880:	ff e0                	jmp    *%rax
    1882:	66 0f 1f 44 00 00    	nopw   0x0(%rax,%rax,1)
    1888:	c3                   	ret    
    1889:	0f 1f 80 00 00 00 00 	nopl   0x0(%rax)

0000000000001890 <__do_global_dtors_aux>:
    1890:	f3 0f 1e fa          	endbr64 
    1894:	80 3d 75 27 00 00 00 	cmpb   $0x0,0x2775(%rip)        # 4010 <__TMC_END__>
    189b:	75 2b                	jne    18c8 <__do_global_dtors_aux+0x38>
    189d:	55                   	push   %rbp
    189e:	48 83 3d 52 27 00 00 	cmpq   $0x0,0x2752(%rip)        # 3ff8 <__cxa_finalize@GLIBC_2.2.5>
    18a5:	00 
    18a6:	48 89 e5             	mov    %rsp,%rbp
    18a9:	74 0c                	je     18b7 <__do_global_dtors_aux+0x27>
    18ab:	48 8b 3d 56 27 00 00 	mov    0x2756(%rip),%rdi        # 4008 <__dso_handle>
    18b2:	e8 09 f8 ff ff       	call   10c0 <__cxa_finalize@plt>
    18b7:	e8 64 ff ff ff       	call   1820 <deregister_tm_clones>
    18bc:	c6 05 4d 27 00 00 01 	movb   $0x1,0x274d(%rip)        # 4010 <__TMC_END__>
    18c3:	5d                   	pop    %rbp
    18c4:	c3                   	ret    
    18c5:	0f 1f 00             	nopl   (%rax)
    18c8:	c3                   	ret    
    18c9:	0f 1f 80 00 00 00 00 	nopl   0x0(%rax)

00000000000018d0 <frame_dummy>:
    18d0:	f3 0f 1e fa          	endbr64 
    18d4:	e9 77 ff ff ff       	jmp    1850 <register_tm_clones>
    18d9:	0f 1f 80 00 00 00 00 	nopl   0x0(%rax)

00000000000018e0 <riscv_dsp_max_u32>:
    18e0:	f3 0f 1e fa          	endbr64 
    18e4:	45 31 c0             	xor    %r8d,%r8d
    18e7:	85 f6                	test   %esi,%esi
    18e9:	74 2d                	je     1918 <riscv_dsp_max_u32+0x38>
    18eb:	83 ee 01             	sub    $0x1,%esi
    18ee:	44 8b 07             	mov    (%rdi),%r8d
    18f1:	48 8d 4f 04          	lea    0x4(%rdi),%rcx
    18f5:	41 89 f1             	mov    %esi,%r9d
    18f8:	74 26                	je     1920 <riscv_dsp_max_u32+0x40>
    18fa:	31 c0                	xor    %eax,%eax
    18fc:	31 f6                	xor    %esi,%esi
    18fe:	66 90                	xchg   %ax,%ax
    1900:	8b 39                	mov    (%rcx),%edi
    1902:	48 83 c1 04          	add    $0x4,%rcx
    1906:	83 c0 01             	add    $0x1,%eax
    1909:	44 39 c7             	cmp    %r8d,%edi
    190c:	76 05                	jbe    1913 <riscv_dsp_max_u32+0x33>
    190e:	89 c6                	mov    %eax,%esi
    1910:	41 89 f8             	mov    %edi,%r8d
    1913:	44 39 c8             	cmp    %r9d,%eax
    1916:	75 e8                	jne    1900 <riscv_dsp_max_u32+0x20>
    1918:	89 32                	mov    %esi,(%rdx)
    191a:	44 89 c0             	mov    %r8d,%eax
    191d:	c3                   	ret    
    191e:	66 90                	xchg   %ax,%ax
    1920:	31 f6                	xor    %esi,%esi
    1922:	eb f4                	jmp    1918 <riscv_dsp_max_u32+0x38>

Disassembly of section .fini:

0000000000001924 <_fini>:
    1924:	f3 0f 1e fa          	endbr64 
    1928:	48 83 ec 08          	sub    $0x8,%rsp
    192c:	48 83 c4 08          	add    $0x8,%rsp
    1930:	c3                   	ret    
