
t_mat_inverse_f32:     file format elf64-x86-64


Disassembly of section .init:

0000000000004000 <_init>:
    4000:	f3 0f 1e fa          	endbr64 
    4004:	48 83 ec 08          	sub    $0x8,%rsp
    4008:	48 8b 05 d9 3f 00 00 	mov    0x3fd9(%rip),%rax        # 7fe8 <__gmon_start__@Base>
    400f:	48 85 c0             	test   %rax,%rax
    4012:	74 02                	je     4016 <_init+0x16>
    4014:	ff d0                	call   *%rax
    4016:	48 83 c4 08          	add    $0x8,%rsp
    401a:	c3                   	ret    

Disassembly of section .plt:

0000000000004020 <.plt>:
    4020:	ff 35 6a 3f 00 00    	push   0x3f6a(%rip)        # 7f90 <_GLOBAL_OFFSET_TABLE_+0x8>
    4026:	f2 ff 25 6b 3f 00 00 	bnd jmp *0x3f6b(%rip)        # 7f98 <_GLOBAL_OFFSET_TABLE_+0x10>
    402d:	0f 1f 00             	nopl   (%rax)
    4030:	f3 0f 1e fa          	endbr64 
    4034:	68 00 00 00 00       	push   $0x0
    4039:	f2 e9 e1 ff ff ff    	bnd jmp 4020 <_init+0x20>
    403f:	90                   	nop
    4040:	f3 0f 1e fa          	endbr64 
    4044:	68 01 00 00 00       	push   $0x1
    4049:	f2 e9 d1 ff ff ff    	bnd jmp 4020 <_init+0x20>
    404f:	90                   	nop
    4050:	f3 0f 1e fa          	endbr64 
    4054:	68 02 00 00 00       	push   $0x2
    4059:	f2 e9 c1 ff ff ff    	bnd jmp 4020 <_init+0x20>
    405f:	90                   	nop
    4060:	f3 0f 1e fa          	endbr64 
    4064:	68 03 00 00 00       	push   $0x3
    4069:	f2 e9 b1 ff ff ff    	bnd jmp 4020 <_init+0x20>
    406f:	90                   	nop
    4070:	f3 0f 1e fa          	endbr64 
    4074:	68 04 00 00 00       	push   $0x4
    4079:	f2 e9 a1 ff ff ff    	bnd jmp 4020 <_init+0x20>
    407f:	90                   	nop
    4080:	f3 0f 1e fa          	endbr64 
    4084:	68 05 00 00 00       	push   $0x5
    4089:	f2 e9 91 ff ff ff    	bnd jmp 4020 <_init+0x20>
    408f:	90                   	nop
    4090:	f3 0f 1e fa          	endbr64 
    4094:	68 06 00 00 00       	push   $0x6
    4099:	f2 e9 81 ff ff ff    	bnd jmp 4020 <_init+0x20>
    409f:	90                   	nop

Disassembly of section .plt.got:

00000000000040a0 <__cxa_finalize@plt>:
    40a0:	f3 0f 1e fa          	endbr64 
    40a4:	f2 ff 25 4d 3f 00 00 	bnd jmp *0x3f4d(%rip)        # 7ff8 <__cxa_finalize@GLIBC_2.2.5>
    40ab:	0f 1f 44 00 00       	nopl   0x0(%rax,%rax,1)

Disassembly of section .plt.sec:

00000000000040b0 <puts@plt>:
    40b0:	f3 0f 1e fa          	endbr64 
    40b4:	f2 ff 25 e5 3e 00 00 	bnd jmp *0x3ee5(%rip)        # 7fa0 <puts@GLIBC_2.2.5>
    40bb:	0f 1f 44 00 00       	nopl   0x0(%rax,%rax,1)

00000000000040c0 <__stack_chk_fail@plt>:
    40c0:	f3 0f 1e fa          	endbr64 
    40c4:	f2 ff 25 dd 3e 00 00 	bnd jmp *0x3edd(%rip)        # 7fa8 <__stack_chk_fail@GLIBC_2.4>
    40cb:	0f 1f 44 00 00       	nopl   0x0(%rax,%rax,1)

00000000000040d0 <memset@plt>:
    40d0:	f3 0f 1e fa          	endbr64 
    40d4:	f2 ff 25 d5 3e 00 00 	bnd jmp *0x3ed5(%rip)        # 7fb0 <memset@GLIBC_2.2.5>
    40db:	0f 1f 44 00 00       	nopl   0x0(%rax,%rax,1)

00000000000040e0 <log10f@plt>:
    40e0:	f3 0f 1e fa          	endbr64 
    40e4:	f2 ff 25 cd 3e 00 00 	bnd jmp *0x3ecd(%rip)        # 7fb8 <log10f@GLIBC_2.2.5>
    40eb:	0f 1f 44 00 00       	nopl   0x0(%rax,%rax,1)

00000000000040f0 <memcpy@plt>:
    40f0:	f3 0f 1e fa          	endbr64 
    40f4:	f2 ff 25 c5 3e 00 00 	bnd jmp *0x3ec5(%rip)        # 7fc0 <memcpy@GLIBC_2.14>
    40fb:	0f 1f 44 00 00       	nopl   0x0(%rax,%rax,1)

0000000000004100 <sqrtf@plt>:
    4100:	f3 0f 1e fa          	endbr64 
    4104:	f2 ff 25 bd 3e 00 00 	bnd jmp *0x3ebd(%rip)        # 7fc8 <sqrtf@GLIBC_2.2.5>
    410b:	0f 1f 44 00 00       	nopl   0x0(%rax,%rax,1)

0000000000004110 <__printf_chk@plt>:
    4110:	f3 0f 1e fa          	endbr64 
    4114:	f2 ff 25 b5 3e 00 00 	bnd jmp *0x3eb5(%rip)        # 7fd0 <__printf_chk@GLIBC_2.3.4>
    411b:	0f 1f 44 00 00       	nopl   0x0(%rax,%rax,1)

Disassembly of section .text:

0000000000004120 <main>:
    4120:	f3 0f 1e fa          	endbr64 
    4124:	55                   	push   %rbp
    4125:	66 0f ef c0          	pxor   %xmm0,%xmm0
    4129:	48 89 e5             	mov    %rsp,%rbp
    412c:	41 57                	push   %r15
    412e:	41 56                	push   %r14
    4130:	41 55                	push   %r13
    4132:	41 54                	push   %r12
    4134:	53                   	push   %rbx
    4135:	48 8d 1d c4 e6 00 00 	lea    0xe6c4(%rip),%rbx        # 12800 <matArray>
    413c:	4c 8d bb 30 02 00 00 	lea    0x230(%rbx),%r15
    4143:	48 83 ec 78          	sub    $0x78,%rsp
    4147:	64 48 8b 04 25 28 00 	mov    %fs:0x28,%rax
    414e:	00 00 
    4150:	48 89 45 c8          	mov    %rax,-0x38(%rbp)
    4154:	31 c0                	xor    %eax,%eax
    4156:	c7 45 a0 00 00 00 00 	movl   $0x0,-0x60(%rbp)
    415d:	0f 29 45 90          	movaps %xmm0,-0x70(%rbp)
    4161:	0f 1f 80 00 00 00 00 	nopl   0x0(%rax)
    4168:	44 8b 43 08          	mov    0x8(%rbx),%r8d
    416c:	48 89 e1             	mov    %rsp,%rcx
    416f:	49 89 e6             	mov    %rsp,%r14
    4172:	44 89 c0             	mov    %r8d,%eax
    4175:	41 0f af c0          	imul   %r8d,%eax
    4179:	48 98                	cltq   
    417b:	48 8d 04 85 0f 00 00 	lea    0xf(,%rax,4),%rax
    4182:	00 
    4183:	48 89 c6             	mov    %rax,%rsi
    4186:	48 89 c2             	mov    %rax,%rdx
    4189:	48 81 e6 00 f0 ff ff 	and    $0xfffffffffffff000,%rsi
    4190:	48 83 e2 f0          	and    $0xfffffffffffffff0,%rdx
    4194:	48 29 f1             	sub    %rsi,%rcx
    4197:	48 39 cc             	cmp    %rcx,%rsp
    419a:	74 15                	je     41b1 <main+0x91>
    419c:	48 81 ec 00 10 00 00 	sub    $0x1000,%rsp
    41a3:	48 83 8c 24 f8 0f 00 	orq    $0x0,0xff8(%rsp)
    41aa:	00 00 
    41ac:	48 39 cc             	cmp    %rcx,%rsp
    41af:	75 eb                	jne    419c <main+0x7c>
    41b1:	81 e2 ff 0f 00 00    	and    $0xfff,%edx
    41b7:	48 29 d4             	sub    %rdx,%rsp
    41ba:	48 85 d2             	test   %rdx,%rdx
    41bd:	74 06                	je     41c5 <main+0xa5>
    41bf:	48 83 4c 14 f8 00    	orq    $0x0,-0x8(%rsp,%rdx,1)
    41c5:	48 89 c2             	mov    %rax,%rdx
    41c8:	48 89 e1             	mov    %rsp,%rcx
    41cb:	48 25 00 f0 ff ff    	and    $0xfffffffffffff000,%rax
    41d1:	48 89 65 88          	mov    %rsp,-0x78(%rbp)
    41d5:	48 29 c1             	sub    %rax,%rcx
    41d8:	48 83 e2 f0          	and    $0xfffffffffffffff0,%rdx
    41dc:	48 39 cc             	cmp    %rcx,%rsp
    41df:	74 15                	je     41f6 <main+0xd6>
    41e1:	48 81 ec 00 10 00 00 	sub    $0x1000,%rsp
    41e8:	48 83 8c 24 f8 0f 00 	orq    $0x0,0xff8(%rsp)
    41ef:	00 00 
    41f1:	48 39 cc             	cmp    %rcx,%rsp
    41f4:	75 eb                	jne    41e1 <main+0xc1>
    41f6:	81 e2 ff 0f 00 00    	and    $0xfff,%edx
    41fc:	48 29 d4             	sub    %rdx,%rsp
    41ff:	48 85 d2             	test   %rdx,%rdx
    4202:	74 06                	je     420a <main+0xea>
    4204:	48 83 4c 14 f8 00    	orq    $0x0,-0x8(%rsp,%rdx,1)
    420a:	49 63 d0             	movslq %r8d,%rdx
    420d:	4c 8b 23             	mov    (%rbx),%r12
    4210:	48 8b 7d 88          	mov    -0x78(%rbp),%rdi
    4214:	66 0f ef c9          	pxor   %xmm1,%xmm1
    4218:	48 0f af d2          	imul   %rdx,%rdx
    421c:	49 89 e5             	mov    %rsp,%r13
    421f:	44 89 45 80          	mov    %r8d,-0x80(%rbp)
    4223:	4c 89 e6             	mov    %r12,%rsi
    4226:	0f 29 4d b0          	movaps %xmm1,-0x50(%rbp)
    422a:	4c 89 ad 78 ff ff ff 	mov    %r13,-0x88(%rbp)
    4231:	48 c1 e2 02          	shl    $0x2,%rdx
    4235:	c7 45 c0 00 00 00 00 	movl   $0x0,-0x40(%rbp)
    423c:	e8 af fe ff ff       	call   40f0 <memcpy@plt>
    4241:	8b 55 80             	mov    -0x80(%rbp),%edx
    4244:	4c 89 ee             	mov    %r13,%rsi
    4247:	4c 89 e7             	mov    %r12,%rdi
    424a:	e8 21 0b 00 00       	call   4d70 <riscv_dsp_mat_inv_f32>
    424f:	3b 43 0c             	cmp    0xc(%rbx),%eax
    4252:	44 8b 45 80          	mov    -0x80(%rbp),%r8d
    4256:	66 0f ef c0          	pxor   %xmm0,%xmm0
    425a:	0f 85 47 02 00 00    	jne    44a7 <main+0x387>
    4260:	85 c0                	test   %eax,%eax
    4262:	0f 84 d0 00 00 00    	je     4338 <main+0x218>
    4268:	0f 28 c8             	movaps %xmm0,%xmm1
    426b:	0f 28 d0             	movaps %xmm0,%xmm2
    426e:	0f 28 d8             	movaps %xmm0,%xmm3
    4271:	0f 28 e0             	movaps %xmm0,%xmm4
    4274:	0f 28 e8             	movaps %xmm0,%xmm5
    4277:	0f 2f 6d 90          	comiss -0x70(%rbp),%xmm5
    427b:	76 05                	jbe    4282 <main+0x162>
    427d:	f3 0f 11 6d 90       	movss  %xmm5,-0x70(%rbp)
    4282:	0f 2f 65 94          	comiss -0x6c(%rbp),%xmm4
    4286:	76 05                	jbe    428d <main+0x16d>
    4288:	f3 0f 11 65 94       	movss  %xmm4,-0x6c(%rbp)
    428d:	0f 2f 5d 98          	comiss -0x68(%rbp),%xmm3
    4291:	76 05                	jbe    4298 <main+0x178>
    4293:	f3 0f 11 5d 98       	movss  %xmm3,-0x68(%rbp)
    4298:	0f 2f 55 9c          	comiss -0x64(%rbp),%xmm2
    429c:	76 05                	jbe    42a3 <main+0x183>
    429e:	f3 0f 11 55 9c       	movss  %xmm2,-0x64(%rbp)
    42a3:	0f 2f 4d a0          	comiss -0x60(%rbp),%xmm1
    42a7:	76 77                	jbe    4320 <main+0x200>
    42a9:	48 83 c3 10          	add    $0x10,%rbx
    42ad:	f3 0f 11 4d a0       	movss  %xmm1,-0x60(%rbp)
    42b2:	4c 89 f4             	mov    %r14,%rsp
    42b5:	4c 39 fb             	cmp    %r15,%rbx
    42b8:	0f 85 aa fe ff ff    	jne    4168 <main+0x48>
    42be:	48 8d 1d 3b c5 00 00 	lea    0xc53b(%rip),%rbx        # 10800 <matArray2>
    42c5:	4c 8d 6d 90          	lea    -0x70(%rbp),%r13
    42c9:	4c 8d b3 00 20 00 00 	lea    0x2000(%rbx),%r14
    42d0:	eb 13                	jmp    42e5 <main+0x1c5>
    42d2:	66 0f 1f 44 00 00    	nopw   0x0(%rax,%rax,1)
    42d8:	48 83 c3 10          	add    $0x10,%rbx
    42dc:	49 39 de             	cmp    %rbx,%r14
    42df:	0f 84 d9 01 00 00    	je     44be <main+0x39e>
    42e5:	4c 89 ee             	mov    %r13,%rsi
    42e8:	48 89 df             	mov    %rbx,%rdi
    42eb:	e8 50 07 00 00       	call   4a40 <DoMatInv>
    42f0:	41 89 c4             	mov    %eax,%r12d
    42f3:	85 c0                	test   %eax,%eax
    42f5:	74 e1                	je     42d8 <main+0x1b8>
    42f7:	41 83 cc ff          	or     $0xffffffff,%r12d
    42fb:	48 8b 45 c8          	mov    -0x38(%rbp),%rax
    42ff:	64 48 2b 04 25 28 00 	sub    %fs:0x28,%rax
    4306:	00 00 
    4308:	0f 85 f8 01 00 00    	jne    4506 <main+0x3e6>
    430e:	48 8d 65 d8          	lea    -0x28(%rbp),%rsp
    4312:	44 89 e0             	mov    %r12d,%eax
    4315:	5b                   	pop    %rbx
    4316:	41 5c                	pop    %r12
    4318:	41 5d                	pop    %r13
    431a:	41 5e                	pop    %r14
    431c:	41 5f                	pop    %r15
    431e:	5d                   	pop    %rbp
    431f:	c3                   	ret    
    4320:	48 83 c3 10          	add    $0x10,%rbx
    4324:	4c 89 f4             	mov    %r14,%rsp
    4327:	4c 39 fb             	cmp    %r15,%rbx
    432a:	0f 85 38 fe ff ff    	jne    4168 <main+0x48>
    4330:	eb 8c                	jmp    42be <main+0x19e>
    4332:	66 0f 1f 44 00 00    	nopw   0x0(%rax,%rax,1)
    4338:	45 89 c2             	mov    %r8d,%r10d
    433b:	48 89 e6             	mov    %rsp,%rsi
    433e:	48 89 e0             	mov    %rsp,%rax
    4341:	45 0f af d0          	imul   %r8d,%r10d
    4345:	45 89 d4             	mov    %r10d,%r12d
    4348:	4a 8d 0c a5 0f 00 00 	lea    0xf(,%r12,4),%rcx
    434f:	00 
    4350:	48 89 ca             	mov    %rcx,%rdx
    4353:	48 c1 ea 04          	shr    $0x4,%rdx
    4357:	48 c1 e2 04          	shl    $0x4,%rdx
    435b:	48 89 d7             	mov    %rdx,%rdi
    435e:	48 81 e7 00 f0 ff ff 	and    $0xfffffffffffff000,%rdi
    4365:	48 29 fe             	sub    %rdi,%rsi
    4368:	48 39 f4             	cmp    %rsi,%rsp
    436b:	74 15                	je     4382 <main+0x262>
    436d:	48 81 ec 00 10 00 00 	sub    $0x1000,%rsp
    4374:	48 83 8c 24 f8 0f 00 	orq    $0x0,0xff8(%rsp)
    437b:	00 00 
    437d:	48 39 f4             	cmp    %rsi,%rsp
    4380:	75 eb                	jne    436d <main+0x24d>
    4382:	81 e2 ff 0f 00 00    	and    $0xfff,%edx
    4388:	48 29 d4             	sub    %rdx,%rsp
    438b:	48 85 d2             	test   %rdx,%rdx
    438e:	74 06                	je     4396 <main+0x276>
    4390:	48 83 4c 14 f8 00    	orq    $0x0,-0x8(%rsp,%rdx,1)
    4396:	48 c1 e9 04          	shr    $0x4,%rcx
    439a:	48 89 e2             	mov    %rsp,%rdx
    439d:	49 89 e3             	mov    %rsp,%r11
    43a0:	48 c1 e1 04          	shl    $0x4,%rcx
    43a4:	48 89 ce             	mov    %rcx,%rsi
    43a7:	48 81 e6 00 f0 ff ff 	and    $0xfffffffffffff000,%rsi
    43ae:	48 29 f2             	sub    %rsi,%rdx
    43b1:	48 39 d4             	cmp    %rdx,%rsp
    43b4:	74 15                	je     43cb <main+0x2ab>
    43b6:	48 81 ec 00 10 00 00 	sub    $0x1000,%rsp
    43bd:	48 83 8c 24 f8 0f 00 	orq    $0x0,0xff8(%rsp)
    43c4:	00 00 
    43c6:	48 39 d4             	cmp    %rdx,%rsp
    43c9:	75 eb                	jne    43b6 <main+0x296>
    43cb:	81 e1 ff 0f 00 00    	and    $0xfff,%ecx
    43d1:	48 29 cc             	sub    %rcx,%rsp
    43d4:	48 85 c9             	test   %rcx,%rcx
    43d7:	0f 85 d6 00 00 00    	jne    44b3 <main+0x393>
    43dd:	48 8b 75 88          	mov    -0x78(%rbp),%rsi
    43e1:	44 89 c1             	mov    %r8d,%ecx
    43e4:	4c 89 da             	mov    %r11,%rdx
    43e7:	45 89 c1             	mov    %r8d,%r9d
    43ea:	48 8b bd 78 ff ff ff 	mov    -0x88(%rbp),%rdi
    43f1:	4c 89 5d 80          	mov    %r11,-0x80(%rbp)
    43f5:	49 89 e5             	mov    %rsp,%r13
    43f8:	44 89 95 70 ff ff ff 	mov    %r10d,-0x90(%rbp)
    43ff:	48 89 85 68 ff ff ff 	mov    %rax,-0x98(%rbp)
    4406:	44 89 85 74 ff ff ff 	mov    %r8d,-0x8c(%rbp)
    440d:	e8 2e 12 00 00       	call   5640 <riscv_dsp_mat_mul_f32>
    4412:	44 8b 85 74 ff ff ff 	mov    -0x8c(%rbp),%r8d
    4419:	31 d2                	xor    %edx,%edx
    441b:	31 c9                	xor    %ecx,%ecx
    441d:	44 8b 95 70 ff ff ff 	mov    -0x90(%rbp),%r10d
    4424:	4c 8b 5d 80          	mov    -0x80(%rbp),%r11
    4428:	41 83 c0 01          	add    $0x1,%r8d
    442c:	48 8b 85 68 ff ff ff 	mov    -0x98(%rbp),%rax
    4433:	45 85 d2             	test   %r10d,%r10d
    4436:	74 1e                	je     4456 <main+0x336>
    4438:	0f 1f 84 00 00 00 00 	nopl   0x0(%rax,%rax,1)
    443f:	00 
    4440:	39 d1                	cmp    %edx,%ecx
    4442:	74 4c                	je     4490 <main+0x370>
    4444:	41 c7 44 95 00 00 00 	movl   $0x0,0x0(%r13,%rdx,4)
    444b:	00 00 
    444d:	48 83 c2 01          	add    $0x1,%rdx
    4451:	49 39 d4             	cmp    %rdx,%r12
    4454:	75 ea                	jne    4440 <main+0x320>
    4456:	48 8d 4d b0          	lea    -0x50(%rbp),%rcx
    445a:	44 89 d2             	mov    %r10d,%edx
    445d:	4c 89 de             	mov    %r11,%rsi
    4460:	4c 89 ef             	mov    %r13,%rdi
    4463:	48 89 45 88          	mov    %rax,-0x78(%rbp)
    4467:	e8 94 01 00 00       	call   4600 <mat_rmsd>
    446c:	48 8b 65 88          	mov    -0x78(%rbp),%rsp
    4470:	f3 0f 10 6d b0       	movss  -0x50(%rbp),%xmm5
    4475:	f3 0f 10 65 b4       	movss  -0x4c(%rbp),%xmm4
    447a:	f3 0f 10 5d b8       	movss  -0x48(%rbp),%xmm3
    447f:	f3 0f 10 55 bc       	movss  -0x44(%rbp),%xmm2
    4484:	f3 0f 10 4d c0       	movss  -0x40(%rbp),%xmm1
    4489:	e9 e9 fd ff ff       	jmp    4277 <main+0x157>
    448e:	66 90                	xchg   %ax,%ax
    4490:	41 c7 44 95 00 00 00 	movl   $0x3f800000,0x0(%r13,%rdx,4)
    4497:	80 3f 
    4499:	48 83 c2 01          	add    $0x1,%rdx
    449d:	44 01 c1             	add    %r8d,%ecx
    44a0:	4c 39 e2             	cmp    %r12,%rdx
    44a3:	75 9b                	jne    4440 <main+0x320>
    44a5:	eb af                	jmp    4456 <main+0x336>
    44a7:	41 83 cc ff          	or     $0xffffffff,%r12d
    44ab:	4c 89 f4             	mov    %r14,%rsp
    44ae:	e9 48 fe ff ff       	jmp    42fb <main+0x1db>
    44b3:	48 83 4c 0c f8 00    	orq    $0x0,-0x8(%rsp,%rcx,1)
    44b9:	e9 1f ff ff ff       	jmp    43dd <main+0x2bd>
    44be:	66 0f ef c0          	pxor   %xmm0,%xmm0
    44c2:	66 0f ef e4          	pxor   %xmm4,%xmm4
    44c6:	66 0f ef db          	pxor   %xmm3,%xmm3
    44ca:	bf 01 00 00 00       	mov    $0x1,%edi
    44cf:	66 0f ef d2          	pxor   %xmm2,%xmm2
    44d3:	66 0f ef c9          	pxor   %xmm1,%xmm1
    44d7:	b8 05 00 00 00       	mov    $0x5,%eax
    44dc:	f3 0f 5a 45 90       	cvtss2sd -0x70(%rbp),%xmm0
    44e1:	f3 0f 5a 65 a0       	cvtss2sd -0x60(%rbp),%xmm4
    44e6:	f3 0f 5a 5d 9c       	cvtss2sd -0x64(%rbp),%xmm3
    44eb:	f3 0f 5a 55 98       	cvtss2sd -0x68(%rbp),%xmm2
    44f0:	48 8d 35 29 1b 00 00 	lea    0x1b29(%rip),%rsi        # 6020 <_IO_stdin_used+0x20>
    44f7:	f3 0f 5a 4d 94       	cvtss2sd -0x6c(%rbp),%xmm1
    44fc:	e8 0f fc ff ff       	call   4110 <__printf_chk@plt>
    4501:	e9 f5 fd ff ff       	jmp    42fb <main+0x1db>
    4506:	e8 b5 fb ff ff       	call   40c0 <__stack_chk_fail@plt>
    450b:	0f 1f 44 00 00       	nopl   0x0(%rax,%rax,1)

0000000000004510 <_start>:
    4510:	f3 0f 1e fa          	endbr64 
    4514:	31 ed                	xor    %ebp,%ebp
    4516:	49 89 d1             	mov    %rdx,%r9
    4519:	5e                   	pop    %rsi
    451a:	48 89 e2             	mov    %rsp,%rdx
    451d:	48 83 e4 f0          	and    $0xfffffffffffffff0,%rsp
    4521:	50                   	push   %rax
    4522:	54                   	push   %rsp
    4523:	45 31 c0             	xor    %r8d,%r8d
    4526:	31 c9                	xor    %ecx,%ecx
    4528:	48 8d 3d f1 fb ff ff 	lea    -0x40f(%rip),%rdi        # 4120 <main>
    452f:	ff 15 a3 3a 00 00    	call   *0x3aa3(%rip)        # 7fd8 <__libc_start_main@GLIBC_2.34>
    4535:	f4                   	hlt    
    4536:	66 2e 0f 1f 84 00 00 	cs nopw 0x0(%rax,%rax,1)
    453d:	00 00 00 

0000000000004540 <deregister_tm_clones>:
    4540:	48 8d 3d e9 e4 00 00 	lea    0xe4e9(%rip),%rdi        # 12a30 <__TMC_END__>
    4547:	48 8d 05 e2 e4 00 00 	lea    0xe4e2(%rip),%rax        # 12a30 <__TMC_END__>
    454e:	48 39 f8             	cmp    %rdi,%rax
    4551:	74 15                	je     4568 <deregister_tm_clones+0x28>
    4553:	48 8b 05 86 3a 00 00 	mov    0x3a86(%rip),%rax        # 7fe0 <_ITM_deregisterTMCloneTable@Base>
    455a:	48 85 c0             	test   %rax,%rax
    455d:	74 09                	je     4568 <deregister_tm_clones+0x28>
    455f:	ff e0                	jmp    *%rax
    4561:	0f 1f 80 00 00 00 00 	nopl   0x0(%rax)
    4568:	c3                   	ret    
    4569:	0f 1f 80 00 00 00 00 	nopl   0x0(%rax)

0000000000004570 <register_tm_clones>:
    4570:	48 8d 3d b9 e4 00 00 	lea    0xe4b9(%rip),%rdi        # 12a30 <__TMC_END__>
    4577:	48 8d 35 b2 e4 00 00 	lea    0xe4b2(%rip),%rsi        # 12a30 <__TMC_END__>
    457e:	48 29 fe             	sub    %rdi,%rsi
    4581:	48 89 f0             	mov    %rsi,%rax
    4584:	48 c1 ee 3f          	shr    $0x3f,%rsi
    4588:	48 c1 f8 03          	sar    $0x3,%rax
    458c:	48 01 c6             	add    %rax,%rsi
    458f:	48 d1 fe             	sar    %rsi
    4592:	74 14                	je     45a8 <register_tm_clones+0x38>
    4594:	48 8b 05 55 3a 00 00 	mov    0x3a55(%rip),%rax        # 7ff0 <_ITM_registerTMCloneTable@Base>
    459b:	48 85 c0             	test   %rax,%rax
    459e:	74 08                	je     45a8 <register_tm_clones+0x38>
    45a0:	ff e0                	jmp    *%rax
    45a2:	66 0f 1f 44 00 00    	nopw   0x0(%rax,%rax,1)
    45a8:	c3                   	ret    
    45a9:	0f 1f 80 00 00 00 00 	nopl   0x0(%rax)

00000000000045b0 <__do_global_dtors_aux>:
    45b0:	f3 0f 1e fa          	endbr64 
    45b4:	80 3d 85 e4 00 00 00 	cmpb   $0x0,0xe485(%rip)        # 12a40 <completed.0>
    45bb:	75 2b                	jne    45e8 <__do_global_dtors_aux+0x38>
    45bd:	55                   	push   %rbp
    45be:	48 83 3d 32 3a 00 00 	cmpq   $0x0,0x3a32(%rip)        # 7ff8 <__cxa_finalize@GLIBC_2.2.5>
    45c5:	00 
    45c6:	48 89 e5             	mov    %rsp,%rbp
    45c9:	74 0c                	je     45d7 <__do_global_dtors_aux+0x27>
    45cb:	48 8b 3d 36 3a 00 00 	mov    0x3a36(%rip),%rdi        # 8008 <__dso_handle>
    45d2:	e8 c9 fa ff ff       	call   40a0 <__cxa_finalize@plt>
    45d7:	e8 64 ff ff ff       	call   4540 <deregister_tm_clones>
    45dc:	c6 05 5d e4 00 00 01 	movb   $0x1,0xe45d(%rip)        # 12a40 <completed.0>
    45e3:	5d                   	pop    %rbp
    45e4:	c3                   	ret    
    45e5:	0f 1f 00             	nopl   (%rax)
    45e8:	c3                   	ret    
    45e9:	0f 1f 80 00 00 00 00 	nopl   0x0(%rax)

00000000000045f0 <frame_dummy>:
    45f0:	f3 0f 1e fa          	endbr64 
    45f4:	e9 77 ff ff ff       	jmp    4570 <register_tm_clones>
    45f9:	0f 1f 80 00 00 00 00 	nopl   0x0(%rax)

0000000000004600 <mat_rmsd>:
    4600:	f3 0f 1e fa          	endbr64 
    4604:	53                   	push   %rbx
    4605:	48 89 cb             	mov    %rcx,%rbx
    4608:	48 83 ec 30          	sub    $0x30,%rsp
    460c:	85 d2                	test   %edx,%edx
    460e:	0f 84 ec 01 00 00    	je     4800 <mat_rmsd+0x200>
    4614:	66 45 0f ef db       	pxor   %xmm11,%xmm11
    4619:	66 45 0f ef c0       	pxor   %xmm8,%xmm8
    461e:	89 d2                	mov    %edx,%edx
    4620:	31 c0                	xor    %eax,%eax
    4622:	41 0f 28 fb          	movaps %xmm11,%xmm7
    4626:	45 0f 28 cb          	movaps %xmm11,%xmm9
    462a:	66 41 0f 28 f0       	movapd %xmm8,%xmm6
    462f:	41 0f 28 db          	movaps %xmm11,%xmm3
    4633:	41 0f 28 c3          	movaps %xmm11,%xmm0
    4637:	66 41 0f 28 e8       	movapd %xmm8,%xmm5
    463c:	f3 44 0f 10 15 3b 1a 	movss  0x1a3b(%rip),%xmm10        # 6080 <_IO_stdin_used+0x80>
    4643:	00 00 
    4645:	0f 1f 00             	nopl   (%rax)
    4648:	f3 0f 10 0c 87       	movss  (%rdi,%rax,4),%xmm1
    464d:	f3 0f 10 14 86       	movss  (%rsi,%rax,4),%xmm2
    4652:	48 83 c0 01          	add    $0x1,%rax
    4656:	0f 28 e1             	movaps %xmm1,%xmm4
    4659:	f3 0f 5c d1          	subss  %xmm1,%xmm2
    465d:	f3 41 0f 5f e1       	maxss  %xmm9,%xmm4
    4662:	44 0f 28 cc          	movaps %xmm4,%xmm9
    4666:	0f 28 e1             	movaps %xmm1,%xmm4
    4669:	f3 0f 5d e7          	minss  %xmm7,%xmm4
    466d:	f3 0f 59 c9          	mulss  %xmm1,%xmm1
    4671:	0f 28 fc             	movaps %xmm4,%xmm7
    4674:	0f 28 e2             	movaps %xmm2,%xmm4
    4677:	f3 0f 59 d2          	mulss  %xmm2,%xmm2
    467b:	41 0f 54 e2          	andps  %xmm10,%xmm4
    467f:	f3 0f 58 c4          	addss  %xmm4,%xmm0
    4683:	f3 0f 5f e3          	maxss  %xmm3,%xmm4
    4687:	f3 0f 5a c9          	cvtss2sd %xmm1,%xmm1
    468b:	f2 0f 58 f1          	addsd  %xmm1,%xmm6
    468f:	0f 28 dc             	movaps %xmm4,%xmm3
    4692:	f3 0f 5a d2          	cvtss2sd %xmm2,%xmm2
    4696:	f2 0f 58 ea          	addsd  %xmm2,%xmm5
    469a:	48 39 d0             	cmp    %rdx,%rax
    469d:	75 a9                	jne    4648 <mat_rmsd+0x48>
    469f:	66 0f ef c9          	pxor   %xmm1,%xmm1
    46a3:	f3 48 0f 2a ca       	cvtsi2ss %rdx,%xmm1
    46a8:	f3 0f 5e c1          	divss  %xmm1,%xmm0
    46ac:	66 0f 28 cd          	movapd %xmm5,%xmm1
    46b0:	44 0f 28 d0          	movaps %xmm0,%xmm10
    46b4:	66 0f ef c0          	pxor   %xmm0,%xmm0
    46b8:	f2 48 0f 2a c2       	cvtsi2sd %rdx,%xmm0
    46bd:	f2 0f 5e c8          	divsd  %xmm0,%xmm1
    46c1:	f2 0f 5a c9          	cvtsd2ss %xmm1,%xmm1
    46c5:	44 0f 2e d9          	ucomiss %xmm1,%xmm11
    46c9:	0f 87 5c 01 00 00    	ja     482b <mat_rmsd+0x22b>
    46cf:	f3 0f 51 c9          	sqrtss %xmm1,%xmm1
    46d3:	41 0f 28 e1          	movaps %xmm9,%xmm4
    46d7:	66 41 0f 2e e8       	ucomisd %xmm8,%xmm5
    46dc:	0f 28 d1             	movaps %xmm1,%xmm2
    46df:	f3 0f 5c e7          	subss  %xmm7,%xmm4
    46e3:	41 0f 28 fa          	movaps %xmm10,%xmm7
    46e7:	0f 14 f9             	unpcklps %xmm1,%xmm7
    46ea:	f3 0f 5e d4          	divss  %xmm4,%xmm2
    46ee:	0f 28 e2             	movaps %xmm2,%xmm4
    46f1:	0f 14 e3             	unpcklps %xmm3,%xmm4
    46f4:	0f 16 fc             	movlhps %xmm4,%xmm7
    46f7:	7a 27                	jp     4720 <mat_rmsd+0x120>
    46f9:	f3 0f 10 05 6f 19 00 	movss  0x196f(%rip),%xmm0        # 6070 <_IO_stdin_used+0x70>
    4700:	00 
    4701:	75 1d                	jne    4720 <mat_rmsd+0x120>
    4703:	48 85 db             	test   %rbx,%rbx
    4706:	74 70                	je     4778 <mat_rmsd+0x178>
    4708:	0f 11 3b             	movups %xmm7,(%rbx)
    470b:	f3 0f 11 43 10       	movss  %xmm0,0x10(%rbx)
    4710:	48 83 c4 30          	add    $0x30,%rsp
    4714:	5b                   	pop    %rbx
    4715:	c3                   	ret    
    4716:	66 2e 0f 1f 84 00 00 	cs nopw 0x0(%rax,%rax,1)
    471d:	00 00 00 
    4720:	f2 0f 5e f5          	divsd  %xmm5,%xmm6
    4724:	66 0f ef c0          	pxor   %xmm0,%xmm0
    4728:	0f 29 7c 24 10       	movaps %xmm7,0x10(%rsp)
    472d:	f3 0f 11 54 24 0c    	movss  %xmm2,0xc(%rsp)
    4733:	f3 0f 11 4c 24 08    	movss  %xmm1,0x8(%rsp)
    4739:	f3 44 0f 11 54 24 04 	movss  %xmm10,0x4(%rsp)
    4740:	f3 0f 11 1c 24       	movss  %xmm3,(%rsp)
    4745:	f2 0f 5a c6          	cvtsd2ss %xmm6,%xmm0
    4749:	e8 92 f9 ff ff       	call   40e0 <log10f@plt>
    474e:	0f 28 7c 24 10       	movaps 0x10(%rsp),%xmm7
    4753:	f3 0f 59 05 19 19 00 	mulss  0x1919(%rip),%xmm0        # 6074 <_IO_stdin_used+0x74>
    475a:	00 
    475b:	f3 0f 10 54 24 0c    	movss  0xc(%rsp),%xmm2
    4761:	f3 0f 10 4c 24 08    	movss  0x8(%rsp),%xmm1
    4767:	f3 44 0f 10 54 24 04 	movss  0x4(%rsp),%xmm10
    476e:	f3 0f 10 1c 24       	movss  (%rsp),%xmm3
    4773:	48 85 db             	test   %rbx,%rbx
    4776:	75 90                	jne    4708 <mat_rmsd+0x108>
    4778:	48 8d 3d 85 18 00 00 	lea    0x1885(%rip),%rdi        # 6004 <_IO_stdin_used+0x4>
    477f:	f3 0f 11 54 24 10    	movss  %xmm2,0x10(%rsp)
    4785:	f3 0f 11 4c 24 0c    	movss  %xmm1,0xc(%rsp)
    478b:	f3 44 0f 11 54 24 08 	movss  %xmm10,0x8(%rsp)
    4792:	f3 0f 11 44 24 04    	movss  %xmm0,0x4(%rsp)
    4798:	f3 0f 11 1c 24       	movss  %xmm3,(%rsp)
    479d:	e8 0e f9 ff ff       	call   40b0 <puts@plt>
    47a2:	f3 0f 10 44 24 04    	movss  0x4(%rsp),%xmm0
    47a8:	f3 0f 10 1c 24       	movss  (%rsp),%xmm3
    47ad:	66 0f ef e4          	pxor   %xmm4,%xmm4
    47b1:	f3 0f 10 54 24 10    	movss  0x10(%rsp),%xmm2
    47b7:	f3 44 0f 10 54 24 08 	movss  0x8(%rsp),%xmm10
    47be:	48 8d 35 5b 18 00 00 	lea    0x185b(%rip),%rsi        # 6020 <_IO_stdin_used+0x20>
    47c5:	bf 01 00 00 00       	mov    $0x1,%edi
    47ca:	f3 0f 10 4c 24 0c    	movss  0xc(%rsp),%xmm1
    47d0:	48 83 c4 30          	add    $0x30,%rsp
    47d4:	f3 0f 5a e0          	cvtss2sd %xmm0,%xmm4
    47d8:	f3 0f 5a db          	cvtss2sd %xmm3,%xmm3
    47dc:	f3 45 0f 5a d2       	cvtss2sd %xmm10,%xmm10
    47e1:	b8 05 00 00 00       	mov    $0x5,%eax
    47e6:	66 41 0f 28 c2       	movapd %xmm10,%xmm0
    47eb:	5b                   	pop    %rbx
    47ec:	f3 0f 5a d2          	cvtss2sd %xmm2,%xmm2
    47f0:	f3 0f 5a c9          	cvtss2sd %xmm1,%xmm1
    47f4:	e9 17 f9 ff ff       	jmp    4110 <__printf_chk@plt>
    47f9:	0f 1f 80 00 00 00 00 	nopl   0x0(%rax)
    4800:	66 45 0f ef db       	pxor   %xmm11,%xmm11
    4805:	66 45 0f ef c0       	pxor   %xmm8,%xmm8
    480a:	31 d2                	xor    %edx,%edx
    480c:	41 0f 28 fb          	movaps %xmm11,%xmm7
    4810:	45 0f 28 cb          	movaps %xmm11,%xmm9
    4814:	66 41 0f 28 f0       	movapd %xmm8,%xmm6
    4819:	41 0f 28 db          	movaps %xmm11,%xmm3
    481d:	41 0f 28 c3          	movaps %xmm11,%xmm0
    4821:	66 41 0f 28 e8       	movapd %xmm8,%xmm5
    4826:	e9 74 fe ff ff       	jmp    469f <mat_rmsd+0x9f>
    482b:	0f 28 c1             	movaps %xmm1,%xmm0
    482e:	f2 44 0f 11 44 24 28 	movsd  %xmm8,0x28(%rsp)
    4835:	f2 0f 11 6c 24 20    	movsd  %xmm5,0x20(%rsp)
    483b:	f2 0f 11 74 24 10    	movsd  %xmm6,0x10(%rsp)
    4841:	f3 44 0f 11 54 24 0c 	movss  %xmm10,0xc(%rsp)
    4848:	f3 44 0f 11 4c 24 08 	movss  %xmm9,0x8(%rsp)
    484f:	f3 0f 11 7c 24 04    	movss  %xmm7,0x4(%rsp)
    4855:	f3 0f 11 1c 24       	movss  %xmm3,(%rsp)
    485a:	e8 a1 f8 ff ff       	call   4100 <sqrtf@plt>
    485f:	f2 0f 10 6c 24 20    	movsd  0x20(%rsp),%xmm5
    4865:	f2 44 0f 10 44 24 28 	movsd  0x28(%rsp),%xmm8
    486c:	f2 0f 10 74 24 10    	movsd  0x10(%rsp),%xmm6
    4872:	f3 44 0f 10 54 24 0c 	movss  0xc(%rsp),%xmm10
    4879:	0f 28 c8             	movaps %xmm0,%xmm1
    487c:	f3 44 0f 10 4c 24 08 	movss  0x8(%rsp),%xmm9
    4883:	f3 0f 10 7c 24 04    	movss  0x4(%rsp),%xmm7
    4889:	f3 0f 10 1c 24       	movss  (%rsp),%xmm3
    488e:	e9 40 fe ff ff       	jmp    46d3 <mat_rmsd+0xd3>
    4893:	66 66 2e 0f 1f 84 00 	data16 cs nopw 0x0(%rax,%rax,1)
    489a:	00 00 00 00 
    489e:	66 90                	xchg   %ax,%ax

00000000000048a0 <printMat>:
    48a0:	f3 0f 1e fa          	endbr64 
    48a4:	c3                   	ret    
    48a5:	66 66 2e 0f 1f 84 00 	data16 cs nopw 0x0(%rax,%rax,1)
    48ac:	00 00 00 00 

00000000000048b0 <CheckInv>:
    48b0:	f3 0f 1e fa          	endbr64 
    48b4:	55                   	push   %rbp
    48b5:	49 89 fb             	mov    %rdi,%r11
    48b8:	48 89 f7             	mov    %rsi,%rdi
    48bb:	48 89 e5             	mov    %rsp,%rbp
    48be:	41 57                	push   %r15
    48c0:	41 89 d7             	mov    %edx,%r15d
    48c3:	44 0f af fa          	imul   %edx,%r15d
    48c7:	41 56                	push   %r14
    48c9:	49 89 ce             	mov    %rcx,%r14
    48cc:	41 55                	push   %r13
    48ce:	41 54                	push   %r12
    48d0:	41 89 d4             	mov    %edx,%r12d
    48d3:	53                   	push   %rbx
    48d4:	44 89 fb             	mov    %r15d,%ebx
    48d7:	48 8d 14 9d 0f 00 00 	lea    0xf(,%rbx,4),%rdx
    48de:	00 
    48df:	48 83 ec 28          	sub    $0x28,%rsp
    48e3:	64 48 8b 04 25 28 00 	mov    %fs:0x28,%rax
    48ea:	00 00 
    48ec:	48 89 45 c8          	mov    %rax,-0x38(%rbp)
    48f0:	31 c0                	xor    %eax,%eax
    48f2:	48 89 d0             	mov    %rdx,%rax
    48f5:	48 89 e1             	mov    %rsp,%rcx
    48f8:	48 c1 e8 04          	shr    $0x4,%rax
    48fc:	48 c1 e0 04          	shl    $0x4,%rax
    4900:	48 89 c6             	mov    %rax,%rsi
    4903:	48 81 e6 00 f0 ff ff 	and    $0xfffffffffffff000,%rsi
    490a:	48 29 f1             	sub    %rsi,%rcx
    490d:	48 39 cc             	cmp    %rcx,%rsp
    4910:	74 15                	je     4927 <CheckInv+0x77>
    4912:	48 81 ec 00 10 00 00 	sub    $0x1000,%rsp
    4919:	48 83 8c 24 f8 0f 00 	orq    $0x0,0xff8(%rsp)
    4920:	00 00 
    4922:	48 39 cc             	cmp    %rcx,%rsp
    4925:	75 eb                	jne    4912 <CheckInv+0x62>
    4927:	25 ff 0f 00 00       	and    $0xfff,%eax
    492c:	48 29 c4             	sub    %rax,%rsp
    492f:	48 85 c0             	test   %rax,%rax
    4932:	0f 85 c8 00 00 00    	jne    4a00 <CheckInv+0x150>
    4938:	48 c1 ea 04          	shr    $0x4,%rdx
    493c:	48 89 e0             	mov    %rsp,%rax
    493f:	49 89 e2             	mov    %rsp,%r10
    4942:	48 c1 e2 04          	shl    $0x4,%rdx
    4946:	48 89 d1             	mov    %rdx,%rcx
    4949:	48 81 e1 00 f0 ff ff 	and    $0xfffffffffffff000,%rcx
    4950:	48 29 c8             	sub    %rcx,%rax
    4953:	48 39 c4             	cmp    %rax,%rsp
    4956:	74 15                	je     496d <CheckInv+0xbd>
    4958:	48 81 ec 00 10 00 00 	sub    $0x1000,%rsp
    495f:	48 83 8c 24 f8 0f 00 	orq    $0x0,0xff8(%rsp)
    4966:	00 00 
    4968:	48 39 c4             	cmp    %rax,%rsp
    496b:	75 eb                	jne    4958 <CheckInv+0xa8>
    496d:	81 e2 ff 0f 00 00    	and    $0xfff,%edx
    4973:	48 29 d4             	sub    %rdx,%rsp
    4976:	48 85 d2             	test   %rdx,%rdx
    4979:	0f 85 a6 00 00 00    	jne    4a25 <CheckInv+0x175>
    497f:	4c 89 d2             	mov    %r10,%rdx
    4982:	45 89 e1             	mov    %r12d,%r9d
    4985:	45 89 e0             	mov    %r12d,%r8d
    4988:	44 89 e1             	mov    %r12d,%ecx
    498b:	4c 89 de             	mov    %r11,%rsi
    498e:	4c 89 55 b8          	mov    %r10,-0x48(%rbp)
    4992:	49 89 e5             	mov    %rsp,%r13
    4995:	e8 a6 0c 00 00       	call   5640 <riscv_dsp_mat_mul_f32>
    499a:	45 85 ff             	test   %r15d,%r15d
    499d:	4c 8b 55 b8          	mov    -0x48(%rbp),%r10
    49a1:	74 2b                	je     49ce <CheckInv+0x11e>
    49a3:	f3 0f 10 05 cd 16 00 	movss  0x16cd(%rip),%xmm0        # 6078 <_IO_stdin_used+0x78>
    49aa:	00 
    49ab:	31 c0                	xor    %eax,%eax
    49ad:	31 d2                	xor    %edx,%edx
    49af:	41 83 c4 01          	add    $0x1,%r12d
    49b3:	0f 1f 44 00 00       	nopl   0x0(%rax,%rax,1)
    49b8:	39 c2                	cmp    %eax,%edx
    49ba:	74 54                	je     4a10 <CheckInv+0x160>
    49bc:	41 c7 44 85 00 00 00 	movl   $0x0,0x0(%r13,%rax,4)
    49c3:	00 00 
    49c5:	48 83 c0 01          	add    $0x1,%rax
    49c9:	48 39 d8             	cmp    %rbx,%rax
    49cc:	75 ea                	jne    49b8 <CheckInv+0x108>
    49ce:	4c 89 f1             	mov    %r14,%rcx
    49d1:	44 89 fa             	mov    %r15d,%edx
    49d4:	4c 89 d6             	mov    %r10,%rsi
    49d7:	4c 89 ef             	mov    %r13,%rdi
    49da:	e8 21 fc ff ff       	call   4600 <mat_rmsd>
    49df:	48 8b 45 c8          	mov    -0x38(%rbp),%rax
    49e3:	64 48 2b 04 25 28 00 	sub    %fs:0x28,%rax
    49ea:	00 00 
    49ec:	75 42                	jne    4a30 <CheckInv+0x180>
    49ee:	48 8d 65 d8          	lea    -0x28(%rbp),%rsp
    49f2:	31 c0                	xor    %eax,%eax
    49f4:	5b                   	pop    %rbx
    49f5:	41 5c                	pop    %r12
    49f7:	41 5d                	pop    %r13
    49f9:	41 5e                	pop    %r14
    49fb:	41 5f                	pop    %r15
    49fd:	5d                   	pop    %rbp
    49fe:	c3                   	ret    
    49ff:	90                   	nop
    4a00:	48 83 4c 04 f8 00    	orq    $0x0,-0x8(%rsp,%rax,1)
    4a06:	e9 2d ff ff ff       	jmp    4938 <CheckInv+0x88>
    4a0b:	0f 1f 44 00 00       	nopl   0x0(%rax,%rax,1)
    4a10:	f3 41 0f 11 44 85 00 	movss  %xmm0,0x0(%r13,%rax,4)
    4a17:	48 83 c0 01          	add    $0x1,%rax
    4a1b:	44 01 e2             	add    %r12d,%edx
    4a1e:	48 39 d8             	cmp    %rbx,%rax
    4a21:	75 95                	jne    49b8 <CheckInv+0x108>
    4a23:	eb a9                	jmp    49ce <CheckInv+0x11e>
    4a25:	48 83 4c 14 f8 00    	orq    $0x0,-0x8(%rsp,%rdx,1)
    4a2b:	e9 4f ff ff ff       	jmp    497f <CheckInv+0xcf>
    4a30:	e8 8b f6 ff ff       	call   40c0 <__stack_chk_fail@plt>
    4a35:	66 66 2e 0f 1f 84 00 	data16 cs nopw 0x0(%rax,%rax,1)
    4a3c:	00 00 00 00 

0000000000004a40 <DoMatInv>:
    4a40:	f3 0f 1e fa          	endbr64 
    4a44:	55                   	push   %rbp
    4a45:	48 89 e5             	mov    %rsp,%rbp
    4a48:	41 57                	push   %r15
    4a4a:	41 56                	push   %r14
    4a4c:	41 55                	push   %r13
    4a4e:	41 54                	push   %r12
    4a50:	49 89 fc             	mov    %rdi,%r12
    4a53:	53                   	push   %rbx
    4a54:	48 89 f3             	mov    %rsi,%rbx
    4a57:	48 83 ec 48          	sub    $0x48,%rsp
    4a5b:	44 8b 47 08          	mov    0x8(%rdi),%r8d
    4a5f:	64 48 8b 04 25 28 00 	mov    %fs:0x28,%rax
    4a66:	00 00 
    4a68:	48 89 45 c8          	mov    %rax,-0x38(%rbp)
    4a6c:	31 c0                	xor    %eax,%eax
    4a6e:	48 89 e1             	mov    %rsp,%rcx
    4a71:	44 89 c0             	mov    %r8d,%eax
    4a74:	41 0f af c0          	imul   %r8d,%eax
    4a78:	48 98                	cltq   
    4a7a:	48 8d 04 85 0f 00 00 	lea    0xf(,%rax,4),%rax
    4a81:	00 
    4a82:	48 89 c6             	mov    %rax,%rsi
    4a85:	48 89 c2             	mov    %rax,%rdx
    4a88:	48 81 e6 00 f0 ff ff 	and    $0xfffffffffffff000,%rsi
    4a8f:	48 83 e2 f0          	and    $0xfffffffffffffff0,%rdx
    4a93:	48 29 f1             	sub    %rsi,%rcx
    4a96:	48 39 cc             	cmp    %rcx,%rsp
    4a99:	74 15                	je     4ab0 <DoMatInv+0x70>
    4a9b:	48 81 ec 00 10 00 00 	sub    $0x1000,%rsp
    4aa2:	48 83 8c 24 f8 0f 00 	orq    $0x0,0xff8(%rsp)
    4aa9:	00 00 
    4aab:	48 39 cc             	cmp    %rcx,%rsp
    4aae:	75 eb                	jne    4a9b <DoMatInv+0x5b>
    4ab0:	81 e2 ff 0f 00 00    	and    $0xfff,%edx
    4ab6:	48 29 d4             	sub    %rdx,%rsp
    4ab9:	48 85 d2             	test   %rdx,%rdx
    4abc:	0f 85 1e 01 00 00    	jne    4be0 <DoMatInv+0x1a0>
    4ac2:	48 89 c2             	mov    %rax,%rdx
    4ac5:	48 89 e1             	mov    %rsp,%rcx
    4ac8:	48 25 00 f0 ff ff    	and    $0xfffffffffffff000,%rax
    4ace:	49 89 e2             	mov    %rsp,%r10
    4ad1:	48 29 c1             	sub    %rax,%rcx
    4ad4:	48 83 e2 f0          	and    $0xfffffffffffffff0,%rdx
    4ad8:	48 39 cc             	cmp    %rcx,%rsp
    4adb:	74 15                	je     4af2 <DoMatInv+0xb2>
    4add:	48 81 ec 00 10 00 00 	sub    $0x1000,%rsp
    4ae4:	48 83 8c 24 f8 0f 00 	orq    $0x0,0xff8(%rsp)
    4aeb:	00 00 
    4aed:	48 39 cc             	cmp    %rcx,%rsp
    4af0:	75 eb                	jne    4add <DoMatInv+0x9d>
    4af2:	81 e2 ff 0f 00 00    	and    $0xfff,%edx
    4af8:	48 29 d4             	sub    %rdx,%rsp
    4afb:	48 85 d2             	test   %rdx,%rdx
    4afe:	0f 85 2c 02 00 00    	jne    4d30 <DoMatInv+0x2f0>
    4b04:	49 63 d0             	movslq %r8d,%rdx
    4b07:	4d 8b 2c 24          	mov    (%r12),%r13
    4b0b:	66 0f ef c0          	pxor   %xmm0,%xmm0
    4b0f:	4c 89 d7             	mov    %r10,%rdi
    4b12:	48 0f af d2          	imul   %rdx,%rdx
    4b16:	49 89 e7             	mov    %rsp,%r15
    4b19:	44 89 45 a8          	mov    %r8d,-0x58(%rbp)
    4b1d:	4c 89 ee             	mov    %r13,%rsi
    4b20:	4c 89 55 a0          	mov    %r10,-0x60(%rbp)
    4b24:	0f 29 45 b0          	movaps %xmm0,-0x50(%rbp)
    4b28:	48 c1 e2 02          	shl    $0x2,%rdx
    4b2c:	4c 89 7d 98          	mov    %r15,-0x68(%rbp)
    4b30:	c7 45 c0 00 00 00 00 	movl   $0x0,-0x40(%rbp)
    4b37:	e8 b4 f5 ff ff       	call   40f0 <memcpy@plt>
    4b3c:	8b 55 a8             	mov    -0x58(%rbp),%edx
    4b3f:	4c 89 fe             	mov    %r15,%rsi
    4b42:	4c 89 ef             	mov    %r13,%rdi
    4b45:	e8 26 02 00 00       	call   4d70 <riscv_dsp_mat_inv_f32>
    4b4a:	41 89 c1             	mov    %eax,%r9d
    4b4d:	41 8b 44 24 0c       	mov    0xc(%r12),%eax
    4b52:	44 39 c8             	cmp    %r9d,%eax
    4b55:	0f 85 fe 01 00 00    	jne    4d59 <DoMatInv+0x319>
    4b5b:	85 c0                	test   %eax,%eax
    4b5d:	44 8b 45 a8          	mov    -0x58(%rbp),%r8d
    4b61:	4c 8b 55 a0          	mov    -0x60(%rbp),%r10
    4b65:	0f 84 85 00 00 00    	je     4bf0 <DoMatInv+0x1b0>
    4b6b:	66 0f ef c0          	pxor   %xmm0,%xmm0
    4b6f:	0f 28 c8             	movaps %xmm0,%xmm1
    4b72:	0f 28 d0             	movaps %xmm0,%xmm2
    4b75:	0f 28 d8             	movaps %xmm0,%xmm3
    4b78:	0f 28 e0             	movaps %xmm0,%xmm4
    4b7b:	0f 2f 23             	comiss (%rbx),%xmm4
    4b7e:	76 04                	jbe    4b84 <DoMatInv+0x144>
    4b80:	f3 0f 11 23          	movss  %xmm4,(%rbx)
    4b84:	0f 2f 5b 04          	comiss 0x4(%rbx),%xmm3
    4b88:	76 05                	jbe    4b8f <DoMatInv+0x14f>
    4b8a:	f3 0f 11 5b 04       	movss  %xmm3,0x4(%rbx)
    4b8f:	0f 2f 53 08          	comiss 0x8(%rbx),%xmm2
    4b93:	76 05                	jbe    4b9a <DoMatInv+0x15a>
    4b95:	f3 0f 11 53 08       	movss  %xmm2,0x8(%rbx)
    4b9a:	0f 2f 4b 0c          	comiss 0xc(%rbx),%xmm1
    4b9e:	76 05                	jbe    4ba5 <DoMatInv+0x165>
    4ba0:	f3 0f 11 4b 0c       	movss  %xmm1,0xc(%rbx)
    4ba5:	31 c0                	xor    %eax,%eax
    4ba7:	0f 2f 43 10          	comiss 0x10(%rbx),%xmm0
    4bab:	76 07                	jbe    4bb4 <DoMatInv+0x174>
    4bad:	f3 0f 11 43 10       	movss  %xmm0,0x10(%rbx)
    4bb2:	31 c0                	xor    %eax,%eax
    4bb4:	48 8b 55 c8          	mov    -0x38(%rbp),%rdx
    4bb8:	64 48 2b 14 25 28 00 	sub    %fs:0x28,%rdx
    4bbf:	00 00 
    4bc1:	0f 85 9c 01 00 00    	jne    4d63 <DoMatInv+0x323>
    4bc7:	48 8d 65 d8          	lea    -0x28(%rbp),%rsp
    4bcb:	5b                   	pop    %rbx
    4bcc:	41 5c                	pop    %r12
    4bce:	41 5d                	pop    %r13
    4bd0:	41 5e                	pop    %r14
    4bd2:	41 5f                	pop    %r15
    4bd4:	5d                   	pop    %rbp
    4bd5:	c3                   	ret    
    4bd6:	66 2e 0f 1f 84 00 00 	cs nopw 0x0(%rax,%rax,1)
    4bdd:	00 00 00 
    4be0:	48 83 4c 14 f8 00    	orq    $0x0,-0x8(%rsp,%rdx,1)
    4be6:	e9 d7 fe ff ff       	jmp    4ac2 <DoMatInv+0x82>
    4beb:	0f 1f 44 00 00       	nopl   0x0(%rax,%rax,1)
    4bf0:	45 89 c6             	mov    %r8d,%r14d
    4bf3:	48 89 e6             	mov    %rsp,%rsi
    4bf6:	45 0f af f0          	imul   %r8d,%r14d
    4bfa:	45 89 f4             	mov    %r14d,%r12d
    4bfd:	4a 8d 0c a5 0f 00 00 	lea    0xf(,%r12,4),%rcx
    4c04:	00 
    4c05:	48 89 ca             	mov    %rcx,%rdx
    4c08:	48 c1 ea 04          	shr    $0x4,%rdx
    4c0c:	48 c1 e2 04          	shl    $0x4,%rdx
    4c10:	48 89 d7             	mov    %rdx,%rdi
    4c13:	48 81 e7 00 f0 ff ff 	and    $0xfffffffffffff000,%rdi
    4c1a:	48 29 fe             	sub    %rdi,%rsi
    4c1d:	48 39 f4             	cmp    %rsi,%rsp
    4c20:	74 15                	je     4c37 <DoMatInv+0x1f7>
    4c22:	48 81 ec 00 10 00 00 	sub    $0x1000,%rsp
    4c29:	48 83 8c 24 f8 0f 00 	orq    $0x0,0xff8(%rsp)
    4c30:	00 00 
    4c32:	48 39 f4             	cmp    %rsi,%rsp
    4c35:	75 eb                	jne    4c22 <DoMatInv+0x1e2>
    4c37:	81 e2 ff 0f 00 00    	and    $0xfff,%edx
    4c3d:	48 29 d4             	sub    %rdx,%rsp
    4c40:	48 85 d2             	test   %rdx,%rdx
    4c43:	0f 85 d7 00 00 00    	jne    4d20 <DoMatInv+0x2e0>
    4c49:	48 c1 e9 04          	shr    $0x4,%rcx
    4c4d:	48 89 e2             	mov    %rsp,%rdx
    4c50:	49 89 e3             	mov    %rsp,%r11
    4c53:	48 c1 e1 04          	shl    $0x4,%rcx
    4c57:	48 89 ce             	mov    %rcx,%rsi
    4c5a:	48 81 e6 00 f0 ff ff 	and    $0xfffffffffffff000,%rsi
    4c61:	48 29 f2             	sub    %rsi,%rdx
    4c64:	48 39 d4             	cmp    %rdx,%rsp
    4c67:	74 15                	je     4c7e <DoMatInv+0x23e>
    4c69:	48 81 ec 00 10 00 00 	sub    $0x1000,%rsp
    4c70:	48 83 8c 24 f8 0f 00 	orq    $0x0,0xff8(%rsp)
    4c77:	00 00 
    4c79:	48 39 d4             	cmp    %rdx,%rsp
    4c7c:	75 eb                	jne    4c69 <DoMatInv+0x229>
    4c7e:	81 e1 ff 0f 00 00    	and    $0xfff,%ecx
    4c84:	48 29 cc             	sub    %rcx,%rsp
    4c87:	48 85 c9             	test   %rcx,%rcx
    4c8a:	74 06                	je     4c92 <DoMatInv+0x252>
    4c8c:	48 83 4c 0c f8 00    	orq    $0x0,-0x8(%rsp,%rcx,1)
    4c92:	48 8b 7d 98          	mov    -0x68(%rbp),%rdi
    4c96:	44 89 c1             	mov    %r8d,%ecx
    4c99:	4c 89 da             	mov    %r11,%rdx
    4c9c:	45 89 c1             	mov    %r8d,%r9d
    4c9f:	4c 89 d6             	mov    %r10,%rsi
    4ca2:	44 89 45 a0          	mov    %r8d,-0x60(%rbp)
    4ca6:	49 89 e5             	mov    %rsp,%r13
    4ca9:	4c 89 5d a8          	mov    %r11,-0x58(%rbp)
    4cad:	e8 8e 09 00 00       	call   5640 <riscv_dsp_mat_mul_f32>
    4cb2:	44 8b 45 a0          	mov    -0x60(%rbp),%r8d
    4cb6:	31 d2                	xor    %edx,%edx
    4cb8:	31 c9                	xor    %ecx,%ecx
    4cba:	f3 0f 10 05 b6 13 00 	movss  0x13b6(%rip),%xmm0        # 6078 <_IO_stdin_used+0x78>
    4cc1:	00 
    4cc2:	4c 8b 5d a8          	mov    -0x58(%rbp),%r11
    4cc6:	41 83 c0 01          	add    $0x1,%r8d
    4cca:	45 85 f6             	test   %r14d,%r14d
    4ccd:	74 17                	je     4ce6 <DoMatInv+0x2a6>
    4ccf:	90                   	nop
    4cd0:	39 d1                	cmp    %edx,%ecx
    4cd2:	74 6c                	je     4d40 <DoMatInv+0x300>
    4cd4:	41 c7 44 95 00 00 00 	movl   $0x0,0x0(%r13,%rdx,4)
    4cdb:	00 00 
    4cdd:	48 83 c2 01          	add    $0x1,%rdx
    4ce1:	49 39 d4             	cmp    %rdx,%r12
    4ce4:	75 ea                	jne    4cd0 <DoMatInv+0x290>
    4ce6:	48 8d 4d b0          	lea    -0x50(%rbp),%rcx
    4cea:	44 89 f2             	mov    %r14d,%edx
    4ced:	4c 89 de             	mov    %r11,%rsi
    4cf0:	4c 89 ef             	mov    %r13,%rdi
    4cf3:	e8 08 f9 ff ff       	call   4600 <mat_rmsd>
    4cf8:	4c 89 fc             	mov    %r15,%rsp
    4cfb:	f3 0f 10 65 b0       	movss  -0x50(%rbp),%xmm4
    4d00:	f3 0f 10 5d b4       	movss  -0x4c(%rbp),%xmm3
    4d05:	f3 0f 10 55 b8       	movss  -0x48(%rbp),%xmm2
    4d0a:	f3 0f 10 4d bc       	movss  -0x44(%rbp),%xmm1
    4d0f:	f3 0f 10 45 c0       	movss  -0x40(%rbp),%xmm0
    4d14:	e9 62 fe ff ff       	jmp    4b7b <DoMatInv+0x13b>
    4d19:	0f 1f 80 00 00 00 00 	nopl   0x0(%rax)
    4d20:	48 83 4c 14 f8 00    	orq    $0x0,-0x8(%rsp,%rdx,1)
    4d26:	e9 1e ff ff ff       	jmp    4c49 <DoMatInv+0x209>
    4d2b:	0f 1f 44 00 00       	nopl   0x0(%rax,%rax,1)
    4d30:	48 83 4c 14 f8 00    	orq    $0x0,-0x8(%rsp,%rdx,1)
    4d36:	e9 c9 fd ff ff       	jmp    4b04 <DoMatInv+0xc4>
    4d3b:	0f 1f 44 00 00       	nopl   0x0(%rax,%rax,1)
    4d40:	f3 41 0f 11 44 95 00 	movss  %xmm0,0x0(%r13,%rdx,4)
    4d47:	48 83 c2 01          	add    $0x1,%rdx
    4d4b:	44 01 c1             	add    %r8d,%ecx
    4d4e:	4c 39 e2             	cmp    %r12,%rdx
    4d51:	0f 85 79 ff ff ff    	jne    4cd0 <DoMatInv+0x290>
    4d57:	eb 8d                	jmp    4ce6 <DoMatInv+0x2a6>
    4d59:	b8 ff ff ff ff       	mov    $0xffffffff,%eax
    4d5e:	e9 51 fe ff ff       	jmp    4bb4 <DoMatInv+0x174>
    4d63:	e8 58 f3 ff ff       	call   40c0 <__stack_chk_fail@plt>
    4d68:	0f 1f 84 00 00 00 00 	nopl   0x0(%rax,%rax,1)
    4d6f:	00 

0000000000004d70 <riscv_dsp_mat_inv_f32>:
    4d70:	f3 0f 1e fa          	endbr64 
    4d74:	41 57                	push   %r15
    4d76:	41 56                	push   %r14
    4d78:	41 55                	push   %r13
    4d7a:	41 54                	push   %r12
    4d7c:	55                   	push   %rbp
    4d7d:	53                   	push   %rbx
    4d7e:	48 81 ec c8 00 00 00 	sub    $0xc8,%rsp
    4d85:	48 89 74 24 28       	mov    %rsi,0x28(%rsp)
    4d8a:	85 d2                	test   %edx,%edx
    4d8c:	0f 84 f7 07 00 00    	je     5589 <riscv_dsp_mat_inv_f32+0x819>
    4d92:	89 d5                	mov    %edx,%ebp
    4d94:	89 d3                	mov    %edx,%ebx
    4d96:	49 89 f7             	mov    %rsi,%r15
    4d99:	49 89 fe             	mov    %rdi,%r14
    4d9c:	48 89 ea             	mov    %rbp,%rdx
    4d9f:	4c 89 ff             	mov    %r15,%rdi
    4da2:	31 f6                	xor    %esi,%esi
    4da4:	45 31 ff             	xor    %r15d,%r15d
    4da7:	48 0f af d5          	imul   %rbp,%rdx
    4dab:	48 c1 e2 02          	shl    $0x2,%rdx
    4daf:	e8 1c f3 ff ff       	call   40d0 <memset@plt>
    4db4:	8d 53 01             	lea    0x1(%rbx),%edx
    4db7:	f3 0f 10 05 b9 12 00 	movss  0x12b9(%rip),%xmm0        # 6078 <_IO_stdin_used+0x78>
    4dbe:	00 
    4dbf:	48 c1 e2 02          	shl    $0x2,%rdx
    4dc3:	0f 1f 44 00 00       	nopl   0x0(%rax,%rax,1)
    4dc8:	45 89 fd             	mov    %r15d,%r13d
    4dcb:	41 83 c7 01          	add    $0x1,%r15d
    4dcf:	f3 0f 11 00          	movss  %xmm0,(%rax)
    4dd3:	48 01 d0             	add    %rdx,%rax
    4dd6:	44 39 fb             	cmp    %r15d,%ebx
    4dd9:	75 ed                	jne    4dc8 <riscv_dsp_mat_inv_f32+0x58>
    4ddb:	41 8d 45 fd          	lea    -0x3(%r13),%eax
    4ddf:	44 89 fb             	mov    %r15d,%ebx
    4de2:	41 8d 7d 01          	lea    0x1(%r13),%edi
    4de6:	44 89 6c 24 34       	mov    %r13d,0x34(%rsp)
    4deb:	89 84 24 9c 00 00 00 	mov    %eax,0x9c(%rsp)
    4df2:	44 89 f8             	mov    %r15d,%eax
    4df5:	83 e3 fc             	and    $0xfffffffc,%ebx
    4df8:	48 8d 34 ad 00 00 00 	lea    0x0(,%rbp,4),%rsi
    4dff:	00 
    4e00:	c1 e8 02             	shr    $0x2,%eax
    4e03:	48 8d 14 bd 00 00 00 	lea    0x0(,%rdi,4),%rdx
    4e0a:	00 
    4e0b:	48 89 b4 24 80 00 00 	mov    %rsi,0x80(%rsp)
    4e12:	00 
    4e13:	66 0f ef db          	pxor   %xmm3,%xmm3
    4e17:	83 e8 01             	sub    $0x1,%eax
    4e1a:	48 89 bc 24 b0 00 00 	mov    %rdi,0xb0(%rsp)
    4e21:	00 
    4e22:	48 83 c0 01          	add    $0x1,%rax
    4e26:	48 89 54 24 50       	mov    %rdx,0x50(%rsp)
    4e2b:	48 c1 e0 04          	shl    $0x4,%rax
    4e2f:	48 89 54 24 38       	mov    %rdx,0x38(%rsp)
    4e34:	49 89 c4             	mov    %rax,%r12
    4e37:	89 d8                	mov    %ebx,%eax
    4e39:	48 89 bc 24 a0 00 00 	mov    %rdi,0xa0(%rsp)
    4e40:	00 
    4e41:	48 c1 e0 02          	shl    $0x2,%rax
    4e45:	4c 89 74 24 20       	mov    %r14,0x20(%rsp)
    4e4a:	48 89 44 24 70       	mov    %rax,0x70(%rsp)
    4e4f:	49 8d 04 36          	lea    (%r14,%rsi,1),%rax
    4e53:	48 89 84 24 b8 00 00 	mov    %rax,0xb8(%rsp)
    4e5a:	00 
    4e5b:	44 89 f8             	mov    %r15d,%eax
    4e5e:	29 d8                	sub    %ebx,%eax
    4e60:	89 5c 24 60          	mov    %ebx,0x60(%rsp)
    4e64:	44 89 fb             	mov    %r15d,%ebx
    4e67:	c7 84 24 ac 00 00 00 	movl   $0x0,0xac(%rsp)
    4e6e:	00 00 00 00 
    4e72:	48 c7 84 24 90 00 00 	movq   $0x0,0x90(%rsp)
    4e79:	00 00 00 00 00 
    4e7e:	89 84 24 a8 00 00 00 	mov    %eax,0xa8(%rsp)
    4e85:	0f 1f 00             	nopl   (%rax)
    4e88:	8b ac 24 ac 00 00 00 	mov    0xac(%rsp),%ebp
    4e8f:	48 8b 74 24 20       	mov    0x20(%rsp),%rsi
    4e94:	48 8b 7c 24 28       	mov    0x28(%rsp),%rdi
    4e99:	48 8d 04 ad 00 00 00 	lea    0x0(,%rbp,4),%rax
    4ea0:	00 
    4ea1:	48 01 c6             	add    %rax,%rsi
    4ea4:	48 01 c7             	add    %rax,%rdi
    4ea7:	48 89 44 24 08       	mov    %rax,0x8(%rsp)
    4eac:	48 8b 84 24 90 00 00 	mov    0x90(%rsp),%rax
    4eb3:	00 
    4eb4:	f3 0f 10 0e          	movss  (%rsi),%xmm1
    4eb8:	89 44 24 30          	mov    %eax,0x30(%rsp)
    4ebc:	8d 48 01             	lea    0x1(%rax),%ecx
    4ebf:	0f 2e cb             	ucomiss %xmm3,%xmm1
    4ec2:	7a 06                	jp     4eca <riscv_dsp_mat_inv_f32+0x15a>
    4ec4:	0f 84 a4 04 00 00    	je     536e <riscv_dsp_mat_inv_f32+0x5fe>
    4eca:	8b 84 24 a0 00 00 00 	mov    0xa0(%rsp),%eax
    4ed1:	89 44 24 14          	mov    %eax,0x14(%rsp)
    4ed5:	48 8b 44 24 70       	mov    0x70(%rsp),%rax
    4eda:	48 01 f8             	add    %rdi,%rax
    4edd:	83 7c 24 34 02       	cmpl   $0x2,0x34(%rsp)
    4ee2:	48 89 44 24 78       	mov    %rax,0x78(%rsp)
    4ee7:	0f 86 92 06 00 00    	jbe    557f <riscv_dsp_mat_inv_f32+0x80f>
    4eed:	8b 8c 24 9c 00 00 00 	mov    0x9c(%rsp),%ecx
    4ef4:	0f 28 d1             	movaps %xmm1,%xmm2
    4ef7:	48 89 f0             	mov    %rsi,%rax
    4efa:	31 d2                	xor    %edx,%edx
    4efc:	0f c6 d2 00          	shufps $0x0,%xmm2,%xmm2
    4f00:	c1 e9 02             	shr    $0x2,%ecx
    4f03:	83 c1 01             	add    $0x1,%ecx
    4f06:	66 2e 0f 1f 84 00 00 	cs nopw 0x0(%rax,%rax,1)
    4f0d:	00 00 00 
    4f10:	0f 10 00             	movups (%rax),%xmm0
    4f13:	83 c2 01             	add    $0x1,%edx
    4f16:	48 83 c0 10          	add    $0x10,%rax
    4f1a:	0f 5e c2             	divps  %xmm2,%xmm0
    4f1d:	0f 11 40 f0          	movups %xmm0,-0x10(%rax)
    4f21:	39 d1                	cmp    %edx,%ecx
    4f23:	77 eb                	ja     4f10 <riscv_dsp_mat_inv_f32+0x1a0>
    4f25:	8d 04 8d 00 00 00 00 	lea    0x0(,%rcx,4),%eax
    4f2c:	48 89 c1             	mov    %rax,%rcx
    4f2f:	48 8d 04 86          	lea    (%rsi,%rax,4),%rax
    4f33:	39 4c 24 14          	cmp    %ecx,0x14(%rsp)
    4f37:	74 3d                	je     4f76 <riscv_dsp_mat_inv_f32+0x206>
    4f39:	f3 0f 10 00          	movss  (%rax),%xmm0
    4f3d:	44 8b 7c 24 14       	mov    0x14(%rsp),%r15d
    4f42:	8d 51 01             	lea    0x1(%rcx),%edx
    4f45:	f3 0f 5e c1          	divss  %xmm1,%xmm0
    4f49:	f3 0f 11 00          	movss  %xmm0,(%rax)
    4f4d:	44 39 fa             	cmp    %r15d,%edx
    4f50:	74 24                	je     4f76 <riscv_dsp_mat_inv_f32+0x206>
    4f52:	f3 0f 10 40 04       	movss  0x4(%rax),%xmm0
    4f57:	83 c1 02             	add    $0x2,%ecx
    4f5a:	f3 0f 5e c1          	divss  %xmm1,%xmm0
    4f5e:	f3 0f 11 40 04       	movss  %xmm0,0x4(%rax)
    4f63:	44 39 f9             	cmp    %r15d,%ecx
    4f66:	74 0e                	je     4f76 <riscv_dsp_mat_inv_f32+0x206>
    4f68:	f3 0f 10 40 08       	movss  0x8(%rax),%xmm0
    4f6d:	f3 0f 5e c1          	divss  %xmm1,%xmm0
    4f71:	f3 0f 11 40 08       	movss  %xmm0,0x8(%rax)
    4f76:	41 83 fd 02          	cmp    $0x2,%r13d
    4f7a:	0f 86 13 06 00 00    	jbe    5593 <riscv_dsp_mat_inv_f32+0x823>
    4f80:	0f 28 d1             	movaps %xmm1,%xmm2
    4f83:	48 89 f8             	mov    %rdi,%rax
    4f86:	4a 8d 14 27          	lea    (%rdi,%r12,1),%rdx
    4f8a:	0f c6 d2 00          	shufps $0x0,%xmm2,%xmm2
    4f8e:	66 90                	xchg   %ax,%ax
    4f90:	0f 10 00             	movups (%rax),%xmm0
    4f93:	48 83 c0 10          	add    $0x10,%rax
    4f97:	0f 5e c2             	divps  %xmm2,%xmm0
    4f9a:	0f 11 40 f0          	movups %xmm0,-0x10(%rax)
    4f9e:	48 39 d0             	cmp    %rdx,%rax
    4fa1:	75 ed                	jne    4f90 <riscv_dsp_mat_inv_f32+0x220>
    4fa3:	8b 54 24 60          	mov    0x60(%rsp),%edx
    4fa7:	48 8b 44 24 78       	mov    0x78(%rsp),%rax
    4fac:	39 d3                	cmp    %edx,%ebx
    4fae:	74 34                	je     4fe4 <riscv_dsp_mat_inv_f32+0x274>
    4fb0:	f3 0f 10 00          	movss  (%rax),%xmm0
    4fb4:	f3 0f 5e c1          	divss  %xmm1,%xmm0
    4fb8:	f3 0f 11 00          	movss  %xmm0,(%rax)
    4fbc:	41 39 d5             	cmp    %edx,%r13d
    4fbf:	74 23                	je     4fe4 <riscv_dsp_mat_inv_f32+0x274>
    4fc1:	f3 0f 10 40 04       	movss  0x4(%rax),%xmm0
    4fc6:	83 c2 02             	add    $0x2,%edx
    4fc9:	f3 0f 5e c1          	divss  %xmm1,%xmm0
    4fcd:	f3 0f 11 40 04       	movss  %xmm0,0x4(%rax)
    4fd2:	39 da                	cmp    %ebx,%edx
    4fd4:	74 0e                	je     4fe4 <riscv_dsp_mat_inv_f32+0x274>
    4fd6:	f3 0f 10 40 08       	movss  0x8(%rax),%xmm0
    4fdb:	f3 0f 5e c1          	divss  %xmm1,%xmm0
    4fdf:	f3 0f 11 40 08       	movss  %xmm0,0x8(%rax)
    4fe4:	48 8b 4c 24 20       	mov    0x20(%rsp),%rcx
    4fe9:	48 8b 84 24 b8 00 00 	mov    0xb8(%rsp),%rax
    4ff0:	00 
    4ff1:	45 31 c9             	xor    %r9d,%r9d
    4ff4:	44 8b 9c 24 9c 00 00 	mov    0x9c(%rsp),%r11d
    4ffb:	00 
    4ffc:	48 29 c8             	sub    %rcx,%rax
    4fff:	48 89 44 24 58       	mov    %rax,0x58(%rsp)
    5004:	48 8b 84 24 90 00 00 	mov    0x90(%rsp),%rax
    500b:	00 
    500c:	41 c1 eb 02          	shr    $0x2,%r11d
    5010:	41 83 c3 01          	add    $0x1,%r11d
    5014:	48 c1 e0 02          	shl    $0x2,%rax
    5018:	48 89 44 24 18       	mov    %rax,0x18(%rsp)
    501d:	48 8b 44 24 08       	mov    0x8(%rsp),%rax
    5022:	44 89 5c 24 08       	mov    %r11d,0x8(%rsp)
    5027:	48 83 c0 04          	add    $0x4,%rax
    502b:	48 8d 14 01          	lea    (%rcx,%rax,1),%rdx
    502f:	48 89 54 24 48       	mov    %rdx,0x48(%rsp)
    5034:	42 8d 14 9d 00 00 00 	lea    0x0(,%r11,4),%edx
    503b:	00 
    503c:	49 89 d7             	mov    %rdx,%r15
    503f:	89 54 24 64          	mov    %edx,0x64(%rsp)
    5043:	48 c1 e2 02          	shl    $0x2,%rdx
    5047:	48 89 54 24 68       	mov    %rdx,0x68(%rsp)
    504c:	48 01 f2             	add    %rsi,%rdx
    504f:	48 89 94 24 88 00 00 	mov    %rdx,0x88(%rsp)
    5056:	00 
    5057:	48 8b 54 24 28       	mov    0x28(%rsp),%rdx
    505c:	48 01 d0             	add    %rdx,%rax
    505f:	48 89 44 24 40       	mov    %rax,0x40(%rsp)
    5064:	48 89 c8             	mov    %rcx,%rax
    5067:	8b 4c 24 14          	mov    0x14(%rsp),%ecx
    506b:	44 29 f9             	sub    %r15d,%ecx
    506e:	89 8c 24 98 00 00 00 	mov    %ecx,0x98(%rsp)
    5075:	44 3b 4c 24 30       	cmp    0x30(%rsp),%r9d
    507a:	0f 84 db 01 00 00    	je     525b <riscv_dsp_mat_inv_f32+0x4eb>
    5080:	48 89 c1             	mov    %rax,%rcx
    5083:	48 2b 4c 24 48       	sub    0x48(%rsp),%rcx
    5088:	f3 0f 10 00          	movss  (%rax),%xmm0
    508c:	48 83 f9 08          	cmp    $0x8,%rcx
    5090:	0f 86 7a 02 00 00    	jbe    5310 <riscv_dsp_mat_inv_f32+0x5a0>
    5096:	83 7c 24 14 01       	cmpl   $0x1,0x14(%rsp)
    509b:	0f 84 6f 02 00 00    	je     5310 <riscv_dsp_mat_inv_f32+0x5a0>
    50a1:	83 7c 24 34 02       	cmpl   $0x2,0x34(%rsp)
    50a6:	0f 86 af 02 00 00    	jbe    535b <riscv_dsp_mat_inv_f32+0x5eb>
    50ac:	44 8b 5c 24 08       	mov    0x8(%rsp),%r11d
    50b1:	0f 28 e0             	movaps %xmm0,%xmm4
    50b4:	31 c9                	xor    %ecx,%ecx
    50b6:	45 31 c0             	xor    %r8d,%r8d
    50b9:	0f c6 e4 00          	shufps $0x0,%xmm4,%xmm4
    50bd:	0f 1f 00             	nopl   (%rax)
    50c0:	0f 10 14 0e          	movups (%rsi,%rcx,1),%xmm2
    50c4:	0f 10 0c 08          	movups (%rax,%rcx,1),%xmm1
    50c8:	41 83 c0 01          	add    $0x1,%r8d
    50cc:	0f 59 d4             	mulps  %xmm4,%xmm2
    50cf:	0f 5c ca             	subps  %xmm2,%xmm1
    50d2:	0f 11 0c 08          	movups %xmm1,(%rax,%rcx,1)
    50d6:	48 83 c1 10          	add    $0x10,%rcx
    50da:	45 39 c3             	cmp    %r8d,%r11d
    50dd:	77 e1                	ja     50c0 <riscv_dsp_mat_inv_f32+0x350>
    50df:	48 8b 4c 24 68       	mov    0x68(%rsp),%rcx
    50e4:	44 8b 44 24 64       	mov    0x64(%rsp),%r8d
    50e9:	44 89 5c 24 08       	mov    %r11d,0x8(%rsp)
    50ee:	48 01 c1             	add    %rax,%rcx
    50f1:	44 39 44 24 14       	cmp    %r8d,0x14(%rsp)
    50f6:	74 6f                	je     5167 <riscv_dsp_mat_inv_f32+0x3f7>
    50f8:	44 8b 9c 24 98 00 00 	mov    0x98(%rsp),%r11d
    50ff:	00 
    5100:	4c 8b 94 24 88 00 00 	mov    0x88(%rsp),%r10
    5107:	00 
    5108:	45 89 df             	mov    %r11d,%r15d
    510b:	41 83 fb 01          	cmp    $0x1,%r11d
    510f:	74 41                	je     5152 <riscv_dsp_mat_inv_f32+0x3e2>
    5111:	4c 8b 5c 24 20       	mov    0x20(%rsp),%r11
    5116:	4e 8d 34 80          	lea    (%rax,%r8,4),%r14
    511a:	49 01 e8             	add    %rbp,%r8
    511d:	0f 28 e0             	movaps %xmm0,%xmm4
    5120:	0f c6 e4 e0          	shufps $0xe0,%xmm4,%xmm4
    5124:	f3 41 0f 7e 0e       	movq   (%r14),%xmm1
    5129:	f3 43 0f 7e 14 83    	movq   (%r11,%r8,4),%xmm2
    512f:	0f 59 d4             	mulps  %xmm4,%xmm2
    5132:	0f 5c ca             	subps  %xmm2,%xmm1
    5135:	41 0f 13 0e          	movlps %xmm1,(%r14)
    5139:	45 89 fe             	mov    %r15d,%r14d
    513c:	41 83 e6 fe          	and    $0xfffffffe,%r14d
    5140:	45 89 f0             	mov    %r14d,%r8d
    5143:	49 c1 e0 02          	shl    $0x2,%r8
    5147:	4c 01 c1             	add    %r8,%rcx
    514a:	4d 01 c2             	add    %r8,%r10
    514d:	45 39 f7             	cmp    %r14d,%r15d
    5150:	74 15                	je     5167 <riscv_dsp_mat_inv_f32+0x3f7>
    5152:	f3 41 0f 10 12       	movss  (%r10),%xmm2
    5157:	f3 0f 10 09          	movss  (%rcx),%xmm1
    515b:	f3 0f 59 d0          	mulss  %xmm0,%xmm2
    515f:	f3 0f 5c ca          	subss  %xmm2,%xmm1
    5163:	f3 0f 11 09          	movss  %xmm1,(%rcx)
    5167:	48 89 d1             	mov    %rdx,%rcx
    516a:	48 2b 4c 24 40       	sub    0x40(%rsp),%rcx
    516f:	48 03 44 24 38       	add    0x38(%rsp),%rax
    5174:	48 83 f9 08          	cmp    $0x8,%rcx
    5178:	0f 86 4a 01 00 00    	jbe    52c8 <riscv_dsp_mat_inv_f32+0x558>
    517e:	83 fb 01             	cmp    $0x1,%ebx
    5181:	0f 84 41 01 00 00    	je     52c8 <riscv_dsp_mat_inv_f32+0x558>
    5187:	41 83 fd 02          	cmp    $0x2,%r13d
    518b:	0f 86 b9 01 00 00    	jbe    534a <riscv_dsp_mat_inv_f32+0x5da>
    5191:	44 8b 5c 24 08       	mov    0x8(%rsp),%r11d
    5196:	0f 28 e0             	movaps %xmm0,%xmm4
    5199:	31 c9                	xor    %ecx,%ecx
    519b:	0f c6 e4 00          	shufps $0x0,%xmm4,%xmm4
    519f:	90                   	nop
    51a0:	0f 10 14 0f          	movups (%rdi,%rcx,1),%xmm2
    51a4:	0f 10 0c 0a          	movups (%rdx,%rcx,1),%xmm1
    51a8:	0f 59 d4             	mulps  %xmm4,%xmm2
    51ab:	0f 5c ca             	subps  %xmm2,%xmm1
    51ae:	0f 11 0c 0a          	movups %xmm1,(%rdx,%rcx,1)
    51b2:	48 83 c1 10          	add    $0x10,%rcx
    51b6:	4c 39 e1             	cmp    %r12,%rcx
    51b9:	75 e5                	jne    51a0 <riscv_dsp_mat_inv_f32+0x430>
    51bb:	48 8b 4c 24 70       	mov    0x70(%rsp),%rcx
    51c0:	44 8b 44 24 60       	mov    0x60(%rsp),%r8d
    51c5:	44 89 5c 24 08       	mov    %r11d,0x8(%rsp)
    51ca:	48 01 d1             	add    %rdx,%rcx
    51cd:	44 39 c3             	cmp    %r8d,%ebx
    51d0:	74 68                	je     523a <riscv_dsp_mat_inv_f32+0x4ca>
    51d2:	44 8b 94 24 a8 00 00 	mov    0xa8(%rsp),%r10d
    51d9:	00 
    51da:	41 83 fa 01          	cmp    $0x1,%r10d
    51de:	45 89 d7             	mov    %r10d,%r15d
    51e1:	4c 8b 54 24 78       	mov    0x78(%rsp),%r10
    51e6:	74 41                	je     5229 <riscv_dsp_mat_inv_f32+0x4b9>
    51e8:	4c 8b 5c 24 28       	mov    0x28(%rsp),%r11
    51ed:	4e 8d 34 82          	lea    (%rdx,%r8,4),%r14
    51f1:	49 01 e8             	add    %rbp,%r8
    51f4:	0f 28 e0             	movaps %xmm0,%xmm4
    51f7:	0f c6 e4 e0          	shufps $0xe0,%xmm4,%xmm4
    51fb:	f3 41 0f 7e 0e       	movq   (%r14),%xmm1
    5200:	f3 43 0f 7e 14 83    	movq   (%r11,%r8,4),%xmm2
    5206:	0f 59 d4             	mulps  %xmm4,%xmm2
    5209:	0f 5c ca             	subps  %xmm2,%xmm1
    520c:	41 0f 13 0e          	movlps %xmm1,(%r14)
    5210:	45 89 fe             	mov    %r15d,%r14d
    5213:	41 83 e6 fe          	and    $0xfffffffe,%r14d
    5217:	45 89 f0             	mov    %r14d,%r8d
    521a:	49 c1 e0 02          	shl    $0x2,%r8
    521e:	4c 01 c1             	add    %r8,%rcx
    5221:	4d 01 c2             	add    %r8,%r10
    5224:	45 39 f7             	cmp    %r14d,%r15d
    5227:	74 11                	je     523a <riscv_dsp_mat_inv_f32+0x4ca>
    5229:	f3 41 0f 59 02       	mulss  (%r10),%xmm0
    522e:	f3 0f 10 09          	movss  (%rcx),%xmm1
    5232:	f3 0f 5c c8          	subss  %xmm0,%xmm1
    5236:	f3 0f 11 09          	movss  %xmm1,(%rcx)
    523a:	48 03 54 24 50       	add    0x50(%rsp),%rdx
    523f:	48 03 44 24 18       	add    0x18(%rsp),%rax
    5244:	41 8d 49 01          	lea    0x1(%r9),%ecx
    5248:	45 39 e9             	cmp    %r13d,%r9d
    524b:	74 29                	je     5276 <riscv_dsp_mat_inv_f32+0x506>
    524d:	41 89 c9             	mov    %ecx,%r9d
    5250:	44 3b 4c 24 30       	cmp    0x30(%rsp),%r9d
    5255:	0f 85 25 fe ff ff    	jne    5080 <riscv_dsp_mat_inv_f32+0x310>
    525b:	48 03 44 24 58       	add    0x58(%rsp),%rax
    5260:	48 03 94 24 80 00 00 	add    0x80(%rsp),%rdx
    5267:	00 
    5268:	41 8d 49 01          	lea    0x1(%r9),%ecx
    526c:	48 03 44 24 18       	add    0x18(%rsp),%rax
    5271:	45 39 e9             	cmp    %r13d,%r9d
    5274:	75 d7                	jne    524d <riscv_dsp_mat_inv_f32+0x4dd>
    5276:	48 83 44 24 20 04    	addq   $0x4,0x20(%rsp)
    527c:	48 83 84 24 90 00 00 	addq   $0x1,0x90(%rsp)
    5283:	00 01 
    5285:	83 6c 24 34 01       	subl   $0x1,0x34(%rsp)
    528a:	01 9c 24 ac 00 00 00 	add    %ebx,0xac(%rsp)
    5291:	48 83 6c 24 38 04    	subq   $0x4,0x38(%rsp)
    5297:	83 ac 24 9c 00 00 00 	subl   $0x1,0x9c(%rsp)
    529e:	01 
    529f:	48 83 ac 24 a0 00 00 	subq   $0x1,0xa0(%rsp)
    52a6:	00 01 
    52a8:	0f 85 da fb ff ff    	jne    4e88 <riscv_dsp_mat_inv_f32+0x118>
    52ae:	31 c0                	xor    %eax,%eax
    52b0:	48 81 c4 c8 00 00 00 	add    $0xc8,%rsp
    52b7:	5b                   	pop    %rbx
    52b8:	5d                   	pop    %rbp
    52b9:	41 5c                	pop    %r12
    52bb:	41 5d                	pop    %r13
    52bd:	41 5e                	pop    %r14
    52bf:	41 5f                	pop    %r15
    52c1:	c3                   	ret    
    52c2:	66 0f 1f 44 00 00    	nopw   0x0(%rax,%rax,1)
    52c8:	44 8b 5c 24 08       	mov    0x8(%rsp),%r11d
    52cd:	4c 8b 84 24 b0 00 00 	mov    0xb0(%rsp),%r8
    52d4:	00 
    52d5:	31 c9                	xor    %ecx,%ecx
    52d7:	66 0f 1f 84 00 00 00 	nopw   0x0(%rax,%rax,1)
    52de:	00 00 
    52e0:	f3 0f 10 14 8f       	movss  (%rdi,%rcx,4),%xmm2
    52e5:	f3 0f 10 0c 8a       	movss  (%rdx,%rcx,4),%xmm1
    52ea:	f3 0f 59 d0          	mulss  %xmm0,%xmm2
    52ee:	f3 0f 5c ca          	subss  %xmm2,%xmm1
    52f2:	f3 0f 11 0c 8a       	movss  %xmm1,(%rdx,%rcx,4)
    52f7:	48 83 c1 01          	add    $0x1,%rcx
    52fb:	49 39 c8             	cmp    %rcx,%r8
    52fe:	75 e0                	jne    52e0 <riscv_dsp_mat_inv_f32+0x570>
    5300:	44 89 5c 24 08       	mov    %r11d,0x8(%rsp)
    5305:	e9 30 ff ff ff       	jmp    523a <riscv_dsp_mat_inv_f32+0x4ca>
    530a:	66 0f 1f 44 00 00    	nopw   0x0(%rax,%rax,1)
    5310:	44 8b 5c 24 08       	mov    0x8(%rsp),%r11d
    5315:	4c 8b 84 24 a0 00 00 	mov    0xa0(%rsp),%r8
    531c:	00 
    531d:	31 c9                	xor    %ecx,%ecx
    531f:	90                   	nop
    5320:	f3 0f 10 14 8e       	movss  (%rsi,%rcx,4),%xmm2
    5325:	f3 0f 10 0c 88       	movss  (%rax,%rcx,4),%xmm1
    532a:	f3 0f 59 d0          	mulss  %xmm0,%xmm2
    532e:	f3 0f 5c ca          	subss  %xmm2,%xmm1
    5332:	f3 0f 11 0c 88       	movss  %xmm1,(%rax,%rcx,4)
    5337:	48 83 c1 01          	add    $0x1,%rcx
    533b:	49 39 c8             	cmp    %rcx,%r8
    533e:	75 e0                	jne    5320 <riscv_dsp_mat_inv_f32+0x5b0>
    5340:	44 89 5c 24 08       	mov    %r11d,0x8(%rsp)
    5345:	e9 1d fe ff ff       	jmp    5167 <riscv_dsp_mat_inv_f32+0x3f7>
    534a:	41 89 df             	mov    %ebx,%r15d
    534d:	48 89 d1             	mov    %rdx,%rcx
    5350:	49 89 fa             	mov    %rdi,%r10
    5353:	45 31 c0             	xor    %r8d,%r8d
    5356:	e9 8d fe ff ff       	jmp    51e8 <riscv_dsp_mat_inv_f32+0x478>
    535b:	44 8b 7c 24 14       	mov    0x14(%rsp),%r15d
    5360:	49 89 f2             	mov    %rsi,%r10
    5363:	48 89 c1             	mov    %rax,%rcx
    5366:	45 31 c0             	xor    %r8d,%r8d
    5369:	e9 a3 fd ff ff       	jmp    5111 <riscv_dsp_mat_inv_f32+0x3a1>
    536e:	41 39 c5             	cmp    %eax,%r13d
    5371:	0f 84 12 02 00 00    	je     5589 <riscv_dsp_mat_inv_f32+0x819>
    5377:	41 89 d8             	mov    %ebx,%r8d
    537a:	eb 15                	jmp    5391 <riscv_dsp_mat_inv_f32+0x621>
    537c:	0f 1f 40 00          	nopl   0x0(%rax)
    5380:	8d 41 01             	lea    0x1(%rcx),%eax
    5383:	41 01 d8             	add    %ebx,%r8d
    5386:	44 39 e9             	cmp    %r13d,%ecx
    5389:	0f 84 fa 01 00 00    	je     5589 <riscv_dsp_mat_inv_f32+0x819>
    538f:	89 c1                	mov    %eax,%ecx
    5391:	44 89 c0             	mov    %r8d,%eax
    5394:	48 c1 e0 02          	shl    $0x2,%rax
    5398:	48 8d 14 06          	lea    (%rsi,%rax,1),%rdx
    539c:	0f 2e 1a             	ucomiss (%rdx),%xmm3
    539f:	7a 02                	jp     53a3 <riscv_dsp_mat_inv_f32+0x633>
    53a1:	74 dd                	je     5380 <riscv_dsp_mat_inv_f32+0x610>
    53a3:	48 8b 4c 24 08       	mov    0x8(%rsp),%rcx
    53a8:	4c 8b bc 24 a0 00 00 	mov    0xa0(%rsp),%r15
    53af:	00 
    53b0:	4c 8d 71 10          	lea    0x10(%rcx),%r14
    53b4:	48 8b 4c 24 20       	mov    0x20(%rsp),%rcx
    53b9:	44 89 7c 24 14       	mov    %r15d,0x14(%rsp)
    53be:	4c 01 f1             	add    %r14,%rcx
    53c1:	48 39 ca             	cmp    %rcx,%rdx
    53c4:	48 8d 4a 10          	lea    0x10(%rdx),%rcx
    53c8:	41 0f 93 c0          	setae  %r8b
    53cc:	48 39 ce             	cmp    %rcx,%rsi
    53cf:	0f 93 c1             	setae  %cl
    53d2:	44 08 c1             	or     %r8b,%cl
    53d5:	0f 84 c2 01 00 00    	je     559d <riscv_dsp_mat_inv_f32+0x82d>
    53db:	41 83 ff 01          	cmp    $0x1,%r15d
    53df:	0f 84 b8 01 00 00    	je     559d <riscv_dsp_mat_inv_f32+0x82d>
    53e5:	83 7c 24 34 02       	cmpl   $0x2,0x34(%rsp)
    53ea:	0f 86 36 02 00 00    	jbe    5626 <riscv_dsp_mat_inv_f32+0x8b6>
    53f0:	44 8b 8c 24 9c 00 00 	mov    0x9c(%rsp),%r9d
    53f7:	00 
    53f8:	31 c9                	xor    %ecx,%ecx
    53fa:	45 31 c0             	xor    %r8d,%r8d
    53fd:	41 c1 e9 02          	shr    $0x2,%r9d
    5401:	41 83 c1 01          	add    $0x1,%r9d
    5405:	0f 1f 00             	nopl   (%rax)
    5408:	0f 10 04 0a          	movups (%rdx,%rcx,1),%xmm0
    540c:	0f 10 2c 0e          	movups (%rsi,%rcx,1),%xmm5
    5410:	41 83 c0 01          	add    $0x1,%r8d
    5414:	0f 11 2c 0a          	movups %xmm5,(%rdx,%rcx,1)
    5418:	0f 11 04 0e          	movups %xmm0,(%rsi,%rcx,1)
    541c:	48 83 c1 10          	add    $0x10,%rcx
    5420:	45 39 c8             	cmp    %r9d,%r8d
    5423:	72 e3                	jb     5408 <riscv_dsp_mat_inv_f32+0x698>
    5425:	46 8d 14 8d 00 00 00 	lea    0x0(,%r9,4),%r10d
    542c:	00 
    542d:	44 8b 7c 24 14       	mov    0x14(%rsp),%r15d
    5432:	4a 8d 0c 95 00 00 00 	lea    0x0(,%r10,4),%rcx
    5439:	00 
    543a:	4c 8d 04 0e          	lea    (%rsi,%rcx,1),%r8
    543e:	48 01 d1             	add    %rdx,%rcx
    5441:	45 39 d7             	cmp    %r10d,%r15d
    5444:	74 53                	je     5499 <riscv_dsp_mat_inv_f32+0x729>
    5446:	45 29 d7             	sub    %r10d,%r15d
    5449:	45 89 fb             	mov    %r15d,%r11d
    544c:	41 83 ff 01          	cmp    $0x1,%r15d
    5450:	74 35                	je     5487 <riscv_dsp_mat_inv_f32+0x717>
    5452:	4c 8b 7c 24 20       	mov    0x20(%rsp),%r15
    5457:	4a 8d 14 92          	lea    (%rdx,%r10,4),%rdx
    545b:	49 01 ea             	add    %rbp,%r10
    545e:	4f 8d 0c 97          	lea    (%r15,%r10,4),%r9
    5462:	4c 8b 12             	mov    (%rdx),%r10
    5465:	4d 8b 39             	mov    (%r9),%r15
    5468:	4c 89 3a             	mov    %r15,(%rdx)
    546b:	4d 89 11             	mov    %r10,(%r9)
    546e:	45 89 d9             	mov    %r11d,%r9d
    5471:	41 83 e1 fe          	and    $0xfffffffe,%r9d
    5475:	44 89 ca             	mov    %r9d,%edx
    5478:	48 c1 e2 02          	shl    $0x2,%rdx
    547c:	49 01 d0             	add    %rdx,%r8
    547f:	48 01 d1             	add    %rdx,%rcx
    5482:	45 39 cb             	cmp    %r9d,%r11d
    5485:	74 12                	je     5499 <riscv_dsp_mat_inv_f32+0x729>
    5487:	f3 0f 10 01          	movss  (%rcx),%xmm0
    548b:	f3 41 0f 10 08       	movss  (%r8),%xmm1
    5490:	f3 0f 11 09          	movss  %xmm1,(%rcx)
    5494:	f3 41 0f 11 00       	movss  %xmm0,(%r8)
    5499:	48 8b 4c 24 08       	mov    0x8(%rsp),%rcx
    549e:	4c 8d 04 07          	lea    (%rdi,%rax,1),%r8
    54a2:	4c 8d 0c 01          	lea    (%rcx,%rax,1),%r9
    54a6:	49 8d 51 10          	lea    0x10(%r9),%rdx
    54aa:	48 39 ca             	cmp    %rcx,%rdx
    54ad:	0f 9e c1             	setle  %cl
    54b0:	4d 39 ce             	cmp    %r9,%r14
    54b3:	0f 9e c2             	setle  %dl
    54b6:	08 ca                	or     %cl,%dl
    54b8:	0f 84 0f 01 00 00    	je     55cd <riscv_dsp_mat_inv_f32+0x85d>
    54be:	83 fb 01             	cmp    $0x1,%ebx
    54c1:	0f 84 06 01 00 00    	je     55cd <riscv_dsp_mat_inv_f32+0x85d>
    54c7:	41 83 fd 02          	cmp    $0x2,%r13d
    54cb:	0f 86 3b 01 00 00    	jbe    560c <riscv_dsp_mat_inv_f32+0x89c>
    54d1:	48 8b 54 24 28       	mov    0x28(%rsp),%rdx
    54d6:	4a 8d 0c 0a          	lea    (%rdx,%r9,1),%rcx
    54da:	31 d2                	xor    %edx,%edx
    54dc:	0f 1f 40 00          	nopl   0x0(%rax)
    54e0:	0f 10 04 11          	movups (%rcx,%rdx,1),%xmm0
    54e4:	0f 10 34 17          	movups (%rdi,%rdx,1),%xmm6
    54e8:	0f 11 34 11          	movups %xmm6,(%rcx,%rdx,1)
    54ec:	0f 11 04 17          	movups %xmm0,(%rdi,%rdx,1)
    54f0:	48 83 c2 10          	add    $0x10,%rdx
    54f4:	49 39 d4             	cmp    %rdx,%r12
    54f7:	75 e7                	jne    54e0 <riscv_dsp_mat_inv_f32+0x770>
    54f9:	4c 8b 7c 24 70       	mov    0x70(%rsp),%r15
    54fe:	4a 8d 14 3f          	lea    (%rdi,%r15,1),%rdx
    5502:	4d 01 f8             	add    %r15,%r8
    5505:	48 89 54 24 78       	mov    %rdx,0x78(%rsp)
    550a:	48 89 d1             	mov    %rdx,%rcx
    550d:	8b 54 24 60          	mov    0x60(%rsp),%edx
    5511:	39 d3                	cmp    %edx,%ebx
    5513:	74 5b                	je     5570 <riscv_dsp_mat_inv_f32+0x800>
    5515:	44 8b bc 24 a8 00 00 	mov    0xa8(%rsp),%r15d
    551c:	00 
    551d:	45 89 f9             	mov    %r15d,%r9d
    5520:	41 83 ff 01          	cmp    $0x1,%r15d
    5524:	74 38                	je     555e <riscv_dsp_mat_inv_f32+0x7ee>
    5526:	48 01 ea             	add    %rbp,%rdx
    5529:	4c 8b 7c 24 28       	mov    0x28(%rsp),%r15
    552e:	48 c1 e2 02          	shl    $0x2,%rdx
    5532:	48 01 d0             	add    %rdx,%rax
    5535:	4c 01 fa             	add    %r15,%rdx
    5538:	4c 01 f8             	add    %r15,%rax
    553b:	4c 8b 1a             	mov    (%rdx),%r11
    553e:	4c 8b 10             	mov    (%rax),%r10
    5541:	4c 89 18             	mov    %r11,(%rax)
    5544:	4c 89 12             	mov    %r10,(%rdx)
    5547:	44 89 ca             	mov    %r9d,%edx
    554a:	83 e2 fe             	and    $0xfffffffe,%edx
    554d:	89 d0                	mov    %edx,%eax
    554f:	48 c1 e0 02          	shl    $0x2,%rax
    5553:	48 01 c1             	add    %rax,%rcx
    5556:	49 01 c0             	add    %rax,%r8
    5559:	41 39 d1             	cmp    %edx,%r9d
    555c:	74 12                	je     5570 <riscv_dsp_mat_inv_f32+0x800>
    555e:	f3 41 0f 10 00       	movss  (%r8),%xmm0
    5563:	f3 0f 10 09          	movss  (%rcx),%xmm1
    5567:	f3 41 0f 11 08       	movss  %xmm1,(%r8)
    556c:	f3 0f 11 01          	movss  %xmm0,(%rcx)
    5570:	83 7c 24 34 02       	cmpl   $0x2,0x34(%rsp)
    5575:	f3 0f 10 0e          	movss  (%rsi),%xmm1
    5579:	0f 87 6e f9 ff ff    	ja     4eed <riscv_dsp_mat_inv_f32+0x17d>
    557f:	48 89 f0             	mov    %rsi,%rax
    5582:	31 c9                	xor    %ecx,%ecx
    5584:	e9 b0 f9 ff ff       	jmp    4f39 <riscv_dsp_mat_inv_f32+0x1c9>
    5589:	b8 ff ff ff ff       	mov    $0xffffffff,%eax
    558e:	e9 1d fd ff ff       	jmp    52b0 <riscv_dsp_mat_inv_f32+0x540>
    5593:	48 89 f8             	mov    %rdi,%rax
    5596:	31 d2                	xor    %edx,%edx
    5598:	e9 13 fa ff ff       	jmp    4fb0 <riscv_dsp_mat_inv_f32+0x240>
    559d:	48 8b 4c 24 38       	mov    0x38(%rsp),%rcx
    55a2:	4c 8d 04 0e          	lea    (%rsi,%rcx,1),%r8
    55a6:	48 89 f1             	mov    %rsi,%rcx
    55a9:	f3 0f 10 02          	movss  (%rdx),%xmm0
    55ad:	f3 0f 10 09          	movss  (%rcx),%xmm1
    55b1:	48 83 c1 04          	add    $0x4,%rcx
    55b5:	48 83 c2 04          	add    $0x4,%rdx
    55b9:	f3 0f 11 4a fc       	movss  %xmm1,-0x4(%rdx)
    55be:	f3 0f 11 41 fc       	movss  %xmm0,-0x4(%rcx)
    55c3:	49 39 c8             	cmp    %rcx,%r8
    55c6:	75 e1                	jne    55a9 <riscv_dsp_mat_inv_f32+0x839>
    55c8:	e9 cc fe ff ff       	jmp    5499 <riscv_dsp_mat_inv_f32+0x729>
    55cd:	48 8b 44 24 50       	mov    0x50(%rsp),%rax
    55d2:	48 8d 14 07          	lea    (%rdi,%rax,1),%rdx
    55d6:	48 89 f8             	mov    %rdi,%rax
    55d9:	f3 41 0f 10 00       	movss  (%r8),%xmm0
    55de:	f3 0f 10 08          	movss  (%rax),%xmm1
    55e2:	48 83 c0 04          	add    $0x4,%rax
    55e6:	49 83 c0 04          	add    $0x4,%r8
    55ea:	f3 41 0f 11 48 fc    	movss  %xmm1,-0x4(%r8)
    55f0:	f3 0f 11 40 fc       	movss  %xmm0,-0x4(%rax)
    55f5:	48 39 d0             	cmp    %rdx,%rax
    55f8:	75 df                	jne    55d9 <riscv_dsp_mat_inv_f32+0x869>
    55fa:	48 8b 44 24 70       	mov    0x70(%rsp),%rax
    55ff:	48 01 f8             	add    %rdi,%rax
    5602:	48 89 44 24 78       	mov    %rax,0x78(%rsp)
    5607:	e9 64 ff ff ff       	jmp    5570 <riscv_dsp_mat_inv_f32+0x800>
    560c:	4c 8b 7c 24 70       	mov    0x70(%rsp),%r15
    5611:	41 89 d9             	mov    %ebx,%r9d
    5614:	48 89 f9             	mov    %rdi,%rcx
    5617:	31 d2                	xor    %edx,%edx
    5619:	49 01 ff             	add    %rdi,%r15
    561c:	4c 89 7c 24 78       	mov    %r15,0x78(%rsp)
    5621:	e9 00 ff ff ff       	jmp    5526 <riscv_dsp_mat_inv_f32+0x7b6>
    5626:	44 8b 9c 24 a0 00 00 	mov    0xa0(%rsp),%r11d
    562d:	00 
    562e:	48 89 d1             	mov    %rdx,%rcx
    5631:	49 89 f0             	mov    %rsi,%r8
    5634:	45 31 d2             	xor    %r10d,%r10d
    5637:	e9 16 fe ff ff       	jmp    5452 <riscv_dsp_mat_inv_f32+0x6e2>
    563c:	0f 1f 40 00          	nopl   0x0(%rax)

0000000000005640 <riscv_dsp_mat_mul_f32>:
    5640:	f3 0f 1e fa          	endbr64 
    5644:	41 57                	push   %r15
    5646:	49 89 d3             	mov    %rdx,%r11
    5649:	44 89 c2             	mov    %r8d,%edx
    564c:	48 89 f8             	mov    %rdi,%rax
    564f:	41 56                	push   %r14
    5651:	49 89 f2             	mov    %rsi,%r10
    5654:	83 ea 01             	sub    $0x1,%edx
    5657:	41 55                	push   %r13
    5659:	41 54                	push   %r12
    565b:	55                   	push   %rbp
    565c:	53                   	push   %rbx
    565d:	89 cb                	mov    %ecx,%ebx
    565f:	44 89 c9             	mov    %r9d,%ecx
    5662:	49 89 cc             	mov    %rcx,%r12
    5665:	48 c1 e1 02          	shl    $0x2,%rcx
    5669:	41 83 fc 01          	cmp    $0x1,%r12d
    566d:	75 63                	jne    56d2 <riscv_dsp_mat_mul_f32+0x92>
    566f:	48 8d 2c 95 04 00 00 	lea    0x4(,%rdx,4),%rbp
    5676:	00 
    5677:	66 0f ef d2          	pxor   %xmm2,%xmm2
    567b:	4c 8d 04 2f          	lea    (%rdi,%rbp,1),%r8
    567f:	31 ff                	xor    %edi,%edi
    5681:	4c 89 c6             	mov    %r8,%rsi
    5684:	0f 1f 40 00          	nopl   0x0(%rax)
    5688:	89 fa                	mov    %edi,%edx
    568a:	0f 28 ca             	movaps %xmm2,%xmm1
    568d:	4d 8d 0c 93          	lea    (%r11,%rdx,4),%r9
    5691:	4c 89 d2             	mov    %r10,%rdx
    5694:	0f 1f 40 00          	nopl   0x0(%rax)
    5698:	f3 0f 10 00          	movss  (%rax),%xmm0
    569c:	f3 0f 59 02          	mulss  (%rdx),%xmm0
    56a0:	48 83 c0 04          	add    $0x4,%rax
    56a4:	48 01 ca             	add    %rcx,%rdx
    56a7:	f3 0f 58 c8          	addss  %xmm0,%xmm1
    56ab:	48 39 f0             	cmp    %rsi,%rax
    56ae:	75 e8                	jne    5698 <riscv_dsp_mat_mul_f32+0x58>
    56b0:	83 c7 01             	add    $0x1,%edi
    56b3:	f3 41 0f 11 09       	movss  %xmm1,(%r9)
    56b8:	4c 89 c0             	mov    %r8,%rax
    56bb:	48 01 ee             	add    %rbp,%rsi
    56be:	39 fb                	cmp    %edi,%ebx
    56c0:	74 05                	je     56c7 <riscv_dsp_mat_mul_f32+0x87>
    56c2:	49 01 e8             	add    %rbp,%r8
    56c5:	eb c1                	jmp    5688 <riscv_dsp_mat_mul_f32+0x48>
    56c7:	5b                   	pop    %rbx
    56c8:	5d                   	pop    %rbp
    56c9:	41 5c                	pop    %r12
    56cb:	41 5d                	pop    %r13
    56cd:	41 5e                	pop    %r14
    56cf:	41 5f                	pop    %r15
    56d1:	c3                   	ret    
    56d2:	4c 8d 3c 95 04 00 00 	lea    0x4(,%rdx,4),%r15
    56d9:	00 
    56da:	45 31 f6             	xor    %r14d,%r14d
    56dd:	66 0f ef d2          	pxor   %xmm2,%xmm2
    56e1:	4e 8d 2c 3f          	lea    (%rdi,%r15,1),%r13
    56e5:	41 8d 6c 24 ff       	lea    -0x1(%r12),%ebp
    56ea:	4c 89 ef             	mov    %r13,%rdi
    56ed:	44 89 f2             	mov    %r14d,%edx
    56f0:	4c 89 d6             	mov    %r10,%rsi
    56f3:	45 31 c0             	xor    %r8d,%r8d
    56f6:	4d 8d 0c 93          	lea    (%r11,%rdx,4),%r9
    56fa:	66 0f 1f 44 00 00    	nopw   0x0(%rax,%rax,1)
    5700:	48 89 c2             	mov    %rax,%rdx
    5703:	0f 28 ca             	movaps %xmm2,%xmm1
    5706:	66 2e 0f 1f 84 00 00 	cs nopw 0x0(%rax,%rax,1)
    570d:	00 00 00 
    5710:	f3 0f 10 02          	movss  (%rdx),%xmm0
    5714:	f3 0f 59 06          	mulss  (%rsi),%xmm0
    5718:	48 83 c2 04          	add    $0x4,%rdx
    571c:	48 01 ce             	add    %rcx,%rsi
    571f:	f3 0f 58 c8          	addss  %xmm0,%xmm1
    5723:	48 39 fa             	cmp    %rdi,%rdx
    5726:	75 e8                	jne    5710 <riscv_dsp_mat_mul_f32+0xd0>
    5728:	41 8d 50 01          	lea    0x1(%r8),%edx
    572c:	f3 43 0f 11 0c 81    	movss  %xmm1,(%r9,%r8,4)
    5732:	49 8d 34 92          	lea    (%r10,%rdx,4),%rsi
    5736:	49 8d 50 01          	lea    0x1(%r8),%rdx
    573a:	49 39 e8             	cmp    %rbp,%r8
    573d:	74 05                	je     5744 <riscv_dsp_mat_mul_f32+0x104>
    573f:	49 89 d0             	mov    %rdx,%r8
    5742:	eb bc                	jmp    5700 <riscv_dsp_mat_mul_f32+0xc0>
    5744:	4c 89 e8             	mov    %r13,%rax
    5747:	45 01 e6             	add    %r12d,%r14d
    574a:	4c 01 ff             	add    %r15,%rdi
    574d:	83 eb 01             	sub    $0x1,%ebx
    5750:	0f 84 71 ff ff ff    	je     56c7 <riscv_dsp_mat_mul_f32+0x87>
    5756:	4d 01 fd             	add    %r15,%r13
    5759:	eb 92                	jmp    56ed <riscv_dsp_mat_mul_f32+0xad>

Disassembly of section .fini:

000000000000575c <_fini>:
    575c:	f3 0f 1e fa          	endbr64 
    5760:	48 83 ec 08          	sub    $0x8,%rsp
    5764:	48 83 c4 08          	add    $0x8,%rsp
    5768:	c3                   	ret    
