
t_mat_qr_f32:     file format elf64-x86-64


Disassembly of section .init:

0000000000001000 <_init>:
    1000:	f3 0f 1e fa          	endbr64 
    1004:	48 83 ec 08          	sub    $0x8,%rsp
    1008:	48 8b 05 d9 3f 00 00 	mov    0x3fd9(%rip),%rax        # 4fe8 <__gmon_start__@Base>
    100f:	48 85 c0             	test   %rax,%rax
    1012:	74 02                	je     1016 <_init+0x16>
    1014:	ff d0                	call   *%rax
    1016:	48 83 c4 08          	add    $0x8,%rsp
    101a:	c3                   	ret    

Disassembly of section .plt:

0000000000001020 <.plt>:
    1020:	ff 35 42 3f 00 00    	push   0x3f42(%rip)        # 4f68 <_GLOBAL_OFFSET_TABLE_+0x8>
    1026:	f2 ff 25 43 3f 00 00 	bnd jmp *0x3f43(%rip)        # 4f70 <_GLOBAL_OFFSET_TABLE_+0x10>
    102d:	0f 1f 00             	nopl   (%rax)
    1030:	f3 0f 1e fa          	endbr64 
    1034:	68 00 00 00 00       	push   $0x0
    1039:	f2 e9 e1 ff ff ff    	bnd jmp 1020 <_init+0x20>
    103f:	90                   	nop
    1040:	f3 0f 1e fa          	endbr64 
    1044:	68 01 00 00 00       	push   $0x1
    1049:	f2 e9 d1 ff ff ff    	bnd jmp 1020 <_init+0x20>
    104f:	90                   	nop
    1050:	f3 0f 1e fa          	endbr64 
    1054:	68 02 00 00 00       	push   $0x2
    1059:	f2 e9 c1 ff ff ff    	bnd jmp 1020 <_init+0x20>
    105f:	90                   	nop
    1060:	f3 0f 1e fa          	endbr64 
    1064:	68 03 00 00 00       	push   $0x3
    1069:	f2 e9 b1 ff ff ff    	bnd jmp 1020 <_init+0x20>
    106f:	90                   	nop
    1070:	f3 0f 1e fa          	endbr64 
    1074:	68 04 00 00 00       	push   $0x4
    1079:	f2 e9 a1 ff ff ff    	bnd jmp 1020 <_init+0x20>
    107f:	90                   	nop
    1080:	f3 0f 1e fa          	endbr64 
    1084:	68 05 00 00 00       	push   $0x5
    1089:	f2 e9 91 ff ff ff    	bnd jmp 1020 <_init+0x20>
    108f:	90                   	nop
    1090:	f3 0f 1e fa          	endbr64 
    1094:	68 06 00 00 00       	push   $0x6
    1099:	f2 e9 81 ff ff ff    	bnd jmp 1020 <_init+0x20>
    109f:	90                   	nop
    10a0:	f3 0f 1e fa          	endbr64 
    10a4:	68 07 00 00 00       	push   $0x7
    10a9:	f2 e9 71 ff ff ff    	bnd jmp 1020 <_init+0x20>
    10af:	90                   	nop
    10b0:	f3 0f 1e fa          	endbr64 
    10b4:	68 08 00 00 00       	push   $0x8
    10b9:	f2 e9 61 ff ff ff    	bnd jmp 1020 <_init+0x20>
    10bf:	90                   	nop
    10c0:	f3 0f 1e fa          	endbr64 
    10c4:	68 09 00 00 00       	push   $0x9
    10c9:	f2 e9 51 ff ff ff    	bnd jmp 1020 <_init+0x20>
    10cf:	90                   	nop
    10d0:	f3 0f 1e fa          	endbr64 
    10d4:	68 0a 00 00 00       	push   $0xa
    10d9:	f2 e9 41 ff ff ff    	bnd jmp 1020 <_init+0x20>
    10df:	90                   	nop
    10e0:	f3 0f 1e fa          	endbr64 
    10e4:	68 0b 00 00 00       	push   $0xb
    10e9:	f2 e9 31 ff ff ff    	bnd jmp 1020 <_init+0x20>
    10ef:	90                   	nop

Disassembly of section .plt.got:

00000000000010f0 <__cxa_finalize@plt>:
    10f0:	f3 0f 1e fa          	endbr64 
    10f4:	f2 ff 25 fd 3e 00 00 	bnd jmp *0x3efd(%rip)        # 4ff8 <__cxa_finalize@GLIBC_2.2.5>
    10fb:	0f 1f 44 00 00       	nopl   0x0(%rax,%rax,1)

Disassembly of section .plt.sec:

0000000000001100 <puts@plt>:
    1100:	f3 0f 1e fa          	endbr64 
    1104:	f2 ff 25 6d 3e 00 00 	bnd jmp *0x3e6d(%rip)        # 4f78 <puts@GLIBC_2.2.5>
    110b:	0f 1f 44 00 00       	nopl   0x0(%rax,%rax,1)

0000000000001110 <fread@plt>:
    1110:	f3 0f 1e fa          	endbr64 
    1114:	f2 ff 25 65 3e 00 00 	bnd jmp *0x3e65(%rip)        # 4f80 <fread@GLIBC_2.2.5>
    111b:	0f 1f 44 00 00       	nopl   0x0(%rax,%rax,1)

0000000000001120 <fclose@plt>:
    1120:	f3 0f 1e fa          	endbr64 
    1124:	f2 ff 25 5d 3e 00 00 	bnd jmp *0x3e5d(%rip)        # 4f88 <fclose@GLIBC_2.2.5>
    112b:	0f 1f 44 00 00       	nopl   0x0(%rax,%rax,1)

0000000000001130 <__stack_chk_fail@plt>:
    1130:	f3 0f 1e fa          	endbr64 
    1134:	f2 ff 25 55 3e 00 00 	bnd jmp *0x3e55(%rip)        # 4f90 <__stack_chk_fail@GLIBC_2.4>
    113b:	0f 1f 44 00 00       	nopl   0x0(%rax,%rax,1)

0000000000001140 <memset@plt>:
    1140:	f3 0f 1e fa          	endbr64 
    1144:	f2 ff 25 4d 3e 00 00 	bnd jmp *0x3e4d(%rip)        # 4f98 <memset@GLIBC_2.2.5>
    114b:	0f 1f 44 00 00       	nopl   0x0(%rax,%rax,1)

0000000000001150 <log10f@plt>:
    1150:	f3 0f 1e fa          	endbr64 
    1154:	f2 ff 25 45 3e 00 00 	bnd jmp *0x3e45(%rip)        # 4fa0 <log10f@GLIBC_2.2.5>
    115b:	0f 1f 44 00 00       	nopl   0x0(%rax,%rax,1)

0000000000001160 <memcpy@plt>:
    1160:	f3 0f 1e fa          	endbr64 
    1164:	f2 ff 25 3d 3e 00 00 	bnd jmp *0x3e3d(%rip)        # 4fa8 <memcpy@GLIBC_2.14>
    116b:	0f 1f 44 00 00       	nopl   0x0(%rax,%rax,1)

0000000000001170 <sqrtf@plt>:
    1170:	f3 0f 1e fa          	endbr64 
    1174:	f2 ff 25 35 3e 00 00 	bnd jmp *0x3e35(%rip)        # 4fb0 <sqrtf@GLIBC_2.2.5>
    117b:	0f 1f 44 00 00       	nopl   0x0(%rax,%rax,1)

0000000000001180 <__printf_chk@plt>:
    1180:	f3 0f 1e fa          	endbr64 
    1184:	f2 ff 25 2d 3e 00 00 	bnd jmp *0x3e2d(%rip)        # 4fb8 <__printf_chk@GLIBC_2.3.4>
    118b:	0f 1f 44 00 00       	nopl   0x0(%rax,%rax,1)

0000000000001190 <fopen@plt>:
    1190:	f3 0f 1e fa          	endbr64 
    1194:	f2 ff 25 25 3e 00 00 	bnd jmp *0x3e25(%rip)        # 4fc0 <fopen@GLIBC_2.2.5>
    119b:	0f 1f 44 00 00       	nopl   0x0(%rax,%rax,1)

00000000000011a0 <sqrt@plt>:
    11a0:	f3 0f 1e fa          	endbr64 
    11a4:	f2 ff 25 1d 3e 00 00 	bnd jmp *0x3e1d(%rip)        # 4fc8 <sqrt@GLIBC_2.2.5>
    11ab:	0f 1f 44 00 00       	nopl   0x0(%rax,%rax,1)

00000000000011b0 <__sprintf_chk@plt>:
    11b0:	f3 0f 1e fa          	endbr64 
    11b4:	f2 ff 25 15 3e 00 00 	bnd jmp *0x3e15(%rip)        # 4fd0 <__sprintf_chk@GLIBC_2.3.4>
    11bb:	0f 1f 44 00 00       	nopl   0x0(%rax,%rax,1)

Disassembly of section .text:

00000000000011c0 <main>:
    11c0:	f3 0f 1e fa          	endbr64 
    11c4:	41 57                	push   %r15
    11c6:	ba 00 04 00 00       	mov    $0x400,%edx
    11cb:	48 8d 3d 7c 1e 00 00 	lea    0x1e7c(%rip),%rdi        # 304e <_IO_stdin_used+0x4e>
    11d2:	41 56                	push   %r14
    11d4:	41 55                	push   %r13
    11d6:	41 54                	push   %r12
    11d8:	55                   	push   %rbp
    11d9:	48 8d 2d a0 80 00 00 	lea    0x80a0(%rip),%rbp        # 9280 <buf_A>
    11e0:	53                   	push   %rbx
    11e1:	48 89 ee             	mov    %rbp,%rsi
    11e4:	48 83 ec 18          	sub    $0x18,%rsp
    11e8:	e8 73 05 00 00       	call   1760 <read_write_buffer.constprop.0>
    11ed:	0f 28 0d 1c 20 00 00 	movaps 0x201c(%rip),%xmm1        # 3210 <_IO_stdin_used+0x210>
    11f4:	48 89 e8             	mov    %rbp,%rax
    11f7:	48 8d 95 00 10 00 00 	lea    0x1000(%rbp),%rdx
    11fe:	66 90                	xchg   %ax,%ax
    1200:	0f 28 00             	movaps (%rax),%xmm0
    1203:	48 83 c0 10          	add    $0x10,%rax
    1207:	0f 58 c1             	addps  %xmm1,%xmm0
    120a:	0f 29 40 f0          	movaps %xmm0,-0x10(%rax)
    120e:	48 39 c2             	cmp    %rax,%rdx
    1211:	75 ed                	jne    1200 <main+0x40>
    1213:	48 8d 3d 36 1f 00 00 	lea    0x1f36(%rip),%rdi        # 3150 <_IO_stdin_used+0x150>
    121a:	48 8d 1d 5f 70 00 00 	lea    0x705f(%rip),%rbx        # 8280 <out_Q>
    1221:	e8 da fe ff ff       	call   1100 <puts@plt>
    1226:	b9 20 00 00 00       	mov    $0x20,%ecx
    122b:	31 c0                	xor    %eax,%eax
    122d:	ba 20 00 00 00       	mov    $0x20,%edx
    1232:	48 8d 35 2c 1e 00 00 	lea    0x1e2c(%rip),%rsi        # 3065 <_IO_stdin_used+0x65>
    1239:	bf 01 00 00 00       	mov    $0x1,%edi
    123e:	4c 8d 25 bb 5f 00 00 	lea    0x5fbb(%rip),%r12        # 7200 <out_tau>
    1245:	e8 36 ff ff ff       	call   1180 <__printf_chk@plt>
    124a:	6a 20                	push   $0x20
    124c:	f3 0f 10 05 9c 1f 00 	movss  0x1f9c(%rip),%xmm0        # 31f0 <_IO_stdin_used+0x1f0>
    1253:	00 
    1254:	4c 8d 35 25 60 00 00 	lea    0x6025(%rip),%r14        # 7280 <out_R>
    125b:	6a 20                	push   $0x20
    125d:	4c 8d 0d 9c 5e 00 00 	lea    0x5e9c(%rip),%r9        # 7100 <tempB>
    1264:	4c 89 e1             	mov    %r12,%rcx
    1267:	48 89 da             	mov    %rbx,%rdx
    126a:	4c 8d 05 0f 5f 00 00 	lea    0x5f0f(%rip),%r8        # 7180 <tempA>
    1271:	48 89 ef             	mov    %rbp,%rdi
    1274:	4c 8d 3d 85 4e 00 00 	lea    0x4e85(%rip),%r15        # 6100 <golden_Q>
    127b:	4c 89 f6             	mov    %r14,%rsi
    127e:	4c 8d 2d 7b 3e 00 00 	lea    0x3e7b(%rip),%r13        # 5100 <golden_R>
    1285:	48 8d 2d f4 3d 00 00 	lea    0x3df4(%rip),%rbp        # 5080 <golden_tau>
    128c:	e8 8f 05 00 00       	call   1820 <riscv_dsp_mat_qr_f32>
    1291:	ba 00 04 00 00       	mov    $0x400,%edx
    1296:	4c 89 fe             	mov    %r15,%rsi
    1299:	48 8d 3d d8 1e 00 00 	lea    0x1ed8(%rip),%rdi        # 3178 <_IO_stdin_used+0x178>
    12a0:	e8 bb 04 00 00       	call   1760 <read_write_buffer.constprop.0>
    12a5:	ba 00 04 00 00       	mov    $0x400,%edx
    12aa:	4c 89 ee             	mov    %r13,%rsi
    12ad:	48 8d 3d ec 1e 00 00 	lea    0x1eec(%rip),%rdi        # 31a0 <_IO_stdin_used+0x1a0>
    12b4:	e8 a7 04 00 00       	call   1760 <read_write_buffer.constprop.0>
    12b9:	ba 20 00 00 00       	mov    $0x20,%edx
    12be:	48 89 ee             	mov    %rbp,%rsi
    12c1:	48 8d 3d 00 1f 00 00 	lea    0x1f00(%rip),%rdi        # 31c8 <_IO_stdin_used+0x1c8>
    12c8:	e8 93 04 00 00       	call   1760 <read_write_buffer.constprop.0>
    12cd:	48 89 de             	mov    %rbx,%rsi
    12d0:	ba 00 04 00 00       	mov    $0x400,%edx
    12d5:	4c 89 ff             	mov    %r15,%rdi
    12d8:	e8 f3 04 00 00       	call   17d0 <dump2_f32.isra.0>
    12dd:	ba 00 04 00 00       	mov    $0x400,%edx
    12e2:	4c 89 f6             	mov    %r14,%rsi
    12e5:	4c 89 ef             	mov    %r13,%rdi
    12e8:	e8 e3 04 00 00       	call   17d0 <dump2_f32.isra.0>
    12ed:	ba 20 00 00 00       	mov    $0x20,%edx
    12f2:	4c 89 e6             	mov    %r12,%rsi
    12f5:	48 89 ef             	mov    %rbp,%rdi
    12f8:	e8 d3 04 00 00       	call   17d0 <dump2_f32.isra.0>
    12fd:	31 c9                	xor    %ecx,%ecx
    12ff:	48 89 de             	mov    %rbx,%rsi
    1302:	ba 00 04 00 00       	mov    $0x400,%edx
    1307:	4c 89 ff             	mov    %r15,%rdi
    130a:	e8 91 01 00 00       	call   14a0 <dump_rmsd2.constprop.0>
    130f:	31 c9                	xor    %ecx,%ecx
    1311:	ba 00 04 00 00       	mov    $0x400,%edx
    1316:	4c 89 f6             	mov    %r14,%rsi
    1319:	4c 89 ef             	mov    %r13,%rdi
    131c:	f3 0f 11 44 24 1c    	movss  %xmm0,0x1c(%rsp)
    1322:	e8 79 01 00 00       	call   14a0 <dump_rmsd2.constprop.0>
    1327:	31 c9                	xor    %ecx,%ecx
    1329:	ba 20 00 00 00       	mov    $0x20,%edx
    132e:	4c 89 e6             	mov    %r12,%rsi
    1331:	48 89 ef             	mov    %rbp,%rdi
    1334:	66 0f 7e c3          	movd   %xmm0,%ebx
    1338:	e8 63 01 00 00       	call   14a0 <dump_rmsd2.constprop.0>
    133d:	f3 0f 10 4c 24 1c    	movss  0x1c(%rsp),%xmm1
    1343:	58                   	pop    %rax
    1344:	f2 0f 10 15 d4 1e 00 	movsd  0x1ed4(%rip),%xmm2        # 3220 <_IO_stdin_used+0x220>
    134b:	00 
    134c:	5a                   	pop    %rdx
    134d:	f3 0f 5a c9          	cvtss2sd %xmm1,%xmm1
    1351:	66 0f 2f ca          	comisd %xmm2,%xmm1
    1355:	77 39                	ja     1390 <main+0x1d0>
    1357:	66 0f 6e db          	movd   %ebx,%xmm3
    135b:	66 0f ef c9          	pxor   %xmm1,%xmm1
    135f:	f3 0f 5a cb          	cvtss2sd %xmm3,%xmm1
    1363:	66 0f 2f ca          	comisd %xmm2,%xmm1
    1367:	77 27                	ja     1390 <main+0x1d0>
    1369:	f3 0f 5a c0          	cvtss2sd %xmm0,%xmm0
    136d:	66 0f 2f c2          	comisd %xmm2,%xmm0
    1371:	77 1d                	ja     1390 <main+0x1d0>
    1373:	48 8d 3d 21 1d 00 00 	lea    0x1d21(%rip),%rdi        # 309b <_IO_stdin_used+0x9b>
    137a:	e8 81 fd ff ff       	call   1100 <puts@plt>
    137f:	31 c0                	xor    %eax,%eax
    1381:	48 83 c4 18          	add    $0x18,%rsp
    1385:	5b                   	pop    %rbx
    1386:	5d                   	pop    %rbp
    1387:	41 5c                	pop    %r12
    1389:	41 5d                	pop    %r13
    138b:	41 5e                	pop    %r14
    138d:	41 5f                	pop    %r15
    138f:	c3                   	ret    
    1390:	48 8d 3d e8 1c 00 00 	lea    0x1ce8(%rip),%rdi        # 307f <_IO_stdin_used+0x7f>
    1397:	e8 64 fd ff ff       	call   1100 <puts@plt>
    139c:	83 c8 ff             	or     $0xffffffff,%eax
    139f:	eb e0                	jmp    1381 <main+0x1c1>
    13a1:	66 2e 0f 1f 84 00 00 	cs nopw 0x0(%rax,%rax,1)
    13a8:	00 00 00 
    13ab:	0f 1f 44 00 00       	nopl   0x0(%rax,%rax,1)

00000000000013b0 <_start>:
    13b0:	f3 0f 1e fa          	endbr64 
    13b4:	31 ed                	xor    %ebp,%ebp
    13b6:	49 89 d1             	mov    %rdx,%r9
    13b9:	5e                   	pop    %rsi
    13ba:	48 89 e2             	mov    %rsp,%rdx
    13bd:	48 83 e4 f0          	and    $0xfffffffffffffff0,%rsp
    13c1:	50                   	push   %rax
    13c2:	54                   	push   %rsp
    13c3:	45 31 c0             	xor    %r8d,%r8d
    13c6:	31 c9                	xor    %ecx,%ecx
    13c8:	48 8d 3d f1 fd ff ff 	lea    -0x20f(%rip),%rdi        # 11c0 <main>
    13cf:	ff 15 03 3c 00 00    	call   *0x3c03(%rip)        # 4fd8 <__libc_start_main@GLIBC_2.34>
    13d5:	f4                   	hlt    
    13d6:	66 2e 0f 1f 84 00 00 	cs nopw 0x0(%rax,%rax,1)
    13dd:	00 00 00 

00000000000013e0 <deregister_tm_clones>:
    13e0:	48 8d 3d 29 3c 00 00 	lea    0x3c29(%rip),%rdi        # 5010 <__TMC_END__>
    13e7:	48 8d 05 22 3c 00 00 	lea    0x3c22(%rip),%rax        # 5010 <__TMC_END__>
    13ee:	48 39 f8             	cmp    %rdi,%rax
    13f1:	74 15                	je     1408 <deregister_tm_clones+0x28>
    13f3:	48 8b 05 e6 3b 00 00 	mov    0x3be6(%rip),%rax        # 4fe0 <_ITM_deregisterTMCloneTable@Base>
    13fa:	48 85 c0             	test   %rax,%rax
    13fd:	74 09                	je     1408 <deregister_tm_clones+0x28>
    13ff:	ff e0                	jmp    *%rax
    1401:	0f 1f 80 00 00 00 00 	nopl   0x0(%rax)
    1408:	c3                   	ret    
    1409:	0f 1f 80 00 00 00 00 	nopl   0x0(%rax)

0000000000001410 <register_tm_clones>:
    1410:	48 8d 3d f9 3b 00 00 	lea    0x3bf9(%rip),%rdi        # 5010 <__TMC_END__>
    1417:	48 8d 35 f2 3b 00 00 	lea    0x3bf2(%rip),%rsi        # 5010 <__TMC_END__>
    141e:	48 29 fe             	sub    %rdi,%rsi
    1421:	48 89 f0             	mov    %rsi,%rax
    1424:	48 c1 ee 3f          	shr    $0x3f,%rsi
    1428:	48 c1 f8 03          	sar    $0x3,%rax
    142c:	48 01 c6             	add    %rax,%rsi
    142f:	48 d1 fe             	sar    %rsi
    1432:	74 14                	je     1448 <register_tm_clones+0x38>
    1434:	48 8b 05 b5 3b 00 00 	mov    0x3bb5(%rip),%rax        # 4ff0 <_ITM_registerTMCloneTable@Base>
    143b:	48 85 c0             	test   %rax,%rax
    143e:	74 08                	je     1448 <register_tm_clones+0x38>
    1440:	ff e0                	jmp    *%rax
    1442:	66 0f 1f 44 00 00    	nopw   0x0(%rax,%rax,1)
    1448:	c3                   	ret    
    1449:	0f 1f 80 00 00 00 00 	nopl   0x0(%rax)

0000000000001450 <__do_global_dtors_aux>:
    1450:	f3 0f 1e fa          	endbr64 
    1454:	80 3d e5 3b 00 00 00 	cmpb   $0x0,0x3be5(%rip)        # 5040 <completed.0>
    145b:	75 2b                	jne    1488 <__do_global_dtors_aux+0x38>
    145d:	55                   	push   %rbp
    145e:	48 83 3d 92 3b 00 00 	cmpq   $0x0,0x3b92(%rip)        # 4ff8 <__cxa_finalize@GLIBC_2.2.5>
    1465:	00 
    1466:	48 89 e5             	mov    %rsp,%rbp
    1469:	74 0c                	je     1477 <__do_global_dtors_aux+0x27>
    146b:	48 8b 3d 96 3b 00 00 	mov    0x3b96(%rip),%rdi        # 5008 <__dso_handle>
    1472:	e8 79 fc ff ff       	call   10f0 <__cxa_finalize@plt>
    1477:	e8 64 ff ff ff       	call   13e0 <deregister_tm_clones>
    147c:	c6 05 bd 3b 00 00 01 	movb   $0x1,0x3bbd(%rip)        # 5040 <completed.0>
    1483:	5d                   	pop    %rbp
    1484:	c3                   	ret    
    1485:	0f 1f 00             	nopl   (%rax)
    1488:	c3                   	ret    
    1489:	0f 1f 80 00 00 00 00 	nopl   0x0(%rax)

0000000000001490 <frame_dummy>:
    1490:	f3 0f 1e fa          	endbr64 
    1494:	e9 77 ff ff ff       	jmp    1410 <register_tm_clones>
    1499:	0f 1f 80 00 00 00 00 	nopl   0x0(%rax)

00000000000014a0 <dump_rmsd2.constprop.0>:
    14a0:	66 0f ef db          	pxor   %xmm3,%xmm3
    14a4:	66 0f ef ff          	pxor   %xmm7,%xmm7
    14a8:	89 d1                	mov    %edx,%ecx
    14aa:	31 c0                	xor    %eax,%eax
    14ac:	66 0f 28 ef          	movapd %xmm7,%xmm5
    14b0:	0f 28 c3             	movaps %xmm3,%xmm0
    14b3:	44 0f 28 c3          	movaps %xmm3,%xmm8
    14b7:	f3 44 0f 10 0d 40 1d 	movss  0x1d40(%rip),%xmm9        # 3200 <_IO_stdin_used+0x200>
    14be:	00 00 
    14c0:	0f 28 f3             	movaps %xmm3,%xmm6
    14c3:	0f 1f 44 00 00       	nopl   0x0(%rax,%rax,1)
    14c8:	f3 0f 10 0c 86       	movss  (%rsi,%rax,4),%xmm1
    14cd:	f3 0f 10 14 87       	movss  (%rdi,%rax,4),%xmm2
    14d2:	66 41 0f 7e c8       	movd   %xmm1,%r8d
    14d7:	41 81 f8 00 00 c0 7f 	cmp    $0x7fc00000,%r8d
    14de:	0f 84 79 01 00 00    	je     165d <dump_rmsd2.constprop.0+0x1bd>
    14e4:	0f 28 e2             	movaps %xmm2,%xmm4
    14e7:	f3 0f 5c ca          	subss  %xmm2,%xmm1
    14eb:	48 83 c0 01          	add    $0x1,%rax
    14ef:	f3 0f 5f e6          	maxss  %xmm6,%xmm4
    14f3:	0f 28 f4             	movaps %xmm4,%xmm6
    14f6:	0f 28 e2             	movaps %xmm2,%xmm4
    14f9:	f3 41 0f 5d e0       	minss  %xmm8,%xmm4
    14fe:	f3 0f 59 d2          	mulss  %xmm2,%xmm2
    1502:	44 0f 28 c4          	movaps %xmm4,%xmm8
    1506:	0f 28 e1             	movaps %xmm1,%xmm4
    1509:	f3 0f 59 c9          	mulss  %xmm1,%xmm1
    150d:	41 0f 54 e1          	andps  %xmm9,%xmm4
    1511:	f3 0f 58 c4          	addss  %xmm4,%xmm0
    1515:	f3 0f 5f e3          	maxss  %xmm3,%xmm4
    1519:	f3 0f 5a d2          	cvtss2sd %xmm2,%xmm2
    151d:	f2 0f 58 fa          	addsd  %xmm2,%xmm7
    1521:	0f 28 dc             	movaps %xmm4,%xmm3
    1524:	f3 0f 5a c9          	cvtss2sd %xmm1,%xmm1
    1528:	f2 0f 58 e9          	addsd  %xmm1,%xmm5
    152c:	48 39 c8             	cmp    %rcx,%rax
    152f:	75 97                	jne    14c8 <dump_rmsd2.constprop.0+0x28>
    1531:	53                   	push   %rbx
    1532:	66 48 0f 7e e8       	movq   %xmm5,%rax
    1537:	48 83 ec 20          	sub    $0x20,%rsp
    153b:	f3 0f 11 64 24 14    	movss  %xmm4,0x14(%rsp)
    1541:	f3 44 0f 11 44 24 10 	movss  %xmm8,0x10(%rsp)
    1548:	f3 0f 11 74 24 0c    	movss  %xmm6,0xc(%rsp)
    154e:	f2 0f 11 3c 24       	movsd  %xmm7,(%rsp)
    1553:	3d 00 00 c0 7f       	cmp    $0x7fc00000,%eax
    1558:	0f 84 0b 01 00 00    	je     1669 <dump_rmsd2.constprop.0+0x1c9>
    155e:	66 0f ef c9          	pxor   %xmm1,%xmm1
    1562:	f2 0f 11 6c 24 18    	movsd  %xmm5,0x18(%rsp)
    1568:	f3 0f 2a ca          	cvtsi2ss %edx,%xmm1
    156c:	f3 0f 5e c1          	divss  %xmm1,%xmm0
    1570:	66 0f ef c9          	pxor   %xmm1,%xmm1
    1574:	f2 0f 2a ca          	cvtsi2sd %edx,%xmm1
    1578:	66 0f 7e c3          	movd   %xmm0,%ebx
    157c:	66 0f 28 c5          	movapd %xmm5,%xmm0
    1580:	f2 0f 5e c1          	divsd  %xmm1,%xmm0
    1584:	e8 17 fc ff ff       	call   11a0 <sqrt@plt>
    1589:	f3 0f 10 74 24 0c    	movss  0xc(%rsp),%xmm6
    158f:	f3 44 0f 10 44 24 10 	movss  0x10(%rsp),%xmm8
    1596:	66 0f ef c9          	pxor   %xmm1,%xmm1
    159a:	f2 0f 10 6c 24 18    	movsd  0x18(%rsp),%xmm5
    15a0:	66 0f ef ff          	pxor   %xmm7,%xmm7
    15a4:	f2 0f 5a c8          	cvtsd2ss %xmm0,%xmm1
    15a8:	f3 0f 10 5c 24 14    	movss  0x14(%rsp),%xmm3
    15ae:	0f 28 c6             	movaps %xmm6,%xmm0
    15b1:	0f 28 f1             	movaps %xmm1,%xmm6
    15b4:	f3 41 0f 5c c0       	subss  %xmm8,%xmm0
    15b9:	66 0f 2e ef          	ucomisd %xmm7,%xmm5
    15bd:	f2 0f 10 3c 24       	movsd  (%rsp),%xmm7
    15c2:	f3 0f 5e f0          	divss  %xmm0,%xmm6
    15c6:	0f 8a a7 00 00 00    	jp     1673 <dump_rmsd2.constprop.0+0x1d3>
    15cc:	f3 0f 10 25 14 1c 00 	movss  0x1c14(%rip),%xmm4        # 31e8 <_IO_stdin_used+0x1e8>
    15d3:	00 
    15d4:	0f 85 99 00 00 00    	jne    1673 <dump_rmsd2.constprop.0+0x1d3>
    15da:	48 8d 3d 23 1a 00 00 	lea    0x1a23(%rip),%rdi        # 3004 <_IO_stdin_used+0x4>
    15e1:	f3 0f 11 74 24 14    	movss  %xmm6,0x14(%rsp)
    15e7:	f3 0f 11 5c 24 10    	movss  %xmm3,0x10(%rsp)
    15ed:	f3 0f 11 24 24       	movss  %xmm4,(%rsp)
    15f2:	f3 0f 11 4c 24 0c    	movss  %xmm1,0xc(%rsp)
    15f8:	e8 03 fb ff ff       	call   1100 <puts@plt>
    15fd:	f3 0f 10 74 24 14    	movss  0x14(%rsp),%xmm6
    1603:	f3 0f 10 24 24       	movss  (%rsp),%xmm4
    1608:	66 0f 6e fb          	movd   %ebx,%xmm7
    160c:	f3 0f 10 5c 24 10    	movss  0x10(%rsp),%xmm3
    1612:	f3 0f 10 4c 24 0c    	movss  0xc(%rsp),%xmm1
    1618:	66 0f ef c0          	pxor   %xmm0,%xmm0
    161c:	66 0f ef d2          	pxor   %xmm2,%xmm2
    1620:	48 8d 35 91 1a 00 00 	lea    0x1a91(%rip),%rsi        # 30b8 <_IO_stdin_used+0xb8>
    1627:	bf 01 00 00 00       	mov    $0x1,%edi
    162c:	b8 05 00 00 00       	mov    $0x5,%eax
    1631:	f3 0f 11 34 24       	movss  %xmm6,(%rsp)
    1636:	f3 0f 5a d6          	cvtss2sd %xmm6,%xmm2
    163a:	f3 0f 5a c7          	cvtss2sd %xmm7,%xmm0
    163e:	f3 0f 5a e4          	cvtss2sd %xmm4,%xmm4
    1642:	f3 0f 5a db          	cvtss2sd %xmm3,%xmm3
    1646:	f3 0f 5a c9          	cvtss2sd %xmm1,%xmm1
    164a:	e8 31 fb ff ff       	call   1180 <__printf_chk@plt>
    164f:	f3 0f 10 34 24       	movss  (%rsp),%xmm6
    1654:	48 83 c4 20          	add    $0x20,%rsp
    1658:	0f 28 c6             	movaps %xmm6,%xmm0
    165b:	5b                   	pop    %rbx
    165c:	c3                   	ret    
    165d:	f3 0f 10 35 83 1b 00 	movss  0x1b83(%rip),%xmm6        # 31e8 <_IO_stdin_used+0x1e8>
    1664:	00 
    1665:	0f 28 c6             	movaps %xmm6,%xmm0
    1668:	c3                   	ret    
    1669:	f3 0f 10 35 77 1b 00 	movss  0x1b77(%rip),%xmm6        # 31e8 <_IO_stdin_used+0x1e8>
    1670:	00 
    1671:	eb e1                	jmp    1654 <dump_rmsd2.constprop.0+0x1b4>
    1673:	f2 0f 5e fd          	divsd  %xmm5,%xmm7
    1677:	66 0f ef c0          	pxor   %xmm0,%xmm0
    167b:	f3 0f 11 0c 24       	movss  %xmm1,(%rsp)
    1680:	f3 0f 11 74 24 10    	movss  %xmm6,0x10(%rsp)
    1686:	f3 0f 11 5c 24 0c    	movss  %xmm3,0xc(%rsp)
    168c:	f2 0f 5a c7          	cvtsd2ss %xmm7,%xmm0
    1690:	e8 bb fa ff ff       	call   1150 <log10f@plt>
    1695:	f3 0f 10 74 24 10    	movss  0x10(%rsp),%xmm6
    169b:	f3 0f 59 05 49 1b 00 	mulss  0x1b49(%rip),%xmm0        # 31ec <_IO_stdin_used+0x1ec>
    16a2:	00 
    16a3:	f3 0f 10 5c 24 0c    	movss  0xc(%rsp),%xmm3
    16a9:	f3 0f 10 0c 24       	movss  (%rsp),%xmm1
    16ae:	0f 28 e0             	movaps %xmm0,%xmm4
    16b1:	e9 24 ff ff ff       	jmp    15da <dump_rmsd2.constprop.0+0x13a>
    16b6:	66 2e 0f 1f 84 00 00 	cs nopw 0x0(%rax,%rax,1)
    16bd:	00 00 00 

00000000000016c0 <test_Fopen.constprop.0.isra.0>:
    16c0:	41 54                	push   %r12
    16c2:	49 89 f9             	mov    %rdi,%r9
    16c5:	49 89 fc             	mov    %rdi,%r12
    16c8:	4c 8d 05 41 1a 00 00 	lea    0x1a41(%rip),%r8        # 3110 <_IO_stdin_used+0x110>
    16cf:	55                   	push   %rbp
    16d0:	48 8d 0d 42 19 00 00 	lea    0x1942(%rip),%rcx        # 3019 <_IO_stdin_used+0x19>
    16d7:	ba 00 04 00 00       	mov    $0x400,%edx
    16dc:	53                   	push   %rbx
    16dd:	48 89 f3             	mov    %rsi,%rbx
    16e0:	be 01 00 00 00       	mov    $0x1,%esi
    16e5:	48 81 ec 10 04 00 00 	sub    $0x410,%rsp
    16ec:	64 48 8b 04 25 28 00 	mov    %fs:0x28,%rax
    16f3:	00 00 
    16f5:	48 89 84 24 08 04 00 	mov    %rax,0x408(%rsp)
    16fc:	00 
    16fd:	31 c0                	xor    %eax,%eax
    16ff:	48 89 e5             	mov    %rsp,%rbp
    1702:	48 89 ef             	mov    %rbp,%rdi
    1705:	e8 a6 fa ff ff       	call   11b0 <__sprintf_chk@plt>
    170a:	48 8d 35 0e 19 00 00 	lea    0x190e(%rip),%rsi        # 301f <_IO_stdin_used+0x1f>
    1711:	48 89 ef             	mov    %rbp,%rdi
    1714:	e8 77 fa ff ff       	call   1190 <fopen@plt>
    1719:	48 89 03             	mov    %rax,(%rbx)
    171c:	48 85 c0             	test   %rax,%rax
    171f:	74 1f                	je     1740 <test_Fopen.constprop.0.isra.0+0x80>
    1721:	48 8b 84 24 08 04 00 	mov    0x408(%rsp),%rax
    1728:	00 
    1729:	64 48 2b 04 25 28 00 	sub    %fs:0x28,%rax
    1730:	00 00 
    1732:	75 22                	jne    1756 <test_Fopen.constprop.0.isra.0+0x96>
    1734:	48 81 c4 10 04 00 00 	add    $0x410,%rsp
    173b:	5b                   	pop    %rbx
    173c:	5d                   	pop    %rbp
    173d:	41 5c                	pop    %r12
    173f:	c3                   	ret    
    1740:	4c 89 e2             	mov    %r12,%rdx
    1743:	48 8d 35 d8 18 00 00 	lea    0x18d8(%rip),%rsi        # 3022 <_IO_stdin_used+0x22>
    174a:	bf 01 00 00 00       	mov    $0x1,%edi
    174f:	e8 2c fa ff ff       	call   1180 <__printf_chk@plt>
    1754:	eb cb                	jmp    1721 <test_Fopen.constprop.0.isra.0+0x61>
    1756:	e8 d5 f9 ff ff       	call   1130 <__stack_chk_fail@plt>
    175b:	0f 1f 44 00 00       	nopl   0x0(%rax,%rax,1)

0000000000001760 <read_write_buffer.constprop.0>:
    1760:	41 54                	push   %r12
    1762:	55                   	push   %rbp
    1763:	48 89 f5             	mov    %rsi,%rbp
    1766:	53                   	push   %rbx
    1767:	89 d3                	mov    %edx,%ebx
    1769:	48 83 ec 10          	sub    $0x10,%rsp
    176d:	64 48 8b 04 25 28 00 	mov    %fs:0x28,%rax
    1774:	00 00 
    1776:	48 89 44 24 08       	mov    %rax,0x8(%rsp)
    177b:	31 c0                	xor    %eax,%eax
    177d:	48 89 e6             	mov    %rsp,%rsi
    1780:	48 c7 04 24 00 00 00 	movq   $0x0,(%rsp)
    1787:	00 
    1788:	e8 33 ff ff ff       	call   16c0 <test_Fopen.constprop.0.isra.0>
    178d:	4c 8b 24 24          	mov    (%rsp),%r12
    1791:	89 da                	mov    %ebx,%edx
    1793:	be 04 00 00 00       	mov    $0x4,%esi
    1798:	48 89 ef             	mov    %rbp,%rdi
    179b:	4c 89 e1             	mov    %r12,%rcx
    179e:	e8 6d f9 ff ff       	call   1110 <fread@plt>
    17a3:	48 8b 44 24 08       	mov    0x8(%rsp),%rax
    17a8:	64 48 2b 04 25 28 00 	sub    %fs:0x28,%rax
    17af:	00 00 
    17b1:	75 10                	jne    17c3 <read_write_buffer.constprop.0+0x63>
    17b3:	48 83 c4 10          	add    $0x10,%rsp
    17b7:	4c 89 e7             	mov    %r12,%rdi
    17ba:	5b                   	pop    %rbx
    17bb:	5d                   	pop    %rbp
    17bc:	41 5c                	pop    %r12
    17be:	e9 5d f9 ff ff       	jmp    1120 <fclose@plt>
    17c3:	e8 68 f9 ff ff       	call   1130 <__stack_chk_fail@plt>
    17c8:	0f 1f 84 00 00 00 00 	nopl   0x0(%rax,%rax,1)
    17cf:	00 

00000000000017d0 <dump2_f32.isra.0>:
    17d0:	89 d2                	mov    %edx,%edx
    17d2:	66 0f ef c0          	pxor   %xmm0,%xmm0
    17d6:	f3 0f 10 15 22 1a 00 	movss  0x1a22(%rip),%xmm2        # 3200 <_IO_stdin_used+0x200>
    17dd:	00 
    17de:	31 c0                	xor    %eax,%eax
    17e0:	f3 0f 10 0c 86       	movss  (%rsi,%rax,4),%xmm1
    17e5:	f3 0f 5c 0c 87       	subss  (%rdi,%rax,4),%xmm1
    17ea:	48 83 c0 01          	add    $0x1,%rax
    17ee:	0f 54 ca             	andps  %xmm2,%xmm1
    17f1:	f3 0f 5f c8          	maxss  %xmm0,%xmm1
    17f5:	0f 28 c1             	movaps %xmm1,%xmm0
    17f8:	48 39 c2             	cmp    %rax,%rdx
    17fb:	75 e3                	jne    17e0 <dump2_f32.isra.0+0x10>
    17fd:	66 0f ef c0          	pxor   %xmm0,%xmm0
    1801:	bf 01 00 00 00       	mov    $0x1,%edi
    1806:	b8 01 00 00 00       	mov    $0x1,%eax
    180b:	48 8d 35 29 18 00 00 	lea    0x1829(%rip),%rsi        # 303b <_IO_stdin_used+0x3b>
    1812:	f3 0f 5a c1          	cvtss2sd %xmm1,%xmm0
    1816:	e9 65 f9 ff ff       	jmp    1180 <__printf_chk@plt>
    181b:	0f 1f 44 00 00       	nopl   0x0(%rax,%rax,1)

0000000000001820 <riscv_dsp_mat_qr_f32>:
    1820:	f3 0f 1e fa          	endbr64 
    1824:	41 57                	push   %r15
    1826:	41 56                	push   %r14
    1828:	41 55                	push   %r13
    182a:	41 54                	push   %r12
    182c:	55                   	push   %rbp
    182d:	53                   	push   %rbx
    182e:	48 81 ec e8 00 00 00 	sub    $0xe8,%rsp
    1835:	48 89 b4 24 a8 00 00 	mov    %rsi,0xa8(%rsp)
    183c:	00 
    183d:	8b 84 24 28 01 00 00 	mov    0x128(%rsp),%eax
    1844:	48 89 94 24 d0 00 00 	mov    %rdx,0xd0(%rsp)
    184b:	00 
    184c:	48 89 8c 24 b0 00 00 	mov    %rcx,0xb0(%rsp)
    1853:	00 
    1854:	4c 89 44 24 38       	mov    %r8,0x38(%rsp)
    1859:	f3 0f 11 84 24 c4 00 	movss  %xmm0,0xc4(%rsp)
    1860:	00 00 
    1862:	39 84 24 20 01 00 00 	cmp    %eax,0x120(%rsp)
    1869:	0f 82 86 0f 00 00    	jb     27f5 <riscv_dsp_mat_qr_f32+0xfd5>
    186f:	8b 84 24 20 01 00 00 	mov    0x120(%rsp),%eax
    1876:	49 89 fa             	mov    %rdi,%r10
    1879:	48 89 f7             	mov    %rsi,%rdi
    187c:	4d 89 cd             	mov    %r9,%r13
    187f:	0f af 84 24 28 01 00 	imul   0x128(%rsp),%eax
    1886:	00 
    1887:	4c 89 d6             	mov    %r10,%rsi
    188a:	89 c2                	mov    %eax,%edx
    188c:	89 84 24 dc 00 00 00 	mov    %eax,0xdc(%rsp)
    1893:	48 c1 e2 02          	shl    $0x2,%rdx
    1897:	e8 c4 f8 ff ff       	call   1160 <memcpy@plt>
    189c:	8b bc 24 28 01 00 00 	mov    0x128(%rsp),%edi
    18a3:	85 ff                	test   %edi,%edi
    18a5:	0f 84 23 07 00 00    	je     1fce <riscv_dsp_mat_qr_f32+0x7ae>
    18ab:	8b 84 24 28 01 00 00 	mov    0x128(%rsp),%eax
    18b2:	44 8b b4 24 28 01 00 	mov    0x128(%rsp),%r14d
    18b9:	00 
    18ba:	c7 84 24 c0 00 00 00 	movl   $0x0,0xc0(%rsp)
    18c1:	00 00 00 00 
    18c5:	48 c7 44 24 48 00 00 	movq   $0x0,0x48(%rsp)
    18cc:	00 00 
    18ce:	48 89 84 24 c8 00 00 	mov    %rax,0xc8(%rsp)
    18d5:	00 
    18d6:	48 c1 e0 02          	shl    $0x2,%rax
    18da:	48 89 44 24 60       	mov    %rax,0x60(%rsp)
    18df:	8b 84 24 28 01 00 00 	mov    0x128(%rsp),%eax
    18e6:	8d 04 40             	lea    (%rax,%rax,2),%eax
    18e9:	89 84 24 d8 00 00 00 	mov    %eax,0xd8(%rsp)
    18f0:	8b 84 24 28 01 00 00 	mov    0x128(%rsp),%eax
    18f7:	83 c0 01             	add    $0x1,%eax
    18fa:	48 c1 e0 02          	shl    $0x2,%rax
    18fe:	48 89 84 24 b8 00 00 	mov    %rax,0xb8(%rsp)
    1905:	00 
    1906:	48 8b 44 24 38       	mov    0x38(%rsp),%rax
    190b:	48 83 c0 04          	add    $0x4,%rax
    190f:	48 89 44 24 58       	mov    %rax,0x58(%rsp)
    1914:	8b 84 24 20 01 00 00 	mov    0x120(%rsp),%eax
    191b:	83 e8 01             	sub    $0x1,%eax
    191e:	89 44 24 50          	mov    %eax,0x50(%rsp)
    1922:	8b 84 24 28 01 00 00 	mov    0x128(%rsp),%eax
    1929:	83 e8 01             	sub    $0x1,%eax
    192c:	89 44 24 10          	mov    %eax,0x10(%rsp)
    1930:	48 8b 84 24 a8 00 00 	mov    0xa8(%rsp),%rax
    1937:	00 
    1938:	48 89 44 24 30       	mov    %rax,0x30(%rsp)
    193d:	0f 1f 00             	nopl   (%rax)
    1940:	48 8b 5c 24 48       	mov    0x48(%rsp),%rbx
    1945:	8b 84 24 c0 00 00 00 	mov    0xc0(%rsp),%eax
    194c:	48 8b bc 24 a8 00 00 	mov    0xa8(%rsp),%rdi
    1953:	00 
    1954:	48 01 d8             	add    %rbx,%rax
    1957:	39 9c 24 20 01 00 00 	cmp    %ebx,0x120(%rsp)
    195e:	89 5c 24 6c          	mov    %ebx,0x6c(%rsp)
    1962:	48 8d 14 87          	lea    (%rdi,%rax,4),%rdx
    1966:	8b 44 24 50          	mov    0x50(%rsp),%eax
    196a:	0f 86 7a 0c 00 00    	jbe    25ea <riscv_dsp_mat_qr_f32+0xdca>
    1970:	48 89 c3             	mov    %rax,%rbx
    1973:	48 89 84 24 88 00 00 	mov    %rax,0x88(%rsp)
    197a:	00 
    197b:	48 8b 44 24 38       	mov    0x38(%rsp),%rax
    1980:	83 bc 24 28 01 00 00 	cmpl   $0x1,0x128(%rsp)
    1987:	01 
    1988:	48 8b 74 24 60       	mov    0x60(%rsp),%rsi
    198d:	48 8d 4c 98 04       	lea    0x4(%rax,%rbx,4),%rcx
    1992:	0f 85 c8 0b 00 00    	jne    2560 <riscv_dsp_mat_qr_f32+0xd40>
    1998:	0f 1f 84 00 00 00 00 	nopl   0x0(%rax,%rax,1)
    199f:	00 
    19a0:	f3 0f 10 02          	movss  (%rdx),%xmm0
    19a4:	48 83 c0 04          	add    $0x4,%rax
    19a8:	48 01 f2             	add    %rsi,%rdx
    19ab:	f3 0f 11 40 fc       	movss  %xmm0,-0x4(%rax)
    19b0:	48 39 c8             	cmp    %rcx,%rax
    19b3:	75 eb                	jne    19a0 <riscv_dsp_mat_qr_f32+0x180>
    19b5:	48 8b 5c 24 38       	mov    0x38(%rsp),%rbx
    19ba:	8b 84 24 20 01 00 00 	mov    0x120(%rsp),%eax
    19c1:	f3 0f 10 84 24 c4 00 	movss  0xc4(%rsp),%xmm0
    19c8:	00 00 
    19ca:	2b 44 24 6c          	sub    0x6c(%rsp),%eax
    19ce:	89 c6                	mov    %eax,%esi
    19d0:	48 89 df             	mov    %rbx,%rdi
    19d3:	48 89 da             	mov    %rbx,%rdx
    19d6:	89 44 24 70          	mov    %eax,0x70(%rsp)
    19da:	e8 21 0e 00 00       	call   2800 <riscv_dsp_mat_householder_f32>
    19df:	48 8b 7c 24 48       	mov    0x48(%rsp),%rdi
    19e4:	83 7c 24 10 02       	cmpl   $0x2,0x10(%rsp)
    19e9:	48 8b 84 24 b0 00 00 	mov    0xb0(%rsp),%rax
    19f0:	00 
    19f1:	f3 0f 10 0b          	movss  (%rbx),%xmm1
    19f5:	0f 28 d8             	movaps %xmm0,%xmm3
    19f8:	f3 0f 11 04 b8       	movss  %xmm0,(%rax,%rdi,4)
    19fd:	0f 86 03 0c 00 00    	jbe    2606 <riscv_dsp_mat_qr_f32+0xde6>
    1a03:	44 89 f2             	mov    %r14d,%edx
    1a06:	48 8b 4c 24 30       	mov    0x30(%rsp),%rcx
    1a0b:	0f 28 d1             	movaps %xmm1,%xmm2
    1a0e:	31 c0                	xor    %eax,%eax
    1a10:	c1 ea 02             	shr    $0x2,%edx
    1a13:	0f c6 d2 00          	shufps $0x0,%xmm2,%xmm2
    1a17:	48 c1 e2 04          	shl    $0x4,%rdx
    1a1b:	0f 1f 44 00 00       	nopl   0x0(%rax,%rax,1)
    1a20:	0f 10 04 01          	movups (%rcx,%rax,1),%xmm0
    1a24:	0f 59 c2             	mulps  %xmm2,%xmm0
    1a27:	41 0f 11 44 05 00    	movups %xmm0,0x0(%r13,%rax,1)
    1a2d:	48 83 c0 10          	add    $0x10,%rax
    1a31:	48 39 c2             	cmp    %rax,%rdx
    1a34:	75 ea                	jne    1a20 <riscv_dsp_mat_qr_f32+0x200>
    1a36:	44 89 f1             	mov    %r14d,%ecx
    1a39:	48 8b 5c 24 30       	mov    0x30(%rsp),%rbx
    1a3e:	83 e1 fc             	and    $0xfffffffc,%ecx
    1a41:	89 c8                	mov    %ecx,%eax
    1a43:	48 c1 e0 02          	shl    $0x2,%rax
    1a47:	48 8d 14 03          	lea    (%rbx,%rax,1),%rdx
    1a4b:	4c 01 e8             	add    %r13,%rax
    1a4e:	41 39 ce             	cmp    %ecx,%r14d
    1a51:	74 41                	je     1a94 <riscv_dsp_mat_qr_f32+0x274>
    1a53:	44 89 f6             	mov    %r14d,%esi
    1a56:	29 ce                	sub    %ecx,%esi
    1a58:	83 fe 01             	cmp    $0x1,%esi
    1a5b:	74 2f                	je     1a8c <riscv_dsp_mat_qr_f32+0x26c>
    1a5d:	48 8b 5c 24 30       	mov    0x30(%rsp),%rbx
    1a62:	0f 28 d1             	movaps %xmm1,%xmm2
    1a65:	89 f7                	mov    %esi,%edi
    1a67:	0f c6 d2 e0          	shufps $0xe0,%xmm2,%xmm2
    1a6b:	83 e7 fe             	and    $0xfffffffe,%edi
    1a6e:	f3 0f 7e 04 8b       	movq   (%rbx,%rcx,4),%xmm0
    1a73:	0f 59 c2             	mulps  %xmm2,%xmm0
    1a76:	41 0f 13 44 8d 00    	movlps %xmm0,0x0(%r13,%rcx,4)
    1a7c:	89 f9                	mov    %edi,%ecx
    1a7e:	48 c1 e1 02          	shl    $0x2,%rcx
    1a82:	48 01 ca             	add    %rcx,%rdx
    1a85:	48 01 c8             	add    %rcx,%rax
    1a88:	39 fe                	cmp    %edi,%esi
    1a8a:	74 08                	je     1a94 <riscv_dsp_mat_qr_f32+0x274>
    1a8c:	f3 0f 59 0a          	mulss  (%rdx),%xmm1
    1a90:	f3 0f 11 08          	movss  %xmm1,(%rax)
    1a94:	8b 44 24 10          	mov    0x10(%rsp),%eax
    1a98:	48 8b 4c 24 30       	mov    0x30(%rsp),%rcx
    1a9d:	8b 5c 24 50          	mov    0x50(%rsp),%ebx
    1aa1:	48 8d 14 85 04 00 00 	lea    0x4(,%rax,4),%rdx
    1aa8:	00 
    1aa9:	48 8b 44 24 48       	mov    0x48(%rsp),%rax
    1aae:	48 8d 04 82          	lea    (%rdx,%rax,4),%rax
    1ab2:	48 01 c1             	add    %rax,%rcx
    1ab5:	48 89 44 24 78       	mov    %rax,0x78(%rsp)
    1aba:	48 8b 44 24 60       	mov    0x60(%rsp),%rax
    1abf:	c1 eb 02             	shr    $0x2,%ebx
    1ac2:	89 9c 24 80 00 00 00 	mov    %ebx,0x80(%rsp)
    1ac9:	48 8d 34 01          	lea    (%rcx,%rax,1),%rsi
    1acd:	48 8d 3c 06          	lea    (%rsi,%rax,1),%rdi
    1ad1:	4c 8d 04 07          	lea    (%rdi,%rax,1),%r8
    1ad5:	0f 84 1c 0b 00 00    	je     25f7 <riscv_dsp_mat_qr_f32+0xdd7>
    1adb:	44 8d 4b ff          	lea    -0x1(%rbx),%r9d
    1adf:	48 8b 5c 24 38       	mov    0x38(%rsp),%rbx
    1ae4:	8b 84 24 d8 00 00 00 	mov    0xd8(%rsp),%eax
    1aeb:	48 89 8c 24 a0 00 00 	mov    %rcx,0xa0(%rsp)
    1af2:	00 
    1af3:	44 8b 5c 24 6c       	mov    0x6c(%rsp),%r11d
    1af8:	4c 8b 64 24 58       	mov    0x58(%rsp),%r12
    1afd:	44 89 74 24 68       	mov    %r14d,0x68(%rsp)
    1b02:	44 89 8c 24 90 00 00 	mov    %r9d,0x90(%rsp)
    1b09:	00 
    1b0a:	49 c1 e1 04          	shl    $0x4,%r9
    1b0e:	4a 8d 5c 0b 14       	lea    0x14(%rbx,%r9,1),%rbx
    1b13:	45 89 f1             	mov    %r14d,%r9d
    1b16:	44 01 d8             	add    %r11d,%eax
    1b19:	41 c1 e9 02          	shr    $0x2,%r9d
    1b1d:	48 89 5c 24 18       	mov    %rbx,0x18(%rsp)
    1b22:	44 89 f3             	mov    %r14d,%ebx
    1b25:	89 c0                	mov    %eax,%eax
    1b27:	41 83 e9 01          	sub    $0x1,%r9d
    1b2b:	83 e3 fc             	and    $0xfffffffc,%ebx
    1b2e:	48 8d 04 82          	lea    (%rdx,%rax,4),%rax
    1b32:	49 83 c1 01          	add    $0x1,%r9
    1b36:	89 5c 24 20          	mov    %ebx,0x20(%rsp)
    1b3a:	49 89 c6             	mov    %rax,%r14
    1b3d:	49 c1 e1 04          	shl    $0x4,%r9
    1b41:	48 89 84 24 98 00 00 	mov    %rax,0x98(%rsp)
    1b48:	00 
    1b49:	4c 89 cd             	mov    %r9,%rbp
    1b4c:	41 89 d9             	mov    %ebx,%r9d
    1b4f:	4a 8d 1c 8d 00 00 00 	lea    0x0(,%r9,4),%rbx
    1b56:	00 
    1b57:	49 89 c9             	mov    %rcx,%r9
    1b5a:	48 89 5c 24 28       	mov    %rbx,0x28(%rsp)
    1b5f:	4c 01 eb             	add    %r13,%rbx
    1b62:	48 89 5c 24 40       	mov    %rbx,0x40(%rsp)
    1b67:	66 0f 1f 84 00 00 00 	nopw   0x0(%rax,%rax,1)
    1b6e:	00 00 
    1b70:	83 7c 24 10 02       	cmpl   $0x2,0x10(%rsp)
    1b75:	f3 41 0f 10 2c 24    	movss  (%r12),%xmm5
    1b7b:	f3 41 0f 10 64 24 04 	movss  0x4(%r12),%xmm4
    1b82:	f3 41 0f 10 54 24 08 	movss  0x8(%r12),%xmm2
    1b89:	f3 41 0f 10 4c 24 0c 	movss  0xc(%r12),%xmm1
    1b90:	0f 86 2a 0a 00 00    	jbe    25c0 <riscv_dsp_mat_qr_f32+0xda0>
    1b96:	44 0f 28 d5          	movaps %xmm5,%xmm10
    1b9a:	44 0f 28 cc          	movaps %xmm4,%xmm9
    1b9e:	44 0f 28 c2          	movaps %xmm2,%xmm8
    1ba2:	31 c0                	xor    %eax,%eax
    1ba4:	0f 28 f9             	movaps %xmm1,%xmm7
    1ba7:	45 0f c6 d2 00       	shufps $0x0,%xmm10,%xmm10
    1bac:	45 0f c6 c9 00       	shufps $0x0,%xmm9,%xmm9
    1bb1:	45 0f c6 c0 00       	shufps $0x0,%xmm8,%xmm8
    1bb6:	0f c6 ff 00          	shufps $0x0,%xmm7,%xmm7
    1bba:	66 0f 1f 44 00 00    	nopw   0x0(%rax,%rax,1)
    1bc0:	41 0f 10 04 01       	movups (%r9,%rax,1),%xmm0
    1bc5:	41 0f 10 74 05 00    	movups 0x0(%r13,%rax,1),%xmm6
    1bcb:	41 0f 59 c2          	mulps  %xmm10,%xmm0
    1bcf:	0f 58 c6             	addps  %xmm6,%xmm0
    1bd2:	0f 10 34 06          	movups (%rsi,%rax,1),%xmm6
    1bd6:	41 0f 59 f1          	mulps  %xmm9,%xmm6
    1bda:	0f 58 c6             	addps  %xmm6,%xmm0
    1bdd:	0f 10 34 07          	movups (%rdi,%rax,1),%xmm6
    1be1:	41 0f 59 f0          	mulps  %xmm8,%xmm6
    1be5:	0f 58 c6             	addps  %xmm6,%xmm0
    1be8:	41 0f 10 34 00       	movups (%r8,%rax,1),%xmm6
    1bed:	0f 59 f7             	mulps  %xmm7,%xmm6
    1bf0:	0f 58 c6             	addps  %xmm6,%xmm0
    1bf3:	41 0f 11 44 05 00    	movups %xmm0,0x0(%r13,%rax,1)
    1bf9:	48 83 c0 10          	add    $0x10,%rax
    1bfd:	48 39 e8             	cmp    %rbp,%rax
    1c00:	75 be                	jne    1bc0 <riscv_dsp_mat_qr_f32+0x3a0>
    1c02:	48 8b 44 24 28       	mov    0x28(%rsp),%rax
    1c07:	49 8d 1c 01          	lea    (%r9,%rax,1),%rbx
    1c0b:	4c 8d 1c 06          	lea    (%rsi,%rax,1),%r11
    1c0f:	4c 8d 14 07          	lea    (%rdi,%rax,1),%r10
    1c13:	49 8d 0c 00          	lea    (%r8,%rax,1),%rcx
    1c17:	8b 44 24 20          	mov    0x20(%rsp),%eax
    1c1b:	39 44 24 68          	cmp    %eax,0x68(%rsp)
    1c1f:	0f 84 c4 00 00 00    	je     1ce9 <riscv_dsp_mat_qr_f32+0x4c9>
    1c25:	89 c2                	mov    %eax,%edx
    1c27:	48 8b 44 24 40       	mov    0x40(%rsp),%rax
    1c2c:	44 8b 7c 24 68       	mov    0x68(%rsp),%r15d
    1c31:	41 29 d7             	sub    %edx,%r15d
    1c34:	44 89 7c 24 08       	mov    %r15d,0x8(%rsp)
    1c39:	41 83 ff 01          	cmp    $0x1,%r15d
    1c3d:	74 7e                	je     1cbd <riscv_dsp_mat_qr_f32+0x49d>
    1c3f:	f3 41 0f 7e 04 91    	movq   (%r9,%rdx,4),%xmm0
    1c45:	0f 28 f5             	movaps %xmm5,%xmm6
    1c48:	4d 8d 7c 95 00       	lea    0x0(%r13,%rdx,4),%r15
    1c4d:	0f 28 fc             	movaps %xmm4,%xmm7
    1c50:	0f c6 f6 e0          	shufps $0xe0,%xmm6,%xmm6
    1c54:	0f c6 ff e0          	shufps $0xe0,%xmm7,%xmm7
    1c58:	0f 59 c6             	mulps  %xmm6,%xmm0
    1c5b:	f3 41 0f 7e 37       	movq   (%r15),%xmm6
    1c60:	0f 58 c6             	addps  %xmm6,%xmm0
    1c63:	f3 0f 7e 34 96       	movq   (%rsi,%rdx,4),%xmm6
    1c68:	0f 59 f7             	mulps  %xmm7,%xmm6
    1c6b:	0f 28 fa             	movaps %xmm2,%xmm7
    1c6e:	0f c6 ff e0          	shufps $0xe0,%xmm7,%xmm7
    1c72:	0f 58 c6             	addps  %xmm6,%xmm0
    1c75:	f3 0f 7e 34 97       	movq   (%rdi,%rdx,4),%xmm6
    1c7a:	0f 59 f7             	mulps  %xmm7,%xmm6
    1c7d:	0f 28 f9             	movaps %xmm1,%xmm7
    1c80:	0f c6 ff e0          	shufps $0xe0,%xmm7,%xmm7
    1c84:	0f 58 c6             	addps  %xmm6,%xmm0
    1c87:	f3 41 0f 7e 34 90    	movq   (%r8,%rdx,4),%xmm6
    1c8d:	0f 59 f7             	mulps  %xmm7,%xmm6
    1c90:	0f 58 c6             	addps  %xmm6,%xmm0
    1c93:	41 0f 13 07          	movlps %xmm0,(%r15)
    1c97:	44 8b 7c 24 08       	mov    0x8(%rsp),%r15d
    1c9c:	41 83 e7 fe          	and    $0xfffffffe,%r15d
    1ca0:	44 89 fa             	mov    %r15d,%edx
    1ca3:	48 c1 e2 02          	shl    $0x2,%rdx
    1ca7:	48 01 d0             	add    %rdx,%rax
    1caa:	48 01 d3             	add    %rdx,%rbx
    1cad:	49 01 d3             	add    %rdx,%r11
    1cb0:	49 01 d2             	add    %rdx,%r10
    1cb3:	48 01 d1             	add    %rdx,%rcx
    1cb6:	44 39 7c 24 08       	cmp    %r15d,0x8(%rsp)
    1cbb:	74 2c                	je     1ce9 <riscv_dsp_mat_qr_f32+0x4c9>
    1cbd:	f3 41 0f 59 23       	mulss  (%r11),%xmm4
    1cc2:	f3 0f 59 2b          	mulss  (%rbx),%xmm5
    1cc6:	f3 0f 58 28          	addss  (%rax),%xmm5
    1cca:	f3 41 0f 59 12       	mulss  (%r10),%xmm2
    1ccf:	f3 0f 59 09          	mulss  (%rcx),%xmm1
    1cd3:	0f 28 c4             	movaps %xmm4,%xmm0
    1cd6:	f3 0f 58 c5          	addss  %xmm5,%xmm0
    1cda:	f3 0f 58 d0          	addss  %xmm0,%xmm2
    1cde:	0f 28 c1             	movaps %xmm1,%xmm0
    1ce1:	f3 0f 58 c2          	addss  %xmm2,%xmm0
    1ce5:	f3 0f 11 00          	movss  %xmm0,(%rax)
    1ce9:	4d 01 f1             	add    %r14,%r9
    1cec:	4c 01 f6             	add    %r14,%rsi
    1cef:	4c 01 f7             	add    %r14,%rdi
    1cf2:	4d 01 f0             	add    %r14,%r8
    1cf5:	49 83 c4 10          	add    $0x10,%r12
    1cf9:	4c 3b 64 24 18       	cmp    0x18(%rsp),%r12
    1cfe:	0f 85 6c fe ff ff    	jne    1b70 <riscv_dsp_mat_qr_f32+0x350>
    1d04:	44 8b 84 24 80 00 00 	mov    0x80(%rsp),%r8d
    1d0b:	00 
    1d0c:	48 8b 84 24 98 00 00 	mov    0x98(%rsp),%rax
    1d13:	00 
    1d14:	48 8b 8c 24 a0 00 00 	mov    0xa0(%rsp),%rcx
    1d1b:	00 
    1d1c:	44 8b 74 24 68       	mov    0x68(%rsp),%r14d
    1d21:	49 0f af c0          	imul   %r8,%rax
    1d25:	49 c1 e0 04          	shl    $0x4,%r8
    1d29:	4c 03 44 24 58       	add    0x58(%rsp),%r8
    1d2e:	48 01 c1             	add    %rax,%rcx
    1d31:	8b 84 24 90 00 00 00 	mov    0x90(%rsp),%eax
    1d38:	8d 04 85 05 00 00 00 	lea    0x5(,%rax,4),%eax
    1d3f:	3b 44 24 70          	cmp    0x70(%rsp),%eax
    1d43:	0f 83 ea 00 00 00    	jae    1e33 <riscv_dsp_mat_qr_f32+0x613>
    1d49:	8b 54 24 70          	mov    0x70(%rsp),%edx
    1d4d:	45 89 f2             	mov    %r14d,%r10d
    1d50:	4c 8b 64 24 78       	mov    0x78(%rsp),%r12
    1d55:	41 83 e2 fc          	and    $0xfffffffc,%r10d
    1d59:	83 ea 01             	sub    $0x1,%edx
    1d5c:	45 89 d3             	mov    %r10d,%r11d
    1d5f:	29 c2                	sub    %eax,%edx
    1d61:	44 89 f0             	mov    %r14d,%eax
    1d64:	49 c1 e3 02          	shl    $0x2,%r11
    1d68:	c1 e8 02             	shr    $0x2,%eax
    1d6b:	49 8d 5c 90 04       	lea    0x4(%r8,%rdx,4),%rbx
    1d70:	4b 8d 6c 1d 00       	lea    0x0(%r13,%r11,1),%rbp
    1d75:	8d 78 ff             	lea    -0x1(%rax),%edi
    1d78:	48 83 c7 01          	add    $0x1,%rdi
    1d7c:	48 c1 e7 04          	shl    $0x4,%rdi
    1d80:	83 7c 24 10 02       	cmpl   $0x2,0x10(%rsp)
    1d85:	f3 41 0f 10 08       	movss  (%r8),%xmm1
    1d8a:	0f 86 20 08 00 00    	jbe    25b0 <riscv_dsp_mat_qr_f32+0xd90>
    1d90:	0f 28 d1             	movaps %xmm1,%xmm2
    1d93:	31 c0                	xor    %eax,%eax
    1d95:	0f c6 d2 00          	shufps $0x0,%xmm2,%xmm2
    1d99:	0f 1f 80 00 00 00 00 	nopl   0x0(%rax)
    1da0:	0f 10 04 01          	movups (%rcx,%rax,1),%xmm0
    1da4:	41 0f 10 7c 05 00    	movups 0x0(%r13,%rax,1),%xmm7
    1daa:	0f 59 c2             	mulps  %xmm2,%xmm0
    1dad:	0f 58 c7             	addps  %xmm7,%xmm0
    1db0:	41 0f 11 44 05 00    	movups %xmm0,0x0(%r13,%rax,1)
    1db6:	48 83 c0 10          	add    $0x10,%rax
    1dba:	48 39 f8             	cmp    %rdi,%rax
    1dbd:	75 e1                	jne    1da0 <riscv_dsp_mat_qr_f32+0x580>
    1dbf:	4a 8d 14 19          	lea    (%rcx,%r11,1),%rdx
    1dc3:	45 39 f2             	cmp    %r14d,%r10d
    1dc6:	74 5b                	je     1e23 <riscv_dsp_mat_qr_f32+0x603>
    1dc8:	44 89 d6             	mov    %r10d,%esi
    1dcb:	48 89 e8             	mov    %rbp,%rax
    1dce:	45 89 f1             	mov    %r14d,%r9d
    1dd1:	41 29 f1             	sub    %esi,%r9d
    1dd4:	41 83 f9 01          	cmp    $0x1,%r9d
    1dd8:	74 39                	je     1e13 <riscv_dsp_mat_qr_f32+0x5f3>
    1dda:	f3 0f 7e 04 b1       	movq   (%rcx,%rsi,4),%xmm0
    1ddf:	0f 28 d1             	movaps %xmm1,%xmm2
    1de2:	4d 8d 7c b5 00       	lea    0x0(%r13,%rsi,4),%r15
    1de7:	0f c6 d2 e0          	shufps $0xe0,%xmm2,%xmm2
    1deb:	0f 59 c2             	mulps  %xmm2,%xmm0
    1dee:	f3 41 0f 7e 17       	movq   (%r15),%xmm2
    1df3:	0f 58 c2             	addps  %xmm2,%xmm0
    1df6:	41 0f 13 07          	movlps %xmm0,(%r15)
    1dfa:	45 89 cf             	mov    %r9d,%r15d
    1dfd:	41 83 e7 fe          	and    $0xfffffffe,%r15d
    1e01:	44 89 fe             	mov    %r15d,%esi
    1e04:	48 c1 e6 02          	shl    $0x2,%rsi
    1e08:	48 01 f2             	add    %rsi,%rdx
    1e0b:	48 01 f0             	add    %rsi,%rax
    1e0e:	45 39 f9             	cmp    %r15d,%r9d
    1e11:	74 10                	je     1e23 <riscv_dsp_mat_qr_f32+0x603>
    1e13:	f3 0f 59 0a          	mulss  (%rdx),%xmm1
    1e17:	f3 0f 10 00          	movss  (%rax),%xmm0
    1e1b:	f3 0f 58 c1          	addss  %xmm1,%xmm0
    1e1f:	f3 0f 11 00          	movss  %xmm0,(%rax)
    1e23:	49 83 c0 04          	add    $0x4,%r8
    1e27:	4c 01 e1             	add    %r12,%rcx
    1e2a:	49 39 d8             	cmp    %rbx,%r8
    1e2d:	0f 85 4d ff ff ff    	jne    1d80 <riscv_dsp_mat_qr_f32+0x560>
    1e33:	48 8b 44 24 58       	mov    0x58(%rsp),%rax
    1e38:	48 8b 9c 24 88 00 00 	mov    0x88(%rsp),%rbx
    1e3f:	00 
    1e40:	45 89 f2             	mov    %r14d,%r10d
    1e43:	41 83 e2 fc          	and    $0xfffffffc,%r10d
    1e47:	4c 8b 4c 24 38       	mov    0x38(%rsp),%r9
    1e4c:	48 8b 54 24 30       	mov    0x30(%rsp),%rdx
    1e51:	48 8d 1c 98          	lea    (%rax,%rbx,4),%rbx
    1e55:	44 89 f0             	mov    %r14d,%eax
    1e58:	45 89 d3             	mov    %r10d,%r11d
    1e5b:	8b 7c 24 10          	mov    0x10(%rsp),%edi
    1e5f:	c1 e8 02             	shr    $0x2,%eax
    1e62:	4c 8b 44 24 78       	mov    0x78(%rsp),%r8
    1e67:	49 c1 e3 02          	shl    $0x2,%r11
    1e6b:	8d 70 ff             	lea    -0x1(%rax),%esi
    1e6e:	48 83 c6 01          	add    $0x1,%rsi
    1e72:	48 c1 e6 04          	shl    $0x4,%rsi
    1e76:	66 2e 0f 1f 84 00 00 	cs nopw 0x0(%rax,%rax,1)
    1e7d:	00 00 00 
    1e80:	f3 41 0f 10 11       	movss  (%r9),%xmm2
    1e85:	f3 0f 59 d3          	mulss  %xmm3,%xmm2
    1e89:	83 ff 02             	cmp    $0x2,%edi
    1e8c:	0f 86 4e 07 00 00    	jbe    25e0 <riscv_dsp_mat_qr_f32+0xdc0>
    1e92:	0f 28 e2             	movaps %xmm2,%xmm4
    1e95:	31 c0                	xor    %eax,%eax
    1e97:	0f c6 e4 00          	shufps $0x0,%xmm4,%xmm4
    1e9b:	0f 1f 44 00 00       	nopl   0x0(%rax,%rax,1)
    1ea0:	41 0f 10 4c 05 00    	movups 0x0(%r13,%rax,1),%xmm1
    1ea6:	0f 10 04 02          	movups (%rdx,%rax,1),%xmm0
    1eaa:	0f 59 cc             	mulps  %xmm4,%xmm1
    1ead:	0f 5c c1             	subps  %xmm1,%xmm0
    1eb0:	0f 11 04 02          	movups %xmm0,(%rdx,%rax,1)
    1eb4:	48 83 c0 10          	add    $0x10,%rax
    1eb8:	48 39 c6             	cmp    %rax,%rsi
    1ebb:	75 e3                	jne    1ea0 <riscv_dsp_mat_qr_f32+0x680>
    1ebd:	4a 8d 0c 1a          	lea    (%rdx,%r11,1),%rcx
    1ec1:	44 89 d0             	mov    %r10d,%eax
    1ec4:	45 39 f2             	cmp    %r14d,%r10d
    1ec7:	74 57                	je     1f20 <riscv_dsp_mat_qr_f32+0x700>
    1ec9:	45 89 f4             	mov    %r14d,%r12d
    1ecc:	41 29 c4             	sub    %eax,%r12d
    1ecf:	41 83 fc 01          	cmp    $0x1,%r12d
    1ed3:	74 38                	je     1f0d <riscv_dsp_mat_qr_f32+0x6ed>
    1ed5:	41 89 c7             	mov    %eax,%r15d
    1ed8:	0f 28 e2             	movaps %xmm2,%xmm4
    1edb:	f3 43 0f 7e 4c bd 00 	movq   0x0(%r13,%r15,4),%xmm1
    1ee2:	0f c6 e4 e0          	shufps $0xe0,%xmm4,%xmm4
    1ee6:	4a 8d 2c ba          	lea    (%rdx,%r15,4),%rbp
    1eea:	f3 0f 7e 45 00       	movq   0x0(%rbp),%xmm0
    1eef:	0f 59 cc             	mulps  %xmm4,%xmm1
    1ef2:	0f 5c c1             	subps  %xmm1,%xmm0
    1ef5:	0f 13 45 00          	movlps %xmm0,0x0(%rbp)
    1ef9:	44 89 e5             	mov    %r12d,%ebp
    1efc:	83 e5 fe             	and    $0xfffffffe,%ebp
    1eff:	41 89 ef             	mov    %ebp,%r15d
    1f02:	01 e8                	add    %ebp,%eax
    1f04:	4a 8d 0c b9          	lea    (%rcx,%r15,4),%rcx
    1f08:	41 39 ec             	cmp    %ebp,%r12d
    1f0b:	74 13                	je     1f20 <riscv_dsp_mat_qr_f32+0x700>
    1f0d:	f3 41 0f 59 54 85 00 	mulss  0x0(%r13,%rax,4),%xmm2
    1f14:	f3 0f 10 01          	movss  (%rcx),%xmm0
    1f18:	f3 0f 5c c2          	subss  %xmm2,%xmm0
    1f1c:	f3 0f 11 01          	movss  %xmm0,(%rcx)
    1f20:	49 83 c1 04          	add    $0x4,%r9
    1f24:	4c 01 c2             	add    %r8,%rdx
    1f27:	4c 39 cb             	cmp    %r9,%rbx
    1f2a:	0f 85 50 ff ff ff    	jne    1e80 <riscv_dsp_mat_qr_f32+0x660>
    1f30:	8b 74 24 50          	mov    0x50(%rsp),%esi
    1f34:	48 8b 54 24 30       	mov    0x30(%rsp),%rdx
    1f39:	48 03 54 24 60       	add    0x60(%rsp),%rdx
    1f3e:	85 f6                	test   %esi,%esi
    1f40:	74 4a                	je     1f8c <riscv_dsp_mat_qr_f32+0x76c>
    1f42:	8b 9c 24 20 01 00 00 	mov    0x120(%rsp),%ebx
    1f49:	48 8b 44 24 58       	mov    0x58(%rsp),%rax
    1f4e:	48 8b 74 24 60       	mov    0x60(%rsp),%rsi
    1f53:	8d 4b fe             	lea    -0x2(%rbx),%ecx
    1f56:	48 8b 5c 24 38       	mov    0x38(%rsp),%rbx
    1f5b:	2b 4c 24 6c          	sub    0x6c(%rsp),%ecx
    1f5f:	83 bc 24 28 01 00 00 	cmpl   $0x1,0x128(%rsp)
    1f66:	01 
    1f67:	48 8d 4c 8b 08       	lea    0x8(%rbx,%rcx,4),%rcx
    1f6c:	0f 85 0e 06 00 00    	jne    2580 <riscv_dsp_mat_qr_f32+0xd60>
    1f72:	66 0f 1f 44 00 00    	nopw   0x0(%rax,%rax,1)
    1f78:	f3 0f 10 00          	movss  (%rax),%xmm0
    1f7c:	48 83 c0 04          	add    $0x4,%rax
    1f80:	f3 0f 11 02          	movss  %xmm0,(%rdx)
    1f84:	48 01 f2             	add    %rsi,%rdx
    1f87:	48 39 c1             	cmp    %rax,%rcx
    1f8a:	75 ec                	jne    1f78 <riscv_dsp_mat_qr_f32+0x758>
    1f8c:	8b bc 24 28 01 00 00 	mov    0x128(%rsp),%edi
    1f93:	48 83 44 24 48 01    	addq   $0x1,0x48(%rsp)
    1f99:	41 83 ee 01          	sub    $0x1,%r14d
    1f9d:	48 8b 9c 24 b8 00 00 	mov    0xb8(%rsp),%rbx
    1fa4:	00 
    1fa5:	01 bc 24 c0 00 00 00 	add    %edi,0xc0(%rsp)
    1fac:	48 01 5c 24 30       	add    %rbx,0x30(%rsp)
    1fb1:	48 8b 44 24 48       	mov    0x48(%rsp),%rax
    1fb6:	83 6c 24 50 01       	subl   $0x1,0x50(%rsp)
    1fbb:	83 6c 24 10 01       	subl   $0x1,0x10(%rsp)
    1fc0:	48 3b 84 24 c8 00 00 	cmp    0xc8(%rsp),%rax
    1fc7:	00 
    1fc8:	0f 85 72 f9 ff ff    	jne    1940 <riscv_dsp_mat_qr_f32+0x120>
    1fce:	48 83 bc 24 d0 00 00 	cmpq   $0x0,0xd0(%rsp)
    1fd5:	00 00 
    1fd7:	0f 84 bc 05 00 00    	je     2599 <riscv_dsp_mat_qr_f32+0xd79>
    1fdd:	8b 9c 24 20 01 00 00 	mov    0x120(%rsp),%ebx
    1fe4:	4c 8b b4 24 d0 00 00 	mov    0xd0(%rsp),%r14
    1feb:	00 
    1fec:	31 f6                	xor    %esi,%esi
    1fee:	48 89 da             	mov    %rbx,%rdx
    1ff1:	4c 89 f7             	mov    %r14,%rdi
    1ff4:	48 0f af d3          	imul   %rbx,%rdx
    1ff8:	48 c1 e2 02          	shl    $0x2,%rdx
    1ffc:	e8 3f f1 ff ff       	call   1140 <memset@plt>
    2001:	8b 8c 24 20 01 00 00 	mov    0x120(%rsp),%ecx
    2008:	85 c9                	test   %ecx,%ecx
    200a:	0f 84 89 05 00 00    	je     2599 <riscv_dsp_mat_qr_f32+0xd79>
    2010:	8b 84 24 20 01 00 00 	mov    0x120(%rsp),%eax
    2017:	f3 0f 10 1d 09 12 00 	movss  0x1209(%rip),%xmm3        # 3228 <_IO_stdin_used+0x228>
    201e:	00 
    201f:	31 f6                	xor    %esi,%esi
    2021:	8b bc 24 20 01 00 00 	mov    0x120(%rsp),%edi
    2028:	8d 50 01             	lea    0x1(%rax),%edx
    202b:	4c 89 f0             	mov    %r14,%rax
    202e:	48 c1 e2 02          	shl    $0x2,%rdx
    2032:	89 f1                	mov    %esi,%ecx
    2034:	83 c6 01             	add    $0x1,%esi
    2037:	f3 0f 11 18          	movss  %xmm3,(%rax)
    203b:	48 01 d0             	add    %rdx,%rax
    203e:	39 f7                	cmp    %esi,%edi
    2040:	75 f0                	jne    2032 <riscv_dsp_mat_qr_f32+0x812>
    2042:	48 8d 04 9d 00 00 00 	lea    0x0(,%rbx,4),%rax
    2049:	00 
    204a:	89 74 24 58          	mov    %esi,0x58(%rsp)
    204e:	48 8b 9c 24 b0 00 00 	mov    0xb0(%rsp),%rbx
    2055:	00 
    2056:	41 be 01 00 00 00    	mov    $0x1,%r14d
    205c:	48 89 84 24 88 00 00 	mov    %rax,0x88(%rsp)
    2063:	00 
    2064:	0f af 8c 24 20 01 00 	imul   0x120(%rsp),%ecx
    206b:	00 
    206c:	48 8d 44 03 fc       	lea    -0x4(%rbx,%rax,1),%rax
    2071:	c7 44 24 68 00 00 00 	movl   $0x0,0x68(%rsp)
    2078:	00 
    2079:	48 89 84 24 90 00 00 	mov    %rax,0x90(%rsp)
    2080:	00 
    2081:	8b 84 24 28 01 00 00 	mov    0x128(%rsp),%eax
    2088:	89 4c 24 60          	mov    %ecx,0x60(%rsp)
    208c:	48 c7 44 24 48 00 00 	movq   $0x0,0x48(%rsp)
    2093:	00 00 
    2095:	48 c1 e0 02          	shl    $0x2,%rax
    2099:	48 89 84 24 98 00 00 	mov    %rax,0x98(%rsp)
    20a0:	00 
    20a1:	48 8b 44 24 38       	mov    0x38(%rsp),%rax
    20a6:	48 c7 44 24 18 04 00 	movq   $0x4,0x18(%rsp)
    20ad:	00 00 
    20af:	48 83 c0 04          	add    $0x4,%rax
    20b3:	48 89 44 24 70       	mov    %rax,0x70(%rsp)
    20b8:	8b 84 24 dc 00 00 00 	mov    0xdc(%rsp),%eax
    20bf:	2b 84 24 28 01 00 00 	sub    0x128(%rsp),%eax
    20c6:	89 44 24 6c          	mov    %eax,0x6c(%rsp)
    20ca:	8b 84 24 20 01 00 00 	mov    0x120(%rsp),%eax
    20d1:	c1 e0 02             	shl    $0x2,%eax
    20d4:	89 84 24 a0 00 00 00 	mov    %eax,0xa0(%rsp)
    20db:	8b 7c 24 58          	mov    0x58(%rsp),%edi
    20df:	8b 54 24 60          	mov    0x60(%rsp),%edx
    20e3:	48 8b 9c 24 d0 00 00 	mov    0xd0(%rsp),%rbx
    20ea:	00 
    20eb:	48 8b 8c 24 a8 00 00 	mov    0xa8(%rsp),%rcx
    20f2:	00 
    20f3:	89 f8                	mov    %edi,%eax
    20f5:	44 29 f0             	sub    %r14d,%eax
    20f8:	41 89 c4             	mov    %eax,%r12d
    20fb:	4c 01 e2             	add    %r12,%rdx
    20fe:	48 8d 1c 93          	lea    (%rbx,%rdx,4),%rbx
    2102:	8b 54 24 6c          	mov    0x6c(%rsp),%edx
    2106:	4c 01 e2             	add    %r12,%rdx
    2109:	48 8d 14 91          	lea    (%rcx,%rdx,4),%rdx
    210d:	39 c7                	cmp    %eax,%edi
    210f:	76 44                	jbe    2155 <riscv_dsp_mat_qr_f32+0x935>
    2111:	48 8b 7c 24 38       	mov    0x38(%rsp),%rdi
    2116:	48 8b 4c 24 18       	mov    0x18(%rsp),%rcx
    211b:	83 bc 24 28 01 00 00 	cmpl   $0x1,0x128(%rsp)
    2122:	01 
    2123:	4c 8d 0c 0f          	lea    (%rdi,%rcx,1),%r9
    2127:	48 89 f8             	mov    %rdi,%rax
    212a:	48 8b 8c 24 98 00 00 	mov    0x98(%rsp),%rcx
    2131:	00 
    2132:	0f 85 e0 04 00 00    	jne    2618 <riscv_dsp_mat_qr_f32+0xdf8>
    2138:	0f 1f 84 00 00 00 00 	nopl   0x0(%rax,%rax,1)
    213f:	00 
    2140:	f3 0f 10 02          	movss  (%rdx),%xmm0
    2144:	48 83 c0 04          	add    $0x4,%rax
    2148:	48 01 ca             	add    %rcx,%rdx
    214b:	f3 0f 11 40 fc       	movss  %xmm0,-0x4(%rax)
    2150:	4c 39 c8             	cmp    %r9,%rax
    2153:	75 eb                	jne    2140 <riscv_dsp_mat_qr_f32+0x920>
    2155:	48 8b 44 24 38       	mov    0x38(%rsp),%rax
    215a:	8b 6c 24 68          	mov    0x68(%rsp),%ebp
    215e:	f3 0f 11 18          	movss  %xmm3,(%rax)
    2162:	c1 ed 02             	shr    $0x2,%ebp
    2165:	45 85 f6             	test   %r14d,%r14d
    2168:	0f 84 5f 06 00 00    	je     27cd <riscv_dsp_mat_qr_f32+0xfad>
    216e:	4c 8b 7c 24 18       	mov    0x18(%rsp),%r15
    2173:	48 89 de             	mov    %rbx,%rsi
    2176:	4c 89 ef             	mov    %r13,%rdi
    2179:	4c 89 fa             	mov    %r15,%rdx
    217c:	e8 df ef ff ff       	call   1160 <memcpy@plt>
    2181:	4a 8d 04 a5 00 00 00 	lea    0x0(,%r12,4),%rax
    2188:	00 
    2189:	48 8b bc 24 88 00 00 	mov    0x88(%rsp),%rdi
    2190:	00 
    2191:	f3 0f 10 1d 8f 10 00 	movss  0x108f(%rip),%xmm3        # 3228 <_IO_stdin_used+0x228>
    2198:	00 
    2199:	48 89 44 24 50       	mov    %rax,0x50(%rsp)
    219e:	4c 01 f8             	add    %r15,%rax
    21a1:	48 01 d8             	add    %rbx,%rax
    21a4:	48 8d 34 38          	lea    (%rax,%rdi,1),%rsi
    21a8:	48 8d 0c 3e          	lea    (%rsi,%rdi,1),%rcx
    21ac:	48 01 cf             	add    %rcx,%rdi
    21af:	85 ed                	test   %ebp,%ebp
    21b1:	0f 84 07 06 00 00    	je     27be <riscv_dsp_mat_qr_f32+0xf9e>
    21b7:	4c 8b 54 24 38       	mov    0x38(%rsp),%r10
    21bc:	4c 8b 64 24 70       	mov    0x70(%rsp),%r12
    21c1:	44 89 74 24 10       	mov    %r14d,0x10(%rsp)
    21c6:	8b 94 24 a0 00 00 00 	mov    0xa0(%rsp),%edx
    21cd:	48 89 9c 24 80 00 00 	mov    %rbx,0x80(%rsp)
    21d4:	00 
    21d5:	44 29 f2             	sub    %r14d,%edx
    21d8:	4c 8d 1c 95 00 00 00 	lea    0x0(,%rdx,4),%r11
    21df:	00 
    21e0:	8d 55 ff             	lea    -0x1(%rbp),%edx
    21e3:	89 94 24 c0 00 00 00 	mov    %edx,0xc0(%rsp)
    21ea:	48 89 54 24 78       	mov    %rdx,0x78(%rsp)
    21ef:	48 c1 e2 04          	shl    $0x4,%rdx
    21f3:	49 8d 54 12 14       	lea    0x14(%r10,%rdx,1),%rdx
    21f8:	48 89 54 24 20       	mov    %rdx,0x20(%rsp)
    21fd:	44 89 f2             	mov    %r14d,%edx
    2200:	c1 ea 02             	shr    $0x2,%edx
    2203:	83 ea 01             	sub    $0x1,%edx
    2206:	48 83 c2 01          	add    $0x1,%rdx
    220a:	48 c1 e2 04          	shl    $0x4,%rdx
    220e:	48 89 d5             	mov    %rdx,%rbp
    2211:	44 89 f2             	mov    %r14d,%edx
    2214:	4d 89 de             	mov    %r11,%r14
    2217:	83 e2 fc             	and    $0xfffffffc,%edx
    221a:	89 54 24 30          	mov    %edx,0x30(%rsp)
    221e:	48 c1 e2 02          	shl    $0x2,%rdx
    2222:	48 89 54 24 28       	mov    %rdx,0x28(%rsp)
    2227:	4c 01 ea             	add    %r13,%rdx
    222a:	48 89 54 24 40       	mov    %rdx,0x40(%rsp)
    222f:	90                   	nop
    2230:	8b 54 24 10          	mov    0x10(%rsp),%edx
    2234:	85 d2                	test   %edx,%edx
    2236:	0f 84 98 01 00 00    	je     23d4 <riscv_dsp_mat_qr_f32+0xbb4>
    223c:	83 7c 24 68 02       	cmpl   $0x2,0x68(%rsp)
    2241:	f3 41 0f 10 2c 24    	movss  (%r12),%xmm5
    2247:	f3 41 0f 10 64 24 04 	movss  0x4(%r12),%xmm4
    224e:	f3 41 0f 10 54 24 08 	movss  0x8(%r12),%xmm2
    2255:	f3 41 0f 10 4c 24 0c 	movss  0xc(%r12),%xmm1
    225c:	0f 86 45 05 00 00    	jbe    27a7 <riscv_dsp_mat_qr_f32+0xf87>
    2262:	44 0f 28 d5          	movaps %xmm5,%xmm10
    2266:	44 0f 28 cc          	movaps %xmm4,%xmm9
    226a:	44 0f 28 c2          	movaps %xmm2,%xmm8
    226e:	31 d2                	xor    %edx,%edx
    2270:	0f 28 f9             	movaps %xmm1,%xmm7
    2273:	45 0f c6 d2 00       	shufps $0x0,%xmm10,%xmm10
    2278:	45 0f c6 c9 00       	shufps $0x0,%xmm9,%xmm9
    227d:	45 0f c6 c0 00       	shufps $0x0,%xmm8,%xmm8
    2282:	0f c6 ff 00          	shufps $0x0,%xmm7,%xmm7
    2286:	66 2e 0f 1f 84 00 00 	cs nopw 0x0(%rax,%rax,1)
    228d:	00 00 00 
    2290:	0f 10 04 10          	movups (%rax,%rdx,1),%xmm0
    2294:	41 0f 10 74 15 00    	movups 0x0(%r13,%rdx,1),%xmm6
    229a:	41 0f 59 c2          	mulps  %xmm10,%xmm0
    229e:	0f 58 c6             	addps  %xmm6,%xmm0
    22a1:	0f 10 34 16          	movups (%rsi,%rdx,1),%xmm6
    22a5:	41 0f 59 f1          	mulps  %xmm9,%xmm6
    22a9:	0f 58 c6             	addps  %xmm6,%xmm0
    22ac:	0f 10 34 11          	movups (%rcx,%rdx,1),%xmm6
    22b0:	41 0f 59 f0          	mulps  %xmm8,%xmm6
    22b4:	0f 58 c6             	addps  %xmm6,%xmm0
    22b7:	0f 10 34 17          	movups (%rdi,%rdx,1),%xmm6
    22bb:	0f 59 f7             	mulps  %xmm7,%xmm6
    22be:	0f 58 c6             	addps  %xmm6,%xmm0
    22c1:	41 0f 11 44 15 00    	movups %xmm0,0x0(%r13,%rdx,1)
    22c7:	48 83 c2 10          	add    $0x10,%rdx
    22cb:	48 39 ea             	cmp    %rbp,%rdx
    22ce:	75 c0                	jne    2290 <riscv_dsp_mat_qr_f32+0xa70>
    22d0:	48 8b 54 24 28       	mov    0x28(%rsp),%rdx
    22d5:	44 8b 44 24 10       	mov    0x10(%rsp),%r8d
    22da:	48 8d 1c 10          	lea    (%rax,%rdx,1),%rbx
    22de:	4c 8d 1c 16          	lea    (%rsi,%rdx,1),%r11
    22e2:	4c 8d 14 11          	lea    (%rcx,%rdx,1),%r10
    22e6:	4c 8d 0c 17          	lea    (%rdi,%rdx,1),%r9
    22ea:	8b 54 24 30          	mov    0x30(%rsp),%edx
    22ee:	44 39 c2             	cmp    %r8d,%edx
    22f1:	0f 84 cc 00 00 00    	je     23c3 <riscv_dsp_mat_qr_f32+0xba3>
    22f7:	41 89 d0             	mov    %edx,%r8d
    22fa:	48 8b 54 24 40       	mov    0x40(%rsp),%rdx
    22ff:	44 8b 7c 24 10       	mov    0x10(%rsp),%r15d
    2304:	45 29 c7             	sub    %r8d,%r15d
    2307:	44 89 7c 24 08       	mov    %r15d,0x8(%rsp)
    230c:	41 83 ff 01          	cmp    $0x1,%r15d
    2310:	0f 84 80 00 00 00    	je     2396 <riscv_dsp_mat_qr_f32+0xb76>
    2316:	f3 42 0f 7e 04 80    	movq   (%rax,%r8,4),%xmm0
    231c:	0f 28 f5             	movaps %xmm5,%xmm6
    231f:	4f 8d 7c 85 00       	lea    0x0(%r13,%r8,4),%r15
    2324:	0f 28 fc             	movaps %xmm4,%xmm7
    2327:	0f c6 f6 e0          	shufps $0xe0,%xmm6,%xmm6
    232b:	0f c6 ff e0          	shufps $0xe0,%xmm7,%xmm7
    232f:	0f 59 c6             	mulps  %xmm6,%xmm0
    2332:	f3 41 0f 7e 37       	movq   (%r15),%xmm6
    2337:	0f 58 c6             	addps  %xmm6,%xmm0
    233a:	f3 42 0f 7e 34 86    	movq   (%rsi,%r8,4),%xmm6
    2340:	0f 59 f7             	mulps  %xmm7,%xmm6
    2343:	0f 28 fa             	movaps %xmm2,%xmm7
    2346:	0f c6 ff e0          	shufps $0xe0,%xmm7,%xmm7
    234a:	0f 58 c6             	addps  %xmm6,%xmm0
    234d:	f3 42 0f 7e 34 81    	movq   (%rcx,%r8,4),%xmm6
    2353:	0f 59 f7             	mulps  %xmm7,%xmm6
    2356:	0f 28 f9             	movaps %xmm1,%xmm7
    2359:	0f c6 ff e0          	shufps $0xe0,%xmm7,%xmm7
    235d:	0f 58 c6             	addps  %xmm6,%xmm0
    2360:	f3 42 0f 7e 34 87    	movq   (%rdi,%r8,4),%xmm6
    2366:	0f 59 f7             	mulps  %xmm7,%xmm6
    2369:	0f 58 c6             	addps  %xmm6,%xmm0
    236c:	41 0f 13 07          	movlps %xmm0,(%r15)
    2370:	44 8b 7c 24 08       	mov    0x8(%rsp),%r15d
    2375:	41 83 e7 fe          	and    $0xfffffffe,%r15d
    2379:	45 89 f8             	mov    %r15d,%r8d
    237c:	49 c1 e0 02          	shl    $0x2,%r8
    2380:	4c 01 c2             	add    %r8,%rdx
    2383:	4c 01 c3             	add    %r8,%rbx
    2386:	4d 01 c3             	add    %r8,%r11
    2389:	4d 01 c2             	add    %r8,%r10
    238c:	4d 01 c1             	add    %r8,%r9
    238f:	44 39 7c 24 08       	cmp    %r15d,0x8(%rsp)
    2394:	74 2d                	je     23c3 <riscv_dsp_mat_qr_f32+0xba3>
    2396:	f3 41 0f 59 23       	mulss  (%r11),%xmm4
    239b:	f3 0f 59 2b          	mulss  (%rbx),%xmm5
    239f:	f3 0f 58 2a          	addss  (%rdx),%xmm5
    23a3:	f3 41 0f 59 12       	mulss  (%r10),%xmm2
    23a8:	f3 41 0f 59 09       	mulss  (%r9),%xmm1
    23ad:	0f 28 c4             	movaps %xmm4,%xmm0
    23b0:	f3 0f 58 c5          	addss  %xmm5,%xmm0
    23b4:	f3 0f 58 d0          	addss  %xmm0,%xmm2
    23b8:	0f 28 c1             	movaps %xmm1,%xmm0
    23bb:	f3 0f 58 c2          	addss  %xmm2,%xmm0
    23bf:	f3 0f 11 02          	movss  %xmm0,(%rdx)
    23c3:	48 8b 5c 24 18       	mov    0x18(%rsp),%rbx
    23c8:	48 01 d8             	add    %rbx,%rax
    23cb:	48 01 de             	add    %rbx,%rsi
    23ce:	48 01 d9             	add    %rbx,%rcx
    23d1:	48 01 df             	add    %rbx,%rdi
    23d4:	4c 01 f0             	add    %r14,%rax
    23d7:	4c 01 f6             	add    %r14,%rsi
    23da:	4c 01 f1             	add    %r14,%rcx
    23dd:	4c 01 f7             	add    %r14,%rdi
    23e0:	49 83 c4 10          	add    $0x10,%r12
    23e4:	4c 39 64 24 20       	cmp    %r12,0x20(%rsp)
    23e9:	0f 85 41 fe ff ff    	jne    2230 <riscv_dsp_mat_qr_f32+0xa10>
    23ef:	4c 8b 44 24 78       	mov    0x78(%rsp),%r8
    23f4:	8b bc 24 c0 00 00 00 	mov    0xc0(%rsp),%edi
    23fb:	48 8b 9c 24 80 00 00 	mov    0x80(%rsp),%rbx
    2402:	00 
    2403:	44 8b 74 24 10       	mov    0x10(%rsp),%r14d
    2408:	49 83 c0 01          	add    $0x1,%r8
    240c:	8d 0c bd 05 00 00 00 	lea    0x5(,%rdi,4),%ecx
    2413:	49 c1 e0 04          	shl    $0x4,%r8
    2417:	4c 03 44 24 70       	add    0x70(%rsp),%r8
    241c:	41 39 ce             	cmp    %ecx,%r14d
    241f:	0f 86 0d 02 00 00    	jbe    2632 <riscv_dsp_mat_qr_f32+0xe12>
    2425:	45 89 f2             	mov    %r14d,%r10d
    2428:	41 8d 56 ff          	lea    -0x1(%r14),%edx
    242c:	48 8b 6c 24 50       	mov    0x50(%rsp),%rbp
    2431:	48 89 5c 24 20       	mov    %rbx,0x20(%rsp)
    2436:	41 83 e2 fc          	and    $0xfffffffc,%r10d
    243a:	29 ca                	sub    %ecx,%edx
    243c:	8b 5c 24 68          	mov    0x68(%rsp),%ebx
    2440:	45 89 d3             	mov    %r10d,%r11d
    2443:	4d 8d 7c 90 04       	lea    0x4(%r8,%rdx,4),%r15
    2448:	44 89 f2             	mov    %r14d,%edx
    244b:	49 c1 e3 02          	shl    $0x2,%r11
    244f:	c1 ea 02             	shr    $0x2,%edx
    2452:	4b 8d 4c 1d 00       	lea    0x0(%r13,%r11,1),%rcx
    2457:	8d 7a ff             	lea    -0x1(%rdx),%edi
    245a:	48 89 4c 24 08       	mov    %rcx,0x8(%rsp)
    245f:	48 8b 4c 24 48       	mov    0x48(%rsp),%rcx
    2464:	48 83 c7 01          	add    $0x1,%rdi
    2468:	48 c1 e7 04          	shl    $0x4,%rdi
    246c:	48 83 c1 04          	add    $0x4,%rcx
    2470:	48 89 4c 24 10       	mov    %rcx,0x10(%rsp)
    2475:	48 01 cd             	add    %rcx,%rbp
    2478:	0f 1f 84 00 00 00 00 	nopl   0x0(%rax,%rax,1)
    247f:	00 
    2480:	45 85 f6             	test   %r14d,%r14d
    2483:	0f 84 c5 02 00 00    	je     274e <riscv_dsp_mat_qr_f32+0xf2e>
    2489:	f3 41 0f 10 08       	movss  (%r8),%xmm1
    248e:	83 fb 02             	cmp    $0x2,%ebx
    2491:	0f 86 03 03 00 00    	jbe    279a <riscv_dsp_mat_qr_f32+0xf7a>
    2497:	0f 28 d1             	movaps %xmm1,%xmm2
    249a:	31 d2                	xor    %edx,%edx
    249c:	0f c6 d2 00          	shufps $0x0,%xmm2,%xmm2
    24a0:	0f 10 04 10          	movups (%rax,%rdx,1),%xmm0
    24a4:	41 0f 10 6c 15 00    	movups 0x0(%r13,%rdx,1),%xmm5
    24aa:	0f 59 c2             	mulps  %xmm2,%xmm0
    24ad:	0f 58 c5             	addps  %xmm5,%xmm0
    24b0:	41 0f 11 44 15 00    	movups %xmm0,0x0(%r13,%rdx,1)
    24b6:	48 83 c2 10          	add    $0x10,%rdx
    24ba:	48 39 fa             	cmp    %rdi,%rdx
    24bd:	75 e1                	jne    24a0 <riscv_dsp_mat_qr_f32+0xc80>
    24bf:	4a 8d 0c 18          	lea    (%rax,%r11,1),%rcx
    24c3:	45 39 d6             	cmp    %r10d,%r14d
    24c6:	74 5f                	je     2527 <riscv_dsp_mat_qr_f32+0xd07>
    24c8:	48 8b 54 24 08       	mov    0x8(%rsp),%rdx
    24cd:	44 89 d6             	mov    %r10d,%esi
    24d0:	45 89 f1             	mov    %r14d,%r9d
    24d3:	41 29 f1             	sub    %esi,%r9d
    24d6:	41 83 f9 01          	cmp    $0x1,%r9d
    24da:	74 3b                	je     2517 <riscv_dsp_mat_qr_f32+0xcf7>
    24dc:	f3 0f 7e 04 b0       	movq   (%rax,%rsi,4),%xmm0
    24e1:	0f 28 d1             	movaps %xmm1,%xmm2
    24e4:	4d 8d 64 b5 00       	lea    0x0(%r13,%rsi,4),%r12
    24e9:	0f c6 d2 e0          	shufps $0xe0,%xmm2,%xmm2
    24ed:	0f 59 c2             	mulps  %xmm2,%xmm0
    24f0:	f3 41 0f 7e 14 24    	movq   (%r12),%xmm2
    24f6:	0f 58 c2             	addps  %xmm2,%xmm0
    24f9:	41 0f 13 04 24       	movlps %xmm0,(%r12)
    24fe:	45 89 cc             	mov    %r9d,%r12d
    2501:	41 83 e4 fe          	and    $0xfffffffe,%r12d
    2505:	44 89 e6             	mov    %r12d,%esi
    2508:	48 c1 e6 02          	shl    $0x2,%rsi
    250c:	48 01 f1             	add    %rsi,%rcx
    250f:	48 01 f2             	add    %rsi,%rdx
    2512:	45 39 cc             	cmp    %r9d,%r12d
    2515:	74 10                	je     2527 <riscv_dsp_mat_qr_f32+0xd07>
    2517:	f3 0f 59 09          	mulss  (%rcx),%xmm1
    251b:	f3 0f 10 02          	movss  (%rdx),%xmm0
    251f:	f3 0f 58 c1          	addss  %xmm1,%xmm0
    2523:	f3 0f 11 02          	movss  %xmm0,(%rdx)
    2527:	49 83 c0 04          	add    $0x4,%r8
    252b:	48 01 e8             	add    %rbp,%rax
    252e:	4d 39 f8             	cmp    %r15,%r8
    2531:	0f 85 49 ff ff ff    	jne    2480 <riscv_dsp_mat_qr_f32+0xc60>
    2537:	48 8b 44 24 48       	mov    0x48(%rsp),%rax
    253c:	48 8b bc 24 90 00 00 	mov    0x90(%rsp),%rdi
    2543:	00 
    2544:	48 8b 5c 24 20       	mov    0x20(%rsp),%rbx
    2549:	48 f7 d8             	neg    %rax
    254c:	f3 0f 10 2c 07       	movss  (%rdi,%rax,1),%xmm5
    2551:	e9 08 01 00 00       	jmp    265e <riscv_dsp_mat_qr_f32+0xe3e>
    2556:	66 2e 0f 1f 84 00 00 	cs nopw 0x0(%rax,%rax,1)
    255d:	00 00 00 
    2560:	f3 0f 10 02          	movss  (%rdx),%xmm0
    2564:	48 83 c0 04          	add    $0x4,%rax
    2568:	48 01 f2             	add    %rsi,%rdx
    256b:	f3 0f 11 40 fc       	movss  %xmm0,-0x4(%rax)
    2570:	48 39 c8             	cmp    %rcx,%rax
    2573:	75 eb                	jne    2560 <riscv_dsp_mat_qr_f32+0xd40>
    2575:	e9 3b f4 ff ff       	jmp    19b5 <riscv_dsp_mat_qr_f32+0x195>
    257a:	66 0f 1f 44 00 00    	nopw   0x0(%rax,%rax,1)
    2580:	f3 0f 10 00          	movss  (%rax),%xmm0
    2584:	48 83 c0 04          	add    $0x4,%rax
    2588:	f3 0f 11 02          	movss  %xmm0,(%rdx)
    258c:	48 01 f2             	add    %rsi,%rdx
    258f:	48 39 c8             	cmp    %rcx,%rax
    2592:	75 ec                	jne    2580 <riscv_dsp_mat_qr_f32+0xd60>
    2594:	e9 f3 f9 ff ff       	jmp    1f8c <riscv_dsp_mat_qr_f32+0x76c>
    2599:	31 c0                	xor    %eax,%eax
    259b:	48 81 c4 e8 00 00 00 	add    $0xe8,%rsp
    25a2:	5b                   	pop    %rbx
    25a3:	5d                   	pop    %rbp
    25a4:	41 5c                	pop    %r12
    25a6:	41 5d                	pop    %r13
    25a8:	41 5e                	pop    %r14
    25aa:	41 5f                	pop    %r15
    25ac:	c3                   	ret    
    25ad:	0f 1f 00             	nopl   (%rax)
    25b0:	4c 89 e8             	mov    %r13,%rax
    25b3:	48 89 ca             	mov    %rcx,%rdx
    25b6:	31 f6                	xor    %esi,%esi
    25b8:	e9 11 f8 ff ff       	jmp    1dce <riscv_dsp_mat_qr_f32+0x5ae>
    25bd:	0f 1f 00             	nopl   (%rax)
    25c0:	4c 89 c1             	mov    %r8,%rcx
    25c3:	49 89 fa             	mov    %rdi,%r10
    25c6:	49 89 f3             	mov    %rsi,%r11
    25c9:	4c 89 cb             	mov    %r9,%rbx
    25cc:	4c 89 e8             	mov    %r13,%rax
    25cf:	31 d2                	xor    %edx,%edx
    25d1:	e9 56 f6 ff ff       	jmp    1c2c <riscv_dsp_mat_qr_f32+0x40c>
    25d6:	66 2e 0f 1f 84 00 00 	cs nopw 0x0(%rax,%rax,1)
    25dd:	00 00 00 
    25e0:	48 89 d1             	mov    %rdx,%rcx
    25e3:	31 c0                	xor    %eax,%eax
    25e5:	e9 df f8 ff ff       	jmp    1ec9 <riscv_dsp_mat_qr_f32+0x6a9>
    25ea:	48 89 84 24 88 00 00 	mov    %rax,0x88(%rsp)
    25f1:	00 
    25f2:	e9 be f3 ff ff       	jmp    19b5 <riscv_dsp_mat_qr_f32+0x195>
    25f7:	4c 8b 44 24 58       	mov    0x58(%rsp),%r8
    25fc:	b8 01 00 00 00       	mov    $0x1,%eax
    2601:	e9 39 f7 ff ff       	jmp    1d3f <riscv_dsp_mat_qr_f32+0x51f>
    2606:	48 8b 54 24 30       	mov    0x30(%rsp),%rdx
    260b:	4c 89 e8             	mov    %r13,%rax
    260e:	31 c9                	xor    %ecx,%ecx
    2610:	e9 3e f4 ff ff       	jmp    1a53 <riscv_dsp_mat_qr_f32+0x233>
    2615:	0f 1f 00             	nopl   (%rax)
    2618:	f3 0f 10 02          	movss  (%rdx),%xmm0
    261c:	48 83 c0 04          	add    $0x4,%rax
    2620:	48 01 ca             	add    %rcx,%rdx
    2623:	f3 0f 11 40 fc       	movss  %xmm0,-0x4(%rax)
    2628:	4c 39 c8             	cmp    %r9,%rax
    262b:	75 eb                	jne    2618 <riscv_dsp_mat_qr_f32+0xdf8>
    262d:	e9 23 fb ff ff       	jmp    2155 <riscv_dsp_mat_qr_f32+0x935>
    2632:	48 8b 44 24 48       	mov    0x48(%rsp),%rax
    2637:	48 8b bc 24 90 00 00 	mov    0x90(%rsp),%rdi
    263e:	00 
    263f:	48 f7 d8             	neg    %rax
    2642:	f3 0f 10 2c 07       	movss  (%rdi,%rax,1),%xmm5
    2647:	48 8b 44 24 48       	mov    0x48(%rsp),%rax
    264c:	48 83 c0 04          	add    $0x4,%rax
    2650:	48 89 44 24 10       	mov    %rax,0x10(%rsp)
    2655:	45 85 f6             	test   %r14d,%r14d
    2658:	0f 84 f0 00 00 00    	je     274e <riscv_dsp_mat_qr_f32+0xf2e>
    265e:	44 89 f0             	mov    %r14d,%eax
    2661:	45 89 f2             	mov    %r14d,%r10d
    2664:	48 8b 7c 24 18       	mov    0x18(%rsp),%rdi
    2669:	8b 74 24 68          	mov    0x68(%rsp),%esi
    266d:	c1 e8 02             	shr    $0x2,%eax
    2670:	41 83 e2 fc          	and    $0xfffffffc,%r10d
    2674:	48 8b 6c 24 50       	mov    0x50(%rsp),%rbp
    2679:	48 03 6c 24 10       	add    0x10(%rsp),%rbp
    267e:	8d 48 ff             	lea    -0x1(%rax),%ecx
    2681:	48 8b 44 24 38       	mov    0x38(%rsp),%rax
    2686:	45 89 d3             	mov    %r10d,%r11d
    2689:	48 83 c1 01          	add    $0x1,%rcx
    268d:	49 c1 e3 02          	shl    $0x2,%r11
    2691:	48 c1 e1 04          	shl    $0x4,%rcx
    2695:	49 89 c0             	mov    %rax,%r8
    2698:	4c 8d 0c 38          	lea    (%rax,%rdi,1),%r9
    269c:	0f 1f 40 00          	nopl   0x0(%rax)
    26a0:	f3 41 0f 10 10       	movss  (%r8),%xmm2
    26a5:	f3 0f 59 d5          	mulss  %xmm5,%xmm2
    26a9:	83 fe 02             	cmp    $0x2,%esi
    26ac:	0f 86 de 00 00 00    	jbe    2790 <riscv_dsp_mat_qr_f32+0xf70>
    26b2:	0f 28 e2             	movaps %xmm2,%xmm4
    26b5:	31 c0                	xor    %eax,%eax
    26b7:	0f c6 e4 00          	shufps $0x0,%xmm4,%xmm4
    26bb:	0f 1f 44 00 00       	nopl   0x0(%rax,%rax,1)
    26c0:	41 0f 10 4c 05 00    	movups 0x0(%r13,%rax,1),%xmm1
    26c6:	0f 10 04 03          	movups (%rbx,%rax,1),%xmm0
    26ca:	0f 59 cc             	mulps  %xmm4,%xmm1
    26cd:	0f 5c c1             	subps  %xmm1,%xmm0
    26d0:	0f 11 04 03          	movups %xmm0,(%rbx,%rax,1)
    26d4:	48 83 c0 10          	add    $0x10,%rax
    26d8:	48 39 c1             	cmp    %rax,%rcx
    26db:	75 e3                	jne    26c0 <riscv_dsp_mat_qr_f32+0xea0>
    26dd:	4a 8d 14 1b          	lea    (%rbx,%r11,1),%rdx
    26e1:	44 89 d0             	mov    %r10d,%eax
    26e4:	45 39 d6             	cmp    %r10d,%r14d
    26e7:	74 55                	je     273e <riscv_dsp_mat_qr_f32+0xf1e>
    26e9:	45 89 f4             	mov    %r14d,%r12d
    26ec:	41 29 c4             	sub    %eax,%r12d
    26ef:	41 83 fc 01          	cmp    $0x1,%r12d
    26f3:	74 36                	je     272b <riscv_dsp_mat_qr_f32+0xf0b>
    26f5:	41 89 c7             	mov    %eax,%r15d
    26f8:	0f 28 e2             	movaps %xmm2,%xmm4
    26fb:	f3 43 0f 7e 4c bd 00 	movq   0x0(%r13,%r15,4),%xmm1
    2702:	0f c6 e4 e0          	shufps $0xe0,%xmm4,%xmm4
    2706:	4a 8d 3c bb          	lea    (%rbx,%r15,4),%rdi
    270a:	f3 0f 7e 07          	movq   (%rdi),%xmm0
    270e:	0f 59 cc             	mulps  %xmm4,%xmm1
    2711:	0f 5c c1             	subps  %xmm1,%xmm0
    2714:	0f 13 07             	movlps %xmm0,(%rdi)
    2717:	44 89 e7             	mov    %r12d,%edi
    271a:	83 e7 fe             	and    $0xfffffffe,%edi
    271d:	41 89 ff             	mov    %edi,%r15d
    2720:	01 f8                	add    %edi,%eax
    2722:	4a 8d 14 ba          	lea    (%rdx,%r15,4),%rdx
    2726:	44 39 e7             	cmp    %r12d,%edi
    2729:	74 13                	je     273e <riscv_dsp_mat_qr_f32+0xf1e>
    272b:	f3 41 0f 59 54 85 00 	mulss  0x0(%r13,%rax,4),%xmm2
    2732:	f3 0f 10 02          	movss  (%rdx),%xmm0
    2736:	f3 0f 5c c2          	subss  %xmm2,%xmm0
    273a:	f3 0f 11 02          	movss  %xmm0,(%rdx)
    273e:	49 83 c0 04          	add    $0x4,%r8
    2742:	48 01 eb             	add    %rbp,%rbx
    2745:	4d 39 c1             	cmp    %r8,%r9
    2748:	0f 85 52 ff ff ff    	jne    26a0 <riscv_dsp_mat_qr_f32+0xe80>
    274e:	48 8b 5c 24 10       	mov    0x10(%rsp),%rbx
    2753:	8b 7c 24 58          	mov    0x58(%rsp),%edi
    2757:	41 8d 46 01          	lea    0x1(%r14),%eax
    275b:	29 7c 24 60          	sub    %edi,0x60(%rsp)
    275f:	8b bc 24 28 01 00 00 	mov    0x128(%rsp),%edi
    2766:	83 44 24 68 01       	addl   $0x1,0x68(%rsp)
    276b:	29 7c 24 6c          	sub    %edi,0x6c(%rsp)
    276f:	48 83 44 24 18 04    	addq   $0x4,0x18(%rsp)
    2775:	48 89 5c 24 48       	mov    %rbx,0x48(%rsp)
    277a:	44 39 b4 24 20 01 00 	cmp    %r14d,0x120(%rsp)
    2781:	00 
    2782:	0f 84 11 fe ff ff    	je     2599 <riscv_dsp_mat_qr_f32+0xd79>
    2788:	41 89 c6             	mov    %eax,%r14d
    278b:	e9 4b f9 ff ff       	jmp    20db <riscv_dsp_mat_qr_f32+0x8bb>
    2790:	48 89 da             	mov    %rbx,%rdx
    2793:	31 c0                	xor    %eax,%eax
    2795:	e9 4f ff ff ff       	jmp    26e9 <riscv_dsp_mat_qr_f32+0xec9>
    279a:	4c 89 ea             	mov    %r13,%rdx
    279d:	48 89 c1             	mov    %rax,%rcx
    27a0:	31 f6                	xor    %esi,%esi
    27a2:	e9 29 fd ff ff       	jmp    24d0 <riscv_dsp_mat_qr_f32+0xcb0>
    27a7:	49 89 f9             	mov    %rdi,%r9
    27aa:	49 89 ca             	mov    %rcx,%r10
    27ad:	49 89 f3             	mov    %rsi,%r11
    27b0:	48 89 c3             	mov    %rax,%rbx
    27b3:	4c 89 ea             	mov    %r13,%rdx
    27b6:	45 31 c0             	xor    %r8d,%r8d
    27b9:	e9 41 fb ff ff       	jmp    22ff <riscv_dsp_mat_qr_f32+0xadf>
    27be:	4c 8b 44 24 70       	mov    0x70(%rsp),%r8
    27c3:	b9 01 00 00 00       	mov    $0x1,%ecx
    27c8:	e9 4f fc ff ff       	jmp    241c <riscv_dsp_mat_qr_f32+0xbfc>
    27cd:	48 8b bc 24 88 00 00 	mov    0x88(%rsp),%rdi
    27d4:	00 
    27d5:	4a 8d 04 a5 00 00 00 	lea    0x0(,%r12,4),%rax
    27dc:	00 
    27dd:	48 89 44 24 50       	mov    %rax,0x50(%rsp)
    27e2:	48 01 d8             	add    %rbx,%rax
    27e5:	48 8d 34 38          	lea    (%rax,%rdi,1),%rsi
    27e9:	48 8d 0c 3e          	lea    (%rsi,%rdi,1),%rcx
    27ed:	48 01 cf             	add    %rcx,%rdi
    27f0:	e9 c2 f9 ff ff       	jmp    21b7 <riscv_dsp_mat_qr_f32+0x997>
    27f5:	b8 ff ff ff ff       	mov    $0xffffffff,%eax
    27fa:	e9 9c fd ff ff       	jmp    259b <riscv_dsp_mat_qr_f32+0xd7b>
    27ff:	90                   	nop

0000000000002800 <riscv_dsp_mat_householder_f32>:
    2800:	f3 0f 1e fa          	endbr64 
    2804:	41 57                	push   %r15
    2806:	49 89 ff             	mov    %rdi,%r15
    2809:	41 56                	push   %r14
    280b:	49 89 d6             	mov    %rdx,%r14
    280e:	41 55                	push   %r13
    2810:	44 8d 6e ff          	lea    -0x1(%rsi),%r13d
    2814:	41 54                	push   %r12
    2816:	41 89 f4             	mov    %esi,%r12d
    2819:	55                   	push   %rbp
    281a:	48 8d 6f 04          	lea    0x4(%rdi),%rbp
    281e:	53                   	push   %rbx
    281f:	66 0f 7e c3          	movd   %xmm0,%ebx
    2823:	48 83 ec 18          	sub    $0x18,%rsp
    2827:	f3 0f 10 1f          	movss  (%rdi),%xmm3
    282b:	f3 0f 11 5c 24 08    	movss  %xmm3,0x8(%rsp)
    2831:	83 fe 01             	cmp    $0x1,%esi
    2834:	76 1a                	jbe    2850 <riscv_dsp_mat_householder_f32+0x50>
    2836:	48 8d 7a 04          	lea    0x4(%rdx),%rdi
    283a:	49 8d 6f 04          	lea    0x4(%r15),%rbp
    283e:	8d 56 ff             	lea    -0x1(%rsi),%edx
    2841:	48 89 ee             	mov    %rbp,%rsi
    2844:	49 89 d5             	mov    %rdx,%r13
    2847:	48 c1 e2 02          	shl    $0x2,%rdx
    284b:	e8 10 e9 ff ff       	call   1160 <memcpy@plt>
    2850:	41 c7 06 00 00 80 3f 	movl   $0x3f800000,(%r14)
    2857:	44 89 ea             	mov    %r13d,%edx
    285a:	48 89 ee             	mov    %rbp,%rsi
    285d:	48 89 ef             	mov    %rbp,%rdi
    2860:	e8 6b 01 00 00       	call   29d0 <riscv_dsp_dprod_f32>
    2865:	66 0f 6e e3          	movd   %ebx,%xmm4
    2869:	0f 2f e0             	comiss %xmm0,%xmm4
    286c:	72 2a                	jb     2898 <riscv_dsp_mat_householder_f32+0x98>
    286e:	44 89 e2             	mov    %r12d,%edx
    2871:	4c 89 f7             	mov    %r14,%rdi
    2874:	31 f6                	xor    %esi,%esi
    2876:	48 c1 e2 02          	shl    $0x2,%rdx
    287a:	e8 c1 e8 ff ff       	call   1140 <memset@plt>
    287f:	48 83 c4 18          	add    $0x18,%rsp
    2883:	66 0f ef c0          	pxor   %xmm0,%xmm0
    2887:	5b                   	pop    %rbx
    2888:	5d                   	pop    %rbp
    2889:	41 5c                	pop    %r12
    288b:	41 5d                	pop    %r13
    288d:	41 5e                	pop    %r14
    288f:	41 5f                	pop    %r15
    2891:	c3                   	ret    
    2892:	66 0f 1f 44 00 00    	nopw   0x0(%rax,%rax,1)
    2898:	f3 0f 10 6c 24 08    	movss  0x8(%rsp),%xmm5
    289e:	66 0f ef d2          	pxor   %xmm2,%xmm2
    28a2:	0f 28 cd             	movaps %xmm5,%xmm1
    28a5:	f3 0f 59 cd          	mulss  %xmm5,%xmm1
    28a9:	f3 0f 58 c8          	addss  %xmm0,%xmm1
    28ad:	0f 2e d1             	ucomiss %xmm1,%xmm2
    28b0:	77 66                	ja     2918 <riscv_dsp_mat_householder_f32+0x118>
    28b2:	f3 0f 51 c9          	sqrtss %xmm1,%xmm1
    28b6:	0f 28 f5             	movaps %xmm5,%xmm6
    28b9:	0f 2f f2             	comiss %xmm2,%xmm6
    28bc:	76 07                	jbe    28c5 <riscv_dsp_mat_householder_f32+0xc5>
    28be:	0f 57 0d 6b 09 00 00 	xorps  0x96b(%rip),%xmm1        # 3230 <_IO_stdin_used+0x230>
    28c5:	f3 0f 10 54 24 08    	movss  0x8(%rsp),%xmm2
    28cb:	44 89 e2             	mov    %r12d,%edx
    28ce:	4c 89 f6             	mov    %r14,%rsi
    28d1:	4c 89 ff             	mov    %r15,%rdi
    28d4:	f3 0f 10 05 4c 09 00 	movss  0x94c(%rip),%xmm0        # 3228 <_IO_stdin_used+0x228>
    28db:	00 
    28dc:	f3 0f 11 4c 24 0c    	movss  %xmm1,0xc(%rsp)
    28e2:	f3 0f 5c d1          	subss  %xmm1,%xmm2
    28e6:	f3 0f 5e c2          	divss  %xmm2,%xmm0
    28ea:	e8 41 00 00 00       	call   2930 <riscv_dsp_scale_f32>
    28ef:	f3 0f 10 4c 24 0c    	movss  0xc(%rsp),%xmm1
    28f5:	41 c7 06 00 00 80 3f 	movl   $0x3f800000,(%r14)
    28fc:	0f 28 c1             	movaps %xmm1,%xmm0
    28ff:	f3 0f 5c 44 24 08    	subss  0x8(%rsp),%xmm0
    2905:	48 83 c4 18          	add    $0x18,%rsp
    2909:	5b                   	pop    %rbx
    290a:	5d                   	pop    %rbp
    290b:	41 5c                	pop    %r12
    290d:	41 5d                	pop    %r13
    290f:	f3 0f 5e c1          	divss  %xmm1,%xmm0
    2913:	41 5e                	pop    %r14
    2915:	41 5f                	pop    %r15
    2917:	c3                   	ret    
    2918:	0f 28 c1             	movaps %xmm1,%xmm0
    291b:	e8 50 e8 ff ff       	call   1170 <sqrtf@plt>
    2920:	f3 0f 10 74 24 08    	movss  0x8(%rsp),%xmm6
    2926:	66 0f ef d2          	pxor   %xmm2,%xmm2
    292a:	0f 28 c8             	movaps %xmm0,%xmm1
    292d:	eb 8a                	jmp    28b9 <riscv_dsp_mat_householder_f32+0xb9>
    292f:	90                   	nop

0000000000002930 <riscv_dsp_scale_f32>:
    2930:	f3 0f 1e fa          	endbr64 
    2934:	48 89 f1             	mov    %rsi,%rcx
    2937:	85 d2                	test   %edx,%edx
    2939:	74 7f                	je     29ba <riscv_dsp_scale_f32+0x8a>
    293b:	8d 42 ff             	lea    -0x1(%rdx),%eax
    293e:	83 f8 02             	cmp    $0x2,%eax
    2941:	76 7e                	jbe    29c1 <riscv_dsp_scale_f32+0x91>
    2943:	89 d6                	mov    %edx,%esi
    2945:	0f 28 d0             	movaps %xmm0,%xmm2
    2948:	31 c0                	xor    %eax,%eax
    294a:	c1 ee 02             	shr    $0x2,%esi
    294d:	0f c6 d2 00          	shufps $0x0,%xmm2,%xmm2
    2951:	48 c1 e6 04          	shl    $0x4,%rsi
    2955:	0f 1f 00             	nopl   (%rax)
    2958:	0f 10 0c 07          	movups (%rdi,%rax,1),%xmm1
    295c:	0f 59 ca             	mulps  %xmm2,%xmm1
    295f:	0f 11 0c 01          	movups %xmm1,(%rcx,%rax,1)
    2963:	48 83 c0 10          	add    $0x10,%rax
    2967:	48 39 f0             	cmp    %rsi,%rax
    296a:	75 ec                	jne    2958 <riscv_dsp_scale_f32+0x28>
    296c:	89 d6                	mov    %edx,%esi
    296e:	83 e6 fc             	and    $0xfffffffc,%esi
    2971:	89 f0                	mov    %esi,%eax
    2973:	48 c1 e0 02          	shl    $0x2,%rax
    2977:	4c 8d 04 07          	lea    (%rdi,%rax,1),%r8
    297b:	48 01 c8             	add    %rcx,%rax
    297e:	39 f2                	cmp    %esi,%edx
    2980:	74 3e                	je     29c0 <riscv_dsp_scale_f32+0x90>
    2982:	29 f2                	sub    %esi,%edx
    2984:	83 fa 01             	cmp    $0x1,%edx
    2987:	74 28                	je     29b1 <riscv_dsp_scale_f32+0x81>
    2989:	f3 0f 7e 0c b7       	movq   (%rdi,%rsi,4),%xmm1
    298e:	0f 28 d0             	movaps %xmm0,%xmm2
    2991:	0f c6 d2 e0          	shufps $0xe0,%xmm2,%xmm2
    2995:	0f 59 ca             	mulps  %xmm2,%xmm1
    2998:	0f 13 0c b1          	movlps %xmm1,(%rcx,%rsi,4)
    299c:	89 d6                	mov    %edx,%esi
    299e:	83 e6 fe             	and    $0xfffffffe,%esi
    29a1:	89 f1                	mov    %esi,%ecx
    29a3:	48 c1 e1 02          	shl    $0x2,%rcx
    29a7:	49 01 c8             	add    %rcx,%r8
    29aa:	48 01 c8             	add    %rcx,%rax
    29ad:	39 f2                	cmp    %esi,%edx
    29af:	74 09                	je     29ba <riscv_dsp_scale_f32+0x8a>
    29b1:	f3 41 0f 59 00       	mulss  (%r8),%xmm0
    29b6:	f3 0f 11 00          	movss  %xmm0,(%rax)
    29ba:	c3                   	ret    
    29bb:	0f 1f 44 00 00       	nopl   0x0(%rax,%rax,1)
    29c0:	c3                   	ret    
    29c1:	48 89 f0             	mov    %rsi,%rax
    29c4:	49 89 f8             	mov    %rdi,%r8
    29c7:	31 f6                	xor    %esi,%esi
    29c9:	eb b7                	jmp    2982 <riscv_dsp_scale_f32+0x52>
    29cb:	0f 1f 44 00 00       	nopl   0x0(%rax,%rax,1)

00000000000029d0 <riscv_dsp_dprod_f32>:
    29d0:	f3 0f 1e fa          	endbr64 
    29d4:	48 89 f9             	mov    %rdi,%rcx
    29d7:	85 d2                	test   %edx,%edx
    29d9:	0f 84 a9 00 00 00    	je     2a88 <riscv_dsp_dprod_f32+0xb8>
    29df:	8d 42 ff             	lea    -0x1(%rdx),%eax
    29e2:	83 f8 02             	cmp    $0x2,%eax
    29e5:	0f 86 a6 00 00 00    	jbe    2a91 <riscv_dsp_dprod_f32+0xc1>
    29eb:	89 d7                	mov    %edx,%edi
    29ed:	31 c0                	xor    %eax,%eax
    29ef:	66 0f ef c0          	pxor   %xmm0,%xmm0
    29f3:	c1 ef 02             	shr    $0x2,%edi
    29f6:	48 c1 e7 04          	shl    $0x4,%rdi
    29fa:	66 0f 1f 44 00 00    	nopw   0x0(%rax,%rax,1)
    2a00:	0f 10 0c 01          	movups (%rcx,%rax,1),%xmm1
    2a04:	0f 10 1c 06          	movups (%rsi,%rax,1),%xmm3
    2a08:	48 83 c0 10          	add    $0x10,%rax
    2a0c:	0f 59 cb             	mulps  %xmm3,%xmm1
    2a0f:	f3 0f 58 c1          	addss  %xmm1,%xmm0
    2a13:	0f 28 d1             	movaps %xmm1,%xmm2
    2a16:	0f c6 d1 55          	shufps $0x55,%xmm1,%xmm2
    2a1a:	f3 0f 58 c2          	addss  %xmm2,%xmm0
    2a1e:	0f 28 d1             	movaps %xmm1,%xmm2
    2a21:	0f 15 d1             	unpckhps %xmm1,%xmm2
    2a24:	0f c6 c9 ff          	shufps $0xff,%xmm1,%xmm1
    2a28:	f3 0f 58 c2          	addss  %xmm2,%xmm0
    2a2c:	f3 0f 58 c1          	addss  %xmm1,%xmm0
    2a30:	48 39 f8             	cmp    %rdi,%rax
    2a33:	75 cb                	jne    2a00 <riscv_dsp_dprod_f32+0x30>
    2a35:	89 d7                	mov    %edx,%edi
    2a37:	83 e7 fc             	and    $0xfffffffc,%edi
    2a3a:	89 f8                	mov    %edi,%eax
    2a3c:	48 c1 e0 02          	shl    $0x2,%rax
    2a40:	48 01 c1             	add    %rax,%rcx
    2a43:	48 01 c6             	add    %rax,%rsi
    2a46:	89 d0                	mov    %edx,%eax
    2a48:	29 f8                	sub    %edi,%eax
    2a4a:	39 fa                	cmp    %edi,%edx
    2a4c:	74 42                	je     2a90 <riscv_dsp_dprod_f32+0xc0>
    2a4e:	f3 0f 10 09          	movss  (%rcx),%xmm1
    2a52:	f3 0f 59 0e          	mulss  (%rsi),%xmm1
    2a56:	f3 0f 58 c1          	addss  %xmm1,%xmm0
    2a5a:	83 f8 01             	cmp    $0x1,%eax
    2a5d:	74 2d                	je     2a8c <riscv_dsp_dprod_f32+0xbc>
    2a5f:	f3 0f 10 49 04       	movss  0x4(%rcx),%xmm1
    2a64:	f3 0f 59 4e 04       	mulss  0x4(%rsi),%xmm1
    2a69:	f3 0f 58 c1          	addss  %xmm1,%xmm0
    2a6d:	83 f8 02             	cmp    $0x2,%eax
    2a70:	74 1a                	je     2a8c <riscv_dsp_dprod_f32+0xbc>
    2a72:	f3 0f 10 4e 08       	movss  0x8(%rsi),%xmm1
    2a77:	f3 0f 59 49 08       	mulss  0x8(%rcx),%xmm1
    2a7c:	f3 0f 58 c1          	addss  %xmm1,%xmm0
    2a80:	c3                   	ret    
    2a81:	0f 1f 80 00 00 00 00 	nopl   0x0(%rax)
    2a88:	66 0f ef c0          	pxor   %xmm0,%xmm0
    2a8c:	c3                   	ret    
    2a8d:	0f 1f 00             	nopl   (%rax)
    2a90:	c3                   	ret    
    2a91:	89 d0                	mov    %edx,%eax
    2a93:	66 0f ef c0          	pxor   %xmm0,%xmm0
    2a97:	eb b5                	jmp    2a4e <riscv_dsp_dprod_f32+0x7e>

Disassembly of section .fini:

0000000000002a9c <_fini>:
    2a9c:	f3 0f 1e fa          	endbr64 
    2aa0:	48 83 ec 08          	sub    $0x8,%rsp
    2aa4:	48 83 c4 08          	add    $0x8,%rsp
    2aa8:	c3                   	ret    
