
t_mat_solve_lt_f32:     file format elf64-x86-64


Disassembly of section .init:

0000000000001000 <_init>:
    1000:	f3 0f 1e fa          	endbr64 
    1004:	48 83 ec 08          	sub    $0x8,%rsp
    1008:	48 8b 05 d9 2f 00 00 	mov    0x2fd9(%rip),%rax        # 3fe8 <__gmon_start__@Base>
    100f:	48 85 c0             	test   %rax,%rax
    1012:	74 02                	je     1016 <_init+0x16>
    1014:	ff d0                	call   *%rax
    1016:	48 83 c4 08          	add    $0x8,%rsp
    101a:	c3                   	ret    

Disassembly of section .plt:

0000000000001020 <.plt>:
    1020:	ff 35 4a 2f 00 00    	push   0x2f4a(%rip)        # 3f70 <_GLOBAL_OFFSET_TABLE_+0x8>
    1026:	f2 ff 25 4b 2f 00 00 	bnd jmp *0x2f4b(%rip)        # 3f78 <_GLOBAL_OFFSET_TABLE_+0x10>
    102d:	0f 1f 00             	nopl   (%rax)
    1030:	f3 0f 1e fa          	endbr64 
    1034:	68 00 00 00 00       	push   $0x0
    1039:	f2 e9 e1 ff ff ff    	bnd jmp 1020 <_init+0x20>
    103f:	90                   	nop
    1040:	f3 0f 1e fa          	endbr64 
    1044:	68 01 00 00 00       	push   $0x1
    1049:	f2 e9 d1 ff ff ff    	bnd jmp 1020 <_init+0x20>
    104f:	90                   	nop
    1050:	f3 0f 1e fa          	endbr64 
    1054:	68 02 00 00 00       	push   $0x2
    1059:	f2 e9 c1 ff ff ff    	bnd jmp 1020 <_init+0x20>
    105f:	90                   	nop
    1060:	f3 0f 1e fa          	endbr64 
    1064:	68 03 00 00 00       	push   $0x3
    1069:	f2 e9 b1 ff ff ff    	bnd jmp 1020 <_init+0x20>
    106f:	90                   	nop
    1070:	f3 0f 1e fa          	endbr64 
    1074:	68 04 00 00 00       	push   $0x4
    1079:	f2 e9 a1 ff ff ff    	bnd jmp 1020 <_init+0x20>
    107f:	90                   	nop
    1080:	f3 0f 1e fa          	endbr64 
    1084:	68 05 00 00 00       	push   $0x5
    1089:	f2 e9 91 ff ff ff    	bnd jmp 1020 <_init+0x20>
    108f:	90                   	nop
    1090:	f3 0f 1e fa          	endbr64 
    1094:	68 06 00 00 00       	push   $0x6
    1099:	f2 e9 81 ff ff ff    	bnd jmp 1020 <_init+0x20>
    109f:	90                   	nop
    10a0:	f3 0f 1e fa          	endbr64 
    10a4:	68 07 00 00 00       	push   $0x7
    10a9:	f2 e9 71 ff ff ff    	bnd jmp 1020 <_init+0x20>
    10af:	90                   	nop
    10b0:	f3 0f 1e fa          	endbr64 
    10b4:	68 08 00 00 00       	push   $0x8
    10b9:	f2 e9 61 ff ff ff    	bnd jmp 1020 <_init+0x20>
    10bf:	90                   	nop
    10c0:	f3 0f 1e fa          	endbr64 
    10c4:	68 09 00 00 00       	push   $0x9
    10c9:	f2 e9 51 ff ff ff    	bnd jmp 1020 <_init+0x20>
    10cf:	90                   	nop
    10d0:	f3 0f 1e fa          	endbr64 
    10d4:	68 0a 00 00 00       	push   $0xa
    10d9:	f2 e9 41 ff ff ff    	bnd jmp 1020 <_init+0x20>
    10df:	90                   	nop

Disassembly of section .plt.got:

00000000000010e0 <__cxa_finalize@plt>:
    10e0:	f3 0f 1e fa          	endbr64 
    10e4:	f2 ff 25 0d 2f 00 00 	bnd jmp *0x2f0d(%rip)        # 3ff8 <__cxa_finalize@GLIBC_2.2.5>
    10eb:	0f 1f 44 00 00       	nopl   0x0(%rax,%rax,1)

Disassembly of section .plt.sec:

00000000000010f0 <puts@plt>:
    10f0:	f3 0f 1e fa          	endbr64 
    10f4:	f2 ff 25 85 2e 00 00 	bnd jmp *0x2e85(%rip)        # 3f80 <puts@GLIBC_2.2.5>
    10fb:	0f 1f 44 00 00       	nopl   0x0(%rax,%rax,1)

0000000000001100 <fread@plt>:
    1100:	f3 0f 1e fa          	endbr64 
    1104:	f2 ff 25 7d 2e 00 00 	bnd jmp *0x2e7d(%rip)        # 3f88 <fread@GLIBC_2.2.5>
    110b:	0f 1f 44 00 00       	nopl   0x0(%rax,%rax,1)

0000000000001110 <fclose@plt>:
    1110:	f3 0f 1e fa          	endbr64 
    1114:	f2 ff 25 75 2e 00 00 	bnd jmp *0x2e75(%rip)        # 3f90 <fclose@GLIBC_2.2.5>
    111b:	0f 1f 44 00 00       	nopl   0x0(%rax,%rax,1)

0000000000001120 <__stack_chk_fail@plt>:
    1120:	f3 0f 1e fa          	endbr64 
    1124:	f2 ff 25 6d 2e 00 00 	bnd jmp *0x2e6d(%rip)        # 3f98 <__stack_chk_fail@GLIBC_2.4>
    112b:	0f 1f 44 00 00       	nopl   0x0(%rax,%rax,1)

0000000000001130 <memset@plt>:
    1130:	f3 0f 1e fa          	endbr64 
    1134:	f2 ff 25 65 2e 00 00 	bnd jmp *0x2e65(%rip)        # 3fa0 <memset@GLIBC_2.2.5>
    113b:	0f 1f 44 00 00       	nopl   0x0(%rax,%rax,1)

0000000000001140 <log10f@plt>:
    1140:	f3 0f 1e fa          	endbr64 
    1144:	f2 ff 25 5d 2e 00 00 	bnd jmp *0x2e5d(%rip)        # 3fa8 <log10f@GLIBC_2.2.5>
    114b:	0f 1f 44 00 00       	nopl   0x0(%rax,%rax,1)

0000000000001150 <__printf_chk@plt>:
    1150:	f3 0f 1e fa          	endbr64 
    1154:	f2 ff 25 55 2e 00 00 	bnd jmp *0x2e55(%rip)        # 3fb0 <__printf_chk@GLIBC_2.3.4>
    115b:	0f 1f 44 00 00       	nopl   0x0(%rax,%rax,1)

0000000000001160 <fopen@plt>:
    1160:	f3 0f 1e fa          	endbr64 
    1164:	f2 ff 25 4d 2e 00 00 	bnd jmp *0x2e4d(%rip)        # 3fb8 <fopen@GLIBC_2.2.5>
    116b:	0f 1f 44 00 00       	nopl   0x0(%rax,%rax,1)

0000000000001170 <__memset_chk@plt>:
    1170:	f3 0f 1e fa          	endbr64 
    1174:	f2 ff 25 45 2e 00 00 	bnd jmp *0x2e45(%rip)        # 3fc0 <__memset_chk@GLIBC_2.3.4>
    117b:	0f 1f 44 00 00       	nopl   0x0(%rax,%rax,1)

0000000000001180 <sqrt@plt>:
    1180:	f3 0f 1e fa          	endbr64 
    1184:	f2 ff 25 3d 2e 00 00 	bnd jmp *0x2e3d(%rip)        # 3fc8 <sqrt@GLIBC_2.2.5>
    118b:	0f 1f 44 00 00       	nopl   0x0(%rax,%rax,1)

0000000000001190 <__sprintf_chk@plt>:
    1190:	f3 0f 1e fa          	endbr64 
    1194:	f2 ff 25 35 2e 00 00 	bnd jmp *0x2e35(%rip)        # 3fd0 <__sprintf_chk@GLIBC_2.3.4>
    119b:	0f 1f 44 00 00       	nopl   0x0(%rax,%rax,1)

Disassembly of section .text:

00000000000011a0 <main>:
    11a0:	f3 0f 1e fa          	endbr64 
    11a4:	41 55                	push   %r13
    11a6:	4c 8d 2d d3 2e 01 00 	lea    0x12ed3(%rip),%r13        # 14080 <buf2>
    11ad:	41 54                	push   %r12
    11af:	4c 8d 25 76 0f 00 00 	lea    0xf76(%rip),%r12        # 212c <_IO_stdin_used+0x12c>
    11b6:	55                   	push   %rbp
    11b7:	48 8d 2d c2 6e 01 00 	lea    0x16ec2(%rip),%rbp        # 18080 <buf1>
    11be:	4c 89 e7             	mov    %r12,%rdi
    11c1:	53                   	push   %rbx
    11c2:	48 89 ee             	mov    %rbp,%rsi
    11c5:	48 8d 1d b4 ee 00 00 	lea    0xeeb4(%rip),%rbx        # 10080 <out>
    11cc:	48 83 ec 28          	sub    $0x28,%rsp
    11d0:	e8 eb 04 00 00       	call   16c0 <read_write_buffer.constprop.0>
    11d5:	4c 89 ee             	mov    %r13,%rsi
    11d8:	4c 89 e7             	mov    %r12,%rdi
    11db:	e8 e0 04 00 00       	call   16c0 <read_write_buffer.constprop.0>
    11e0:	48 8d 3d 61 0e 00 00 	lea    0xe61(%rip),%rdi        # 2048 <_IO_stdin_used+0x48>
    11e7:	c7 05 8f 2e 01 00 00 	movl   $0x3f800000,0x12e8f(%rip)        # 14080 <buf2>
    11ee:	00 80 3f 
    11f1:	e8 fa fe ff ff       	call   10f0 <puts@plt>
    11f6:	b9 40 00 00 00       	mov    $0x40,%ecx
    11fb:	ba 40 00 00 00       	mov    $0x40,%edx
    1200:	31 c0                	xor    %eax,%eax
    1202:	48 8d 35 67 0e 00 00 	lea    0xe67(%rip),%rsi        # 2070 <_IO_stdin_used+0x70>
    1209:	bf 01 00 00 00       	mov    $0x1,%edi
    120e:	e8 3d ff ff ff       	call   1150 <__printf_chk@plt>
    1213:	31 f6                	xor    %esi,%esi
    1215:	48 89 df             	mov    %rbx,%rdi
    1218:	ba 00 40 00 00       	mov    $0x4000,%edx
    121d:	e8 0e ff ff ff       	call   1130 <memset@plt>
    1222:	be 40 00 00 00       	mov    $0x40,%esi
    1227:	48 89 ef             	mov    %rbp,%rdi
    122a:	e8 01 05 00 00       	call   1730 <array_to_lower_triangular_matrix>
    122f:	85 c0                	test   %eax,%eax
    1231:	0f 85 e4 02 00 00    	jne    151b <main+0x37b>
    1237:	48 89 da             	mov    %rbx,%rdx
    123a:	4c 89 ee             	mov    %r13,%rsi
    123d:	b9 40 00 00 00       	mov    $0x40,%ecx
    1242:	41 b8 40 00 00 00    	mov    $0x40,%r8d
    1248:	48 8d 3d 31 6e 00 00 	lea    0x6e31(%rip),%rdi        # 8080 <lower_triangular>
    124f:	e8 dc 05 00 00       	call   1830 <riscv_dsp_mat_solve_lt_f32>
    1254:	48 8d 35 e9 0e 00 00 	lea    0xee9(%rip),%rsi        # 2144 <_IO_stdin_used+0x144>
    125b:	bf 01 00 00 00       	mov    $0x1,%edi
    1260:	41 89 c4             	mov    %eax,%r12d
    1263:	89 c2                	mov    %eax,%edx
    1265:	31 c0                	xor    %eax,%eax
    1267:	e8 e4 fe ff ff       	call   1150 <__printf_chk@plt>
    126c:	45 85 e4             	test   %r12d,%r12d
    126f:	0f 85 a6 02 00 00    	jne    151b <main+0x37b>
    1275:	48 8d 2d 04 2e 00 00 	lea    0x2e04(%rip),%rbp        # 4080 <golden>
    127c:	48 8d 3d 0d 0e 00 00 	lea    0xe0d(%rip),%rdi        # 2090 <_IO_stdin_used+0x90>
    1283:	48 89 ee             	mov    %rbp,%rsi
    1286:	e8 35 04 00 00       	call   16c0 <read_write_buffer.constprop.0>
    128b:	48 89 d8             	mov    %rbx,%rax
    128e:	66 0f ef c0          	pxor   %xmm0,%xmm0
    1292:	48 89 ea             	mov    %rbp,%rdx
    1295:	f3 0f 10 2d 33 0f 00 	movss  0xf33(%rip),%xmm5        # 21d0 <_IO_stdin_used+0x1d0>
    129c:	00 
    129d:	48 8d 9b 00 40 00 00 	lea    0x4000(%rbx),%rbx
    12a4:	0f 1f 40 00          	nopl   0x0(%rax)
    12a8:	48 83 c2 04          	add    $0x4,%rdx
    12ac:	f3 0f 10 08          	movss  (%rax),%xmm1
    12b0:	48 83 c0 04          	add    $0x4,%rax
    12b4:	f3 0f 5c 4a fc       	subss  -0x4(%rdx),%xmm1
    12b9:	0f 54 cd             	andps  %xmm5,%xmm1
    12bc:	f3 0f 5f c8          	maxss  %xmm0,%xmm1
    12c0:	0f 28 c1             	movaps %xmm1,%xmm0
    12c3:	48 39 d8             	cmp    %rbx,%rax
    12c6:	75 e0                	jne    12a8 <main+0x108>
    12c8:	66 0f ef c0          	pxor   %xmm0,%xmm0
    12cc:	bf 01 00 00 00       	mov    $0x1,%edi
    12d1:	b8 01 00 00 00       	mov    $0x1,%eax
    12d6:	48 8d 35 7b 0e 00 00 	lea    0xe7b(%rip),%rsi        # 2158 <_IO_stdin_used+0x158>
    12dd:	f3 0f 5a c1          	cvtss2sd %xmm1,%xmm0
    12e1:	e8 6a fe ff ff       	call   1150 <__printf_chk@plt>
    12e6:	66 0f ef db          	pxor   %xmm3,%xmm3
    12ea:	66 0f ef ff          	pxor   %xmm7,%xmm7
    12ee:	48 8d 15 8b 2d 00 00 	lea    0x2d8b(%rip),%rdx        # 4080 <golden>
    12f5:	66 0f 28 f7          	movapd %xmm7,%xmm6
    12f9:	0f 28 c3             	movaps %xmm3,%xmm0
    12fc:	44 0f 28 c3          	movaps %xmm3,%xmm8
    1300:	44 0f 28 cb          	movaps %xmm3,%xmm9
    1304:	48 8d 05 75 ed 00 00 	lea    0xed75(%rip),%rax        # 10080 <out>
    130b:	f3 0f 10 2d bd 0e 00 	movss  0xebd(%rip),%xmm5        # 21d0 <_IO_stdin_used+0x1d0>
    1312:	00 
    1313:	0f 1f 44 00 00       	nopl   0x0(%rax,%rax,1)
    1318:	f3 0f 10 08          	movss  (%rax),%xmm1
    131c:	48 83 c0 04          	add    $0x4,%rax
    1320:	48 83 c2 04          	add    $0x4,%rdx
    1324:	f3 0f 10 52 fc       	movss  -0x4(%rdx),%xmm2
    1329:	66 0f 7e c9          	movd   %xmm1,%ecx
    132d:	81 f9 00 00 c0 7f    	cmp    $0x7fc00000,%ecx
    1333:	0f 84 69 01 00 00    	je     14a2 <main+0x302>
    1339:	0f 28 e2             	movaps %xmm2,%xmm4
    133c:	f3 0f 5c ca          	subss  %xmm2,%xmm1
    1340:	f3 41 0f 5f e1       	maxss  %xmm9,%xmm4
    1345:	44 0f 28 cc          	movaps %xmm4,%xmm9
    1349:	0f 28 e2             	movaps %xmm2,%xmm4
    134c:	f3 41 0f 5d e0       	minss  %xmm8,%xmm4
    1351:	f3 0f 59 d2          	mulss  %xmm2,%xmm2
    1355:	44 0f 28 c4          	movaps %xmm4,%xmm8
    1359:	0f 28 e1             	movaps %xmm1,%xmm4
    135c:	f3 0f 59 c9          	mulss  %xmm1,%xmm1
    1360:	0f 54 e5             	andps  %xmm5,%xmm4
    1363:	f3 0f 58 c4          	addss  %xmm4,%xmm0
    1367:	f3 0f 5f e3          	maxss  %xmm3,%xmm4
    136b:	f3 0f 5a d2          	cvtss2sd %xmm2,%xmm2
    136f:	f2 0f 58 fa          	addsd  %xmm2,%xmm7
    1373:	0f 28 dc             	movaps %xmm4,%xmm3
    1376:	f3 0f 5a c9          	cvtss2sd %xmm1,%xmm1
    137a:	f2 0f 58 f1          	addsd  %xmm1,%xmm6
    137e:	48 39 d8             	cmp    %rbx,%rax
    1381:	75 95                	jne    1318 <main+0x178>
    1383:	66 48 0f 7e f0       	movq   %xmm6,%rax
    1388:	f3 0f 11 64 24 14    	movss  %xmm4,0x14(%rsp)
    138e:	f3 44 0f 11 44 24 10 	movss  %xmm8,0x10(%rsp)
    1395:	f3 44 0f 11 4c 24 0c 	movss  %xmm9,0xc(%rsp)
    139c:	f2 0f 11 3c 24       	movsd  %xmm7,(%rsp)
    13a1:	3d 00 00 c0 7f       	cmp    $0x7fc00000,%eax
    13a6:	0f 84 f6 00 00 00    	je     14a2 <main+0x302>
    13ac:	f3 0f 59 05 08 0e 00 	mulss  0xe08(%rip),%xmm0        # 21bc <_IO_stdin_used+0x1bc>
    13b3:	00 
    13b4:	f2 0f 11 74 24 18    	movsd  %xmm6,0x18(%rsp)
    13ba:	66 0f 7e c3          	movd   %xmm0,%ebx
    13be:	66 0f 28 c6          	movapd %xmm6,%xmm0
    13c2:	f2 0f 59 05 16 0e 00 	mulsd  0xe16(%rip),%xmm0        # 21e0 <_IO_stdin_used+0x1e0>
    13c9:	00 
    13ca:	e8 b1 fd ff ff       	call   1180 <sqrt@plt>
    13cf:	f3 44 0f 10 4c 24 0c 	movss  0xc(%rsp),%xmm9
    13d6:	66 0f ef c9          	pxor   %xmm1,%xmm1
    13da:	f3 44 0f 10 44 24 10 	movss  0x10(%rsp),%xmm8
    13e1:	f2 0f 5a c8          	cvtsd2ss %xmm0,%xmm1
    13e5:	0f 28 f9             	movaps %xmm1,%xmm7
    13e8:	f2 0f 10 74 24 18    	movsd  0x18(%rsp),%xmm6
    13ee:	f3 0f 10 5c 24 14    	movss  0x14(%rsp),%xmm3
    13f4:	41 0f 28 c1          	movaps %xmm9,%xmm0
    13f8:	f3 41 0f 5c c0       	subss  %xmm8,%xmm0
    13fd:	f3 0f 5e f8          	divss  %xmm0,%xmm7
    1401:	66 0f 7e fd          	movd   %xmm7,%ebp
    1405:	66 0f ef ff          	pxor   %xmm7,%xmm7
    1409:	66 0f 2e f7          	ucomisd %xmm7,%xmm6
    140d:	f2 0f 10 3c 24       	movsd  (%rsp),%xmm7
    1412:	0f 8a b2 00 00 00    	jp     14ca <main+0x32a>
    1418:	f3 0f 10 25 98 0d 00 	movss  0xd98(%rip),%xmm4        # 21b8 <_IO_stdin_used+0x1b8>
    141f:	00 
    1420:	0f 85 a4 00 00 00    	jne    14ca <main+0x32a>
    1426:	48 8d 3d 3e 0d 00 00 	lea    0xd3e(%rip),%rdi        # 216b <_IO_stdin_used+0x16b>
    142d:	f3 0f 11 5c 24 10    	movss  %xmm3,0x10(%rsp)
    1433:	f3 0f 11 24 24       	movss  %xmm4,(%rsp)
    1438:	f3 0f 11 4c 24 0c    	movss  %xmm1,0xc(%rsp)
    143e:	e8 ad fc ff ff       	call   10f0 <puts@plt>
    1443:	f3 0f 10 24 24       	movss  (%rsp),%xmm4
    1448:	f3 0f 10 5c 24 10    	movss  0x10(%rsp),%xmm3
    144e:	66 0f 6e f5          	movd   %ebp,%xmm6
    1452:	f3 0f 10 4c 24 0c    	movss  0xc(%rsp),%xmm1
    1458:	66 0f ef d2          	pxor   %xmm2,%xmm2
    145c:	66 0f ef c0          	pxor   %xmm0,%xmm0
    1460:	48 8d 35 51 0c 00 00 	lea    0xc51(%rip),%rsi        # 20b8 <_IO_stdin_used+0xb8>
    1467:	f3 0f 5a d6          	cvtss2sd %xmm6,%xmm2
    146b:	66 0f 6e f3          	movd   %ebx,%xmm6
    146f:	f3 0f 5a e4          	cvtss2sd %xmm4,%xmm4
    1473:	f3 0f 5a db          	cvtss2sd %xmm3,%xmm3
    1477:	bf 01 00 00 00       	mov    $0x1,%edi
    147c:	b8 05 00 00 00       	mov    $0x5,%eax
    1481:	f3 0f 5a c6          	cvtss2sd %xmm6,%xmm0
    1485:	f3 0f 5a c9          	cvtss2sd %xmm1,%xmm1
    1489:	f2 0f 11 14 24       	movsd  %xmm2,(%rsp)
    148e:	e8 bd fc ff ff       	call   1150 <__printf_chk@plt>
    1493:	f2 0f 10 14 24       	movsd  (%rsp),%xmm2
    1498:	66 0f 2f 15 48 0d 00 	comisd 0xd48(%rip),%xmm2        # 21e8 <_IO_stdin_used+0x1e8>
    149f:	00 
    14a0:	77 5f                	ja     1501 <main+0x361>
    14a2:	48 8d 15 d7 0c 00 00 	lea    0xcd7(%rip),%rdx        # 2180 <_IO_stdin_used+0x180>
    14a9:	48 8d 35 f6 0c 00 00 	lea    0xcf6(%rip),%rsi        # 21a6 <_IO_stdin_used+0x1a6>
    14b0:	bf 01 00 00 00       	mov    $0x1,%edi
    14b5:	31 c0                	xor    %eax,%eax
    14b7:	e8 94 fc ff ff       	call   1150 <__printf_chk@plt>
    14bc:	48 83 c4 28          	add    $0x28,%rsp
    14c0:	44 89 e0             	mov    %r12d,%eax
    14c3:	5b                   	pop    %rbx
    14c4:	5d                   	pop    %rbp
    14c5:	41 5c                	pop    %r12
    14c7:	41 5d                	pop    %r13
    14c9:	c3                   	ret    
    14ca:	f2 0f 5e fe          	divsd  %xmm6,%xmm7
    14ce:	66 0f ef c0          	pxor   %xmm0,%xmm0
    14d2:	f3 0f 11 5c 24 0c    	movss  %xmm3,0xc(%rsp)
    14d8:	f3 0f 11 0c 24       	movss  %xmm1,(%rsp)
    14dd:	f2 0f 5a c7          	cvtsd2ss %xmm7,%xmm0
    14e1:	e8 5a fc ff ff       	call   1140 <log10f@plt>
    14e6:	f3 0f 10 5c 24 0c    	movss  0xc(%rsp),%xmm3
    14ec:	f3 0f 59 05 cc 0c 00 	mulss  0xccc(%rip),%xmm0        # 21c0 <_IO_stdin_used+0x1c0>
    14f3:	00 
    14f4:	f3 0f 10 0c 24       	movss  (%rsp),%xmm1
    14f9:	0f 28 e0             	movaps %xmm0,%xmm4
    14fc:	e9 25 ff ff ff       	jmp    1426 <main+0x286>
    1501:	48 8d 15 78 0c 00 00 	lea    0xc78(%rip),%rdx        # 2180 <_IO_stdin_used+0x180>
    1508:	48 8d 35 8c 0c 00 00 	lea    0xc8c(%rip),%rsi        # 219b <_IO_stdin_used+0x19b>
    150f:	bf 01 00 00 00       	mov    $0x1,%edi
    1514:	31 c0                	xor    %eax,%eax
    1516:	e8 35 fc ff ff       	call   1150 <__printf_chk@plt>
    151b:	41 83 cc ff          	or     $0xffffffff,%r12d
    151f:	eb 9b                	jmp    14bc <main+0x31c>
    1521:	66 2e 0f 1f 84 00 00 	cs nopw 0x0(%rax,%rax,1)
    1528:	00 00 00 
    152b:	0f 1f 44 00 00       	nopl   0x0(%rax,%rax,1)

0000000000001530 <_start>:
    1530:	f3 0f 1e fa          	endbr64 
    1534:	31 ed                	xor    %ebp,%ebp
    1536:	49 89 d1             	mov    %rdx,%r9
    1539:	5e                   	pop    %rsi
    153a:	48 89 e2             	mov    %rsp,%rdx
    153d:	48 83 e4 f0          	and    $0xfffffffffffffff0,%rsp
    1541:	50                   	push   %rax
    1542:	54                   	push   %rsp
    1543:	45 31 c0             	xor    %r8d,%r8d
    1546:	31 c9                	xor    %ecx,%ecx
    1548:	48 8d 3d 51 fc ff ff 	lea    -0x3af(%rip),%rdi        # 11a0 <main>
    154f:	ff 15 83 2a 00 00    	call   *0x2a83(%rip)        # 3fd8 <__libc_start_main@GLIBC_2.34>
    1555:	f4                   	hlt    
    1556:	66 2e 0f 1f 84 00 00 	cs nopw 0x0(%rax,%rax,1)
    155d:	00 00 00 

0000000000001560 <deregister_tm_clones>:
    1560:	48 8d 3d a9 2a 00 00 	lea    0x2aa9(%rip),%rdi        # 4010 <__TMC_END__>
    1567:	48 8d 05 a2 2a 00 00 	lea    0x2aa2(%rip),%rax        # 4010 <__TMC_END__>
    156e:	48 39 f8             	cmp    %rdi,%rax
    1571:	74 15                	je     1588 <deregister_tm_clones+0x28>
    1573:	48 8b 05 66 2a 00 00 	mov    0x2a66(%rip),%rax        # 3fe0 <_ITM_deregisterTMCloneTable@Base>
    157a:	48 85 c0             	test   %rax,%rax
    157d:	74 09                	je     1588 <deregister_tm_clones+0x28>
    157f:	ff e0                	jmp    *%rax
    1581:	0f 1f 80 00 00 00 00 	nopl   0x0(%rax)
    1588:	c3                   	ret    
    1589:	0f 1f 80 00 00 00 00 	nopl   0x0(%rax)

0000000000001590 <register_tm_clones>:
    1590:	48 8d 3d 79 2a 00 00 	lea    0x2a79(%rip),%rdi        # 4010 <__TMC_END__>
    1597:	48 8d 35 72 2a 00 00 	lea    0x2a72(%rip),%rsi        # 4010 <__TMC_END__>
    159e:	48 29 fe             	sub    %rdi,%rsi
    15a1:	48 89 f0             	mov    %rsi,%rax
    15a4:	48 c1 ee 3f          	shr    $0x3f,%rsi
    15a8:	48 c1 f8 03          	sar    $0x3,%rax
    15ac:	48 01 c6             	add    %rax,%rsi
    15af:	48 d1 fe             	sar    %rsi
    15b2:	74 14                	je     15c8 <register_tm_clones+0x38>
    15b4:	48 8b 05 35 2a 00 00 	mov    0x2a35(%rip),%rax        # 3ff0 <_ITM_registerTMCloneTable@Base>
    15bb:	48 85 c0             	test   %rax,%rax
    15be:	74 08                	je     15c8 <register_tm_clones+0x38>
    15c0:	ff e0                	jmp    *%rax
    15c2:	66 0f 1f 44 00 00    	nopw   0x0(%rax,%rax,1)
    15c8:	c3                   	ret    
    15c9:	0f 1f 80 00 00 00 00 	nopl   0x0(%rax)

00000000000015d0 <__do_global_dtors_aux>:
    15d0:	f3 0f 1e fa          	endbr64 
    15d4:	80 3d 65 2a 00 00 00 	cmpb   $0x0,0x2a65(%rip)        # 4040 <completed.0>
    15db:	75 2b                	jne    1608 <__do_global_dtors_aux+0x38>
    15dd:	55                   	push   %rbp
    15de:	48 83 3d 12 2a 00 00 	cmpq   $0x0,0x2a12(%rip)        # 3ff8 <__cxa_finalize@GLIBC_2.2.5>
    15e5:	00 
    15e6:	48 89 e5             	mov    %rsp,%rbp
    15e9:	74 0c                	je     15f7 <__do_global_dtors_aux+0x27>
    15eb:	48 8b 3d 16 2a 00 00 	mov    0x2a16(%rip),%rdi        # 4008 <__dso_handle>
    15f2:	e8 e9 fa ff ff       	call   10e0 <__cxa_finalize@plt>
    15f7:	e8 64 ff ff ff       	call   1560 <deregister_tm_clones>
    15fc:	c6 05 3d 2a 00 00 01 	movb   $0x1,0x2a3d(%rip)        # 4040 <completed.0>
    1603:	5d                   	pop    %rbp
    1604:	c3                   	ret    
    1605:	0f 1f 00             	nopl   (%rax)
    1608:	c3                   	ret    
    1609:	0f 1f 80 00 00 00 00 	nopl   0x0(%rax)

0000000000001610 <frame_dummy>:
    1610:	f3 0f 1e fa          	endbr64 
    1614:	e9 77 ff ff ff       	jmp    1590 <register_tm_clones>
    1619:	0f 1f 80 00 00 00 00 	nopl   0x0(%rax)

0000000000001620 <test_Fopen.constprop.0.isra.0>:
    1620:	41 54                	push   %r12
    1622:	49 89 f9             	mov    %rdi,%r9
    1625:	49 89 fc             	mov    %rdi,%r12
    1628:	4c 8d 05 d9 09 00 00 	lea    0x9d9(%rip),%r8        # 2008 <_IO_stdin_used+0x8>
    162f:	55                   	push   %rbp
    1630:	48 8d 0d d3 0a 00 00 	lea    0xad3(%rip),%rcx        # 210a <_IO_stdin_used+0x10a>
    1637:	ba 00 04 00 00       	mov    $0x400,%edx
    163c:	53                   	push   %rbx
    163d:	48 89 f3             	mov    %rsi,%rbx
    1640:	be 01 00 00 00       	mov    $0x1,%esi
    1645:	48 81 ec 10 04 00 00 	sub    $0x410,%rsp
    164c:	64 48 8b 04 25 28 00 	mov    %fs:0x28,%rax
    1653:	00 00 
    1655:	48 89 84 24 08 04 00 	mov    %rax,0x408(%rsp)
    165c:	00 
    165d:	31 c0                	xor    %eax,%eax
    165f:	48 89 e5             	mov    %rsp,%rbp
    1662:	48 89 ef             	mov    %rbp,%rdi
    1665:	e8 26 fb ff ff       	call   1190 <__sprintf_chk@plt>
    166a:	48 8d 35 9f 0a 00 00 	lea    0xa9f(%rip),%rsi        # 2110 <_IO_stdin_used+0x110>
    1671:	48 89 ef             	mov    %rbp,%rdi
    1674:	e8 e7 fa ff ff       	call   1160 <fopen@plt>
    1679:	48 89 03             	mov    %rax,(%rbx)
    167c:	48 85 c0             	test   %rax,%rax
    167f:	74 1f                	je     16a0 <test_Fopen.constprop.0.isra.0+0x80>
    1681:	48 8b 84 24 08 04 00 	mov    0x408(%rsp),%rax
    1688:	00 
    1689:	64 48 2b 04 25 28 00 	sub    %fs:0x28,%rax
    1690:	00 00 
    1692:	75 22                	jne    16b6 <test_Fopen.constprop.0.isra.0+0x96>
    1694:	48 81 c4 10 04 00 00 	add    $0x410,%rsp
    169b:	5b                   	pop    %rbx
    169c:	5d                   	pop    %rbp
    169d:	41 5c                	pop    %r12
    169f:	c3                   	ret    
    16a0:	4c 89 e2             	mov    %r12,%rdx
    16a3:	48 8d 35 69 0a 00 00 	lea    0xa69(%rip),%rsi        # 2113 <_IO_stdin_used+0x113>
    16aa:	bf 01 00 00 00       	mov    $0x1,%edi
    16af:	e8 9c fa ff ff       	call   1150 <__printf_chk@plt>
    16b4:	eb cb                	jmp    1681 <test_Fopen.constprop.0.isra.0+0x61>
    16b6:	e8 65 fa ff ff       	call   1120 <__stack_chk_fail@plt>
    16bb:	0f 1f 44 00 00       	nopl   0x0(%rax,%rax,1)

00000000000016c0 <read_write_buffer.constprop.0>:
    16c0:	41 54                	push   %r12
    16c2:	55                   	push   %rbp
    16c3:	48 89 f5             	mov    %rsi,%rbp
    16c6:	48 83 ec 18          	sub    $0x18,%rsp
    16ca:	64 48 8b 04 25 28 00 	mov    %fs:0x28,%rax
    16d1:	00 00 
    16d3:	48 89 44 24 08       	mov    %rax,0x8(%rsp)
    16d8:	31 c0                	xor    %eax,%eax
    16da:	48 89 e6             	mov    %rsp,%rsi
    16dd:	48 c7 04 24 00 00 00 	movq   $0x0,(%rsp)
    16e4:	00 
    16e5:	e8 36 ff ff ff       	call   1620 <test_Fopen.constprop.0.isra.0>
    16ea:	4c 8b 24 24          	mov    (%rsp),%r12
    16ee:	ba 00 10 00 00       	mov    $0x1000,%edx
    16f3:	48 89 ef             	mov    %rbp,%rdi
    16f6:	be 04 00 00 00       	mov    $0x4,%esi
    16fb:	4c 89 e1             	mov    %r12,%rcx
    16fe:	e8 fd f9 ff ff       	call   1100 <fread@plt>
    1703:	48 8b 44 24 08       	mov    0x8(%rsp),%rax
    1708:	64 48 2b 04 25 28 00 	sub    %fs:0x28,%rax
    170f:	00 00 
    1711:	75 0f                	jne    1722 <read_write_buffer.constprop.0+0x62>
    1713:	48 83 c4 18          	add    $0x18,%rsp
    1717:	4c 89 e7             	mov    %r12,%rdi
    171a:	5d                   	pop    %rbp
    171b:	41 5c                	pop    %r12
    171d:	e9 ee f9 ff ff       	jmp    1110 <fclose@plt>
    1722:	e8 f9 f9 ff ff       	call   1120 <__stack_chk_fail@plt>
    1727:	66 0f 1f 84 00 00 00 	nopw   0x0(%rax,%rax,1)
    172e:	00 00 

0000000000001730 <array_to_lower_triangular_matrix>:
    1730:	f3 0f 1e fa          	endbr64 
    1734:	41 55                	push   %r13
    1736:	41 89 f5             	mov    %esi,%r13d
    1739:	b9 00 40 00 00       	mov    $0x4000,%ecx
    173e:	44 0f af ee          	imul   %esi,%r13d
    1742:	41 54                	push   %r12
    1744:	41 89 f4             	mov    %esi,%r12d
    1747:	31 f6                	xor    %esi,%esi
    1749:	55                   	push   %rbp
    174a:	48 8d 2d 2f a9 00 00 	lea    0xa92f(%rip),%rbp        # c080 <upper_triangular>
    1751:	53                   	push   %rbx
    1752:	48 89 fb             	mov    %rdi,%rbx
    1755:	48 89 ef             	mov    %rbp,%rdi
    1758:	49 c1 e5 02          	shl    $0x2,%r13
    175c:	4c 89 ea             	mov    %r13,%rdx
    175f:	48 83 ec 08          	sub    $0x8,%rsp
    1763:	e8 08 fa ff ff       	call   1170 <__memset_chk@plt>
    1768:	b9 00 40 00 00       	mov    $0x4000,%ecx
    176d:	4c 89 ea             	mov    %r13,%rdx
    1770:	31 f6                	xor    %esi,%esi
    1772:	4c 8d 05 07 69 00 00 	lea    0x6907(%rip),%r8        # 8080 <lower_triangular>
    1779:	4c 89 c7             	mov    %r8,%rdi
    177c:	e8 ef f9 ff ff       	call   1170 <__memset_chk@plt>
    1781:	49 89 c0             	mov    %rax,%r8
    1784:	45 85 e4             	test   %r12d,%r12d
    1787:	74 67                	je     17f0 <array_to_lower_triangular_matrix+0xc0>
    1789:	f3 0f 10 0d 23 0a 00 	movss  0xa23(%rip),%xmm1        # 21b4 <_IO_stdin_used+0x1b4>
    1790:	00 
    1791:	31 ff                	xor    %edi,%edi
    1793:	31 f6                	xor    %esi,%esi
    1795:	45 31 d2             	xor    %r10d,%r10d
    1798:	0f 1f 84 00 00 00 00 	nopl   0x0(%rax,%rax,1)
    179f:	00 
    17a0:	44 8d 4e 01          	lea    0x1(%rsi),%r9d
    17a4:	41 39 f4             	cmp    %esi,%r12d
    17a7:	76 3c                	jbe    17e5 <array_to_lower_triangular_matrix+0xb5>
    17a9:	49 63 c2             	movslq %r10d,%rax
    17ac:	44 8d 4e 01          	lea    0x1(%rsi),%r9d
    17b0:	48 8d 0c 83          	lea    (%rbx,%rax,4),%rcx
    17b4:	89 f0                	mov    %esi,%eax
    17b6:	66 2e 0f 1f 84 00 00 	cs nopw 0x0(%rax,%rax,1)
    17bd:	00 00 00 
    17c0:	f3 0f 10 01          	movss  (%rcx),%xmm0
    17c4:	8d 14 38             	lea    (%rax,%rdi,1),%edx
    17c7:	39 c6                	cmp    %eax,%esi
    17c9:	74 45                	je     1810 <array_to_lower_triangular_matrix+0xe0>
    17cb:	83 c0 01             	add    $0x1,%eax
    17ce:	f3 0f 11 44 95 00    	movss  %xmm0,0x0(%rbp,%rdx,4)
    17d4:	48 83 c1 04          	add    $0x4,%rcx
    17d8:	41 39 c4             	cmp    %eax,%r12d
    17db:	75 e3                	jne    17c0 <array_to_lower_triangular_matrix+0x90>
    17dd:	44 89 e0             	mov    %r12d,%eax
    17e0:	29 f0                	sub    %esi,%eax
    17e2:	41 01 c2             	add    %eax,%r10d
    17e5:	44 89 ce             	mov    %r9d,%esi
    17e8:	44 01 e7             	add    %r12d,%edi
    17eb:	45 39 cc             	cmp    %r9d,%r12d
    17ee:	75 b0                	jne    17a0 <array_to_lower_triangular_matrix+0x70>
    17f0:	44 89 e1             	mov    %r12d,%ecx
    17f3:	44 89 e2             	mov    %r12d,%edx
    17f6:	48 89 ef             	mov    %rbp,%rdi
    17f9:	4c 89 c6             	mov    %r8,%rsi
    17fc:	e8 2f 01 00 00       	call   1930 <riscv_dsp_mat_trans_f32>
    1801:	48 83 c4 08          	add    $0x8,%rsp
    1805:	31 c0                	xor    %eax,%eax
    1807:	5b                   	pop    %rbx
    1808:	5d                   	pop    %rbp
    1809:	41 5c                	pop    %r12
    180b:	41 5d                	pop    %r13
    180d:	c3                   	ret    
    180e:	66 90                	xchg   %ax,%ax
    1810:	f3 0f 58 c1          	addss  %xmm1,%xmm0
    1814:	44 89 c8             	mov    %r9d,%eax
    1817:	48 83 c1 04          	add    $0x4,%rcx
    181b:	f3 0f 11 44 95 00    	movss  %xmm0,0x0(%rbp,%rdx,4)
    1821:	45 39 cc             	cmp    %r9d,%r12d
    1824:	75 9a                	jne    17c0 <array_to_lower_triangular_matrix+0x90>
    1826:	eb b5                	jmp    17dd <array_to_lower_triangular_matrix+0xad>
    1828:	0f 1f 84 00 00 00 00 	nopl   0x0(%rax,%rax,1)
    182f:	00 

0000000000001830 <riscv_dsp_mat_solve_lt_f32>:
    1830:	f3 0f 1e fa          	endbr64 
    1834:	44 39 c1             	cmp    %r8d,%ecx
    1837:	0f 85 ec 00 00 00    	jne    1929 <riscv_dsp_mat_solve_lt_f32+0xf9>
    183d:	41 57                	push   %r15
    183f:	89 c8                	mov    %ecx,%eax
    1841:	45 31 ff             	xor    %r15d,%r15d
    1844:	66 0f ef d2          	pxor   %xmm2,%xmm2
    1848:	41 56                	push   %r14
    184a:	41 89 ce             	mov    %ecx,%r14d
    184d:	41 55                	push   %r13
    184f:	41 54                	push   %r12
    1851:	49 89 f4             	mov    %rsi,%r12
    1854:	55                   	push   %rbp
    1855:	48 89 fd             	mov    %rdi,%rbp
    1858:	48 89 d7             	mov    %rdx,%rdi
    185b:	53                   	push   %rbx
    185c:	48 89 44 24 f8       	mov    %rax,-0x8(%rsp)
    1861:	8d 41 ff             	lea    -0x1(%rcx),%eax
    1864:	48 89 44 24 f0       	mov    %rax,-0x10(%rsp)
    1869:	85 c9                	test   %ecx,%ecx
    186b:	0f 84 9b 00 00 00    	je     190c <riscv_dsp_mat_solve_lt_f32+0xdc>
    1871:	45 89 fd             	mov    %r15d,%r13d
    1874:	45 85 f6             	test   %r14d,%r14d
    1877:	0f 84 80 00 00 00    	je     18fd <riscv_dsp_mat_solve_lt_f32+0xcd>
    187d:	f3 43 0f 10 0c bc    	movss  (%r12,%r15,4),%xmm1
    1883:	44 89 f3             	mov    %r14d,%ebx
    1886:	48 89 ee             	mov    %rbp,%rsi
    1889:	45 31 d2             	xor    %r10d,%r10d
    188c:	45 31 db             	xor    %r11d,%r11d
    188f:	90                   	nop
    1890:	f3 42 0f 10 04 96    	movss  (%rsi,%r10,4),%xmm0
    1896:	0f 2e c2             	ucomiss %xmm2,%xmm0
    1899:	7a 02                	jp     189d <riscv_dsp_mat_solve_lt_f32+0x6d>
    189b:	74 7c                	je     1919 <riscv_dsp_mat_solve_lt_f32+0xe9>
    189d:	f3 0f 5e c8          	divss  %xmm0,%xmm1
    18a1:	43 8d 04 2b          	lea    (%r11,%r13,1),%eax
    18a5:	f3 0f 11 0c 87       	movss  %xmm1,(%rdi,%rax,4)
    18aa:	4c 39 54 24 f0       	cmp    %r10,-0x10(%rsp)
    18af:	74 4c                	je     18fd <riscv_dsp_mat_solve_lt_f32+0xcd>
    18b1:	43 8d 04 03          	lea    (%r11,%r8,1),%eax
    18b5:	44 89 ea             	mov    %r13d,%edx
    18b8:	45 8d 4a 01          	lea    0x1(%r10),%r9d
    18bc:	49 89 c3             	mov    %rax,%r11
    18bf:	4c 01 f8             	add    %r15,%rax
    18c2:	f3 41 0f 10 0c 84    	movss  (%r12,%rax,4),%xmm1
    18c8:	89 d8                	mov    %ebx,%eax
    18ca:	48 8d 74 85 00       	lea    0x0(%rbp,%rax,4),%rsi
    18cf:	31 c0                	xor    %eax,%eax
    18d1:	0f 1f 80 00 00 00 00 	nopl   0x0(%rax)
    18d8:	89 d1                	mov    %edx,%ecx
    18da:	44 01 c2             	add    %r8d,%edx
    18dd:	f3 0f 10 04 8f       	movss  (%rdi,%rcx,4),%xmm0
    18e2:	f3 0f 59 04 86       	mulss  (%rsi,%rax,4),%xmm0
    18e7:	48 83 c0 01          	add    $0x1,%rax
    18eb:	f3 0f 5c c8          	subss  %xmm0,%xmm1
    18ef:	41 39 c1             	cmp    %eax,%r9d
    18f2:	77 e4                	ja     18d8 <riscv_dsp_mat_solve_lt_f32+0xa8>
    18f4:	49 83 c2 01          	add    $0x1,%r10
    18f8:	44 01 f3             	add    %r14d,%ebx
    18fb:	eb 93                	jmp    1890 <riscv_dsp_mat_solve_lt_f32+0x60>
    18fd:	49 83 c7 01          	add    $0x1,%r15
    1901:	4c 39 7c 24 f8       	cmp    %r15,-0x8(%rsp)
    1906:	0f 85 65 ff ff ff    	jne    1871 <riscv_dsp_mat_solve_lt_f32+0x41>
    190c:	5b                   	pop    %rbx
    190d:	31 c0                	xor    %eax,%eax
    190f:	5d                   	pop    %rbp
    1910:	41 5c                	pop    %r12
    1912:	41 5d                	pop    %r13
    1914:	41 5e                	pop    %r14
    1916:	41 5f                	pop    %r15
    1918:	c3                   	ret    
    1919:	5b                   	pop    %rbx
    191a:	b8 ff ff ff ff       	mov    $0xffffffff,%eax
    191f:	5d                   	pop    %rbp
    1920:	41 5c                	pop    %r12
    1922:	41 5d                	pop    %r13
    1924:	41 5e                	pop    %r14
    1926:	41 5f                	pop    %r15
    1928:	c3                   	ret    
    1929:	b8 ff ff ff ff       	mov    $0xffffffff,%eax
    192e:	c3                   	ret    
    192f:	90                   	nop

0000000000001930 <riscv_dsp_mat_trans_f32>:
    1930:	f3 0f 1e fa          	endbr64 
    1934:	48 89 f8             	mov    %rdi,%rax
    1937:	85 d2                	test   %edx,%edx
    1939:	74 39                	je     1974 <riscv_dsp_mat_trans_f32+0x44>
    193b:	85 c9                	test   %ecx,%ecx
    193d:	74 35                	je     1974 <riscv_dsp_mat_trans_f32+0x44>
    193f:	89 c9                	mov    %ecx,%ecx
    1941:	89 d7                	mov    %edx,%edi
    1943:	4c 8d 0c 8d 00 00 00 	lea    0x0(,%rcx,4),%r9
    194a:	00 
    194b:	48 c1 e7 02          	shl    $0x2,%rdi
    194f:	4a 8d 0c 08          	lea    (%rax,%r9,1),%rcx
    1953:	83 fa 01             	cmp    $0x1,%edx
    1956:	75 1d                	jne    1975 <riscv_dsp_mat_trans_f32+0x45>
    1958:	0f 1f 84 00 00 00 00 	nopl   0x0(%rax,%rax,1)
    195f:	00 
    1960:	f3 0f 10 00          	movss  (%rax),%xmm0
    1964:	48 83 c0 04          	add    $0x4,%rax
    1968:	f3 0f 11 06          	movss  %xmm0,(%rsi)
    196c:	48 01 fe             	add    %rdi,%rsi
    196f:	48 39 c8             	cmp    %rcx,%rax
    1972:	75 ec                	jne    1960 <riscv_dsp_mat_trans_f32+0x30>
    1974:	c3                   	ret    
    1975:	83 ea 01             	sub    $0x1,%edx
    1978:	49 89 c8             	mov    %rcx,%r8
    197b:	4c 8d 54 96 04       	lea    0x4(%rsi,%rdx,4),%r10
    1980:	48 89 f2             	mov    %rsi,%rdx
    1983:	0f 1f 44 00 00       	nopl   0x0(%rax,%rax,1)
    1988:	f3 0f 10 00          	movss  (%rax),%xmm0
    198c:	48 83 c0 04          	add    $0x4,%rax
    1990:	f3 0f 11 02          	movss  %xmm0,(%rdx)
    1994:	48 01 fa             	add    %rdi,%rdx
    1997:	4c 39 c0             	cmp    %r8,%rax
    199a:	75 ec                	jne    1988 <riscv_dsp_mat_trans_f32+0x58>
    199c:	48 83 c6 04          	add    $0x4,%rsi
    19a0:	48 89 c8             	mov    %rcx,%rax
    19a3:	4d 01 c8             	add    %r9,%r8
    19a6:	4c 39 d6             	cmp    %r10,%rsi
    19a9:	74 c9                	je     1974 <riscv_dsp_mat_trans_f32+0x44>
    19ab:	4c 01 c9             	add    %r9,%rcx
    19ae:	eb d0                	jmp    1980 <riscv_dsp_mat_trans_f32+0x50>

Disassembly of section .fini:

00000000000019b0 <_fini>:
    19b0:	f3 0f 1e fa          	endbr64 
    19b4:	48 83 ec 08          	sub    $0x8,%rsp
    19b8:	48 83 c4 08          	add    $0x8,%rsp
    19bc:	c3                   	ret    
