
t_mat_qr_f64:     file format elf64-x86-64


Disassembly of section .init:

0000000000001000 <_init>:
    1000:	f3 0f 1e fa          	endbr64 
    1004:	48 83 ec 08          	sub    $0x8,%rsp
    1008:	48 8b 05 d9 3f 00 00 	mov    0x3fd9(%rip),%rax        # 4fe8 <__gmon_start__@Base>
    100f:	48 85 c0             	test   %rax,%rax
    1012:	74 02                	je     1016 <_init+0x16>
    1014:	ff d0                	call   *%rax
    1016:	48 83 c4 08          	add    $0x8,%rsp
    101a:	c3                   	ret    

Disassembly of section .plt:

0000000000001020 <.plt>:
    1020:	ff 35 4a 3f 00 00    	push   0x3f4a(%rip)        # 4f70 <_GLOBAL_OFFSET_TABLE_+0x8>
    1026:	f2 ff 25 4b 3f 00 00 	bnd jmp *0x3f4b(%rip)        # 4f78 <_GLOBAL_OFFSET_TABLE_+0x10>
    102d:	0f 1f 00             	nopl   (%rax)
    1030:	f3 0f 1e fa          	endbr64 
    1034:	68 00 00 00 00       	push   $0x0
    1039:	f2 e9 e1 ff ff ff    	bnd jmp 1020 <_init+0x20>
    103f:	90                   	nop
    1040:	f3 0f 1e fa          	endbr64 
    1044:	68 01 00 00 00       	push   $0x1
    1049:	f2 e9 d1 ff ff ff    	bnd jmp 1020 <_init+0x20>
    104f:	90                   	nop
    1050:	f3 0f 1e fa          	endbr64 
    1054:	68 02 00 00 00       	push   $0x2
    1059:	f2 e9 c1 ff ff ff    	bnd jmp 1020 <_init+0x20>
    105f:	90                   	nop
    1060:	f3 0f 1e fa          	endbr64 
    1064:	68 03 00 00 00       	push   $0x3
    1069:	f2 e9 b1 ff ff ff    	bnd jmp 1020 <_init+0x20>
    106f:	90                   	nop
    1070:	f3 0f 1e fa          	endbr64 
    1074:	68 04 00 00 00       	push   $0x4
    1079:	f2 e9 a1 ff ff ff    	bnd jmp 1020 <_init+0x20>
    107f:	90                   	nop
    1080:	f3 0f 1e fa          	endbr64 
    1084:	68 05 00 00 00       	push   $0x5
    1089:	f2 e9 91 ff ff ff    	bnd jmp 1020 <_init+0x20>
    108f:	90                   	nop
    1090:	f3 0f 1e fa          	endbr64 
    1094:	68 06 00 00 00       	push   $0x6
    1099:	f2 e9 81 ff ff ff    	bnd jmp 1020 <_init+0x20>
    109f:	90                   	nop
    10a0:	f3 0f 1e fa          	endbr64 
    10a4:	68 07 00 00 00       	push   $0x7
    10a9:	f2 e9 71 ff ff ff    	bnd jmp 1020 <_init+0x20>
    10af:	90                   	nop
    10b0:	f3 0f 1e fa          	endbr64 
    10b4:	68 08 00 00 00       	push   $0x8
    10b9:	f2 e9 61 ff ff ff    	bnd jmp 1020 <_init+0x20>
    10bf:	90                   	nop
    10c0:	f3 0f 1e fa          	endbr64 
    10c4:	68 09 00 00 00       	push   $0x9
    10c9:	f2 e9 51 ff ff ff    	bnd jmp 1020 <_init+0x20>
    10cf:	90                   	nop
    10d0:	f3 0f 1e fa          	endbr64 
    10d4:	68 0a 00 00 00       	push   $0xa
    10d9:	f2 e9 41 ff ff ff    	bnd jmp 1020 <_init+0x20>
    10df:	90                   	nop

Disassembly of section .plt.got:

00000000000010e0 <__cxa_finalize@plt>:
    10e0:	f3 0f 1e fa          	endbr64 
    10e4:	f2 ff 25 0d 3f 00 00 	bnd jmp *0x3f0d(%rip)        # 4ff8 <__cxa_finalize@GLIBC_2.2.5>
    10eb:	0f 1f 44 00 00       	nopl   0x0(%rax,%rax,1)

Disassembly of section .plt.sec:

00000000000010f0 <puts@plt>:
    10f0:	f3 0f 1e fa          	endbr64 
    10f4:	f2 ff 25 85 3e 00 00 	bnd jmp *0x3e85(%rip)        # 4f80 <puts@GLIBC_2.2.5>
    10fb:	0f 1f 44 00 00       	nopl   0x0(%rax,%rax,1)

0000000000001100 <fread@plt>:
    1100:	f3 0f 1e fa          	endbr64 
    1104:	f2 ff 25 7d 3e 00 00 	bnd jmp *0x3e7d(%rip)        # 4f88 <fread@GLIBC_2.2.5>
    110b:	0f 1f 44 00 00       	nopl   0x0(%rax,%rax,1)

0000000000001110 <fclose@plt>:
    1110:	f3 0f 1e fa          	endbr64 
    1114:	f2 ff 25 75 3e 00 00 	bnd jmp *0x3e75(%rip)        # 4f90 <fclose@GLIBC_2.2.5>
    111b:	0f 1f 44 00 00       	nopl   0x0(%rax,%rax,1)

0000000000001120 <__stack_chk_fail@plt>:
    1120:	f3 0f 1e fa          	endbr64 
    1124:	f2 ff 25 6d 3e 00 00 	bnd jmp *0x3e6d(%rip)        # 4f98 <__stack_chk_fail@GLIBC_2.4>
    112b:	0f 1f 44 00 00       	nopl   0x0(%rax,%rax,1)

0000000000001130 <memset@plt>:
    1130:	f3 0f 1e fa          	endbr64 
    1134:	f2 ff 25 65 3e 00 00 	bnd jmp *0x3e65(%rip)        # 4fa0 <memset@GLIBC_2.2.5>
    113b:	0f 1f 44 00 00       	nopl   0x0(%rax,%rax,1)

0000000000001140 <log10f@plt>:
    1140:	f3 0f 1e fa          	endbr64 
    1144:	f2 ff 25 5d 3e 00 00 	bnd jmp *0x3e5d(%rip)        # 4fa8 <log10f@GLIBC_2.2.5>
    114b:	0f 1f 44 00 00       	nopl   0x0(%rax,%rax,1)

0000000000001150 <memcpy@plt>:
    1150:	f3 0f 1e fa          	endbr64 
    1154:	f2 ff 25 55 3e 00 00 	bnd jmp *0x3e55(%rip)        # 4fb0 <memcpy@GLIBC_2.14>
    115b:	0f 1f 44 00 00       	nopl   0x0(%rax,%rax,1)

0000000000001160 <__printf_chk@plt>:
    1160:	f3 0f 1e fa          	endbr64 
    1164:	f2 ff 25 4d 3e 00 00 	bnd jmp *0x3e4d(%rip)        # 4fb8 <__printf_chk@GLIBC_2.3.4>
    116b:	0f 1f 44 00 00       	nopl   0x0(%rax,%rax,1)

0000000000001170 <fopen@plt>:
    1170:	f3 0f 1e fa          	endbr64 
    1174:	f2 ff 25 45 3e 00 00 	bnd jmp *0x3e45(%rip)        # 4fc0 <fopen@GLIBC_2.2.5>
    117b:	0f 1f 44 00 00       	nopl   0x0(%rax,%rax,1)

0000000000001180 <sqrt@plt>:
    1180:	f3 0f 1e fa          	endbr64 
    1184:	f2 ff 25 3d 3e 00 00 	bnd jmp *0x3e3d(%rip)        # 4fc8 <sqrt@GLIBC_2.2.5>
    118b:	0f 1f 44 00 00       	nopl   0x0(%rax,%rax,1)

0000000000001190 <__sprintf_chk@plt>:
    1190:	f3 0f 1e fa          	endbr64 
    1194:	f2 ff 25 35 3e 00 00 	bnd jmp *0x3e35(%rip)        # 4fd0 <__sprintf_chk@GLIBC_2.3.4>
    119b:	0f 1f 44 00 00       	nopl   0x0(%rax,%rax,1)

Disassembly of section .text:

00000000000011a0 <main>:
    11a0:	f3 0f 1e fa          	endbr64 
    11a4:	41 57                	push   %r15
    11a6:	ba 00 04 00 00       	mov    $0x400,%edx
    11ab:	48 8d 3d 9d 1e 00 00 	lea    0x1e9d(%rip),%rdi        # 304f <_IO_stdin_used+0x4f>
    11b2:	4c 8d 3d c7 5f 00 00 	lea    0x5fc7(%rip),%r15        # 7180 <golden_Q>
    11b9:	41 56                	push   %r14
    11bb:	4c 8d 35 be 82 00 00 	lea    0x82be(%rip),%r14        # 9480 <out_R>
    11c2:	41 55                	push   %r13
    11c4:	4c 8d 2d b5 3f 00 00 	lea    0x3fb5(%rip),%r13        # 5180 <golden_R>
    11cb:	41 54                	push   %r12
    11cd:	4c 8d 25 ac 81 00 00 	lea    0x81ac(%rip),%r12        # 9380 <out_tau>
    11d4:	55                   	push   %rbp
    11d5:	48 8d 2d a4 c2 00 00 	lea    0xc2a4(%rip),%rbp        # d480 <buf_A>
    11dc:	53                   	push   %rbx
    11dd:	48 89 ee             	mov    %rbp,%rsi
    11e0:	48 8d 1d 99 a2 00 00 	lea    0xa299(%rip),%rbx        # b480 <out_Q>
    11e7:	48 83 ec 18          	sub    $0x18,%rsp
    11eb:	e8 20 05 00 00       	call   1710 <read_write_buffer.constprop.0>
    11f0:	48 8d 3d 59 1f 00 00 	lea    0x1f59(%rip),%rdi        # 3150 <_IO_stdin_used+0x150>
    11f7:	e8 f4 fe ff ff       	call   10f0 <puts@plt>
    11fc:	b9 20 00 00 00       	mov    $0x20,%ecx
    1201:	ba 20 00 00 00       	mov    $0x20,%edx
    1206:	31 c0                	xor    %eax,%eax
    1208:	48 8d 35 57 1e 00 00 	lea    0x1e57(%rip),%rsi        # 3066 <_IO_stdin_used+0x66>
    120f:	bf 01 00 00 00       	mov    $0x1,%edi
    1214:	e8 47 ff ff ff       	call   1160 <__printf_chk@plt>
    1219:	6a 20                	push   $0x20
    121b:	4c 89 e1             	mov    %r12,%rcx
    121e:	48 89 da             	mov    %rbx,%rdx
    1221:	6a 20                	push   $0x20
    1223:	f2 0f 10 05 c5 1f 00 	movsd  0x1fc5(%rip),%xmm0        # 31f0 <_IO_stdin_used+0x1f0>
    122a:	00 
    122b:	48 89 ef             	mov    %rbp,%rdi
    122e:	4c 89 f6             	mov    %r14,%rsi
    1231:	4c 8d 0d 48 7f 00 00 	lea    0x7f48(%rip),%r9        # 9180 <tempB>
    1238:	4c 8d 05 41 80 00 00 	lea    0x8041(%rip),%r8        # 9280 <tempA>
    123f:	48 8d 2d 3a 3e 00 00 	lea    0x3e3a(%rip),%rbp        # 5080 <golden_tau>
    1246:	e8 a5 05 00 00       	call   17f0 <riscv_dsp_mat_qr_f64>
    124b:	ba 00 04 00 00       	mov    $0x400,%edx
    1250:	4c 89 fe             	mov    %r15,%rsi
    1253:	48 8d 3d 1e 1f 00 00 	lea    0x1f1e(%rip),%rdi        # 3178 <_IO_stdin_used+0x178>
    125a:	e8 b1 04 00 00       	call   1710 <read_write_buffer.constprop.0>
    125f:	ba 00 04 00 00       	mov    $0x400,%edx
    1264:	4c 89 ee             	mov    %r13,%rsi
    1267:	48 8d 3d 32 1f 00 00 	lea    0x1f32(%rip),%rdi        # 31a0 <_IO_stdin_used+0x1a0>
    126e:	e8 9d 04 00 00       	call   1710 <read_write_buffer.constprop.0>
    1273:	ba 20 00 00 00       	mov    $0x20,%edx
    1278:	48 89 ee             	mov    %rbp,%rsi
    127b:	48 8d 3d 46 1f 00 00 	lea    0x1f46(%rip),%rdi        # 31c8 <_IO_stdin_used+0x1c8>
    1282:	e8 89 04 00 00       	call   1710 <read_write_buffer.constprop.0>
    1287:	48 89 de             	mov    %rbx,%rsi
    128a:	ba 00 04 00 00       	mov    $0x400,%edx
    128f:	4c 89 ff             	mov    %r15,%rdi
    1292:	e8 e9 04 00 00       	call   1780 <dump2_f64.isra.0>
    1297:	ba 00 04 00 00       	mov    $0x400,%edx
    129c:	4c 89 f6             	mov    %r14,%rsi
    129f:	4c 89 ef             	mov    %r13,%rdi
    12a2:	e8 d9 04 00 00       	call   1780 <dump2_f64.isra.0>
    12a7:	ba 20 00 00 00       	mov    $0x20,%edx
    12ac:	4c 89 e6             	mov    %r12,%rsi
    12af:	48 89 ef             	mov    %rbp,%rdi
    12b2:	e8 c9 04 00 00       	call   1780 <dump2_f64.isra.0>
    12b7:	48 89 de             	mov    %rbx,%rsi
    12ba:	ba 00 04 00 00       	mov    $0x400,%edx
    12bf:	4c 89 ff             	mov    %r15,%rdi
    12c2:	e8 89 01 00 00       	call   1450 <dump_rmsd64>
    12c7:	ba 00 04 00 00       	mov    $0x400,%edx
    12cc:	4c 89 f6             	mov    %r14,%rsi
    12cf:	4c 89 ef             	mov    %r13,%rdi
    12d2:	f3 0f 11 44 24 1c    	movss  %xmm0,0x1c(%rsp)
    12d8:	e8 73 01 00 00       	call   1450 <dump_rmsd64>
    12dd:	ba 20 00 00 00       	mov    $0x20,%edx
    12e2:	4c 89 e6             	mov    %r12,%rsi
    12e5:	48 89 ef             	mov    %rbp,%rdi
    12e8:	66 0f ef db          	pxor   %xmm3,%xmm3
    12ec:	f3 0f 5a d8          	cvtss2sd %xmm0,%xmm3
    12f0:	66 48 0f 7e db       	movq   %xmm3,%rbx
    12f5:	e8 56 01 00 00       	call   1450 <dump_rmsd64>
    12fa:	f3 0f 10 4c 24 1c    	movss  0x1c(%rsp),%xmm1
    1300:	58                   	pop    %rax
    1301:	f2 0f 10 15 ef 1e 00 	movsd  0x1eef(%rip),%xmm2        # 31f8 <_IO_stdin_used+0x1f8>
    1308:	00 
    1309:	5a                   	pop    %rdx
    130a:	f3 0f 5a c9          	cvtss2sd %xmm1,%xmm1
    130e:	66 0f 2f ca          	comisd %xmm2,%xmm1
    1312:	77 32                	ja     1346 <main+0x1a6>
    1314:	66 48 0f 6e e3       	movq   %rbx,%xmm4
    1319:	66 0f 2f e2          	comisd %xmm2,%xmm4
    131d:	77 27                	ja     1346 <main+0x1a6>
    131f:	f3 0f 5a c0          	cvtss2sd %xmm0,%xmm0
    1323:	66 0f 2f c2          	comisd %xmm2,%xmm0
    1327:	77 1d                	ja     1346 <main+0x1a6>
    1329:	48 8d 3d 6c 1d 00 00 	lea    0x1d6c(%rip),%rdi        # 309c <_IO_stdin_used+0x9c>
    1330:	e8 bb fd ff ff       	call   10f0 <puts@plt>
    1335:	31 c0                	xor    %eax,%eax
    1337:	48 83 c4 18          	add    $0x18,%rsp
    133b:	5b                   	pop    %rbx
    133c:	5d                   	pop    %rbp
    133d:	41 5c                	pop    %r12
    133f:	41 5d                	pop    %r13
    1341:	41 5e                	pop    %r14
    1343:	41 5f                	pop    %r15
    1345:	c3                   	ret    
    1346:	48 8d 3d 33 1d 00 00 	lea    0x1d33(%rip),%rdi        # 3080 <_IO_stdin_used+0x80>
    134d:	e8 9e fd ff ff       	call   10f0 <puts@plt>
    1352:	83 c8 ff             	or     $0xffffffff,%eax
    1355:	eb e0                	jmp    1337 <main+0x197>
    1357:	66 0f 1f 84 00 00 00 	nopw   0x0(%rax,%rax,1)
    135e:	00 00 

0000000000001360 <_start>:
    1360:	f3 0f 1e fa          	endbr64 
    1364:	31 ed                	xor    %ebp,%ebp
    1366:	49 89 d1             	mov    %rdx,%r9
    1369:	5e                   	pop    %rsi
    136a:	48 89 e2             	mov    %rsp,%rdx
    136d:	48 83 e4 f0          	and    $0xfffffffffffffff0,%rsp
    1371:	50                   	push   %rax
    1372:	54                   	push   %rsp
    1373:	45 31 c0             	xor    %r8d,%r8d
    1376:	31 c9                	xor    %ecx,%ecx
    1378:	48 8d 3d 21 fe ff ff 	lea    -0x1df(%rip),%rdi        # 11a0 <main>
    137f:	ff 15 53 3c 00 00    	call   *0x3c53(%rip)        # 4fd8 <__libc_start_main@GLIBC_2.34>
    1385:	f4                   	hlt    
    1386:	66 2e 0f 1f 84 00 00 	cs nopw 0x0(%rax,%rax,1)
    138d:	00 00 00 

0000000000001390 <deregister_tm_clones>:
    1390:	48 8d 3d 79 3c 00 00 	lea    0x3c79(%rip),%rdi        # 5010 <__TMC_END__>
    1397:	48 8d 05 72 3c 00 00 	lea    0x3c72(%rip),%rax        # 5010 <__TMC_END__>
    139e:	48 39 f8             	cmp    %rdi,%rax
    13a1:	74 15                	je     13b8 <deregister_tm_clones+0x28>
    13a3:	48 8b 05 36 3c 00 00 	mov    0x3c36(%rip),%rax        # 4fe0 <_ITM_deregisterTMCloneTable@Base>
    13aa:	48 85 c0             	test   %rax,%rax
    13ad:	74 09                	je     13b8 <deregister_tm_clones+0x28>
    13af:	ff e0                	jmp    *%rax
    13b1:	0f 1f 80 00 00 00 00 	nopl   0x0(%rax)
    13b8:	c3                   	ret    
    13b9:	0f 1f 80 00 00 00 00 	nopl   0x0(%rax)

00000000000013c0 <register_tm_clones>:
    13c0:	48 8d 3d 49 3c 00 00 	lea    0x3c49(%rip),%rdi        # 5010 <__TMC_END__>
    13c7:	48 8d 35 42 3c 00 00 	lea    0x3c42(%rip),%rsi        # 5010 <__TMC_END__>
    13ce:	48 29 fe             	sub    %rdi,%rsi
    13d1:	48 89 f0             	mov    %rsi,%rax
    13d4:	48 c1 ee 3f          	shr    $0x3f,%rsi
    13d8:	48 c1 f8 03          	sar    $0x3,%rax
    13dc:	48 01 c6             	add    %rax,%rsi
    13df:	48 d1 fe             	sar    %rsi
    13e2:	74 14                	je     13f8 <register_tm_clones+0x38>
    13e4:	48 8b 05 05 3c 00 00 	mov    0x3c05(%rip),%rax        # 4ff0 <_ITM_registerTMCloneTable@Base>
    13eb:	48 85 c0             	test   %rax,%rax
    13ee:	74 08                	je     13f8 <register_tm_clones+0x38>
    13f0:	ff e0                	jmp    *%rax
    13f2:	66 0f 1f 44 00 00    	nopw   0x0(%rax,%rax,1)
    13f8:	c3                   	ret    
    13f9:	0f 1f 80 00 00 00 00 	nopl   0x0(%rax)

0000000000001400 <__do_global_dtors_aux>:
    1400:	f3 0f 1e fa          	endbr64 
    1404:	80 3d 35 3c 00 00 00 	cmpb   $0x0,0x3c35(%rip)        # 5040 <completed.0>
    140b:	75 2b                	jne    1438 <__do_global_dtors_aux+0x38>
    140d:	55                   	push   %rbp
    140e:	48 83 3d e2 3b 00 00 	cmpq   $0x0,0x3be2(%rip)        # 4ff8 <__cxa_finalize@GLIBC_2.2.5>
    1415:	00 
    1416:	48 89 e5             	mov    %rsp,%rbp
    1419:	74 0c                	je     1427 <__do_global_dtors_aux+0x27>
    141b:	48 8b 3d e6 3b 00 00 	mov    0x3be6(%rip),%rdi        # 5008 <__dso_handle>
    1422:	e8 b9 fc ff ff       	call   10e0 <__cxa_finalize@plt>
    1427:	e8 64 ff ff ff       	call   1390 <deregister_tm_clones>
    142c:	c6 05 0d 3c 00 00 01 	movb   $0x1,0x3c0d(%rip)        # 5040 <completed.0>
    1433:	5d                   	pop    %rbp
    1434:	c3                   	ret    
    1435:	0f 1f 00             	nopl   (%rax)
    1438:	c3                   	ret    
    1439:	0f 1f 80 00 00 00 00 	nopl   0x0(%rax)

0000000000001440 <frame_dummy>:
    1440:	f3 0f 1e fa          	endbr64 
    1444:	e9 77 ff ff ff       	jmp    13c0 <register_tm_clones>
    1449:	0f 1f 80 00 00 00 00 	nopl   0x0(%rax)

0000000000001450 <dump_rmsd64>:
    1450:	41 56                	push   %r14
    1452:	66 0f ef ff          	pxor   %xmm7,%xmm7
    1456:	66 45 0f ef c0       	pxor   %xmm8,%xmm8
    145b:	89 d1                	mov    %edx,%ecx
    145d:	53                   	push   %rbx
    145e:	31 c0                	xor    %eax,%eax
    1460:	44 0f 28 cf          	movaps %xmm7,%xmm9
    1464:	66 41 0f 28 f0       	movapd %xmm8,%xmm6
    1469:	0f 28 df             	movaps %xmm7,%xmm3
    146c:	0f 28 c7             	movaps %xmm7,%xmm0
    146f:	66 41 0f 28 e8       	movapd %xmm8,%xmm5
    1474:	48 83 ec 28          	sub    $0x28,%rsp
    1478:	eb 3d                	jmp    14b7 <dump_rmsd64+0x67>
    147a:	66 0f 1f 44 00 00    	nopw   0x0(%rax,%rax,1)
    1480:	f2 0f 5c e1          	subsd  %xmm1,%xmm4
    1484:	66 0f ef d2          	pxor   %xmm2,%xmm2
    1488:	f2 0f 5a d4          	cvtsd2ss %xmm4,%xmm2
    148c:	f2 0f 59 c9          	mulsd  %xmm1,%xmm1
    1490:	0f 28 e2             	movaps %xmm2,%xmm4
    1493:	f3 0f 58 c2          	addss  %xmm2,%xmm0
    1497:	48 83 c0 01          	add    $0x1,%rax
    149b:	f3 0f 59 d2          	mulss  %xmm2,%xmm2
    149f:	f3 0f 5f e3          	maxss  %xmm3,%xmm4
    14a3:	0f 28 dc             	movaps %xmm4,%xmm3
    14a6:	f2 0f 58 f1          	addsd  %xmm1,%xmm6
    14aa:	f3 0f 5a d2          	cvtss2sd %xmm2,%xmm2
    14ae:	f2 0f 58 ea          	addsd  %xmm2,%xmm5
    14b2:	48 39 c1             	cmp    %rax,%rcx
    14b5:	74 51                	je     1508 <dump_rmsd64+0xb8>
    14b7:	f2 0f 10 0c c7       	movsd  (%rdi,%rax,8),%xmm1
    14bc:	66 0f ef d2          	pxor   %xmm2,%xmm2
    14c0:	f2 0f 10 24 c6       	movsd  (%rsi,%rax,8),%xmm4
    14c5:	f3 41 0f 5a d1       	cvtss2sd %xmm9,%xmm2
    14ca:	66 0f 2f ca          	comisd %xmm2,%xmm1
    14ce:	76 0a                	jbe    14da <dump_rmsd64+0x8a>
    14d0:	66 45 0f ef c9       	pxor   %xmm9,%xmm9
    14d5:	f2 44 0f 5a c9       	cvtsd2ss %xmm1,%xmm9
    14da:	66 0f ef d2          	pxor   %xmm2,%xmm2
    14de:	f3 0f 5a d7          	cvtss2sd %xmm7,%xmm2
    14e2:	66 0f 2f d1          	comisd %xmm1,%xmm2
    14e6:	76 08                	jbe    14f0 <dump_rmsd64+0xa0>
    14e8:	66 0f ef ff          	pxor   %xmm7,%xmm7
    14ec:	f2 0f 5a f9          	cvtsd2ss %xmm1,%xmm7
    14f0:	66 0f 2f e1          	comisd %xmm1,%xmm4
    14f4:	77 8a                	ja     1480 <dump_rmsd64+0x30>
    14f6:	66 0f 28 d1          	movapd %xmm1,%xmm2
    14fa:	f2 0f 5c d4          	subsd  %xmm4,%xmm2
    14fe:	f2 0f 5a d2          	cvtsd2ss %xmm2,%xmm2
    1502:	eb 88                	jmp    148c <dump_rmsd64+0x3c>
    1504:	0f 1f 40 00          	nopl   0x0(%rax)
    1508:	66 0f ef c9          	pxor   %xmm1,%xmm1
    150c:	f3 0f 2a ca          	cvtsi2ss %edx,%xmm1
    1510:	f3 0f 5e c1          	divss  %xmm1,%xmm0
    1514:	66 0f ef c9          	pxor   %xmm1,%xmm1
    1518:	f2 0f 2a ca          	cvtsi2sd %edx,%xmm1
    151c:	66 41 0f 7e c6       	movd   %xmm0,%r14d
    1521:	66 0f 28 c5          	movapd %xmm5,%xmm0
    1525:	f2 0f 5e c1          	divsd  %xmm1,%xmm0
    1529:	66 44 0f 2e c0       	ucomisd %xmm0,%xmm8
    152e:	0f 87 e2 00 00 00    	ja     1616 <dump_rmsd64+0x1c6>
    1534:	f2 0f 51 c0          	sqrtsd %xmm0,%xmm0
    1538:	f3 44 0f 5c cf       	subss  %xmm7,%xmm9
    153d:	66 41 0f 2e e8       	ucomisd %xmm8,%xmm5
    1542:	66 0f ef c9          	pxor   %xmm1,%xmm1
    1546:	f2 0f 5a c8          	cvtsd2ss %xmm0,%xmm1
    154a:	0f 28 f9             	movaps %xmm1,%xmm7
    154d:	f3 41 0f 5e f9       	divss  %xmm9,%xmm7
    1552:	66 0f 7e fb          	movd   %xmm7,%ebx
    1556:	0f 8a 81 00 00 00    	jp     15dd <dump_rmsd64+0x18d>
    155c:	f3 0f 10 25 84 1c 00 	movss  0x1c84(%rip),%xmm4        # 31e8 <_IO_stdin_used+0x1e8>
    1563:	00 
    1564:	75 77                	jne    15dd <dump_rmsd64+0x18d>
    1566:	48 8d 3d 97 1a 00 00 	lea    0x1a97(%rip),%rdi        # 3004 <_IO_stdin_used+0x4>
    156d:	f3 0f 11 4c 24 0c    	movss  %xmm1,0xc(%rsp)
    1573:	f3 0f 11 5c 24 08    	movss  %xmm3,0x8(%rsp)
    1579:	f3 0f 11 64 24 04    	movss  %xmm4,0x4(%rsp)
    157f:	e8 6c fb ff ff       	call   10f0 <puts@plt>
    1584:	f3 0f 10 64 24 04    	movss  0x4(%rsp),%xmm4
    158a:	f3 0f 10 5c 24 08    	movss  0x8(%rsp),%xmm3
    1590:	66 41 0f 6e ee       	movd   %r14d,%xmm5
    1595:	f3 0f 10 4c 24 0c    	movss  0xc(%rsp),%xmm1
    159b:	66 0f 6e f3          	movd   %ebx,%xmm6
    159f:	66 0f ef c0          	pxor   %xmm0,%xmm0
    15a3:	66 0f ef d2          	pxor   %xmm2,%xmm2
    15a7:	f3 0f 5a c5          	cvtss2sd %xmm5,%xmm0
    15ab:	f3 0f 5a e4          	cvtss2sd %xmm4,%xmm4
    15af:	f3 0f 5a db          	cvtss2sd %xmm3,%xmm3
    15b3:	f3 0f 5a d6          	cvtss2sd %xmm6,%xmm2
    15b7:	48 8d 35 fa 1a 00 00 	lea    0x1afa(%rip),%rsi        # 30b8 <_IO_stdin_used+0xb8>
    15be:	bf 01 00 00 00       	mov    $0x1,%edi
    15c3:	b8 05 00 00 00       	mov    $0x5,%eax
    15c8:	f3 0f 5a c9          	cvtss2sd %xmm1,%xmm1
    15cc:	e8 8f fb ff ff       	call   1160 <__printf_chk@plt>
    15d1:	48 83 c4 28          	add    $0x28,%rsp
    15d5:	66 0f 6e c3          	movd   %ebx,%xmm0
    15d9:	5b                   	pop    %rbx
    15da:	41 5e                	pop    %r14
    15dc:	c3                   	ret    
    15dd:	f2 0f 5e f5          	divsd  %xmm5,%xmm6
    15e1:	66 0f ef c0          	pxor   %xmm0,%xmm0
    15e5:	f3 0f 11 4c 24 08    	movss  %xmm1,0x8(%rsp)
    15eb:	f3 0f 11 5c 24 04    	movss  %xmm3,0x4(%rsp)
    15f1:	f2 0f 5a c6          	cvtsd2ss %xmm6,%xmm0
    15f5:	e8 46 fb ff ff       	call   1140 <log10f@plt>
    15fa:	f3 0f 10 4c 24 08    	movss  0x8(%rsp),%xmm1
    1600:	f3 0f 59 05 e4 1b 00 	mulss  0x1be4(%rip),%xmm0        # 31ec <_IO_stdin_used+0x1ec>
    1607:	00 
    1608:	f3 0f 10 5c 24 04    	movss  0x4(%rsp),%xmm3
    160e:	0f 28 e0             	movaps %xmm0,%xmm4
    1611:	e9 50 ff ff ff       	jmp    1566 <dump_rmsd64+0x116>
    1616:	f2 0f 11 74 24 18    	movsd  %xmm6,0x18(%rsp)
    161c:	f2 0f 11 6c 24 10    	movsd  %xmm5,0x10(%rsp)
    1622:	f3 0f 11 7c 24 08    	movss  %xmm7,0x8(%rsp)
    1628:	f3 44 0f 11 4c 24 04 	movss  %xmm9,0x4(%rsp)
    162f:	f3 0f 11 64 24 0c    	movss  %xmm4,0xc(%rsp)
    1635:	e8 46 fb ff ff       	call   1180 <sqrt@plt>
    163a:	f2 0f 10 74 24 18    	movsd  0x18(%rsp),%xmm6
    1640:	66 45 0f ef c0       	pxor   %xmm8,%xmm8
    1645:	f2 0f 10 6c 24 10    	movsd  0x10(%rsp),%xmm5
    164b:	f3 0f 10 5c 24 0c    	movss  0xc(%rsp),%xmm3
    1651:	f3 0f 10 7c 24 08    	movss  0x8(%rsp),%xmm7
    1657:	f3 44 0f 10 4c 24 04 	movss  0x4(%rsp),%xmm9
    165e:	e9 d5 fe ff ff       	jmp    1538 <dump_rmsd64+0xe8>
    1663:	66 66 2e 0f 1f 84 00 	data16 cs nopw 0x0(%rax,%rax,1)
    166a:	00 00 00 00 
    166e:	66 90                	xchg   %ax,%ax

0000000000001670 <test_Fopen.constprop.0.isra.0>:
    1670:	41 54                	push   %r12
    1672:	49 89 f9             	mov    %rdi,%r9
    1675:	49 89 fc             	mov    %rdi,%r12
    1678:	4c 8d 05 91 1a 00 00 	lea    0x1a91(%rip),%r8        # 3110 <_IO_stdin_used+0x110>
    167f:	55                   	push   %rbp
    1680:	48 8d 0d 92 19 00 00 	lea    0x1992(%rip),%rcx        # 3019 <_IO_stdin_used+0x19>
    1687:	ba 00 04 00 00       	mov    $0x400,%edx
    168c:	53                   	push   %rbx
    168d:	48 89 f3             	mov    %rsi,%rbx
    1690:	be 01 00 00 00       	mov    $0x1,%esi
    1695:	48 81 ec 10 04 00 00 	sub    $0x410,%rsp
    169c:	64 48 8b 04 25 28 00 	mov    %fs:0x28,%rax
    16a3:	00 00 
    16a5:	48 89 84 24 08 04 00 	mov    %rax,0x408(%rsp)
    16ac:	00 
    16ad:	31 c0                	xor    %eax,%eax
    16af:	48 89 e5             	mov    %rsp,%rbp
    16b2:	48 89 ef             	mov    %rbp,%rdi
    16b5:	e8 d6 fa ff ff       	call   1190 <__sprintf_chk@plt>
    16ba:	48 8d 35 5e 19 00 00 	lea    0x195e(%rip),%rsi        # 301f <_IO_stdin_used+0x1f>
    16c1:	48 89 ef             	mov    %rbp,%rdi
    16c4:	e8 a7 fa ff ff       	call   1170 <fopen@plt>
    16c9:	48 89 03             	mov    %rax,(%rbx)
    16cc:	48 85 c0             	test   %rax,%rax
    16cf:	74 1f                	je     16f0 <test_Fopen.constprop.0.isra.0+0x80>
    16d1:	48 8b 84 24 08 04 00 	mov    0x408(%rsp),%rax
    16d8:	00 
    16d9:	64 48 2b 04 25 28 00 	sub    %fs:0x28,%rax
    16e0:	00 00 
    16e2:	75 22                	jne    1706 <test_Fopen.constprop.0.isra.0+0x96>
    16e4:	48 81 c4 10 04 00 00 	add    $0x410,%rsp
    16eb:	5b                   	pop    %rbx
    16ec:	5d                   	pop    %rbp
    16ed:	41 5c                	pop    %r12
    16ef:	c3                   	ret    
    16f0:	4c 89 e2             	mov    %r12,%rdx
    16f3:	48 8d 35 28 19 00 00 	lea    0x1928(%rip),%rsi        # 3022 <_IO_stdin_used+0x22>
    16fa:	bf 01 00 00 00       	mov    $0x1,%edi
    16ff:	e8 5c fa ff ff       	call   1160 <__printf_chk@plt>
    1704:	eb cb                	jmp    16d1 <test_Fopen.constprop.0.isra.0+0x61>
    1706:	e8 15 fa ff ff       	call   1120 <__stack_chk_fail@plt>
    170b:	0f 1f 44 00 00       	nopl   0x0(%rax,%rax,1)

0000000000001710 <read_write_buffer.constprop.0>:
    1710:	41 54                	push   %r12
    1712:	55                   	push   %rbp
    1713:	48 89 f5             	mov    %rsi,%rbp
    1716:	53                   	push   %rbx
    1717:	89 d3                	mov    %edx,%ebx
    1719:	48 83 ec 10          	sub    $0x10,%rsp
    171d:	64 48 8b 04 25 28 00 	mov    %fs:0x28,%rax
    1724:	00 00 
    1726:	48 89 44 24 08       	mov    %rax,0x8(%rsp)
    172b:	31 c0                	xor    %eax,%eax
    172d:	48 89 e6             	mov    %rsp,%rsi
    1730:	48 c7 04 24 00 00 00 	movq   $0x0,(%rsp)
    1737:	00 
    1738:	e8 33 ff ff ff       	call   1670 <test_Fopen.constprop.0.isra.0>
    173d:	4c 8b 24 24          	mov    (%rsp),%r12
    1741:	89 da                	mov    %ebx,%edx
    1743:	be 08 00 00 00       	mov    $0x8,%esi
    1748:	48 89 ef             	mov    %rbp,%rdi
    174b:	4c 89 e1             	mov    %r12,%rcx
    174e:	e8 ad f9 ff ff       	call   1100 <fread@plt>
    1753:	48 8b 44 24 08       	mov    0x8(%rsp),%rax
    1758:	64 48 2b 04 25 28 00 	sub    %fs:0x28,%rax
    175f:	00 00 
    1761:	75 10                	jne    1773 <read_write_buffer.constprop.0+0x63>
    1763:	48 83 c4 10          	add    $0x10,%rsp
    1767:	4c 89 e7             	mov    %r12,%rdi
    176a:	5b                   	pop    %rbx
    176b:	5d                   	pop    %rbp
    176c:	41 5c                	pop    %r12
    176e:	e9 9d f9 ff ff       	jmp    1110 <fclose@plt>
    1773:	e8 a8 f9 ff ff       	call   1120 <__stack_chk_fail@plt>
    1778:	0f 1f 84 00 00 00 00 	nopl   0x0(%rax,%rax,1)
    177f:	00 

0000000000001780 <dump2_f64.isra.0>:
    1780:	89 d2                	mov    %edx,%edx
    1782:	31 c0                	xor    %eax,%eax
    1784:	66 0f ef d2          	pxor   %xmm2,%xmm2
    1788:	eb 1f                	jmp    17a9 <dump2_f64.isra.0+0x29>
    178a:	66 0f 1f 44 00 00    	nopw   0x0(%rax,%rax,1)
    1790:	f2 0f 5c c1          	subsd  %xmm1,%xmm0
    1794:	66 0f 28 d8          	movapd %xmm0,%xmm3
    1798:	f2 0f 5f da          	maxsd  %xmm2,%xmm3
    179c:	48 83 c0 01          	add    $0x1,%rax
    17a0:	66 0f 28 d3          	movapd %xmm3,%xmm2
    17a4:	48 39 d0             	cmp    %rdx,%rax
    17a7:	74 1f                	je     17c8 <dump2_f64.isra.0+0x48>
    17a9:	f2 0f 10 04 c7       	movsd  (%rdi,%rax,8),%xmm0
    17ae:	f2 0f 10 0c c6       	movsd  (%rsi,%rax,8),%xmm1
    17b3:	66 0f 2f c1          	comisd %xmm1,%xmm0
    17b7:	77 d7                	ja     1790 <dump2_f64.isra.0+0x10>
    17b9:	f2 0f 5c c8          	subsd  %xmm0,%xmm1
    17bd:	66 0f 28 d9          	movapd %xmm1,%xmm3
    17c1:	eb d5                	jmp    1798 <dump2_f64.isra.0+0x18>
    17c3:	0f 1f 44 00 00       	nopl   0x0(%rax,%rax,1)
    17c8:	66 0f 28 c3          	movapd %xmm3,%xmm0
    17cc:	bf 01 00 00 00       	mov    $0x1,%edi
    17d1:	b8 01 00 00 00       	mov    $0x1,%eax
    17d6:	48 8d 35 5e 18 00 00 	lea    0x185e(%rip),%rsi        # 303b <_IO_stdin_used+0x3b>
    17dd:	e9 7e f9 ff ff       	jmp    1160 <__printf_chk@plt>
    17e2:	66 2e 0f 1f 84 00 00 	cs nopw 0x0(%rax,%rax,1)
    17e9:	00 00 00 
    17ec:	0f 1f 40 00          	nopl   0x0(%rax)

00000000000017f0 <riscv_dsp_mat_qr_f64>:
    17f0:	f3 0f 1e fa          	endbr64 
    17f4:	41 57                	push   %r15
    17f6:	41 56                	push   %r14
    17f8:	41 55                	push   %r13
    17fa:	41 54                	push   %r12
    17fc:	55                   	push   %rbp
    17fd:	53                   	push   %rbx
    17fe:	48 81 ec c8 00 00 00 	sub    $0xc8,%rsp
    1805:	48 89 b4 24 88 00 00 	mov    %rsi,0x88(%rsp)
    180c:	00 
    180d:	8b 84 24 08 01 00 00 	mov    0x108(%rsp),%eax
    1814:	48 89 94 24 b0 00 00 	mov    %rdx,0xb0(%rsp)
    181b:	00 
    181c:	48 89 8c 24 90 00 00 	mov    %rcx,0x90(%rsp)
    1823:	00 
    1824:	4c 89 44 24 10       	mov    %r8,0x10(%rsp)
    1829:	f2 0f 11 84 24 a0 00 	movsd  %xmm0,0xa0(%rsp)
    1830:	00 00 
    1832:	39 84 24 00 01 00 00 	cmp    %eax,0x100(%rsp)
    1839:	0f 82 72 0c 00 00    	jb     24b1 <riscv_dsp_mat_qr_f64+0xcc1>
    183f:	8b 84 24 00 01 00 00 	mov    0x100(%rsp),%eax
    1846:	49 89 fa             	mov    %rdi,%r10
    1849:	48 89 f7             	mov    %rsi,%rdi
    184c:	4d 89 ce             	mov    %r9,%r14
    184f:	0f af 84 24 08 01 00 	imul   0x108(%rsp),%eax
    1856:	00 
    1857:	4c 89 d6             	mov    %r10,%rsi
    185a:	89 c2                	mov    %eax,%edx
    185c:	89 84 24 bc 00 00 00 	mov    %eax,0xbc(%rsp)
    1863:	48 c1 e2 03          	shl    $0x3,%rdx
    1867:	e8 e4 f8 ff ff       	call   1150 <memcpy@plt>
    186c:	8b bc 24 08 01 00 00 	mov    0x108(%rsp),%edi
    1873:	85 ff                	test   %edi,%edi
    1875:	0f 84 e9 05 00 00    	je     1e64 <riscv_dsp_mat_qr_f64+0x674>
    187b:	8b 84 24 08 01 00 00 	mov    0x108(%rsp),%eax
    1882:	c7 44 24 5c 00 00 00 	movl   $0x0,0x5c(%rsp)
    1889:	00 
    188a:	48 c7 44 24 18 00 00 	movq   $0x0,0x18(%rsp)
    1891:	00 00 
    1893:	44 8b bc 24 08 01 00 	mov    0x108(%rsp),%r15d
    189a:	00 
    189b:	48 89 84 24 a8 00 00 	mov    %rax,0xa8(%rsp)
    18a2:	00 
    18a3:	48 c1 e0 03          	shl    $0x3,%rax
    18a7:	48 8b 7c 24 18       	mov    0x18(%rsp),%rdi
    18ac:	48 89 44 24 40       	mov    %rax,0x40(%rsp)
    18b1:	8b 84 24 08 01 00 00 	mov    0x108(%rsp),%eax
    18b8:	8d 04 40             	lea    (%rax,%rax,2),%eax
    18bb:	89 84 24 b8 00 00 00 	mov    %eax,0xb8(%rsp)
    18c2:	8b 84 24 08 01 00 00 	mov    0x108(%rsp),%eax
    18c9:	83 c0 01             	add    $0x1,%eax
    18cc:	48 c1 e0 03          	shl    $0x3,%rax
    18d0:	48 89 84 24 98 00 00 	mov    %rax,0x98(%rsp)
    18d7:	00 
    18d8:	48 8b 44 24 10       	mov    0x10(%rsp),%rax
    18dd:	48 83 c0 08          	add    $0x8,%rax
    18e1:	48 89 44 24 38       	mov    %rax,0x38(%rsp)
    18e6:	8b 84 24 00 01 00 00 	mov    0x100(%rsp),%eax
    18ed:	83 e8 01             	sub    $0x1,%eax
    18f0:	89 44 24 30          	mov    %eax,0x30(%rsp)
    18f4:	8b 84 24 00 01 00 00 	mov    0x100(%rsp),%eax
    18fb:	83 e8 02             	sub    $0x2,%eax
    18fe:	89 44 24 6c          	mov    %eax,0x6c(%rsp)
    1902:	48 8b 84 24 88 00 00 	mov    0x88(%rsp),%rax
    1909:	00 
    190a:	48 89 44 24 20       	mov    %rax,0x20(%rsp)
    190f:	90                   	nop
    1910:	8b 44 24 5c          	mov    0x5c(%rsp),%eax
    1914:	48 8b b4 24 88 00 00 	mov    0x88(%rsp),%rsi
    191b:	00 
    191c:	89 fb                	mov    %edi,%ebx
    191e:	48 01 f8             	add    %rdi,%rax
    1921:	39 bc 24 00 01 00 00 	cmp    %edi,0x100(%rsp)
    1928:	48 8d 14 c6          	lea    (%rsi,%rax,8),%rdx
    192c:	8b 44 24 30          	mov    0x30(%rsp),%eax
    1930:	0f 86 c6 09 00 00    	jbe    22fc <riscv_dsp_mat_qr_f64+0xb0c>
    1936:	48 89 c7             	mov    %rax,%rdi
    1939:	48 89 44 24 70       	mov    %rax,0x70(%rsp)
    193e:	48 8b 44 24 10       	mov    0x10(%rsp),%rax
    1943:	83 bc 24 08 01 00 00 	cmpl   $0x1,0x108(%rsp)
    194a:	01 
    194b:	48 8b 74 24 40       	mov    0x40(%rsp),%rsi
    1950:	48 8d 4c f8 08       	lea    0x8(%rax,%rdi,8),%rcx
    1955:	0f 85 95 04 00 00    	jne    1df0 <riscv_dsp_mat_qr_f64+0x600>
    195b:	0f 1f 44 00 00       	nopl   0x0(%rax,%rax,1)
    1960:	f2 0f 10 02          	movsd  (%rdx),%xmm0
    1964:	48 83 c0 08          	add    $0x8,%rax
    1968:	48 01 f2             	add    %rsi,%rdx
    196b:	f2 0f 11 40 f8       	movsd  %xmm0,-0x8(%rax)
    1970:	48 39 c1             	cmp    %rax,%rcx
    1973:	75 eb                	jne    1960 <riscv_dsp_mat_qr_f64+0x170>
    1975:	8b 84 24 00 01 00 00 	mov    0x100(%rsp),%eax
    197c:	48 8b 6c 24 10       	mov    0x10(%rsp),%rbp
    1981:	f2 0f 10 84 24 a0 00 	movsd  0xa0(%rsp),%xmm0
    1988:	00 00 
    198a:	29 d8                	sub    %ebx,%eax
    198c:	48 89 ef             	mov    %rbp,%rdi
    198f:	48 89 ea             	mov    %rbp,%rdx
    1992:	89 c6                	mov    %eax,%esi
    1994:	89 44 24 48          	mov    %eax,0x48(%rsp)
    1998:	e8 23 0b 00 00       	call   24c0 <riscv_dsp_mat_householder_f64>
    199d:	48 8b 7c 24 18       	mov    0x18(%rsp),%rdi
    19a2:	f2 0f 10 4d 00       	movsd  0x0(%rbp),%xmm1
    19a7:	48 8b 84 24 90 00 00 	mov    0x90(%rsp),%rax
    19ae:	00 
    19af:	66 0f 28 d8          	movapd %xmm0,%xmm3
    19b3:	f2 0f 11 04 f8       	movsd  %xmm0,(%rax,%rdi,8)
    19b8:	41 83 ff 01          	cmp    $0x1,%r15d
    19bc:	0f 84 53 09 00 00    	je     2315 <riscv_dsp_mat_qr_f64+0xb25>
    19c2:	44 89 fa             	mov    %r15d,%edx
    19c5:	66 0f 28 d1          	movapd %xmm1,%xmm2
    19c9:	48 8b 4c 24 20       	mov    0x20(%rsp),%rcx
    19ce:	31 c0                	xor    %eax,%eax
    19d0:	d1 ea                	shr    %edx
    19d2:	66 0f 14 d2          	unpcklpd %xmm2,%xmm2
    19d6:	48 c1 e2 04          	shl    $0x4,%rdx
    19da:	66 0f 1f 44 00 00    	nopw   0x0(%rax,%rax,1)
    19e0:	66 0f 10 04 01       	movupd (%rcx,%rax,1),%xmm0
    19e5:	66 0f 59 c2          	mulpd  %xmm2,%xmm0
    19e9:	41 0f 11 04 06       	movups %xmm0,(%r14,%rax,1)
    19ee:	48 83 c0 10          	add    $0x10,%rax
    19f2:	48 39 d0             	cmp    %rdx,%rax
    19f5:	75 e9                	jne    19e0 <riscv_dsp_mat_qr_f64+0x1f0>
    19f7:	44 89 f9             	mov    %r15d,%ecx
    19fa:	48 8b 7c 24 20       	mov    0x20(%rsp),%rdi
    19ff:	83 e1 fe             	and    $0xfffffffe,%ecx
    1a02:	89 c8                	mov    %ecx,%eax
    1a04:	48 c1 e0 03          	shl    $0x3,%rax
    1a08:	48 8d 14 07          	lea    (%rdi,%rax,1),%rdx
    1a0c:	4c 01 f0             	add    %r14,%rax
    1a0f:	41 39 cf             	cmp    %ecx,%r15d
    1a12:	74 08                	je     1a1c <riscv_dsp_mat_qr_f64+0x22c>
    1a14:	f2 0f 59 0a          	mulsd  (%rdx),%xmm1
    1a18:	f2 0f 11 08          	movsd  %xmm1,(%rax)
    1a1c:	41 8d 47 ff          	lea    -0x1(%r15),%eax
    1a20:	48 8b 7c 24 18       	mov    0x18(%rsp),%rdi
    1a25:	48 8b 54 24 20       	mov    0x20(%rsp),%rdx
    1a2a:	89 44 24 68          	mov    %eax,0x68(%rsp)
    1a2e:	48 8d 04 c5 08 00 00 	lea    0x8(,%rax,8),%rax
    1a35:	00 
    1a36:	44 8b 5c 24 30       	mov    0x30(%rsp),%r11d
    1a3b:	48 8d 3c f8          	lea    (%rax,%rdi,8),%rdi
    1a3f:	48 01 fa             	add    %rdi,%rdx
    1a42:	48 89 7c 24 50       	mov    %rdi,0x50(%rsp)
    1a47:	48 8b 7c 24 40       	mov    0x40(%rsp),%rdi
    1a4c:	48 8d 0c 3a          	lea    (%rdx,%rdi,1),%rcx
    1a50:	48 8d 34 39          	lea    (%rcx,%rdi,1),%rsi
    1a54:	48 01 f7             	add    %rsi,%rdi
    1a57:	41 c1 eb 02          	shr    $0x2,%r11d
    1a5b:	44 89 5c 24 60       	mov    %r11d,0x60(%rsp)
    1a60:	0f 84 a0 08 00 00    	je     2306 <riscv_dsp_mat_qr_f64+0xb16>
    1a66:	44 8b 94 24 b8 00 00 	mov    0xb8(%rsp),%r10d
    1a6d:	00 
    1a6e:	45 8d 43 ff          	lea    -0x1(%r11),%r8d
    1a72:	4c 8b 4c 24 38       	mov    0x38(%rsp),%r9
    1a77:	48 89 94 24 80 00 00 	mov    %rdx,0x80(%rsp)
    1a7e:	00 
    1a7f:	44 89 44 24 78       	mov    %r8d,0x78(%rsp)
    1a84:	49 c1 e0 05          	shl    $0x5,%r8
    1a88:	41 01 da             	add    %ebx,%r10d
    1a8b:	48 8b 5c 24 10       	mov    0x10(%rsp),%rbx
    1a90:	45 89 d2             	mov    %r10d,%r10d
    1a93:	4a 8d 5c 03 28       	lea    0x28(%rbx,%r8,1),%rbx
    1a98:	45 89 f8             	mov    %r15d,%r8d
    1a9b:	4e 8d 2c d0          	lea    (%rax,%r10,8),%r13
    1a9f:	48 89 1c 24          	mov    %rbx,(%rsp)
    1aa3:	44 89 fb             	mov    %r15d,%ebx
    1aa6:	41 d1 e8             	shr    %r8d
    1aa9:	83 e3 fe             	and    $0xfffffffe,%ebx
    1aac:	45 8d 60 ff          	lea    -0x1(%r8),%r12d
    1ab0:	41 89 d8             	mov    %ebx,%r8d
    1ab3:	89 5c 24 08          	mov    %ebx,0x8(%rsp)
    1ab7:	49 83 c4 01          	add    $0x1,%r12
    1abb:	4a 8d 2c c5 00 00 00 	lea    0x0(,%r8,8),%rbp
    1ac2:	00 
    1ac3:	49 c1 e4 04          	shl    $0x4,%r12
    1ac7:	49 89 d0             	mov    %rdx,%r8
    1aca:	49 8d 1c 2e          	lea    (%r14,%rbp,1),%rbx
    1ace:	48 89 5c 24 28       	mov    %rbx,0x28(%rsp)
    1ad3:	0f 1f 44 00 00       	nopl   0x0(%rax,%rax,1)
    1ad8:	f2 41 0f 10 29       	movsd  (%r9),%xmm5
    1add:	f2 41 0f 10 61 08    	movsd  0x8(%r9),%xmm4
    1ae3:	f2 41 0f 10 51 10    	movsd  0x10(%r9),%xmm2
    1ae9:	f2 41 0f 10 49 18    	movsd  0x18(%r9),%xmm1
    1aef:	41 83 ff 01          	cmp    $0x1,%r15d
    1af3:	0f 84 57 03 00 00    	je     1e50 <riscv_dsp_mat_qr_f64+0x660>
    1af9:	66 44 0f 28 d5       	movapd %xmm5,%xmm10
    1afe:	66 44 0f 28 cc       	movapd %xmm4,%xmm9
    1b03:	66 0f 28 f9          	movapd %xmm1,%xmm7
    1b07:	31 c0                	xor    %eax,%eax
    1b09:	66 44 0f 28 c2       	movapd %xmm2,%xmm8
    1b0e:	66 45 0f 14 d2       	unpcklpd %xmm10,%xmm10
    1b13:	66 45 0f 14 c9       	unpcklpd %xmm9,%xmm9
    1b18:	66 45 0f 14 c0       	unpcklpd %xmm8,%xmm8
    1b1d:	66 0f 14 ff          	unpcklpd %xmm7,%xmm7
    1b21:	0f 1f 80 00 00 00 00 	nopl   0x0(%rax)
    1b28:	66 41 0f 10 04 00    	movupd (%r8,%rax,1),%xmm0
    1b2e:	66 41 0f 10 34 06    	movupd (%r14,%rax,1),%xmm6
    1b34:	66 41 0f 59 c2       	mulpd  %xmm10,%xmm0
    1b39:	66 0f 58 c6          	addpd  %xmm6,%xmm0
    1b3d:	66 0f 10 34 01       	movupd (%rcx,%rax,1),%xmm6
    1b42:	66 41 0f 59 f1       	mulpd  %xmm9,%xmm6
    1b47:	66 0f 58 c6          	addpd  %xmm6,%xmm0
    1b4b:	66 0f 10 34 06       	movupd (%rsi,%rax,1),%xmm6
    1b50:	66 41 0f 59 f0       	mulpd  %xmm8,%xmm6
    1b55:	66 0f 58 c6          	addpd  %xmm6,%xmm0
    1b59:	66 0f 10 34 07       	movupd (%rdi,%rax,1),%xmm6
    1b5e:	66 0f 59 f7          	mulpd  %xmm7,%xmm6
    1b62:	66 0f 58 c6          	addpd  %xmm6,%xmm0
    1b66:	41 0f 11 04 06       	movups %xmm0,(%r14,%rax,1)
    1b6b:	48 83 c0 10          	add    $0x10,%rax
    1b6f:	4c 39 e0             	cmp    %r12,%rax
    1b72:	75 b4                	jne    1b28 <riscv_dsp_mat_qr_f64+0x338>
    1b74:	49 8d 1c 28          	lea    (%r8,%rbp,1),%rbx
    1b78:	4c 8d 1c 29          	lea    (%rcx,%rbp,1),%r11
    1b7c:	4c 8d 14 2e          	lea    (%rsi,%rbp,1),%r10
    1b80:	48 8d 14 2f          	lea    (%rdi,%rbp,1),%rdx
    1b84:	44 3b 7c 24 08       	cmp    0x8(%rsp),%r15d
    1b89:	74 33                	je     1bbe <riscv_dsp_mat_qr_f64+0x3ce>
    1b8b:	48 8b 44 24 28       	mov    0x28(%rsp),%rax
    1b90:	f2 41 0f 59 23       	mulsd  (%r11),%xmm4
    1b95:	f2 0f 59 2b          	mulsd  (%rbx),%xmm5
    1b99:	f2 0f 58 28          	addsd  (%rax),%xmm5
    1b9d:	f2 41 0f 59 12       	mulsd  (%r10),%xmm2
    1ba2:	f2 0f 59 0a          	mulsd  (%rdx),%xmm1
    1ba6:	66 0f 28 c4          	movapd %xmm4,%xmm0
    1baa:	f2 0f 58 c5          	addsd  %xmm5,%xmm0
    1bae:	f2 0f 58 d0          	addsd  %xmm0,%xmm2
    1bb2:	66 0f 28 c1          	movapd %xmm1,%xmm0
    1bb6:	f2 0f 58 c2          	addsd  %xmm2,%xmm0
    1bba:	f2 0f 11 00          	movsd  %xmm0,(%rax)
    1bbe:	4d 01 e8             	add    %r13,%r8
    1bc1:	4c 01 e9             	add    %r13,%rcx
    1bc4:	4c 01 ee             	add    %r13,%rsi
    1bc7:	4c 01 ef             	add    %r13,%rdi
    1bca:	49 83 c1 20          	add    $0x20,%r9
    1bce:	4c 3b 0c 24          	cmp    (%rsp),%r9
    1bd2:	0f 85 00 ff ff ff    	jne    1ad8 <riscv_dsp_mat_qr_f64+0x2e8>
    1bd8:	8b 7c 24 60          	mov    0x60(%rsp),%edi
    1bdc:	48 8b 94 24 80 00 00 	mov    0x80(%rsp),%rdx
    1be3:	00 
    1be4:	8b 44 24 78          	mov    0x78(%rsp),%eax
    1be8:	4c 0f af ef          	imul   %rdi,%r13
    1bec:	48 c1 e7 05          	shl    $0x5,%rdi
    1bf0:	48 03 7c 24 38       	add    0x38(%rsp),%rdi
    1bf5:	8d 04 85 05 00 00 00 	lea    0x5(,%rax,4),%eax
    1bfc:	4c 01 ea             	add    %r13,%rdx
    1bff:	39 44 24 48          	cmp    %eax,0x48(%rsp)
    1c03:	0f 86 a0 00 00 00    	jbe    1ca9 <riscv_dsp_mat_qr_f64+0x4b9>
    1c09:	8b 4c 24 48          	mov    0x48(%rsp),%ecx
    1c0d:	45 89 f9             	mov    %r15d,%r9d
    1c10:	41 83 e1 fe          	and    $0xfffffffe,%r9d
    1c14:	83 e9 01             	sub    $0x1,%ecx
    1c17:	45 89 c8             	mov    %r9d,%r8d
    1c1a:	29 c1                	sub    %eax,%ecx
    1c1c:	44 89 f8             	mov    %r15d,%eax
    1c1f:	49 c1 e0 03          	shl    $0x3,%r8
    1c23:	d1 e8                	shr    %eax
    1c25:	4c 8d 54 cf 08       	lea    0x8(%rdi,%rcx,8),%r10
    1c2a:	48 8b 4c 24 50       	mov    0x50(%rsp),%rcx
    1c2f:	4f 8d 1c 06          	lea    (%r14,%r8,1),%r11
    1c33:	8d 70 ff             	lea    -0x1(%rax),%esi
    1c36:	48 83 c6 01          	add    $0x1,%rsi
    1c3a:	48 c1 e6 04          	shl    $0x4,%rsi
    1c3e:	66 90                	xchg   %ax,%ax
    1c40:	f2 0f 10 0f          	movsd  (%rdi),%xmm1
    1c44:	41 83 ff 01          	cmp    $0x1,%r15d
    1c48:	0f 84 f2 01 00 00    	je     1e40 <riscv_dsp_mat_qr_f64+0x650>
    1c4e:	66 0f 28 d1          	movapd %xmm1,%xmm2
    1c52:	31 c0                	xor    %eax,%eax
    1c54:	66 0f 14 d2          	unpcklpd %xmm2,%xmm2
    1c58:	0f 1f 84 00 00 00 00 	nopl   0x0(%rax,%rax,1)
    1c5f:	00 
    1c60:	66 0f 10 04 02       	movupd (%rdx,%rax,1),%xmm0
    1c65:	66 41 0f 10 3c 06    	movupd (%r14,%rax,1),%xmm7
    1c6b:	66 0f 59 c2          	mulpd  %xmm2,%xmm0
    1c6f:	66 0f 58 c7          	addpd  %xmm7,%xmm0
    1c73:	41 0f 11 04 06       	movups %xmm0,(%r14,%rax,1)
    1c78:	48 83 c0 10          	add    $0x10,%rax
    1c7c:	48 39 c6             	cmp    %rax,%rsi
    1c7f:	75 df                	jne    1c60 <riscv_dsp_mat_qr_f64+0x470>
    1c81:	4a 8d 1c 02          	lea    (%rdx,%r8,1),%rbx
    1c85:	4c 89 d8             	mov    %r11,%rax
    1c88:	45 39 f9             	cmp    %r15d,%r9d
    1c8b:	74 10                	je     1c9d <riscv_dsp_mat_qr_f64+0x4ad>
    1c8d:	f2 0f 59 0b          	mulsd  (%rbx),%xmm1
    1c91:	f2 0f 10 00          	movsd  (%rax),%xmm0
    1c95:	f2 0f 58 c1          	addsd  %xmm1,%xmm0
    1c99:	f2 0f 11 00          	movsd  %xmm0,(%rax)
    1c9d:	48 83 c7 08          	add    $0x8,%rdi
    1ca1:	48 01 ca             	add    %rcx,%rdx
    1ca4:	49 39 fa             	cmp    %rdi,%r10
    1ca7:	75 97                	jne    1c40 <riscv_dsp_mat_qr_f64+0x450>
    1ca9:	48 8b 44 24 38       	mov    0x38(%rsp),%rax
    1cae:	48 8b 5c 24 70       	mov    0x70(%rsp),%rbx
    1cb3:	45 89 f8             	mov    %r15d,%r8d
    1cb6:	41 83 e0 fe          	and    $0xfffffffe,%r8d
    1cba:	48 8b 7c 24 10       	mov    0x10(%rsp),%rdi
    1cbf:	48 8b 54 24 20       	mov    0x20(%rsp),%rdx
    1cc4:	4c 8d 14 d8          	lea    (%rax,%rbx,8),%r10
    1cc8:	44 89 f8             	mov    %r15d,%eax
    1ccb:	45 89 c1             	mov    %r8d,%r9d
    1cce:	4c 8b 5c 24 50       	mov    0x50(%rsp),%r11
    1cd3:	d1 e8                	shr    %eax
    1cd5:	49 c1 e1 03          	shl    $0x3,%r9
    1cd9:	8d 70 ff             	lea    -0x1(%rax),%esi
    1cdc:	48 83 c6 01          	add    $0x1,%rsi
    1ce0:	48 c1 e6 04          	shl    $0x4,%rsi
    1ce4:	0f 1f 40 00          	nopl   0x0(%rax)
    1ce8:	f2 0f 10 17          	movsd  (%rdi),%xmm2
    1cec:	f2 0f 59 d3          	mulsd  %xmm3,%xmm2
    1cf0:	41 83 ff 01          	cmp    $0x1,%r15d
    1cf4:	0f 84 36 01 00 00    	je     1e30 <riscv_dsp_mat_qr_f64+0x640>
    1cfa:	66 0f 28 e2          	movapd %xmm2,%xmm4
    1cfe:	31 c0                	xor    %eax,%eax
    1d00:	66 0f 14 e4          	unpcklpd %xmm4,%xmm4
    1d04:	0f 1f 40 00          	nopl   0x0(%rax)
    1d08:	66 41 0f 10 0c 06    	movupd (%r14,%rax,1),%xmm1
    1d0e:	66 0f 10 04 02       	movupd (%rdx,%rax,1),%xmm0
    1d13:	66 0f 59 cc          	mulpd  %xmm4,%xmm1
    1d17:	66 0f 5c c1          	subpd  %xmm1,%xmm0
    1d1b:	0f 11 04 02          	movups %xmm0,(%rdx,%rax,1)
    1d1f:	48 83 c0 10          	add    $0x10,%rax
    1d23:	48 39 f0             	cmp    %rsi,%rax
    1d26:	75 e0                	jne    1d08 <riscv_dsp_mat_qr_f64+0x518>
    1d28:	4a 8d 0c 0a          	lea    (%rdx,%r9,1),%rcx
    1d2c:	44 89 c0             	mov    %r8d,%eax
    1d2f:	45 39 f8             	cmp    %r15d,%r8d
    1d32:	74 12                	je     1d46 <riscv_dsp_mat_qr_f64+0x556>
    1d34:	f2 41 0f 59 14 c6    	mulsd  (%r14,%rax,8),%xmm2
    1d3a:	f2 0f 10 01          	movsd  (%rcx),%xmm0
    1d3e:	f2 0f 5c c2          	subsd  %xmm2,%xmm0
    1d42:	f2 0f 11 01          	movsd  %xmm0,(%rcx)
    1d46:	48 83 c7 08          	add    $0x8,%rdi
    1d4a:	4c 01 da             	add    %r11,%rdx
    1d4d:	4c 39 d7             	cmp    %r10,%rdi
    1d50:	75 96                	jne    1ce8 <riscv_dsp_mat_qr_f64+0x4f8>
    1d52:	8b 74 24 30          	mov    0x30(%rsp),%esi
    1d56:	48 8b 54 24 20       	mov    0x20(%rsp),%rdx
    1d5b:	48 03 54 24 40       	add    0x40(%rsp),%rdx
    1d60:	85 f6                	test   %esi,%esi
    1d62:	74 40                	je     1da4 <riscv_dsp_mat_qr_f64+0x5b4>
    1d64:	8b 4c 24 6c          	mov    0x6c(%rsp),%ecx
    1d68:	48 8b 5c 24 10       	mov    0x10(%rsp),%rbx
    1d6d:	83 bc 24 08 01 00 00 	cmpl   $0x1,0x108(%rsp)
    1d74:	01 
    1d75:	48 8b 44 24 38       	mov    0x38(%rsp),%rax
    1d7a:	48 8b 74 24 40       	mov    0x40(%rsp),%rsi
    1d7f:	48 8d 4c cb 10       	lea    0x10(%rbx,%rcx,8),%rcx
    1d84:	0f 85 86 00 00 00    	jne    1e10 <riscv_dsp_mat_qr_f64+0x620>
    1d8a:	66 0f 1f 44 00 00    	nopw   0x0(%rax,%rax,1)
    1d90:	f2 0f 10 00          	movsd  (%rax),%xmm0
    1d94:	48 83 c0 08          	add    $0x8,%rax
    1d98:	f2 0f 11 02          	movsd  %xmm0,(%rdx)
    1d9c:	48 01 f2             	add    %rsi,%rdx
    1d9f:	48 39 c1             	cmp    %rax,%rcx
    1da2:	75 ec                	jne    1d90 <riscv_dsp_mat_qr_f64+0x5a0>
    1da4:	48 83 44 24 18 01    	addq   $0x1,0x18(%rsp)
    1daa:	48 8b 9c 24 98 00 00 	mov    0x98(%rsp),%rbx
    1db1:	00 
    1db2:	8b bc 24 08 01 00 00 	mov    0x108(%rsp),%edi
    1db9:	48 01 5c 24 20       	add    %rbx,0x20(%rsp)
    1dbe:	01 7c 24 5c          	add    %edi,0x5c(%rsp)
    1dc2:	48 8b 44 24 18       	mov    0x18(%rsp),%rax
    1dc7:	83 6c 24 30 01       	subl   $0x1,0x30(%rsp)
    1dcc:	83 6c 24 6c 01       	subl   $0x1,0x6c(%rsp)
    1dd1:	48 3b 84 24 a8 00 00 	cmp    0xa8(%rsp),%rax
    1dd8:	00 
    1dd9:	0f 84 85 00 00 00    	je     1e64 <riscv_dsp_mat_qr_f64+0x674>
    1ddf:	44 8b 7c 24 68       	mov    0x68(%rsp),%r15d
    1de4:	48 89 c7             	mov    %rax,%rdi
    1de7:	e9 24 fb ff ff       	jmp    1910 <riscv_dsp_mat_qr_f64+0x120>
    1dec:	0f 1f 40 00          	nopl   0x0(%rax)
    1df0:	f2 0f 10 02          	movsd  (%rdx),%xmm0
    1df4:	48 83 c0 08          	add    $0x8,%rax
    1df8:	48 01 f2             	add    %rsi,%rdx
    1dfb:	f2 0f 11 40 f8       	movsd  %xmm0,-0x8(%rax)
    1e00:	48 39 c1             	cmp    %rax,%rcx
    1e03:	75 eb                	jne    1df0 <riscv_dsp_mat_qr_f64+0x600>
    1e05:	e9 6b fb ff ff       	jmp    1975 <riscv_dsp_mat_qr_f64+0x185>
    1e0a:	66 0f 1f 44 00 00    	nopw   0x0(%rax,%rax,1)
    1e10:	f2 0f 10 00          	movsd  (%rax),%xmm0
    1e14:	48 83 c0 08          	add    $0x8,%rax
    1e18:	f2 0f 11 02          	movsd  %xmm0,(%rdx)
    1e1c:	48 01 f2             	add    %rsi,%rdx
    1e1f:	48 39 c1             	cmp    %rax,%rcx
    1e22:	75 ec                	jne    1e10 <riscv_dsp_mat_qr_f64+0x620>
    1e24:	e9 7b ff ff ff       	jmp    1da4 <riscv_dsp_mat_qr_f64+0x5b4>
    1e29:	0f 1f 80 00 00 00 00 	nopl   0x0(%rax)
    1e30:	48 89 d1             	mov    %rdx,%rcx
    1e33:	31 c0                	xor    %eax,%eax
    1e35:	e9 fa fe ff ff       	jmp    1d34 <riscv_dsp_mat_qr_f64+0x544>
    1e3a:	66 0f 1f 44 00 00    	nopw   0x0(%rax,%rax,1)
    1e40:	4c 89 f0             	mov    %r14,%rax
    1e43:	48 89 d3             	mov    %rdx,%rbx
    1e46:	e9 42 fe ff ff       	jmp    1c8d <riscv_dsp_mat_qr_f64+0x49d>
    1e4b:	0f 1f 44 00 00       	nopl   0x0(%rax,%rax,1)
    1e50:	48 89 fa             	mov    %rdi,%rdx
    1e53:	49 89 f2             	mov    %rsi,%r10
    1e56:	49 89 cb             	mov    %rcx,%r11
    1e59:	4c 89 c3             	mov    %r8,%rbx
    1e5c:	4c 89 f0             	mov    %r14,%rax
    1e5f:	e9 2c fd ff ff       	jmp    1b90 <riscv_dsp_mat_qr_f64+0x3a0>
    1e64:	48 83 bc 24 b0 00 00 	cmpq   $0x0,0xb0(%rsp)
    1e6b:	00 00 
    1e6d:	0f 84 75 04 00 00    	je     22e8 <riscv_dsp_mat_qr_f64+0xaf8>
    1e73:	8b 9c 24 00 01 00 00 	mov    0x100(%rsp),%ebx
    1e7a:	4c 8b bc 24 b0 00 00 	mov    0xb0(%rsp),%r15
    1e81:	00 
    1e82:	31 f6                	xor    %esi,%esi
    1e84:	48 89 da             	mov    %rbx,%rdx
    1e87:	4c 89 ff             	mov    %r15,%rdi
    1e8a:	48 0f af d3          	imul   %rbx,%rdx
    1e8e:	48 c1 e2 03          	shl    $0x3,%rdx
    1e92:	e8 99 f2 ff ff       	call   1130 <memset@plt>
    1e97:	8b 8c 24 00 01 00 00 	mov    0x100(%rsp),%ecx
    1e9e:	85 c9                	test   %ecx,%ecx
    1ea0:	0f 84 42 04 00 00    	je     22e8 <riscv_dsp_mat_qr_f64+0xaf8>
    1ea6:	8b 84 24 00 01 00 00 	mov    0x100(%rsp),%eax
    1ead:	f2 0f 10 1d 4b 13 00 	movsd  0x134b(%rip),%xmm3        # 3200 <_IO_stdin_used+0x200>
    1eb4:	00 
    1eb5:	31 f6                	xor    %esi,%esi
    1eb7:	8b bc 24 00 01 00 00 	mov    0x100(%rsp),%edi
    1ebe:	8d 50 01             	lea    0x1(%rax),%edx
    1ec1:	4c 89 f8             	mov    %r15,%rax
    1ec4:	48 c1 e2 03          	shl    $0x3,%rdx
    1ec8:	89 f1                	mov    %esi,%ecx
    1eca:	83 c6 01             	add    $0x1,%esi
    1ecd:	f2 0f 11 18          	movsd  %xmm3,(%rax)
    1ed1:	48 01 d0             	add    %rdx,%rax
    1ed4:	39 f7                	cmp    %esi,%edi
    1ed6:	75 f0                	jne    1ec8 <riscv_dsp_mat_qr_f64+0x6d8>
    1ed8:	48 8d 04 dd 00 00 00 	lea    0x0(,%rbx,8),%rax
    1edf:	00 
    1ee0:	89 74 24 50          	mov    %esi,0x50(%rsp)
    1ee4:	48 8b 9c 24 90 00 00 	mov    0x90(%rsp),%rbx
    1eeb:	00 
    1eec:	41 bf 01 00 00 00    	mov    $0x1,%r15d
    1ef2:	48 89 84 24 98 00 00 	mov    %rax,0x98(%rsp)
    1ef9:	00 
    1efa:	0f af 8c 24 00 01 00 	imul   0x100(%rsp),%ecx
    1f01:	00 
    1f02:	48 c7 44 24 30 00 00 	movq   $0x0,0x30(%rsp)
    1f09:	00 00 
    1f0b:	48 8d 44 03 f8       	lea    -0x8(%rbx,%rax,1),%rax
    1f10:	8b 9c 24 bc 00 00 00 	mov    0xbc(%rsp),%ebx
    1f17:	48 89 84 24 90 00 00 	mov    %rax,0x90(%rsp)
    1f1e:	00 
    1f1f:	8b 84 24 08 01 00 00 	mov    0x108(%rsp),%eax
    1f26:	2b 9c 24 08 01 00 00 	sub    0x108(%rsp),%ebx
    1f2d:	89 4c 24 68          	mov    %ecx,0x68(%rsp)
    1f31:	48 c1 e0 03          	shl    $0x3,%rax
    1f35:	89 5c 24 5c          	mov    %ebx,0x5c(%rsp)
    1f39:	48 89 84 24 a0 00 00 	mov    %rax,0xa0(%rsp)
    1f40:	00 
    1f41:	48 8b 44 24 10       	mov    0x10(%rsp),%rax
    1f46:	48 c7 44 24 38 08 00 	movq   $0x8,0x38(%rsp)
    1f4d:	00 00 
    1f4f:	48 83 c0 08          	add    $0x8,%rax
    1f53:	48 89 44 24 60       	mov    %rax,0x60(%rsp)
    1f58:	48 89 44 24 48       	mov    %rax,0x48(%rsp)
    1f5d:	8b 84 24 00 01 00 00 	mov    0x100(%rsp),%eax
    1f64:	c1 e0 02             	shl    $0x2,%eax
    1f67:	89 84 24 a8 00 00 00 	mov    %eax,0xa8(%rsp)
    1f6e:	8b 7c 24 50          	mov    0x50(%rsp),%edi
    1f72:	8b 44 24 68          	mov    0x68(%rsp),%eax
    1f76:	48 8b 9c 24 b0 00 00 	mov    0xb0(%rsp),%rbx
    1f7d:	00 
    1f7e:	48 8b b4 24 88 00 00 	mov    0x88(%rsp),%rsi
    1f85:	00 
    1f86:	89 fa                	mov    %edi,%edx
    1f88:	44 29 fa             	sub    %r15d,%edx
    1f8b:	41 89 d4             	mov    %edx,%r12d
    1f8e:	4c 01 e0             	add    %r12,%rax
    1f91:	48 8d 1c c3          	lea    (%rbx,%rax,8),%rbx
    1f95:	8b 44 24 5c          	mov    0x5c(%rsp),%eax
    1f99:	4c 01 e0             	add    %r12,%rax
    1f9c:	48 8d 04 c6          	lea    (%rsi,%rax,8),%rax
    1fa0:	39 fa                	cmp    %edi,%edx
    1fa2:	73 39                	jae    1fdd <riscv_dsp_mat_qr_f64+0x7ed>
    1fa4:	83 bc 24 08 01 00 00 	cmpl   $0x1,0x108(%rsp)
    1fab:	01 
    1fac:	48 8b 54 24 10       	mov    0x10(%rsp),%rdx
    1fb1:	0f 85 96 04 00 00    	jne    244d <riscv_dsp_mat_qr_f64+0xc5d>
    1fb7:	48 8b 8c 24 a0 00 00 	mov    0xa0(%rsp),%rcx
    1fbe:	00 
    1fbf:	48 8b 74 24 48       	mov    0x48(%rsp),%rsi
    1fc4:	0f 1f 40 00          	nopl   0x0(%rax)
    1fc8:	f2 0f 10 00          	movsd  (%rax),%xmm0
    1fcc:	48 83 c2 08          	add    $0x8,%rdx
    1fd0:	48 01 c8             	add    %rcx,%rax
    1fd3:	f2 0f 11 42 f8       	movsd  %xmm0,-0x8(%rdx)
    1fd8:	48 39 f2             	cmp    %rsi,%rdx
    1fdb:	75 eb                	jne    1fc8 <riscv_dsp_mat_qr_f64+0x7d8>
    1fdd:	48 8b 44 24 10       	mov    0x10(%rsp),%rax
    1fe2:	f2 0f 11 18          	movsd  %xmm3,(%rax)
    1fe6:	41 8d 47 ff          	lea    -0x1(%r15),%eax
    1fea:	89 c5                	mov    %eax,%ebp
    1fec:	89 44 24 6c          	mov    %eax,0x6c(%rsp)
    1ff0:	c1 ed 02             	shr    $0x2,%ebp
    1ff3:	45 85 ff             	test   %r15d,%r15d
    1ff6:	0f 84 8d 04 00 00    	je     2489 <riscv_dsp_mat_qr_f64+0xc99>
    1ffc:	4c 8b 6c 24 38       	mov    0x38(%rsp),%r13
    2001:	48 89 de             	mov    %rbx,%rsi
    2004:	4c 89 f7             	mov    %r14,%rdi
    2007:	4c 89 ea             	mov    %r13,%rdx
    200a:	e8 41 f1 ff ff       	call   1150 <memcpy@plt>
    200f:	4a 8d 04 e5 00 00 00 	lea    0x0(,%r12,8),%rax
    2016:	00 
    2017:	48 8b bc 24 98 00 00 	mov    0x98(%rsp),%rdi
    201e:	00 
    201f:	48 8b 15 da 11 00 00 	mov    0x11da(%rip),%rdx        # 3200 <_IO_stdin_used+0x200>
    2026:	48 89 44 24 40       	mov    %rax,0x40(%rsp)
    202b:	4c 01 e8             	add    %r13,%rax
    202e:	48 01 d8             	add    %rbx,%rax
    2031:	66 48 0f 6e da       	movq   %rdx,%xmm3
    2036:	48 8d 34 38          	lea    (%rax,%rdi,1),%rsi
    203a:	48 8d 0c 3e          	lea    (%rsi,%rdi,1),%rcx
    203e:	48 01 cf             	add    %rcx,%rdi
    2041:	85 ed                	test   %ebp,%ebp
    2043:	0f 84 31 04 00 00    	je     247a <riscv_dsp_mat_qr_f64+0xc8a>
    2049:	8d 55 ff             	lea    -0x1(%rbp),%edx
    204c:	4c 8b 5c 24 10       	mov    0x10(%rsp),%r11
    2051:	44 8b ac 24 a8 00 00 	mov    0xa8(%rsp),%r13d
    2058:	00 
    2059:	48 89 9c 24 80 00 00 	mov    %rbx,0x80(%rsp)
    2060:	00 
    2061:	4c 8b 44 24 60       	mov    0x60(%rsp),%r8
    2066:	48 8b 6c 24 38       	mov    0x38(%rsp),%rbp
    206b:	89 54 24 70          	mov    %edx,0x70(%rsp)
    206f:	48 89 54 24 78       	mov    %rdx,0x78(%rsp)
    2074:	48 c1 e2 05          	shl    $0x5,%rdx
    2078:	45 29 fd             	sub    %r15d,%r13d
    207b:	49 8d 54 13 28       	lea    0x28(%r11,%rdx,1),%rdx
    2080:	44 89 3c 24          	mov    %r15d,(%rsp)
    2084:	49 c1 e5 03          	shl    $0x3,%r13
    2088:	48 89 54 24 18       	mov    %rdx,0x18(%rsp)
    208d:	44 89 fa             	mov    %r15d,%edx
    2090:	d1 ea                	shr    %edx
    2092:	44 8d 62 ff          	lea    -0x1(%rdx),%r12d
    2096:	44 89 fa             	mov    %r15d,%edx
    2099:	83 e2 fe             	and    $0xfffffffe,%edx
    209c:	49 83 c4 01          	add    $0x1,%r12
    20a0:	89 54 24 20          	mov    %edx,0x20(%rsp)
    20a4:	48 c1 e2 03          	shl    $0x3,%rdx
    20a8:	49 c1 e4 04          	shl    $0x4,%r12
    20ac:	4d 8d 1c 16          	lea    (%r14,%rdx,1),%r11
    20b0:	4c 89 64 24 08       	mov    %r12,0x8(%rsp)
    20b5:	49 89 d7             	mov    %rdx,%r15
    20b8:	4c 89 5c 24 28       	mov    %r11,0x28(%rsp)
    20bd:	0f 1f 00             	nopl   (%rax)
    20c0:	8b 14 24             	mov    (%rsp),%edx
    20c3:	85 d2                	test   %edx,%edx
    20c5:	0f 84 00 01 00 00    	je     21cb <riscv_dsp_mat_qr_f64+0x9db>
    20cb:	83 3c 24 01          	cmpl   $0x1,(%rsp)
    20cf:	f2 41 0f 10 28       	movsd  (%r8),%xmm5
    20d4:	f2 41 0f 10 60 08    	movsd  0x8(%r8),%xmm4
    20da:	f2 41 0f 10 50 10    	movsd  0x10(%r8),%xmm2
    20e0:	f2 41 0f 10 48 18    	movsd  0x18(%r8),%xmm1
    20e6:	0f 84 4d 03 00 00    	je     2439 <riscv_dsp_mat_qr_f64+0xc49>
    20ec:	66 44 0f 28 d5       	movapd %xmm5,%xmm10
    20f1:	66 44 0f 28 cc       	movapd %xmm4,%xmm9
    20f6:	66 0f 28 f9          	movapd %xmm1,%xmm7
    20fa:	31 d2                	xor    %edx,%edx
    20fc:	66 44 0f 28 c2       	movapd %xmm2,%xmm8
    2101:	4c 8b 64 24 08       	mov    0x8(%rsp),%r12
    2106:	66 45 0f 14 d2       	unpcklpd %xmm10,%xmm10
    210b:	66 45 0f 14 c9       	unpcklpd %xmm9,%xmm9
    2110:	66 45 0f 14 c0       	unpcklpd %xmm8,%xmm8
    2115:	66 0f 14 ff          	unpcklpd %xmm7,%xmm7
    2119:	0f 1f 80 00 00 00 00 	nopl   0x0(%rax)
    2120:	66 0f 10 04 10       	movupd (%rax,%rdx,1),%xmm0
    2125:	66 41 0f 10 34 16    	movupd (%r14,%rdx,1),%xmm6
    212b:	66 41 0f 59 c2       	mulpd  %xmm10,%xmm0
    2130:	66 0f 58 c6          	addpd  %xmm6,%xmm0
    2134:	66 0f 10 34 16       	movupd (%rsi,%rdx,1),%xmm6
    2139:	66 41 0f 59 f1       	mulpd  %xmm9,%xmm6
    213e:	66 0f 58 c6          	addpd  %xmm6,%xmm0
    2142:	66 0f 10 34 11       	movupd (%rcx,%rdx,1),%xmm6
    2147:	66 41 0f 59 f0       	mulpd  %xmm8,%xmm6
    214c:	66 0f 58 c6          	addpd  %xmm6,%xmm0
    2150:	66 0f 10 34 17       	movupd (%rdi,%rdx,1),%xmm6
    2155:	66 0f 59 f7          	mulpd  %xmm7,%xmm6
    2159:	66 0f 58 c6          	addpd  %xmm6,%xmm0
    215d:	41 0f 11 04 16       	movups %xmm0,(%r14,%rdx,1)
    2162:	48 83 c2 10          	add    $0x10,%rdx
    2166:	49 39 d4             	cmp    %rdx,%r12
    2169:	75 b5                	jne    2120 <riscv_dsp_mat_qr_f64+0x930>
    216b:	4c 89 64 24 08       	mov    %r12,0x8(%rsp)
    2170:	4a 8d 1c 38          	lea    (%rax,%r15,1),%rbx
    2174:	44 8b 64 24 20       	mov    0x20(%rsp),%r12d
    2179:	4e 8d 1c 3e          	lea    (%rsi,%r15,1),%r11
    217d:	4e 8d 14 39          	lea    (%rcx,%r15,1),%r10
    2181:	4e 8d 0c 3f          	lea    (%rdi,%r15,1),%r9
    2185:	44 39 24 24          	cmp    %r12d,(%rsp)
    2189:	74 34                	je     21bf <riscv_dsp_mat_qr_f64+0x9cf>
    218b:	48 8b 54 24 28       	mov    0x28(%rsp),%rdx
    2190:	f2 41 0f 59 23       	mulsd  (%r11),%xmm4
    2195:	f2 0f 59 2b          	mulsd  (%rbx),%xmm5
    2199:	f2 0f 58 2a          	addsd  (%rdx),%xmm5
    219d:	f2 41 0f 59 12       	mulsd  (%r10),%xmm2
    21a2:	f2 41 0f 59 09       	mulsd  (%r9),%xmm1
    21a7:	66 0f 28 c4          	movapd %xmm4,%xmm0
    21ab:	f2 0f 58 c5          	addsd  %xmm5,%xmm0
    21af:	f2 0f 58 d0          	addsd  %xmm0,%xmm2
    21b3:	66 0f 28 c1          	movapd %xmm1,%xmm0
    21b7:	f2 0f 58 c2          	addsd  %xmm2,%xmm0
    21bb:	f2 0f 11 02          	movsd  %xmm0,(%rdx)
    21bf:	48 01 e8             	add    %rbp,%rax
    21c2:	48 01 ee             	add    %rbp,%rsi
    21c5:	48 01 e9             	add    %rbp,%rcx
    21c8:	48 01 ef             	add    %rbp,%rdi
    21cb:	4c 01 e8             	add    %r13,%rax
    21ce:	4c 01 ee             	add    %r13,%rsi
    21d1:	4c 01 e9             	add    %r13,%rcx
    21d4:	4c 01 ef             	add    %r13,%rdi
    21d7:	49 83 c0 20          	add    $0x20,%r8
    21db:	4c 3b 44 24 18       	cmp    0x18(%rsp),%r8
    21e0:	0f 85 da fe ff ff    	jne    20c0 <riscv_dsp_mat_qr_f64+0x8d0>
    21e6:	48 8b 7c 24 78       	mov    0x78(%rsp),%rdi
    21eb:	8b 74 24 70          	mov    0x70(%rsp),%esi
    21ef:	48 8b 9c 24 80 00 00 	mov    0x80(%rsp),%rbx
    21f6:	00 
    21f7:	44 8b 3c 24          	mov    (%rsp),%r15d
    21fb:	48 83 c7 01          	add    $0x1,%rdi
    21ff:	8d 14 b5 05 00 00 00 	lea    0x5(,%rsi,4),%edx
    2206:	48 c1 e7 05          	shl    $0x5,%rdi
    220a:	48 03 7c 24 60       	add    0x60(%rsp),%rdi
    220f:	41 39 d7             	cmp    %edx,%r15d
    2212:	0f 86 0a 01 00 00    	jbe    2322 <riscv_dsp_mat_qr_f64+0xb32>
    2218:	8b 4c 24 6c          	mov    0x6c(%rsp),%ecx
    221c:	45 89 f9             	mov    %r15d,%r9d
    221f:	41 83 e1 fe          	and    $0xfffffffe,%r9d
    2223:	29 d1                	sub    %edx,%ecx
    2225:	44 89 fa             	mov    %r15d,%edx
    2228:	45 89 c8             	mov    %r9d,%r8d
    222b:	4c 8d 5c cf 08       	lea    0x8(%rdi,%rcx,8),%r11
    2230:	48 8b 4c 24 30       	mov    0x30(%rsp),%rcx
    2235:	d1 ea                	shr    %edx
    2237:	49 c1 e0 03          	shl    $0x3,%r8
    223b:	8d 72 ff             	lea    -0x1(%rdx),%esi
    223e:	4b 8d 2c 06          	lea    (%r14,%r8,1),%rbp
    2242:	4c 8d 61 08          	lea    0x8(%rcx),%r12
    2246:	48 8b 4c 24 40       	mov    0x40(%rsp),%rcx
    224b:	48 83 c6 01          	add    $0x1,%rsi
    224f:	48 c1 e6 04          	shl    $0x4,%rsi
    2253:	4d 8d 14 0c          	lea    (%r12,%rcx,1),%r10
    2257:	66 0f 1f 84 00 00 00 	nopw   0x0(%rax,%rax,1)
    225e:	00 00 
    2260:	45 85 ff             	test   %r15d,%r15d
    2263:	0f 84 80 01 00 00    	je     23e9 <riscv_dsp_mat_qr_f64+0xbf9>
    2269:	f2 0f 10 07          	movsd  (%rdi),%xmm0
    226d:	41 83 ff 01          	cmp    $0x1,%r15d
    2271:	0f 84 b7 01 00 00    	je     242e <riscv_dsp_mat_qr_f64+0xc3e>
    2277:	66 0f 28 d0          	movapd %xmm0,%xmm2
    227b:	31 d2                	xor    %edx,%edx
    227d:	66 0f 14 d2          	unpcklpd %xmm2,%xmm2
    2281:	0f 1f 80 00 00 00 00 	nopl   0x0(%rax)
    2288:	66 0f 10 0c 10       	movupd (%rax,%rdx,1),%xmm1
    228d:	66 41 0f 10 3c 16    	movupd (%r14,%rdx,1),%xmm7
    2293:	66 0f 59 ca          	mulpd  %xmm2,%xmm1
    2297:	66 0f 58 cf          	addpd  %xmm7,%xmm1
    229b:	41 0f 11 0c 16       	movups %xmm1,(%r14,%rdx,1)
    22a0:	48 83 c2 10          	add    $0x10,%rdx
    22a4:	48 39 f2             	cmp    %rsi,%rdx
    22a7:	75 df                	jne    2288 <riscv_dsp_mat_qr_f64+0xa98>
    22a9:	4a 8d 0c 00          	lea    (%rax,%r8,1),%rcx
    22ad:	48 89 ea             	mov    %rbp,%rdx
    22b0:	45 39 cf             	cmp    %r9d,%r15d
    22b3:	74 0c                	je     22c1 <riscv_dsp_mat_qr_f64+0xad1>
    22b5:	f2 0f 59 01          	mulsd  (%rcx),%xmm0
    22b9:	f2 0f 58 02          	addsd  (%rdx),%xmm0
    22bd:	f2 0f 11 02          	movsd  %xmm0,(%rdx)
    22c1:	48 83 c7 08          	add    $0x8,%rdi
    22c5:	4c 01 d0             	add    %r10,%rax
    22c8:	4c 39 df             	cmp    %r11,%rdi
    22cb:	75 93                	jne    2260 <riscv_dsp_mat_qr_f64+0xa70>
    22cd:	48 8b 44 24 30       	mov    0x30(%rsp),%rax
    22d2:	48 8b bc 24 90 00 00 	mov    0x90(%rsp),%rdi
    22d9:	00 
    22da:	48 f7 d8             	neg    %rax
    22dd:	f2 0f 10 2c 07       	movsd  (%rdi,%rax,1),%xmm5
    22e2:	eb 65                	jmp    2349 <riscv_dsp_mat_qr_f64+0xb59>
    22e4:	0f 1f 40 00          	nopl   0x0(%rax)
    22e8:	31 c0                	xor    %eax,%eax
    22ea:	48 81 c4 c8 00 00 00 	add    $0xc8,%rsp
    22f1:	5b                   	pop    %rbx
    22f2:	5d                   	pop    %rbp
    22f3:	41 5c                	pop    %r12
    22f5:	41 5d                	pop    %r13
    22f7:	41 5e                	pop    %r14
    22f9:	41 5f                	pop    %r15
    22fb:	c3                   	ret    
    22fc:	48 89 44 24 70       	mov    %rax,0x70(%rsp)
    2301:	e9 6f f6 ff ff       	jmp    1975 <riscv_dsp_mat_qr_f64+0x185>
    2306:	48 8b 7c 24 38       	mov    0x38(%rsp),%rdi
    230b:	b8 01 00 00 00       	mov    $0x1,%eax
    2310:	e9 ea f8 ff ff       	jmp    1bff <riscv_dsp_mat_qr_f64+0x40f>
    2315:	48 8b 54 24 20       	mov    0x20(%rsp),%rdx
    231a:	4c 89 f0             	mov    %r14,%rax
    231d:	e9 f2 f6 ff ff       	jmp    1a14 <riscv_dsp_mat_qr_f64+0x224>
    2322:	48 8b 44 24 30       	mov    0x30(%rsp),%rax
    2327:	48 8b bc 24 90 00 00 	mov    0x90(%rsp),%rdi
    232e:	00 
    232f:	48 f7 d8             	neg    %rax
    2332:	f2 0f 10 2c 07       	movsd  (%rdi,%rax,1),%xmm5
    2337:	48 8b 44 24 30       	mov    0x30(%rsp),%rax
    233c:	4c 8d 60 08          	lea    0x8(%rax),%r12
    2340:	45 85 ff             	test   %r15d,%r15d
    2343:	0f 84 a0 00 00 00    	je     23e9 <riscv_dsp_mat_qr_f64+0xbf9>
    2349:	44 89 f8             	mov    %r15d,%eax
    234c:	44 89 ff             	mov    %r15d,%edi
    234f:	4c 8b 4c 24 40       	mov    0x40(%rsp),%r9
    2354:	48 8b 74 24 10       	mov    0x10(%rsp),%rsi
    2359:	d1 e8                	shr    %eax
    235b:	83 e7 fe             	and    $0xfffffffe,%edi
    235e:	4c 8b 54 24 48       	mov    0x48(%rsp),%r10
    2363:	8d 48 ff             	lea    -0x1(%rax),%ecx
    2366:	41 89 f8             	mov    %edi,%r8d
    2369:	4d 01 e1             	add    %r12,%r9
    236c:	48 83 c1 01          	add    $0x1,%rcx
    2370:	49 c1 e0 03          	shl    $0x3,%r8
    2374:	48 c1 e1 04          	shl    $0x4,%rcx
    2378:	0f 1f 84 00 00 00 00 	nopl   0x0(%rax,%rax,1)
    237f:	00 
    2380:	f2 0f 10 16          	movsd  (%rsi),%xmm2
    2384:	f2 0f 59 d5          	mulsd  %xmm5,%xmm2
    2388:	41 83 ff 01          	cmp    $0x1,%r15d
    238c:	0f 84 95 00 00 00    	je     2427 <riscv_dsp_mat_qr_f64+0xc37>
    2392:	66 0f 28 e2          	movapd %xmm2,%xmm4
    2396:	31 c0                	xor    %eax,%eax
    2398:	66 0f 14 e4          	unpcklpd %xmm4,%xmm4
    239c:	0f 1f 40 00          	nopl   0x0(%rax)
    23a0:	66 41 0f 10 0c 06    	movupd (%r14,%rax,1),%xmm1
    23a6:	66 0f 10 04 03       	movupd (%rbx,%rax,1),%xmm0
    23ab:	66 0f 59 cc          	mulpd  %xmm4,%xmm1
    23af:	66 0f 5c c1          	subpd  %xmm1,%xmm0
    23b3:	0f 11 04 03          	movups %xmm0,(%rbx,%rax,1)
    23b7:	48 83 c0 10          	add    $0x10,%rax
    23bb:	48 39 c1             	cmp    %rax,%rcx
    23be:	75 e0                	jne    23a0 <riscv_dsp_mat_qr_f64+0xbb0>
    23c0:	4a 8d 14 03          	lea    (%rbx,%r8,1),%rdx
    23c4:	89 f8                	mov    %edi,%eax
    23c6:	41 39 ff             	cmp    %edi,%r15d
    23c9:	74 12                	je     23dd <riscv_dsp_mat_qr_f64+0xbed>
    23cb:	f2 41 0f 59 14 c6    	mulsd  (%r14,%rax,8),%xmm2
    23d1:	f2 0f 10 02          	movsd  (%rdx),%xmm0
    23d5:	f2 0f 5c c2          	subsd  %xmm2,%xmm0
    23d9:	f2 0f 11 02          	movsd  %xmm0,(%rdx)
    23dd:	48 83 c6 08          	add    $0x8,%rsi
    23e1:	4c 01 cb             	add    %r9,%rbx
    23e4:	4c 39 d6             	cmp    %r10,%rsi
    23e7:	75 97                	jne    2380 <riscv_dsp_mat_qr_f64+0xb90>
    23e9:	8b 7c 24 50          	mov    0x50(%rsp),%edi
    23ed:	48 83 44 24 38 08    	addq   $0x8,0x38(%rsp)
    23f3:	41 8d 47 01          	lea    0x1(%r15),%eax
    23f7:	29 7c 24 68          	sub    %edi,0x68(%rsp)
    23fb:	8b bc 24 08 01 00 00 	mov    0x108(%rsp),%edi
    2402:	48 83 44 24 48 08    	addq   $0x8,0x48(%rsp)
    2408:	29 7c 24 5c          	sub    %edi,0x5c(%rsp)
    240c:	4c 89 64 24 30       	mov    %r12,0x30(%rsp)
    2411:	44 39 bc 24 00 01 00 	cmp    %r15d,0x100(%rsp)
    2418:	00 
    2419:	0f 84 c9 fe ff ff    	je     22e8 <riscv_dsp_mat_qr_f64+0xaf8>
    241f:	41 89 c7             	mov    %eax,%r15d
    2422:	e9 47 fb ff ff       	jmp    1f6e <riscv_dsp_mat_qr_f64+0x77e>
    2427:	48 89 da             	mov    %rbx,%rdx
    242a:	31 c0                	xor    %eax,%eax
    242c:	eb 9d                	jmp    23cb <riscv_dsp_mat_qr_f64+0xbdb>
    242e:	4c 89 f2             	mov    %r14,%rdx
    2431:	48 89 c1             	mov    %rax,%rcx
    2434:	e9 7c fe ff ff       	jmp    22b5 <riscv_dsp_mat_qr_f64+0xac5>
    2439:	49 89 f9             	mov    %rdi,%r9
    243c:	49 89 ca             	mov    %rcx,%r10
    243f:	49 89 f3             	mov    %rsi,%r11
    2442:	48 89 c3             	mov    %rax,%rbx
    2445:	4c 89 f2             	mov    %r14,%rdx
    2448:	e9 43 fd ff ff       	jmp    2190 <riscv_dsp_mat_qr_f64+0x9a0>
    244d:	48 8b 74 24 38       	mov    0x38(%rsp),%rsi
    2452:	48 8d 0c 32          	lea    (%rdx,%rsi,1),%rcx
    2456:	48 8b b4 24 a0 00 00 	mov    0xa0(%rsp),%rsi
    245d:	00 
    245e:	66 90                	xchg   %ax,%ax
    2460:	f2 0f 10 00          	movsd  (%rax),%xmm0
    2464:	48 83 c2 08          	add    $0x8,%rdx
    2468:	48 01 f0             	add    %rsi,%rax
    246b:	f2 0f 11 42 f8       	movsd  %xmm0,-0x8(%rdx)
    2470:	48 39 ca             	cmp    %rcx,%rdx
    2473:	75 eb                	jne    2460 <riscv_dsp_mat_qr_f64+0xc70>
    2475:	e9 63 fb ff ff       	jmp    1fdd <riscv_dsp_mat_qr_f64+0x7ed>
    247a:	48 8b 7c 24 60       	mov    0x60(%rsp),%rdi
    247f:	ba 01 00 00 00       	mov    $0x1,%edx
    2484:	e9 86 fd ff ff       	jmp    220f <riscv_dsp_mat_qr_f64+0xa1f>
    2489:	48 8b bc 24 98 00 00 	mov    0x98(%rsp),%rdi
    2490:	00 
    2491:	4a 8d 04 e5 00 00 00 	lea    0x0(,%r12,8),%rax
    2498:	00 
    2499:	48 89 44 24 40       	mov    %rax,0x40(%rsp)
    249e:	48 01 d8             	add    %rbx,%rax
    24a1:	48 8d 34 38          	lea    (%rax,%rdi,1),%rsi
    24a5:	48 8d 0c 3e          	lea    (%rsi,%rdi,1),%rcx
    24a9:	48 01 cf             	add    %rcx,%rdi
    24ac:	e9 98 fb ff ff       	jmp    2049 <riscv_dsp_mat_qr_f64+0x859>
    24b1:	b8 ff ff ff ff       	mov    $0xffffffff,%eax
    24b6:	e9 2f fe ff ff       	jmp    22ea <riscv_dsp_mat_qr_f64+0xafa>
    24bb:	0f 1f 44 00 00       	nopl   0x0(%rax,%rax,1)

00000000000024c0 <riscv_dsp_mat_householder_f64>:
    24c0:	f3 0f 1e fa          	endbr64 
    24c4:	41 57                	push   %r15
    24c6:	49 89 ff             	mov    %rdi,%r15
    24c9:	41 56                	push   %r14
    24cb:	49 89 d6             	mov    %rdx,%r14
    24ce:	41 55                	push   %r13
    24d0:	44 8d 6e ff          	lea    -0x1(%rsi),%r13d
    24d4:	41 54                	push   %r12
    24d6:	41 89 f4             	mov    %esi,%r12d
    24d9:	55                   	push   %rbp
    24da:	48 8d 6f 08          	lea    0x8(%rdi),%rbp
    24de:	53                   	push   %rbx
    24df:	66 48 0f 7e c3       	movq   %xmm0,%rbx
    24e4:	48 83 ec 18          	sub    $0x18,%rsp
    24e8:	f2 0f 10 1f          	movsd  (%rdi),%xmm3
    24ec:	f2 0f 11 1c 24       	movsd  %xmm3,(%rsp)
    24f1:	83 fe 01             	cmp    $0x1,%esi
    24f4:	76 1a                	jbe    2510 <riscv_dsp_mat_householder_f64+0x50>
    24f6:	48 8d 7a 08          	lea    0x8(%rdx),%rdi
    24fa:	49 8d 6f 08          	lea    0x8(%r15),%rbp
    24fe:	8d 56 ff             	lea    -0x1(%rsi),%edx
    2501:	48 89 ee             	mov    %rbp,%rsi
    2504:	49 89 d5             	mov    %rdx,%r13
    2507:	48 c1 e2 03          	shl    $0x3,%rdx
    250b:	e8 40 ec ff ff       	call   1150 <memcpy@plt>
    2510:	48 8b 05 e9 0c 00 00 	mov    0xce9(%rip),%rax        # 3200 <_IO_stdin_used+0x200>
    2517:	44 89 ea             	mov    %r13d,%edx
    251a:	48 89 ee             	mov    %rbp,%rsi
    251d:	48 89 ef             	mov    %rbp,%rdi
    2520:	49 89 06             	mov    %rax,(%r14)
    2523:	e8 68 01 00 00       	call   2690 <riscv_dsp_dprod_f64>
    2528:	66 48 0f 6e e3       	movq   %rbx,%xmm4
    252d:	66 0f 2f e0          	comisd %xmm0,%xmm4
    2531:	72 2d                	jb     2560 <riscv_dsp_mat_householder_f64+0xa0>
    2533:	44 89 e2             	mov    %r12d,%edx
    2536:	4c 89 f7             	mov    %r14,%rdi
    2539:	31 f6                	xor    %esi,%esi
    253b:	48 c1 e2 03          	shl    $0x3,%rdx
    253f:	e8 ec eb ff ff       	call   1130 <memset@plt>
    2544:	48 83 c4 18          	add    $0x18,%rsp
    2548:	66 0f ef c0          	pxor   %xmm0,%xmm0
    254c:	5b                   	pop    %rbx
    254d:	5d                   	pop    %rbp
    254e:	41 5c                	pop    %r12
    2550:	41 5d                	pop    %r13
    2552:	41 5e                	pop    %r14
    2554:	41 5f                	pop    %r15
    2556:	c3                   	ret    
    2557:	66 0f 1f 84 00 00 00 	nopw   0x0(%rax,%rax,1)
    255e:	00 00 
    2560:	f2 0f 10 2c 24       	movsd  (%rsp),%xmm5
    2565:	66 0f ef d2          	pxor   %xmm2,%xmm2
    2569:	66 0f 28 cd          	movapd %xmm5,%xmm1
    256d:	f2 0f 59 cd          	mulsd  %xmm5,%xmm1
    2571:	f2 0f 58 c8          	addsd  %xmm0,%xmm1
    2575:	66 0f 2e d1          	ucomisd %xmm1,%xmm2
    2579:	77 6b                	ja     25e6 <riscv_dsp_mat_householder_f64+0x126>
    257b:	f2 0f 51 c9          	sqrtsd %xmm1,%xmm1
    257f:	66 0f 28 f5          	movapd %xmm5,%xmm6
    2583:	66 0f 2f f2          	comisd %xmm2,%xmm6
    2587:	76 08                	jbe    2591 <riscv_dsp_mat_householder_f64+0xd1>
    2589:	66 0f 57 0d 7f 0c 00 	xorpd  0xc7f(%rip),%xmm1        # 3210 <_IO_stdin_used+0x210>
    2590:	00 
    2591:	f2 0f 10 14 24       	movsd  (%rsp),%xmm2
    2596:	44 89 e2             	mov    %r12d,%edx
    2599:	4c 89 f6             	mov    %r14,%rsi
    259c:	4c 89 ff             	mov    %r15,%rdi
    259f:	f2 0f 10 05 59 0c 00 	movsd  0xc59(%rip),%xmm0        # 3200 <_IO_stdin_used+0x200>
    25a6:	00 
    25a7:	f2 0f 11 4c 24 08    	movsd  %xmm1,0x8(%rsp)
    25ad:	f2 0f 5c d1          	subsd  %xmm1,%xmm2
    25b1:	f2 0f 5e c2          	divsd  %xmm2,%xmm0
    25b5:	e8 46 00 00 00       	call   2600 <riscv_dsp_scale_f64>
    25ba:	f2 0f 10 4c 24 08    	movsd  0x8(%rsp),%xmm1
    25c0:	48 8b 05 39 0c 00 00 	mov    0xc39(%rip),%rax        # 3200 <_IO_stdin_used+0x200>
    25c7:	66 0f 28 c1          	movapd %xmm1,%xmm0
    25cb:	f2 0f 5c 04 24       	subsd  (%rsp),%xmm0
    25d0:	49 89 06             	mov    %rax,(%r14)
    25d3:	48 83 c4 18          	add    $0x18,%rsp
    25d7:	5b                   	pop    %rbx
    25d8:	5d                   	pop    %rbp
    25d9:	41 5c                	pop    %r12
    25db:	41 5d                	pop    %r13
    25dd:	f2 0f 5e c1          	divsd  %xmm1,%xmm0
    25e1:	41 5e                	pop    %r14
    25e3:	41 5f                	pop    %r15
    25e5:	c3                   	ret    
    25e6:	66 0f 28 c1          	movapd %xmm1,%xmm0
    25ea:	e8 91 eb ff ff       	call   1180 <sqrt@plt>
    25ef:	f2 0f 10 34 24       	movsd  (%rsp),%xmm6
    25f4:	66 0f ef d2          	pxor   %xmm2,%xmm2
    25f8:	66 0f 28 c8          	movapd %xmm0,%xmm1
    25fc:	eb 85                	jmp    2583 <riscv_dsp_mat_householder_f64+0xc3>
    25fe:	66 90                	xchg   %ax,%ax

0000000000002600 <riscv_dsp_scale_f64>:
    2600:	f3 0f 1e fa          	endbr64 
    2604:	48 89 f9             	mov    %rdi,%rcx
    2607:	85 d2                	test   %edx,%edx
    2609:	74 7c                	je     2687 <riscv_dsp_scale_f64+0x87>
    260b:	48 8d 47 08          	lea    0x8(%rdi),%rax
    260f:	48 39 c6             	cmp    %rax,%rsi
    2612:	74 54                	je     2668 <riscv_dsp_scale_f64+0x68>
    2614:	8d 42 ff             	lea    -0x1(%rdx),%eax
    2617:	83 f8 01             	cmp    $0x1,%eax
    261a:	76 4c                	jbe    2668 <riscv_dsp_scale_f64+0x68>
    261c:	89 d7                	mov    %edx,%edi
    261e:	66 0f 28 d0          	movapd %xmm0,%xmm2
    2622:	31 c0                	xor    %eax,%eax
    2624:	d1 ef                	shr    %edi
    2626:	66 0f 14 d2          	unpcklpd %xmm2,%xmm2
    262a:	48 c1 e7 04          	shl    $0x4,%rdi
    262e:	66 90                	xchg   %ax,%ax
    2630:	66 0f 10 0c 01       	movupd (%rcx,%rax,1),%xmm1
    2635:	66 0f 59 ca          	mulpd  %xmm2,%xmm1
    2639:	0f 11 0c 06          	movups %xmm1,(%rsi,%rax,1)
    263d:	48 83 c0 10          	add    $0x10,%rax
    2641:	48 39 c7             	cmp    %rax,%rdi
    2644:	75 ea                	jne    2630 <riscv_dsp_scale_f64+0x30>
    2646:	89 d7                	mov    %edx,%edi
    2648:	83 e7 fe             	and    $0xfffffffe,%edi
    264b:	89 f8                	mov    %edi,%eax
    264d:	48 c1 e0 03          	shl    $0x3,%rax
    2651:	48 01 c1             	add    %rax,%rcx
    2654:	48 01 f0             	add    %rsi,%rax
    2657:	39 fa                	cmp    %edi,%edx
    2659:	74 2c                	je     2687 <riscv_dsp_scale_f64+0x87>
    265b:	f2 0f 59 01          	mulsd  (%rcx),%xmm0
    265f:	f2 0f 11 00          	movsd  %xmm0,(%rax)
    2663:	c3                   	ret    
    2664:	0f 1f 40 00          	nopl   0x0(%rax)
    2668:	89 d2                	mov    %edx,%edx
    266a:	31 c0                	xor    %eax,%eax
    266c:	0f 1f 40 00          	nopl   0x0(%rax)
    2670:	f2 0f 10 0c c1       	movsd  (%rcx,%rax,8),%xmm1
    2675:	f2 0f 59 c8          	mulsd  %xmm0,%xmm1
    2679:	f2 0f 11 0c c6       	movsd  %xmm1,(%rsi,%rax,8)
    267e:	48 83 c0 01          	add    $0x1,%rax
    2682:	48 39 c2             	cmp    %rax,%rdx
    2685:	75 e9                	jne    2670 <riscv_dsp_scale_f64+0x70>
    2687:	c3                   	ret    
    2688:	0f 1f 84 00 00 00 00 	nopl   0x0(%rax,%rax,1)
    268f:	00 

0000000000002690 <riscv_dsp_dprod_f64>:
    2690:	f3 0f 1e fa          	endbr64 
    2694:	85 d2                	test   %edx,%edx
    2696:	74 68                	je     2700 <riscv_dsp_dprod_f64+0x70>
    2698:	83 fa 01             	cmp    $0x1,%edx
    269b:	74 68                	je     2705 <riscv_dsp_dprod_f64+0x75>
    269d:	89 d1                	mov    %edx,%ecx
    269f:	31 c0                	xor    %eax,%eax
    26a1:	66 0f ef c0          	pxor   %xmm0,%xmm0
    26a5:	d1 e9                	shr    %ecx
    26a7:	48 c1 e1 04          	shl    $0x4,%rcx
    26ab:	0f 1f 44 00 00       	nopl   0x0(%rax,%rax,1)
    26b0:	66 0f 10 0c 07       	movupd (%rdi,%rax,1),%xmm1
    26b5:	66 0f 10 1c 06       	movupd (%rsi,%rax,1),%xmm3
    26ba:	48 83 c0 10          	add    $0x10,%rax
    26be:	66 0f 59 cb          	mulpd  %xmm3,%xmm1
    26c2:	f2 0f 58 c1          	addsd  %xmm1,%xmm0
    26c6:	66 0f 15 c9          	unpckhpd %xmm1,%xmm1
    26ca:	f2 0f 58 c1          	addsd  %xmm1,%xmm0
    26ce:	48 39 c1             	cmp    %rax,%rcx
    26d1:	75 dd                	jne    26b0 <riscv_dsp_dprod_f64+0x20>
    26d3:	89 d1                	mov    %edx,%ecx
    26d5:	83 e1 fe             	and    $0xfffffffe,%ecx
    26d8:	89 c8                	mov    %ecx,%eax
    26da:	48 c1 e0 03          	shl    $0x3,%rax
    26de:	48 01 c7             	add    %rax,%rdi
    26e1:	48 01 c6             	add    %rax,%rsi
    26e4:	39 ca                	cmp    %ecx,%edx
    26e6:	74 10                	je     26f8 <riscv_dsp_dprod_f64+0x68>
    26e8:	f2 0f 10 0e          	movsd  (%rsi),%xmm1
    26ec:	f2 0f 59 0f          	mulsd  (%rdi),%xmm1
    26f0:	f2 0f 58 c1          	addsd  %xmm1,%xmm0
    26f4:	c3                   	ret    
    26f5:	0f 1f 00             	nopl   (%rax)
    26f8:	c3                   	ret    
    26f9:	0f 1f 80 00 00 00 00 	nopl   0x0(%rax)
    2700:	66 0f ef c0          	pxor   %xmm0,%xmm0
    2704:	c3                   	ret    
    2705:	66 0f ef c0          	pxor   %xmm0,%xmm0
    2709:	eb dd                	jmp    26e8 <riscv_dsp_dprod_f64+0x58>

Disassembly of section .fini:

000000000000270c <_fini>:
    270c:	f3 0f 1e fa          	endbr64 
    2710:	48 83 ec 08          	sub    $0x8,%rsp
    2714:	48 83 c4 08          	add    $0x8,%rsp
    2718:	c3                   	ret    
