
t_mat_inverse_f64:     file format elf64-x86-64


Disassembly of section .init:

0000000000004000 <_init>:
    4000:	f3 0f 1e fa          	endbr64 
    4004:	48 83 ec 08          	sub    $0x8,%rsp
    4008:	48 8b 05 d9 3f 00 00 	mov    0x3fd9(%rip),%rax        # 7fe8 <__gmon_start__@Base>
    400f:	48 85 c0             	test   %rax,%rax
    4012:	74 02                	je     4016 <_init+0x16>
    4014:	ff d0                	call   *%rax
    4016:	48 83 c4 08          	add    $0x8,%rsp
    401a:	c3                   	ret    

Disassembly of section .plt:

0000000000004020 <.plt>:
    4020:	ff 35 6a 3f 00 00    	push   0x3f6a(%rip)        # 7f90 <_GLOBAL_OFFSET_TABLE_+0x8>
    4026:	f2 ff 25 6b 3f 00 00 	bnd jmp *0x3f6b(%rip)        # 7f98 <_GLOBAL_OFFSET_TABLE_+0x10>
    402d:	0f 1f 00             	nopl   (%rax)
    4030:	f3 0f 1e fa          	endbr64 
    4034:	68 00 00 00 00       	push   $0x0
    4039:	f2 e9 e1 ff ff ff    	bnd jmp 4020 <_init+0x20>
    403f:	90                   	nop
    4040:	f3 0f 1e fa          	endbr64 
    4044:	68 01 00 00 00       	push   $0x1
    4049:	f2 e9 d1 ff ff ff    	bnd jmp 4020 <_init+0x20>
    404f:	90                   	nop
    4050:	f3 0f 1e fa          	endbr64 
    4054:	68 02 00 00 00       	push   $0x2
    4059:	f2 e9 c1 ff ff ff    	bnd jmp 4020 <_init+0x20>
    405f:	90                   	nop
    4060:	f3 0f 1e fa          	endbr64 
    4064:	68 03 00 00 00       	push   $0x3
    4069:	f2 e9 b1 ff ff ff    	bnd jmp 4020 <_init+0x20>
    406f:	90                   	nop
    4070:	f3 0f 1e fa          	endbr64 
    4074:	68 04 00 00 00       	push   $0x4
    4079:	f2 e9 a1 ff ff ff    	bnd jmp 4020 <_init+0x20>
    407f:	90                   	nop
    4080:	f3 0f 1e fa          	endbr64 
    4084:	68 05 00 00 00       	push   $0x5
    4089:	f2 e9 91 ff ff ff    	bnd jmp 4020 <_init+0x20>
    408f:	90                   	nop
    4090:	f3 0f 1e fa          	endbr64 
    4094:	68 06 00 00 00       	push   $0x6
    4099:	f2 e9 81 ff ff ff    	bnd jmp 4020 <_init+0x20>
    409f:	90                   	nop

Disassembly of section .plt.got:

00000000000040a0 <__cxa_finalize@plt>:
    40a0:	f3 0f 1e fa          	endbr64 
    40a4:	f2 ff 25 4d 3f 00 00 	bnd jmp *0x3f4d(%rip)        # 7ff8 <__cxa_finalize@GLIBC_2.2.5>
    40ab:	0f 1f 44 00 00       	nopl   0x0(%rax,%rax,1)

Disassembly of section .plt.sec:

00000000000040b0 <puts@plt>:
    40b0:	f3 0f 1e fa          	endbr64 
    40b4:	f2 ff 25 e5 3e 00 00 	bnd jmp *0x3ee5(%rip)        # 7fa0 <puts@GLIBC_2.2.5>
    40bb:	0f 1f 44 00 00       	nopl   0x0(%rax,%rax,1)

00000000000040c0 <__stack_chk_fail@plt>:
    40c0:	f3 0f 1e fa          	endbr64 
    40c4:	f2 ff 25 dd 3e 00 00 	bnd jmp *0x3edd(%rip)        # 7fa8 <__stack_chk_fail@GLIBC_2.4>
    40cb:	0f 1f 44 00 00       	nopl   0x0(%rax,%rax,1)

00000000000040d0 <memset@plt>:
    40d0:	f3 0f 1e fa          	endbr64 
    40d4:	f2 ff 25 d5 3e 00 00 	bnd jmp *0x3ed5(%rip)        # 7fb0 <memset@GLIBC_2.2.5>
    40db:	0f 1f 44 00 00       	nopl   0x0(%rax,%rax,1)

00000000000040e0 <log10@plt>:
    40e0:	f3 0f 1e fa          	endbr64 
    40e4:	f2 ff 25 cd 3e 00 00 	bnd jmp *0x3ecd(%rip)        # 7fb8 <log10@GLIBC_2.2.5>
    40eb:	0f 1f 44 00 00       	nopl   0x0(%rax,%rax,1)

00000000000040f0 <memcpy@plt>:
    40f0:	f3 0f 1e fa          	endbr64 
    40f4:	f2 ff 25 c5 3e 00 00 	bnd jmp *0x3ec5(%rip)        # 7fc0 <memcpy@GLIBC_2.14>
    40fb:	0f 1f 44 00 00       	nopl   0x0(%rax,%rax,1)

0000000000004100 <sqrtf@plt>:
    4100:	f3 0f 1e fa          	endbr64 
    4104:	f2 ff 25 bd 3e 00 00 	bnd jmp *0x3ebd(%rip)        # 7fc8 <sqrtf@GLIBC_2.2.5>
    410b:	0f 1f 44 00 00       	nopl   0x0(%rax,%rax,1)

0000000000004110 <__printf_chk@plt>:
    4110:	f3 0f 1e fa          	endbr64 
    4114:	f2 ff 25 b5 3e 00 00 	bnd jmp *0x3eb5(%rip)        # 7fd0 <__printf_chk@GLIBC_2.3.4>
    411b:	0f 1f 44 00 00       	nopl   0x0(%rax,%rax,1)

Disassembly of section .text:

0000000000004120 <main>:
    4120:	f3 0f 1e fa          	endbr64 
    4124:	55                   	push   %rbp
    4125:	66 0f ef c0          	pxor   %xmm0,%xmm0
    4129:	48 89 e5             	mov    %rsp,%rbp
    412c:	41 57                	push   %r15
    412e:	41 56                	push   %r14
    4130:	41 55                	push   %r13
    4132:	41 54                	push   %r12
    4134:	53                   	push   %rbx
    4135:	48 8d 1d 64 2c 01 00 	lea    0x12c64(%rip),%rbx        # 16da0 <matArray>
    413c:	4c 8d b3 30 02 00 00 	lea    0x230(%rbx),%r14
    4143:	48 83 ec 78          	sub    $0x78,%rsp
    4147:	64 48 8b 04 25 28 00 	mov    %fs:0x28,%rax
    414e:	00 00 
    4150:	48 89 45 c8          	mov    %rax,-0x38(%rbp)
    4154:	31 c0                	xor    %eax,%eax
    4156:	48 c7 45 90 00 00 00 	movq   $0x0,-0x70(%rbp)
    415d:	00 
    415e:	0f 29 85 70 ff ff ff 	movaps %xmm0,-0x90(%rbp)
    4165:	0f 29 45 80          	movaps %xmm0,-0x80(%rbp)
    4169:	0f 1f 80 00 00 00 00 	nopl   0x0(%rax)
    4170:	44 8b 63 08          	mov    0x8(%rbx),%r12d
    4174:	48 89 e1             	mov    %rsp,%rcx
    4177:	49 89 e5             	mov    %rsp,%r13
    417a:	44 89 e0             	mov    %r12d,%eax
    417d:	41 0f af c4          	imul   %r12d,%eax
    4181:	48 98                	cltq   
    4183:	48 8d 04 c5 0f 00 00 	lea    0xf(,%rax,8),%rax
    418a:	00 
    418b:	48 89 c6             	mov    %rax,%rsi
    418e:	48 89 c2             	mov    %rax,%rdx
    4191:	48 81 e6 00 f0 ff ff 	and    $0xfffffffffffff000,%rsi
    4198:	48 83 e2 f0          	and    $0xfffffffffffffff0,%rdx
    419c:	48 29 f1             	sub    %rsi,%rcx
    419f:	48 39 cc             	cmp    %rcx,%rsp
    41a2:	74 15                	je     41b9 <main+0x99>
    41a4:	48 81 ec 00 10 00 00 	sub    $0x1000,%rsp
    41ab:	48 83 8c 24 f8 0f 00 	orq    $0x0,0xff8(%rsp)
    41b2:	00 00 
    41b4:	48 39 cc             	cmp    %rcx,%rsp
    41b7:	75 eb                	jne    41a4 <main+0x84>
    41b9:	81 e2 ff 0f 00 00    	and    $0xfff,%edx
    41bf:	48 29 d4             	sub    %rdx,%rsp
    41c2:	48 85 d2             	test   %rdx,%rdx
    41c5:	74 06                	je     41cd <main+0xad>
    41c7:	48 83 4c 14 f8 00    	orq    $0x0,-0x8(%rsp,%rdx,1)
    41cd:	48 89 c2             	mov    %rax,%rdx
    41d0:	48 89 e1             	mov    %rsp,%rcx
    41d3:	48 25 00 f0 ff ff    	and    $0xfffffffffffff000,%rax
    41d9:	49 89 e7             	mov    %rsp,%r15
    41dc:	48 29 c1             	sub    %rax,%rcx
    41df:	48 83 e2 f0          	and    $0xfffffffffffffff0,%rdx
    41e3:	48 39 cc             	cmp    %rcx,%rsp
    41e6:	74 15                	je     41fd <main+0xdd>
    41e8:	48 81 ec 00 10 00 00 	sub    $0x1000,%rsp
    41ef:	48 83 8c 24 f8 0f 00 	orq    $0x0,0xff8(%rsp)
    41f6:	00 00 
    41f8:	48 39 cc             	cmp    %rcx,%rsp
    41fb:	75 eb                	jne    41e8 <main+0xc8>
    41fd:	81 e2 ff 0f 00 00    	and    $0xfff,%edx
    4203:	48 29 d4             	sub    %rdx,%rsp
    4206:	48 85 d2             	test   %rdx,%rdx
    4209:	74 06                	je     4211 <main+0xf1>
    420b:	48 83 4c 14 f8 00    	orq    $0x0,-0x8(%rsp,%rdx,1)
    4211:	49 63 d4             	movslq %r12d,%rdx
    4214:	4c 8b 0b             	mov    (%rbx),%r9
    4217:	49 89 e0             	mov    %rsp,%r8
    421a:	66 0f ef c9          	pxor   %xmm1,%xmm1
    421e:	48 0f af d2          	imul   %rdx,%rdx
    4222:	4c 89 ff             	mov    %r15,%rdi
    4225:	4c 89 85 68 ff ff ff 	mov    %r8,-0x98(%rbp)
    422c:	4c 89 ce             	mov    %r9,%rsi
    422f:	4c 89 8d 60 ff ff ff 	mov    %r9,-0xa0(%rbp)
    4236:	0f 29 4d a0          	movaps %xmm1,-0x60(%rbp)
    423a:	48 c1 e2 03          	shl    $0x3,%rdx
    423e:	0f 29 4d b0          	movaps %xmm1,-0x50(%rbp)
    4242:	48 c7 45 c0 00 00 00 	movq   $0x0,-0x40(%rbp)
    4249:	00 
    424a:	e8 a1 fe ff ff       	call   40f0 <memcpy@plt>
    424f:	48 8b b5 68 ff ff ff 	mov    -0x98(%rbp),%rsi
    4256:	48 8b bd 60 ff ff ff 	mov    -0xa0(%rbp),%rdi
    425d:	44 89 e2             	mov    %r12d,%edx
    4260:	e8 9b 0a 00 00       	call   4d00 <riscv_dsp_mat_inv_f64>
    4265:	3b 43 0c             	cmp    0xc(%rbx),%eax
    4268:	4c 8b 85 68 ff ff ff 	mov    -0x98(%rbp),%r8
    426f:	66 0f ef c0          	pxor   %xmm0,%xmm0
    4273:	0f 85 1f 01 00 00    	jne    4398 <main+0x278>
    4279:	85 c0                	test   %eax,%eax
    427b:	0f 84 e7 00 00 00    	je     4368 <main+0x248>
    4281:	66 0f 28 c8          	movapd %xmm0,%xmm1
    4285:	66 0f 28 d0          	movapd %xmm0,%xmm2
    4289:	66 0f 28 d8          	movapd %xmm0,%xmm3
    428d:	66 0f 28 e0          	movapd %xmm0,%xmm4
    4291:	66 0f 28 e8          	movapd %xmm0,%xmm5
    4295:	66 0f 2f ad 70 ff ff 	comisd -0x90(%rbp),%xmm5
    429c:	ff 
    429d:	76 08                	jbe    42a7 <main+0x187>
    429f:	f2 0f 11 ad 70 ff ff 	movsd  %xmm5,-0x90(%rbp)
    42a6:	ff 
    42a7:	66 0f 2f a5 78 ff ff 	comisd -0x88(%rbp),%xmm4
    42ae:	ff 
    42af:	76 08                	jbe    42b9 <main+0x199>
    42b1:	f2 0f 11 a5 78 ff ff 	movsd  %xmm4,-0x88(%rbp)
    42b8:	ff 
    42b9:	66 0f 2f 5d 80       	comisd -0x80(%rbp),%xmm3
    42be:	76 05                	jbe    42c5 <main+0x1a5>
    42c0:	f2 0f 11 5d 80       	movsd  %xmm3,-0x80(%rbp)
    42c5:	66 0f 2f 55 88       	comisd -0x78(%rbp),%xmm2
    42ca:	76 05                	jbe    42d1 <main+0x1b1>
    42cc:	f2 0f 11 55 88       	movsd  %xmm2,-0x78(%rbp)
    42d1:	66 0f 2f 4d 90       	comisd -0x70(%rbp),%xmm1
    42d6:	76 78                	jbe    4350 <main+0x230>
    42d8:	48 83 c3 10          	add    $0x10,%rbx
    42dc:	f2 0f 11 4d 90       	movsd  %xmm1,-0x70(%rbp)
    42e1:	4c 89 ec             	mov    %r13,%rsp
    42e4:	4c 39 f3             	cmp    %r14,%rbx
    42e7:	0f 85 83 fe ff ff    	jne    4170 <main+0x50>
    42ed:	48 8d 1d ac 0a 01 00 	lea    0x10aac(%rip),%rbx        # 14da0 <matArray2>
    42f4:	4c 8d ad 70 ff ff ff 	lea    -0x90(%rbp),%r13
    42fb:	4c 8d b3 00 20 00 00 	lea    0x2000(%rbx),%r14
    4302:	eb 11                	jmp    4315 <main+0x1f5>
    4304:	0f 1f 40 00          	nopl   0x0(%rax)
    4308:	48 83 c3 10          	add    $0x10,%rbx
    430c:	4c 39 f3             	cmp    %r14,%rbx
    430f:	0f 84 8c 00 00 00    	je     43a1 <main+0x281>
    4315:	4c 89 ee             	mov    %r13,%rsi
    4318:	48 89 df             	mov    %rbx,%rdi
    431b:	e8 e0 07 00 00       	call   4b00 <DoMatInv>
    4320:	41 89 c4             	mov    %eax,%r12d
    4323:	85 c0                	test   %eax,%eax
    4325:	74 e1                	je     4308 <main+0x1e8>
    4327:	41 83 cc ff          	or     $0xffffffff,%r12d
    432b:	48 8b 45 c8          	mov    -0x38(%rbp),%rax
    432f:	64 48 2b 04 25 28 00 	sub    %fs:0x28,%rax
    4336:	00 00 
    4338:	0f 85 9d 00 00 00    	jne    43db <main+0x2bb>
    433e:	48 8d 65 d8          	lea    -0x28(%rbp),%rsp
    4342:	44 89 e0             	mov    %r12d,%eax
    4345:	5b                   	pop    %rbx
    4346:	41 5c                	pop    %r12
    4348:	41 5d                	pop    %r13
    434a:	41 5e                	pop    %r14
    434c:	41 5f                	pop    %r15
    434e:	5d                   	pop    %rbp
    434f:	c3                   	ret    
    4350:	48 83 c3 10          	add    $0x10,%rbx
    4354:	4c 89 ec             	mov    %r13,%rsp
    4357:	4c 39 f3             	cmp    %r14,%rbx
    435a:	0f 85 10 fe ff ff    	jne    4170 <main+0x50>
    4360:	eb 8b                	jmp    42ed <main+0x1cd>
    4362:	66 0f 1f 44 00 00    	nopw   0x0(%rax,%rax,1)
    4368:	48 8d 4d a0          	lea    -0x60(%rbp),%rcx
    436c:	44 89 e2             	mov    %r12d,%edx
    436f:	4c 89 c6             	mov    %r8,%rsi
    4372:	4c 89 ff             	mov    %r15,%rdi
    4375:	e8 36 05 00 00       	call   48b0 <CheckInv>
    437a:	f2 0f 10 6d a0       	movsd  -0x60(%rbp),%xmm5
    437f:	f2 0f 10 65 a8       	movsd  -0x58(%rbp),%xmm4
    4384:	f2 0f 10 5d b0       	movsd  -0x50(%rbp),%xmm3
    4389:	f2 0f 10 55 b8       	movsd  -0x48(%rbp),%xmm2
    438e:	f2 0f 10 4d c0       	movsd  -0x40(%rbp),%xmm1
    4393:	e9 fd fe ff ff       	jmp    4295 <main+0x175>
    4398:	41 83 cc ff          	or     $0xffffffff,%r12d
    439c:	4c 89 ec             	mov    %r13,%rsp
    439f:	eb 8a                	jmp    432b <main+0x20b>
    43a1:	f2 0f 10 65 90       	movsd  -0x70(%rbp),%xmm4
    43a6:	f2 0f 10 5d 88       	movsd  -0x78(%rbp),%xmm3
    43ab:	48 8d 35 6e 1c 00 00 	lea    0x1c6e(%rip),%rsi        # 6020 <_IO_stdin_used+0x20>
    43b2:	bf 01 00 00 00       	mov    $0x1,%edi
    43b7:	f2 0f 10 55 80       	movsd  -0x80(%rbp),%xmm2
    43bc:	f2 0f 10 8d 78 ff ff 	movsd  -0x88(%rbp),%xmm1
    43c3:	ff 
    43c4:	b8 05 00 00 00       	mov    $0x5,%eax
    43c9:	f2 0f 10 85 70 ff ff 	movsd  -0x90(%rbp),%xmm0
    43d0:	ff 
    43d1:	e8 3a fd ff ff       	call   4110 <__printf_chk@plt>
    43d6:	e9 50 ff ff ff       	jmp    432b <main+0x20b>
    43db:	e8 e0 fc ff ff       	call   40c0 <__stack_chk_fail@plt>

00000000000043e0 <_start>:
    43e0:	f3 0f 1e fa          	endbr64 
    43e4:	31 ed                	xor    %ebp,%ebp
    43e6:	49 89 d1             	mov    %rdx,%r9
    43e9:	5e                   	pop    %rsi
    43ea:	48 89 e2             	mov    %rsp,%rdx
    43ed:	48 83 e4 f0          	and    $0xfffffffffffffff0,%rsp
    43f1:	50                   	push   %rax
    43f2:	54                   	push   %rsp
    43f3:	45 31 c0             	xor    %r8d,%r8d
    43f6:	31 c9                	xor    %ecx,%ecx
    43f8:	48 8d 3d 21 fd ff ff 	lea    -0x2df(%rip),%rdi        # 4120 <main>
    43ff:	ff 15 d3 3b 00 00    	call   *0x3bd3(%rip)        # 7fd8 <__libc_start_main@GLIBC_2.34>
    4405:	f4                   	hlt    
    4406:	66 2e 0f 1f 84 00 00 	cs nopw 0x0(%rax,%rax,1)
    440d:	00 00 00 

0000000000004410 <deregister_tm_clones>:
    4410:	48 8d 3d b9 2b 01 00 	lea    0x12bb9(%rip),%rdi        # 16fd0 <__TMC_END__>
    4417:	48 8d 05 b2 2b 01 00 	lea    0x12bb2(%rip),%rax        # 16fd0 <__TMC_END__>
    441e:	48 39 f8             	cmp    %rdi,%rax
    4421:	74 15                	je     4438 <deregister_tm_clones+0x28>
    4423:	48 8b 05 b6 3b 00 00 	mov    0x3bb6(%rip),%rax        # 7fe0 <_ITM_deregisterTMCloneTable@Base>
    442a:	48 85 c0             	test   %rax,%rax
    442d:	74 09                	je     4438 <deregister_tm_clones+0x28>
    442f:	ff e0                	jmp    *%rax
    4431:	0f 1f 80 00 00 00 00 	nopl   0x0(%rax)
    4438:	c3                   	ret    
    4439:	0f 1f 80 00 00 00 00 	nopl   0x0(%rax)

0000000000004440 <register_tm_clones>:
    4440:	48 8d 3d 89 2b 01 00 	lea    0x12b89(%rip),%rdi        # 16fd0 <__TMC_END__>
    4447:	48 8d 35 82 2b 01 00 	lea    0x12b82(%rip),%rsi        # 16fd0 <__TMC_END__>
    444e:	48 29 fe             	sub    %rdi,%rsi
    4451:	48 89 f0             	mov    %rsi,%rax
    4454:	48 c1 ee 3f          	shr    $0x3f,%rsi
    4458:	48 c1 f8 03          	sar    $0x3,%rax
    445c:	48 01 c6             	add    %rax,%rsi
    445f:	48 d1 fe             	sar    %rsi
    4462:	74 14                	je     4478 <register_tm_clones+0x38>
    4464:	48 8b 05 85 3b 00 00 	mov    0x3b85(%rip),%rax        # 7ff0 <_ITM_registerTMCloneTable@Base>
    446b:	48 85 c0             	test   %rax,%rax
    446e:	74 08                	je     4478 <register_tm_clones+0x38>
    4470:	ff e0                	jmp    *%rax
    4472:	66 0f 1f 44 00 00    	nopw   0x0(%rax,%rax,1)
    4478:	c3                   	ret    
    4479:	0f 1f 80 00 00 00 00 	nopl   0x0(%rax)

0000000000004480 <__do_global_dtors_aux>:
    4480:	f3 0f 1e fa          	endbr64 
    4484:	80 3d 55 2b 01 00 00 	cmpb   $0x0,0x12b55(%rip)        # 16fe0 <completed.0>
    448b:	75 2b                	jne    44b8 <__do_global_dtors_aux+0x38>
    448d:	55                   	push   %rbp
    448e:	48 83 3d 62 3b 00 00 	cmpq   $0x0,0x3b62(%rip)        # 7ff8 <__cxa_finalize@GLIBC_2.2.5>
    4495:	00 
    4496:	48 89 e5             	mov    %rsp,%rbp
    4499:	74 0c                	je     44a7 <__do_global_dtors_aux+0x27>
    449b:	48 8b 3d 66 3b 00 00 	mov    0x3b66(%rip),%rdi        # 8008 <__dso_handle>
    44a2:	e8 f9 fb ff ff       	call   40a0 <__cxa_finalize@plt>
    44a7:	e8 64 ff ff ff       	call   4410 <deregister_tm_clones>
    44ac:	c6 05 2d 2b 01 00 01 	movb   $0x1,0x12b2d(%rip)        # 16fe0 <completed.0>
    44b3:	5d                   	pop    %rbp
    44b4:	c3                   	ret    
    44b5:	0f 1f 00             	nopl   (%rax)
    44b8:	c3                   	ret    
    44b9:	0f 1f 80 00 00 00 00 	nopl   0x0(%rax)

00000000000044c0 <frame_dummy>:
    44c0:	f3 0f 1e fa          	endbr64 
    44c4:	e9 77 ff ff ff       	jmp    4440 <register_tm_clones>
    44c9:	0f 1f 80 00 00 00 00 	nopl   0x0(%rax)

00000000000044d0 <mat_rmsd>:
    44d0:	f3 0f 1e fa          	endbr64 
    44d4:	53                   	push   %rbx
    44d5:	48 89 cb             	mov    %rcx,%rbx
    44d8:	48 83 ec 50          	sub    $0x50,%rsp
    44dc:	85 d2                	test   %edx,%edx
    44de:	0f 84 fc 01 00 00    	je     46e0 <mat_rmsd+0x210>
    44e4:	66 45 0f ef c0       	pxor   %xmm8,%xmm8
    44e9:	89 d2                	mov    %edx,%edx
    44eb:	31 c0                	xor    %eax,%eax
    44ed:	66 41 0f 28 f0       	movapd %xmm8,%xmm6
    44f2:	66 41 0f 28 e0       	movapd %xmm8,%xmm4
    44f7:	66 41 0f 28 f8       	movapd %xmm8,%xmm7
    44fc:	66 41 0f 28 d8       	movapd %xmm8,%xmm3
    4501:	66 45 0f 28 d0       	movapd %xmm8,%xmm10
    4506:	66 41 0f 28 e8       	movapd %xmm8,%xmm5
    450b:	f3 44 0f 10 0d 7c 1b 	movss  0x1b7c(%rip),%xmm9        # 6090 <_IO_stdin_used+0x90>
    4512:	00 00 
    4514:	0f 1f 40 00          	nopl   0x0(%rax)
    4518:	66 0f ef c0          	pxor   %xmm0,%xmm0
    451c:	66 0f ef c9          	pxor   %xmm1,%xmm1
    4520:	66 0f ef d2          	pxor   %xmm2,%xmm2
    4524:	f2 0f 5a 0c c7       	cvtsd2ss (%rdi,%rax,8),%xmm1
    4529:	f2 0f 5a 04 c6       	cvtsd2ss (%rsi,%rax,8),%xmm0
    452e:	f3 0f 5c c1          	subss  %xmm1,%xmm0
    4532:	f3 0f 5a d1          	cvtss2sd %xmm1,%xmm2
    4536:	f3 0f 59 c9          	mulss  %xmm1,%xmm1
    453a:	66 44 0f 28 da       	movapd %xmm2,%xmm11
    453f:	f2 0f 5d d6          	minsd  %xmm6,%xmm2
    4543:	48 83 c0 01          	add    $0x1,%rax
    4547:	f2 44 0f 5f dc       	maxsd  %xmm4,%xmm11
    454c:	41 0f 54 c1          	andps  %xmm9,%xmm0
    4550:	f3 0f 5a c0          	cvtss2sd %xmm0,%xmm0
    4554:	66 0f 28 f2          	movapd %xmm2,%xmm6
    4558:	f2 44 0f 58 d0       	addsd  %xmm0,%xmm10
    455d:	66 0f 28 d0          	movapd %xmm0,%xmm2
    4561:	f2 0f 59 c0          	mulsd  %xmm0,%xmm0
    4565:	f2 0f 5f d3          	maxsd  %xmm3,%xmm2
    4569:	66 41 0f 28 e3       	movapd %xmm11,%xmm4
    456e:	f3 0f 5a c9          	cvtss2sd %xmm1,%xmm1
    4572:	f2 0f 58 f9          	addsd  %xmm1,%xmm7
    4576:	66 0f 28 da          	movapd %xmm2,%xmm3
    457a:	f2 0f 58 e8          	addsd  %xmm0,%xmm5
    457e:	48 39 d0             	cmp    %rdx,%rax
    4581:	75 95                	jne    4518 <mat_rmsd+0x48>
    4583:	66 0f ef c0          	pxor   %xmm0,%xmm0
    4587:	66 0f 28 cd          	movapd %xmm5,%xmm1
    458b:	f2 48 0f 2a c2       	cvtsi2sd %rdx,%xmm0
    4590:	f2 0f 5e c8          	divsd  %xmm0,%xmm1
    4594:	f2 44 0f 5e d0       	divsd  %xmm0,%xmm10
    4599:	66 0f ef c0          	pxor   %xmm0,%xmm0
    459d:	f2 0f 5a c9          	cvtsd2ss %xmm1,%xmm1
    45a1:	0f 2e c1             	ucomiss %xmm1,%xmm0
    45a4:	0f 87 60 01 00 00    	ja     470a <mat_rmsd+0x23a>
    45aa:	f3 0f 51 c9          	sqrtss %xmm1,%xmm1
    45ae:	f2 0f 5c e6          	subsd  %xmm6,%xmm4
    45b2:	f3 0f 5a c9          	cvtss2sd %xmm1,%xmm1
    45b6:	66 0f 28 d1          	movapd %xmm1,%xmm2
    45ba:	66 45 0f 28 ca       	movapd %xmm10,%xmm9
    45bf:	66 41 0f 2e e8       	ucomisd %xmm8,%xmm5
    45c4:	66 44 0f 14 c9       	unpcklpd %xmm1,%xmm9
    45c9:	f2 0f 5e d4          	divsd  %xmm4,%xmm2
    45cd:	66 0f 28 f2          	movapd %xmm2,%xmm6
    45d1:	66 0f 14 f3          	unpcklpd %xmm3,%xmm6
    45d5:	7a 29                	jp     4600 <mat_rmsd+0x130>
    45d7:	f2 0f 10 25 99 1a 00 	movsd  0x1a99(%rip),%xmm4        # 6078 <_IO_stdin_used+0x78>
    45de:	00 
    45df:	75 1f                	jne    4600 <mat_rmsd+0x130>
    45e1:	48 85 db             	test   %rbx,%rbx
    45e4:	0f 84 82 00 00 00    	je     466c <mat_rmsd+0x19c>
    45ea:	44 0f 11 0b          	movups %xmm9,(%rbx)
    45ee:	0f 11 73 10          	movups %xmm6,0x10(%rbx)
    45f2:	f2 0f 11 63 20       	movsd  %xmm4,0x20(%rbx)
    45f7:	48 83 c4 50          	add    $0x50,%rsp
    45fb:	5b                   	pop    %rbx
    45fc:	c3                   	ret    
    45fd:	0f 1f 00             	nopl   (%rax)
    4600:	f2 0f 5e fd          	divsd  %xmm5,%xmm7
    4604:	0f 29 74 24 30       	movaps %xmm6,0x30(%rsp)
    4609:	44 0f 29 4c 24 20    	movaps %xmm9,0x20(%rsp)
    460f:	f2 0f 11 54 24 40    	movsd  %xmm2,0x40(%rsp)
    4615:	f2 0f 11 4c 24 18    	movsd  %xmm1,0x18(%rsp)
    461b:	f2 44 0f 11 54 24 10 	movsd  %xmm10,0x10(%rsp)
    4622:	f2 0f 11 5c 24 08    	movsd  %xmm3,0x8(%rsp)
    4628:	66 0f 28 c7          	movapd %xmm7,%xmm0
    462c:	e8 af fa ff ff       	call   40e0 <log10@plt>
    4631:	f2 0f 10 25 47 1a 00 	movsd  0x1a47(%rip),%xmm4        # 6080 <_IO_stdin_used+0x80>
    4638:	00 
    4639:	66 0f 28 74 24 30    	movapd 0x30(%rsp),%xmm6
    463f:	66 44 0f 28 4c 24 20 	movapd 0x20(%rsp),%xmm9
    4646:	f2 0f 10 54 24 40    	movsd  0x40(%rsp),%xmm2
    464c:	f2 0f 59 e0          	mulsd  %xmm0,%xmm4
    4650:	f2 0f 10 4c 24 18    	movsd  0x18(%rsp),%xmm1
    4656:	f2 44 0f 10 54 24 10 	movsd  0x10(%rsp),%xmm10
    465d:	f2 0f 10 5c 24 08    	movsd  0x8(%rsp),%xmm3
    4663:	48 85 db             	test   %rbx,%rbx
    4666:	0f 85 7e ff ff ff    	jne    45ea <mat_rmsd+0x11a>
    466c:	48 8d 3d 91 19 00 00 	lea    0x1991(%rip),%rdi        # 6004 <_IO_stdin_used+0x4>
    4673:	f2 0f 11 54 24 20    	movsd  %xmm2,0x20(%rsp)
    4679:	f2 0f 11 4c 24 40    	movsd  %xmm1,0x40(%rsp)
    467f:	f2 44 0f 11 54 24 18 	movsd  %xmm10,0x18(%rsp)
    4686:	f2 0f 11 64 24 10    	movsd  %xmm4,0x10(%rsp)
    468c:	f2 0f 11 5c 24 08    	movsd  %xmm3,0x8(%rsp)
    4692:	e8 19 fa ff ff       	call   40b0 <puts@plt>
    4697:	f2 0f 10 64 24 10    	movsd  0x10(%rsp),%xmm4
    469d:	bf 01 00 00 00       	mov    $0x1,%edi
    46a2:	f2 44 0f 10 54 24 18 	movsd  0x18(%rsp),%xmm10
    46a9:	f2 0f 10 5c 24 08    	movsd  0x8(%rsp),%xmm3
    46af:	f2 0f 10 54 24 20    	movsd  0x20(%rsp),%xmm2
    46b5:	48 8d 35 64 19 00 00 	lea    0x1964(%rip),%rsi        # 6020 <_IO_stdin_used+0x20>
    46bc:	b8 05 00 00 00       	mov    $0x5,%eax
    46c1:	f2 0f 10 4c 24 40    	movsd  0x40(%rsp),%xmm1
    46c7:	48 83 c4 50          	add    $0x50,%rsp
    46cb:	66 41 0f 28 c2       	movapd %xmm10,%xmm0
    46d0:	5b                   	pop    %rbx
    46d1:	e9 3a fa ff ff       	jmp    4110 <__printf_chk@plt>
    46d6:	66 2e 0f 1f 84 00 00 	cs nopw 0x0(%rax,%rax,1)
    46dd:	00 00 00 
    46e0:	66 45 0f ef c0       	pxor   %xmm8,%xmm8
    46e5:	31 d2                	xor    %edx,%edx
    46e7:	66 41 0f 28 f0       	movapd %xmm8,%xmm6
    46ec:	66 41 0f 28 e0       	movapd %xmm8,%xmm4
    46f1:	66 41 0f 28 f8       	movapd %xmm8,%xmm7
    46f6:	66 41 0f 28 d8       	movapd %xmm8,%xmm3
    46fb:	66 45 0f 28 d0       	movapd %xmm8,%xmm10
    4700:	66 41 0f 28 e8       	movapd %xmm8,%xmm5
    4705:	e9 79 fe ff ff       	jmp    4583 <mat_rmsd+0xb3>
    470a:	0f 28 c1             	movaps %xmm1,%xmm0
    470d:	f2 44 0f 11 44 24 48 	movsd  %xmm8,0x48(%rsp)
    4714:	f2 0f 11 7c 24 30    	movsd  %xmm7,0x30(%rsp)
    471a:	f2 44 0f 11 54 24 20 	movsd  %xmm10,0x20(%rsp)
    4721:	f2 0f 11 64 24 40    	movsd  %xmm4,0x40(%rsp)
    4727:	f2 0f 11 74 24 18    	movsd  %xmm6,0x18(%rsp)
    472d:	f2 0f 11 5c 24 10    	movsd  %xmm3,0x10(%rsp)
    4733:	f2 0f 11 6c 24 08    	movsd  %xmm5,0x8(%rsp)
    4739:	e8 c2 f9 ff ff       	call   4100 <sqrtf@plt>
    473e:	f2 44 0f 10 44 24 48 	movsd  0x48(%rsp),%xmm8
    4745:	f2 0f 10 7c 24 30    	movsd  0x30(%rsp),%xmm7
    474b:	f2 44 0f 10 54 24 20 	movsd  0x20(%rsp),%xmm10
    4752:	f2 0f 10 64 24 40    	movsd  0x40(%rsp),%xmm4
    4758:	0f 28 c8             	movaps %xmm0,%xmm1
    475b:	f2 0f 10 74 24 18    	movsd  0x18(%rsp),%xmm6
    4761:	f2 0f 10 5c 24 10    	movsd  0x10(%rsp),%xmm3
    4767:	f2 0f 10 6c 24 08    	movsd  0x8(%rsp),%xmm5
    476d:	e9 3c fe ff ff       	jmp    45ae <mat_rmsd+0xde>
    4772:	66 66 2e 0f 1f 84 00 	data16 cs nopw 0x0(%rax,%rax,1)
    4779:	00 00 00 00 
    477d:	0f 1f 00             	nopl   (%rax)

0000000000004780 <printMat>:
    4780:	f3 0f 1e fa          	endbr64 
    4784:	c3                   	ret    
    4785:	66 66 2e 0f 1f 84 00 	data16 cs nopw 0x0(%rax,%rax,1)
    478c:	00 00 00 00 

0000000000004790 <riscv_dsp_mat_mul_f64>:
    4790:	f3 0f 1e fa          	endbr64 
    4794:	41 57                	push   %r15
    4796:	49 89 d3             	mov    %rdx,%r11
    4799:	44 89 c2             	mov    %r8d,%edx
    479c:	48 89 f8             	mov    %rdi,%rax
    479f:	41 56                	push   %r14
    47a1:	49 89 f2             	mov    %rsi,%r10
    47a4:	83 ea 01             	sub    $0x1,%edx
    47a7:	41 55                	push   %r13
    47a9:	41 54                	push   %r12
    47ab:	55                   	push   %rbp
    47ac:	53                   	push   %rbx
    47ad:	89 cb                	mov    %ecx,%ebx
    47af:	44 89 c9             	mov    %r9d,%ecx
    47b2:	49 89 cc             	mov    %rcx,%r12
    47b5:	48 c1 e1 03          	shl    $0x3,%rcx
    47b9:	41 83 fc 01          	cmp    $0x1,%r12d
    47bd:	75 64                	jne    4823 <riscv_dsp_mat_mul_f64+0x93>
    47bf:	48 8d 2c d5 08 00 00 	lea    0x8(,%rdx,8),%rbp
    47c6:	00 
    47c7:	66 0f ef d2          	pxor   %xmm2,%xmm2
    47cb:	4c 8d 04 2f          	lea    (%rdi,%rbp,1),%r8
    47cf:	31 ff                	xor    %edi,%edi
    47d1:	4c 89 c6             	mov    %r8,%rsi
    47d4:	0f 1f 40 00          	nopl   0x0(%rax)
    47d8:	89 fa                	mov    %edi,%edx
    47da:	66 0f 28 ca          	movapd %xmm2,%xmm1
    47de:	4d 8d 0c d3          	lea    (%r11,%rdx,8),%r9
    47e2:	4c 89 d2             	mov    %r10,%rdx
    47e5:	0f 1f 00             	nopl   (%rax)
    47e8:	48 83 c0 08          	add    $0x8,%rax
    47ec:	f2 0f 10 02          	movsd  (%rdx),%xmm0
    47f0:	48 01 ca             	add    %rcx,%rdx
    47f3:	f2 0f 59 40 f8       	mulsd  -0x8(%rax),%xmm0
    47f8:	f2 0f 58 c8          	addsd  %xmm0,%xmm1
    47fc:	48 39 f0             	cmp    %rsi,%rax
    47ff:	75 e7                	jne    47e8 <riscv_dsp_mat_mul_f64+0x58>
    4801:	83 c7 01             	add    $0x1,%edi
    4804:	f2 41 0f 11 09       	movsd  %xmm1,(%r9)
    4809:	4c 89 c0             	mov    %r8,%rax
    480c:	48 01 ee             	add    %rbp,%rsi
    480f:	39 fb                	cmp    %edi,%ebx
    4811:	74 05                	je     4818 <riscv_dsp_mat_mul_f64+0x88>
    4813:	49 01 e8             	add    %rbp,%r8
    4816:	eb c0                	jmp    47d8 <riscv_dsp_mat_mul_f64+0x48>
    4818:	5b                   	pop    %rbx
    4819:	5d                   	pop    %rbp
    481a:	41 5c                	pop    %r12
    481c:	41 5d                	pop    %r13
    481e:	41 5e                	pop    %r14
    4820:	41 5f                	pop    %r15
    4822:	c3                   	ret    
    4823:	4c 8d 3c d5 08 00 00 	lea    0x8(,%rdx,8),%r15
    482a:	00 
    482b:	45 31 f6             	xor    %r14d,%r14d
    482e:	66 0f ef d2          	pxor   %xmm2,%xmm2
    4832:	4e 8d 2c 3f          	lea    (%rdi,%r15,1),%r13
    4836:	41 8d 6c 24 ff       	lea    -0x1(%r12),%ebp
    483b:	4c 89 ef             	mov    %r13,%rdi
    483e:	44 89 f2             	mov    %r14d,%edx
    4841:	4c 89 d6             	mov    %r10,%rsi
    4844:	45 31 c0             	xor    %r8d,%r8d
    4847:	4d 8d 0c d3          	lea    (%r11,%rdx,8),%r9
    484b:	0f 1f 44 00 00       	nopl   0x0(%rax,%rax,1)
    4850:	48 89 c2             	mov    %rax,%rdx
    4853:	66 0f 28 ca          	movapd %xmm2,%xmm1
    4857:	66 0f 1f 84 00 00 00 	nopw   0x0(%rax,%rax,1)
    485e:	00 00 
    4860:	f2 0f 10 02          	movsd  (%rdx),%xmm0
    4864:	f2 0f 59 06          	mulsd  (%rsi),%xmm0
    4868:	48 83 c2 08          	add    $0x8,%rdx
    486c:	48 01 ce             	add    %rcx,%rsi
    486f:	f2 0f 58 c8          	addsd  %xmm0,%xmm1
    4873:	48 39 fa             	cmp    %rdi,%rdx
    4876:	75 e8                	jne    4860 <riscv_dsp_mat_mul_f64+0xd0>
    4878:	41 8d 50 01          	lea    0x1(%r8),%edx
    487c:	f2 43 0f 11 0c c1    	movsd  %xmm1,(%r9,%r8,8)
    4882:	49 8d 34 d2          	lea    (%r10,%rdx,8),%rsi
    4886:	49 8d 50 01          	lea    0x1(%r8),%rdx
    488a:	49 39 e8             	cmp    %rbp,%r8
    488d:	74 05                	je     4894 <riscv_dsp_mat_mul_f64+0x104>
    488f:	49 89 d0             	mov    %rdx,%r8
    4892:	eb bc                	jmp    4850 <riscv_dsp_mat_mul_f64+0xc0>
    4894:	4c 89 e8             	mov    %r13,%rax
    4897:	45 01 e6             	add    %r12d,%r14d
    489a:	4c 01 ff             	add    %r15,%rdi
    489d:	83 eb 01             	sub    $0x1,%ebx
    48a0:	0f 84 72 ff ff ff    	je     4818 <riscv_dsp_mat_mul_f64+0x88>
    48a6:	4d 01 fd             	add    %r15,%r13
    48a9:	eb 93                	jmp    483e <riscv_dsp_mat_mul_f64+0xae>
    48ab:	0f 1f 44 00 00       	nopl   0x0(%rax,%rax,1)

00000000000048b0 <CheckInv>:
    48b0:	f3 0f 1e fa          	endbr64 
    48b4:	55                   	push   %rbp
    48b5:	48 89 f0             	mov    %rsi,%rax
    48b8:	48 89 e5             	mov    %rsp,%rbp
    48bb:	41 57                	push   %r15
    48bd:	41 56                	push   %r14
    48bf:	41 55                	push   %r13
    48c1:	41 54                	push   %r12
    48c3:	53                   	push   %rbx
    48c4:	89 d3                	mov    %edx,%ebx
    48c6:	89 de                	mov    %ebx,%esi
    48c8:	0f af f3             	imul   %ebx,%esi
    48cb:	48 83 ec 38          	sub    $0x38,%rsp
    48cf:	48 89 4d a8          	mov    %rcx,-0x58(%rbp)
    48d3:	41 89 f5             	mov    %esi,%r13d
    48d6:	64 48 8b 14 25 28 00 	mov    %fs:0x28,%rdx
    48dd:	00 00 
    48df:	48 89 55 c8          	mov    %rdx,-0x38(%rbp)
    48e3:	31 d2                	xor    %edx,%edx
    48e5:	4a 8d 0c ed 0f 00 00 	lea    0xf(,%r13,8),%rcx
    48ec:	00 
    48ed:	89 75 b4             	mov    %esi,-0x4c(%rbp)
    48f0:	48 89 e6             	mov    %rsp,%rsi
    48f3:	48 89 ca             	mov    %rcx,%rdx
    48f6:	48 c1 ea 04          	shr    $0x4,%rdx
    48fa:	48 c1 e2 04          	shl    $0x4,%rdx
    48fe:	49 89 d0             	mov    %rdx,%r8
    4901:	49 81 e0 00 f0 ff ff 	and    $0xfffffffffffff000,%r8
    4908:	4c 29 c6             	sub    %r8,%rsi
    490b:	48 39 f4             	cmp    %rsi,%rsp
    490e:	74 15                	je     4925 <CheckInv+0x75>
    4910:	48 81 ec 00 10 00 00 	sub    $0x1000,%rsp
    4917:	48 83 8c 24 f8 0f 00 	orq    $0x0,0xff8(%rsp)
    491e:	00 00 
    4920:	48 39 f4             	cmp    %rsi,%rsp
    4923:	75 eb                	jne    4910 <CheckInv+0x60>
    4925:	81 e2 ff 0f 00 00    	and    $0xfff,%edx
    492b:	48 29 d4             	sub    %rdx,%rsp
    492e:	48 85 d2             	test   %rdx,%rdx
    4931:	0f 85 e5 00 00 00    	jne    4a1c <CheckInv+0x16c>
    4937:	48 c1 e9 04          	shr    $0x4,%rcx
    493b:	48 8d 74 24 07       	lea    0x7(%rsp),%rsi
    4940:	48 c1 e1 04          	shl    $0x4,%rcx
    4944:	48 89 f2             	mov    %rsi,%rdx
    4947:	48 83 e6 f8          	and    $0xfffffffffffffff8,%rsi
    494b:	49 89 c8             	mov    %rcx,%r8
    494e:	48 89 75 b8          	mov    %rsi,-0x48(%rbp)
    4952:	48 89 e6             	mov    %rsp,%rsi
    4955:	48 c1 ea 03          	shr    $0x3,%rdx
    4959:	49 81 e0 00 f0 ff ff 	and    $0xfffffffffffff000,%r8
    4960:	4c 29 c6             	sub    %r8,%rsi
    4963:	48 39 f4             	cmp    %rsi,%rsp
    4966:	74 15                	je     497d <CheckInv+0xcd>
    4968:	48 81 ec 00 10 00 00 	sub    $0x1000,%rsp
    496f:	48 83 8c 24 f8 0f 00 	orq    $0x0,0xff8(%rsp)
    4976:	00 00 
    4978:	48 39 f4             	cmp    %rsi,%rsp
    497b:	75 eb                	jne    4968 <CheckInv+0xb8>
    497d:	81 e1 ff 0f 00 00    	and    $0xfff,%ecx
    4983:	48 29 cc             	sub    %rcx,%rsp
    4986:	48 85 c9             	test   %rcx,%rcx
    4989:	0f 85 61 01 00 00    	jne    4af0 <CheckInv+0x240>
    498f:	41 89 d8             	mov    %ebx,%r8d
    4992:	49 89 e4             	mov    %rsp,%r12
    4995:	49 c1 e0 03          	shl    $0x3,%r8
    4999:	83 fb 01             	cmp    $0x1,%ebx
    499c:	0f 85 a1 00 00 00    	jne    4a43 <CheckInv+0x193>
    49a2:	f2 0f 10 00          	movsd  (%rax),%xmm0
    49a6:	f2 0f 59 07          	mulsd  (%rdi),%xmm0
    49aa:	f2 0f 58 05 e6 16 00 	addsd  0x16e6(%rip),%xmm0        # 6098 <_IO_stdin_used+0x98>
    49b1:	00 
    49b2:	f2 0f 11 04 d5 00 00 	movsd  %xmm0,0x0(,%rdx,8)
    49b9:	00 00 
    49bb:	f2 0f 10 05 c5 16 00 	movsd  0x16c5(%rip),%xmm0        # 6088 <_IO_stdin_used+0x88>
    49c2:	00 
    49c3:	31 c0                	xor    %eax,%eax
    49c5:	31 d2                	xor    %edx,%edx
    49c7:	83 c3 01             	add    $0x1,%ebx
    49ca:	66 0f 1f 44 00 00    	nopw   0x0(%rax,%rax,1)
    49d0:	39 c2                	cmp    %eax,%edx
    49d2:	74 5c                	je     4a30 <CheckInv+0x180>
    49d4:	49 c7 04 c4 00 00 00 	movq   $0x0,(%r12,%rax,8)
    49db:	00 
    49dc:	48 83 c0 01          	add    $0x1,%rax
    49e0:	4c 39 e8             	cmp    %r13,%rax
    49e3:	75 eb                	jne    49d0 <CheckInv+0x120>
    49e5:	48 8b 4d a8          	mov    -0x58(%rbp),%rcx
    49e9:	8b 55 b4             	mov    -0x4c(%rbp),%edx
    49ec:	4c 89 e7             	mov    %r12,%rdi
    49ef:	48 8b 75 b8          	mov    -0x48(%rbp),%rsi
    49f3:	e8 d8 fa ff ff       	call   44d0 <mat_rmsd>
    49f8:	48 8b 45 c8          	mov    -0x38(%rbp),%rax
    49fc:	64 48 2b 04 25 28 00 	sub    %fs:0x28,%rax
    4a03:	00 00 
    4a05:	0f 85 f0 00 00 00    	jne    4afb <CheckInv+0x24b>
    4a0b:	48 8d 65 d8          	lea    -0x28(%rbp),%rsp
    4a0f:	31 c0                	xor    %eax,%eax
    4a11:	5b                   	pop    %rbx
    4a12:	41 5c                	pop    %r12
    4a14:	41 5d                	pop    %r13
    4a16:	41 5e                	pop    %r14
    4a18:	41 5f                	pop    %r15
    4a1a:	5d                   	pop    %rbp
    4a1b:	c3                   	ret    
    4a1c:	48 83 4c 14 f8 00    	orq    $0x0,-0x8(%rsp,%rdx,1)
    4a22:	e9 10 ff ff ff       	jmp    4937 <CheckInv+0x87>
    4a27:	66 0f 1f 84 00 00 00 	nopw   0x0(%rax,%rax,1)
    4a2e:	00 00 
    4a30:	f2 41 0f 11 04 c4    	movsd  %xmm0,(%r12,%rax,8)
    4a36:	48 83 c0 01          	add    $0x1,%rax
    4a3a:	01 da                	add    %ebx,%edx
    4a3c:	4c 39 e8             	cmp    %r13,%rax
    4a3f:	75 8f                	jne    49d0 <CheckInv+0x120>
    4a41:	eb a2                	jmp    49e5 <CheckInv+0x135>
    4a43:	8d 53 ff             	lea    -0x1(%rbx),%edx
    4a46:	89 5d b0             	mov    %ebx,-0x50(%rbp)
    4a49:	31 c9                	xor    %ecx,%ecx
    4a4b:	66 0f ef d2          	pxor   %xmm2,%xmm2
    4a4f:	4c 8d 3c d5 08 00 00 	lea    0x8(,%rdx,8),%r15
    4a56:	00 
    4a57:	4c 89 65 a0          	mov    %r12,-0x60(%rbp)
    4a5b:	41 89 cc             	mov    %ecx,%r12d
    4a5e:	4e 8d 34 38          	lea    (%rax,%r15,1),%r14
    4a62:	4c 89 f6             	mov    %r14,%rsi
    4a65:	48 8b 4d b8          	mov    -0x48(%rbp),%rcx
    4a69:	44 89 e2             	mov    %r12d,%edx
    4a6c:	41 b9 01 00 00 00    	mov    $0x1,%r9d
    4a72:	4c 8d 14 d1          	lea    (%rcx,%rdx,8),%r10
    4a76:	48 89 f9             	mov    %rdi,%rcx
    4a79:	0f 1f 80 00 00 00 00 	nopl   0x0(%rax)
    4a80:	48 89 c2             	mov    %rax,%rdx
    4a83:	66 0f 28 ca          	movapd %xmm2,%xmm1
    4a87:	66 0f 1f 84 00 00 00 	nopw   0x0(%rax,%rax,1)
    4a8e:	00 00 
    4a90:	f2 0f 10 02          	movsd  (%rdx),%xmm0
    4a94:	f2 0f 59 01          	mulsd  (%rcx),%xmm0
    4a98:	48 83 c2 08          	add    $0x8,%rdx
    4a9c:	4c 01 c1             	add    %r8,%rcx
    4a9f:	f2 0f 58 c8          	addsd  %xmm0,%xmm1
    4aa3:	48 39 f2             	cmp    %rsi,%rdx
    4aa6:	75 e8                	jne    4a90 <CheckInv+0x1e0>
    4aa8:	44 89 c9             	mov    %r9d,%ecx
    4aab:	49 83 c2 08          	add    $0x8,%r10
    4aaf:	45 8d 59 01          	lea    0x1(%r9),%r11d
    4ab3:	f2 41 0f 11 4a f8    	movsd  %xmm1,-0x8(%r10)
    4ab9:	48 8d 0c cf          	lea    (%rdi,%rcx,8),%rcx
    4abd:	44 39 cb             	cmp    %r9d,%ebx
    4ac0:	74 05                	je     4ac7 <CheckInv+0x217>
    4ac2:	45 89 d9             	mov    %r11d,%r9d
    4ac5:	eb b9                	jmp    4a80 <CheckInv+0x1d0>
    4ac7:	41 01 dc             	add    %ebx,%r12d
    4aca:	83 6d b0 01          	subl   $0x1,-0x50(%rbp)
    4ace:	4a 8d 34 3a          	lea    (%rdx,%r15,1),%rsi
    4ad2:	4c 89 f0             	mov    %r14,%rax
    4ad5:	74 05                	je     4adc <CheckInv+0x22c>
    4ad7:	4d 01 fe             	add    %r15,%r14
    4ada:	eb 89                	jmp    4a65 <CheckInv+0x1b5>
    4adc:	8b 45 b4             	mov    -0x4c(%rbp),%eax
    4adf:	4c 8b 65 a0          	mov    -0x60(%rbp),%r12
    4ae3:	85 c0                	test   %eax,%eax
    4ae5:	0f 84 fa fe ff ff    	je     49e5 <CheckInv+0x135>
    4aeb:	e9 cb fe ff ff       	jmp    49bb <CheckInv+0x10b>
    4af0:	48 83 4c 0c f8 00    	orq    $0x0,-0x8(%rsp,%rcx,1)
    4af6:	e9 94 fe ff ff       	jmp    498f <CheckInv+0xdf>
    4afb:	e8 c0 f5 ff ff       	call   40c0 <__stack_chk_fail@plt>

0000000000004b00 <DoMatInv>:
    4b00:	f3 0f 1e fa          	endbr64 
    4b04:	55                   	push   %rbp
    4b05:	48 89 e5             	mov    %rsp,%rbp
    4b08:	41 57                	push   %r15
    4b0a:	41 56                	push   %r14
    4b0c:	41 55                	push   %r13
    4b0e:	41 54                	push   %r12
    4b10:	49 89 fc             	mov    %rdi,%r12
    4b13:	53                   	push   %rbx
    4b14:	48 89 f3             	mov    %rsi,%rbx
    4b17:	48 83 ec 48          	sub    $0x48,%rsp
    4b1b:	44 8b 6f 08          	mov    0x8(%rdi),%r13d
    4b1f:	64 48 8b 04 25 28 00 	mov    %fs:0x28,%rax
    4b26:	00 00 
    4b28:	48 89 45 c8          	mov    %rax,-0x38(%rbp)
    4b2c:	31 c0                	xor    %eax,%eax
    4b2e:	48 89 e1             	mov    %rsp,%rcx
    4b31:	44 89 e8             	mov    %r13d,%eax
    4b34:	41 0f af c5          	imul   %r13d,%eax
    4b38:	48 98                	cltq   
    4b3a:	48 8d 04 c5 0f 00 00 	lea    0xf(,%rax,8),%rax
    4b41:	00 
    4b42:	48 89 c6             	mov    %rax,%rsi
    4b45:	48 89 c2             	mov    %rax,%rdx
    4b48:	48 81 e6 00 f0 ff ff 	and    $0xfffffffffffff000,%rsi
    4b4f:	48 83 e2 f0          	and    $0xfffffffffffffff0,%rdx
    4b53:	48 29 f1             	sub    %rsi,%rcx
    4b56:	48 39 cc             	cmp    %rcx,%rsp
    4b59:	74 15                	je     4b70 <DoMatInv+0x70>
    4b5b:	48 81 ec 00 10 00 00 	sub    $0x1000,%rsp
    4b62:	48 83 8c 24 f8 0f 00 	orq    $0x0,0xff8(%rsp)
    4b69:	00 00 
    4b6b:	48 39 cc             	cmp    %rcx,%rsp
    4b6e:	75 eb                	jne    4b5b <DoMatInv+0x5b>
    4b70:	81 e2 ff 0f 00 00    	and    $0xfff,%edx
    4b76:	48 29 d4             	sub    %rdx,%rsp
    4b79:	48 85 d2             	test   %rdx,%rdx
    4b7c:	0f 85 16 01 00 00    	jne    4c98 <DoMatInv+0x198>
    4b82:	48 89 c2             	mov    %rax,%rdx
    4b85:	48 89 e1             	mov    %rsp,%rcx
    4b88:	48 25 00 f0 ff ff    	and    $0xfffffffffffff000,%rax
    4b8e:	49 89 e6             	mov    %rsp,%r14
    4b91:	48 29 c1             	sub    %rax,%rcx
    4b94:	48 83 e2 f0          	and    $0xfffffffffffffff0,%rdx
    4b98:	48 39 cc             	cmp    %rcx,%rsp
    4b9b:	74 15                	je     4bb2 <DoMatInv+0xb2>
    4b9d:	48 81 ec 00 10 00 00 	sub    $0x1000,%rsp
    4ba4:	48 83 8c 24 f8 0f 00 	orq    $0x0,0xff8(%rsp)
    4bab:	00 00 
    4bad:	48 39 cc             	cmp    %rcx,%rsp
    4bb0:	75 eb                	jne    4b9d <DoMatInv+0x9d>
    4bb2:	81 e2 ff 0f 00 00    	and    $0xfff,%edx
    4bb8:	48 29 d4             	sub    %rdx,%rsp
    4bbb:	48 85 d2             	test   %rdx,%rdx
    4bbe:	0f 85 1c 01 00 00    	jne    4ce0 <DoMatInv+0x1e0>
    4bc4:	49 63 d5             	movslq %r13d,%rdx
    4bc7:	4d 8b 04 24          	mov    (%r12),%r8
    4bcb:	66 0f ef c0          	pxor   %xmm0,%xmm0
    4bcf:	4c 89 f7             	mov    %r14,%rdi
    4bd2:	48 0f af d2          	imul   %rdx,%rdx
    4bd6:	0f 29 45 a0          	movaps %xmm0,-0x60(%rbp)
    4bda:	49 89 e7             	mov    %rsp,%r15
    4bdd:	4c 89 c6             	mov    %r8,%rsi
    4be0:	4c 89 45 98          	mov    %r8,-0x68(%rbp)
    4be4:	0f 29 45 b0          	movaps %xmm0,-0x50(%rbp)
    4be8:	48 c1 e2 03          	shl    $0x3,%rdx
    4bec:	48 c7 45 c0 00 00 00 	movq   $0x0,-0x40(%rbp)
    4bf3:	00 
    4bf4:	e8 f7 f4 ff ff       	call   40f0 <memcpy@plt>
    4bf9:	48 8b 7d 98          	mov    -0x68(%rbp),%rdi
    4bfd:	44 89 ea             	mov    %r13d,%edx
    4c00:	4c 89 fe             	mov    %r15,%rsi
    4c03:	e8 f8 00 00 00       	call   4d00 <riscv_dsp_mat_inv_f64>
    4c08:	41 89 c0             	mov    %eax,%r8d
    4c0b:	41 8b 44 24 0c       	mov    0xc(%r12),%eax
    4c10:	44 39 c0             	cmp    %r8d,%eax
    4c13:	0f 85 d2 00 00 00    	jne    4ceb <DoMatInv+0x1eb>
    4c19:	85 c0                	test   %eax,%eax
    4c1b:	0f 84 87 00 00 00    	je     4ca8 <DoMatInv+0x1a8>
    4c21:	66 0f ef c0          	pxor   %xmm0,%xmm0
    4c25:	66 0f 28 c8          	movapd %xmm0,%xmm1
    4c29:	66 0f 28 d0          	movapd %xmm0,%xmm2
    4c2d:	66 0f 28 d8          	movapd %xmm0,%xmm3
    4c31:	66 0f 28 e0          	movapd %xmm0,%xmm4
    4c35:	66 0f 2f 23          	comisd (%rbx),%xmm4
    4c39:	76 04                	jbe    4c3f <DoMatInv+0x13f>
    4c3b:	f2 0f 11 23          	movsd  %xmm4,(%rbx)
    4c3f:	66 0f 2f 5b 08       	comisd 0x8(%rbx),%xmm3
    4c44:	76 05                	jbe    4c4b <DoMatInv+0x14b>
    4c46:	f2 0f 11 5b 08       	movsd  %xmm3,0x8(%rbx)
    4c4b:	66 0f 2f 53 10       	comisd 0x10(%rbx),%xmm2
    4c50:	76 05                	jbe    4c57 <DoMatInv+0x157>
    4c52:	f2 0f 11 53 10       	movsd  %xmm2,0x10(%rbx)
    4c57:	66 0f 2f 4b 18       	comisd 0x18(%rbx),%xmm1
    4c5c:	76 05                	jbe    4c63 <DoMatInv+0x163>
    4c5e:	f2 0f 11 4b 18       	movsd  %xmm1,0x18(%rbx)
    4c63:	31 c0                	xor    %eax,%eax
    4c65:	66 0f 2f 43 20       	comisd 0x20(%rbx),%xmm0
    4c6a:	76 07                	jbe    4c73 <DoMatInv+0x173>
    4c6c:	f2 0f 11 43 20       	movsd  %xmm0,0x20(%rbx)
    4c71:	31 c0                	xor    %eax,%eax
    4c73:	48 8b 55 c8          	mov    -0x38(%rbp),%rdx
    4c77:	64 48 2b 14 25 28 00 	sub    %fs:0x28,%rdx
    4c7e:	00 00 
    4c80:	75 70                	jne    4cf2 <DoMatInv+0x1f2>
    4c82:	48 8d 65 d8          	lea    -0x28(%rbp),%rsp
    4c86:	5b                   	pop    %rbx
    4c87:	41 5c                	pop    %r12
    4c89:	41 5d                	pop    %r13
    4c8b:	41 5e                	pop    %r14
    4c8d:	41 5f                	pop    %r15
    4c8f:	5d                   	pop    %rbp
    4c90:	c3                   	ret    
    4c91:	0f 1f 80 00 00 00 00 	nopl   0x0(%rax)
    4c98:	48 83 4c 14 f8 00    	orq    $0x0,-0x8(%rsp,%rdx,1)
    4c9e:	e9 df fe ff ff       	jmp    4b82 <DoMatInv+0x82>
    4ca3:	0f 1f 44 00 00       	nopl   0x0(%rax,%rax,1)
    4ca8:	48 8d 4d a0          	lea    -0x60(%rbp),%rcx
    4cac:	44 89 ea             	mov    %r13d,%edx
    4caf:	4c 89 fe             	mov    %r15,%rsi
    4cb2:	4c 89 f7             	mov    %r14,%rdi
    4cb5:	e8 f6 fb ff ff       	call   48b0 <CheckInv>
    4cba:	f2 0f 10 65 a0       	movsd  -0x60(%rbp),%xmm4
    4cbf:	f2 0f 10 5d a8       	movsd  -0x58(%rbp),%xmm3
    4cc4:	f2 0f 10 55 b0       	movsd  -0x50(%rbp),%xmm2
    4cc9:	f2 0f 10 4d b8       	movsd  -0x48(%rbp),%xmm1
    4cce:	f2 0f 10 45 c0       	movsd  -0x40(%rbp),%xmm0
    4cd3:	e9 5d ff ff ff       	jmp    4c35 <DoMatInv+0x135>
    4cd8:	0f 1f 84 00 00 00 00 	nopl   0x0(%rax,%rax,1)
    4cdf:	00 
    4ce0:	48 83 4c 14 f8 00    	orq    $0x0,-0x8(%rsp,%rdx,1)
    4ce6:	e9 d9 fe ff ff       	jmp    4bc4 <DoMatInv+0xc4>
    4ceb:	b8 ff ff ff ff       	mov    $0xffffffff,%eax
    4cf0:	eb 81                	jmp    4c73 <DoMatInv+0x173>
    4cf2:	e8 c9 f3 ff ff       	call   40c0 <__stack_chk_fail@plt>
    4cf7:	66 0f 1f 84 00 00 00 	nopw   0x0(%rax,%rax,1)
    4cfe:	00 00 

0000000000004d00 <riscv_dsp_mat_inv_f64>:
    4d00:	f3 0f 1e fa          	endbr64 
    4d04:	41 57                	push   %r15
    4d06:	41 56                	push   %r14
    4d08:	41 55                	push   %r13
    4d0a:	41 54                	push   %r12
    4d0c:	55                   	push   %rbp
    4d0d:	53                   	push   %rbx
    4d0e:	48 81 ec 88 00 00 00 	sub    $0x88,%rsp
    4d15:	48 89 7c 24 48       	mov    %rdi,0x48(%rsp)
    4d1a:	48 89 74 24 50       	mov    %rsi,0x50(%rsp)
    4d1f:	85 d2                	test   %edx,%edx
    4d21:	0f 84 38 05 00 00    	je     525f <riscv_dsp_mat_inv_f64+0x55f>
    4d27:	48 8b 1d 5a 13 00 00 	mov    0x135a(%rip),%rbx        # 6088 <_IO_stdin_used+0x88>
    4d2e:	89 d0                	mov    %edx,%eax
    4d30:	41 89 d6             	mov    %edx,%r14d
    4d33:	48 8d 4e 08          	lea    0x8(%rsi),%rcx
    4d37:	83 e8 01             	sub    $0x1,%eax
    4d3a:	48 89 1e             	mov    %rbx,(%rsi)
    4d3d:	89 44 24 7c          	mov    %eax,0x7c(%rsp)
    4d41:	74 52                	je     4d95 <riscv_dsp_mat_inv_f64+0x95>
    4d43:	89 c5                	mov    %eax,%ebp
    4d45:	31 db                	xor    %ebx,%ebx
    4d47:	48 c1 e5 03          	shl    $0x3,%rbp
    4d4b:	0f 1f 44 00 00       	nopl   0x0(%rax,%rax,1)
    4d50:	48 89 cf             	mov    %rcx,%rdi
    4d53:	48 89 ea             	mov    %rbp,%rdx
    4d56:	44 8d 63 01          	lea    0x1(%rbx),%r12d
    4d5a:	31 f6                	xor    %esi,%esi
    4d5c:	e8 6f f3 ff ff       	call   40d0 <memset@plt>
    4d61:	49 c1 e4 03          	shl    $0x3,%r12
    4d65:	31 f6                	xor    %esi,%esi
    4d67:	48 83 c3 01          	add    $0x1,%rbx
    4d6b:	48 89 c1             	mov    %rax,%rcx
    4d6e:	4c 89 e2             	mov    %r12,%rdx
    4d71:	48 01 e9             	add    %rbp,%rcx
    4d74:	48 89 cf             	mov    %rcx,%rdi
    4d77:	e8 54 f3 ff ff       	call   40d0 <memset@plt>
    4d7c:	49 01 c4             	add    %rax,%r12
    4d7f:	48 8b 05 02 13 00 00 	mov    0x1302(%rip),%rax        # 6088 <_IO_stdin_used+0x88>
    4d86:	49 8d 4c 24 08       	lea    0x8(%r12),%rcx
    4d8b:	49 89 04 24          	mov    %rax,(%r12)
    4d8f:	48 83 ed 08          	sub    $0x8,%rbp
    4d93:	75 bb                	jne    4d50 <riscv_dsp_mat_inv_f64+0x50>
    4d95:	41 8d 46 fe          	lea    -0x2(%r14),%eax
    4d99:	45 89 f5             	mov    %r14d,%r13d
    4d9c:	66 0f ef db          	pxor   %xmm3,%xmm3
    4da0:	45 31 ff             	xor    %r15d,%r15d
    4da3:	89 44 24 5c          	mov    %eax,0x5c(%rsp)
    4da7:	44 89 f0             	mov    %r14d,%eax
    4daa:	4a 8d 1c ed 00 00 00 	lea    0x0(,%r13,8),%rbx
    4db1:	00 
    4db2:	d1 e8                	shr    %eax
    4db4:	48 89 5c 24 08       	mov    %rbx,0x8(%rsp)
    4db9:	83 e8 01             	sub    $0x1,%eax
    4dbc:	48 89 5c 24 10       	mov    %rbx,0x10(%rsp)
    4dc1:	48 83 c0 01          	add    $0x1,%rax
    4dc5:	c7 44 24 64 00 00 00 	movl   $0x0,0x64(%rsp)
    4dcc:	00 
    4dcd:	48 c1 e0 04          	shl    $0x4,%rax
    4dd1:	c7 44 24 60 00 00 00 	movl   $0x0,0x60(%rsp)
    4dd8:	00 
    4dd9:	49 89 c4             	mov    %rax,%r12
    4ddc:	44 89 f0             	mov    %r14d,%eax
    4ddf:	4c 89 6c 24 68       	mov    %r13,0x68(%rsp)
    4de4:	83 e0 fe             	and    $0xfffffffe,%eax
    4de7:	89 44 24 2c          	mov    %eax,0x2c(%rsp)
    4deb:	48 c1 e0 03          	shl    $0x3,%rax
    4def:	48 89 44 24 38       	mov    %rax,0x38(%rsp)
    4df4:	48 8b 44 24 48       	mov    0x48(%rsp),%rax
    4df9:	48 01 d8             	add    %rbx,%rax
    4dfc:	48 89 44 24 70       	mov    %rax,0x70(%rsp)
    4e01:	4c 89 f8             	mov    %r15,%rax
    4e04:	4d 89 ef             	mov    %r13,%r15
    4e07:	49 89 c5             	mov    %rax,%r13
    4e0a:	66 0f 1f 44 00 00    	nopw   0x0(%rax,%rax,1)
    4e10:	8b 44 24 64          	mov    0x64(%rsp),%eax
    4e14:	4c 8d 14 c5 00 00 00 	lea    0x0(,%rax,8),%r10
    4e1b:	00 
    4e1c:	48 8b 44 24 48       	mov    0x48(%rsp),%rax
    4e21:	4a 8d 3c 10          	lea    (%rax,%r10,1),%rdi
    4e25:	48 8b 44 24 50       	mov    0x50(%rsp),%rax
    4e2a:	f2 0f 10 0f          	movsd  (%rdi),%xmm1
    4e2e:	4e 8d 04 10          	lea    (%rax,%r10,1),%r8
    4e32:	8b 44 24 60          	mov    0x60(%rsp),%eax
    4e36:	89 44 24 78          	mov    %eax,0x78(%rsp)
    4e3a:	83 c0 01             	add    $0x1,%eax
    4e3d:	66 0f 2e cb          	ucomisd %xmm3,%xmm1
    4e41:	89 44 24 60          	mov    %eax,0x60(%rsp)
    4e45:	7a 06                	jp     4e4d <riscv_dsp_mat_inv_f64+0x14d>
    4e47:	0f 84 b8 02 00 00    	je     5105 <riscv_dsp_mat_inv_f64+0x405>
    4e4d:	48 8b 44 24 38       	mov    0x38(%rsp),%rax
    4e52:	44 89 fd             	mov    %r15d,%ebp
    4e55:	4d 8d 1c 00          	lea    (%r8,%rax,1),%r11
    4e59:	83 fd 01             	cmp    $0x1,%ebp
    4e5c:	0f 84 f5 03 00 00    	je     5257 <riscv_dsp_mat_inv_f64+0x557>
    4e62:	8b 4c 24 5c          	mov    0x5c(%rsp),%ecx
    4e66:	66 0f 28 d1          	movapd %xmm1,%xmm2
    4e6a:	48 89 f8             	mov    %rdi,%rax
    4e6d:	31 d2                	xor    %edx,%edx
    4e6f:	66 0f 14 d2          	unpcklpd %xmm2,%xmm2
    4e73:	d1 e9                	shr    %ecx
    4e75:	83 c1 01             	add    $0x1,%ecx
    4e78:	0f 1f 84 00 00 00 00 	nopl   0x0(%rax,%rax,1)
    4e7f:	00 
    4e80:	66 0f 10 00          	movupd (%rax),%xmm0
    4e84:	83 c2 01             	add    $0x1,%edx
    4e87:	48 83 c0 10          	add    $0x10,%rax
    4e8b:	66 0f 5e c2          	divpd  %xmm2,%xmm0
    4e8f:	0f 11 40 f0          	movups %xmm0,-0x10(%rax)
    4e93:	39 d1                	cmp    %edx,%ecx
    4e95:	77 e9                	ja     4e80 <riscv_dsp_mat_inv_f64+0x180>
    4e97:	8d 04 09             	lea    (%rcx,%rcx,1),%eax
    4e9a:	48 89 c1             	mov    %rax,%rcx
    4e9d:	48 8d 04 c7          	lea    (%rdi,%rax,8),%rax
    4ea1:	39 cd                	cmp    %ecx,%ebp
    4ea3:	74 0c                	je     4eb1 <riscv_dsp_mat_inv_f64+0x1b1>
    4ea5:	f2 0f 10 00          	movsd  (%rax),%xmm0
    4ea9:	f2 0f 5e c1          	divsd  %xmm1,%xmm0
    4ead:	f2 0f 11 00          	movsd  %xmm0,(%rax)
    4eb1:	41 83 fe 01          	cmp    $0x1,%r14d
    4eb5:	0f 84 ae 03 00 00    	je     5269 <riscv_dsp_mat_inv_f64+0x569>
    4ebb:	66 0f 28 d1          	movapd %xmm1,%xmm2
    4ebf:	4c 89 c0             	mov    %r8,%rax
    4ec2:	4b 8d 14 04          	lea    (%r12,%r8,1),%rdx
    4ec6:	66 0f 14 d2          	unpcklpd %xmm2,%xmm2
    4eca:	66 0f 1f 44 00 00    	nopw   0x0(%rax,%rax,1)
    4ed0:	66 0f 10 00          	movupd (%rax),%xmm0
    4ed4:	48 83 c0 10          	add    $0x10,%rax
    4ed8:	66 0f 5e c2          	divpd  %xmm2,%xmm0
    4edc:	0f 11 40 f0          	movups %xmm0,-0x10(%rax)
    4ee0:	48 39 d0             	cmp    %rdx,%rax
    4ee3:	75 eb                	jne    4ed0 <riscv_dsp_mat_inv_f64+0x1d0>
    4ee5:	4c 89 d8             	mov    %r11,%rax
    4ee8:	44 3b 74 24 2c       	cmp    0x2c(%rsp),%r14d
    4eed:	74 0c                	je     4efb <riscv_dsp_mat_inv_f64+0x1fb>
    4eef:	f2 0f 10 00          	movsd  (%rax),%xmm0
    4ef3:	f2 0f 5e c1          	divsd  %xmm1,%xmm0
    4ef7:	f2 0f 11 00          	movsd  %xmm0,(%rax)
    4efb:	48 8b 74 24 48       	mov    0x48(%rsp),%rsi
    4f00:	48 8b 44 24 70       	mov    0x70(%rsp),%rax
    4f05:	44 8b 4c 24 5c       	mov    0x5c(%rsp),%r9d
    4f0a:	48 8b 4c 24 50       	mov    0x50(%rsp),%rcx
    4f0f:	48 29 f0             	sub    %rsi,%rax
    4f12:	48 89 44 24 40       	mov    %rax,0x40(%rsp)
    4f17:	41 d1 e9             	shr    %r9d
    4f1a:	4a 8d 04 ed 00 00 00 	lea    0x0(,%r13,8),%rax
    4f21:	00 
    4f22:	48 89 04 24          	mov    %rax,(%rsp)
    4f26:	41 83 c1 01          	add    $0x1,%r9d
    4f2a:	49 8d 42 08          	lea    0x8(%r10),%rax
    4f2e:	45 31 d2             	xor    %r10d,%r10d
    4f31:	48 8d 1c 06          	lea    (%rsi,%rax,1),%rbx
    4f35:	43 8d 14 09          	lea    (%r9,%r9,1),%edx
    4f39:	48 01 c8             	add    %rcx,%rax
    4f3c:	48 89 5c 24 20       	mov    %rbx,0x20(%rsp)
    4f41:	48 8d 1c d5 00 00 00 	lea    0x0(,%rdx,8),%rbx
    4f48:	00 
    4f49:	89 54 24 58          	mov    %edx,0x58(%rsp)
    4f4d:	48 89 f2             	mov    %rsi,%rdx
    4f50:	48 89 5c 24 30       	mov    %rbx,0x30(%rsp)
    4f55:	48 01 fb             	add    %rdi,%rbx
    4f58:	48 89 44 24 18       	mov    %rax,0x18(%rsp)
    4f5d:	45 39 ea             	cmp    %r13d,%r10d
    4f60:	0f 84 f8 00 00 00    	je     505e <riscv_dsp_mat_inv_f64+0x35e>
    4f66:	66 2e 0f 1f 84 00 00 	cs nopw 0x0(%rax,%rax,1)
    4f6d:	00 00 00 
    4f70:	f2 0f 10 02          	movsd  (%rdx),%xmm0
    4f74:	83 fd 01             	cmp    $0x1,%ebp
    4f77:	0f 84 1b 01 00 00    	je     5098 <riscv_dsp_mat_inv_f64+0x398>
    4f7d:	48 3b 54 24 20       	cmp    0x20(%rsp),%rdx
    4f82:	0f 84 10 01 00 00    	je     5098 <riscv_dsp_mat_inv_f64+0x398>
    4f88:	66 0f 28 e0          	movapd %xmm0,%xmm4
    4f8c:	31 c0                	xor    %eax,%eax
    4f8e:	31 f6                	xor    %esi,%esi
    4f90:	66 0f 14 e4          	unpcklpd %xmm4,%xmm4
    4f94:	0f 1f 40 00          	nopl   0x0(%rax)
    4f98:	66 0f 10 14 07       	movupd (%rdi,%rax,1),%xmm2
    4f9d:	66 0f 10 0c 02       	movupd (%rdx,%rax,1),%xmm1
    4fa2:	83 c6 01             	add    $0x1,%esi
    4fa5:	66 0f 59 d4          	mulpd  %xmm4,%xmm2
    4fa9:	66 0f 5c ca          	subpd  %xmm2,%xmm1
    4fad:	0f 11 0c 02          	movups %xmm1,(%rdx,%rax,1)
    4fb1:	48 83 c0 10          	add    $0x10,%rax
    4fb5:	41 39 f1             	cmp    %esi,%r9d
    4fb8:	77 de                	ja     4f98 <riscv_dsp_mat_inv_f64+0x298>
    4fba:	48 8b 44 24 30       	mov    0x30(%rsp),%rax
    4fbf:	48 01 d0             	add    %rdx,%rax
    4fc2:	3b 6c 24 58          	cmp    0x58(%rsp),%ebp
    4fc6:	74 14                	je     4fdc <riscv_dsp_mat_inv_f64+0x2dc>
    4fc8:	f2 0f 10 13          	movsd  (%rbx),%xmm2
    4fcc:	f2 0f 10 08          	movsd  (%rax),%xmm1
    4fd0:	f2 0f 59 d0          	mulsd  %xmm0,%xmm2
    4fd4:	f2 0f 5c ca          	subsd  %xmm2,%xmm1
    4fd8:	f2 0f 11 08          	movsd  %xmm1,(%rax)
    4fdc:	48 03 54 24 10       	add    0x10(%rsp),%rdx
    4fe1:	41 83 fe 01          	cmp    $0x1,%r14d
    4fe5:	0f 84 7d 00 00 00    	je     5068 <riscv_dsp_mat_inv_f64+0x368>
    4feb:	48 39 4c 24 18       	cmp    %rcx,0x18(%rsp)
    4ff0:	74 76                	je     5068 <riscv_dsp_mat_inv_f64+0x368>
    4ff2:	66 0f 28 e0          	movapd %xmm0,%xmm4
    4ff6:	31 c0                	xor    %eax,%eax
    4ff8:	66 0f 14 e4          	unpcklpd %xmm4,%xmm4
    4ffc:	0f 1f 40 00          	nopl   0x0(%rax)
    5000:	66 41 0f 10 14 00    	movupd (%r8,%rax,1),%xmm2
    5006:	66 0f 10 0c 01       	movupd (%rcx,%rax,1),%xmm1
    500b:	66 0f 59 d4          	mulpd  %xmm4,%xmm2
    500f:	66 0f 5c ca          	subpd  %xmm2,%xmm1
    5013:	0f 11 0c 01          	movups %xmm1,(%rcx,%rax,1)
    5017:	48 83 c0 10          	add    $0x10,%rax
    501b:	49 39 c4             	cmp    %rax,%r12
    501e:	75 e0                	jne    5000 <riscv_dsp_mat_inv_f64+0x300>
    5020:	48 8b 44 24 38       	mov    0x38(%rsp),%rax
    5025:	48 01 c8             	add    %rcx,%rax
    5028:	44 3b 74 24 2c       	cmp    0x2c(%rsp),%r14d
    502d:	74 11                	je     5040 <riscv_dsp_mat_inv_f64+0x340>
    502f:	f2 41 0f 59 03       	mulsd  (%r11),%xmm0
    5034:	f2 0f 10 08          	movsd  (%rax),%xmm1
    5038:	f2 0f 5c c8          	subsd  %xmm0,%xmm1
    503c:	f2 0f 11 08          	movsd  %xmm1,(%rax)
    5040:	41 8d 42 01          	lea    0x1(%r10),%eax
    5044:	48 03 14 24          	add    (%rsp),%rdx
    5048:	48 03 4c 24 08       	add    0x8(%rsp),%rcx
    504d:	41 39 c6             	cmp    %eax,%r14d
    5050:	74 76                	je     50c8 <riscv_dsp_mat_inv_f64+0x3c8>
    5052:	41 89 c2             	mov    %eax,%r10d
    5055:	45 39 ea             	cmp    %r13d,%r10d
    5058:	0f 85 12 ff ff ff    	jne    4f70 <riscv_dsp_mat_inv_f64+0x270>
    505e:	48 03 54 24 40       	add    0x40(%rsp),%rdx
    5063:	eb db                	jmp    5040 <riscv_dsp_mat_inv_f64+0x340>
    5065:	0f 1f 00             	nopl   (%rax)
    5068:	48 8b 74 24 68       	mov    0x68(%rsp),%rsi
    506d:	31 c0                	xor    %eax,%eax
    506f:	90                   	nop
    5070:	f2 41 0f 10 14 c0    	movsd  (%r8,%rax,8),%xmm2
    5076:	f2 0f 10 0c c1       	movsd  (%rcx,%rax,8),%xmm1
    507b:	f2 0f 59 d0          	mulsd  %xmm0,%xmm2
    507f:	f2 0f 5c ca          	subsd  %xmm2,%xmm1
    5083:	f2 0f 11 0c c1       	movsd  %xmm1,(%rcx,%rax,8)
    5088:	48 83 c0 01          	add    $0x1,%rax
    508c:	48 39 c6             	cmp    %rax,%rsi
    508f:	75 df                	jne    5070 <riscv_dsp_mat_inv_f64+0x370>
    5091:	eb ad                	jmp    5040 <riscv_dsp_mat_inv_f64+0x340>
    5093:	0f 1f 44 00 00       	nopl   0x0(%rax,%rax,1)
    5098:	31 c0                	xor    %eax,%eax
    509a:	66 0f 1f 44 00 00    	nopw   0x0(%rax,%rax,1)
    50a0:	f2 0f 10 14 c7       	movsd  (%rdi,%rax,8),%xmm2
    50a5:	f2 0f 10 0c c2       	movsd  (%rdx,%rax,8),%xmm1
    50aa:	f2 0f 59 d0          	mulsd  %xmm0,%xmm2
    50ae:	f2 0f 5c ca          	subsd  %xmm2,%xmm1
    50b2:	f2 0f 11 0c c2       	movsd  %xmm1,(%rdx,%rax,8)
    50b7:	48 83 c0 01          	add    $0x1,%rax
    50bb:	49 39 c7             	cmp    %rax,%r15
    50be:	75 e0                	jne    50a0 <riscv_dsp_mat_inv_f64+0x3a0>
    50c0:	e9 17 ff ff ff       	jmp    4fdc <riscv_dsp_mat_inv_f64+0x2dc>
    50c5:	0f 1f 00             	nopl   (%rax)
    50c8:	48 83 44 24 48 08    	addq   $0x8,0x48(%rsp)
    50ce:	49 83 c5 01          	add    $0x1,%r13
    50d2:	49 83 ef 01          	sub    $0x1,%r15
    50d6:	44 01 74 24 64       	add    %r14d,0x64(%rsp)
    50db:	48 83 6c 24 10 08    	subq   $0x8,0x10(%rsp)
    50e1:	83 6c 24 5c 01       	subl   $0x1,0x5c(%rsp)
    50e6:	44 3b 54 24 78       	cmp    0x78(%rsp),%r10d
    50eb:	0f 85 1f fd ff ff    	jne    4e10 <riscv_dsp_mat_inv_f64+0x110>
    50f1:	31 c0                	xor    %eax,%eax
    50f3:	48 81 c4 88 00 00 00 	add    $0x88,%rsp
    50fa:	5b                   	pop    %rbx
    50fb:	5d                   	pop    %rbp
    50fc:	41 5c                	pop    %r12
    50fe:	41 5d                	pop    %r13
    5100:	41 5e                	pop    %r14
    5102:	41 5f                	pop    %r15
    5104:	c3                   	ret    
    5105:	89 c6                	mov    %eax,%esi
    5107:	41 39 c6             	cmp    %eax,%r14d
    510a:	0f 84 4f 01 00 00    	je     525f <riscv_dsp_mat_inv_f64+0x55f>
    5110:	44 89 f1             	mov    %r14d,%ecx
    5113:	eb 12                	jmp    5127 <riscv_dsp_mat_inv_f64+0x427>
    5115:	0f 1f 00             	nopl   (%rax)
    5118:	83 c6 01             	add    $0x1,%esi
    511b:	44 01 f1             	add    %r14d,%ecx
    511e:	41 39 f6             	cmp    %esi,%r14d
    5121:	0f 84 38 01 00 00    	je     525f <riscv_dsp_mat_inv_f64+0x55f>
    5127:	89 c8                	mov    %ecx,%eax
    5129:	48 c1 e0 03          	shl    $0x3,%rax
    512d:	48 8d 14 07          	lea    (%rdi,%rax,1),%rdx
    5131:	66 0f 2e 1a          	ucomisd (%rdx),%xmm3
    5135:	7a 02                	jp     5139 <riscv_dsp_mat_inv_f64+0x439>
    5137:	74 df                	je     5118 <riscv_dsp_mat_inv_f64+0x418>
    5139:	48 8b 5c 24 48       	mov    0x48(%rsp),%rbx
    513e:	4d 8d 5a 10          	lea    0x10(%r10),%r11
    5142:	44 89 fd             	mov    %r15d,%ebp
    5145:	4a 8d 0c 1b          	lea    (%rbx,%r11,1),%rcx
    5149:	48 39 ca             	cmp    %rcx,%rdx
    514c:	48 8d 4a 10          	lea    0x10(%rdx),%rcx
    5150:	40 0f 93 c6          	setae  %sil
    5154:	48 39 cf             	cmp    %rcx,%rdi
    5157:	0f 93 c1             	setae  %cl
    515a:	40 08 f1             	or     %sil,%cl
    515d:	0f 84 0e 01 00 00    	je     5271 <riscv_dsp_mat_inv_f64+0x571>
    5163:	44 89 f1             	mov    %r14d,%ecx
    5166:	2b 4c 24 60          	sub    0x60(%rsp),%ecx
    516a:	83 f9 01             	cmp    $0x1,%ecx
    516d:	0f 86 fe 00 00 00    	jbe    5271 <riscv_dsp_mat_inv_f64+0x571>
    5173:	44 8b 4c 24 5c       	mov    0x5c(%rsp),%r9d
    5178:	31 c9                	xor    %ecx,%ecx
    517a:	31 f6                	xor    %esi,%esi
    517c:	41 d1 e9             	shr    %r9d
    517f:	41 83 c1 01          	add    $0x1,%r9d
    5183:	0f 1f 44 00 00       	nopl   0x0(%rax,%rax,1)
    5188:	66 0f 10 04 0a       	movupd (%rdx,%rcx,1),%xmm0
    518d:	66 0f 10 2c 0f       	movupd (%rdi,%rcx,1),%xmm5
    5192:	83 c6 01             	add    $0x1,%esi
    5195:	0f 11 2c 0a          	movups %xmm5,(%rdx,%rcx,1)
    5199:	0f 11 04 0f          	movups %xmm0,(%rdi,%rcx,1)
    519d:	48 83 c1 10          	add    $0x10,%rcx
    51a1:	44 39 ce             	cmp    %r9d,%esi
    51a4:	72 e2                	jb     5188 <riscv_dsp_mat_inv_f64+0x488>
    51a6:	43 8d 0c 09          	lea    (%r9,%r9,1),%ecx
    51aa:	49 89 c9             	mov    %rcx,%r9
    51ad:	48 c1 e1 03          	shl    $0x3,%rcx
    51b1:	48 8d 34 0f          	lea    (%rdi,%rcx,1),%rsi
    51b5:	48 01 d1             	add    %rdx,%rcx
    51b8:	44 39 cd             	cmp    %r9d,%ebp
    51bb:	74 10                	je     51cd <riscv_dsp_mat_inv_f64+0x4cd>
    51bd:	f2 0f 10 01          	movsd  (%rcx),%xmm0
    51c1:	f2 0f 10 0e          	movsd  (%rsi),%xmm1
    51c5:	f2 0f 11 09          	movsd  %xmm1,(%rcx)
    51c9:	f2 0f 11 06          	movsd  %xmm0,(%rsi)
    51cd:	49 8d 34 02          	lea    (%r10,%rax,1),%rsi
    51d1:	49 8d 0c 00          	lea    (%r8,%rax,1),%rcx
    51d5:	48 8d 46 10          	lea    0x10(%rsi),%rax
    51d9:	4c 39 d0             	cmp    %r10,%rax
    51dc:	0f 9e c2             	setle  %dl
    51df:	49 39 f3             	cmp    %rsi,%r11
    51e2:	0f 9e c0             	setle  %al
    51e5:	08 d0                	or     %dl,%al
    51e7:	0f 84 b4 00 00 00    	je     52a1 <riscv_dsp_mat_inv_f64+0x5a1>
    51ed:	83 7c 24 7c 01       	cmpl   $0x1,0x7c(%rsp)
    51f2:	0f 86 a9 00 00 00    	jbe    52a1 <riscv_dsp_mat_inv_f64+0x5a1>
    51f8:	48 8b 44 24 50       	mov    0x50(%rsp),%rax
    51fd:	48 8d 14 30          	lea    (%rax,%rsi,1),%rdx
    5201:	31 c0                	xor    %eax,%eax
    5203:	0f 1f 44 00 00       	nopl   0x0(%rax,%rax,1)
    5208:	66 0f 10 04 02       	movupd (%rdx,%rax,1),%xmm0
    520d:	66 41 0f 10 34 00    	movupd (%r8,%rax,1),%xmm6
    5213:	0f 11 34 02          	movups %xmm6,(%rdx,%rax,1)
    5217:	41 0f 11 04 00       	movups %xmm0,(%r8,%rax,1)
    521c:	48 83 c0 10          	add    $0x10,%rax
    5220:	49 39 c4             	cmp    %rax,%r12
    5223:	75 e3                	jne    5208 <riscv_dsp_mat_inv_f64+0x508>
    5225:	48 8b 44 24 38       	mov    0x38(%rsp),%rax
    522a:	4d 8d 1c 00          	lea    (%r8,%rax,1),%r11
    522e:	48 01 c8             	add    %rcx,%rax
    5231:	44 3b 74 24 2c       	cmp    0x2c(%rsp),%r14d
    5236:	74 12                	je     524a <riscv_dsp_mat_inv_f64+0x54a>
    5238:	f2 0f 10 00          	movsd  (%rax),%xmm0
    523c:	f2 41 0f 10 0b       	movsd  (%r11),%xmm1
    5241:	f2 0f 11 08          	movsd  %xmm1,(%rax)
    5245:	f2 41 0f 11 03       	movsd  %xmm0,(%r11)
    524a:	f2 0f 10 0f          	movsd  (%rdi),%xmm1
    524e:	83 fd 01             	cmp    $0x1,%ebp
    5251:	0f 85 0b fc ff ff    	jne    4e62 <riscv_dsp_mat_inv_f64+0x162>
    5257:	48 89 f8             	mov    %rdi,%rax
    525a:	e9 46 fc ff ff       	jmp    4ea5 <riscv_dsp_mat_inv_f64+0x1a5>
    525f:	b8 ff ff ff ff       	mov    $0xffffffff,%eax
    5264:	e9 8a fe ff ff       	jmp    50f3 <riscv_dsp_mat_inv_f64+0x3f3>
    5269:	4c 89 c0             	mov    %r8,%rax
    526c:	e9 7e fc ff ff       	jmp    4eef <riscv_dsp_mat_inv_f64+0x1ef>
    5271:	48 8b 5c 24 10       	mov    0x10(%rsp),%rbx
    5276:	48 89 f9             	mov    %rdi,%rcx
    5279:	48 8d 34 1f          	lea    (%rdi,%rbx,1),%rsi
    527d:	f2 0f 10 02          	movsd  (%rdx),%xmm0
    5281:	f2 0f 10 09          	movsd  (%rcx),%xmm1
    5285:	48 83 c1 08          	add    $0x8,%rcx
    5289:	48 83 c2 08          	add    $0x8,%rdx
    528d:	f2 0f 11 4a f8       	movsd  %xmm1,-0x8(%rdx)
    5292:	f2 0f 11 41 f8       	movsd  %xmm0,-0x8(%rcx)
    5297:	48 39 ce             	cmp    %rcx,%rsi
    529a:	75 e1                	jne    527d <riscv_dsp_mat_inv_f64+0x57d>
    529c:	e9 2c ff ff ff       	jmp    51cd <riscv_dsp_mat_inv_f64+0x4cd>
    52a1:	48 8b 44 24 08       	mov    0x8(%rsp),%rax
    52a6:	49 8d 14 00          	lea    (%r8,%rax,1),%rdx
    52aa:	4c 89 c0             	mov    %r8,%rax
    52ad:	f2 0f 10 01          	movsd  (%rcx),%xmm0
    52b1:	f2 0f 10 08          	movsd  (%rax),%xmm1
    52b5:	48 83 c0 08          	add    $0x8,%rax
    52b9:	48 83 c1 08          	add    $0x8,%rcx
    52bd:	f2 0f 11 49 f8       	movsd  %xmm1,-0x8(%rcx)
    52c2:	f2 0f 11 40 f8       	movsd  %xmm0,-0x8(%rax)
    52c7:	48 39 c2             	cmp    %rax,%rdx
    52ca:	75 e1                	jne    52ad <riscv_dsp_mat_inv_f64+0x5ad>
    52cc:	48 8b 44 24 38       	mov    0x38(%rsp),%rax
    52d1:	4d 8d 1c 00          	lea    (%r8,%rax,1),%r11
    52d5:	e9 70 ff ff ff       	jmp    524a <riscv_dsp_mat_inv_f64+0x54a>

Disassembly of section .fini:

00000000000052dc <_fini>:
    52dc:	f3 0f 1e fa          	endbr64 
    52e0:	48 83 ec 08          	sub    $0x8,%rsp
    52e4:	48 83 c4 08          	add    $0x8,%rsp
    52e8:	c3                   	ret    
