
t_mat_cholesky_f32:     file format elf64-x86-64


Disassembly of section .init:

0000000000001000 <_init>:
    1000:	f3 0f 1e fa          	endbr64 
    1004:	48 83 ec 08          	sub    $0x8,%rsp
    1008:	48 8b 05 d9 2f 00 00 	mov    0x2fd9(%rip),%rax        # 3fe8 <__gmon_start__@Base>
    100f:	48 85 c0             	test   %rax,%rax
    1012:	74 02                	je     1016 <_init+0x16>
    1014:	ff d0                	call   *%rax
    1016:	48 83 c4 08          	add    $0x8,%rsp
    101a:	c3                   	ret    

Disassembly of section .plt:

0000000000001020 <.plt>:
    1020:	ff 35 4a 2f 00 00    	push   0x2f4a(%rip)        # 3f70 <_GLOBAL_OFFSET_TABLE_+0x8>
    1026:	f2 ff 25 4b 2f 00 00 	bnd jmp *0x2f4b(%rip)        # 3f78 <_GLOBAL_OFFSET_TABLE_+0x10>
    102d:	0f 1f 00             	nopl   (%rax)
    1030:	f3 0f 1e fa          	endbr64 
    1034:	68 00 00 00 00       	push   $0x0
    1039:	f2 e9 e1 ff ff ff    	bnd jmp 1020 <_init+0x20>
    103f:	90                   	nop
    1040:	f3 0f 1e fa          	endbr64 
    1044:	68 01 00 00 00       	push   $0x1
    1049:	f2 e9 d1 ff ff ff    	bnd jmp 1020 <_init+0x20>
    104f:	90                   	nop
    1050:	f3 0f 1e fa          	endbr64 
    1054:	68 02 00 00 00       	push   $0x2
    1059:	f2 e9 c1 ff ff ff    	bnd jmp 1020 <_init+0x20>
    105f:	90                   	nop
    1060:	f3 0f 1e fa          	endbr64 
    1064:	68 03 00 00 00       	push   $0x3
    1069:	f2 e9 b1 ff ff ff    	bnd jmp 1020 <_init+0x20>
    106f:	90                   	nop
    1070:	f3 0f 1e fa          	endbr64 
    1074:	68 04 00 00 00       	push   $0x4
    1079:	f2 e9 a1 ff ff ff    	bnd jmp 1020 <_init+0x20>
    107f:	90                   	nop
    1080:	f3 0f 1e fa          	endbr64 
    1084:	68 05 00 00 00       	push   $0x5
    1089:	f2 e9 91 ff ff ff    	bnd jmp 1020 <_init+0x20>
    108f:	90                   	nop
    1090:	f3 0f 1e fa          	endbr64 
    1094:	68 06 00 00 00       	push   $0x6
    1099:	f2 e9 81 ff ff ff    	bnd jmp 1020 <_init+0x20>
    109f:	90                   	nop
    10a0:	f3 0f 1e fa          	endbr64 
    10a4:	68 07 00 00 00       	push   $0x7
    10a9:	f2 e9 71 ff ff ff    	bnd jmp 1020 <_init+0x20>
    10af:	90                   	nop
    10b0:	f3 0f 1e fa          	endbr64 
    10b4:	68 08 00 00 00       	push   $0x8
    10b9:	f2 e9 61 ff ff ff    	bnd jmp 1020 <_init+0x20>
    10bf:	90                   	nop
    10c0:	f3 0f 1e fa          	endbr64 
    10c4:	68 09 00 00 00       	push   $0x9
    10c9:	f2 e9 51 ff ff ff    	bnd jmp 1020 <_init+0x20>
    10cf:	90                   	nop
    10d0:	f3 0f 1e fa          	endbr64 
    10d4:	68 0a 00 00 00       	push   $0xa
    10d9:	f2 e9 41 ff ff ff    	bnd jmp 1020 <_init+0x20>
    10df:	90                   	nop

Disassembly of section .plt.got:

00000000000010e0 <__cxa_finalize@plt>:
    10e0:	f3 0f 1e fa          	endbr64 
    10e4:	f2 ff 25 0d 2f 00 00 	bnd jmp *0x2f0d(%rip)        # 3ff8 <__cxa_finalize@GLIBC_2.2.5>
    10eb:	0f 1f 44 00 00       	nopl   0x0(%rax,%rax,1)

Disassembly of section .plt.sec:

00000000000010f0 <puts@plt>:
    10f0:	f3 0f 1e fa          	endbr64 
    10f4:	f2 ff 25 85 2e 00 00 	bnd jmp *0x2e85(%rip)        # 3f80 <puts@GLIBC_2.2.5>
    10fb:	0f 1f 44 00 00       	nopl   0x0(%rax,%rax,1)

0000000000001100 <fread@plt>:
    1100:	f3 0f 1e fa          	endbr64 
    1104:	f2 ff 25 7d 2e 00 00 	bnd jmp *0x2e7d(%rip)        # 3f88 <fread@GLIBC_2.2.5>
    110b:	0f 1f 44 00 00       	nopl   0x0(%rax,%rax,1)

0000000000001110 <fclose@plt>:
    1110:	f3 0f 1e fa          	endbr64 
    1114:	f2 ff 25 75 2e 00 00 	bnd jmp *0x2e75(%rip)        # 3f90 <fclose@GLIBC_2.2.5>
    111b:	0f 1f 44 00 00       	nopl   0x0(%rax,%rax,1)

0000000000001120 <__stack_chk_fail@plt>:
    1120:	f3 0f 1e fa          	endbr64 
    1124:	f2 ff 25 6d 2e 00 00 	bnd jmp *0x2e6d(%rip)        # 3f98 <__stack_chk_fail@GLIBC_2.4>
    112b:	0f 1f 44 00 00       	nopl   0x0(%rax,%rax,1)

0000000000001130 <memset@plt>:
    1130:	f3 0f 1e fa          	endbr64 
    1134:	f2 ff 25 65 2e 00 00 	bnd jmp *0x2e65(%rip)        # 3fa0 <memset@GLIBC_2.2.5>
    113b:	0f 1f 44 00 00       	nopl   0x0(%rax,%rax,1)

0000000000001140 <log10f@plt>:
    1140:	f3 0f 1e fa          	endbr64 
    1144:	f2 ff 25 5d 2e 00 00 	bnd jmp *0x2e5d(%rip)        # 3fa8 <log10f@GLIBC_2.2.5>
    114b:	0f 1f 44 00 00       	nopl   0x0(%rax,%rax,1)

0000000000001150 <sqrtf@plt>:
    1150:	f3 0f 1e fa          	endbr64 
    1154:	f2 ff 25 55 2e 00 00 	bnd jmp *0x2e55(%rip)        # 3fb0 <sqrtf@GLIBC_2.2.5>
    115b:	0f 1f 44 00 00       	nopl   0x0(%rax,%rax,1)

0000000000001160 <__printf_chk@plt>:
    1160:	f3 0f 1e fa          	endbr64 
    1164:	f2 ff 25 4d 2e 00 00 	bnd jmp *0x2e4d(%rip)        # 3fb8 <__printf_chk@GLIBC_2.3.4>
    116b:	0f 1f 44 00 00       	nopl   0x0(%rax,%rax,1)

0000000000001170 <fopen@plt>:
    1170:	f3 0f 1e fa          	endbr64 
    1174:	f2 ff 25 45 2e 00 00 	bnd jmp *0x2e45(%rip)        # 3fc0 <fopen@GLIBC_2.2.5>
    117b:	0f 1f 44 00 00       	nopl   0x0(%rax,%rax,1)

0000000000001180 <sqrt@plt>:
    1180:	f3 0f 1e fa          	endbr64 
    1184:	f2 ff 25 3d 2e 00 00 	bnd jmp *0x2e3d(%rip)        # 3fc8 <sqrt@GLIBC_2.2.5>
    118b:	0f 1f 44 00 00       	nopl   0x0(%rax,%rax,1)

0000000000001190 <__sprintf_chk@plt>:
    1190:	f3 0f 1e fa          	endbr64 
    1194:	f2 ff 25 35 2e 00 00 	bnd jmp *0x2e35(%rip)        # 3fd0 <__sprintf_chk@GLIBC_2.3.4>
    119b:	0f 1f 44 00 00       	nopl   0x0(%rax,%rax,1)

Disassembly of section .text:

00000000000011a0 <main>:
    11a0:	f3 0f 1e fa          	endbr64 
    11a4:	41 55                	push   %r13
    11a6:	4c 8d 2d 93 6e 01 00 	lea    0x16e93(%rip),%r13        # 18040 <buf1>
    11ad:	48 8d 3d 98 10 00 00 	lea    0x1098(%rip),%rdi        # 224c <_IO_stdin_used+0x24c>
    11b4:	41 54                	push   %r12
    11b6:	4c 89 ee             	mov    %r13,%rsi
    11b9:	4c 8d 25 80 ee 00 00 	lea    0xee80(%rip),%r12        # 10040 <out>
    11c0:	55                   	push   %rbp
    11c1:	48 8d 2d 78 2e 01 00 	lea    0x12e78(%rip),%rbp        # 14040 <sym>
    11c8:	53                   	push   %rbx
    11c9:	48 83 ec 28          	sub    $0x28,%rsp
    11cd:	e8 9e 05 00 00       	call   1770 <read_write_buffer.constprop.0>
    11d2:	48 8d 3d 9f 0e 00 00 	lea    0xe9f(%rip),%rdi        # 2078 <_IO_stdin_used+0x78>
    11d9:	e8 12 ff ff ff       	call   10f0 <puts@plt>
    11de:	b9 40 00 00 00       	mov    $0x40,%ecx
    11e3:	ba 40 00 00 00       	mov    $0x40,%edx
    11e8:	31 c0                	xor    %eax,%eax
    11ea:	48 8d 35 af 0e 00 00 	lea    0xeaf(%rip),%rsi        # 20a0 <_IO_stdin_used+0xa0>
    11f1:	bf 01 00 00 00       	mov    $0x1,%edi
    11f6:	e8 65 ff ff ff       	call   1160 <__printf_chk@plt>
    11fb:	31 f6                	xor    %esi,%esi
    11fd:	ba 00 40 00 00       	mov    $0x4000,%edx
    1202:	4c 89 e7             	mov    %r12,%rdi
    1205:	e8 26 ff ff ff       	call   1130 <memset@plt>
    120a:	31 f6                	xor    %esi,%esi
    120c:	ba 00 40 00 00       	mov    $0x4000,%edx
    1211:	48 89 ef             	mov    %rbp,%rdi
    1214:	e8 17 ff ff ff       	call   1130 <memset@plt>
    1219:	31 f6                	xor    %esi,%esi
    121b:	ba 00 40 00 00       	mov    $0x4000,%edx
    1220:	48 8d 3d 19 ae 00 00 	lea    0xae19(%rip),%rdi        # c040 <upper_triangular>
    1227:	e8 04 ff ff ff       	call   1130 <memset@plt>
    122c:	31 f6                	xor    %esi,%esi
    122e:	ba 00 40 00 00       	mov    $0x4000,%edx
    1233:	48 8d 3d 06 6e 00 00 	lea    0x6e06(%rip),%rdi        # 8040 <lower_triangular>
    123a:	e8 f1 fe ff ff       	call   1130 <memset@plt>
    123f:	ba 40 00 00 00       	mov    $0x40,%edx
    1244:	48 89 ee             	mov    %rbp,%rsi
    1247:	4c 89 ef             	mov    %r13,%rdi
    124a:	e8 91 05 00 00       	call   17e0 <array_to_positive_definite_matrix>
    124f:	85 c0                	test   %eax,%eax
    1251:	0f 85 60 03 00 00    	jne    15b7 <main+0x417>
    1257:	4c 89 e0             	mov    %r12,%rax
    125a:	49 8d 9c 24 00 40 00 	lea    0x4000(%r12),%rbx
    1261:	00 
    1262:	66 0f ef c9          	pxor   %xmm1,%xmm1
    1266:	eb 11                	jmp    1279 <main+0xd9>
    1268:	0f 1f 84 00 00 00 00 	nopl   0x0(%rax,%rax,1)
    126f:	00 
    1270:	48 83 c0 04          	add    $0x4,%rax
    1274:	48 39 d8             	cmp    %rbx,%rax
    1277:	74 2e                	je     12a7 <main+0x107>
    1279:	0f 2e 08             	ucomiss (%rax),%xmm1
    127c:	7a 02                	jp     1280 <main+0xe0>
    127e:	74 f0                	je     1270 <main+0xd0>
    1280:	48 8d 35 39 0e 00 00 	lea    0xe39(%rip),%rsi        # 20c0 <_IO_stdin_used+0xc0>
    1287:	bf 01 00 00 00       	mov    $0x1,%edi
    128c:	31 c0                	xor    %eax,%eax
    128e:	41 bc ff ff ff ff    	mov    $0xffffffff,%r12d
    1294:	e8 c7 fe ff ff       	call   1160 <__printf_chk@plt>
    1299:	48 83 c4 28          	add    $0x28,%rsp
    129d:	44 89 e0             	mov    %r12d,%eax
    12a0:	5b                   	pop    %rbx
    12a1:	5d                   	pop    %rbp
    12a2:	41 5c                	pop    %r12
    12a4:	41 5d                	pop    %r13
    12a6:	c3                   	ret    
    12a7:	4c 89 e6             	mov    %r12,%rsi
    12aa:	ba 40 00 00 00       	mov    $0x40,%edx
    12af:	48 89 ef             	mov    %rbp,%rdi
    12b2:	b9 40 00 00 00       	mov    $0x40,%ecx
    12b7:	e8 b4 06 00 00       	call   1970 <riscv_dsp_mat_cholesky_f32>
    12bc:	48 8d 35 a1 0f 00 00 	lea    0xfa1(%rip),%rsi        # 2264 <_IO_stdin_used+0x264>
    12c3:	bf 01 00 00 00       	mov    $0x1,%edi
    12c8:	41 89 c4             	mov    %eax,%r12d
    12cb:	89 c2                	mov    %eax,%edx
    12cd:	31 c0                	xor    %eax,%eax
    12cf:	e8 8c fe ff ff       	call   1160 <__printf_chk@plt>
    12d4:	45 85 e4             	test   %r12d,%r12d
    12d7:	0f 85 e3 02 00 00    	jne    15c0 <main+0x420>
    12dd:	48 8d 2d 5c 2d 00 00 	lea    0x2d5c(%rip),%rbp        # 4040 <golden>
    12e4:	48 8d 3d 75 0e 00 00 	lea    0xe75(%rip),%rdi        # 2160 <_IO_stdin_used+0x160>
    12eb:	48 89 ee             	mov    %rbp,%rsi
    12ee:	e8 7d 04 00 00       	call   1770 <read_write_buffer.constprop.0>
    12f3:	66 0f ef c9          	pxor   %xmm1,%xmm1
    12f7:	48 89 ea             	mov    %rbp,%rdx
    12fa:	48 8d 05 3f ed 00 00 	lea    0xed3f(%rip),%rax        # 10040 <out>
    1301:	0f 28 d1             	movaps %xmm1,%xmm2
    1304:	f3 0f 10 25 b4 0f 00 	movss  0xfb4(%rip),%xmm4        # 22c0 <_IO_stdin_used+0x2c0>
    130b:	00 
    130c:	0f 1f 40 00          	nopl   0x0(%rax)
    1310:	48 83 c2 04          	add    $0x4,%rdx
    1314:	f3 0f 10 00          	movss  (%rax),%xmm0
    1318:	48 83 c0 04          	add    $0x4,%rax
    131c:	f3 0f 5c 42 fc       	subss  -0x4(%rdx),%xmm0
    1321:	0f 54 c4             	andps  %xmm4,%xmm0
    1324:	f3 0f 5f c2          	maxss  %xmm2,%xmm0
    1328:	0f 28 d0             	movaps %xmm0,%xmm2
    132b:	48 39 d8             	cmp    %rbx,%rax
    132e:	75 e0                	jne    1310 <main+0x170>
    1330:	48 8d 35 41 0f 00 00 	lea    0xf41(%rip),%rsi        # 2278 <_IO_stdin_used+0x278>
    1337:	bf 01 00 00 00       	mov    $0x1,%edi
    133c:	b8 01 00 00 00       	mov    $0x1,%eax
    1341:	f3 0f 5a c0          	cvtss2sd %xmm0,%xmm0
    1345:	e8 16 fe ff ff       	call   1160 <__printf_chk@plt>
    134a:	66 0f ef c9          	pxor   %xmm1,%xmm1
    134e:	66 0f ef ff          	pxor   %xmm7,%xmm7
    1352:	48 8d 15 e7 2c 00 00 	lea    0x2ce7(%rip),%rdx        # 4040 <golden>
    1359:	66 0f 28 f7          	movapd %xmm7,%xmm6
    135d:	0f 28 e9             	movaps %xmm1,%xmm5
    1360:	44 0f 28 c1          	movaps %xmm1,%xmm8
    1364:	44 0f 28 c9          	movaps %xmm1,%xmm9
    1368:	48 8d 05 d1 ec 00 00 	lea    0xecd1(%rip),%rax        # 10040 <out>
    136f:	f3 0f 10 25 49 0f 00 	movss  0xf49(%rip),%xmm4        # 22c0 <_IO_stdin_used+0x2c0>
    1376:	00 
    1377:	66 0f 1f 84 00 00 00 	nopw   0x0(%rax,%rax,1)
    137e:	00 00 
    1380:	f3 0f 10 00          	movss  (%rax),%xmm0
    1384:	48 83 c0 04          	add    $0x4,%rax
    1388:	48 83 c2 04          	add    $0x4,%rdx
    138c:	f3 0f 10 52 fc       	movss  -0x4(%rdx),%xmm2
    1391:	66 0f 7e c1          	movd   %xmm0,%ecx
    1395:	81 f9 00 00 c0 7f    	cmp    $0x7fc00000,%ecx
    139b:	0f 84 a7 01 00 00    	je     1548 <main+0x3a8>
    13a1:	0f 28 da             	movaps %xmm2,%xmm3
    13a4:	f3 0f 5c c2          	subss  %xmm2,%xmm0
    13a8:	f3 41 0f 5f d9       	maxss  %xmm9,%xmm3
    13ad:	44 0f 28 cb          	movaps %xmm3,%xmm9
    13b1:	0f 28 da             	movaps %xmm2,%xmm3
    13b4:	f3 41 0f 5d d8       	minss  %xmm8,%xmm3
    13b9:	f3 0f 59 d2          	mulss  %xmm2,%xmm2
    13bd:	44 0f 28 c3          	movaps %xmm3,%xmm8
    13c1:	0f 28 d8             	movaps %xmm0,%xmm3
    13c4:	f3 0f 59 c0          	mulss  %xmm0,%xmm0
    13c8:	0f 54 dc             	andps  %xmm4,%xmm3
    13cb:	f3 0f 58 eb          	addss  %xmm3,%xmm5
    13cf:	f3 0f 5f d9          	maxss  %xmm1,%xmm3
    13d3:	f3 0f 5a d2          	cvtss2sd %xmm2,%xmm2
    13d7:	f2 0f 58 fa          	addsd  %xmm2,%xmm7
    13db:	0f 28 cb             	movaps %xmm3,%xmm1
    13de:	f3 0f 5a c0          	cvtss2sd %xmm0,%xmm0
    13e2:	f2 0f 58 f0          	addsd  %xmm0,%xmm6
    13e6:	48 39 d8             	cmp    %rbx,%rax
    13e9:	75 95                	jne    1380 <main+0x1e0>
    13eb:	66 48 0f 7e f0       	movq   %xmm6,%rax
    13f0:	f3 0f 11 5c 24 14    	movss  %xmm3,0x14(%rsp)
    13f6:	f3 44 0f 11 44 24 10 	movss  %xmm8,0x10(%rsp)
    13fd:	f3 44 0f 11 4c 24 0c 	movss  %xmm9,0xc(%rsp)
    1404:	f2 0f 11 3c 24       	movsd  %xmm7,(%rsp)
    1409:	3d 00 00 c0 7f       	cmp    $0x7fc00000,%eax
    140e:	0f 84 34 01 00 00    	je     1548 <main+0x3a8>
    1414:	f3 0f 59 2d 9c 0e 00 	mulss  0xe9c(%rip),%xmm5        # 22b8 <_IO_stdin_used+0x2b8>
    141b:	00 
    141c:	66 0f 28 c6          	movapd %xmm6,%xmm0
    1420:	f2 0f 11 74 24 18    	movsd  %xmm6,0x18(%rsp)
    1426:	f2 0f 59 05 a2 0e 00 	mulsd  0xea2(%rip),%xmm0        # 22d0 <_IO_stdin_used+0x2d0>
    142d:	00 
    142e:	66 0f 7e eb          	movd   %xmm5,%ebx
    1432:	e8 49 fd ff ff       	call   1180 <sqrt@plt>
    1437:	f3 44 0f 10 4c 24 0c 	movss  0xc(%rsp),%xmm9
    143e:	66 45 0f ef d2       	pxor   %xmm10,%xmm10
    1443:	f3 44 0f 10 44 24 10 	movss  0x10(%rsp),%xmm8
    144a:	f2 44 0f 5a d0       	cvtsd2ss %xmm0,%xmm10
    144f:	41 0f 28 fa          	movaps %xmm10,%xmm7
    1453:	66 0f ef ed          	pxor   %xmm5,%xmm5
    1457:	f2 0f 10 74 24 18    	movsd  0x18(%rsp),%xmm6
    145d:	41 0f 28 c1          	movaps %xmm9,%xmm0
    1461:	f3 0f 10 4c 24 14    	movss  0x14(%rsp),%xmm1
    1467:	f3 41 0f 5c c0       	subss  %xmm8,%xmm0
    146c:	66 0f 2e f5          	ucomisd %xmm5,%xmm6
    1470:	f3 0f 5e f8          	divss  %xmm0,%xmm7
    1474:	66 0f 7e fd          	movd   %xmm7,%ebp
    1478:	f2 0f 10 3c 24       	movsd  (%rsp),%xmm7
    147d:	0f 8a e5 00 00 00    	jp     1568 <main+0x3c8>
    1483:	f3 0f 10 25 29 0e 00 	movss  0xe29(%rip),%xmm4        # 22b4 <_IO_stdin_used+0x2b4>
    148a:	00 
    148b:	0f 85 d7 00 00 00    	jne    1568 <main+0x3c8>
    1491:	48 8d 3d f3 0d 00 00 	lea    0xdf3(%rip),%rdi        # 228b <_IO_stdin_used+0x28b>
    1498:	f3 0f 11 4c 24 10    	movss  %xmm1,0x10(%rsp)
    149e:	f3 0f 11 24 24       	movss  %xmm4,(%rsp)
    14a3:	f3 44 0f 11 54 24 0c 	movss  %xmm10,0xc(%rsp)
    14aa:	e8 41 fc ff ff       	call   10f0 <puts@plt>
    14af:	f3 0f 10 4c 24 10    	movss  0x10(%rsp),%xmm1
    14b5:	f3 0f 10 24 24       	movss  (%rsp),%xmm4
    14ba:	66 0f ef db          	pxor   %xmm3,%xmm3
    14be:	f3 44 0f 10 54 24 0c 	movss  0xc(%rsp),%xmm10
    14c5:	66 0f 6e ed          	movd   %ebp,%xmm5
    14c9:	66 0f 6e f3          	movd   %ebx,%xmm6
    14cd:	48 8d 35 b4 0c 00 00 	lea    0xcb4(%rip),%rsi        # 2188 <_IO_stdin_used+0x188>
    14d4:	f3 0f 5a d9          	cvtss2sd %xmm1,%xmm3
    14d8:	66 0f ef d2          	pxor   %xmm2,%xmm2
    14dc:	bf 01 00 00 00       	mov    $0x1,%edi
    14e1:	66 0f ef c0          	pxor   %xmm0,%xmm0
    14e5:	66 0f ef c9          	pxor   %xmm1,%xmm1
    14e9:	f3 0f 5a d5          	cvtss2sd %xmm5,%xmm2
    14ed:	f3 0f 5a c6          	cvtss2sd %xmm6,%xmm0
    14f1:	b8 05 00 00 00       	mov    $0x5,%eax
    14f6:	f2 0f 11 14 24       	movsd  %xmm2,(%rsp)
    14fb:	f3 0f 5a e4          	cvtss2sd %xmm4,%xmm4
    14ff:	f3 41 0f 5a ca       	cvtss2sd %xmm10,%xmm1
    1504:	e8 57 fc ff ff       	call   1160 <__printf_chk@plt>
    1509:	f2 0f 10 14 24       	movsd  (%rsp),%xmm2
    150e:	bf 01 00 00 00       	mov    $0x1,%edi
    1513:	48 8d 35 86 0d 00 00 	lea    0xd86(%rip),%rsi        # 22a0 <_IO_stdin_used+0x2a0>
    151a:	b8 01 00 00 00       	mov    $0x1,%eax
    151f:	66 0f 28 c2          	movapd %xmm2,%xmm0
    1523:	e8 38 fc ff ff       	call   1160 <__printf_chk@plt>
    1528:	f2 0f 10 14 24       	movsd  (%rsp),%xmm2
    152d:	66 0f 2f 15 a3 0d 00 	comisd 0xda3(%rip),%xmm2        # 22d8 <_IO_stdin_used+0x2d8>
    1534:	00 
    1535:	77 6b                	ja     15a2 <main+0x402>
    1537:	48 8d 3d ca 0c 00 00 	lea    0xcca(%rip),%rdi        # 2208 <_IO_stdin_used+0x208>
    153e:	e8 ad fb ff ff       	call   10f0 <puts@plt>
    1543:	e9 51 fd ff ff       	jmp    1299 <main+0xf9>
    1548:	f2 0f 10 05 90 0d 00 	movsd  0xd90(%rip),%xmm0        # 22e0 <_IO_stdin_used+0x2e0>
    154f:	00 
    1550:	bf 01 00 00 00       	mov    $0x1,%edi
    1555:	b8 01 00 00 00       	mov    $0x1,%eax
    155a:	48 8d 35 3f 0d 00 00 	lea    0xd3f(%rip),%rsi        # 22a0 <_IO_stdin_used+0x2a0>
    1561:	e8 fa fb ff ff       	call   1160 <__printf_chk@plt>
    1566:	eb cf                	jmp    1537 <main+0x397>
    1568:	f2 0f 5e fe          	divsd  %xmm6,%xmm7
    156c:	66 0f ef c0          	pxor   %xmm0,%xmm0
    1570:	f3 0f 11 4c 24 0c    	movss  %xmm1,0xc(%rsp)
    1576:	f3 44 0f 11 14 24    	movss  %xmm10,(%rsp)
    157c:	f2 0f 5a c7          	cvtsd2ss %xmm7,%xmm0
    1580:	e8 bb fb ff ff       	call   1140 <log10f@plt>
    1585:	f3 0f 10 4c 24 0c    	movss  0xc(%rsp),%xmm1
    158b:	f3 0f 10 25 29 0d 00 	movss  0xd29(%rip),%xmm4        # 22bc <_IO_stdin_used+0x2bc>
    1592:	00 
    1593:	f3 44 0f 10 14 24    	movss  (%rsp),%xmm10
    1599:	f3 0f 59 e0          	mulss  %xmm0,%xmm4
    159d:	e9 ef fe ff ff       	jmp    1491 <main+0x2f1>
    15a2:	48 8d 3d 37 0c 00 00 	lea    0xc37(%rip),%rdi        # 21e0 <_IO_stdin_used+0x1e0>
    15a9:	41 83 cc ff          	or     $0xffffffff,%r12d
    15ad:	e8 3e fb ff ff       	call   10f0 <puts@plt>
    15b2:	e9 e2 fc ff ff       	jmp    1299 <main+0xf9>
    15b7:	41 83 cc ff          	or     $0xffffffff,%r12d
    15bb:	e9 d9 fc ff ff       	jmp    1299 <main+0xf9>
    15c0:	48 8d 3d 39 0b 00 00 	lea    0xb39(%rip),%rdi        # 2100 <_IO_stdin_used+0x100>
    15c7:	41 83 cc ff          	or     $0xffffffff,%r12d
    15cb:	e8 20 fb ff ff       	call   10f0 <puts@plt>
    15d0:	e9 c4 fc ff ff       	jmp    1299 <main+0xf9>
    15d5:	66 2e 0f 1f 84 00 00 	cs nopw 0x0(%rax,%rax,1)
    15dc:	00 00 00 
    15df:	90                   	nop

00000000000015e0 <_start>:
    15e0:	f3 0f 1e fa          	endbr64 
    15e4:	31 ed                	xor    %ebp,%ebp
    15e6:	49 89 d1             	mov    %rdx,%r9
    15e9:	5e                   	pop    %rsi
    15ea:	48 89 e2             	mov    %rsp,%rdx
    15ed:	48 83 e4 f0          	and    $0xfffffffffffffff0,%rsp
    15f1:	50                   	push   %rax
    15f2:	54                   	push   %rsp
    15f3:	45 31 c0             	xor    %r8d,%r8d
    15f6:	31 c9                	xor    %ecx,%ecx
    15f8:	48 8d 3d a1 fb ff ff 	lea    -0x45f(%rip),%rdi        # 11a0 <main>
    15ff:	ff 15 d3 29 00 00    	call   *0x29d3(%rip)        # 3fd8 <__libc_start_main@GLIBC_2.34>
    1605:	f4                   	hlt    
    1606:	66 2e 0f 1f 84 00 00 	cs nopw 0x0(%rax,%rax,1)
    160d:	00 00 00 

0000000000001610 <deregister_tm_clones>:
    1610:	48 8d 3d f9 29 00 00 	lea    0x29f9(%rip),%rdi        # 4010 <__TMC_END__>
    1617:	48 8d 05 f2 29 00 00 	lea    0x29f2(%rip),%rax        # 4010 <__TMC_END__>
    161e:	48 39 f8             	cmp    %rdi,%rax
    1621:	74 15                	je     1638 <deregister_tm_clones+0x28>
    1623:	48 8b 05 b6 29 00 00 	mov    0x29b6(%rip),%rax        # 3fe0 <_ITM_deregisterTMCloneTable@Base>
    162a:	48 85 c0             	test   %rax,%rax
    162d:	74 09                	je     1638 <deregister_tm_clones+0x28>
    162f:	ff e0                	jmp    *%rax
    1631:	0f 1f 80 00 00 00 00 	nopl   0x0(%rax)
    1638:	c3                   	ret    
    1639:	0f 1f 80 00 00 00 00 	nopl   0x0(%rax)

0000000000001640 <register_tm_clones>:
    1640:	48 8d 3d c9 29 00 00 	lea    0x29c9(%rip),%rdi        # 4010 <__TMC_END__>
    1647:	48 8d 35 c2 29 00 00 	lea    0x29c2(%rip),%rsi        # 4010 <__TMC_END__>
    164e:	48 29 fe             	sub    %rdi,%rsi
    1651:	48 89 f0             	mov    %rsi,%rax
    1654:	48 c1 ee 3f          	shr    $0x3f,%rsi
    1658:	48 c1 f8 03          	sar    $0x3,%rax
    165c:	48 01 c6             	add    %rax,%rsi
    165f:	48 d1 fe             	sar    %rsi
    1662:	74 14                	je     1678 <register_tm_clones+0x38>
    1664:	48 8b 05 85 29 00 00 	mov    0x2985(%rip),%rax        # 3ff0 <_ITM_registerTMCloneTable@Base>
    166b:	48 85 c0             	test   %rax,%rax
    166e:	74 08                	je     1678 <register_tm_clones+0x38>
    1670:	ff e0                	jmp    *%rax
    1672:	66 0f 1f 44 00 00    	nopw   0x0(%rax,%rax,1)
    1678:	c3                   	ret    
    1679:	0f 1f 80 00 00 00 00 	nopl   0x0(%rax)

0000000000001680 <__do_global_dtors_aux>:
    1680:	f3 0f 1e fa          	endbr64 
    1684:	80 3d 95 29 00 00 00 	cmpb   $0x0,0x2995(%rip)        # 4020 <completed.0>
    168b:	75 2b                	jne    16b8 <__do_global_dtors_aux+0x38>
    168d:	55                   	push   %rbp
    168e:	48 83 3d 62 29 00 00 	cmpq   $0x0,0x2962(%rip)        # 3ff8 <__cxa_finalize@GLIBC_2.2.5>
    1695:	00 
    1696:	48 89 e5             	mov    %rsp,%rbp
    1699:	74 0c                	je     16a7 <__do_global_dtors_aux+0x27>
    169b:	48 8b 3d 66 29 00 00 	mov    0x2966(%rip),%rdi        # 4008 <__dso_handle>
    16a2:	e8 39 fa ff ff       	call   10e0 <__cxa_finalize@plt>
    16a7:	e8 64 ff ff ff       	call   1610 <deregister_tm_clones>
    16ac:	c6 05 6d 29 00 00 01 	movb   $0x1,0x296d(%rip)        # 4020 <completed.0>
    16b3:	5d                   	pop    %rbp
    16b4:	c3                   	ret    
    16b5:	0f 1f 00             	nopl   (%rax)
    16b8:	c3                   	ret    
    16b9:	0f 1f 80 00 00 00 00 	nopl   0x0(%rax)

00000000000016c0 <frame_dummy>:
    16c0:	f3 0f 1e fa          	endbr64 
    16c4:	e9 77 ff ff ff       	jmp    1640 <register_tm_clones>
    16c9:	0f 1f 80 00 00 00 00 	nopl   0x0(%rax)

00000000000016d0 <test_Fopen.constprop.0.isra.0>:
    16d0:	41 54                	push   %r12
    16d2:	49 89 f9             	mov    %rdi,%r9
    16d5:	49 89 fc             	mov    %rdi,%r12
    16d8:	4c 8d 05 29 09 00 00 	lea    0x929(%rip),%r8        # 2008 <_IO_stdin_used+0x8>
    16df:	55                   	push   %rbp
    16e0:	48 8d 0d 43 0b 00 00 	lea    0xb43(%rip),%rcx        # 222a <_IO_stdin_used+0x22a>
    16e7:	ba 00 04 00 00       	mov    $0x400,%edx
    16ec:	53                   	push   %rbx
    16ed:	48 89 f3             	mov    %rsi,%rbx
    16f0:	be 01 00 00 00       	mov    $0x1,%esi
    16f5:	48 81 ec 10 04 00 00 	sub    $0x410,%rsp
    16fc:	64 48 8b 04 25 28 00 	mov    %fs:0x28,%rax
    1703:	00 00 
    1705:	48 89 84 24 08 04 00 	mov    %rax,0x408(%rsp)
    170c:	00 
    170d:	31 c0                	xor    %eax,%eax
    170f:	48 89 e5             	mov    %rsp,%rbp
    1712:	48 89 ef             	mov    %rbp,%rdi
    1715:	e8 76 fa ff ff       	call   1190 <__sprintf_chk@plt>
    171a:	48 8d 35 0f 0b 00 00 	lea    0xb0f(%rip),%rsi        # 2230 <_IO_stdin_used+0x230>
    1721:	48 89 ef             	mov    %rbp,%rdi
    1724:	e8 47 fa ff ff       	call   1170 <fopen@plt>
    1729:	48 89 03             	mov    %rax,(%rbx)
    172c:	48 85 c0             	test   %rax,%rax
    172f:	74 1f                	je     1750 <test_Fopen.constprop.0.isra.0+0x80>
    1731:	48 8b 84 24 08 04 00 	mov    0x408(%rsp),%rax
    1738:	00 
    1739:	64 48 2b 04 25 28 00 	sub    %fs:0x28,%rax
    1740:	00 00 
    1742:	75 22                	jne    1766 <test_Fopen.constprop.0.isra.0+0x96>
    1744:	48 81 c4 10 04 00 00 	add    $0x410,%rsp
    174b:	5b                   	pop    %rbx
    174c:	5d                   	pop    %rbp
    174d:	41 5c                	pop    %r12
    174f:	c3                   	ret    
    1750:	4c 89 e2             	mov    %r12,%rdx
    1753:	48 8d 35 d9 0a 00 00 	lea    0xad9(%rip),%rsi        # 2233 <_IO_stdin_used+0x233>
    175a:	bf 01 00 00 00       	mov    $0x1,%edi
    175f:	e8 fc f9 ff ff       	call   1160 <__printf_chk@plt>
    1764:	eb cb                	jmp    1731 <test_Fopen.constprop.0.isra.0+0x61>
    1766:	e8 b5 f9 ff ff       	call   1120 <__stack_chk_fail@plt>
    176b:	0f 1f 44 00 00       	nopl   0x0(%rax,%rax,1)

0000000000001770 <read_write_buffer.constprop.0>:
    1770:	41 54                	push   %r12
    1772:	55                   	push   %rbp
    1773:	48 89 f5             	mov    %rsi,%rbp
    1776:	48 83 ec 18          	sub    $0x18,%rsp
    177a:	64 48 8b 04 25 28 00 	mov    %fs:0x28,%rax
    1781:	00 00 
    1783:	48 89 44 24 08       	mov    %rax,0x8(%rsp)
    1788:	31 c0                	xor    %eax,%eax
    178a:	48 89 e6             	mov    %rsp,%rsi
    178d:	48 c7 04 24 00 00 00 	movq   $0x0,(%rsp)
    1794:	00 
    1795:	e8 36 ff ff ff       	call   16d0 <test_Fopen.constprop.0.isra.0>
    179a:	4c 8b 24 24          	mov    (%rsp),%r12
    179e:	ba 00 10 00 00       	mov    $0x1000,%edx
    17a3:	48 89 ef             	mov    %rbp,%rdi
    17a6:	be 04 00 00 00       	mov    $0x4,%esi
    17ab:	4c 89 e1             	mov    %r12,%rcx
    17ae:	e8 4d f9 ff ff       	call   1100 <fread@plt>
    17b3:	48 8b 44 24 08       	mov    0x8(%rsp),%rax
    17b8:	64 48 2b 04 25 28 00 	sub    %fs:0x28,%rax
    17bf:	00 00 
    17c1:	75 0f                	jne    17d2 <read_write_buffer.constprop.0+0x62>
    17c3:	48 83 c4 18          	add    $0x18,%rsp
    17c7:	4c 89 e7             	mov    %r12,%rdi
    17ca:	5d                   	pop    %rbp
    17cb:	41 5c                	pop    %r12
    17cd:	e9 3e f9 ff ff       	jmp    1110 <fclose@plt>
    17d2:	e8 49 f9 ff ff       	call   1120 <__stack_chk_fail@plt>
    17d7:	66 0f 1f 84 00 00 00 	nopw   0x0(%rax,%rax,1)
    17de:	00 00 

00000000000017e0 <array_to_positive_definite_matrix>:
    17e0:	f3 0f 1e fa          	endbr64 
    17e4:	41 55                	push   %r13
    17e6:	41 54                	push   %r12
    17e8:	49 89 f4             	mov    %rsi,%r12
    17eb:	55                   	push   %rbp
    17ec:	53                   	push   %rbx
    17ed:	48 83 ec 08          	sub    $0x8,%rsp
    17f1:	85 d2                	test   %edx,%edx
    17f3:	0f 84 32 01 00 00    	je     192b <array_to_positive_definite_matrix+0x14b>
    17f9:	f3 0f 10 0d af 0a 00 	movss  0xaaf(%rip),%xmm1        # 22b0 <_IO_stdin_used+0x2b0>
    1800:	00 
    1801:	49 89 f8             	mov    %rdi,%r8
    1804:	89 d3                	mov    %edx,%ebx
    1806:	31 ff                	xor    %edi,%edi
    1808:	31 f6                	xor    %esi,%esi
    180a:	45 31 d2             	xor    %r10d,%r10d
    180d:	48 8d 2d 2c a8 00 00 	lea    0xa82c(%rip),%rbp        # c040 <upper_triangular>
    1814:	0f 1f 40 00          	nopl   0x0(%rax)
    1818:	44 8d 4e 01          	lea    0x1(%rsi),%r9d
    181c:	39 f3                	cmp    %esi,%ebx
    181e:	76 37                	jbe    1857 <array_to_positive_definite_matrix+0x77>
    1820:	49 63 c2             	movslq %r10d,%rax
    1823:	44 8d 4e 01          	lea    0x1(%rsi),%r9d
    1827:	49 8d 0c 80          	lea    (%r8,%rax,4),%rcx
    182b:	89 f0                	mov    %esi,%eax
    182d:	0f 1f 00             	nopl   (%rax)
    1830:	f3 0f 10 01          	movss  (%rcx),%xmm0
    1834:	8d 14 38             	lea    (%rax,%rdi,1),%edx
    1837:	39 c6                	cmp    %eax,%esi
    1839:	0f 84 b1 00 00 00    	je     18f0 <array_to_positive_definite_matrix+0x110>
    183f:	83 c0 01             	add    $0x1,%eax
    1842:	f3 0f 11 44 95 00    	movss  %xmm0,0x0(%rbp,%rdx,4)
    1848:	48 83 c1 04          	add    $0x4,%rcx
    184c:	39 d8                	cmp    %ebx,%eax
    184e:	75 e0                	jne    1830 <array_to_positive_definite_matrix+0x50>
    1850:	89 d8                	mov    %ebx,%eax
    1852:	29 f0                	sub    %esi,%eax
    1854:	41 01 c2             	add    %eax,%r10d
    1857:	44 89 ce             	mov    %r9d,%esi
    185a:	01 df                	add    %ebx,%edi
    185c:	41 39 d9             	cmp    %ebx,%r9d
    185f:	75 b7                	jne    1818 <array_to_positive_definite_matrix+0x38>
    1861:	4c 8d 2d d8 67 00 00 	lea    0x67d8(%rip),%r13        # 8040 <lower_triangular>
    1868:	89 d9                	mov    %ebx,%ecx
    186a:	89 da                	mov    %ebx,%edx
    186c:	48 89 ef             	mov    %rbp,%rdi
    186f:	4c 89 ee             	mov    %r13,%rsi
    1872:	e8 79 04 00 00       	call   1cf0 <riscv_dsp_mat_trans_f32>
    1877:	41 89 d9             	mov    %ebx,%r9d
    187a:	41 89 d8             	mov    %ebx,%r8d
    187d:	4c 89 ef             	mov    %r13,%rdi
    1880:	89 d9                	mov    %ebx,%ecx
    1882:	4c 89 e2             	mov    %r12,%rdx
    1885:	48 89 ee             	mov    %rbp,%rsi
    1888:	e8 43 03 00 00       	call   1bd0 <riscv_dsp_mat_mul_f32>
    188d:	44 8d 53 01          	lea    0x1(%rbx),%r10d
    1891:	41 89 d9             	mov    %ebx,%r9d
    1894:	31 ff                	xor    %edi,%edi
    1896:	45 31 c0             	xor    %r8d,%r8d
    1899:	41 83 c0 01          	add    $0x1,%r8d
    189d:	44 39 c3             	cmp    %r8d,%ebx
    18a0:	76 6e                	jbe    1910 <array_to_positive_definite_matrix+0x130>
    18a2:	44 89 ce             	mov    %r9d,%esi
    18a5:	44 89 c1             	mov    %r8d,%ecx
    18a8:	eb 0f                	jmp    18b9 <array_to_positive_definite_matrix+0xd9>
    18aa:	66 0f 1f 44 00 00    	nopw   0x0(%rax,%rax,1)
    18b0:	83 c1 01             	add    $0x1,%ecx
    18b3:	01 de                	add    %ebx,%esi
    18b5:	39 cb                	cmp    %ecx,%ebx
    18b7:	76 57                	jbe    1910 <array_to_positive_definite_matrix+0x130>
    18b9:	8d 14 39             	lea    (%rcx,%rdi,1),%edx
    18bc:	89 f0                	mov    %esi,%eax
    18be:	f3 41 0f 10 04 94    	movss  (%r12,%rdx,4),%xmm0
    18c4:	41 0f 2e 04 84       	ucomiss (%r12,%rax,4),%xmm0
    18c9:	7a 02                	jp     18cd <array_to_positive_definite_matrix+0xed>
    18cb:	74 e3                	je     18b0 <array_to_positive_definite_matrix+0xd0>
    18cd:	48 8d 3d 74 07 00 00 	lea    0x774(%rip),%rdi        # 2048 <_IO_stdin_used+0x48>
    18d4:	e8 17 f8 ff ff       	call   10f0 <puts@plt>
    18d9:	48 83 c4 08          	add    $0x8,%rsp
    18dd:	b8 01 00 00 00       	mov    $0x1,%eax
    18e2:	5b                   	pop    %rbx
    18e3:	5d                   	pop    %rbp
    18e4:	41 5c                	pop    %r12
    18e6:	41 5d                	pop    %r13
    18e8:	c3                   	ret    
    18e9:	0f 1f 80 00 00 00 00 	nopl   0x0(%rax)
    18f0:	f3 0f 58 c1          	addss  %xmm1,%xmm0
    18f4:	44 89 c8             	mov    %r9d,%eax
    18f7:	48 83 c1 04          	add    $0x4,%rcx
    18fb:	f3 0f 11 44 95 00    	movss  %xmm0,0x0(%rbp,%rdx,4)
    1901:	41 39 d9             	cmp    %ebx,%r9d
    1904:	0f 85 26 ff ff ff    	jne    1830 <array_to_positive_definite_matrix+0x50>
    190a:	e9 41 ff ff ff       	jmp    1850 <array_to_positive_definite_matrix+0x70>
    190f:	90                   	nop
    1910:	45 01 d1             	add    %r10d,%r9d
    1913:	01 df                	add    %ebx,%edi
    1915:	41 39 d8             	cmp    %ebx,%r8d
    1918:	0f 85 7b ff ff ff    	jne    1899 <array_to_positive_definite_matrix+0xb9>
    191e:	31 c0                	xor    %eax,%eax
    1920:	48 83 c4 08          	add    $0x8,%rsp
    1924:	5b                   	pop    %rbx
    1925:	5d                   	pop    %rbp
    1926:	41 5c                	pop    %r12
    1928:	41 5d                	pop    %r13
    192a:	c3                   	ret    
    192b:	48 8d 2d 0e 67 00 00 	lea    0x670e(%rip),%rbp        # 8040 <lower_triangular>
    1932:	4c 8d 2d 07 a7 00 00 	lea    0xa707(%rip),%r13        # c040 <upper_triangular>
    1939:	31 c9                	xor    %ecx,%ecx
    193b:	31 d2                	xor    %edx,%edx
    193d:	48 89 ee             	mov    %rbp,%rsi
    1940:	4c 89 ef             	mov    %r13,%rdi
    1943:	e8 a8 03 00 00       	call   1cf0 <riscv_dsp_mat_trans_f32>
    1948:	45 31 c9             	xor    %r9d,%r9d
    194b:	45 31 c0             	xor    %r8d,%r8d
    194e:	31 c9                	xor    %ecx,%ecx
    1950:	4c 89 e2             	mov    %r12,%rdx
    1953:	4c 89 ee             	mov    %r13,%rsi
    1956:	48 89 ef             	mov    %rbp,%rdi
    1959:	e8 72 02 00 00       	call   1bd0 <riscv_dsp_mat_mul_f32>
    195e:	31 c0                	xor    %eax,%eax
    1960:	eb be                	jmp    1920 <array_to_positive_definite_matrix+0x140>
    1962:	66 2e 0f 1f 84 00 00 	cs nopw 0x0(%rax,%rax,1)
    1969:	00 00 00 
    196c:	0f 1f 40 00          	nopl   0x0(%rax)

0000000000001970 <riscv_dsp_mat_cholesky_f32>:
    1970:	f3 0f 1e fa          	endbr64 
    1974:	41 57                	push   %r15
    1976:	89 c8                	mov    %ecx,%eax
    1978:	41 56                	push   %r14
    197a:	41 55                	push   %r13
    197c:	41 54                	push   %r12
    197e:	41 89 d4             	mov    %edx,%r12d
    1981:	55                   	push   %rbp
    1982:	53                   	push   %rbx
    1983:	48 83 ec 28          	sub    $0x28,%rsp
    1987:	85 d2                	test   %edx,%edx
    1989:	0f 94 c2             	sete   %dl
    198c:	41 39 cc             	cmp    %ecx,%r12d
    198f:	0f 95 c1             	setne  %cl
    1992:	08 ca                	or     %cl,%dl
    1994:	0f 85 00 02 00 00    	jne    1b9a <riscv_dsp_mat_cholesky_f32+0x22a>
    199a:	85 c0                	test   %eax,%eax
    199c:	0f 84 f8 01 00 00    	je     1b9a <riscv_dsp_mat_cholesky_f32+0x22a>
    19a2:	45 85 e4             	test   %r12d,%r12d
    19a5:	0f 8e cf 01 00 00    	jle    1b7a <riscv_dsp_mat_cholesky_f32+0x20a>
    19ab:	49 63 c4             	movslq %r12d,%rax
    19ae:	48 89 f3             	mov    %rsi,%rbx
    19b1:	c7 44 24 14 00 00 00 	movl   $0x0,0x14(%rsp)
    19b8:	00 
    19b9:	31 ed                	xor    %ebp,%ebp
    19bb:	48 89 1c 24          	mov    %rbx,(%rsp)
    19bf:	49 89 fd             	mov    %rdi,%r13
    19c2:	45 31 f6             	xor    %r14d,%r14d
    19c5:	66 0f ef db          	pxor   %xmm3,%xmm3
    19c9:	48 8d 34 85 04 00 00 	lea    0x4(,%rax,4),%rsi
    19d0:	00 
    19d1:	f3 0f 10 25 0f 09 00 	movss  0x90f(%rip),%xmm4        # 22e8 <_IO_stdin_used+0x2e8>
    19d8:	00 
    19d9:	48 c7 44 24 08 00 00 	movq   $0x0,0x8(%rsp)
    19e0:	00 00 
    19e2:	4c 8d 3c 85 00 00 00 	lea    0x0(,%rax,4),%r15
    19e9:	00 
    19ea:	48 89 74 24 18       	mov    %rsi,0x18(%rsp)
    19ef:	90                   	nop
    19f0:	8d 45 ff             	lea    -0x1(%rbp),%eax
    19f3:	41 89 eb             	mov    %ebp,%r11d
    19f6:	48 8b 74 24 08       	mov    0x8(%rsp),%rsi
    19fb:	44 8b 44 24 14       	mov    0x14(%rsp),%r8d
    1a00:	89 44 24 10          	mov    %eax,0x10(%rsp)
    1a04:	49 63 c6             	movslq %r14d,%rax
    1a07:	41 83 e3 fc          	and    $0xfffffffc,%r11d
    1a0b:	41 89 e9             	mov    %ebp,%r9d
    1a0e:	48 8d 3c 83          	lea    (%rbx,%rax,4),%rdi
    1a12:	89 e8                	mov    %ebp,%eax
    1a14:	c1 e8 02             	shr    $0x2,%eax
    1a17:	8d 50 ff             	lea    -0x1(%rax),%edx
    1a1a:	48 83 c2 01          	add    $0x1,%rdx
    1a1e:	48 c1 e2 04          	shl    $0x4,%rdx
    1a22:	66 0f 1f 44 00 00    	nopw   0x0(%rax,%rax,1)
    1a28:	0f 28 cb             	movaps %xmm3,%xmm1
    1a2b:	85 ed                	test   %ebp,%ebp
    1a2d:	0f 84 bb 00 00 00    	je     1aee <riscv_dsp_mat_cholesky_f32+0x17e>
    1a33:	83 7c 24 10 02       	cmpl   $0x2,0x10(%rsp)
    1a38:	0f 86 52 01 00 00    	jbe    1b90 <riscv_dsp_mat_cholesky_f32+0x220>
    1a3e:	48 8b 04 24          	mov    (%rsp),%rax
    1a42:	0f 28 cb             	movaps %xmm3,%xmm1
    1a45:	48 8d 0c 06          	lea    (%rsi,%rax,1),%rcx
    1a49:	31 c0                	xor    %eax,%eax
    1a4b:	0f 1f 44 00 00       	nopl   0x0(%rax,%rax,1)
    1a50:	0f 10 04 01          	movups (%rcx,%rax,1),%xmm0
    1a54:	0f 10 2c 07          	movups (%rdi,%rax,1),%xmm5
    1a58:	48 83 c0 10          	add    $0x10,%rax
    1a5c:	0f 59 c5             	mulps  %xmm5,%xmm0
    1a5f:	f3 0f 58 c8          	addss  %xmm0,%xmm1
    1a63:	0f 28 d0             	movaps %xmm0,%xmm2
    1a66:	0f c6 d0 55          	shufps $0x55,%xmm0,%xmm2
    1a6a:	f3 0f 58 d1          	addss  %xmm1,%xmm2
    1a6e:	0f 28 c8             	movaps %xmm0,%xmm1
    1a71:	0f 15 c8             	unpckhps %xmm0,%xmm1
    1a74:	0f c6 c0 ff          	shufps $0xff,%xmm0,%xmm0
    1a78:	f3 0f 58 ca          	addss  %xmm2,%xmm1
    1a7c:	f3 0f 58 c8          	addss  %xmm0,%xmm1
    1a80:	48 39 d0             	cmp    %rdx,%rax
    1a83:	75 cb                	jne    1a50 <riscv_dsp_mat_cholesky_f32+0xe0>
    1a85:	44 89 d8             	mov    %r11d,%eax
    1a88:	41 39 eb             	cmp    %ebp,%r11d
    1a8b:	74 61                	je     1aee <riscv_dsp_mat_cholesky_f32+0x17e>
    1a8d:	45 8d 14 06          	lea    (%r14,%rax,1),%r10d
    1a91:	42 8d 0c 00          	lea    (%rax,%r8,1),%ecx
    1a95:	48 63 c9             	movslq %ecx,%rcx
    1a98:	4d 63 d2             	movslq %r10d,%r10
    1a9b:	f3 42 0f 10 04 93    	movss  (%rbx,%r10,4),%xmm0
    1aa1:	f3 0f 59 04 8b       	mulss  (%rbx,%rcx,4),%xmm0
    1aa6:	8d 48 01             	lea    0x1(%rax),%ecx
    1aa9:	f3 0f 58 c8          	addss  %xmm0,%xmm1
    1aad:	39 cd                	cmp    %ecx,%ebp
    1aaf:	7e 3d                	jle    1aee <riscv_dsp_mat_cholesky_f32+0x17e>
    1ab1:	45 8d 14 0e          	lea    (%r14,%rcx,1),%r10d
    1ab5:	44 01 c1             	add    %r8d,%ecx
    1ab8:	83 c0 02             	add    $0x2,%eax
    1abb:	4d 63 d2             	movslq %r10d,%r10
    1abe:	48 63 c9             	movslq %ecx,%rcx
    1ac1:	f3 42 0f 10 04 93    	movss  (%rbx,%r10,4),%xmm0
    1ac7:	f3 0f 59 04 8b       	mulss  (%rbx,%rcx,4),%xmm0
    1acc:	f3 0f 58 c8          	addss  %xmm0,%xmm1
    1ad0:	39 c5                	cmp    %eax,%ebp
    1ad2:	7e 1a                	jle    1aee <riscv_dsp_mat_cholesky_f32+0x17e>
    1ad4:	42 8d 0c 00          	lea    (%rax,%r8,1),%ecx
    1ad8:	44 01 f0             	add    %r14d,%eax
    1adb:	48 63 c9             	movslq %ecx,%rcx
    1ade:	48 98                	cltq   
    1ae0:	f3 0f 10 04 8b       	movss  (%rbx,%rcx,4),%xmm0
    1ae5:	f3 0f 59 04 83       	mulss  (%rbx,%rax,4),%xmm0
    1aea:	f3 0f 58 c8          	addss  %xmm0,%xmm1
    1aee:	f3 41 0f 10 44 35 00 	movss  0x0(%r13,%rsi,1),%xmm0
    1af5:	41 83 c1 01          	add    $0x1,%r9d
    1af9:	45 01 e0             	add    %r12d,%r8d
    1afc:	f3 0f 5c c1          	subss  %xmm1,%xmm0
    1b00:	f3 0f 11 04 33       	movss  %xmm0,(%rbx,%rsi,1)
    1b05:	4c 01 fe             	add    %r15,%rsi
    1b08:	45 39 cc             	cmp    %r9d,%r12d
    1b0b:	0f 8f 17 ff ff ff    	jg     1a28 <riscv_dsp_mat_cholesky_f32+0xb8>
    1b11:	48 8b 44 24 08       	mov    0x8(%rsp),%rax
    1b16:	f3 0f 10 04 03       	movss  (%rbx,%rax,1),%xmm0
    1b1b:	0f 2f d8             	comiss %xmm0,%xmm3
    1b1e:	73 7a                	jae    1b9a <riscv_dsp_mat_cholesky_f32+0x22a>
    1b20:	0f 2e d8             	ucomiss %xmm0,%xmm3
    1b23:	0f 87 85 00 00 00    	ja     1bae <riscv_dsp_mat_cholesky_f32+0x23e>
    1b29:	f3 0f 51 c0          	sqrtss %xmm0,%xmm0
    1b2d:	0f 28 cc             	movaps %xmm4,%xmm1
    1b30:	48 01 d8             	add    %rbx,%rax
    1b33:	89 ea                	mov    %ebp,%edx
    1b35:	f3 0f 5e c8          	divss  %xmm0,%xmm1
    1b39:	0f 1f 80 00 00 00 00 	nopl   0x0(%rax)
    1b40:	f3 0f 10 00          	movss  (%rax),%xmm0
    1b44:	83 c2 01             	add    $0x1,%edx
    1b47:	f3 0f 59 c1          	mulss  %xmm1,%xmm0
    1b4b:	f3 0f 11 00          	movss  %xmm0,(%rax)
    1b4f:	4c 01 f8             	add    %r15,%rax
    1b52:	41 39 d4             	cmp    %edx,%r12d
    1b55:	7f e9                	jg     1b40 <riscv_dsp_mat_cholesky_f32+0x1d0>
    1b57:	83 c5 01             	add    $0x1,%ebp
    1b5a:	48 8b 74 24 18       	mov    0x18(%rsp),%rsi
    1b5f:	44 01 64 24 14       	add    %r12d,0x14(%rsp)
    1b64:	45 01 e6             	add    %r12d,%r14d
    1b67:	48 01 74 24 08       	add    %rsi,0x8(%rsp)
    1b6c:	48 83 2c 24 04       	subq   $0x4,(%rsp)
    1b71:	41 39 ec             	cmp    %ebp,%r12d
    1b74:	0f 85 76 fe ff ff    	jne    19f0 <riscv_dsp_mat_cholesky_f32+0x80>
    1b7a:	48 83 c4 28          	add    $0x28,%rsp
    1b7e:	31 c0                	xor    %eax,%eax
    1b80:	5b                   	pop    %rbx
    1b81:	5d                   	pop    %rbp
    1b82:	41 5c                	pop    %r12
    1b84:	41 5d                	pop    %r13
    1b86:	41 5e                	pop    %r14
    1b88:	41 5f                	pop    %r15
    1b8a:	c3                   	ret    
    1b8b:	0f 1f 44 00 00       	nopl   0x0(%rax,%rax,1)
    1b90:	0f 28 cb             	movaps %xmm3,%xmm1
    1b93:	31 c0                	xor    %eax,%eax
    1b95:	e9 f3 fe ff ff       	jmp    1a8d <riscv_dsp_mat_cholesky_f32+0x11d>
    1b9a:	48 83 c4 28          	add    $0x28,%rsp
    1b9e:	b8 ff ff ff ff       	mov    $0xffffffff,%eax
    1ba3:	5b                   	pop    %rbx
    1ba4:	5d                   	pop    %rbp
    1ba5:	41 5c                	pop    %r12
    1ba7:	41 5d                	pop    %r13
    1ba9:	41 5e                	pop    %r14
    1bab:	41 5f                	pop    %r15
    1bad:	c3                   	ret    
    1bae:	e8 9d f5 ff ff       	call   1150 <sqrtf@plt>
    1bb3:	48 8b 44 24 08       	mov    0x8(%rsp),%rax
    1bb8:	66 0f ef db          	pxor   %xmm3,%xmm3
    1bbc:	f3 0f 10 25 24 07 00 	movss  0x724(%rip),%xmm4        # 22e8 <_IO_stdin_used+0x2e8>
    1bc3:	00 
    1bc4:	e9 64 ff ff ff       	jmp    1b2d <riscv_dsp_mat_cholesky_f32+0x1bd>
    1bc9:	0f 1f 80 00 00 00 00 	nopl   0x0(%rax)

0000000000001bd0 <riscv_dsp_mat_mul_f32>:
    1bd0:	f3 0f 1e fa          	endbr64 
    1bd4:	41 57                	push   %r15
    1bd6:	49 89 d3             	mov    %rdx,%r11
    1bd9:	44 89 c2             	mov    %r8d,%edx
    1bdc:	48 89 f8             	mov    %rdi,%rax
    1bdf:	41 56                	push   %r14
    1be1:	49 89 f2             	mov    %rsi,%r10
    1be4:	83 ea 01             	sub    $0x1,%edx
    1be7:	41 55                	push   %r13
    1be9:	41 54                	push   %r12
    1beb:	55                   	push   %rbp
    1bec:	53                   	push   %rbx
    1bed:	89 cb                	mov    %ecx,%ebx
    1bef:	44 89 c9             	mov    %r9d,%ecx
    1bf2:	49 89 cc             	mov    %rcx,%r12
    1bf5:	48 c1 e1 02          	shl    $0x2,%rcx
    1bf9:	41 83 fc 01          	cmp    $0x1,%r12d
    1bfd:	75 63                	jne    1c62 <riscv_dsp_mat_mul_f32+0x92>
    1bff:	48 8d 2c 95 04 00 00 	lea    0x4(,%rdx,4),%rbp
    1c06:	00 
    1c07:	66 0f ef d2          	pxor   %xmm2,%xmm2
    1c0b:	4c 8d 04 2f          	lea    (%rdi,%rbp,1),%r8
    1c0f:	31 ff                	xor    %edi,%edi
    1c11:	4c 89 c6             	mov    %r8,%rsi
    1c14:	0f 1f 40 00          	nopl   0x0(%rax)
    1c18:	89 fa                	mov    %edi,%edx
    1c1a:	0f 28 ca             	movaps %xmm2,%xmm1
    1c1d:	4d 8d 0c 93          	lea    (%r11,%rdx,4),%r9
    1c21:	4c 89 d2             	mov    %r10,%rdx
    1c24:	0f 1f 40 00          	nopl   0x0(%rax)
    1c28:	f3 0f 10 00          	movss  (%rax),%xmm0
    1c2c:	f3 0f 59 02          	mulss  (%rdx),%xmm0
    1c30:	48 83 c0 04          	add    $0x4,%rax
    1c34:	48 01 ca             	add    %rcx,%rdx
    1c37:	f3 0f 58 c8          	addss  %xmm0,%xmm1
    1c3b:	48 39 f0             	cmp    %rsi,%rax
    1c3e:	75 e8                	jne    1c28 <riscv_dsp_mat_mul_f32+0x58>
    1c40:	83 c7 01             	add    $0x1,%edi
    1c43:	f3 41 0f 11 09       	movss  %xmm1,(%r9)
    1c48:	4c 89 c0             	mov    %r8,%rax
    1c4b:	48 01 ee             	add    %rbp,%rsi
    1c4e:	39 fb                	cmp    %edi,%ebx
    1c50:	74 05                	je     1c57 <riscv_dsp_mat_mul_f32+0x87>
    1c52:	49 01 e8             	add    %rbp,%r8
    1c55:	eb c1                	jmp    1c18 <riscv_dsp_mat_mul_f32+0x48>
    1c57:	5b                   	pop    %rbx
    1c58:	5d                   	pop    %rbp
    1c59:	41 5c                	pop    %r12
    1c5b:	41 5d                	pop    %r13
    1c5d:	41 5e                	pop    %r14
    1c5f:	41 5f                	pop    %r15
    1c61:	c3                   	ret    
    1c62:	4c 8d 3c 95 04 00 00 	lea    0x4(,%rdx,4),%r15
    1c69:	00 
    1c6a:	45 31 f6             	xor    %r14d,%r14d
    1c6d:	66 0f ef d2          	pxor   %xmm2,%xmm2
    1c71:	4e 8d 2c 3f          	lea    (%rdi,%r15,1),%r13
    1c75:	41 8d 6c 24 ff       	lea    -0x1(%r12),%ebp
    1c7a:	4c 89 ef             	mov    %r13,%rdi
    1c7d:	44 89 f2             	mov    %r14d,%edx
    1c80:	4c 89 d6             	mov    %r10,%rsi
    1c83:	45 31 c0             	xor    %r8d,%r8d
    1c86:	4d 8d 0c 93          	lea    (%r11,%rdx,4),%r9
    1c8a:	66 0f 1f 44 00 00    	nopw   0x0(%rax,%rax,1)
    1c90:	48 89 c2             	mov    %rax,%rdx
    1c93:	0f 28 ca             	movaps %xmm2,%xmm1
    1c96:	66 2e 0f 1f 84 00 00 	cs nopw 0x0(%rax,%rax,1)
    1c9d:	00 00 00 
    1ca0:	f3 0f 10 02          	movss  (%rdx),%xmm0
    1ca4:	f3 0f 59 06          	mulss  (%rsi),%xmm0
    1ca8:	48 83 c2 04          	add    $0x4,%rdx
    1cac:	48 01 ce             	add    %rcx,%rsi
    1caf:	f3 0f 58 c8          	addss  %xmm0,%xmm1
    1cb3:	48 39 fa             	cmp    %rdi,%rdx
    1cb6:	75 e8                	jne    1ca0 <riscv_dsp_mat_mul_f32+0xd0>
    1cb8:	41 8d 50 01          	lea    0x1(%r8),%edx
    1cbc:	f3 43 0f 11 0c 81    	movss  %xmm1,(%r9,%r8,4)
    1cc2:	49 8d 34 92          	lea    (%r10,%rdx,4),%rsi
    1cc6:	49 8d 50 01          	lea    0x1(%r8),%rdx
    1cca:	49 39 e8             	cmp    %rbp,%r8
    1ccd:	74 05                	je     1cd4 <riscv_dsp_mat_mul_f32+0x104>
    1ccf:	49 89 d0             	mov    %rdx,%r8
    1cd2:	eb bc                	jmp    1c90 <riscv_dsp_mat_mul_f32+0xc0>
    1cd4:	4c 89 e8             	mov    %r13,%rax
    1cd7:	45 01 e6             	add    %r12d,%r14d
    1cda:	4c 01 ff             	add    %r15,%rdi
    1cdd:	83 eb 01             	sub    $0x1,%ebx
    1ce0:	0f 84 71 ff ff ff    	je     1c57 <riscv_dsp_mat_mul_f32+0x87>
    1ce6:	4d 01 fd             	add    %r15,%r13
    1ce9:	eb 92                	jmp    1c7d <riscv_dsp_mat_mul_f32+0xad>
    1ceb:	0f 1f 44 00 00       	nopl   0x0(%rax,%rax,1)

0000000000001cf0 <riscv_dsp_mat_trans_f32>:
    1cf0:	f3 0f 1e fa          	endbr64 
    1cf4:	48 89 f8             	mov    %rdi,%rax
    1cf7:	85 d2                	test   %edx,%edx
    1cf9:	74 39                	je     1d34 <riscv_dsp_mat_trans_f32+0x44>
    1cfb:	85 c9                	test   %ecx,%ecx
    1cfd:	74 35                	je     1d34 <riscv_dsp_mat_trans_f32+0x44>
    1cff:	89 c9                	mov    %ecx,%ecx
    1d01:	89 d7                	mov    %edx,%edi
    1d03:	4c 8d 0c 8d 00 00 00 	lea    0x0(,%rcx,4),%r9
    1d0a:	00 
    1d0b:	48 c1 e7 02          	shl    $0x2,%rdi
    1d0f:	4a 8d 0c 08          	lea    (%rax,%r9,1),%rcx
    1d13:	83 fa 01             	cmp    $0x1,%edx
    1d16:	75 1d                	jne    1d35 <riscv_dsp_mat_trans_f32+0x45>
    1d18:	0f 1f 84 00 00 00 00 	nopl   0x0(%rax,%rax,1)
    1d1f:	00 
    1d20:	f3 0f 10 00          	movss  (%rax),%xmm0
    1d24:	48 83 c0 04          	add    $0x4,%rax
    1d28:	f3 0f 11 06          	movss  %xmm0,(%rsi)
    1d2c:	48 01 fe             	add    %rdi,%rsi
    1d2f:	48 39 c8             	cmp    %rcx,%rax
    1d32:	75 ec                	jne    1d20 <riscv_dsp_mat_trans_f32+0x30>
    1d34:	c3                   	ret    
    1d35:	83 ea 01             	sub    $0x1,%edx
    1d38:	49 89 c8             	mov    %rcx,%r8
    1d3b:	4c 8d 54 96 04       	lea    0x4(%rsi,%rdx,4),%r10
    1d40:	48 89 f2             	mov    %rsi,%rdx
    1d43:	0f 1f 44 00 00       	nopl   0x0(%rax,%rax,1)
    1d48:	f3 0f 10 00          	movss  (%rax),%xmm0
    1d4c:	48 83 c0 04          	add    $0x4,%rax
    1d50:	f3 0f 11 02          	movss  %xmm0,(%rdx)
    1d54:	48 01 fa             	add    %rdi,%rdx
    1d57:	4c 39 c0             	cmp    %r8,%rax
    1d5a:	75 ec                	jne    1d48 <riscv_dsp_mat_trans_f32+0x58>
    1d5c:	48 83 c6 04          	add    $0x4,%rsi
    1d60:	48 89 c8             	mov    %rcx,%rax
    1d63:	4d 01 c8             	add    %r9,%r8
    1d66:	4c 39 d6             	cmp    %r10,%rsi
    1d69:	74 c9                	je     1d34 <riscv_dsp_mat_trans_f32+0x44>
    1d6b:	4c 01 c9             	add    %r9,%rcx
    1d6e:	eb d0                	jmp    1d40 <riscv_dsp_mat_trans_f32+0x50>

Disassembly of section .fini:

0000000000001d70 <_fini>:
    1d70:	f3 0f 1e fa          	endbr64 
    1d74:	48 83 ec 08          	sub    $0x8,%rsp
    1d78:	48 83 c4 08          	add    $0x8,%rsp
    1d7c:	c3                   	ret    
