
t_mean_u8:     file format elf64-x86-64


Disassembly of section .init:

0000000000001000 <_init>:
    1000:	f3 0f 1e fa          	endbr64 
    1004:	48 83 ec 08          	sub    $0x8,%rsp
    1008:	48 8b 05 d9 2f 00 00 	mov    0x2fd9(%rip),%rax        # 3fe8 <__gmon_start__@Base>
    100f:	48 85 c0             	test   %rax,%rax
    1012:	74 02                	je     1016 <_init+0x16>
    1014:	ff d0                	call   *%rax
    1016:	48 83 c4 08          	add    $0x8,%rsp
    101a:	c3                   	ret    

Disassembly of section .plt:

0000000000001020 <.plt>:
    1020:	ff 35 5a 2f 00 00    	push   0x2f5a(%rip)        # 3f80 <_GLOBAL_OFFSET_TABLE_+0x8>
    1026:	f2 ff 25 5b 2f 00 00 	bnd jmp *0x2f5b(%rip)        # 3f88 <_GLOBAL_OFFSET_TABLE_+0x10>
    102d:	0f 1f 00             	nopl   (%rax)
    1030:	f3 0f 1e fa          	endbr64 
    1034:	68 00 00 00 00       	push   $0x0
    1039:	f2 e9 e1 ff ff ff    	bnd jmp 1020 <_init+0x20>
    103f:	90                   	nop
    1040:	f3 0f 1e fa          	endbr64 
    1044:	68 01 00 00 00       	push   $0x1
    1049:	f2 e9 d1 ff ff ff    	bnd jmp 1020 <_init+0x20>
    104f:	90                   	nop
    1050:	f3 0f 1e fa          	endbr64 
    1054:	68 02 00 00 00       	push   $0x2
    1059:	f2 e9 c1 ff ff ff    	bnd jmp 1020 <_init+0x20>
    105f:	90                   	nop
    1060:	f3 0f 1e fa          	endbr64 
    1064:	68 03 00 00 00       	push   $0x3
    1069:	f2 e9 b1 ff ff ff    	bnd jmp 1020 <_init+0x20>
    106f:	90                   	nop
    1070:	f3 0f 1e fa          	endbr64 
    1074:	68 04 00 00 00       	push   $0x4
    1079:	f2 e9 a1 ff ff ff    	bnd jmp 1020 <_init+0x20>
    107f:	90                   	nop
    1080:	f3 0f 1e fa          	endbr64 
    1084:	68 05 00 00 00       	push   $0x5
    1089:	f2 e9 91 ff ff ff    	bnd jmp 1020 <_init+0x20>
    108f:	90                   	nop
    1090:	f3 0f 1e fa          	endbr64 
    1094:	68 06 00 00 00       	push   $0x6
    1099:	f2 e9 81 ff ff ff    	bnd jmp 1020 <_init+0x20>
    109f:	90                   	nop
    10a0:	f3 0f 1e fa          	endbr64 
    10a4:	68 07 00 00 00       	push   $0x7
    10a9:	f2 e9 71 ff ff ff    	bnd jmp 1020 <_init+0x20>
    10af:	90                   	nop
    10b0:	f3 0f 1e fa          	endbr64 
    10b4:	68 08 00 00 00       	push   $0x8
    10b9:	f2 e9 61 ff ff ff    	bnd jmp 1020 <_init+0x20>
    10bf:	90                   	nop

Disassembly of section .plt.got:

00000000000010c0 <__cxa_finalize@plt>:
    10c0:	f3 0f 1e fa          	endbr64 
    10c4:	f2 ff 25 2d 2f 00 00 	bnd jmp *0x2f2d(%rip)        # 3ff8 <__cxa_finalize@GLIBC_2.2.5>
    10cb:	0f 1f 44 00 00       	nopl   0x0(%rax,%rax,1)

Disassembly of section .plt.sec:

00000000000010d0 <puts@plt>:
    10d0:	f3 0f 1e fa          	endbr64 
    10d4:	f2 ff 25 b5 2e 00 00 	bnd jmp *0x2eb5(%rip)        # 3f90 <puts@GLIBC_2.2.5>
    10db:	0f 1f 44 00 00       	nopl   0x0(%rax,%rax,1)

00000000000010e0 <fread@plt>:
    10e0:	f3 0f 1e fa          	endbr64 
    10e4:	f2 ff 25 ad 2e 00 00 	bnd jmp *0x2ead(%rip)        # 3f98 <fread@GLIBC_2.2.5>
    10eb:	0f 1f 44 00 00       	nopl   0x0(%rax,%rax,1)

00000000000010f0 <fclose@plt>:
    10f0:	f3 0f 1e fa          	endbr64 
    10f4:	f2 ff 25 a5 2e 00 00 	bnd jmp *0x2ea5(%rip)        # 3fa0 <fclose@GLIBC_2.2.5>
    10fb:	0f 1f 44 00 00       	nopl   0x0(%rax,%rax,1)

0000000000001100 <__stack_chk_fail@plt>:
    1100:	f3 0f 1e fa          	endbr64 
    1104:	f2 ff 25 9d 2e 00 00 	bnd jmp *0x2e9d(%rip)        # 3fa8 <__stack_chk_fail@GLIBC_2.4>
    110b:	0f 1f 44 00 00       	nopl   0x0(%rax,%rax,1)

0000000000001110 <log10f@plt>:
    1110:	f3 0f 1e fa          	endbr64 
    1114:	f2 ff 25 95 2e 00 00 	bnd jmp *0x2e95(%rip)        # 3fb0 <log10f@GLIBC_2.2.5>
    111b:	0f 1f 44 00 00       	nopl   0x0(%rax,%rax,1)

0000000000001120 <__printf_chk@plt>:
    1120:	f3 0f 1e fa          	endbr64 
    1124:	f2 ff 25 8d 2e 00 00 	bnd jmp *0x2e8d(%rip)        # 3fb8 <__printf_chk@GLIBC_2.3.4>
    112b:	0f 1f 44 00 00       	nopl   0x0(%rax,%rax,1)

0000000000001130 <fopen@plt>:
    1130:	f3 0f 1e fa          	endbr64 
    1134:	f2 ff 25 85 2e 00 00 	bnd jmp *0x2e85(%rip)        # 3fc0 <fopen@GLIBC_2.2.5>
    113b:	0f 1f 44 00 00       	nopl   0x0(%rax,%rax,1)

0000000000001140 <sqrt@plt>:
    1140:	f3 0f 1e fa          	endbr64 
    1144:	f2 ff 25 7d 2e 00 00 	bnd jmp *0x2e7d(%rip)        # 3fc8 <sqrt@GLIBC_2.2.5>
    114b:	0f 1f 44 00 00       	nopl   0x0(%rax,%rax,1)

0000000000001150 <__sprintf_chk@plt>:
    1150:	f3 0f 1e fa          	endbr64 
    1154:	f2 ff 25 75 2e 00 00 	bnd jmp *0x2e75(%rip)        # 3fd0 <__sprintf_chk@GLIBC_2.3.4>
    115b:	0f 1f 44 00 00       	nopl   0x0(%rax,%rax,1)

Disassembly of section .text:

0000000000001160 <main>:
    1160:	f3 0f 1e fa          	endbr64 
    1164:	41 57                	push   %r15
    1166:	be 01 00 00 00       	mov    $0x1,%esi
    116b:	4c 8d 05 96 0e 00 00 	lea    0xe96(%rip),%r8        # 2008 <_IO_stdin_used+0x8>
    1172:	48 8d 0d 29 0f 00 00 	lea    0xf29(%rip),%rcx        # 20a2 <_IO_stdin_used+0xa2>
    1179:	41 56                	push   %r14
    117b:	ba 00 02 00 00       	mov    $0x200,%edx
    1180:	41 55                	push   %r13
    1182:	4c 8d 2d 2b 0f 00 00 	lea    0xf2b(%rip),%r13        # 20b4 <_IO_stdin_used+0xb4>
    1189:	41 54                	push   %r12
    118b:	55                   	push   %rbp
    118c:	53                   	push   %rbx
    118d:	48 81 ec e8 02 00 00 	sub    $0x2e8,%rsp
    1194:	64 48 8b 04 25 28 00 	mov    %fs:0x28,%rax
    119b:	00 00 
    119d:	48 89 84 24 d8 02 00 	mov    %rax,0x2d8(%rsp)
    11a4:	00 
    11a5:	31 c0                	xor    %eax,%eax
    11a7:	4c 8d a4 24 d0 00 00 	lea    0xd0(%rsp),%r12
    11ae:	00 
    11af:	4c 89 e7             	mov    %r12,%rdi
    11b2:	e8 99 ff ff ff       	call   1150 <__sprintf_chk@plt>
    11b7:	4c 89 ee             	mov    %r13,%rsi
    11ba:	4c 89 e7             	mov    %r12,%rdi
    11bd:	e8 6e ff ff ff       	call   1130 <fopen@plt>
    11c2:	48 85 c0             	test   %rax,%rax
    11c5:	0f 84 3f 05 00 00    	je     170a <main+0x5aa>
    11cb:	ba 00 02 00 00       	mov    $0x200,%edx
    11d0:	be 01 00 00 00       	mov    $0x1,%esi
    11d5:	4c 89 e7             	mov    %r12,%rdi
    11d8:	48 89 c5             	mov    %rax,%rbp
    11db:	4c 8d 05 26 0e 00 00 	lea    0xe26(%rip),%r8        # 2008 <_IO_stdin_used+0x8>
    11e2:	48 8d 0d cd 0e 00 00 	lea    0xecd(%rip),%rcx        # 20b6 <_IO_stdin_used+0xb6>
    11e9:	31 c0                	xor    %eax,%eax
    11eb:	e8 60 ff ff ff       	call   1150 <__sprintf_chk@plt>
    11f0:	4c 89 ee             	mov    %r13,%rsi
    11f3:	4c 89 e7             	mov    %r12,%rdi
    11f6:	e8 35 ff ff ff       	call   1130 <fopen@plt>
    11fb:	49 89 c7             	mov    %rax,%r15
    11fe:	48 85 c0             	test   %rax,%rax
    1201:	0f 84 03 05 00 00    	je     170a <main+0x5aa>
    1207:	48 8d 5c 24 2c       	lea    0x2c(%rsp),%rbx
    120c:	4c 8d 6c 24 36       	lea    0x36(%rsp),%r13
    1211:	4c 8d 64 24 40       	lea    0x40(%rsp),%r12
    1216:	66 2e 0f 1f 84 00 00 	cs nopw 0x0(%rax,%rax,1)
    121d:	00 00 00 
    1220:	48 89 e9             	mov    %rbp,%rcx
    1223:	ba 23 00 00 00       	mov    $0x23,%edx
    1228:	be 01 00 00 00       	mov    $0x1,%esi
    122d:	4c 89 e7             	mov    %r12,%rdi
    1230:	e8 ab fe ff ff       	call   10e0 <fread@plt>
    1235:	be 23 00 00 00       	mov    $0x23,%esi
    123a:	4c 89 e7             	mov    %r12,%rdi
    123d:	48 83 c3 01          	add    $0x1,%rbx
    1241:	e8 1a 06 00 00       	call   1860 <riscv_dsp_mean_u8>
    1246:	88 43 ff             	mov    %al,-0x1(%rbx)
    1249:	49 39 dd             	cmp    %rbx,%r13
    124c:	75 d2                	jne    1220 <main+0xc0>
    124e:	4c 89 ef             	mov    %r13,%rdi
    1251:	4c 89 f9             	mov    %r15,%rcx
    1254:	ba 0a 00 00 00       	mov    $0xa,%edx
    1259:	be 01 00 00 00       	mov    $0x1,%esi
    125e:	e8 7d fe ff ff       	call   10e0 <fread@plt>
    1263:	0f b6 54 24 36       	movzbl 0x36(%rsp),%edx
    1268:	0f b6 5c 24 30       	movzbl 0x30(%rsp),%ebx
    126d:	44 0f b6 64 24 2c    	movzbl 0x2c(%rsp),%r12d
    1273:	44 0f b6 54 24 2d    	movzbl 0x2d(%rsp),%r10d
    1279:	89 d0                	mov    %edx,%eax
    127b:	44 0f b6 5c 24 2f    	movzbl 0x2f(%rsp),%r11d
    1281:	44 0f b6 44 24 31    	movzbl 0x31(%rsp),%r8d
    1287:	44 89 e1             	mov    %r12d,%ecx
    128a:	44 29 e0             	sub    %r12d,%eax
    128d:	44 89 d6             	mov    %r10d,%esi
    1290:	44 0f b6 74 24 32    	movzbl 0x32(%rsp),%r14d
    1296:	29 d1                	sub    %edx,%ecx
    1298:	44 38 e2             	cmp    %r12b,%dl
    129b:	44 0f b6 4c 24 33    	movzbl 0x33(%rsp),%r9d
    12a1:	44 0f b6 6c 24 34    	movzbl 0x34(%rsp),%r13d
    12a7:	0f 46 c1             	cmovbe %ecx,%eax
    12aa:	0f b6 4c 24 37       	movzbl 0x37(%rsp),%ecx
    12af:	44 88 54 24 1f       	mov    %r10b,0x1f(%rsp)
    12b4:	44 88 5c 24 18       	mov    %r11b,0x18(%rsp)
    12b9:	89 ca                	mov    %ecx,%edx
    12bb:	29 ce                	sub    %ecx,%esi
    12bd:	44 88 44 24 0c       	mov    %r8b,0xc(%rsp)
    12c2:	44 29 d2             	sub    %r10d,%edx
    12c5:	44 38 d1             	cmp    %r10b,%cl
    12c8:	0f b6 4c 24 2e       	movzbl 0x2e(%rsp),%ecx
    12cd:	44 88 4c 24 08       	mov    %r9b,0x8(%rsp)
    12d2:	0f 46 d6             	cmovbe %esi,%edx
    12d5:	0f b6 74 24 38       	movzbl 0x38(%rsp),%esi
    12da:	89 cf                	mov    %ecx,%edi
    12dc:	88 4c 24 10          	mov    %cl,0x10(%rsp)
    12e0:	38 d0                	cmp    %dl,%al
    12e2:	0f 42 c2             	cmovb  %edx,%eax
    12e5:	89 f2                	mov    %esi,%edx
    12e7:	29 f7                	sub    %esi,%edi
    12e9:	29 ca                	sub    %ecx,%edx
    12eb:	40 38 ce             	cmp    %cl,%sil
    12ee:	0f b6 74 24 39       	movzbl 0x39(%rsp),%esi
    12f3:	0f b6 4c 24 35       	movzbl 0x35(%rsp),%ecx
    12f8:	0f 46 d7             	cmovbe %edi,%edx
    12fb:	44 89 df             	mov    %r11d,%edi
    12fe:	88 0c 24             	mov    %cl,(%rsp)
    1301:	38 d0                	cmp    %dl,%al
    1303:	0f 42 c2             	cmovb  %edx,%eax
    1306:	89 f2                	mov    %esi,%edx
    1308:	29 f7                	sub    %esi,%edi
    130a:	44 29 da             	sub    %r11d,%edx
    130d:	44 38 de             	cmp    %r11b,%sil
    1310:	0f b6 74 24 3a       	movzbl 0x3a(%rsp),%esi
    1315:	0f 46 d7             	cmovbe %edi,%edx
    1318:	89 df                	mov    %ebx,%edi
    131a:	38 d0                	cmp    %dl,%al
    131c:	0f 42 c2             	cmovb  %edx,%eax
    131f:	89 f2                	mov    %esi,%edx
    1321:	29 f7                	sub    %esi,%edi
    1323:	29 da                	sub    %ebx,%edx
    1325:	40 38 de             	cmp    %bl,%sil
    1328:	0f b6 74 24 3b       	movzbl 0x3b(%rsp),%esi
    132d:	0f 46 d7             	cmovbe %edi,%edx
    1330:	44 89 c7             	mov    %r8d,%edi
    1333:	38 d0                	cmp    %dl,%al
    1335:	0f 42 c2             	cmovb  %edx,%eax
    1338:	89 f2                	mov    %esi,%edx
    133a:	29 f7                	sub    %esi,%edi
    133c:	44 29 c2             	sub    %r8d,%edx
    133f:	44 38 c6             	cmp    %r8b,%sil
    1342:	0f b6 74 24 3c       	movzbl 0x3c(%rsp),%esi
    1347:	0f 46 d7             	cmovbe %edi,%edx
    134a:	44 89 f7             	mov    %r14d,%edi
    134d:	38 d0                	cmp    %dl,%al
    134f:	0f 42 c2             	cmovb  %edx,%eax
    1352:	89 f2                	mov    %esi,%edx
    1354:	29 f7                	sub    %esi,%edi
    1356:	44 29 f2             	sub    %r14d,%edx
    1359:	44 38 f6             	cmp    %r14b,%sil
    135c:	0f b6 74 24 3d       	movzbl 0x3d(%rsp),%esi
    1361:	0f 46 d7             	cmovbe %edi,%edx
    1364:	44 89 cf             	mov    %r9d,%edi
    1367:	38 d0                	cmp    %dl,%al
    1369:	0f 42 c2             	cmovb  %edx,%eax
    136c:	89 f2                	mov    %esi,%edx
    136e:	29 f7                	sub    %esi,%edi
    1370:	44 29 ca             	sub    %r9d,%edx
    1373:	44 38 ce             	cmp    %r9b,%sil
    1376:	0f b6 74 24 3e       	movzbl 0x3e(%rsp),%esi
    137b:	0f 46 d7             	cmovbe %edi,%edx
    137e:	44 89 ef             	mov    %r13d,%edi
    1381:	38 d0                	cmp    %dl,%al
    1383:	0f 42 c2             	cmovb  %edx,%eax
    1386:	89 f2                	mov    %esi,%edx
    1388:	29 f7                	sub    %esi,%edi
    138a:	44 29 ea             	sub    %r13d,%edx
    138d:	44 38 ee             	cmp    %r13b,%sil
    1390:	0f b6 74 24 3f       	movzbl 0x3f(%rsp),%esi
    1395:	0f 46 d7             	cmovbe %edi,%edx
    1398:	89 f7                	mov    %esi,%edi
    139a:	38 d0                	cmp    %dl,%al
    139c:	0f 42 c2             	cmovb  %edx,%eax
    139f:	89 ca                	mov    %ecx,%edx
    13a1:	29 cf                	sub    %ecx,%edi
    13a3:	29 f2                	sub    %esi,%edx
    13a5:	40 38 f1             	cmp    %sil,%cl
    13a8:	0f 42 d7             	cmovb  %edi,%edx
    13ab:	48 8d 35 1a 0d 00 00 	lea    0xd1a(%rip),%rsi        # 20cc <_IO_stdin_used+0xcc>
    13b2:	bf 01 00 00 00       	mov    $0x1,%edi
    13b7:	38 c2                	cmp    %al,%dl
    13b9:	0f 42 d0             	cmovb  %eax,%edx
    13bc:	31 c0                	xor    %eax,%eax
    13be:	0f b6 d2             	movzbl %dl,%edx
    13c1:	e8 5a fd ff ff       	call   1120 <__printf_chk@plt>
    13c6:	48 89 ef             	mov    %rbp,%rdi
    13c9:	e8 22 fd ff ff       	call   10f0 <fclose@plt>
    13ce:	4c 89 ff             	mov    %r15,%rdi
    13d1:	e8 1a fd ff ff       	call   10f0 <fclose@plt>
    13d6:	0f b6 44 24 3a       	movzbl 0x3a(%rsp),%eax
    13db:	0f b6 74 24 3c       	movzbl 0x3c(%rsp),%esi
    13e0:	f3 44 0f 10 15 27 0d 	movss  0xd27(%rip),%xmm10        # 2110 <_IO_stdin_used+0x110>
    13e7:	00 00 
    13e9:	0f b6 54 24 3d       	movzbl 0x3d(%rsp),%edx
    13ee:	0f 28 15 0b 0d 00 00 	movaps 0xd0b(%rip),%xmm2        # 2100 <_IO_stdin_used+0x100>
    13f5:	66 0f 6e c0          	movd   %eax,%xmm0
    13f9:	0f b6 44 24 3b       	movzbl 0x3b(%rsp),%eax
    13fe:	66 0f 6e ce          	movd   %esi,%xmm1
    1402:	0f b6 74 24 38       	movzbl 0x38(%rsp),%esi
    1407:	66 0f 6e ea          	movd   %edx,%xmm5
    140b:	0f b6 54 24 39       	movzbl 0x39(%rsp),%edx
    1410:	0f b6 4c 24 10       	movzbl 0x10(%rsp),%ecx
    1415:	66 0f 6e f8          	movd   %eax,%xmm7
    1419:	0f b6 44 24 36       	movzbl 0x36(%rsp),%eax
    141e:	66 0f 62 cd          	punpckldq %xmm5,%xmm1
    1422:	66 0f 6e de          	movd   %esi,%xmm3
    1426:	66 0f 62 c7          	punpckldq %xmm7,%xmm0
    142a:	66 0f 6e ea          	movd   %edx,%xmm5
    142e:	44 0f b6 54 24 1f    	movzbl 0x1f(%rsp),%r10d
    1434:	44 0f b6 5c 24 18    	movzbl 0x18(%rsp),%r11d
    143a:	66 0f 6c c1          	punpcklqdq %xmm1,%xmm0
    143e:	66 0f 6e c8          	movd   %eax,%xmm1
    1442:	66 0f 62 dd          	punpckldq %xmm5,%xmm3
    1446:	0f b6 44 24 37       	movzbl 0x37(%rsp),%eax
    144b:	0f 5b c0             	cvtdq2ps %xmm0,%xmm0
    144e:	0f 59 c2             	mulps  %xmm2,%xmm0
    1451:	66 41 0f 6e fb       	movd   %r11d,%xmm7
    1456:	66 41 0f 6e ea       	movd   %r10d,%xmm5
    145b:	66 0f 6e f0          	movd   %eax,%xmm6
    145f:	0f b6 44 24 3e       	movzbl 0x3e(%rsp),%eax
    1464:	44 0f b6 44 24 0c    	movzbl 0xc(%rsp),%r8d
    146a:	48 8d 54 24 70       	lea    0x70(%rsp),%rdx
    146f:	66 0f 62 ce          	punpckldq %xmm6,%xmm1
    1473:	44 0f b6 4c 24 08    	movzbl 0x8(%rsp),%r9d
    1479:	66 0f 6c cb          	punpcklqdq %xmm3,%xmm1
    147d:	0f 5b c9             	cvtdq2ps %xmm1,%xmm1
    1480:	0f 59 ca             	mulps  %xmm2,%xmm1
    1483:	66 41 0f 6e f1       	movd   %r9d,%xmm6
    1488:	0f 29 84 24 80 00 00 	movaps %xmm0,0x80(%rsp)
    148f:	00 
    1490:	66 0f ef c0          	pxor   %xmm0,%xmm0
    1494:	f3 0f 2a c0          	cvtsi2ss %eax,%xmm0
    1498:	0f b6 44 24 3f       	movzbl 0x3f(%rsp),%eax
    149d:	0f 29 4c 24 70       	movaps %xmm1,0x70(%rsp)
    14a2:	f3 0f 10 0d 56 0c 00 	movss  0xc56(%rip),%xmm1        # 2100 <_IO_stdin_used+0x100>
    14a9:	00 
    14aa:	f3 0f 59 c1          	mulss  %xmm1,%xmm0
    14ae:	f3 0f 11 84 24 90 00 	movss  %xmm0,0x90(%rsp)
    14b5:	00 00 
    14b7:	66 0f ef c0          	pxor   %xmm0,%xmm0
    14bb:	f3 0f 2a c0          	cvtsi2ss %eax,%xmm0
    14bf:	41 0f b6 c4          	movzbl %r12b,%eax
    14c3:	f3 0f 59 c1          	mulss  %xmm1,%xmm0
    14c7:	66 0f 6e c9          	movd   %ecx,%xmm1
    14cb:	48 8d 8c 24 c8 00 00 	lea    0xc8(%rsp),%rcx
    14d2:	00 
    14d3:	66 0f 62 cf          	punpckldq %xmm7,%xmm1
    14d7:	66 41 0f 6e f8       	movd   %r8d,%xmm7
    14dc:	f3 0f 11 84 24 94 00 	movss  %xmm0,0x94(%rsp)
    14e3:	00 00 
    14e5:	66 0f 6e c0          	movd   %eax,%xmm0
    14e9:	0f b6 c3             	movzbl %bl,%eax
    14ec:	66 0f 62 c5          	punpckldq %xmm5,%xmm0
    14f0:	66 0f 6c c1          	punpcklqdq %xmm1,%xmm0
    14f4:	66 41 0f 6e ce       	movd   %r14d,%xmm1
    14f9:	0f 5b c0             	cvtdq2ps %xmm0,%xmm0
    14fc:	0f 59 c2             	mulps  %xmm2,%xmm0
    14ff:	66 0f 62 ce          	punpckldq %xmm6,%xmm1
    1503:	0f 29 84 24 a0 00 00 	movaps %xmm0,0xa0(%rsp)
    150a:	00 
    150b:	66 0f 6e c0          	movd   %eax,%xmm0
    150f:	41 0f b6 c5          	movzbl %r13b,%eax
    1513:	66 0f 62 c7          	punpckldq %xmm7,%xmm0
    1517:	66 0f ef ff          	pxor   %xmm7,%xmm7
    151b:	66 0f 6c c1          	punpcklqdq %xmm1,%xmm0
    151f:	66 0f 28 f7          	movapd %xmm7,%xmm6
    1523:	f3 0f 7e 0d d5 0b 00 	movq   0xbd5(%rip),%xmm1        # 2100 <_IO_stdin_used+0x100>
    152a:	00 
    152b:	0f 5b c0             	cvtdq2ps %xmm0,%xmm0
    152e:	0f 59 c2             	mulps  %xmm2,%xmm0
    1531:	0f 29 84 24 b0 00 00 	movaps %xmm0,0xb0(%rsp)
    1538:	00 
    1539:	66 0f 6e c0          	movd   %eax,%xmm0
    153d:	0f b6 04 24          	movzbl (%rsp),%eax
    1541:	66 0f 6e e8          	movd   %eax,%xmm5
    1545:	48 8d 84 24 a0 00 00 	lea    0xa0(%rsp),%rax
    154c:	00 
    154d:	66 0f 62 c5          	punpckldq %xmm5,%xmm0
    1551:	66 0f ef ed          	pxor   %xmm5,%xmm5
    1555:	0f 5b c0             	cvtdq2ps %xmm0,%xmm0
    1558:	0f 59 c1             	mulps  %xmm1,%xmm0
    155b:	0f 28 dd             	movaps %xmm5,%xmm3
    155e:	44 0f 28 c5          	movaps %xmm5,%xmm8
    1562:	44 0f 28 cd          	movaps %xmm5,%xmm9
    1566:	0f 13 84 24 c0 00 00 	movlps %xmm0,0xc0(%rsp)
    156d:	00 
    156e:	0f 28 c5             	movaps %xmm5,%xmm0
    1571:	0f 1f 80 00 00 00 00 	nopl   0x0(%rax)
    1578:	f3 0f 10 08          	movss  (%rax),%xmm1
    157c:	48 83 c0 04          	add    $0x4,%rax
    1580:	48 83 c2 04          	add    $0x4,%rdx
    1584:	f3 0f 10 52 fc       	movss  -0x4(%rdx),%xmm2
    1589:	66 0f 7e cb          	movd   %xmm1,%ebx
    158d:	81 fb 00 00 c0 7f    	cmp    $0x7fc00000,%ebx
    1593:	0f 84 71 01 00 00    	je     170a <main+0x5aa>
    1599:	0f 28 e2             	movaps %xmm2,%xmm4
    159c:	f3 0f 5c ca          	subss  %xmm2,%xmm1
    15a0:	f3 41 0f 5f e1       	maxss  %xmm9,%xmm4
    15a5:	44 0f 28 cc          	movaps %xmm4,%xmm9
    15a9:	0f 28 e2             	movaps %xmm2,%xmm4
    15ac:	f3 41 0f 5d e0       	minss  %xmm8,%xmm4
    15b1:	f3 0f 59 d2          	mulss  %xmm2,%xmm2
    15b5:	44 0f 28 c4          	movaps %xmm4,%xmm8
    15b9:	0f 28 e1             	movaps %xmm1,%xmm4
    15bc:	f3 0f 59 c9          	mulss  %xmm1,%xmm1
    15c0:	41 0f 54 e2          	andps  %xmm10,%xmm4
    15c4:	f3 0f 58 c4          	addss  %xmm4,%xmm0
    15c8:	f3 0f 5f e3          	maxss  %xmm3,%xmm4
    15cc:	f3 0f 5a d2          	cvtss2sd %xmm2,%xmm2
    15d0:	f2 0f 58 fa          	addsd  %xmm2,%xmm7
    15d4:	0f 28 dc             	movaps %xmm4,%xmm3
    15d7:	f3 0f 5a c9          	cvtss2sd %xmm1,%xmm1
    15db:	f2 0f 58 f1          	addsd  %xmm1,%xmm6
    15df:	48 39 c8             	cmp    %rcx,%rax
    15e2:	75 94                	jne    1578 <main+0x418>
    15e4:	66 48 0f 7e f0       	movq   %xmm6,%rax
    15e9:	f3 0f 11 64 24 18    	movss  %xmm4,0x18(%rsp)
    15ef:	f3 44 0f 11 44 24 0c 	movss  %xmm8,0xc(%rsp)
    15f6:	f3 44 0f 11 4c 24 08 	movss  %xmm9,0x8(%rsp)
    15fd:	f2 0f 11 3c 24       	movsd  %xmm7,(%rsp)
    1602:	3d 00 00 c0 7f       	cmp    $0x7fc00000,%eax
    1607:	0f 84 fd 00 00 00    	je     170a <main+0x5aa>
    160d:	f3 0f 5e 05 e3 0a 00 	divss  0xae3(%rip),%xmm0        # 20f8 <_IO_stdin_used+0xf8>
    1614:	00 
    1615:	f2 0f 11 74 24 10    	movsd  %xmm6,0x10(%rsp)
    161b:	66 0f 7e c3          	movd   %xmm0,%ebx
    161f:	66 0f 28 c6          	movapd %xmm6,%xmm0
    1623:	f2 0f 5e 05 f5 0a 00 	divsd  0xaf5(%rip),%xmm0        # 2120 <_IO_stdin_used+0x120>
    162a:	00 
    162b:	e8 10 fb ff ff       	call   1140 <sqrt@plt>
    1630:	f3 44 0f 10 4c 24 08 	movss  0x8(%rsp),%xmm9
    1637:	f3 44 0f 10 44 24 0c 	movss  0xc(%rsp),%xmm8
    163e:	66 0f ef f6          	pxor   %xmm6,%xmm6
    1642:	f2 0f 10 3c 24       	movsd  (%rsp),%xmm7
    1647:	f3 0f 10 5c 24 18    	movss  0x18(%rsp),%xmm3
    164d:	f2 0f 5a f0          	cvtsd2ss %xmm0,%xmm6
    1651:	41 0f 28 c1          	movaps %xmm9,%xmm0
    1655:	0f 28 ee             	movaps %xmm6,%xmm5
    1658:	66 0f 7e f5          	movd   %xmm6,%ebp
    165c:	f3 41 0f 5c c0       	subss  %xmm8,%xmm0
    1661:	f2 0f 10 74 24 10    	movsd  0x10(%rsp),%xmm6
    1667:	f3 0f 5e e8          	divss  %xmm0,%xmm5
    166b:	66 41 0f 7e ec       	movd   %xmm5,%r12d
    1670:	66 0f ef ed          	pxor   %xmm5,%xmm5
    1674:	66 0f 2e f5          	ucomisd %xmm5,%xmm6
    1678:	0f 8a b4 00 00 00    	jp     1732 <main+0x5d2>
    167e:	44 8b 2d 6f 0a 00 00 	mov    0xa6f(%rip),%r13d        # 20f4 <_IO_stdin_used+0xf4>
    1685:	0f 85 a7 00 00 00    	jne    1732 <main+0x5d2>
    168b:	48 8d 3d 4d 0a 00 00 	lea    0xa4d(%rip),%rdi        # 20df <_IO_stdin_used+0xdf>
    1692:	f3 0f 11 1c 24       	movss  %xmm3,(%rsp)
    1697:	e8 34 fa ff ff       	call   10d0 <puts@plt>
    169c:	f3 0f 10 1c 24       	movss  (%rsp),%xmm3
    16a1:	66 0f 6e f3          	movd   %ebx,%xmm6
    16a5:	66 0f ef c0          	pxor   %xmm0,%xmm0
    16a9:	f3 0f 5a c6          	cvtss2sd %xmm6,%xmm0
    16ad:	66 0f ef e4          	pxor   %xmm4,%xmm4
    16b1:	66 0f 6e f5          	movd   %ebp,%xmm6
    16b5:	66 0f ef d2          	pxor   %xmm2,%xmm2
    16b9:	66 41 0f 6e fd       	movd   %r13d,%xmm7
    16be:	66 41 0f 6e ec       	movd   %r12d,%xmm5
    16c3:	66 0f ef c9          	pxor   %xmm1,%xmm1
    16c7:	bf 01 00 00 00       	mov    $0x1,%edi
    16cc:	f3 0f 5a e7          	cvtss2sd %xmm7,%xmm4
    16d0:	f3 0f 5a d5          	cvtss2sd %xmm5,%xmm2
    16d4:	f3 0f 5a db          	cvtss2sd %xmm3,%xmm3
    16d8:	f3 0f 5a ce          	cvtss2sd %xmm6,%xmm1
    16dc:	48 8d 35 6d 09 00 00 	lea    0x96d(%rip),%rsi        # 2050 <_IO_stdin_used+0x50>
    16e3:	b8 05 00 00 00       	mov    $0x5,%eax
    16e8:	e8 33 fa ff ff       	call   1120 <__printf_chk@plt>
    16ed:	66 41 0f 6e fc       	movd   %r12d,%xmm7
    16f2:	66 0f ef ed          	pxor   %xmm5,%xmm5
    16f6:	31 c0                	xor    %eax,%eax
    16f8:	0f 2e fd             	ucomiss %xmm5,%xmm7
    16fb:	ba 01 00 00 00       	mov    $0x1,%edx
    1700:	0f 9a c0             	setp   %al
    1703:	0f 45 c2             	cmovne %edx,%eax
    1706:	f7 d8                	neg    %eax
    1708:	eb 03                	jmp    170d <main+0x5ad>
    170a:	83 c8 ff             	or     $0xffffffff,%eax
    170d:	48 8b 94 24 d8 02 00 	mov    0x2d8(%rsp),%rdx
    1714:	00 
    1715:	64 48 2b 14 25 28 00 	sub    %fs:0x28,%rdx
    171c:	00 00 
    171e:	75 3f                	jne    175f <main+0x5ff>
    1720:	48 81 c4 e8 02 00 00 	add    $0x2e8,%rsp
    1727:	5b                   	pop    %rbx
    1728:	5d                   	pop    %rbp
    1729:	41 5c                	pop    %r12
    172b:	41 5d                	pop    %r13
    172d:	41 5e                	pop    %r14
    172f:	41 5f                	pop    %r15
    1731:	c3                   	ret    
    1732:	f2 0f 5e fe          	divsd  %xmm6,%xmm7
    1736:	66 0f ef c0          	pxor   %xmm0,%xmm0
    173a:	f3 0f 11 1c 24       	movss  %xmm3,(%rsp)
    173f:	f2 0f 5a c7          	cvtsd2ss %xmm7,%xmm0
    1743:	e8 c8 f9 ff ff       	call   1110 <log10f@plt>
    1748:	f3 0f 10 1c 24       	movss  (%rsp),%xmm3
    174d:	f3 0f 59 05 a3 09 00 	mulss  0x9a3(%rip),%xmm0        # 20f8 <_IO_stdin_used+0xf8>
    1754:	00 
    1755:	66 41 0f 7e c5       	movd   %xmm0,%r13d
    175a:	e9 2c ff ff ff       	jmp    168b <main+0x52b>
    175f:	e8 9c f9 ff ff       	call   1100 <__stack_chk_fail@plt>
    1764:	66 2e 0f 1f 84 00 00 	cs nopw 0x0(%rax,%rax,1)
    176b:	00 00 00 
    176e:	66 90                	xchg   %ax,%ax

0000000000001770 <_start>:
    1770:	f3 0f 1e fa          	endbr64 
    1774:	31 ed                	xor    %ebp,%ebp
    1776:	49 89 d1             	mov    %rdx,%r9
    1779:	5e                   	pop    %rsi
    177a:	48 89 e2             	mov    %rsp,%rdx
    177d:	48 83 e4 f0          	and    $0xfffffffffffffff0,%rsp
    1781:	50                   	push   %rax
    1782:	54                   	push   %rsp
    1783:	45 31 c0             	xor    %r8d,%r8d
    1786:	31 c9                	xor    %ecx,%ecx
    1788:	48 8d 3d d1 f9 ff ff 	lea    -0x62f(%rip),%rdi        # 1160 <main>
    178f:	ff 15 43 28 00 00    	call   *0x2843(%rip)        # 3fd8 <__libc_start_main@GLIBC_2.34>
    1795:	f4                   	hlt    
    1796:	66 2e 0f 1f 84 00 00 	cs nopw 0x0(%rax,%rax,1)
    179d:	00 00 00 

00000000000017a0 <deregister_tm_clones>:
    17a0:	48 8d 3d 69 28 00 00 	lea    0x2869(%rip),%rdi        # 4010 <__TMC_END__>
    17a7:	48 8d 05 62 28 00 00 	lea    0x2862(%rip),%rax        # 4010 <__TMC_END__>
    17ae:	48 39 f8             	cmp    %rdi,%rax
    17b1:	74 15                	je     17c8 <deregister_tm_clones+0x28>
    17b3:	48 8b 05 26 28 00 00 	mov    0x2826(%rip),%rax        # 3fe0 <_ITM_deregisterTMCloneTable@Base>
    17ba:	48 85 c0             	test   %rax,%rax
    17bd:	74 09                	je     17c8 <deregister_tm_clones+0x28>
    17bf:	ff e0                	jmp    *%rax
    17c1:	0f 1f 80 00 00 00 00 	nopl   0x0(%rax)
    17c8:	c3                   	ret    
    17c9:	0f 1f 80 00 00 00 00 	nopl   0x0(%rax)

00000000000017d0 <register_tm_clones>:
    17d0:	48 8d 3d 39 28 00 00 	lea    0x2839(%rip),%rdi        # 4010 <__TMC_END__>
    17d7:	48 8d 35 32 28 00 00 	lea    0x2832(%rip),%rsi        # 4010 <__TMC_END__>
    17de:	48 29 fe             	sub    %rdi,%rsi
    17e1:	48 89 f0             	mov    %rsi,%rax
    17e4:	48 c1 ee 3f          	shr    $0x3f,%rsi
    17e8:	48 c1 f8 03          	sar    $0x3,%rax
    17ec:	48 01 c6             	add    %rax,%rsi
    17ef:	48 d1 fe             	sar    %rsi
    17f2:	74 14                	je     1808 <register_tm_clones+0x38>
    17f4:	48 8b 05 f5 27 00 00 	mov    0x27f5(%rip),%rax        # 3ff0 <_ITM_registerTMCloneTable@Base>
    17fb:	48 85 c0             	test   %rax,%rax
    17fe:	74 08                	je     1808 <register_tm_clones+0x38>
    1800:	ff e0                	jmp    *%rax
    1802:	66 0f 1f 44 00 00    	nopw   0x0(%rax,%rax,1)
    1808:	c3                   	ret    
    1809:	0f 1f 80 00 00 00 00 	nopl   0x0(%rax)

0000000000001810 <__do_global_dtors_aux>:
    1810:	f3 0f 1e fa          	endbr64 
    1814:	80 3d f5 27 00 00 00 	cmpb   $0x0,0x27f5(%rip)        # 4010 <__TMC_END__>
    181b:	75 2b                	jne    1848 <__do_global_dtors_aux+0x38>
    181d:	55                   	push   %rbp
    181e:	48 83 3d d2 27 00 00 	cmpq   $0x0,0x27d2(%rip)        # 3ff8 <__cxa_finalize@GLIBC_2.2.5>
    1825:	00 
    1826:	48 89 e5             	mov    %rsp,%rbp
    1829:	74 0c                	je     1837 <__do_global_dtors_aux+0x27>
    182b:	48 8b 3d d6 27 00 00 	mov    0x27d6(%rip),%rdi        # 4008 <__dso_handle>
    1832:	e8 89 f8 ff ff       	call   10c0 <__cxa_finalize@plt>
    1837:	e8 64 ff ff ff       	call   17a0 <deregister_tm_clones>
    183c:	c6 05 cd 27 00 00 01 	movb   $0x1,0x27cd(%rip)        # 4010 <__TMC_END__>
    1843:	5d                   	pop    %rbp
    1844:	c3                   	ret    
    1845:	0f 1f 00             	nopl   (%rax)
    1848:	c3                   	ret    
    1849:	0f 1f 80 00 00 00 00 	nopl   0x0(%rax)

0000000000001850 <frame_dummy>:
    1850:	f3 0f 1e fa          	endbr64 
    1854:	e9 77 ff ff ff       	jmp    17d0 <register_tm_clones>
    1859:	0f 1f 80 00 00 00 00 	nopl   0x0(%rax)

0000000000001860 <riscv_dsp_mean_u8>:
    1860:	f3 0f 1e fa          	endbr64 
    1864:	48 89 fa             	mov    %rdi,%rdx
    1867:	41 89 f0             	mov    %esi,%r8d
    186a:	85 f6                	test   %esi,%esi
    186c:	0f 84 ae 01 00 00    	je     1a20 <riscv_dsp_mean_u8+0x1c0>
    1872:	8d 46 ff             	lea    -0x1(%rsi),%eax
    1875:	83 f8 0e             	cmp    $0xe,%eax
    1878:	0f 86 a5 01 00 00    	jbe    1a23 <riscv_dsp_mean_u8+0x1c3>
    187e:	89 f1                	mov    %esi,%ecx
    1880:	66 0f ef f6          	pxor   %xmm6,%xmm6
    1884:	66 0f ef ed          	pxor   %xmm5,%xmm5
    1888:	48 89 f8             	mov    %rdi,%rax
    188b:	c1 e9 04             	shr    $0x4,%ecx
    188e:	66 0f ef e4          	pxor   %xmm4,%xmm4
    1892:	66 0f ef db          	pxor   %xmm3,%xmm3
    1896:	83 e9 01             	sub    $0x1,%ecx
    1899:	48 c1 e1 04          	shl    $0x4,%rcx
    189d:	48 8d 4c 0f 10       	lea    0x10(%rdi,%rcx,1),%rcx
    18a2:	66 0f 1f 44 00 00    	nopw   0x0(%rax,%rax,1)
    18a8:	f3 0f 6f 08          	movdqu (%rax),%xmm1
    18ac:	48 83 c0 10          	add    $0x10,%rax
    18b0:	66 0f 6f c1          	movdqa %xmm1,%xmm0
    18b4:	66 0f 68 cd          	punpckhbw %xmm5,%xmm1
    18b8:	66 0f 60 c5          	punpcklbw %xmm5,%xmm0
    18bc:	66 0f 6f d1          	movdqa %xmm1,%xmm2
    18c0:	66 0f 69 cc          	punpckhwd %xmm4,%xmm1
    18c4:	66 0f 6f f8          	movdqa %xmm0,%xmm7
    18c8:	66 0f 69 c4          	punpckhwd %xmm4,%xmm0
    18cc:	66 0f 61 d4          	punpcklwd %xmm4,%xmm2
    18d0:	66 44 0f 6f c0       	movdqa %xmm0,%xmm8
    18d5:	66 0f 61 fc          	punpcklwd %xmm4,%xmm7
    18d9:	66 0f 6a c3          	punpckhdq %xmm3,%xmm0
    18dd:	66 44 0f 62 c3       	punpckldq %xmm3,%xmm8
    18e2:	66 41 0f d4 c0       	paddq  %xmm8,%xmm0
    18e7:	66 44 0f 6f c7       	movdqa %xmm7,%xmm8
    18ec:	66 0f 6a fb          	punpckhdq %xmm3,%xmm7
    18f0:	66 44 0f 62 c3       	punpckldq %xmm3,%xmm8
    18f5:	66 41 0f d4 f8       	paddq  %xmm8,%xmm7
    18fa:	66 0f d4 c7          	paddq  %xmm7,%xmm0
    18fe:	66 0f 6f fa          	movdqa %xmm2,%xmm7
    1902:	66 0f 6a d3          	punpckhdq %xmm3,%xmm2
    1906:	66 0f 62 fb          	punpckldq %xmm3,%xmm7
    190a:	66 0f d4 d7          	paddq  %xmm7,%xmm2
    190e:	66 0f 6f f9          	movdqa %xmm1,%xmm7
    1912:	66 0f 6a cb          	punpckhdq %xmm3,%xmm1
    1916:	66 0f 62 fb          	punpckldq %xmm3,%xmm7
    191a:	66 0f d4 ce          	paddq  %xmm6,%xmm1
    191e:	66 0f d4 d7          	paddq  %xmm7,%xmm2
    1922:	66 0f d4 c2          	paddq  %xmm2,%xmm0
    1926:	66 0f 6f f0          	movdqa %xmm0,%xmm6
    192a:	66 0f d4 f1          	paddq  %xmm1,%xmm6
    192e:	48 39 c8             	cmp    %rcx,%rax
    1931:	0f 85 71 ff ff ff    	jne    18a8 <riscv_dsp_mean_u8+0x48>
    1937:	89 f7                	mov    %esi,%edi
    1939:	66 0f 6f c6          	movdqa %xmm6,%xmm0
    193d:	83 e7 f0             	and    $0xfffffff0,%edi
    1940:	66 0f 73 d8 08       	psrldq $0x8,%xmm0
    1945:	89 f9                	mov    %edi,%ecx
    1947:	66 0f d4 f0          	paddq  %xmm0,%xmm6
    194b:	48 01 ca             	add    %rcx,%rdx
    194e:	89 f1                	mov    %esi,%ecx
    1950:	66 48 0f 7e f0       	movq   %xmm6,%rax
    1955:	29 f9                	sub    %edi,%ecx
    1957:	39 f7                	cmp    %esi,%edi
    1959:	0f 84 ba 00 00 00    	je     1a19 <riscv_dsp_mean_u8+0x1b9>
    195f:	0f b6 32             	movzbl (%rdx),%esi
    1962:	48 01 f0             	add    %rsi,%rax
    1965:	83 f9 01             	cmp    $0x1,%ecx
    1968:	0f 84 ab 00 00 00    	je     1a19 <riscv_dsp_mean_u8+0x1b9>
    196e:	0f b6 72 01          	movzbl 0x1(%rdx),%esi
    1972:	48 01 f0             	add    %rsi,%rax
    1975:	83 f9 02             	cmp    $0x2,%ecx
    1978:	0f 84 9b 00 00 00    	je     1a19 <riscv_dsp_mean_u8+0x1b9>
    197e:	0f b6 72 02          	movzbl 0x2(%rdx),%esi
    1982:	48 01 f0             	add    %rsi,%rax
    1985:	83 f9 03             	cmp    $0x3,%ecx
    1988:	0f 84 8b 00 00 00    	je     1a19 <riscv_dsp_mean_u8+0x1b9>
    198e:	0f b6 72 03          	movzbl 0x3(%rdx),%esi
    1992:	48 01 f0             	add    %rsi,%rax
    1995:	83 f9 04             	cmp    $0x4,%ecx
    1998:	74 7f                	je     1a19 <riscv_dsp_mean_u8+0x1b9>
    199a:	0f b6 72 04          	movzbl 0x4(%rdx),%esi
    199e:	48 01 f0             	add    %rsi,%rax
    19a1:	83 f9 05             	cmp    $0x5,%ecx
    19a4:	74 73                	je     1a19 <riscv_dsp_mean_u8+0x1b9>
    19a6:	0f b6 72 05          	movzbl 0x5(%rdx),%esi
    19aa:	48 01 f0             	add    %rsi,%rax
    19ad:	83 f9 06             	cmp    $0x6,%ecx
    19b0:	74 67                	je     1a19 <riscv_dsp_mean_u8+0x1b9>
    19b2:	0f b6 72 06          	movzbl 0x6(%rdx),%esi
    19b6:	48 01 f0             	add    %rsi,%rax
    19b9:	83 f9 07             	cmp    $0x7,%ecx
    19bc:	74 5b                	je     1a19 <riscv_dsp_mean_u8+0x1b9>
    19be:	0f b6 72 07          	movzbl 0x7(%rdx),%esi
    19c2:	48 01 f0             	add    %rsi,%rax
    19c5:	83 f9 08             	cmp    $0x8,%ecx
    19c8:	74 4f                	je     1a19 <riscv_dsp_mean_u8+0x1b9>
    19ca:	0f b6 72 08          	movzbl 0x8(%rdx),%esi
    19ce:	48 01 f0             	add    %rsi,%rax
    19d1:	83 f9 09             	cmp    $0x9,%ecx
    19d4:	74 43                	je     1a19 <riscv_dsp_mean_u8+0x1b9>
    19d6:	0f b6 72 09          	movzbl 0x9(%rdx),%esi
    19da:	48 01 f0             	add    %rsi,%rax
    19dd:	83 f9 0a             	cmp    $0xa,%ecx
    19e0:	74 37                	je     1a19 <riscv_dsp_mean_u8+0x1b9>
    19e2:	0f b6 72 0a          	movzbl 0xa(%rdx),%esi
    19e6:	48 01 f0             	add    %rsi,%rax
    19e9:	83 f9 0b             	cmp    $0xb,%ecx
    19ec:	74 2b                	je     1a19 <riscv_dsp_mean_u8+0x1b9>
    19ee:	0f b6 72 0b          	movzbl 0xb(%rdx),%esi
    19f2:	48 01 f0             	add    %rsi,%rax
    19f5:	83 f9 0c             	cmp    $0xc,%ecx
    19f8:	74 1f                	je     1a19 <riscv_dsp_mean_u8+0x1b9>
    19fa:	0f b6 72 0c          	movzbl 0xc(%rdx),%esi
    19fe:	48 01 f0             	add    %rsi,%rax
    1a01:	83 f9 0d             	cmp    $0xd,%ecx
    1a04:	74 13                	je     1a19 <riscv_dsp_mean_u8+0x1b9>
    1a06:	0f b6 72 0d          	movzbl 0xd(%rdx),%esi
    1a0a:	48 01 f0             	add    %rsi,%rax
    1a0d:	83 f9 0e             	cmp    $0xe,%ecx
    1a10:	74 07                	je     1a19 <riscv_dsp_mean_u8+0x1b9>
    1a12:	0f b6 52 0e          	movzbl 0xe(%rdx),%edx
    1a16:	48 01 d0             	add    %rdx,%rax
    1a19:	31 d2                	xor    %edx,%edx
    1a1b:	49 f7 f0             	div    %r8
    1a1e:	c3                   	ret    
    1a1f:	90                   	nop
    1a20:	31 c0                	xor    %eax,%eax
    1a22:	c3                   	ret    
    1a23:	89 f1                	mov    %esi,%ecx
    1a25:	31 c0                	xor    %eax,%eax
    1a27:	e9 33 ff ff ff       	jmp    195f <riscv_dsp_mean_u8+0xff>

Disassembly of section .fini:

0000000000001a2c <_fini>:
    1a2c:	f3 0f 1e fa          	endbr64 
    1a30:	48 83 ec 08          	sub    $0x8,%rsp
    1a34:	48 83 c4 08          	add    $0x8,%rsp
    1a38:	c3                   	ret    
