
t_mfcc_q31:     file format elf64-x86-64


Disassembly of section .init:

0000000000001000 <_init>:
    1000:	f3 0f 1e fa          	endbr64 
    1004:	48 83 ec 08          	sub    $0x8,%rsp
    1008:	48 8b 05 d9 9f 00 00 	mov    0x9fd9(%rip),%rax        # afe8 <__gmon_start__@Base>
    100f:	48 85 c0             	test   %rax,%rax
    1012:	74 02                	je     1016 <_init+0x16>
    1014:	ff d0                	call   *%rax
    1016:	48 83 c4 08          	add    $0x8,%rsp
    101a:	c3                   	ret    

Disassembly of section .plt:

0000000000001020 <.plt>:
    1020:	ff 35 5a 9f 00 00    	push   0x9f5a(%rip)        # af80 <_GLOBAL_OFFSET_TABLE_+0x8>
    1026:	f2 ff 25 5b 9f 00 00 	bnd jmp *0x9f5b(%rip)        # af88 <_GLOBAL_OFFSET_TABLE_+0x10>
    102d:	0f 1f 00             	nopl   (%rax)
    1030:	f3 0f 1e fa          	endbr64 
    1034:	68 00 00 00 00       	push   $0x0
    1039:	f2 e9 e1 ff ff ff    	bnd jmp 1020 <_init+0x20>
    103f:	90                   	nop
    1040:	f3 0f 1e fa          	endbr64 
    1044:	68 01 00 00 00       	push   $0x1
    1049:	f2 e9 d1 ff ff ff    	bnd jmp 1020 <_init+0x20>
    104f:	90                   	nop
    1050:	f3 0f 1e fa          	endbr64 
    1054:	68 02 00 00 00       	push   $0x2
    1059:	f2 e9 c1 ff ff ff    	bnd jmp 1020 <_init+0x20>
    105f:	90                   	nop
    1060:	f3 0f 1e fa          	endbr64 
    1064:	68 03 00 00 00       	push   $0x3
    1069:	f2 e9 b1 ff ff ff    	bnd jmp 1020 <_init+0x20>
    106f:	90                   	nop
    1070:	f3 0f 1e fa          	endbr64 
    1074:	68 04 00 00 00       	push   $0x4
    1079:	f2 e9 a1 ff ff ff    	bnd jmp 1020 <_init+0x20>
    107f:	90                   	nop
    1080:	f3 0f 1e fa          	endbr64 
    1084:	68 05 00 00 00       	push   $0x5
    1089:	f2 e9 91 ff ff ff    	bnd jmp 1020 <_init+0x20>
    108f:	90                   	nop
    1090:	f3 0f 1e fa          	endbr64 
    1094:	68 06 00 00 00       	push   $0x6
    1099:	f2 e9 81 ff ff ff    	bnd jmp 1020 <_init+0x20>
    109f:	90                   	nop
    10a0:	f3 0f 1e fa          	endbr64 
    10a4:	68 07 00 00 00       	push   $0x7
    10a9:	f2 e9 71 ff ff ff    	bnd jmp 1020 <_init+0x20>
    10af:	90                   	nop
    10b0:	f3 0f 1e fa          	endbr64 
    10b4:	68 08 00 00 00       	push   $0x8
    10b9:	f2 e9 61 ff ff ff    	bnd jmp 1020 <_init+0x20>
    10bf:	90                   	nop

Disassembly of section .plt.got:

00000000000010c0 <__cxa_finalize@plt>:
    10c0:	f3 0f 1e fa          	endbr64 
    10c4:	f2 ff 25 2d 9f 00 00 	bnd jmp *0x9f2d(%rip)        # aff8 <__cxa_finalize@GLIBC_2.2.5>
    10cb:	0f 1f 44 00 00       	nopl   0x0(%rax,%rax,1)

Disassembly of section .plt.sec:

00000000000010d0 <puts@plt>:
    10d0:	f3 0f 1e fa          	endbr64 
    10d4:	f2 ff 25 b5 9e 00 00 	bnd jmp *0x9eb5(%rip)        # af90 <puts@GLIBC_2.2.5>
    10db:	0f 1f 44 00 00       	nopl   0x0(%rax,%rax,1)

00000000000010e0 <fread@plt>:
    10e0:	f3 0f 1e fa          	endbr64 
    10e4:	f2 ff 25 ad 9e 00 00 	bnd jmp *0x9ead(%rip)        # af98 <fread@GLIBC_2.2.5>
    10eb:	0f 1f 44 00 00       	nopl   0x0(%rax,%rax,1)

00000000000010f0 <fclose@plt>:
    10f0:	f3 0f 1e fa          	endbr64 
    10f4:	f2 ff 25 a5 9e 00 00 	bnd jmp *0x9ea5(%rip)        # afa0 <fclose@GLIBC_2.2.5>
    10fb:	0f 1f 44 00 00       	nopl   0x0(%rax,%rax,1)

0000000000001100 <__stack_chk_fail@plt>:
    1100:	f3 0f 1e fa          	endbr64 
    1104:	f2 ff 25 9d 9e 00 00 	bnd jmp *0x9e9d(%rip)        # afa8 <__stack_chk_fail@GLIBC_2.4>
    110b:	0f 1f 44 00 00       	nopl   0x0(%rax,%rax,1)

0000000000001110 <log10f@plt>:
    1110:	f3 0f 1e fa          	endbr64 
    1114:	f2 ff 25 95 9e 00 00 	bnd jmp *0x9e95(%rip)        # afb0 <log10f@GLIBC_2.2.5>
    111b:	0f 1f 44 00 00       	nopl   0x0(%rax,%rax,1)

0000000000001120 <__printf_chk@plt>:
    1120:	f3 0f 1e fa          	endbr64 
    1124:	f2 ff 25 8d 9e 00 00 	bnd jmp *0x9e8d(%rip)        # afb8 <__printf_chk@GLIBC_2.3.4>
    112b:	0f 1f 44 00 00       	nopl   0x0(%rax,%rax,1)

0000000000001130 <fopen@plt>:
    1130:	f3 0f 1e fa          	endbr64 
    1134:	f2 ff 25 85 9e 00 00 	bnd jmp *0x9e85(%rip)        # afc0 <fopen@GLIBC_2.2.5>
    113b:	0f 1f 44 00 00       	nopl   0x0(%rax,%rax,1)

0000000000001140 <sqrt@plt>:
    1140:	f3 0f 1e fa          	endbr64 
    1144:	f2 ff 25 7d 9e 00 00 	bnd jmp *0x9e7d(%rip)        # afc8 <sqrt@GLIBC_2.2.5>
    114b:	0f 1f 44 00 00       	nopl   0x0(%rax,%rax,1)

0000000000001150 <__sprintf_chk@plt>:
    1150:	f3 0f 1e fa          	endbr64 
    1154:	f2 ff 25 75 9e 00 00 	bnd jmp *0x9e75(%rip)        # afd0 <__sprintf_chk@GLIBC_2.3.4>
    115b:	0f 1f 44 00 00       	nopl   0x0(%rax,%rax,1)

Disassembly of section .text:

0000000000001160 <main>:
    1160:	f3 0f 1e fa          	endbr64 
    1164:	41 57                	push   %r15
    1166:	48 8d 05 c3 6f 00 00 	lea    0x6fc3(%rip),%rax        # 8130 <_IO_stdin_used+0x130>
    116d:	4c 8d 0d 54 6f 00 00 	lea    0x6f54(%rip),%r9        # 80c8 <_IO_stdin_used+0xc8>
    1174:	41 b8 ec 00 00 00    	mov    $0xec,%r8d
    117a:	41 56                	push   %r14
    117c:	48 8d 35 64 72 00 00 	lea    0x7264(%rip),%rsi        # 83e7 <_IO_stdin_used+0x3e7>
    1183:	bf 00 01 00 00       	mov    $0x100,%edi
    1188:	4c 8d 3d 39 70 00 00 	lea    0x7039(%rip),%r15        # 81c8 <_IO_stdin_used+0x1c8>
    118f:	41 55                	push   %r13
    1191:	4c 8d 2d 58 6f 00 00 	lea    0x6f58(%rip),%r13        # 80f0 <_IO_stdin_used+0xf0>
    1198:	4c 8d 35 e1 70 00 00 	lea    0x70e1(%rip),%r14        # 8280 <_IO_stdin_used+0x280>
    119f:	41 54                	push   %r12
    11a1:	4c 8d 25 68 6f 00 00 	lea    0x6f68(%rip),%r12        # 8110 <_IO_stdin_used+0x110>
    11a8:	4c 89 e9             	mov    %r13,%rcx
    11ab:	55                   	push   %rbp
    11ac:	4c 89 e2             	mov    %r12,%rdx
    11af:	53                   	push   %rbx
    11b0:	48 8d 1d a1 6f 00 00 	lea    0x6fa1(%rip),%rbx        # 8158 <_IO_stdin_used+0x158>
    11b7:	48 83 ec 10          	sub    $0x10,%rsp
    11bb:	50                   	push   %rax
    11bc:	53                   	push   %rbx
    11bd:	68 00 01 00 00       	push   $0x100
    11c2:	e8 99 02 00 00       	call   1460 <test.constprop.0>
    11c7:	48 83 c4 18          	add    $0x18,%rsp
    11cb:	4c 89 fa             	mov    %r15,%rdx
    11ce:	4c 8d 15 d3 6f 00 00 	lea    0x6fd3(%rip),%r10        # 81a8 <_IO_stdin_used+0x1a8>
    11d5:	89 c5                	mov    %eax,%ebp
    11d7:	4c 89 d1             	mov    %r10,%rcx
    11da:	41 b8 d9 01 00 00    	mov    $0x1d9,%r8d
    11e0:	bf 00 02 00 00       	mov    $0x200,%edi
    11e5:	48 8d 05 fc 6f 00 00 	lea    0x6ffc(%rip),%rax        # 81e8 <_IO_stdin_used+0x1e8>
    11ec:	4c 8d 0d 8d 6f 00 00 	lea    0x6f8d(%rip),%r9        # 8180 <_IO_stdin_used+0x180>
    11f3:	50                   	push   %rax
    11f4:	48 8d 05 15 70 00 00 	lea    0x7015(%rip),%rax        # 8210 <_IO_stdin_used+0x210>
    11fb:	48 8d 35 00 72 00 00 	lea    0x7200(%rip),%rsi        # 8402 <_IO_stdin_used+0x402>
    1202:	50                   	push   %rax
    1203:	68 00 02 00 00       	push   $0x200
    1208:	e8 53 02 00 00       	call   1460 <test.constprop.0>
    120d:	48 83 c4 18          	add    $0x18,%rsp
    1211:	48 8d 0d 88 70 00 00 	lea    0x7088(%rip),%rcx        # 82a0 <_IO_stdin_used+0x2a0>
    1218:	48 8d 15 a9 70 00 00 	lea    0x70a9(%rip),%rdx        # 82c8 <_IO_stdin_used+0x2c8>
    121f:	51                   	push   %rcx
    1220:	4c 8d 1d 39 70 00 00 	lea    0x7039(%rip),%r11        # 8260 <_IO_stdin_used+0x260>
    1227:	41 b8 b4 03 00 00    	mov    $0x3b4,%r8d
    122d:	09 c5                	or     %eax,%ebp
    122f:	52                   	push   %rdx
    1230:	4c 89 d9             	mov    %r11,%rcx
    1233:	4c 89 f2             	mov    %r14,%rdx
    1236:	4c 8d 0d fb 6f 00 00 	lea    0x6ffb(%rip),%r9        # 8238 <_IO_stdin_used+0x238>
    123d:	68 00 04 00 00       	push   $0x400
    1242:	48 8d 35 d4 71 00 00 	lea    0x71d4(%rip),%rsi        # 841d <_IO_stdin_used+0x41d>
    1249:	bf 00 04 00 00       	mov    $0x400,%edi
    124e:	e8 0d 02 00 00       	call   1460 <test.constprop.0>
    1253:	48 83 c4 18          	add    $0x18,%rsp
    1257:	4c 89 e9             	mov    %r13,%rcx
    125a:	4c 89 e2             	mov    %r12,%rdx
    125d:	48 8d 3d 8c 70 00 00 	lea    0x708c(%rip),%rdi        # 82f0 <_IO_stdin_used+0x2f0>
    1264:	4c 8d 0d 5d 6e 00 00 	lea    0x6e5d(%rip),%r9        # 80c8 <_IO_stdin_used+0xc8>
    126b:	41 b8 ec 00 00 00    	mov    $0xec,%r8d
    1271:	09 c5                	or     %eax,%ebp
    1273:	57                   	push   %rdi
    1274:	48 8d 35 be 71 00 00 	lea    0x71be(%rip),%rsi        # 8439 <_IO_stdin_used+0x439>
    127b:	bf 00 01 00 00       	mov    $0x100,%edi
    1280:	53                   	push   %rbx
    1281:	68 00 01 00 00       	push   $0x100
    1286:	e8 d5 01 00 00       	call   1460 <test.constprop.0>
    128b:	48 83 c4 18          	add    $0x18,%rsp
    128f:	4c 89 fa             	mov    %r15,%rdx
    1292:	bf 00 02 00 00       	mov    $0x200,%edi
    1297:	09 c5                	or     %eax,%ebp
    1299:	48 8d 0d 78 70 00 00 	lea    0x7078(%rip),%rcx        # 8318 <_IO_stdin_used+0x318>
    12a0:	48 8d 05 69 6f 00 00 	lea    0x6f69(%rip),%rax        # 8210 <_IO_stdin_used+0x210>
    12a7:	41 b8 d9 01 00 00    	mov    $0x1d9,%r8d
    12ad:	51                   	push   %rcx
    12ae:	4c 8d 15 f3 6e 00 00 	lea    0x6ef3(%rip),%r10        # 81a8 <_IO_stdin_used+0x1a8>
    12b5:	4c 8d 0d c4 6e 00 00 	lea    0x6ec4(%rip),%r9        # 8180 <_IO_stdin_used+0x180>
    12bc:	50                   	push   %rax
    12bd:	4c 89 d1             	mov    %r10,%rcx
    12c0:	48 8d 35 8f 71 00 00 	lea    0x718f(%rip),%rsi        # 8456 <_IO_stdin_used+0x456>
    12c7:	68 00 02 00 00       	push   $0x200
    12cc:	e8 8f 01 00 00       	call   1460 <test.constprop.0>
    12d1:	48 83 c4 18          	add    $0x18,%rsp
    12d5:	48 8d 15 ec 6f 00 00 	lea    0x6fec(%rip),%rdx        # 82c8 <_IO_stdin_used+0x2c8>
    12dc:	4c 8d 1d 7d 6f 00 00 	lea    0x6f7d(%rip),%r11        # 8260 <_IO_stdin_used+0x260>
    12e3:	09 c5                	or     %eax,%ebp
    12e5:	4c 89 d9             	mov    %r11,%rcx
    12e8:	41 b8 b4 03 00 00    	mov    $0x3b4,%r8d
    12ee:	bf 00 04 00 00       	mov    $0x400,%edi
    12f3:	48 8d 05 46 70 00 00 	lea    0x7046(%rip),%rax        # 8340 <_IO_stdin_used+0x340>
    12fa:	4c 8d 0d 37 6f 00 00 	lea    0x6f37(%rip),%r9        # 8238 <_IO_stdin_used+0x238>
    1301:	50                   	push   %rax
    1302:	48 8d 35 6a 71 00 00 	lea    0x716a(%rip),%rsi        # 8473 <_IO_stdin_used+0x473>
    1309:	52                   	push   %rdx
    130a:	4c 89 f2             	mov    %r14,%rdx
    130d:	68 00 04 00 00       	push   $0x400
    1312:	e8 49 01 00 00       	call   1460 <test.constprop.0>
    1317:	48 83 c4 18          	add    $0x18,%rsp
    131b:	4c 89 e9             	mov    %r13,%rcx
    131e:	4c 89 e2             	mov    %r12,%rdx
    1321:	09 c5                	or     %eax,%ebp
    1323:	48 8d 05 3e 70 00 00 	lea    0x703e(%rip),%rax        # 8368 <_IO_stdin_used+0x368>
    132a:	4c 8d 0d 97 6d 00 00 	lea    0x6d97(%rip),%r9        # 80c8 <_IO_stdin_used+0xc8>
    1331:	41 b8 ec 00 00 00    	mov    $0xec,%r8d
    1337:	50                   	push   %rax
    1338:	48 8d 35 52 71 00 00 	lea    0x7152(%rip),%rsi        # 8491 <_IO_stdin_used+0x491>
    133f:	bf 00 01 00 00       	mov    $0x100,%edi
    1344:	53                   	push   %rbx
    1345:	68 00 01 00 00       	push   $0x100
    134a:	e8 11 01 00 00       	call   1460 <test.constprop.0>
    134f:	48 83 c4 28          	add    $0x28,%rsp
    1353:	5b                   	pop    %rbx
    1354:	09 e8                	or     %ebp,%eax
    1356:	5d                   	pop    %rbp
    1357:	41 5c                	pop    %r12
    1359:	41 5d                	pop    %r13
    135b:	41 5e                	pop    %r14
    135d:	41 5f                	pop    %r15
    135f:	c3                   	ret    

0000000000001360 <_start>:
    1360:	f3 0f 1e fa          	endbr64 
    1364:	31 ed                	xor    %ebp,%ebp
    1366:	49 89 d1             	mov    %rdx,%r9
    1369:	5e                   	pop    %rsi
    136a:	48 89 e2             	mov    %rsp,%rdx
    136d:	48 83 e4 f0          	and    $0xfffffffffffffff0,%rsp
    1371:	50                   	push   %rax
    1372:	54                   	push   %rsp
    1373:	45 31 c0             	xor    %r8d,%r8d
    1376:	31 c9                	xor    %ecx,%ecx
    1378:	48 8d 3d e1 fd ff ff 	lea    -0x21f(%rip),%rdi        # 1160 <main>
    137f:	ff 15 53 9c 00 00    	call   *0x9c53(%rip)        # afd8 <__libc_start_main@GLIBC_2.34>
    1385:	f4                   	hlt    
    1386:	66 2e 0f 1f 84 00 00 	cs nopw 0x0(%rax,%rax,1)
    138d:	00 00 00 

0000000000001390 <deregister_tm_clones>:
    1390:	48 8d 3d 79 9c 00 00 	lea    0x9c79(%rip),%rdi        # b010 <__TMC_END__>
    1397:	48 8d 05 72 9c 00 00 	lea    0x9c72(%rip),%rax        # b010 <__TMC_END__>
    139e:	48 39 f8             	cmp    %rdi,%rax
    13a1:	74 15                	je     13b8 <deregister_tm_clones+0x28>
    13a3:	48 8b 05 36 9c 00 00 	mov    0x9c36(%rip),%rax        # afe0 <_ITM_deregisterTMCloneTable@Base>
    13aa:	48 85 c0             	test   %rax,%rax
    13ad:	74 09                	je     13b8 <deregister_tm_clones+0x28>
    13af:	ff e0                	jmp    *%rax
    13b1:	0f 1f 80 00 00 00 00 	nopl   0x0(%rax)
    13b8:	c3                   	ret    
    13b9:	0f 1f 80 00 00 00 00 	nopl   0x0(%rax)

00000000000013c0 <register_tm_clones>:
    13c0:	48 8d 3d 49 9c 00 00 	lea    0x9c49(%rip),%rdi        # b010 <__TMC_END__>
    13c7:	48 8d 35 42 9c 00 00 	lea    0x9c42(%rip),%rsi        # b010 <__TMC_END__>
    13ce:	48 29 fe             	sub    %rdi,%rsi
    13d1:	48 89 f0             	mov    %rsi,%rax
    13d4:	48 c1 ee 3f          	shr    $0x3f,%rsi
    13d8:	48 c1 f8 03          	sar    $0x3,%rax
    13dc:	48 01 c6             	add    %rax,%rsi
    13df:	48 d1 fe             	sar    %rsi
    13e2:	74 14                	je     13f8 <register_tm_clones+0x38>
    13e4:	48 8b 05 05 9c 00 00 	mov    0x9c05(%rip),%rax        # aff0 <_ITM_registerTMCloneTable@Base>
    13eb:	48 85 c0             	test   %rax,%rax
    13ee:	74 08                	je     13f8 <register_tm_clones+0x38>
    13f0:	ff e0                	jmp    *%rax
    13f2:	66 0f 1f 44 00 00    	nopw   0x0(%rax,%rax,1)
    13f8:	c3                   	ret    
    13f9:	0f 1f 80 00 00 00 00 	nopl   0x0(%rax)

0000000000001400 <__do_global_dtors_aux>:
    1400:	f3 0f 1e fa          	endbr64 
    1404:	80 3d 05 9c 00 00 00 	cmpb   $0x0,0x9c05(%rip)        # b010 <__TMC_END__>
    140b:	75 2b                	jne    1438 <__do_global_dtors_aux+0x38>
    140d:	55                   	push   %rbp
    140e:	48 83 3d e2 9b 00 00 	cmpq   $0x0,0x9be2(%rip)        # aff8 <__cxa_finalize@GLIBC_2.2.5>
    1415:	00 
    1416:	48 89 e5             	mov    %rsp,%rbp
    1419:	74 0c                	je     1427 <__do_global_dtors_aux+0x27>
    141b:	48 8b 3d e6 9b 00 00 	mov    0x9be6(%rip),%rdi        # b008 <__dso_handle>
    1422:	e8 99 fc ff ff       	call   10c0 <__cxa_finalize@plt>
    1427:	e8 64 ff ff ff       	call   1390 <deregister_tm_clones>
    142c:	c6 05 dd 9b 00 00 01 	movb   $0x1,0x9bdd(%rip)        # b010 <__TMC_END__>
    1433:	5d                   	pop    %rbp
    1434:	c3                   	ret    
    1435:	0f 1f 00             	nopl   (%rax)
    1438:	c3                   	ret    
    1439:	0f 1f 80 00 00 00 00 	nopl   0x0(%rax)

0000000000001440 <frame_dummy>:
    1440:	f3 0f 1e fa          	endbr64 
    1444:	e9 77 ff ff ff       	jmp    13c0 <register_tm_clones>
    1449:	0f 1f 80 00 00 00 00 	nopl   0x0(%rax)

0000000000001450 <test_Fread.constprop.0.isra.0>:
    1450:	48 89 d1             	mov    %rdx,%rcx
    1453:	89 f2                	mov    %esi,%edx
    1455:	be 04 00 00 00       	mov    $0x4,%esi
    145a:	e9 81 fc ff ff       	jmp    10e0 <fread@plt>
    145f:	90                   	nop

0000000000001460 <test.constprop.0>:
    1460:	55                   	push   %rbp
    1461:	48 89 e5             	mov    %rsp,%rbp
    1464:	41 57                	push   %r15
    1466:	49 89 d7             	mov    %rdx,%r15
    1469:	41 56                	push   %r14
    146b:	41 55                	push   %r13
    146d:	41 54                	push   %r12
    146f:	53                   	push   %rbx
    1470:	48 89 cb             	mov    %rcx,%rbx
    1473:	48 81 ec 58 04 00 00 	sub    $0x458,%rsp
    147a:	48 8b 45 18          	mov    0x18(%rbp),%rax
    147e:	89 bd d8 fb ff ff    	mov    %edi,-0x428(%rbp)
    1484:	44 89 85 c8 fb ff ff 	mov    %r8d,-0x438(%rbp)
    148b:	48 89 e2             	mov    %rsp,%rdx
    148e:	48 89 85 a0 fb ff ff 	mov    %rax,-0x460(%rbp)
    1495:	48 8b 45 20          	mov    0x20(%rbp),%rax
    1499:	4c 89 8d a8 fb ff ff 	mov    %r9,-0x458(%rbp)
    14a0:	48 89 85 98 fb ff ff 	mov    %rax,-0x468(%rbp)
    14a7:	64 48 8b 04 25 28 00 	mov    %fs:0x28,%rax
    14ae:	00 00 
    14b0:	48 89 45 c8          	mov    %rax,-0x38(%rbp)
    14b4:	31 c0                	xor    %eax,%eax
    14b6:	89 f8                	mov    %edi,%eax
    14b8:	48 8d 04 85 0f 00 00 	lea    0xf(,%rax,4),%rax
    14bf:	00 
    14c0:	48 c1 e8 04          	shr    $0x4,%rax
    14c4:	48 c1 e0 04          	shl    $0x4,%rax
    14c8:	48 89 c1             	mov    %rax,%rcx
    14cb:	48 81 e1 00 f0 ff ff 	and    $0xfffffffffffff000,%rcx
    14d2:	48 29 ca             	sub    %rcx,%rdx
    14d5:	48 39 d4             	cmp    %rdx,%rsp
    14d8:	74 15                	je     14ef <test.constprop.0+0x8f>
    14da:	48 81 ec 00 10 00 00 	sub    $0x1000,%rsp
    14e1:	48 83 8c 24 f8 0f 00 	orq    $0x0,0xff8(%rsp)
    14e8:	00 00 
    14ea:	48 39 d4             	cmp    %rdx,%rsp
    14ed:	75 eb                	jne    14da <test.constprop.0+0x7a>
    14ef:	25 ff 0f 00 00       	and    $0xfff,%eax
    14f4:	48 29 c4             	sub    %rax,%rsp
    14f7:	48 85 c0             	test   %rax,%rax
    14fa:	75 47                	jne    1543 <test.constprop.0+0xe3>
    14fc:	8b 85 d8 fb ff ff    	mov    -0x428(%rbp),%eax
    1502:	48 89 a5 d0 fb ff ff 	mov    %rsp,-0x430(%rbp)
    1509:	48 89 e2             	mov    %rsp,%rdx
    150c:	83 c0 02             	add    $0x2,%eax
    150f:	48 8d 04 85 0f 00 00 	lea    0xf(,%rax,4),%rax
    1516:	00 
    1517:	48 c1 e8 04          	shr    $0x4,%rax
    151b:	48 c1 e0 04          	shl    $0x4,%rax
    151f:	48 89 c1             	mov    %rax,%rcx
    1522:	48 81 e1 00 f0 ff ff 	and    $0xfffffffffffff000,%rcx
    1529:	48 29 ca             	sub    %rcx,%rdx
    152c:	48 39 d4             	cmp    %rdx,%rsp
    152f:	74 1a                	je     154b <test.constprop.0+0xeb>
    1531:	48 81 ec 00 10 00 00 	sub    $0x1000,%rsp
    1538:	48 83 8c 24 f8 0f 00 	orq    $0x0,0xff8(%rsp)
    153f:	00 00 
    1541:	eb e9                	jmp    152c <test.constprop.0+0xcc>
    1543:	48 83 4c 04 f8 00    	orq    $0x0,-0x8(%rsp,%rax,1)
    1549:	eb b1                	jmp    14fc <test.constprop.0+0x9c>
    154b:	25 ff 0f 00 00       	and    $0xfff,%eax
    1550:	48 29 c4             	sub    %rax,%rsp
    1553:	48 85 c0             	test   %rax,%rax
    1556:	75 21                	jne    1579 <test.constprop.0+0x119>
    1558:	48 89 a5 88 fb ff ff 	mov    %rsp,-0x478(%rbp)
    155f:	48 89 e0             	mov    %rsp,%rax
    1562:	48 39 c4             	cmp    %rax,%rsp
    1565:	74 1a                	je     1581 <test.constprop.0+0x121>
    1567:	48 81 ec 00 10 00 00 	sub    $0x1000,%rsp
    156e:	48 83 8c 24 f8 0f 00 	orq    $0x0,0xff8(%rsp)
    1575:	00 00 
    1577:	eb e9                	jmp    1562 <test.constprop.0+0x102>
    1579:	48 83 4c 04 f8 00    	orq    $0x0,-0x8(%rsp,%rax,1)
    157f:	eb d7                	jmp    1558 <test.constprop.0+0xf8>
    1581:	48 81 ec 10 04 00 00 	sub    $0x410,%rsp
    1588:	48 83 8c 24 08 04 00 	orq    $0x0,0x408(%rsp)
    158f:	00 00 
    1591:	8b 85 c8 fb ff ff    	mov    -0x438(%rbp),%eax
    1597:	48 8d 04 85 0f 00 00 	lea    0xf(,%rax,4),%rax
    159e:	00 
    159f:	48 c1 e8 04          	shr    $0x4,%rax
    15a3:	48 c1 e0 04          	shl    $0x4,%rax
    15a7:	48 89 a5 c0 fb ff ff 	mov    %rsp,-0x440(%rbp)
    15ae:	48 89 e2             	mov    %rsp,%rdx
    15b1:	48 89 c1             	mov    %rax,%rcx
    15b4:	48 81 e1 00 f0 ff ff 	and    $0xfffffffffffff000,%rcx
    15bb:	48 29 ca             	sub    %rcx,%rdx
    15be:	48 39 d4             	cmp    %rdx,%rsp
    15c1:	74 12                	je     15d5 <test.constprop.0+0x175>
    15c3:	48 81 ec 00 10 00 00 	sub    $0x1000,%rsp
    15ca:	48 83 8c 24 f8 0f 00 	orq    $0x0,0xff8(%rsp)
    15d1:	00 00 
    15d3:	eb e9                	jmp    15be <test.constprop.0+0x15e>
    15d5:	25 ff 0f 00 00       	and    $0xfff,%eax
    15da:	48 29 c4             	sub    %rax,%rsp
    15dd:	48 85 c0             	test   %rax,%rax
    15e0:	74 06                	je     15e8 <test.constprop.0+0x188>
    15e2:	48 83 4c 04 f8 00    	orq    $0x0,-0x8(%rsp,%rax,1)
    15e8:	8b 45 10             	mov    0x10(%rbp),%eax
    15eb:	48 89 a5 b8 fb ff ff 	mov    %rsp,-0x448(%rbp)
    15f2:	48 89 e2             	mov    %rsp,%rdx
    15f5:	48 8d 04 85 0f 00 00 	lea    0xf(,%rax,4),%rax
    15fc:	00 
    15fd:	48 c1 e8 04          	shr    $0x4,%rax
    1601:	48 c1 e0 04          	shl    $0x4,%rax
    1605:	48 89 c1             	mov    %rax,%rcx
    1608:	48 81 e1 00 f0 ff ff 	and    $0xfffffffffffff000,%rcx
    160f:	48 29 ca             	sub    %rcx,%rdx
    1612:	48 39 d4             	cmp    %rdx,%rsp
    1615:	74 12                	je     1629 <test.constprop.0+0x1c9>
    1617:	48 81 ec 00 10 00 00 	sub    $0x1000,%rsp
    161e:	48 83 8c 24 f8 0f 00 	orq    $0x0,0xff8(%rsp)
    1625:	00 00 
    1627:	eb e9                	jmp    1612 <test.constprop.0+0x1b2>
    1629:	25 ff 0f 00 00       	and    $0xfff,%eax
    162e:	48 29 c4             	sub    %rax,%rsp
    1631:	48 85 c0             	test   %rax,%rax
    1634:	74 06                	je     163c <test.constprop.0+0x1dc>
    1636:	48 83 4c 04 f8 00    	orq    $0x0,-0x8(%rsp,%rax,1)
    163c:	4c 8d a5 c0 fd ff ff 	lea    -0x240(%rbp),%r12
    1643:	4c 8d 35 43 6d 00 00 	lea    0x6d43(%rip),%r14        # 838d <_IO_stdin_used+0x38d>
    164a:	49 89 f1             	mov    %rsi,%r9
    164d:	31 c0                	xor    %eax,%eax
    164f:	be 01 00 00 00       	mov    $0x1,%esi
    1654:	4c 89 e7             	mov    %r12,%rdi
    1657:	4c 89 f1             	mov    %r14,%rcx
    165a:	ba 00 02 00 00       	mov    $0x200,%edx
    165f:	4c 8d 05 a2 69 00 00 	lea    0x69a2(%rip),%r8        # 8008 <_IO_stdin_used+0x8>
    1666:	4c 8d 2d 26 6d 00 00 	lea    0x6d26(%rip),%r13        # 8393 <_IO_stdin_used+0x393>
    166d:	48 89 a5 b0 fb ff ff 	mov    %rsp,-0x450(%rbp)
    1674:	e8 d7 fa ff ff       	call   1150 <__sprintf_chk@plt>
    1679:	4c 89 ee             	mov    %r13,%rsi
    167c:	4c 89 e7             	mov    %r12,%rdi
    167f:	e8 ac fa ff ff       	call   1130 <fopen@plt>
    1684:	48 85 c0             	test   %rax,%rax
    1687:	0f 84 be 06 00 00    	je     1d4b <test.constprop.0+0x8eb>
    168d:	8b b5 d8 fb ff ff    	mov    -0x428(%rbp),%esi
    1693:	48 8b bd d0 fb ff ff 	mov    -0x430(%rbp),%rdi
    169a:	48 89 c2             	mov    %rax,%rdx
    169d:	48 89 85 90 fb ff ff 	mov    %rax,-0x470(%rbp)
    16a4:	e8 a7 fd ff ff       	call   1450 <test_Fread.constprop.0.isra.0>
    16a9:	48 8b bd 90 fb ff ff 	mov    -0x470(%rbp),%rdi
    16b0:	e8 3b fa ff ff       	call   10f0 <fclose@plt>
    16b5:	be 01 00 00 00       	mov    $0x1,%esi
    16ba:	4c 89 e7             	mov    %r12,%rdi
    16bd:	31 c0                	xor    %eax,%eax
    16bf:	4c 8d 0d 8a 69 00 00 	lea    0x698a(%rip),%r9        # 8050 <_IO_stdin_used+0x50>
    16c6:	4c 8d 05 3b 69 00 00 	lea    0x693b(%rip),%r8        # 8008 <_IO_stdin_used+0x8>
    16cd:	4c 89 f1             	mov    %r14,%rcx
    16d0:	ba 00 02 00 00       	mov    $0x200,%edx
    16d5:	e8 76 fa ff ff       	call   1150 <__sprintf_chk@plt>
    16da:	4c 89 ee             	mov    %r13,%rsi
    16dd:	4c 89 e7             	mov    %r12,%rdi
    16e0:	e8 4b fa ff ff       	call   1130 <fopen@plt>
    16e5:	48 85 c0             	test   %rax,%rax
    16e8:	0f 84 5d 06 00 00    	je     1d4b <test.constprop.0+0x8eb>
    16ee:	48 8b bd c0 fb ff ff 	mov    -0x440(%rbp),%rdi
    16f5:	48 89 c2             	mov    %rax,%rdx
    16f8:	be 04 01 00 00       	mov    $0x104,%esi
    16fd:	48 89 85 90 fb ff ff 	mov    %rax,-0x470(%rbp)
    1704:	e8 47 fd ff ff       	call   1450 <test_Fread.constprop.0.isra.0>
    1709:	48 8b bd 90 fb ff ff 	mov    -0x470(%rbp),%rdi
    1710:	e8 db f9 ff ff       	call   10f0 <fclose@plt>
    1715:	be 01 00 00 00       	mov    $0x1,%esi
    171a:	4c 89 e7             	mov    %r12,%rdi
    171d:	31 c0                	xor    %eax,%eax
    171f:	4d 89 f9             	mov    %r15,%r9
    1722:	4c 8d 05 df 68 00 00 	lea    0x68df(%rip),%r8        # 8008 <_IO_stdin_used+0x8>
    1729:	4c 89 f1             	mov    %r14,%rcx
    172c:	ba 00 02 00 00       	mov    $0x200,%edx
    1731:	e8 1a fa ff ff       	call   1150 <__sprintf_chk@plt>
    1736:	4c 89 ee             	mov    %r13,%rsi
    1739:	4c 89 e7             	mov    %r12,%rdi
    173c:	e8 ef f9 ff ff       	call   1130 <fopen@plt>
    1741:	48 85 c0             	test   %rax,%rax
    1744:	0f 84 01 06 00 00    	je     1d4b <test.constprop.0+0x8eb>
    174a:	4c 8d bd 20 fd ff ff 	lea    -0x2e0(%rbp),%r15
    1751:	48 89 c2             	mov    %rax,%rdx
    1754:	be 14 00 00 00       	mov    $0x14,%esi
    1759:	48 89 85 90 fb ff ff 	mov    %rax,-0x470(%rbp)
    1760:	4c 89 ff             	mov    %r15,%rdi
    1763:	e8 e8 fc ff ff       	call   1450 <test_Fread.constprop.0.isra.0>
    1768:	48 8b bd 90 fb ff ff 	mov    -0x470(%rbp),%rdi
    176f:	e8 7c f9 ff ff       	call   10f0 <fclose@plt>
    1774:	be 01 00 00 00       	mov    $0x1,%esi
    1779:	4c 89 e7             	mov    %r12,%rdi
    177c:	31 c0                	xor    %eax,%eax
    177e:	49 89 d9             	mov    %rbx,%r9
    1781:	4c 8d 05 80 68 00 00 	lea    0x6880(%rip),%r8        # 8008 <_IO_stdin_used+0x8>
    1788:	4c 89 f1             	mov    %r14,%rcx
    178b:	ba 00 02 00 00       	mov    $0x200,%edx
    1790:	e8 bb f9 ff ff       	call   1150 <__sprintf_chk@plt>
    1795:	4c 89 ee             	mov    %r13,%rsi
    1798:	4c 89 e7             	mov    %r12,%rdi
    179b:	e8 90 f9 ff ff       	call   1130 <fopen@plt>
    17a0:	48 85 c0             	test   %rax,%rax
    17a3:	0f 84 a2 05 00 00    	je     1d4b <test.constprop.0+0x8eb>
    17a9:	48 8d 9d 70 fd ff ff 	lea    -0x290(%rbp),%rbx
    17b0:	48 89 c2             	mov    %rax,%rdx
    17b3:	be 14 00 00 00       	mov    $0x14,%esi
    17b8:	48 89 85 90 fb ff ff 	mov    %rax,-0x470(%rbp)
    17bf:	48 89 df             	mov    %rbx,%rdi
    17c2:	e8 89 fc ff ff       	call   1450 <test_Fread.constprop.0.isra.0>
    17c7:	48 8b bd 90 fb ff ff 	mov    -0x470(%rbp),%rdi
    17ce:	e8 1d f9 ff ff       	call   10f0 <fclose@plt>
    17d3:	be 01 00 00 00       	mov    $0x1,%esi
    17d8:	4c 89 e7             	mov    %r12,%rdi
    17db:	31 c0                	xor    %eax,%eax
    17dd:	4c 8b 8d a8 fb ff ff 	mov    -0x458(%rbp),%r9
    17e4:	4c 8d 05 1d 68 00 00 	lea    0x681d(%rip),%r8        # 8008 <_IO_stdin_used+0x8>
    17eb:	4c 89 f1             	mov    %r14,%rcx
    17ee:	ba 00 02 00 00       	mov    $0x200,%edx
    17f3:	e8 58 f9 ff ff       	call   1150 <__sprintf_chk@plt>
    17f8:	4c 89 ee             	mov    %r13,%rsi
    17fb:	4c 89 e7             	mov    %r12,%rdi
    17fe:	e8 2d f9 ff ff       	call   1130 <fopen@plt>
    1803:	48 85 c0             	test   %rax,%rax
    1806:	0f 84 3f 05 00 00    	je     1d4b <test.constprop.0+0x8eb>
    180c:	8b b5 c8 fb ff ff    	mov    -0x438(%rbp),%esi
    1812:	48 8b bd b8 fb ff ff 	mov    -0x448(%rbp),%rdi
    1819:	48 89 c2             	mov    %rax,%rdx
    181c:	48 89 85 a8 fb ff ff 	mov    %rax,-0x458(%rbp)
    1823:	e8 28 fc ff ff       	call   1450 <test_Fread.constprop.0.isra.0>
    1828:	48 8b bd a8 fb ff ff 	mov    -0x458(%rbp),%rdi
    182f:	e8 bc f8 ff ff       	call   10f0 <fclose@plt>
    1834:	be 01 00 00 00       	mov    $0x1,%esi
    1839:	4c 89 e7             	mov    %r12,%rdi
    183c:	31 c0                	xor    %eax,%eax
    183e:	4c 8b 8d a0 fb ff ff 	mov    -0x460(%rbp),%r9
    1845:	4c 8d 05 bc 67 00 00 	lea    0x67bc(%rip),%r8        # 8008 <_IO_stdin_used+0x8>
    184c:	4c 89 f1             	mov    %r14,%rcx
    184f:	ba 00 02 00 00       	mov    $0x200,%edx
    1854:	e8 f7 f8 ff ff       	call   1150 <__sprintf_chk@plt>
    1859:	4c 89 ee             	mov    %r13,%rsi
    185c:	4c 89 e7             	mov    %r12,%rdi
    185f:	e8 cc f8 ff ff       	call   1130 <fopen@plt>
    1864:	48 85 c0             	test   %rax,%rax
    1867:	0f 84 de 04 00 00    	je     1d4b <test.constprop.0+0x8eb>
    186d:	8b 75 10             	mov    0x10(%rbp),%esi
    1870:	48 8b bd b0 fb ff ff 	mov    -0x450(%rbp),%rdi
    1877:	48 89 c2             	mov    %rax,%rdx
    187a:	48 89 85 c8 fb ff ff 	mov    %rax,-0x438(%rbp)
    1881:	e8 ca fb ff ff       	call   1450 <test_Fread.constprop.0.isra.0>
    1886:	48 8b bd c8 fb ff ff 	mov    -0x438(%rbp),%rdi
    188d:	e8 5e f8 ff ff       	call   10f0 <fclose@plt>
    1892:	4c 89 f1             	mov    %r14,%rcx
    1895:	ba 00 02 00 00       	mov    $0x200,%edx
    189a:	4c 89 e7             	mov    %r12,%rdi
    189d:	4c 8b 8d 98 fb ff ff 	mov    -0x468(%rbp),%r9
    18a4:	4c 8d 05 5d 67 00 00 	lea    0x675d(%rip),%r8        # 8008 <_IO_stdin_used+0x8>
    18ab:	be 01 00 00 00       	mov    $0x1,%esi
    18b0:	31 c0                	xor    %eax,%eax
    18b2:	e8 99 f8 ff ff       	call   1150 <__sprintf_chk@plt>
    18b7:	4c 89 ee             	mov    %r13,%rsi
    18ba:	4c 89 e7             	mov    %r12,%rdi
    18bd:	e8 6e f8 ff ff       	call   1130 <fopen@plt>
    18c2:	49 89 c5             	mov    %rax,%r13
    18c5:	48 85 c0             	test   %rax,%rax
    18c8:	0f 84 7d 04 00 00    	je     1d4b <test.constprop.0+0x8eb>
    18ce:	4c 8d a5 60 fc ff ff 	lea    -0x3a0(%rbp),%r12
    18d5:	48 89 c2             	mov    %rax,%rdx
    18d8:	be 0d 00 00 00       	mov    $0xd,%esi
    18dd:	4c 89 e7             	mov    %r12,%rdi
    18e0:	4c 8d b5 e0 fb ff ff 	lea    -0x420(%rbp),%r14
    18e7:	e8 64 fb ff ff       	call   1450 <test_Fread.constprop.0.isra.0>
    18ec:	4c 89 ef             	mov    %r13,%rdi
    18ef:	4c 8d ad 20 fc ff ff 	lea    -0x3e0(%rbp),%r13
    18f6:	e8 f5 f7 ff ff       	call   10f0 <fclose@plt>
    18fb:	48 83 ec 08          	sub    $0x8,%rsp
    18ff:	4d 89 f9             	mov    %r15,%r9
    1902:	4c 89 f7             	mov    %r14,%rdi
    1905:	ff b5 b0 fb ff ff    	push   -0x450(%rbp)
    190b:	8b b5 d8 fb ff ff    	mov    -0x428(%rbp),%esi
    1911:	b9 0d 00 00 00       	mov    $0xd,%ecx
    1916:	ba 14 00 00 00       	mov    $0x14,%edx
    191b:	4c 8b 85 c0 fb ff ff 	mov    -0x440(%rbp),%r8
    1922:	ff b5 b8 fb ff ff    	push   -0x448(%rbp)
    1928:	53                   	push   %rbx
    1929:	48 8d 9d a0 fc ff ff 	lea    -0x360(%rbp),%rbx
    1930:	e8 eb 04 00 00       	call   1e20 <riscv_dsp_mfcc_init_q31>
    1935:	48 83 c4 20          	add    $0x20,%rsp
    1939:	4c 89 ea             	mov    %r13,%rdx
    193c:	4c 89 f7             	mov    %r14,%rdi
    193f:	48 8b 8d 88 fb ff ff 	mov    -0x478(%rbp),%rcx
    1946:	48 8b b5 d0 fb ff ff 	mov    -0x430(%rbp),%rsi
    194d:	e8 5e 05 00 00       	call   1eb0 <riscv_dsp_mfcc_q31>
    1952:	4c 89 ef             	mov    %r13,%rdi
    1955:	ba 0d 00 00 00       	mov    $0xd,%edx
    195a:	48 89 de             	mov    %rbx,%rsi
    195d:	e8 fe 03 00 00       	call   1d60 <riscv_dsp_convert_q31_f32>
    1962:	4c 8d ad e0 fc ff ff 	lea    -0x320(%rbp),%r13
    1969:	ba 0d 00 00 00       	mov    $0xd,%edx
    196e:	4c 89 e7             	mov    %r12,%rdi
    1971:	4c 89 ee             	mov    %r13,%rsi
    1974:	e8 e7 03 00 00       	call   1d60 <riscv_dsp_convert_q31_f32>
    1979:	66 0f ef ff          	pxor   %xmm7,%xmm7
    197d:	f3 0f 10 85 a0 fc ff 	movss  -0x360(%rbp),%xmm0
    1984:	ff 
    1985:	f3 0f 5c 85 e0 fc ff 	subss  -0x320(%rbp),%xmm0
    198c:	ff 
    198d:	f3 0f 10 2d 2b 6b 00 	movss  0x6b2b(%rip),%xmm5        # 84c0 <_IO_stdin_used+0x4c0>
    1994:	00 
    1995:	bf 01 00 00 00       	mov    $0x1,%edi
    199a:	b8 01 00 00 00       	mov    $0x1,%eax
    199f:	f3 0f 10 8d a4 fc ff 	movss  -0x35c(%rbp),%xmm1
    19a6:	ff 
    19a7:	f3 0f 5c 8d e4 fc ff 	subss  -0x31c(%rbp),%xmm1
    19ae:	ff 
    19af:	48 8d 35 e0 69 00 00 	lea    0x69e0(%rip),%rsi        # 8396 <_IO_stdin_used+0x396>
    19b6:	0f 54 c5             	andps  %xmm5,%xmm0
    19b9:	f3 0f 5f c7          	maxss  %xmm7,%xmm0
    19bd:	0f 54 cd             	andps  %xmm5,%xmm1
    19c0:	f3 0f 5f c8          	maxss  %xmm0,%xmm1
    19c4:	f3 0f 10 85 a8 fc ff 	movss  -0x358(%rbp),%xmm0
    19cb:	ff 
    19cc:	f3 0f 5c 85 e8 fc ff 	subss  -0x318(%rbp),%xmm0
    19d3:	ff 
    19d4:	0f 54 c5             	andps  %xmm5,%xmm0
    19d7:	f3 0f 5f c1          	maxss  %xmm1,%xmm0
    19db:	f3 0f 10 8d ac fc ff 	movss  -0x354(%rbp),%xmm1
    19e2:	ff 
    19e3:	f3 0f 5c 8d ec fc ff 	subss  -0x314(%rbp),%xmm1
    19ea:	ff 
    19eb:	0f 54 cd             	andps  %xmm5,%xmm1
    19ee:	f3 0f 5f c8          	maxss  %xmm0,%xmm1
    19f2:	f3 0f 10 85 b0 fc ff 	movss  -0x350(%rbp),%xmm0
    19f9:	ff 
    19fa:	f3 0f 5c 85 f0 fc ff 	subss  -0x310(%rbp),%xmm0
    1a01:	ff 
    1a02:	0f 54 c5             	andps  %xmm5,%xmm0
    1a05:	f3 0f 5f c1          	maxss  %xmm1,%xmm0
    1a09:	f3 0f 10 8d b4 fc ff 	movss  -0x34c(%rbp),%xmm1
    1a10:	ff 
    1a11:	f3 0f 5c 8d f4 fc ff 	subss  -0x30c(%rbp),%xmm1
    1a18:	ff 
    1a19:	0f 54 cd             	andps  %xmm5,%xmm1
    1a1c:	f3 0f 5f c8          	maxss  %xmm0,%xmm1
    1a20:	f3 0f 10 85 b8 fc ff 	movss  -0x348(%rbp),%xmm0
    1a27:	ff 
    1a28:	f3 0f 5c 85 f8 fc ff 	subss  -0x308(%rbp),%xmm0
    1a2f:	ff 
    1a30:	0f 54 c5             	andps  %xmm5,%xmm0
    1a33:	f3 0f 5f c1          	maxss  %xmm1,%xmm0
    1a37:	f3 0f 10 8d bc fc ff 	movss  -0x344(%rbp),%xmm1
    1a3e:	ff 
    1a3f:	f3 0f 5c 8d fc fc ff 	subss  -0x304(%rbp),%xmm1
    1a46:	ff 
    1a47:	0f 54 cd             	andps  %xmm5,%xmm1
    1a4a:	f3 0f 5f c8          	maxss  %xmm0,%xmm1
    1a4e:	f3 0f 10 85 c0 fc ff 	movss  -0x340(%rbp),%xmm0
    1a55:	ff 
    1a56:	f3 0f 5c 85 00 fd ff 	subss  -0x300(%rbp),%xmm0
    1a5d:	ff 
    1a5e:	0f 54 c5             	andps  %xmm5,%xmm0
    1a61:	f3 0f 5f c1          	maxss  %xmm1,%xmm0
    1a65:	f3 0f 10 8d c4 fc ff 	movss  -0x33c(%rbp),%xmm1
    1a6c:	ff 
    1a6d:	f3 0f 5c 8d 04 fd ff 	subss  -0x2fc(%rbp),%xmm1
    1a74:	ff 
    1a75:	0f 54 cd             	andps  %xmm5,%xmm1
    1a78:	f3 0f 5f c8          	maxss  %xmm0,%xmm1
    1a7c:	f3 0f 10 85 c8 fc ff 	movss  -0x338(%rbp),%xmm0
    1a83:	ff 
    1a84:	f3 0f 5c 85 08 fd ff 	subss  -0x2f8(%rbp),%xmm0
    1a8b:	ff 
    1a8c:	0f 54 c5             	andps  %xmm5,%xmm0
    1a8f:	f3 0f 5f c1          	maxss  %xmm1,%xmm0
    1a93:	f3 0f 10 8d cc fc ff 	movss  -0x334(%rbp),%xmm1
    1a9a:	ff 
    1a9b:	f3 0f 5c 8d 0c fd ff 	subss  -0x2f4(%rbp),%xmm1
    1aa2:	ff 
    1aa3:	0f 54 cd             	andps  %xmm5,%xmm1
    1aa6:	f3 0f 5f c8          	maxss  %xmm0,%xmm1
    1aaa:	f3 0f 10 85 d0 fc ff 	movss  -0x330(%rbp),%xmm0
    1ab1:	ff 
    1ab2:	f3 0f 5c 85 10 fd ff 	subss  -0x2f0(%rbp),%xmm0
    1ab9:	ff 
    1aba:	0f 54 c5             	andps  %xmm5,%xmm0
    1abd:	f3 0f 5f c1          	maxss  %xmm1,%xmm0
    1ac1:	f3 0f 5a c0          	cvtss2sd %xmm0,%xmm0
    1ac5:	e8 56 f6 ff ff       	call   1120 <__printf_chk@plt>
    1aca:	66 0f ef db          	pxor   %xmm3,%xmm3
    1ace:	66 0f ef ff          	pxor   %xmm7,%xmm7
    1ad2:	66 0f 28 f7          	movapd %xmm7,%xmm6
    1ad6:	0f 28 c3             	movaps %xmm3,%xmm0
    1ad9:	44 0f 28 c3          	movaps %xmm3,%xmm8
    1add:	4c 89 ea             	mov    %r13,%rdx
    1ae0:	44 0f 28 cb          	movaps %xmm3,%xmm9
    1ae4:	48 89 d8             	mov    %rbx,%rax
    1ae7:	48 8d 8d d4 fc ff ff 	lea    -0x32c(%rbp),%rcx
    1aee:	f3 0f 10 2d ca 69 00 	movss  0x69ca(%rip),%xmm5        # 84c0 <_IO_stdin_used+0x4c0>
    1af5:	00 
    1af6:	66 2e 0f 1f 84 00 00 	cs nopw 0x0(%rax,%rax,1)
    1afd:	00 00 00 
    1b00:	f3 0f 10 08          	movss  (%rax),%xmm1
    1b04:	48 83 c0 04          	add    $0x4,%rax
    1b08:	48 83 c2 04          	add    $0x4,%rdx
    1b0c:	f3 0f 10 52 fc       	movss  -0x4(%rdx),%xmm2
    1b11:	66 0f 7e cb          	movd   %xmm1,%ebx
    1b15:	81 fb 00 00 c0 7f    	cmp    $0x7fc00000,%ebx
    1b1b:	0f 84 95 01 00 00    	je     1cb6 <test.constprop.0+0x856>
    1b21:	0f 28 e2             	movaps %xmm2,%xmm4
    1b24:	f3 0f 5c ca          	subss  %xmm2,%xmm1
    1b28:	f3 41 0f 5f e1       	maxss  %xmm9,%xmm4
    1b2d:	44 0f 28 cc          	movaps %xmm4,%xmm9
    1b31:	0f 28 e2             	movaps %xmm2,%xmm4
    1b34:	f3 41 0f 5d e0       	minss  %xmm8,%xmm4
    1b39:	f3 0f 59 d2          	mulss  %xmm2,%xmm2
    1b3d:	44 0f 28 c4          	movaps %xmm4,%xmm8
    1b41:	0f 28 e1             	movaps %xmm1,%xmm4
    1b44:	f3 0f 59 c9          	mulss  %xmm1,%xmm1
    1b48:	0f 54 e5             	andps  %xmm5,%xmm4
    1b4b:	f3 0f 58 c4          	addss  %xmm4,%xmm0
    1b4f:	f3 0f 5f e3          	maxss  %xmm3,%xmm4
    1b53:	f3 0f 5a d2          	cvtss2sd %xmm2,%xmm2
    1b57:	f2 0f 58 fa          	addsd  %xmm2,%xmm7
    1b5b:	0f 28 dc             	movaps %xmm4,%xmm3
    1b5e:	f3 0f 5a c9          	cvtss2sd %xmm1,%xmm1
    1b62:	f2 0f 58 f1          	addsd  %xmm1,%xmm6
    1b66:	48 39 c8             	cmp    %rcx,%rax
    1b69:	75 95                	jne    1b00 <test.constprop.0+0x6a0>
    1b6b:	66 48 0f 7e f0       	movq   %xmm6,%rax
    1b70:	f3 0f 11 a5 c0 fb ff 	movss  %xmm4,-0x440(%rbp)
    1b77:	ff 
    1b78:	f3 44 0f 11 85 c8 fb 	movss  %xmm8,-0x438(%rbp)
    1b7f:	ff ff 
    1b81:	f3 44 0f 11 8d d0 fb 	movss  %xmm9,-0x430(%rbp)
    1b88:	ff ff 
    1b8a:	f2 0f 11 bd d8 fb ff 	movsd  %xmm7,-0x428(%rbp)
    1b91:	ff 
    1b92:	3d 00 00 c0 7f       	cmp    $0x7fc00000,%eax
    1b97:	0f 84 19 01 00 00    	je     1cb6 <test.constprop.0+0x856>
    1b9d:	f3 0f 5e 05 0f 69 00 	divss  0x690f(%rip),%xmm0        # 84b4 <_IO_stdin_used+0x4b4>
    1ba4:	00 
    1ba5:	f2 0f 11 b5 b8 fb ff 	movsd  %xmm6,-0x448(%rbp)
    1bac:	ff 
    1bad:	66 0f 7e c3          	movd   %xmm0,%ebx
    1bb1:	66 0f 28 c6          	movapd %xmm6,%xmm0
    1bb5:	f2 0f 5e 05 13 69 00 	divsd  0x6913(%rip),%xmm0        # 84d0 <_IO_stdin_used+0x4d0>
    1bbc:	00 
    1bbd:	e8 7e f5 ff ff       	call   1140 <sqrt@plt>
    1bc2:	f3 44 0f 10 8d d0 fb 	movss  -0x430(%rbp),%xmm9
    1bc9:	ff ff 
    1bcb:	f3 44 0f 10 85 c8 fb 	movss  -0x438(%rbp),%xmm8
    1bd2:	ff ff 
    1bd4:	66 0f ef c9          	pxor   %xmm1,%xmm1
    1bd8:	66 0f ef ff          	pxor   %xmm7,%xmm7
    1bdc:	f3 0f 10 9d c0 fb ff 	movss  -0x440(%rbp),%xmm3
    1be3:	ff 
    1be4:	f2 0f 5a c8          	cvtsd2ss %xmm0,%xmm1
    1be8:	41 0f 28 c1          	movaps %xmm9,%xmm0
    1bec:	0f 28 f1             	movaps %xmm1,%xmm6
    1bef:	f3 41 0f 5c c0       	subss  %xmm8,%xmm0
    1bf4:	f3 0f 5e f0          	divss  %xmm0,%xmm6
    1bf8:	66 41 0f 7e f4       	movd   %xmm6,%r12d
    1bfd:	f2 0f 10 b5 b8 fb ff 	movsd  -0x448(%rbp),%xmm6
    1c04:	ff 
    1c05:	66 0f 2e f7          	ucomisd %xmm7,%xmm6
    1c09:	f2 0f 10 bd d8 fb ff 	movsd  -0x428(%rbp),%xmm7
    1c10:	ff 
    1c11:	0f 8a d9 00 00 00    	jp     1cf0 <test.constprop.0+0x890>
    1c17:	f3 0f 10 25 91 68 00 	movss  0x6891(%rip),%xmm4        # 84b0 <_IO_stdin_used+0x4b0>
    1c1e:	00 
    1c1f:	0f 85 cb 00 00 00    	jne    1cf0 <test.constprop.0+0x890>
    1c25:	48 8d 3d 7d 67 00 00 	lea    0x677d(%rip),%rdi        # 83a9 <_IO_stdin_used+0x3a9>
    1c2c:	f3 0f 11 9d c8 fb ff 	movss  %xmm3,-0x438(%rbp)
    1c33:	ff 
    1c34:	f3 0f 11 a5 d8 fb ff 	movss  %xmm4,-0x428(%rbp)
    1c3b:	ff 
    1c3c:	f3 0f 11 8d d0 fb ff 	movss  %xmm1,-0x430(%rbp)
    1c43:	ff 
    1c44:	e8 87 f4 ff ff       	call   10d0 <puts@plt>
    1c49:	66 41 0f 6e f4       	movd   %r12d,%xmm6
    1c4e:	66 0f ef d2          	pxor   %xmm2,%xmm2
    1c52:	f3 0f 10 a5 d8 fb ff 	movss  -0x428(%rbp),%xmm4
    1c59:	ff 
    1c5a:	f3 0f 10 9d c8 fb ff 	movss  -0x438(%rbp),%xmm3
    1c61:	ff 
    1c62:	f3 0f 10 8d d0 fb ff 	movss  -0x430(%rbp),%xmm1
    1c69:	ff 
    1c6a:	f3 0f 5a d6          	cvtss2sd %xmm6,%xmm2
    1c6e:	66 0f ef c0          	pxor   %xmm0,%xmm0
    1c72:	66 0f 6e f3          	movd   %ebx,%xmm6
    1c76:	48 8d 35 f3 63 00 00 	lea    0x63f3(%rip),%rsi        # 8070 <_IO_stdin_used+0x70>
    1c7d:	bf 01 00 00 00       	mov    $0x1,%edi
    1c82:	b8 05 00 00 00       	mov    $0x5,%eax
    1c87:	f3 0f 5a c6          	cvtss2sd %xmm6,%xmm0
    1c8b:	f3 0f 5a e4          	cvtss2sd %xmm4,%xmm4
    1c8f:	f3 0f 5a db          	cvtss2sd %xmm3,%xmm3
    1c93:	f3 0f 5a c9          	cvtss2sd %xmm1,%xmm1
    1c97:	f2 0f 11 95 d8 fb ff 	movsd  %xmm2,-0x428(%rbp)
    1c9e:	ff 
    1c9f:	e8 7c f4 ff ff       	call   1120 <__printf_chk@plt>
    1ca4:	f2 0f 10 95 d8 fb ff 	movsd  -0x428(%rbp),%xmm2
    1cab:	ff 
    1cac:	66 0f 2f 15 24 68 00 	comisd 0x6824(%rip),%xmm2        # 84d8 <_IO_stdin_used+0x4d8>
    1cb3:	00 
    1cb4:	77 7b                	ja     1d31 <test.constprop.0+0x8d1>
    1cb6:	48 8d 15 01 67 00 00 	lea    0x6701(%rip),%rdx        # 83be <_IO_stdin_used+0x3be>
    1cbd:	48 8d 35 18 67 00 00 	lea    0x6718(%rip),%rsi        # 83dc <_IO_stdin_used+0x3dc>
    1cc4:	bf 01 00 00 00       	mov    $0x1,%edi
    1cc9:	31 c0                	xor    %eax,%eax
    1ccb:	e8 50 f4 ff ff       	call   1120 <__printf_chk@plt>
    1cd0:	31 c0                	xor    %eax,%eax
    1cd2:	48 8b 55 c8          	mov    -0x38(%rbp),%rdx
    1cd6:	64 48 2b 14 25 28 00 	sub    %fs:0x28,%rdx
    1cdd:	00 00 
    1cdf:	75 6f                	jne    1d50 <test.constprop.0+0x8f0>
    1ce1:	48 8d 65 d8          	lea    -0x28(%rbp),%rsp
    1ce5:	5b                   	pop    %rbx
    1ce6:	41 5c                	pop    %r12
    1ce8:	41 5d                	pop    %r13
    1cea:	41 5e                	pop    %r14
    1cec:	41 5f                	pop    %r15
    1cee:	5d                   	pop    %rbp
    1cef:	c3                   	ret    
    1cf0:	f2 0f 5e fe          	divsd  %xmm6,%xmm7
    1cf4:	66 0f ef c0          	pxor   %xmm0,%xmm0
    1cf8:	f3 0f 11 9d d0 fb ff 	movss  %xmm3,-0x430(%rbp)
    1cff:	ff 
    1d00:	f3 0f 11 8d d8 fb ff 	movss  %xmm1,-0x428(%rbp)
    1d07:	ff 
    1d08:	f2 0f 5a c7          	cvtsd2ss %xmm7,%xmm0
    1d0c:	e8 ff f3 ff ff       	call   1110 <log10f@plt>
    1d11:	f3 0f 59 05 9f 67 00 	mulss  0x679f(%rip),%xmm0        # 84b8 <_IO_stdin_used+0x4b8>
    1d18:	00 
    1d19:	f3 0f 10 9d d0 fb ff 	movss  -0x430(%rbp),%xmm3
    1d20:	ff 
    1d21:	f3 0f 10 8d d8 fb ff 	movss  -0x428(%rbp),%xmm1
    1d28:	ff 
    1d29:	0f 28 e0             	movaps %xmm0,%xmm4
    1d2c:	e9 f4 fe ff ff       	jmp    1c25 <test.constprop.0+0x7c5>
    1d31:	48 8d 15 86 66 00 00 	lea    0x6686(%rip),%rdx        # 83be <_IO_stdin_used+0x3be>
    1d38:	48 8d 35 92 66 00 00 	lea    0x6692(%rip),%rsi        # 83d1 <_IO_stdin_used+0x3d1>
    1d3f:	bf 01 00 00 00       	mov    $0x1,%edi
    1d44:	31 c0                	xor    %eax,%eax
    1d46:	e8 d5 f3 ff ff       	call   1120 <__printf_chk@plt>
    1d4b:	83 c8 ff             	or     $0xffffffff,%eax
    1d4e:	eb 82                	jmp    1cd2 <test.constprop.0+0x872>
    1d50:	e8 ab f3 ff ff       	call   1100 <__stack_chk_fail@plt>
    1d55:	66 2e 0f 1f 84 00 00 	cs nopw 0x0(%rax,%rax,1)
    1d5c:	00 00 00 
    1d5f:	90                   	nop

0000000000001d60 <riscv_dsp_convert_q31_f32>:
    1d60:	f3 0f 1e fa          	endbr64 
    1d64:	48 89 f1             	mov    %rsi,%rcx
    1d67:	85 d2                	test   %edx,%edx
    1d69:	0f 84 97 00 00 00    	je     1e06 <riscv_dsp_convert_q31_f32+0xa6>
    1d6f:	8d 42 ff             	lea    -0x1(%rdx),%eax
    1d72:	83 f8 02             	cmp    $0x2,%eax
    1d75:	0f 86 96 00 00 00    	jbe    1e11 <riscv_dsp_convert_q31_f32+0xb1>
    1d7b:	89 d6                	mov    %edx,%esi
    1d7d:	0f 28 0d 5c 67 00 00 	movaps 0x675c(%rip),%xmm1        # 84e0 <_IO_stdin_used+0x4e0>
    1d84:	31 c0                	xor    %eax,%eax
    1d86:	c1 ee 02             	shr    $0x2,%esi
    1d89:	48 c1 e6 04          	shl    $0x4,%rsi
    1d8d:	0f 1f 00             	nopl   (%rax)
    1d90:	f3 0f 6f 14 07       	movdqu (%rdi,%rax,1),%xmm2
    1d95:	0f 5b c2             	cvtdq2ps %xmm2,%xmm0
    1d98:	0f 59 c1             	mulps  %xmm1,%xmm0
    1d9b:	0f 11 04 01          	movups %xmm0,(%rcx,%rax,1)
    1d9f:	48 83 c0 10          	add    $0x10,%rax
    1da3:	48 39 f0             	cmp    %rsi,%rax
    1da6:	75 e8                	jne    1d90 <riscv_dsp_convert_q31_f32+0x30>
    1da8:	89 d6                	mov    %edx,%esi
    1daa:	83 e6 fc             	and    $0xfffffffc,%esi
    1dad:	89 f0                	mov    %esi,%eax
    1daf:	48 c1 e0 02          	shl    $0x2,%rax
    1db3:	4c 8d 04 07          	lea    (%rdi,%rax,1),%r8
    1db7:	48 01 c8             	add    %rcx,%rax
    1dba:	39 f2                	cmp    %esi,%edx
    1dbc:	74 52                	je     1e10 <riscv_dsp_convert_q31_f32+0xb0>
    1dbe:	29 f2                	sub    %esi,%edx
    1dc0:	83 fa 01             	cmp    $0x1,%edx
    1dc3:	74 2c                	je     1df1 <riscv_dsp_convert_q31_f32+0x91>
    1dc5:	f3 0f 7e 0d 13 67 00 	movq   0x6713(%rip),%xmm1        # 84e0 <_IO_stdin_used+0x4e0>
    1dcc:	00 
    1dcd:	f3 0f 7e 04 b7       	movq   (%rdi,%rsi,4),%xmm0
    1dd2:	0f 5b c0             	cvtdq2ps %xmm0,%xmm0
    1dd5:	0f 59 c1             	mulps  %xmm1,%xmm0
    1dd8:	0f 13 04 b1          	movlps %xmm0,(%rcx,%rsi,4)
    1ddc:	89 d6                	mov    %edx,%esi
    1dde:	83 e6 fe             	and    $0xfffffffe,%esi
    1de1:	89 f1                	mov    %esi,%ecx
    1de3:	48 c1 e1 02          	shl    $0x2,%rcx
    1de7:	49 01 c8             	add    %rcx,%r8
    1dea:	48 01 c8             	add    %rcx,%rax
    1ded:	39 f2                	cmp    %esi,%edx
    1def:	74 15                	je     1e06 <riscv_dsp_convert_q31_f32+0xa6>
    1df1:	66 0f ef c0          	pxor   %xmm0,%xmm0
    1df5:	f3 41 0f 2a 00       	cvtsi2ssl (%r8),%xmm0
    1dfa:	f3 0f 59 05 de 66 00 	mulss  0x66de(%rip),%xmm0        # 84e0 <_IO_stdin_used+0x4e0>
    1e01:	00 
    1e02:	f3 0f 11 00          	movss  %xmm0,(%rax)
    1e06:	c3                   	ret    
    1e07:	66 0f 1f 84 00 00 00 	nopw   0x0(%rax,%rax,1)
    1e0e:	00 00 
    1e10:	c3                   	ret    
    1e11:	48 89 f0             	mov    %rsi,%rax
    1e14:	49 89 f8             	mov    %rdi,%r8
    1e17:	31 f6                	xor    %esi,%esi
    1e19:	eb a3                	jmp    1dbe <riscv_dsp_convert_q31_f32+0x5e>
    1e1b:	0f 1f 44 00 00       	nopl   0x0(%rax,%rax,1)

0000000000001e20 <riscv_dsp_mfcc_init_q31>:
    1e20:	f3 0f 1e fa          	endbr64 
    1e24:	66 0f 6e ca          	movd   %edx,%xmm1
    1e28:	48 8b 54 24 18       	mov    0x18(%rsp),%rdx
    1e2d:	89 4f 08             	mov    %ecx,0x8(%rdi)
    1e30:	66 0f 6e c6          	movd   %esi,%xmm0
    1e34:	66 0f 62 c1          	punpckldq %xmm1,%xmm0
    1e38:	66 49 0f 6e d1       	movq   %r9,%xmm2
    1e3d:	48 89 57 30          	mov    %rdx,0x30(%rdi)
    1e41:	31 d2                	xor    %edx,%edx
    1e43:	81 fe ff ff 00 00    	cmp    $0xffff,%esi
    1e49:	0f 97 c2             	seta   %dl
    1e4c:	66 0f d6 07          	movq   %xmm0,(%rdi)
    1e50:	66 49 0f 6e c0       	movq   %r8,%xmm0
    1e55:	c1 e2 04             	shl    $0x4,%edx
    1e58:	66 0f 6c c2          	punpcklqdq %xmm2,%xmm0
    1e5c:	89 d1                	mov    %edx,%ecx
    1e5e:	0f 11 47 10          	movups %xmm0,0x10(%rdi)
    1e62:	f3 0f 7e 44 24 08    	movq   0x8(%rsp),%xmm0
    1e68:	d3 ee                	shr    %cl,%esi
    1e6a:	31 c9                	xor    %ecx,%ecx
    1e6c:	81 fe ff 00 00 00    	cmp    $0xff,%esi
    1e72:	0f 16 44 24 10       	movhps 0x10(%rsp),%xmm0
    1e77:	0f 97 c1             	seta   %cl
    1e7a:	0f 11 47 20          	movups %xmm0,0x20(%rdi)
    1e7e:	c1 e1 03             	shl    $0x3,%ecx
    1e81:	d3 ee                	shr    %cl,%esi
    1e83:	09 ca                	or     %ecx,%edx
    1e85:	31 c9                	xor    %ecx,%ecx
    1e87:	83 fe 0f             	cmp    $0xf,%esi
    1e8a:	0f 97 c1             	seta   %cl
    1e8d:	c1 e1 02             	shl    $0x2,%ecx
    1e90:	d3 ee                	shr    %cl,%esi
    1e92:	09 ca                	or     %ecx,%edx
    1e94:	31 c9                	xor    %ecx,%ecx
    1e96:	83 fe 03             	cmp    $0x3,%esi
    1e99:	0f 97 c1             	seta   %cl
    1e9c:	01 c9                	add    %ecx,%ecx
    1e9e:	d3 ee                	shr    %cl,%esi
    1ea0:	09 ca                	or     %ecx,%edx
    1ea2:	d1 ee                	shr    %esi
    1ea4:	09 d6                	or     %edx,%esi
    1ea6:	89 77 38             	mov    %esi,0x38(%rdi)
    1ea9:	c3                   	ret    
    1eaa:	66 0f 1f 44 00 00    	nopw   0x0(%rax,%rax,1)

0000000000001eb0 <riscv_dsp_mfcc_q31>:
    1eb0:	f3 0f 1e fa          	endbr64 
    1eb4:	41 57                	push   %r15
    1eb6:	49 89 ff             	mov    %rdi,%r15
    1eb9:	41 56                	push   %r14
    1ebb:	41 55                	push   %r13
    1ebd:	41 54                	push   %r12
    1ebf:	55                   	push   %rbp
    1ec0:	48 89 cd             	mov    %rcx,%rbp
    1ec3:	53                   	push   %rbx
    1ec4:	48 89 f3             	mov    %rsi,%rbx
    1ec7:	48 83 ec 28          	sub    $0x28,%rsp
    1ecb:	8b 37                	mov    (%rdi),%esi
    1ecd:	4c 8b 77 28          	mov    0x28(%rdi),%r14
    1ed1:	48 89 df             	mov    %rbx,%rdi
    1ed4:	48 89 14 24          	mov    %rdx,(%rsp)
    1ed8:	64 48 8b 04 25 28 00 	mov    %fs:0x28,%rax
    1edf:	00 00 
    1ee1:	48 89 44 24 18       	mov    %rax,0x18(%rsp)
    1ee6:	31 c0                	xor    %eax,%eax
    1ee8:	e8 73 0b 00 00       	call   2a60 <riscv_dsp_absmax_val_q31>
    1eed:	85 c0                	test   %eax,%eax
    1eef:	89 44 24 0c          	mov    %eax,0xc(%rsp)
    1ef3:	89 c6                	mov    %eax,%esi
    1ef5:	41 0f 95 c5          	setne  %r13b
    1ef9:	3d ff ff ff 7f       	cmp    $0x7fffffff,%eax
    1efe:	0f 95 c0             	setne  %al
    1f01:	41 20 c5             	and    %al,%r13b
    1f04:	44 88 6c 24 0b       	mov    %r13b,0xb(%rsp)
    1f09:	74 45                	je     1f50 <riscv_dsp_mfcc_q31+0xa0>
    1f0b:	48 8d 4c 24 12       	lea    0x12(%rsp),%rcx
    1f10:	48 8d 54 24 14       	lea    0x14(%rsp),%rdx
    1f15:	bf ff ff ff 7f       	mov    $0x7fffffff,%edi
    1f1a:	e8 f1 4c 00 00       	call   6c10 <riscv_dsp_divide_q31>
    1f1f:	85 c0                	test   %eax,%eax
    1f21:	0f 84 81 01 00 00    	je     20a8 <riscv_dsp_mfcc_q31+0x1f8>
    1f27:	48 8b 44 24 18       	mov    0x18(%rsp),%rax
    1f2c:	64 48 2b 04 25 28 00 	sub    %fs:0x28,%rax
    1f33:	00 00 
    1f35:	0f 85 fc 01 00 00    	jne    2137 <riscv_dsp_mfcc_q31+0x287>
    1f3b:	48 83 c4 28          	add    $0x28,%rsp
    1f3f:	5b                   	pop    %rbx
    1f40:	5d                   	pop    %rbp
    1f41:	41 5c                	pop    %r12
    1f43:	41 5d                	pop    %r13
    1f45:	41 5e                	pop    %r14
    1f47:	41 5f                	pop    %r15
    1f49:	c3                   	ret    
    1f4a:	66 0f 1f 44 00 00    	nopw   0x0(%rax,%rax,1)
    1f50:	41 8b 0f             	mov    (%r15),%ecx
    1f53:	49 8b 77 30          	mov    0x30(%r15),%rsi
    1f57:	48 89 da             	mov    %rbx,%rdx
    1f5a:	48 89 df             	mov    %rbx,%rdi
    1f5d:	e8 de 01 00 00       	call   2140 <riscv_dsp_mul_q31>
    1f62:	41 8b 77 38          	mov    0x38(%r15),%esi
    1f66:	48 89 df             	mov    %rbx,%rdi
    1f69:	e8 b2 04 00 00       	call   2420 <riscv_dsp_rfft_q31>
    1f6e:	41 8b 0f             	mov    (%r15),%ecx
    1f71:	48 89 da             	mov    %rbx,%rdx
    1f74:	be 02 00 00 00       	mov    $0x2,%esi
    1f79:	48 89 df             	mov    %rbx,%rdi
    1f7c:	e8 bf 09 00 00       	call   2940 <riscv_dsp_shift_q31>
    1f81:	41 8b 17             	mov    (%r15),%edx
    1f84:	48 89 de             	mov    %rbx,%rsi
    1f87:	48 89 df             	mov    %rbx,%rdi
    1f8a:	d1 ea                	shr    %edx
    1f8c:	83 c2 01             	add    $0x1,%edx
    1f8f:	e8 1c 4c 00 00       	call   6bb0 <riscv_dsp_cmag_q31>
    1f94:	41 8b 47 04          	mov    0x4(%r15),%eax
    1f98:	85 c0                	test   %eax,%eax
    1f9a:	0f 84 90 01 00 00    	je     2130 <riscv_dsp_mfcc_q31+0x280>
    1fa0:	49 8b 57 20          	mov    0x20(%r15),%rdx
    1fa4:	45 31 ed             	xor    %r13d,%r13d
    1fa7:	66 0f 1f 84 00 00 00 	nopw   0x0(%rax,%rax,1)
    1fae:	00 00 
    1fb0:	49 8b 47 18          	mov    0x18(%r15),%rax
    1fb4:	45 89 ec             	mov    %r13d,%r12d
    1fb7:	4c 89 f6             	mov    %r14,%rsi
    1fba:	42 8b 14 a2          	mov    (%rdx,%r12,4),%edx
    1fbe:	42 8b 04 a0          	mov    (%rax,%r12,4),%eax
    1fc2:	48 8d 3c 83          	lea    (%rbx,%rax,4),%rdi
    1fc6:	e8 45 4e 00 00       	call   6e10 <riscv_dsp_dprod_q31>
    1fcb:	49 8b 57 20          	mov    0x20(%r15),%rdx
    1fcf:	48 05 d0 7b 63 08    	add    $0x8637bd0,%rax
    1fd5:	42 8b 34 a2          	mov    (%rdx,%r12,4),%esi
    1fd9:	48 c1 f8 1c          	sar    $0x1c,%rax
    1fdd:	4d 8d 34 b6          	lea    (%r14,%rsi,4),%r14
    1fe1:	be 00 00 00 c0       	mov    $0xc0000000,%esi
    1fe6:	39 f0                	cmp    %esi,%eax
    1fe8:	0f 4c c6             	cmovl  %esi,%eax
    1feb:	be ff ff ff 3f       	mov    $0x3fffffff,%esi
    1ff0:	39 f0                	cmp    %esi,%eax
    1ff2:	0f 4f c6             	cmovg  %esi,%eax
    1ff5:	41 83 c5 01          	add    $0x1,%r13d
    1ff9:	42 89 44 a5 00       	mov    %eax,0x0(%rbp,%r12,4)
    1ffe:	45 8b 47 04          	mov    0x4(%r15),%r8d
    2002:	45 39 e8             	cmp    %r13d,%r8d
    2005:	77 a9                	ja     1fb0 <riscv_dsp_mfcc_q31+0x100>
    2007:	80 7c 24 0b 00       	cmpb   $0x0,0xb(%rsp)
    200c:	0f 85 fe 00 00 00    	jne    2110 <riscv_dsp_mfcc_q31+0x260>
    2012:	31 db                	xor    %ebx,%ebx
    2014:	45 85 c0             	test   %r8d,%r8d
    2017:	0f 84 13 01 00 00    	je     2130 <riscv_dsp_mfcc_q31+0x280>
    201d:	0f 1f 00             	nopl   (%rax)
    2020:	89 d8                	mov    %ebx,%eax
    2022:	83 c3 01             	add    $0x1,%ebx
    2025:	4c 8d 64 85 00       	lea    0x0(%rbp,%rax,4),%r12
    202a:	41 8b 3c 24          	mov    (%r12),%edi
    202e:	e8 1d 4e 00 00       	call   6e50 <riscv_dsp_log_q31>
    2033:	41 89 04 24          	mov    %eax,(%r12)
    2037:	41 8b 4f 04          	mov    0x4(%r15),%ecx
    203b:	39 d9                	cmp    %ebx,%ecx
    203d:	77 e1                	ja     2020 <riscv_dsp_mfcc_q31+0x170>
    203f:	41 8b 47 38          	mov    0x38(%r15),%eax
    2043:	48 89 ea             	mov    %rbp,%rdx
    2046:	48 89 ef             	mov    %rbp,%rdi
    2049:	8d 70 0b             	lea    0xb(%rax),%esi
    204c:	69 f6 60 c8 c5 02    	imul   $0x2c5c860,%esi,%esi
    2052:	e8 59 01 00 00       	call   21b0 <riscv_dsp_offset_q31>
    2057:	41 8b 4f 04          	mov    0x4(%r15),%ecx
    205b:	48 89 ea             	mov    %rbp,%rdx
    205e:	48 89 ef             	mov    %rbp,%rdi
    2061:	be fd ff ff ff       	mov    $0xfffffffd,%esi
    2066:	e8 d5 08 00 00       	call   2940 <riscv_dsp_shift_q31>
    206b:	48 8b 44 24 18       	mov    0x18(%rsp),%rax
    2070:	64 48 2b 04 25 28 00 	sub    %fs:0x28,%rax
    2077:	00 00 
    2079:	0f 85 b8 00 00 00    	jne    2137 <riscv_dsp_mfcc_q31+0x287>
    207f:	41 8b 4f 08          	mov    0x8(%r15),%ecx
    2083:	49 8b 7f 10          	mov    0x10(%r15),%rdi
    2087:	48 89 ee             	mov    %rbp,%rsi
    208a:	45 8b 47 04          	mov    0x4(%r15),%r8d
    208e:	48 8b 14 24          	mov    (%rsp),%rdx
    2092:	48 83 c4 28          	add    $0x28,%rsp
    2096:	5b                   	pop    %rbx
    2097:	5d                   	pop    %rbp
    2098:	41 5c                	pop    %r12
    209a:	41 5d                	pop    %r13
    209c:	41 5e                	pop    %r14
    209e:	41 5f                	pop    %r15
    20a0:	e9 7b 4e 00 00       	jmp    6f20 <riscv_dsp_mat_mul_mxv_q31>
    20a5:	0f 1f 00             	nopl   (%rax)
    20a8:	45 8b 07             	mov    (%r15),%r8d
    20ab:	0f be 54 24 12       	movsbl 0x12(%rsp),%edx
    20b0:	48 89 d9             	mov    %rbx,%rcx
    20b3:	48 89 df             	mov    %rbx,%rdi
    20b6:	8b 74 24 14          	mov    0x14(%rsp),%esi
    20ba:	e8 e1 06 00 00       	call   27a0 <riscv_dsp_scale_q31>
    20bf:	41 8b 0f             	mov    (%r15),%ecx
    20c2:	49 8b 77 30          	mov    0x30(%r15),%rsi
    20c6:	48 89 da             	mov    %rbx,%rdx
    20c9:	48 89 df             	mov    %rbx,%rdi
    20cc:	e8 6f 00 00 00       	call   2140 <riscv_dsp_mul_q31>
    20d1:	41 8b 77 38          	mov    0x38(%r15),%esi
    20d5:	48 89 df             	mov    %rbx,%rdi
    20d8:	e8 43 03 00 00       	call   2420 <riscv_dsp_rfft_q31>
    20dd:	41 8b 0f             	mov    (%r15),%ecx
    20e0:	48 89 da             	mov    %rbx,%rdx
    20e3:	be 02 00 00 00       	mov    $0x2,%esi
    20e8:	48 89 df             	mov    %rbx,%rdi
    20eb:	e8 50 08 00 00       	call   2940 <riscv_dsp_shift_q31>
    20f0:	41 8b 17             	mov    (%r15),%edx
    20f3:	48 89 de             	mov    %rbx,%rsi
    20f6:	48 89 df             	mov    %rbx,%rdi
    20f9:	d1 ea                	shr    %edx
    20fb:	83 c2 01             	add    $0x1,%edx
    20fe:	e8 ad 4a 00 00       	call   6bb0 <riscv_dsp_cmag_q31>
    2103:	45 8b 47 04          	mov    0x4(%r15),%r8d
    2107:	45 85 c0             	test   %r8d,%r8d
    210a:	0f 85 90 fe ff ff    	jne    1fa0 <riscv_dsp_mfcc_q31+0xf0>
    2110:	8b 74 24 0c          	mov    0xc(%rsp),%esi
    2114:	48 89 e9             	mov    %rbp,%rcx
    2117:	31 d2                	xor    %edx,%edx
    2119:	48 89 ef             	mov    %rbp,%rdi
    211c:	e8 7f 06 00 00       	call   27a0 <riscv_dsp_scale_q31>
    2121:	45 8b 47 04          	mov    0x4(%r15),%r8d
    2125:	e9 e8 fe ff ff       	jmp    2012 <riscv_dsp_mfcc_q31+0x162>
    212a:	66 0f 1f 44 00 00    	nopw   0x0(%rax,%rax,1)
    2130:	31 c9                	xor    %ecx,%ecx
    2132:	e9 08 ff ff ff       	jmp    203f <riscv_dsp_mfcc_q31+0x18f>
    2137:	e8 c4 ef ff ff       	call   1100 <__stack_chk_fail@plt>
    213c:	0f 1f 40 00          	nopl   0x0(%rax)

0000000000002140 <riscv_dsp_mul_q31>:
    2140:	f3 0f 1e fa          	endbr64 
    2144:	49 89 f0             	mov    %rsi,%r8
    2147:	49 89 d1             	mov    %rdx,%r9
    214a:	85 c9                	test   %ecx,%ecx
    214c:	74 32                	je     2180 <riscv_dsp_mul_q31+0x40>
    214e:	89 c9                	mov    %ecx,%ecx
    2150:	31 d2                	xor    %edx,%edx
    2152:	66 0f 1f 44 00 00    	nopw   0x0(%rax,%rax,1)
    2158:	49 63 04 90          	movslq (%r8,%rdx,4),%rax
    215c:	48 63 34 97          	movslq (%rdi,%rdx,4),%rsi
    2160:	3d 00 00 00 80       	cmp    $0x80000000,%eax
    2165:	75 21                	jne    2188 <riscv_dsp_mul_q31+0x48>
    2167:	81 fe 00 00 00 80    	cmp    $0x80000000,%esi
    216d:	75 19                	jne    2188 <riscv_dsp_mul_q31+0x48>
    216f:	41 c7 04 91 ff ff ff 	movl   $0x7fffffff,(%r9,%rdx,4)
    2176:	7f 
    2177:	48 83 c2 01          	add    $0x1,%rdx
    217b:	48 39 d1             	cmp    %rdx,%rcx
    217e:	75 d8                	jne    2158 <riscv_dsp_mul_q31+0x18>
    2180:	c3                   	ret    
    2181:	0f 1f 80 00 00 00 00 	nopl   0x0(%rax)
    2188:	48 0f af c6          	imul   %rsi,%rax
    218c:	48 89 c6             	mov    %rax,%rsi
    218f:	c1 e8 1f             	shr    $0x1f,%eax
    2192:	48 c1 fe 20          	sar    $0x20,%rsi
    2196:	01 f6                	add    %esi,%esi
    2198:	09 f0                	or     %esi,%eax
    219a:	41 89 04 91          	mov    %eax,(%r9,%rdx,4)
    219e:	48 83 c2 01          	add    $0x1,%rdx
    21a2:	48 39 d1             	cmp    %rdx,%rcx
    21a5:	75 b1                	jne    2158 <riscv_dsp_mul_q31+0x18>
    21a7:	c3                   	ret    
    21a8:	0f 1f 84 00 00 00 00 	nopl   0x0(%rax,%rax,1)
    21af:	00 

00000000000021b0 <riscv_dsp_offset_q31>:
    21b0:	f3 0f 1e fa          	endbr64 
    21b4:	85 c9                	test   %ecx,%ecx
    21b6:	0f 84 eb 00 00 00    	je     22a7 <riscv_dsp_offset_q31+0xf7>
    21bc:	8d 41 ff             	lea    -0x1(%rcx),%eax
    21bf:	85 f6                	test   %esi,%esi
    21c1:	0f 8e e9 00 00 00    	jle    22b0 <riscv_dsp_offset_q31+0x100>
    21c7:	83 f8 02             	cmp    $0x2,%eax
    21ca:	0f 86 c9 01 00 00    	jbe    2399 <riscv_dsp_offset_q31+0x1e9>
    21d0:	41 b8 ff ff ff 7f    	mov    $0x7fffffff,%r8d
    21d6:	41 89 c9             	mov    %ecx,%r9d
    21d9:	66 0f 6e fe          	movd   %esi,%xmm7
    21dd:	31 c0                	xor    %eax,%eax
    21df:	41 29 f0             	sub    %esi,%r8d
    21e2:	41 c1 e9 02          	shr    $0x2,%r9d
    21e6:	66 0f 70 ef 00       	pshufd $0x0,%xmm7,%xmm5
    21eb:	66 0f 6f 1d fd 62 00 	movdqa 0x62fd(%rip),%xmm3        # 84f0 <_IO_stdin_used+0x4f0>
    21f2:	00 
    21f3:	66 41 0f 6e f0       	movd   %r8d,%xmm6
    21f8:	49 c1 e1 04          	shl    $0x4,%r9
    21fc:	66 0f 70 e6 00       	pshufd $0x0,%xmm6,%xmm4
    2201:	0f 1f 80 00 00 00 00 	nopl   0x0(%rax)
    2208:	f3 0f 6f 04 07       	movdqu (%rdi,%rax,1),%xmm0
    220d:	66 0f 6f d0          	movdqa %xmm0,%xmm2
    2211:	66 0f 6f c8          	movdqa %xmm0,%xmm1
    2215:	66 0f 66 c4          	pcmpgtd %xmm4,%xmm0
    2219:	66 0f 72 e1 1f       	psrad  $0x1f,%xmm1
    221e:	66 0f fe d5          	paddd  %xmm5,%xmm2
    2222:	66 0f ef cb          	pxor   %xmm3,%xmm1
    2226:	66 0f db c8          	pand   %xmm0,%xmm1
    222a:	66 0f df c2          	pandn  %xmm2,%xmm0
    222e:	66 0f eb c1          	por    %xmm1,%xmm0
    2232:	0f 11 04 02          	movups %xmm0,(%rdx,%rax,1)
    2236:	48 83 c0 10          	add    $0x10,%rax
    223a:	49 39 c1             	cmp    %rax,%r9
    223d:	75 c9                	jne    2208 <riscv_dsp_offset_q31+0x58>
    223f:	41 89 c8             	mov    %ecx,%r8d
    2242:	41 89 c9             	mov    %ecx,%r9d
    2245:	41 83 e0 fc          	and    $0xfffffffc,%r8d
    2249:	44 89 c0             	mov    %r8d,%eax
    224c:	45 29 c1             	sub    %r8d,%r9d
    224f:	48 c1 e0 02          	shl    $0x2,%rax
    2253:	48 01 c7             	add    %rax,%rdi
    2256:	48 01 c2             	add    %rax,%rdx
    2259:	44 39 c1             	cmp    %r8d,%ecx
    225c:	0f 84 46 01 00 00    	je     23a8 <riscv_dsp_offset_q31+0x1f8>
    2262:	b8 ff ff ff 7f       	mov    $0x7fffffff,%eax
    2267:	44 8b 17             	mov    (%rdi),%r10d
    226a:	41 89 c0             	mov    %eax,%r8d
    226d:	41 29 f0             	sub    %esi,%r8d
    2270:	42 8d 0c 16          	lea    (%rsi,%r10,1),%ecx
    2274:	45 39 d0             	cmp    %r10d,%r8d
    2277:	0f 4c c8             	cmovl  %eax,%ecx
    227a:	89 0a                	mov    %ecx,(%rdx)
    227c:	41 83 f9 01          	cmp    $0x1,%r9d
    2280:	74 25                	je     22a7 <riscv_dsp_offset_q31+0xf7>
    2282:	44 8b 57 04          	mov    0x4(%rdi),%r10d
    2286:	42 8d 0c 16          	lea    (%rsi,%r10,1),%ecx
    228a:	45 39 c2             	cmp    %r8d,%r10d
    228d:	0f 4f c8             	cmovg  %eax,%ecx
    2290:	89 4a 04             	mov    %ecx,0x4(%rdx)
    2293:	41 83 f9 02          	cmp    $0x2,%r9d
    2297:	74 0e                	je     22a7 <riscv_dsp_offset_q31+0xf7>
    2299:	8b 4f 08             	mov    0x8(%rdi),%ecx
    229c:	01 ce                	add    %ecx,%esi
    229e:	41 39 c8             	cmp    %ecx,%r8d
    22a1:	0f 4c f0             	cmovl  %eax,%esi
    22a4:	89 72 08             	mov    %esi,0x8(%rdx)
    22a7:	c3                   	ret    
    22a8:	0f 1f 84 00 00 00 00 	nopl   0x0(%rax,%rax,1)
    22af:	00 
    22b0:	0f 84 fa 00 00 00    	je     23b0 <riscv_dsp_offset_q31+0x200>
    22b6:	83 f8 02             	cmp    $0x2,%eax
    22b9:	0f 86 4f 01 00 00    	jbe    240e <riscv_dsp_offset_q31+0x25e>
    22bf:	41 b8 00 00 00 80    	mov    $0x80000000,%r8d
    22c5:	66 0f 6e fe          	movd   %esi,%xmm7
    22c9:	41 89 c9             	mov    %ecx,%r9d
    22cc:	31 c0                	xor    %eax,%eax
    22ce:	41 29 f0             	sub    %esi,%r8d
    22d1:	66 0f 70 f7 00       	pshufd $0x0,%xmm7,%xmm6
    22d6:	41 c1 e9 02          	shr    $0x2,%r9d
    22da:	66 0f 6f 1d 0e 62 00 	movdqa 0x620e(%rip),%xmm3        # 84f0 <_IO_stdin_used+0x4f0>
    22e1:	00 
    22e2:	66 41 0f 6e f8       	movd   %r8d,%xmm7
    22e7:	49 c1 e1 04          	shl    $0x4,%r9
    22eb:	66 0f 70 ef 00       	pshufd $0x0,%xmm7,%xmm5
    22f0:	f3 0f 6f 14 07       	movdqu (%rdi,%rax,1),%xmm2
    22f5:	66 0f 6f c5          	movdqa %xmm5,%xmm0
    22f9:	66 0f 66 c2          	pcmpgtd %xmm2,%xmm0
    22fd:	66 0f 6f ca          	movdqa %xmm2,%xmm1
    2301:	66 0f 6f e2          	movdqa %xmm2,%xmm4
    2305:	66 0f 72 e1 1f       	psrad  $0x1f,%xmm1
    230a:	66 0f fe e6          	paddd  %xmm6,%xmm4
    230e:	66 0f ef cb          	pxor   %xmm3,%xmm1
    2312:	66 0f db c8          	pand   %xmm0,%xmm1
    2316:	66 0f df c4          	pandn  %xmm4,%xmm0
    231a:	66 0f eb c1          	por    %xmm1,%xmm0
    231e:	0f 11 04 02          	movups %xmm0,(%rdx,%rax,1)
    2322:	48 83 c0 10          	add    $0x10,%rax
    2326:	4c 39 c8             	cmp    %r9,%rax
    2329:	75 c5                	jne    22f0 <riscv_dsp_offset_q31+0x140>
    232b:	41 89 c8             	mov    %ecx,%r8d
    232e:	41 89 c9             	mov    %ecx,%r9d
    2331:	41 83 e0 fc          	and    $0xfffffffc,%r8d
    2335:	44 89 c0             	mov    %r8d,%eax
    2338:	45 29 c1             	sub    %r8d,%r9d
    233b:	48 c1 e0 02          	shl    $0x2,%rax
    233f:	48 01 c7             	add    %rax,%rdi
    2342:	48 01 c2             	add    %rax,%rdx
    2345:	44 39 c1             	cmp    %r8d,%ecx
    2348:	74 4e                	je     2398 <riscv_dsp_offset_q31+0x1e8>
    234a:	b8 00 00 00 80       	mov    $0x80000000,%eax
    234f:	44 8b 17             	mov    (%rdi),%r10d
    2352:	41 89 c0             	mov    %eax,%r8d
    2355:	41 29 f0             	sub    %esi,%r8d
    2358:	42 8d 0c 16          	lea    (%rsi,%r10,1),%ecx
    235c:	45 39 c2             	cmp    %r8d,%r10d
    235f:	0f 4c c8             	cmovl  %eax,%ecx
    2362:	89 0a                	mov    %ecx,(%rdx)
    2364:	41 83 f9 01          	cmp    $0x1,%r9d
    2368:	0f 84 39 ff ff ff    	je     22a7 <riscv_dsp_offset_q31+0xf7>
    236e:	44 8b 57 04          	mov    0x4(%rdi),%r10d
    2372:	42 8d 0c 16          	lea    (%rsi,%r10,1),%ecx
    2376:	45 39 d0             	cmp    %r10d,%r8d
    2379:	0f 4f c8             	cmovg  %eax,%ecx
    237c:	89 4a 04             	mov    %ecx,0x4(%rdx)
    237f:	41 83 f9 02          	cmp    $0x2,%r9d
    2383:	0f 84 1e ff ff ff    	je     22a7 <riscv_dsp_offset_q31+0xf7>
    2389:	8b 4f 08             	mov    0x8(%rdi),%ecx
    238c:	01 ce                	add    %ecx,%esi
    238e:	41 39 c8             	cmp    %ecx,%r8d
    2391:	0f 4f f0             	cmovg  %eax,%esi
    2394:	89 72 08             	mov    %esi,0x8(%rdx)
    2397:	c3                   	ret    
    2398:	c3                   	ret    
    2399:	41 89 c9             	mov    %ecx,%r9d
    239c:	e9 c1 fe ff ff       	jmp    2262 <riscv_dsp_offset_q31+0xb2>
    23a1:	0f 1f 80 00 00 00 00 	nopl   0x0(%rax)
    23a8:	c3                   	ret    
    23a9:	0f 1f 80 00 00 00 00 	nopl   0x0(%rax)
    23b0:	83 f8 02             	cmp    $0x2,%eax
    23b3:	76 62                	jbe    2417 <riscv_dsp_offset_q31+0x267>
    23b5:	89 ce                	mov    %ecx,%esi
    23b7:	31 c0                	xor    %eax,%eax
    23b9:	c1 ee 02             	shr    $0x2,%esi
    23bc:	48 c1 e6 04          	shl    $0x4,%rsi
    23c0:	f3 0f 6f 3c 07       	movdqu (%rdi,%rax,1),%xmm7
    23c5:	0f 11 3c 02          	movups %xmm7,(%rdx,%rax,1)
    23c9:	48 83 c0 10          	add    $0x10,%rax
    23cd:	48 39 c6             	cmp    %rax,%rsi
    23d0:	75 ee                	jne    23c0 <riscv_dsp_offset_q31+0x210>
    23d2:	89 ce                	mov    %ecx,%esi
    23d4:	83 e6 fc             	and    $0xfffffffc,%esi
    23d7:	89 f0                	mov    %esi,%eax
    23d9:	48 c1 e0 02          	shl    $0x2,%rax
    23dd:	48 01 c7             	add    %rax,%rdi
    23e0:	48 01 c2             	add    %rax,%rdx
    23e3:	89 c8                	mov    %ecx,%eax
    23e5:	29 f0                	sub    %esi,%eax
    23e7:	39 f1                	cmp    %esi,%ecx
    23e9:	74 2b                	je     2416 <riscv_dsp_offset_q31+0x266>
    23eb:	8b 0f                	mov    (%rdi),%ecx
    23ed:	89 0a                	mov    %ecx,(%rdx)
    23ef:	83 f8 01             	cmp    $0x1,%eax
    23f2:	0f 84 af fe ff ff    	je     22a7 <riscv_dsp_offset_q31+0xf7>
    23f8:	8b 4f 04             	mov    0x4(%rdi),%ecx
    23fb:	89 4a 04             	mov    %ecx,0x4(%rdx)
    23fe:	83 f8 02             	cmp    $0x2,%eax
    2401:	0f 84 a0 fe ff ff    	je     22a7 <riscv_dsp_offset_q31+0xf7>
    2407:	8b 47 08             	mov    0x8(%rdi),%eax
    240a:	89 42 08             	mov    %eax,0x8(%rdx)
    240d:	c3                   	ret    
    240e:	41 89 c9             	mov    %ecx,%r9d
    2411:	e9 34 ff ff ff       	jmp    234a <riscv_dsp_offset_q31+0x19a>
    2416:	c3                   	ret    
    2417:	89 c8                	mov    %ecx,%eax
    2419:	eb d0                	jmp    23eb <riscv_dsp_offset_q31+0x23b>
    241b:	0f 1f 44 00 00       	nopl   0x0(%rax,%rax,1)

0000000000002420 <riscv_dsp_rfft_q31>:
    2420:	f3 0f 1e fa          	endbr64 
    2424:	41 57                	push   %r15
    2426:	41 56                	push   %r14
    2428:	41 55                	push   %r13
    242a:	41 54                	push   %r12
    242c:	55                   	push   %rbp
    242d:	48 89 fd             	mov    %rdi,%rbp
    2430:	53                   	push   %rbx
    2431:	89 f3                	mov    %esi,%ebx
    2433:	83 ee 01             	sub    $0x1,%esi
    2436:	48 83 ec 18          	sub    $0x18,%rsp
    243a:	e8 a1 06 00 00       	call   2ae0 <riscv_dsp_cfft_q31>
    243f:	41 bb 01 00 00 00    	mov    $0x1,%r11d
    2445:	89 d9                	mov    %ebx,%ecx
    2447:	41 d3 e3             	shl    %cl,%r11d
    244a:	41 c1 eb 02          	shr    $0x2,%r11d
    244e:	0f 84 54 01 00 00    	je     25a8 <riscv_dsp_rfft_q31+0x188>
    2454:	b8 0a 00 00 00       	mov    $0xa,%eax
    2459:	43 8d 3c 1b          	lea    (%r11,%r11,1),%edi
    245d:	4c 8d 2d e4 68 00 00 	lea    0x68e4(%rip),%r13        # 8d48 <riscv_dsp_cos_table_q31_1024+0x8>
    2464:	29 d8                	sub    %ebx,%eax
    2466:	4c 8d 44 bd 00       	lea    0x0(%rbp,%rdi,4),%r8
    246b:	48 89 fb             	mov    %rdi,%rbx
    246e:	89 44 24 0c          	mov    %eax,0xc(%rsp)
    2472:	e9 b4 00 00 00       	jmp    252b <riscv_dsp_rfft_q31+0x10b>
    2477:	66 0f 1f 84 00 00 00 	nopw   0x0(%rax,%rax,1)
    247e:	00 00 
    2480:	48 98                	cltq   
    2482:	48 63 d2             	movslq %edx,%rdx
    2485:	41 8b 44 85 00       	mov    0x0(%r13,%rax,4),%eax
    248a:	41 8b 74 95 00       	mov    0x0(%r13,%rdx,4),%esi
    248f:	4c 8d 64 bd 00       	lea    0x0(%rbp,%rdi,4),%r12
    2494:	8d 7b 01             	lea    0x1(%rbx),%edi
    2497:	41 8b 10             	mov    (%r8),%edx
    249a:	41 8b 48 04          	mov    0x4(%r8),%ecx
    249e:	44 8b 74 bd 00       	mov    0x0(%rbp,%rdi,4),%r14d
    24a3:	48 98                	cltq   
    24a5:	48 63 f6             	movslq %esi,%rsi
    24a8:	49 83 e8 08          	sub    $0x8,%r8
    24ac:	41 89 d2             	mov    %edx,%r10d
    24af:	45 2b 14 24          	sub    (%r12),%r10d
    24b3:	48 89 c7             	mov    %rax,%rdi
    24b6:	49 89 f7             	mov    %rsi,%r15
    24b9:	46 8d 0c 31          	lea    (%rcx,%r14,1),%r9d
    24bd:	4d 63 d2             	movslq %r10d,%r10
    24c0:	41 03 14 24          	add    (%r12),%edx
    24c4:	44 29 f1             	sub    %r14d,%ecx
    24c7:	4d 63 c9             	movslq %r9d,%r9
    24ca:	49 0f af c2          	imul   %r10,%rax
    24ce:	c1 fa 02             	sar    $0x2,%edx
    24d1:	83 c3 02             	add    $0x2,%ebx
    24d4:	49 0f af f1          	imul   %r9,%rsi
    24d8:	c1 f9 02             	sar    $0x2,%ecx
    24db:	49 0f af f9          	imul   %r9,%rdi
    24df:	41 89 c9             	mov    %ecx,%r9d
    24e2:	4d 0f af fa          	imul   %r10,%r15
    24e6:	48 01 f0             	add    %rsi,%rax
    24e9:	48 c1 f8 21          	sar    $0x21,%rax
    24ed:	4c 29 ff             	sub    %r15,%rdi
    24f0:	48 89 c6             	mov    %rax,%rsi
    24f3:	41 29 c1             	sub    %eax,%r9d
    24f6:	48 c1 ff 21          	sar    $0x21,%rdi
    24fa:	48 f7 de             	neg    %rsi
    24fd:	45 89 48 0c          	mov    %r9d,0xc(%r8)
    2501:	44 8d 3c 3a          	lea    (%rdx,%rdi,1),%r15d
    2505:	29 ce                	sub    %ecx,%esi
    2507:	29 fa                	sub    %edi,%edx
    2509:	66 0f 6e c2          	movd   %edx,%xmm0
    250d:	66 0f 6e ce          	movd   %esi,%xmm1
    2511:	45 89 78 08          	mov    %r15d,0x8(%r8)
    2515:	66 0f 62 c1          	punpckldq %xmm1,%xmm0
    2519:	66 41 0f d6 04 24    	movq   %xmm0,(%r12)
    251f:	41 83 eb 01          	sub    $0x1,%r11d
    2523:	0f 84 7f 00 00 00    	je     25a8 <riscv_dsp_rfft_q31+0x188>
    2529:	89 df                	mov    %ebx,%edi
    252b:	0f b6 4c 24 0c       	movzbl 0xc(%rsp),%ecx
    2530:	44 89 d8             	mov    %r11d,%eax
    2533:	ba 00 01 00 00       	mov    $0x100,%edx
    2538:	d3 e0                	shl    %cl,%eax
    253a:	29 c2                	sub    %eax,%edx
    253c:	85 d2                	test   %edx,%edx
    253e:	0f 8f 3c ff ff ff    	jg     2480 <riscv_dsp_rfft_q31+0x60>
    2544:	8d 90 00 ff ff ff    	lea    -0x100(%rax),%edx
    254a:	b9 00 01 00 00       	mov    $0x100,%ecx
    254f:	29 d1                	sub    %edx,%ecx
    2551:	85 c9                	test   %ecx,%ecx
    2553:	7e 1b                	jle    2570 <riscv_dsp_rfft_q31+0x150>
    2555:	48 63 c9             	movslq %ecx,%rcx
    2558:	48 63 d2             	movslq %edx,%rdx
    255b:	41 8b 44 8d 00       	mov    0x0(%r13,%rcx,4),%eax
    2560:	41 8b 74 95 00       	mov    0x0(%r13,%rdx,4),%esi
    2565:	f7 d8                	neg    %eax
    2567:	e9 23 ff ff ff       	jmp    248f <riscv_dsp_rfft_q31+0x6f>
    256c:	0f 1f 40 00          	nopl   0x0(%rax)
    2570:	8d 90 00 fe ff ff    	lea    -0x200(%rax),%edx
    2576:	b9 00 01 00 00       	mov    $0x100,%ecx
    257b:	29 d1                	sub    %edx,%ecx
    257d:	48 63 d2             	movslq %edx,%rdx
    2580:	41 8b 74 95 00       	mov    0x0(%r13,%rdx,4),%esi
    2585:	48 63 c1             	movslq %ecx,%rax
    2588:	41 8b 44 85 00       	mov    0x0(%r13,%rax,4),%eax
    258d:	f7 de                	neg    %esi
    258f:	85 c9                	test   %ecx,%ecx
    2591:	0f 8e f8 fe ff ff    	jle    248f <riscv_dsp_rfft_q31+0x6f>
    2597:	f7 d8                	neg    %eax
    2599:	89 c2                	mov    %eax,%edx
    259b:	89 f0                	mov    %esi,%eax
    259d:	89 d6                	mov    %edx,%esi
    259f:	e9 eb fe ff ff       	jmp    248f <riscv_dsp_rfft_q31+0x6f>
    25a4:	0f 1f 40 00          	nopl   0x0(%rax)
    25a8:	48 63 45 00          	movslq 0x0(%rbp),%rax
    25ac:	48 63 4d 04          	movslq 0x4(%rbp),%rcx
    25b0:	48 8d 14 01          	lea    (%rcx,%rax,1),%rdx
    25b4:	48 29 c8             	sub    %rcx,%rax
    25b7:	48 d1 f8             	sar    %rax
    25ba:	48 d1 fa             	sar    %rdx
    25bd:	66 0f 6e d0          	movd   %eax,%xmm2
    25c1:	66 0f 6e c2          	movd   %edx,%xmm0
    25c5:	31 c0                	xor    %eax,%eax
    25c7:	66 0f 62 c2          	punpckldq %xmm2,%xmm0
    25cb:	66 0f d6 45 00       	movq   %xmm0,0x0(%rbp)
    25d0:	48 83 c4 18          	add    $0x18,%rsp
    25d4:	5b                   	pop    %rbx
    25d5:	5d                   	pop    %rbp
    25d6:	41 5c                	pop    %r12
    25d8:	41 5d                	pop    %r13
    25da:	41 5e                	pop    %r14
    25dc:	41 5f                	pop    %r15
    25de:	c3                   	ret    
    25df:	90                   	nop

00000000000025e0 <riscv_dsp_rifft_q31>:
    25e0:	f3 0f 1e fa          	endbr64 
    25e4:	41 57                	push   %r15
    25e6:	41 bb 01 00 00 00    	mov    $0x1,%r11d
    25ec:	89 f1                	mov    %esi,%ecx
    25ee:	41 56                	push   %r14
    25f0:	41 d3 e3             	shl    %cl,%r11d
    25f3:	41 55                	push   %r13
    25f5:	41 54                	push   %r12
    25f7:	49 89 fc             	mov    %rdi,%r12
    25fa:	55                   	push   %rbp
    25fb:	53                   	push   %rbx
    25fc:	48 83 ec 18          	sub    $0x18,%rsp
    2600:	41 c1 eb 02          	shr    $0x2,%r11d
    2604:	89 74 24 0c          	mov    %esi,0xc(%rsp)
    2608:	0f 84 42 01 00 00    	je     2750 <riscv_dsp_rifft_q31+0x170>
    260e:	b8 0a 00 00 00       	mov    $0xa,%eax
    2613:	4c 8d 2d 2e 67 00 00 	lea    0x672e(%rip),%r13        # 8d48 <riscv_dsp_cos_table_q31_1024+0x8>
    261a:	29 f0                	sub    %esi,%eax
    261c:	43 8d 34 1b          	lea    (%r11,%r11,1),%esi
    2620:	89 44 24 08          	mov    %eax,0x8(%rsp)
    2624:	48 89 f3             	mov    %rsi,%rbx
    2627:	48 8d 3c b7          	lea    (%rdi,%rsi,4),%rdi
    262b:	e9 9b 00 00 00       	jmp    26cb <riscv_dsp_rifft_q31+0xeb>
    2630:	48 98                	cltq   
    2632:	48 63 d2             	movslq %edx,%rdx
    2635:	41 8b 44 85 00       	mov    0x0(%r13,%rax,4),%eax
    263a:	41 8b 4c 95 00       	mov    0x0(%r13,%rdx,4),%ecx
    263f:	49 8d 2c b4          	lea    (%r12,%rsi,4),%rbp
    2643:	8d 73 01             	lea    0x1(%rbx),%esi
    2646:	8b 17                	mov    (%rdi),%edx
    2648:	44 8b 47 04          	mov    0x4(%rdi),%r8d
    264c:	45 8b 34 b4          	mov    (%r12,%rsi,4),%r14d
    2650:	48 98                	cltq   
    2652:	48 63 c9             	movslq %ecx,%rcx
    2655:	48 83 ef 08          	sub    $0x8,%rdi
    2659:	41 89 d2             	mov    %edx,%r10d
    265c:	44 2b 55 00          	sub    0x0(%rbp),%r10d
    2660:	48 89 c6             	mov    %rax,%rsi
    2663:	49 89 cf             	mov    %rcx,%r15
    2666:	47 8d 0c 30          	lea    (%r8,%r14,1),%r9d
    266a:	4d 63 d2             	movslq %r10d,%r10
    266d:	45 29 f0             	sub    %r14d,%r8d
    2670:	03 55 00             	add    0x0(%rbp),%edx
    2673:	4d 63 c9             	movslq %r9d,%r9
    2676:	49 0f af c2          	imul   %r10,%rax
    267a:	83 c3 02             	add    $0x2,%ebx
    267d:	49 0f af c9          	imul   %r9,%rcx
    2681:	4d 0f af fa          	imul   %r10,%r15
    2685:	49 0f af f1          	imul   %r9,%rsi
    2689:	48 29 c8             	sub    %rcx,%rax
    268c:	48 c1 f8 1f          	sar    $0x1f,%rax
    2690:	4c 01 fe             	add    %r15,%rsi
    2693:	41 8d 0c 00          	lea    (%r8,%rax,1),%ecx
    2697:	44 29 c0             	sub    %r8d,%eax
    269a:	41 89 d7             	mov    %edx,%r15d
    269d:	48 c1 fe 1f          	sar    $0x1f,%rsi
    26a1:	89 4f 0c             	mov    %ecx,0xc(%rdi)
    26a4:	66 0f 6e c8          	movd   %eax,%xmm1
    26a8:	8d 0c 32             	lea    (%rdx,%rsi,1),%ecx
    26ab:	41 29 f7             	sub    %esi,%r15d
    26ae:	66 0f 6e c1          	movd   %ecx,%xmm0
    26b2:	44 89 7f 08          	mov    %r15d,0x8(%rdi)
    26b6:	66 0f 62 c1          	punpckldq %xmm1,%xmm0
    26ba:	66 0f d6 45 00       	movq   %xmm0,0x0(%rbp)
    26bf:	41 83 eb 01          	sub    $0x1,%r11d
    26c3:	0f 84 87 00 00 00    	je     2750 <riscv_dsp_rifft_q31+0x170>
    26c9:	89 de                	mov    %ebx,%esi
    26cb:	0f b6 4c 24 08       	movzbl 0x8(%rsp),%ecx
    26d0:	44 89 d8             	mov    %r11d,%eax
    26d3:	ba 00 01 00 00       	mov    $0x100,%edx
    26d8:	d3 e0                	shl    %cl,%eax
    26da:	29 c2                	sub    %eax,%edx
    26dc:	85 d2                	test   %edx,%edx
    26de:	0f 8f 4c ff ff ff    	jg     2630 <riscv_dsp_rifft_q31+0x50>
    26e4:	8d 90 00 ff ff ff    	lea    -0x100(%rax),%edx
    26ea:	b9 00 01 00 00       	mov    $0x100,%ecx
    26ef:	29 d1                	sub    %edx,%ecx
    26f1:	85 c9                	test   %ecx,%ecx
    26f3:	7e 1b                	jle    2710 <riscv_dsp_rifft_q31+0x130>
    26f5:	48 63 c9             	movslq %ecx,%rcx
    26f8:	48 63 d2             	movslq %edx,%rdx
    26fb:	41 8b 44 8d 00       	mov    0x0(%r13,%rcx,4),%eax
    2700:	41 8b 4c 95 00       	mov    0x0(%r13,%rdx,4),%ecx
    2705:	f7 d8                	neg    %eax
    2707:	e9 33 ff ff ff       	jmp    263f <riscv_dsp_rifft_q31+0x5f>
    270c:	0f 1f 40 00          	nopl   0x0(%rax)
    2710:	8d 90 00 fe ff ff    	lea    -0x200(%rax),%edx
    2716:	41 b8 00 01 00 00    	mov    $0x100,%r8d
    271c:	41 29 d0             	sub    %edx,%r8d
    271f:	48 63 d2             	movslq %edx,%rdx
    2722:	41 8b 4c 95 00       	mov    0x0(%r13,%rdx,4),%ecx
    2727:	49 63 c0             	movslq %r8d,%rax
    272a:	41 8b 44 85 00       	mov    0x0(%r13,%rax,4),%eax
    272f:	f7 d9                	neg    %ecx
    2731:	45 85 c0             	test   %r8d,%r8d
    2734:	0f 8e 05 ff ff ff    	jle    263f <riscv_dsp_rifft_q31+0x5f>
    273a:	f7 d8                	neg    %eax
    273c:	89 c2                	mov    %eax,%edx
    273e:	89 c8                	mov    %ecx,%eax
    2740:	89 d1                	mov    %edx,%ecx
    2742:	e9 f8 fe ff ff       	jmp    263f <riscv_dsp_rifft_q31+0x5f>
    2747:	66 0f 1f 84 00 00 00 	nopw   0x0(%rax,%rax,1)
    274e:	00 00 
    2750:	41 8b 04 24          	mov    (%r12),%eax
    2754:	41 8b 5c 24 04       	mov    0x4(%r12),%ebx
    2759:	4c 89 e7             	mov    %r12,%rdi
    275c:	8b 74 24 0c          	mov    0xc(%rsp),%esi
    2760:	01 c3                	add    %eax,%ebx
    2762:	41 2b 44 24 04       	sub    0x4(%r12),%eax
    2767:	66 0f 6e c3          	movd   %ebx,%xmm0
    276b:	66 0f 6e d0          	movd   %eax,%xmm2
    276f:	83 ee 01             	sub    $0x1,%esi
    2772:	66 0f 62 c2          	punpckldq %xmm2,%xmm0
    2776:	66 41 0f d6 04 24    	movq   %xmm0,(%r12)
    277c:	e8 8f 03 00 00       	call   2b10 <riscv_dsp_cifft_q31>
    2781:	48 83 c4 18          	add    $0x18,%rsp
    2785:	31 c0                	xor    %eax,%eax
    2787:	5b                   	pop    %rbx
    2788:	5d                   	pop    %rbp
    2789:	41 5c                	pop    %r12
    278b:	41 5d                	pop    %r13
    278d:	41 5e                	pop    %r14
    278f:	41 5f                	pop    %r15
    2791:	c3                   	ret    
    2792:	66 2e 0f 1f 84 00 00 	cs nopw 0x0(%rax,%rax,1)
    2799:	00 00 00 
    279c:	0f 1f 40 00          	nopl   0x0(%rax)

00000000000027a0 <riscv_dsp_scale_q31>:
    27a0:	f3 0f 1e fa          	endbr64 
    27a4:	41 57                	push   %r15
    27a6:	49 89 f9             	mov    %rdi,%r9
    27a9:	49 89 ca             	mov    %rcx,%r10
    27ac:	0f be c2             	movsbl %dl,%eax
    27af:	41 56                	push   %r14
    27b1:	41 55                	push   %r13
    27b3:	41 54                	push   %r12
    27b5:	55                   	push   %rbp
    27b6:	48 63 ee             	movslq %esi,%rbp
    27b9:	53                   	push   %rbx
    27ba:	80 fa ff             	cmp    $0xff,%dl
    27bd:	0f 8c 1d 01 00 00    	jl     28e0 <riscv_dsp_scale_q31+0x140>
    27c3:	41 bb 1f 00 00 00    	mov    $0x1f,%r11d
    27c9:	b9 1e 00 00 00       	mov    $0x1e,%ecx
    27ce:	44 89 c3             	mov    %r8d,%ebx
    27d1:	29 c1                	sub    %eax,%ecx
    27d3:	41 29 c3             	sub    %eax,%r11d
    27d6:	b8 01 00 00 00       	mov    $0x1,%eax
    27db:	83 e3 01             	and    $0x1,%ebx
    27de:	48 d3 e0             	shl    %cl,%rax
    27e1:	89 5c 24 f4          	mov    %ebx,-0xc(%rsp)
    27e5:	41 89 c6             	mov    %eax,%r14d
    27e8:	48 89 44 24 f8       	mov    %rax,-0x8(%rsp)
    27ed:	41 89 c4             	mov    %eax,%r12d
    27f0:	41 f7 de             	neg    %r14d
    27f3:	41 d1 e8             	shr    %r8d
    27f6:	0f 84 a1 00 00 00    	je     289d <riscv_dsp_scale_q31+0xfd>
    27fc:	48 63 dd             	movslq %ebp,%rbx
    27ff:	45 89 c0             	mov    %r8d,%r8d
    2802:	31 f6                	xor    %esi,%esi
    2804:	41 bf 00 00 00 80    	mov    $0x80000000,%r15d
    280a:	41 bd ff ff ff 7f    	mov    $0x7fffffff,%r13d
    2810:	44 89 d9             	mov    %r11d,%ecx
    2813:	eb 2a                	jmp    283f <riscv_dsp_scale_q31+0x9f>
    2815:	0f 1f 00             	nopl   (%rax)
    2818:	48 c1 f8 20          	sar    $0x20,%rax
    281c:	41 39 c4             	cmp    %eax,%r12d
    281f:	45 0f 4e dd          	cmovle %r13d,%r11d
    2823:	66 0f 6e c7          	movd   %edi,%xmm0
    2827:	66 41 0f 6e cb       	movd   %r11d,%xmm1
    282c:	66 0f 62 c1          	punpckldq %xmm1,%xmm0
    2830:	66 41 0f d6 04 f2    	movq   %xmm0,(%r10,%rsi,8)
    2836:	48 83 c6 01          	add    $0x1,%rsi
    283a:	4c 39 c6             	cmp    %r8,%rsi
    283d:	74 51                	je     2890 <riscv_dsp_scale_q31+0xf0>
    283f:	49 63 14 f1          	movslq (%r9,%rsi,8),%rdx
    2843:	49 63 44 f1 04       	movslq 0x4(%r9,%rsi,8),%rax
    2848:	48 0f af d3          	imul   %rbx,%rdx
    284c:	48 0f af c3          	imul   %rbx,%rax
    2850:	48 89 d7             	mov    %rdx,%rdi
    2853:	49 89 c3             	mov    %rax,%r11
    2856:	48 d3 ff             	sar    %cl,%rdi
    2859:	49 d3 fb             	sar    %cl,%r11
    285c:	48 85 d2             	test   %rdx,%rdx
    285f:	7e 1f                	jle    2880 <riscv_dsp_scale_q31+0xe0>
    2861:	48 c1 fa 20          	sar    $0x20,%rdx
    2865:	41 39 d4             	cmp    %edx,%r12d
    2868:	41 0f 4e fd          	cmovle %r13d,%edi
    286c:	48 85 c0             	test   %rax,%rax
    286f:	7f a7                	jg     2818 <riscv_dsp_scale_q31+0x78>
    2871:	74 b0                	je     2823 <riscv_dsp_scale_q31+0x83>
    2873:	48 c1 f8 20          	sar    $0x20,%rax
    2877:	41 39 c6             	cmp    %eax,%r14d
    287a:	45 0f 4d df          	cmovge %r15d,%r11d
    287e:	eb a3                	jmp    2823 <riscv_dsp_scale_q31+0x83>
    2880:	74 ea                	je     286c <riscv_dsp_scale_q31+0xcc>
    2882:	48 c1 fa 20          	sar    $0x20,%rdx
    2886:	41 39 d6             	cmp    %edx,%r14d
    2889:	41 0f 4d ff          	cmovge %r15d,%edi
    288d:	eb dd                	jmp    286c <riscv_dsp_scale_q31+0xcc>
    288f:	90                   	nop
    2890:	48 c1 e6 03          	shl    $0x3,%rsi
    2894:	41 89 cb             	mov    %ecx,%r11d
    2897:	49 01 f1             	add    %rsi,%r9
    289a:	49 01 f2             	add    %rsi,%r10
    289d:	8b 44 24 f4          	mov    -0xc(%rsp),%eax
    28a1:	85 c0                	test   %eax,%eax
    28a3:	74 28                	je     28cd <riscv_dsp_scale_q31+0x12d>
    28a5:	49 63 01             	movslq (%r9),%rax
    28a8:	44 89 d9             	mov    %r11d,%ecx
    28ab:	48 0f af e8          	imul   %rax,%rbp
    28af:	48 89 e8             	mov    %rbp,%rax
    28b2:	48 d3 f8             	sar    %cl,%rax
    28b5:	48 85 ed             	test   %rbp,%rbp
    28b8:	7e 66                	jle    2920 <riscv_dsp_scale_q31+0x180>
    28ba:	48 c1 fd 20          	sar    $0x20,%rbp
    28be:	ba ff ff ff 7f       	mov    $0x7fffffff,%edx
    28c3:	39 6c 24 f8          	cmp    %ebp,-0x8(%rsp)
    28c7:	0f 4e c2             	cmovle %edx,%eax
    28ca:	41 89 02             	mov    %eax,(%r10)
    28cd:	5b                   	pop    %rbx
    28ce:	5d                   	pop    %rbp
    28cf:	41 5c                	pop    %r12
    28d1:	41 5d                	pop    %r13
    28d3:	41 5e                	pop    %r14
    28d5:	41 5f                	pop    %r15
    28d7:	c3                   	ret    
    28d8:	0f 1f 84 00 00 00 00 	nopl   0x0(%rax,%rax,1)
    28df:	00 
    28e0:	45 85 c0             	test   %r8d,%r8d
    28e3:	74 e8                	je     28cd <riscv_dsp_scale_q31+0x12d>
    28e5:	f7 d0                	not    %eax
    28e7:	45 89 c0             	mov    %r8d,%r8d
    28ea:	31 d2                	xor    %edx,%edx
    28ec:	89 c1                	mov    %eax,%ecx
    28ee:	66 90                	xchg   %ax,%ax
    28f0:	49 63 04 91          	movslq (%r9,%rdx,4),%rax
    28f4:	48 0f af c5          	imul   %rbp,%rax
    28f8:	48 c1 f8 20          	sar    $0x20,%rax
    28fc:	d3 f8                	sar    %cl,%eax
    28fe:	41 89 04 92          	mov    %eax,(%r10,%rdx,4)
    2902:	48 83 c2 01          	add    $0x1,%rdx
    2906:	4c 39 c2             	cmp    %r8,%rdx
    2909:	75 e5                	jne    28f0 <riscv_dsp_scale_q31+0x150>
    290b:	5b                   	pop    %rbx
    290c:	5d                   	pop    %rbp
    290d:	41 5c                	pop    %r12
    290f:	41 5d                	pop    %r13
    2911:	41 5e                	pop    %r14
    2913:	41 5f                	pop    %r15
    2915:	c3                   	ret    
    2916:	66 2e 0f 1f 84 00 00 	cs nopw 0x0(%rax,%rax,1)
    291d:	00 00 00 
    2920:	74 a8                	je     28ca <riscv_dsp_scale_q31+0x12a>
    2922:	48 c1 fd 20          	sar    $0x20,%rbp
    2926:	ba 00 00 00 80       	mov    $0x80000000,%edx
    292b:	41 39 ee             	cmp    %ebp,%r14d
    292e:	0f 4d c2             	cmovge %edx,%eax
    2931:	eb 97                	jmp    28ca <riscv_dsp_scale_q31+0x12a>
    2933:	66 2e 0f 1f 84 00 00 	cs nopw 0x0(%rax,%rax,1)
    293a:	00 00 00 
    293d:	0f 1f 00             	nopl   (%rax)

0000000000002940 <riscv_dsp_shift_q31>:
    2940:	f3 0f 1e fa          	endbr64 
    2944:	41 56                	push   %r14
    2946:	41 55                	push   %r13
    2948:	41 54                	push   %r12
    294a:	55                   	push   %rbp
    294b:	89 cd                	mov    %ecx,%ebp
    294d:	53                   	push   %rbx
    294e:	89 f3                	mov    %esi,%ebx
    2950:	48 89 d6             	mov    %rdx,%rsi
    2953:	89 ca                	mov    %ecx,%edx
    2955:	83 e5 01             	and    $0x1,%ebp
    2958:	83 e2 fe             	and    $0xfffffffe,%edx
    295b:	84 db                	test   %bl,%bl
    295d:	0f 88 a5 00 00 00    	js     2a08 <riscv_dsp_shift_q31+0xc8>
    2963:	0f be cb             	movsbl %bl,%ecx
    2966:	85 d2                	test   %edx,%edx
    2968:	74 6e                	je     29d8 <riscv_dsp_shift_q31+0x98>
    296a:	66 0f 1f 44 00 00    	nopw   0x0(%rax,%rax,1)
    2970:	44 8b 27             	mov    (%rdi),%r12d
    2973:	44 8b 57 04          	mov    0x4(%rdi),%r10d
    2977:	48 83 c7 08          	add    $0x8,%rdi
    297b:	48 83 c6 08          	add    $0x8,%rsi
    297f:	44 89 e0             	mov    %r12d,%eax
    2982:	45 89 d0             	mov    %r10d,%r8d
    2985:	45 89 e3             	mov    %r12d,%r11d
    2988:	45 89 d1             	mov    %r10d,%r9d
    298b:	d3 e0                	shl    %cl,%eax
    298d:	41 d3 e0             	shl    %cl,%r8d
    2990:	41 c1 fb 1f          	sar    $0x1f,%r11d
    2994:	41 89 c6             	mov    %eax,%r14d
    2997:	45 89 c5             	mov    %r8d,%r13d
    299a:	41 c1 f9 1f          	sar    $0x1f,%r9d
    299e:	41 d3 fe             	sar    %cl,%r14d
    29a1:	41 81 f3 ff ff ff 7f 	xor    $0x7fffffff,%r11d
    29a8:	41 d3 fd             	sar    %cl,%r13d
    29ab:	41 81 f1 ff ff ff 7f 	xor    $0x7fffffff,%r9d
    29b2:	45 39 f4             	cmp    %r14d,%r12d
    29b5:	44 0f 44 d8          	cmove  %eax,%r11d
    29b9:	45 39 ea             	cmp    %r13d,%r10d
    29bc:	45 0f 45 c1          	cmovne %r9d,%r8d
    29c0:	66 41 0f 6e c3       	movd   %r11d,%xmm0
    29c5:	66 41 0f 6e d0       	movd   %r8d,%xmm2
    29ca:	66 0f 62 c2          	punpckldq %xmm2,%xmm0
    29ce:	66 0f d6 46 f8       	movq   %xmm0,-0x8(%rsi)
    29d3:	83 ea 02             	sub    $0x2,%edx
    29d6:	75 98                	jne    2970 <riscv_dsp_shift_q31+0x30>
    29d8:	85 ed                	test   %ebp,%ebp
    29da:	74 20                	je     29fc <riscv_dsp_shift_q31+0xbc>
    29dc:	8b 3f                	mov    (%rdi),%edi
    29de:	89 d9                	mov    %ebx,%ecx
    29e0:	89 f8                	mov    %edi,%eax
    29e2:	d3 e0                	shl    %cl,%eax
    29e4:	89 c2                	mov    %eax,%edx
    29e6:	d3 fa                	sar    %cl,%edx
    29e8:	89 d1                	mov    %edx,%ecx
    29ea:	89 fa                	mov    %edi,%edx
    29ec:	c1 fa 1f             	sar    $0x1f,%edx
    29ef:	81 f2 ff ff ff 7f    	xor    $0x7fffffff,%edx
    29f5:	39 cf                	cmp    %ecx,%edi
    29f7:	0f 45 c2             	cmovne %edx,%eax
    29fa:	89 06                	mov    %eax,(%rsi)
    29fc:	5b                   	pop    %rbx
    29fd:	5d                   	pop    %rbp
    29fe:	41 5c                	pop    %r12
    2a00:	41 5d                	pop    %r13
    2a02:	41 5e                	pop    %r14
    2a04:	c3                   	ret    
    2a05:	0f 1f 00             	nopl   (%rax)
    2a08:	85 d2                	test   %edx,%edx
    2a0a:	74 2e                	je     2a3a <riscv_dsp_shift_q31+0xfa>
    2a0c:	0f be c3             	movsbl %bl,%eax
    2a0f:	f7 d8                	neg    %eax
    2a11:	48 98                	cltq   
    2a13:	66 48 0f 6e c8       	movq   %rax,%xmm1
    2a18:	0f 1f 84 00 00 00 00 	nopl   0x0(%rax,%rax,1)
    2a1f:	00 
    2a20:	f3 0f 7e 07          	movq   (%rdi),%xmm0
    2a24:	48 83 c6 08          	add    $0x8,%rsi
    2a28:	48 83 c7 08          	add    $0x8,%rdi
    2a2c:	66 0f e2 c1          	psrad  %xmm1,%xmm0
    2a30:	66 0f d6 46 f8       	movq   %xmm0,-0x8(%rsi)
    2a35:	83 ea 02             	sub    $0x2,%edx
    2a38:	75 e6                	jne    2a20 <riscv_dsp_shift_q31+0xe0>
    2a3a:	85 ed                	test   %ebp,%ebp
    2a3c:	74 be                	je     29fc <riscv_dsp_shift_q31+0xbc>
    2a3e:	8b 07                	mov    (%rdi),%eax
    2a40:	89 d9                	mov    %ebx,%ecx
    2a42:	5b                   	pop    %rbx
    2a43:	f7 d9                	neg    %ecx
    2a45:	5d                   	pop    %rbp
    2a46:	41 5c                	pop    %r12
    2a48:	d3 f8                	sar    %cl,%eax
    2a4a:	41 5d                	pop    %r13
    2a4c:	41 5e                	pop    %r14
    2a4e:	89 06                	mov    %eax,(%rsi)
    2a50:	c3                   	ret    
    2a51:	66 2e 0f 1f 84 00 00 	cs nopw 0x0(%rax,%rax,1)
    2a58:	00 00 00 
    2a5b:	0f 1f 44 00 00       	nopl   0x0(%rax,%rax,1)

0000000000002a60 <riscv_dsp_absmax_val_q31>:
    2a60:	f3 0f 1e fa          	endbr64 
    2a64:	85 f6                	test   %esi,%esi
    2a66:	74 69                	je     2ad1 <riscv_dsp_absmax_val_q31+0x71>
    2a68:	8b 07                	mov    (%rdi),%eax
    2a6a:	85 c0                	test   %eax,%eax
    2a6c:	7f 11                	jg     2a7f <riscv_dsp_absmax_val_q31+0x1f>
    2a6e:	89 c2                	mov    %eax,%edx
    2a70:	f7 da                	neg    %edx
    2a72:	3d 00 00 00 80       	cmp    $0x80000000,%eax
    2a77:	b8 ff ff ff 7f       	mov    $0x7fffffff,%eax
    2a7c:	0f 45 c2             	cmovne %edx,%eax
    2a7f:	48 8d 57 04          	lea    0x4(%rdi),%rdx
    2a83:	83 fe 01             	cmp    $0x1,%esi
    2a86:	74 4e                	je     2ad6 <riscv_dsp_absmax_val_q31+0x76>
    2a88:	89 f6                	mov    %esi,%esi
    2a8a:	41 b8 ff ff ff 7f    	mov    $0x7fffffff,%r8d
    2a90:	48 8d 3c b7          	lea    (%rdi,%rsi,4),%rdi
    2a94:	eb 18                	jmp    2aae <riscv_dsp_absmax_val_q31+0x4e>
    2a96:	66 2e 0f 1f 84 00 00 	cs nopw 0x0(%rax,%rax,1)
    2a9d:	00 00 00 
    2aa0:	39 c8                	cmp    %ecx,%eax
    2aa2:	0f 4c c1             	cmovl  %ecx,%eax
    2aa5:	48 83 c2 04          	add    $0x4,%rdx
    2aa9:	48 39 d7             	cmp    %rdx,%rdi
    2aac:	74 22                	je     2ad0 <riscv_dsp_absmax_val_q31+0x70>
    2aae:	8b 0a                	mov    (%rdx),%ecx
    2ab0:	85 c9                	test   %ecx,%ecx
    2ab2:	7f ec                	jg     2aa0 <riscv_dsp_absmax_val_q31+0x40>
    2ab4:	89 ce                	mov    %ecx,%esi
    2ab6:	f7 de                	neg    %esi
    2ab8:	39 f0                	cmp    %esi,%eax
    2aba:	0f 4c c6             	cmovl  %esi,%eax
    2abd:	81 f9 00 00 00 80    	cmp    $0x80000000,%ecx
    2ac3:	41 0f 44 c0          	cmove  %r8d,%eax
    2ac7:	48 83 c2 04          	add    $0x4,%rdx
    2acb:	48 39 d7             	cmp    %rdx,%rdi
    2ace:	75 de                	jne    2aae <riscv_dsp_absmax_val_q31+0x4e>
    2ad0:	c3                   	ret    
    2ad1:	b8 00 00 00 80       	mov    $0x80000000,%eax
    2ad6:	c3                   	ret    
    2ad7:	66 0f 1f 84 00 00 00 	nopw   0x0(%rax,%rax,1)
    2ade:	00 00 

0000000000002ae0 <riscv_dsp_cfft_q31>:
    2ae0:	f3 0f 1e fa          	endbr64 
    2ae4:	83 fe 0e             	cmp    $0xe,%esi
    2ae7:	77 17                	ja     2b00 <riscv_dsp_cfft_q31+0x20>
    2ae9:	b8 50 55 00 00       	mov    $0x5550,%eax
    2aee:	48 0f a3 f0          	bt     %rsi,%rax
    2af2:	73 0c                	jae    2b00 <riscv_dsp_cfft_q31+0x20>
    2af4:	e9 37 18 00 00       	jmp    4330 <riscv_dsp_cfft_rd4_q31>
    2af9:	0f 1f 80 00 00 00 00 	nopl   0x0(%rax)
    2b00:	e9 3b 00 00 00       	jmp    2b40 <riscv_dsp_cfft_rd2_q31>
    2b05:	66 2e 0f 1f 84 00 00 	cs nopw 0x0(%rax,%rax,1)
    2b0c:	00 00 00 
    2b0f:	90                   	nop

0000000000002b10 <riscv_dsp_cifft_q31>:
    2b10:	f3 0f 1e fa          	endbr64 
    2b14:	83 fe 0e             	cmp    $0xe,%esi
    2b17:	77 17                	ja     2b30 <riscv_dsp_cifft_q31+0x20>
    2b19:	b8 50 55 00 00       	mov    $0x5550,%eax
    2b1e:	48 0f a3 f0          	bt     %rsi,%rax
    2b22:	73 0c                	jae    2b30 <riscv_dsp_cifft_q31+0x20>
    2b24:	e9 57 2a 00 00       	jmp    5580 <riscv_dsp_cifft_rd4_q31>
    2b29:	0f 1f 80 00 00 00 00 	nopl   0x0(%rax)
    2b30:	e9 3b 07 00 00       	jmp    3270 <riscv_dsp_cifft_rd2_q31>
    2b35:	66 2e 0f 1f 84 00 00 	cs nopw 0x0(%rax,%rax,1)
    2b3c:	00 00 00 
    2b3f:	90                   	nop

0000000000002b40 <riscv_dsp_cfft_rd2_q31>:
    2b40:	f3 0f 1e fa          	endbr64 
    2b44:	b8 01 00 00 00       	mov    $0x1,%eax
    2b49:	89 f1                	mov    %esi,%ecx
    2b4b:	41 57                	push   %r15
    2b4d:	d3 e0                	shl    %cl,%eax
    2b4f:	41 56                	push   %r14
    2b51:	49 89 fe             	mov    %rdi,%r14
    2b54:	41 89 c3             	mov    %eax,%r11d
    2b57:	41 55                	push   %r13
    2b59:	49 c1 e3 02          	shl    $0x2,%r11
    2b5d:	41 54                	push   %r12
    2b5f:	4e 8d 2c 1f          	lea    (%rdi,%r11,1),%r13
    2b63:	55                   	push   %rbp
    2b64:	53                   	push   %rbx
    2b65:	f3 0f 7e 07          	movq   (%rdi),%xmm0
    2b69:	f3 41 0f 7e 4d 00    	movq   0x0(%r13),%xmm1
    2b6f:	66 0f 72 e0 01       	psrad  $0x1,%xmm0
    2b74:	66 0f 72 e1 01       	psrad  $0x1,%xmm1
    2b79:	66 0f 6f d0          	movdqa %xmm0,%xmm2
    2b7d:	89 44 24 f4          	mov    %eax,-0xc(%rsp)
    2b81:	48 8d 47 08          	lea    0x8(%rdi),%rax
    2b85:	66 0f fe d1          	paddd  %xmm1,%xmm2
    2b89:	66 0f fa c1          	psubd  %xmm1,%xmm0
    2b8d:	89 74 24 f0          	mov    %esi,-0x10(%rsp)
    2b91:	48 89 44 24 e0       	mov    %rax,-0x20(%rsp)
    2b96:	66 0f 72 e2 01       	psrad  $0x1,%xmm2
    2b9b:	66 0f 72 e0 01       	psrad  $0x1,%xmm0
    2ba0:	66 0f d6 17          	movq   %xmm2,(%rdi)
    2ba4:	66 41 0f d6 45 00    	movq   %xmm0,0x0(%r13)
    2baa:	49 39 c5             	cmp    %rax,%r13
    2bad:	0f 84 24 01 00 00    	je     2cd7 <riscv_dsp_cfft_rd2_q31+0x197>
    2bb3:	b9 0a 00 00 00       	mov    $0xa,%ecx
    2bb8:	48 89 c7             	mov    %rax,%rdi
    2bbb:	45 31 d2             	xor    %r10d,%r10d
    2bbe:	2b 4c 24 f0          	sub    -0x10(%rsp),%ecx
    2bc2:	48 8d 1d 7f 61 00 00 	lea    0x617f(%rip),%rbx        # 8d48 <riscv_dsp_cos_table_q31_1024+0x8>
    2bc9:	41 bc 00 01 00 00    	mov    $0x100,%r12d
    2bcf:	e9 9b 00 00 00       	jmp    2c6f <riscv_dsp_cfft_rd2_q31+0x12f>
    2bd4:	48 98                	cltq   
    2bd6:	48 63 f6             	movslq %esi,%rsi
    2bd9:	8b 14 83             	mov    (%rbx,%rax,4),%edx
    2bdc:	8b 34 b3             	mov    (%rbx,%rsi,4),%esi
    2bdf:	f3 0f 7e 0f          	movq   (%rdi),%xmm1
    2be3:	f3 42 0f 7e 04 1f    	movq   (%rdi,%r11,1),%xmm0
    2be9:	48 63 f6             	movslq %esi,%rsi
    2bec:	48 83 c7 08          	add    $0x8,%rdi
    2bf0:	48 89 f5             	mov    %rsi,%rbp
    2bf3:	66 0f 72 e1 01       	psrad  $0x1,%xmm1
    2bf8:	66 0f 72 e0 01       	psrad  $0x1,%xmm0
    2bfd:	66 0f 7e c0          	movd   %xmm0,%eax
    2c01:	66 41 0f 7e c8       	movd   %xmm1,%r8d
    2c06:	66 0f 70 d9 e5       	pshufd $0xe5,%xmm1,%xmm3
    2c0b:	66 0f 70 e0 e5       	pshufd $0xe5,%xmm0,%xmm4
    2c10:	41 29 c0             	sub    %eax,%r8d
    2c13:	66 41 0f 7e d9       	movd   %xmm3,%r9d
    2c18:	66 0f 7e e0          	movd   %xmm4,%eax
    2c1c:	41 29 c1             	sub    %eax,%r9d
    2c1f:	48 63 c2             	movslq %edx,%rax
    2c22:	66 0f fe c1          	paddd  %xmm1,%xmm0
    2c26:	4d 63 c0             	movslq %r8d,%r8
    2c29:	4d 63 c9             	movslq %r9d,%r9
    2c2c:	49 0f af f0          	imul   %r8,%rsi
    2c30:	48 89 c2             	mov    %rax,%rdx
    2c33:	49 0f af d0          	imul   %r8,%rdx
    2c37:	49 0f af e9          	imul   %r9,%rbp
    2c3b:	66 0f 72 e0 01       	psrad  $0x1,%xmm0
    2c40:	49 0f af c1          	imul   %r9,%rax
    2c44:	66 0f d6 47 f8       	movq   %xmm0,-0x8(%rdi)
    2c49:	48 01 ea             	add    %rbp,%rdx
    2c4c:	48 29 f0             	sub    %rsi,%rax
    2c4f:	48 c1 fa 20          	sar    $0x20,%rdx
    2c53:	48 c1 f8 20          	sar    $0x20,%rax
    2c57:	66 0f 6e c2          	movd   %edx,%xmm0
    2c5b:	66 0f 6e d8          	movd   %eax,%xmm3
    2c5f:	66 0f 62 c3          	punpckldq %xmm3,%xmm0
    2c63:	66 42 0f d6 44 1f f8 	movq   %xmm0,-0x8(%rdi,%r11,1)
    2c6a:	49 39 fd             	cmp    %rdi,%r13
    2c6d:	74 68                	je     2cd7 <riscv_dsp_cfft_rd2_q31+0x197>
    2c6f:	41 83 c2 01          	add    $0x1,%r10d
    2c73:	44 89 e6             	mov    %r12d,%esi
    2c76:	44 89 d0             	mov    %r10d,%eax
    2c79:	d3 e0                	shl    %cl,%eax
    2c7b:	29 c6                	sub    %eax,%esi
    2c7d:	85 f6                	test   %esi,%esi
    2c7f:	0f 8f 4f ff ff ff    	jg     2bd4 <riscv_dsp_cfft_rd2_q31+0x94>
    2c85:	8d b0 00 ff ff ff    	lea    -0x100(%rax),%esi
    2c8b:	44 89 e2             	mov    %r12d,%edx
    2c8e:	29 f2                	sub    %esi,%edx
    2c90:	85 d2                	test   %edx,%edx
    2c92:	7e 15                	jle    2ca9 <riscv_dsp_cfft_rd2_q31+0x169>
    2c94:	48 63 d2             	movslq %edx,%rdx
    2c97:	48 63 f6             	movslq %esi,%rsi
    2c9a:	8b 04 93             	mov    (%rbx,%rdx,4),%eax
    2c9d:	8b 34 b3             	mov    (%rbx,%rsi,4),%esi
    2ca0:	f7 d8                	neg    %eax
    2ca2:	89 c2                	mov    %eax,%edx
    2ca4:	e9 36 ff ff ff       	jmp    2bdf <riscv_dsp_cfft_rd2_q31+0x9f>
    2ca9:	2d 00 02 00 00       	sub    $0x200,%eax
    2cae:	45 89 e0             	mov    %r12d,%r8d
    2cb1:	41 29 c0             	sub    %eax,%r8d
    2cb4:	48 98                	cltq   
    2cb6:	8b 34 83             	mov    (%rbx,%rax,4),%esi
    2cb9:	49 63 d0             	movslq %r8d,%rdx
    2cbc:	8b 14 93             	mov    (%rbx,%rdx,4),%edx
    2cbf:	f7 de                	neg    %esi
    2cc1:	45 85 c0             	test   %r8d,%r8d
    2cc4:	0f 8e 15 ff ff ff    	jle    2bdf <riscv_dsp_cfft_rd2_q31+0x9f>
    2cca:	89 d0                	mov    %edx,%eax
    2ccc:	89 f2                	mov    %esi,%edx
    2cce:	f7 d8                	neg    %eax
    2cd0:	89 c6                	mov    %eax,%esi
    2cd2:	e9 08 ff ff ff       	jmp    2bdf <riscv_dsp_cfft_rd2_q31+0x9f>
    2cd7:	8b 44 24 f4          	mov    -0xc(%rsp),%eax
    2cdb:	8b 5c 24 f0          	mov    -0x10(%rsp),%ebx
    2cdf:	bd 02 00 00 00       	mov    $0x2,%ebp
    2ce4:	89 44 24 e8          	mov    %eax,-0x18(%rsp)
    2ce8:	89 d8                	mov    %ebx,%eax
    2cea:	83 e8 02             	sub    $0x2,%eax
    2ced:	89 44 24 ec          	mov    %eax,-0x14(%rsp)
    2cf1:	0f 84 c0 01 00 00    	je     2eb7 <riscv_dsp_cfft_rd2_q31+0x377>
    2cf7:	b8 0a 00 00 00       	mov    $0xa,%eax
    2cfc:	4c 89 74 24 d8       	mov    %r14,-0x28(%rsp)
    2d01:	4c 8d 2d 40 60 00 00 	lea    0x6040(%rip),%r13        # 8d48 <riscv_dsp_cos_table_q31_1024+0x8>
    2d08:	29 d8                	sub    %ebx,%eax
    2d0a:	89 44 24 d4          	mov    %eax,-0x2c(%rsp)
    2d0e:	66 90                	xchg   %ax,%ax
    2d10:	d1 6c 24 e8          	shrl   -0x18(%rsp)
    2d14:	44 8b 5c 24 e8       	mov    -0x18(%rsp),%r11d
    2d19:	48 8b 44 24 d8       	mov    -0x28(%rsp),%rax
    2d1e:	4e 8d 14 9d 00 00 00 	lea    0x0(,%r11,4),%r10
    2d25:	00 
    2d26:	4e 8d 34 10          	lea    (%rax,%r10,1),%r14
    2d2a:	85 ed                	test   %ebp,%ebp
    2d2c:	0f 84 8a 00 00 00    	je     2dbc <riscv_dsp_cfft_rd2_q31+0x27c>
    2d32:	4b 8d 44 12 04       	lea    0x4(%r10,%r10,1),%rax
    2d37:	4a 8d 0c dd 00 00 00 	lea    0x0(,%r11,8),%rcx
    2d3e:	00 
    2d3f:	49 39 c2             	cmp    %rax,%r10
    2d42:	0f 8e ce 04 00 00    	jle    3216 <riscv_dsp_cfft_rd2_q31+0x6d6>
    2d48:	48 83 f9 07          	cmp    $0x7,%rcx
    2d4c:	0f 97 c2             	seta   %dl
    2d4f:	4d 85 d2             	test   %r10,%r10
    2d52:	0f 95 c0             	setne  %al
    2d55:	84 c2                	test   %al,%dl
    2d57:	0f 84 b9 04 00 00    	je     3216 <riscv_dsp_cfft_rd2_q31+0x6d6>
    2d5d:	41 89 e8             	mov    %ebp,%r8d
    2d60:	4c 89 df             	mov    %r11,%rdi
    2d63:	48 8b 54 24 d8       	mov    -0x28(%rsp),%rdx
    2d68:	4c 89 f0             	mov    %r14,%rax
    2d6b:	41 d1 e8             	shr    %r8d
    2d6e:	48 c1 e7 04          	shl    $0x4,%rdi
    2d72:	31 f6                	xor    %esi,%esi
    2d74:	0f 1f 40 00          	nopl   0x0(%rax)
    2d78:	f3 0f 7e 10          	movq   (%rax),%xmm2
    2d7c:	f3 0f 7e 02          	movq   (%rdx),%xmm0
    2d80:	83 c6 01             	add    $0x1,%esi
    2d83:	0f 16 14 08          	movhps (%rax,%rcx,1),%xmm2
    2d87:	0f 16 04 0a          	movhps (%rdx,%rcx,1),%xmm0
    2d8b:	66 0f 6f ca          	movdqa %xmm2,%xmm1
    2d8f:	66 0f fe c8          	paddd  %xmm0,%xmm1
    2d93:	66 0f fa c2          	psubd  %xmm2,%xmm0
    2d97:	66 0f 72 e1 01       	psrad  $0x1,%xmm1
    2d9c:	66 0f 72 e0 01       	psrad  $0x1,%xmm0
    2da1:	66 0f d6 0a          	movq   %xmm1,(%rdx)
    2da5:	0f 17 0c 0a          	movhps %xmm1,(%rdx,%rcx,1)
    2da9:	48 01 fa             	add    %rdi,%rdx
    2dac:	66 0f d6 00          	movq   %xmm0,(%rax)
    2db0:	0f 17 04 08          	movhps %xmm0,(%rax,%rcx,1)
    2db4:	48 01 f8             	add    %rdi,%rax
    2db7:	44 39 c6             	cmp    %r8d,%esi
    2dba:	75 bc                	jne    2d78 <riscv_dsp_cfft_rd2_q31+0x238>
    2dbc:	48 8b 44 24 e0       	mov    -0x20(%rsp),%rax
    2dc1:	49 c1 e3 03          	shl    $0x3,%r11
    2dc5:	45 31 e4             	xor    %r12d,%r12d
    2dc8:	48 89 c3             	mov    %rax,%rbx
    2dcb:	4c 39 f0             	cmp    %r14,%rax
    2dce:	0f 84 d1 00 00 00    	je     2ea5 <riscv_dsp_cfft_rd2_q31+0x365>
    2dd4:	0f 1f 40 00          	nopl   0x0(%rax)
    2dd8:	0f b6 4c 24 d4       	movzbl -0x2c(%rsp),%ecx
    2ddd:	41 01 ec             	add    %ebp,%r12d
    2de0:	ba 00 01 00 00       	mov    $0x100,%edx
    2de5:	44 89 e0             	mov    %r12d,%eax
    2de8:	d3 e0                	shl    %cl,%eax
    2dea:	29 c2                	sub    %eax,%edx
    2dec:	85 d2                	test   %edx,%edx
    2dee:	0f 8e bc 03 00 00    	jle    31b0 <riscv_dsp_cfft_rd2_q31+0x670>
    2df4:	48 98                	cltq   
    2df6:	48 63 d2             	movslq %edx,%rdx
    2df9:	45 8b 44 85 00       	mov    0x0(%r13,%rax,4),%r8d
    2dfe:	45 8b 4c 95 00       	mov    0x0(%r13,%rdx,4),%r9d
    2e03:	85 ed                	test   %ebp,%ebp
    2e05:	0f 84 8d 00 00 00    	je     2e98 <riscv_dsp_cfft_rd2_q31+0x358>
    2e0b:	4d 63 c0             	movslq %r8d,%r8
    2e0e:	4d 63 c9             	movslq %r9d,%r9
    2e11:	48 89 de             	mov    %rbx,%rsi
    2e14:	89 ef                	mov    %ebp,%edi
    2e16:	66 2e 0f 1f 84 00 00 	cs nopw 0x0(%rax,%rax,1)
    2e1d:	00 00 00 
    2e20:	f3 0f 7e 0e          	movq   (%rsi),%xmm1
    2e24:	f3 42 0f 7e 04 16    	movq   (%rsi,%r10,1),%xmm0
    2e2a:	66 0f 7e ca          	movd   %xmm1,%edx
    2e2e:	66 0f 7e c0          	movd   %xmm0,%eax
    2e32:	66 0f 70 f0 e5       	pshufd $0xe5,%xmm0,%xmm6
    2e37:	66 0f 70 e9 e5       	pshufd $0xe5,%xmm1,%xmm5
    2e3c:	29 c2                	sub    %eax,%edx
    2e3e:	66 0f 7e f1          	movd   %xmm6,%ecx
    2e42:	66 0f 7e e8          	movd   %xmm5,%eax
    2e46:	29 c8                	sub    %ecx,%eax
    2e48:	48 63 d2             	movslq %edx,%rdx
    2e4b:	66 0f fe c1          	paddd  %xmm1,%xmm0
    2e4f:	48 98                	cltq   
    2e51:	48 89 d1             	mov    %rdx,%rcx
    2e54:	49 89 c7             	mov    %rax,%r15
    2e57:	49 0f af c8          	imul   %r8,%rcx
    2e5b:	4d 0f af f9          	imul   %r9,%r15
    2e5f:	66 0f 72 e0 01       	psrad  $0x1,%xmm0
    2e64:	49 0f af c0          	imul   %r8,%rax
    2e68:	66 0f d6 06          	movq   %xmm0,(%rsi)
    2e6c:	49 0f af d1          	imul   %r9,%rdx
    2e70:	4c 01 f9             	add    %r15,%rcx
    2e73:	48 c1 f9 20          	sar    $0x20,%rcx
    2e77:	48 29 d0             	sub    %rdx,%rax
    2e7a:	66 0f 6e c1          	movd   %ecx,%xmm0
    2e7e:	48 c1 f8 20          	sar    $0x20,%rax
    2e82:	66 0f 6e f8          	movd   %eax,%xmm7
    2e86:	66 0f 62 c7          	punpckldq %xmm7,%xmm0
    2e8a:	66 42 0f d6 04 16    	movq   %xmm0,(%rsi,%r10,1)
    2e90:	4c 01 de             	add    %r11,%rsi
    2e93:	83 ef 01             	sub    $0x1,%edi
    2e96:	75 88                	jne    2e20 <riscv_dsp_cfft_rd2_q31+0x2e0>
    2e98:	48 83 c3 08          	add    $0x8,%rbx
    2e9c:	49 39 de             	cmp    %rbx,%r14
    2e9f:	0f 85 33 ff ff ff    	jne    2dd8 <riscv_dsp_cfft_rd2_q31+0x298>
    2ea5:	01 ed                	add    %ebp,%ebp
    2ea7:	83 6c 24 ec 01       	subl   $0x1,-0x14(%rsp)
    2eac:	0f 85 5e fe ff ff    	jne    2d10 <riscv_dsp_cfft_rd2_q31+0x1d0>
    2eb2:	4c 8b 74 24 d8       	mov    -0x28(%rsp),%r14
    2eb7:	0f b6 4c 24 f0       	movzbl -0x10(%rsp),%ecx
    2ebc:	b8 02 00 00 00       	mov    $0x2,%eax
    2ec1:	d3 e0                	shl    %cl,%eax
    2ec3:	48 8d 34 85 00 00 00 	lea    0x0(,%rax,4),%rsi
    2eca:	00 
    2ecb:	49 8d 14 36          	lea    (%r14,%rsi,1),%rdx
    2ecf:	49 39 d6             	cmp    %rdx,%r14
    2ed2:	0f 84 7d 00 00 00    	je     2f55 <riscv_dsp_cfft_rd2_q31+0x415>
    2ed8:	4c 29 f2             	sub    %r14,%rdx
    2edb:	4c 89 f0             	mov    %r14,%rax
    2ede:	48 8d 4a e0          	lea    -0x20(%rdx),%rcx
    2ee2:	31 d2                	xor    %edx,%edx
    2ee4:	48 c1 e9 05          	shr    $0x5,%rcx
    2ee8:	48 83 c1 01          	add    $0x1,%rcx
    2eec:	0f 1f 40 00          	nopl   0x0(%rax)
    2ef0:	f3 0f 6f 10          	movdqu (%rax),%xmm2
    2ef4:	f3 0f 6f 20          	movdqu (%rax),%xmm4
    2ef8:	48 83 c2 01          	add    $0x1,%rdx
    2efc:	48 83 c0 20          	add    $0x20,%rax
    2f00:	f3 0f 6f 68 f0       	movdqu -0x10(%rax),%xmm5
    2f05:	f3 0f 6f 58 f0       	movdqu -0x10(%rax),%xmm3
    2f0a:	66 0f 70 d2 ee       	pshufd $0xee,%xmm2,%xmm2
    2f0f:	66 0f 70 e4 44       	pshufd $0x44,%xmm4,%xmm4
    2f14:	66 0f 6f c2          	movdqa %xmm2,%xmm0
    2f18:	66 0f 70 cd ee       	pshufd $0xee,%xmm5,%xmm1
    2f1d:	66 0f 70 db 44       	pshufd $0x44,%xmm3,%xmm3
    2f22:	66 0f fe c4          	paddd  %xmm4,%xmm0
    2f26:	66 0f fa e2          	psubd  %xmm2,%xmm4
    2f2a:	0f c6 c4 e4          	shufps $0xe4,%xmm4,%xmm0
    2f2e:	66 0f 72 e0 01       	psrad  $0x1,%xmm0
    2f33:	0f 11 40 e0          	movups %xmm0,-0x20(%rax)
    2f37:	66 0f 6f c1          	movdqa %xmm1,%xmm0
    2f3b:	66 0f fe c3          	paddd  %xmm3,%xmm0
    2f3f:	66 0f fa d9          	psubd  %xmm1,%xmm3
    2f43:	0f c6 c3 e4          	shufps $0xe4,%xmm3,%xmm0
    2f47:	66 0f 72 e0 01       	psrad  $0x1,%xmm0
    2f4c:	0f 11 40 f0          	movups %xmm0,-0x10(%rax)
    2f50:	48 39 ca             	cmp    %rcx,%rdx
    2f53:	72 9b                	jb     2ef0 <riscv_dsp_cfft_rd2_q31+0x3b0>
    2f55:	8b 44 24 f4          	mov    -0xc(%rsp),%eax
    2f59:	41 8b 4e 08          	mov    0x8(%r14),%ecx
    2f5d:	49 8d 7c 36 fc       	lea    -0x4(%r14,%rsi,1),%rdi
    2f62:	89 c3                	mov    %eax,%ebx
    2f64:	d1 eb                	shr    %ebx
    2f66:	41 89 d9             	mov    %ebx,%r9d
    2f69:	89 c3                	mov    %eax,%ebx
    2f6b:	83 e0 fe             	and    $0xfffffffe,%eax
    2f6e:	89 c2                	mov    %eax,%edx
    2f70:	83 c0 01             	add    $0x1,%eax
    2f73:	49 8d 14 96          	lea    (%r14,%rdx,4),%rdx
    2f77:	49 8d 04 86          	lea    (%r14,%rax,4),%rax
    2f7b:	8b 32                	mov    (%rdx),%esi
    2f7d:	41 89 76 08          	mov    %esi,0x8(%r14)
    2f81:	89 0a                	mov    %ecx,(%rdx)
    2f83:	8b 08                	mov    (%rax),%ecx
    2f85:	41 8b 56 0c          	mov    0xc(%r14),%edx
    2f89:	41 89 4e 0c          	mov    %ecx,0xc(%r14)
    2f8d:	b9 04 00 00 00       	mov    $0x4,%ecx
    2f92:	89 10                	mov    %edx,(%rax)
    2f94:	89 d8                	mov    %ebx,%eax
    2f96:	c1 eb 02             	shr    $0x2,%ebx
    2f99:	ba 04 00 00 00       	mov    $0x4,%edx
    2f9e:	41 89 da             	mov    %ebx,%r10d
    2fa1:	44 89 cb             	mov    %r9d,%ebx
    2fa4:	41 89 c3             	mov    %eax,%r11d
    2fa7:	44 89 c8             	mov    %r9d,%eax
    2faa:	44 31 d3             	xor    %r10d,%ebx
    2fad:	41 c1 eb 03          	shr    $0x3,%r11d
    2fb1:	89 dd                	mov    %ebx,%ebp
    2fb3:	44 31 dd             	xor    %r11d,%ebp
    2fb6:	66 2e 0f 1f 84 00 00 	cs nopw 0x0(%rax,%rax,1)
    2fbd:	00 00 00 
    2fc0:	31 d8                	xor    %ebx,%eax
    2fc2:	41 85 c2             	test   %eax,%r10d
    2fc5:	75 11                	jne    2fd8 <riscv_dsp_cfft_rd2_q31+0x498>
    2fc7:	44 89 d6             	mov    %r10d,%esi
    2fca:	66 0f 1f 44 00 00    	nopw   0x0(%rax,%rax,1)
    2fd0:	d1 ee                	shr    %esi
    2fd2:	31 f0                	xor    %esi,%eax
    2fd4:	85 c6                	test   %eax,%esi
    2fd6:	74 f8                	je     2fd0 <riscv_dsp_cfft_rd2_q31+0x490>
    2fd8:	8d 71 fe             	lea    -0x2(%rcx),%esi
    2fdb:	39 f0                	cmp    %esi,%eax
    2fdd:	0f 86 8c 00 00 00    	jbe    306f <riscv_dsp_cfft_rd2_q31+0x52f>
    2fe3:	89 d6                	mov    %edx,%esi
    2fe5:	44 8d 04 00          	lea    (%rax,%rax,1),%r8d
    2fe9:	4d 8d 24 b6          	lea    (%r14,%rsi,4),%r12
    2fed:	4c 89 c6             	mov    %r8,%rsi
    2ff0:	4f 8d 04 86          	lea    (%r14,%r8,4),%r8
    2ff4:	45 8b 2c 24          	mov    (%r12),%r13d
    2ff8:	45 8b 38             	mov    (%r8),%r15d
    2ffb:	83 c6 01             	add    $0x1,%esi
    2ffe:	49 8d 34 b6          	lea    (%r14,%rsi,4),%rsi
    3002:	45 89 3c 24          	mov    %r15d,(%r12)
    3006:	45 89 28             	mov    %r13d,(%r8)
    3009:	44 8d 42 01          	lea    0x1(%rdx),%r8d
    300d:	44 8b 2e             	mov    (%rsi),%r13d
    3010:	4f 8d 04 86          	lea    (%r14,%r8,4),%r8
    3014:	45 8b 20             	mov    (%r8),%r12d
    3017:	45 89 28             	mov    %r13d,(%r8)
    301a:	41 89 d0             	mov    %edx,%r8d
    301d:	41 f7 d8             	neg    %r8d
    3020:	44 89 26             	mov    %r12d,(%rsi)
    3023:	89 c6                	mov    %eax,%esi
    3025:	4d 63 c0             	movslq %r8d,%r8
    3028:	f7 de                	neg    %esi
    302a:	49 c1 e0 02          	shl    $0x2,%r8
    302e:	01 f6                	add    %esi,%esi
    3030:	4e 8d 2c 07          	lea    (%rdi,%r8,1),%r13
    3034:	4e 8d 44 07 fc       	lea    -0x4(%rdi,%r8,1),%r8
    3039:	48 63 f6             	movslq %esi,%rsi
    303c:	45 8b 7d 00          	mov    0x0(%r13),%r15d
    3040:	48 c1 e6 02          	shl    $0x2,%rsi
    3044:	4c 8d 24 37          	lea    (%rdi,%rsi,1),%r12
    3048:	44 89 7c 24 d4       	mov    %r15d,-0x2c(%rsp)
    304d:	48 8d 74 37 fc       	lea    -0x4(%rdi,%rsi,1),%rsi
    3052:	45 8b 3c 24          	mov    (%r12),%r15d
    3056:	45 89 7d 00          	mov    %r15d,0x0(%r13)
    305a:	44 8b 7c 24 d4       	mov    -0x2c(%rsp),%r15d
    305f:	45 89 3c 24          	mov    %r15d,(%r12)
    3063:	45 8b 20             	mov    (%r8),%r12d
    3066:	44 8b 2e             	mov    (%rsi),%r13d
    3069:	45 89 28             	mov    %r13d,(%r8)
    306c:	44 89 26             	mov    %r12d,(%rsi)
    306f:	44 01 c8             	add    %r9d,%eax
    3072:	8d 72 02             	lea    0x2(%rdx),%esi
    3075:	44 8d 04 00          	lea    (%rax,%rax,1),%r8d
    3079:	4d 8d 24 b6          	lea    (%r14,%rsi,4),%r12
    307d:	4c 89 c6             	mov    %r8,%rsi
    3080:	4f 8d 04 86          	lea    (%r14,%r8,4),%r8
    3084:	45 8b 2c 24          	mov    (%r12),%r13d
    3088:	45 8b 38             	mov    (%r8),%r15d
    308b:	83 c6 01             	add    $0x1,%esi
    308e:	49 8d 34 b6          	lea    (%r14,%rsi,4),%rsi
    3092:	45 89 3c 24          	mov    %r15d,(%r12)
    3096:	45 89 28             	mov    %r13d,(%r8)
    3099:	44 8d 42 03          	lea    0x3(%rdx),%r8d
    309d:	44 8b 2e             	mov    (%rsi),%r13d
    30a0:	4f 8d 04 86          	lea    (%r14,%r8,4),%r8
    30a4:	45 8b 20             	mov    (%r8),%r12d
    30a7:	45 89 28             	mov    %r13d,(%r8)
    30aa:	44 89 26             	mov    %r12d,(%rsi)
    30ad:	44 39 c9             	cmp    %r9d,%ecx
    30b0:	0f 83 a1 01 00 00    	jae    3257 <riscv_dsp_cfft_rd2_q31+0x717>
    30b6:	31 e8                	xor    %ebp,%eax
    30b8:	41 85 c3             	test   %eax,%r11d
    30bb:	75 0b                	jne    30c8 <riscv_dsp_cfft_rd2_q31+0x588>
    30bd:	44 89 de             	mov    %r11d,%esi
    30c0:	d1 ee                	shr    %esi
    30c2:	31 f0                	xor    %esi,%eax
    30c4:	85 c6                	test   %eax,%esi
    30c6:	74 f8                	je     30c0 <riscv_dsp_cfft_rd2_q31+0x580>
    30c8:	39 c1                	cmp    %eax,%ecx
    30ca:	0f 83 90 00 00 00    	jae    3160 <riscv_dsp_cfft_rd2_q31+0x620>
    30d0:	8d 72 04             	lea    0x4(%rdx),%esi
    30d3:	44 8d 04 00          	lea    (%rax,%rax,1),%r8d
    30d7:	4d 8d 24 b6          	lea    (%r14,%rsi,4),%r12
    30db:	4c 89 c6             	mov    %r8,%rsi
    30de:	4f 8d 04 86          	lea    (%r14,%r8,4),%r8
    30e2:	45 8b 2c 24          	mov    (%r12),%r13d
    30e6:	45 8b 38             	mov    (%r8),%r15d
    30e9:	83 c6 01             	add    $0x1,%esi
    30ec:	49 8d 34 b6          	lea    (%r14,%rsi,4),%rsi
    30f0:	45 89 3c 24          	mov    %r15d,(%r12)
    30f4:	45 89 28             	mov    %r13d,(%r8)
    30f7:	44 8d 42 05          	lea    0x5(%rdx),%r8d
    30fb:	44 8b 2e             	mov    (%rsi),%r13d
    30fe:	4f 8d 04 86          	lea    (%r14,%r8,4),%r8
    3102:	45 8b 20             	mov    (%r8),%r12d
    3105:	45 89 28             	mov    %r13d,(%r8)
    3108:	41 b8 fc ff ff ff    	mov    $0xfffffffc,%r8d
    310e:	41 29 d0             	sub    %edx,%r8d
    3111:	44 89 26             	mov    %r12d,(%rsi)
    3114:	89 c6                	mov    %eax,%esi
    3116:	4d 63 c0             	movslq %r8d,%r8
    3119:	f7 de                	neg    %esi
    311b:	49 c1 e0 02          	shl    $0x2,%r8
    311f:	01 f6                	add    %esi,%esi
    3121:	4e 8d 2c 07          	lea    (%rdi,%r8,1),%r13
    3125:	4e 8d 44 07 fc       	lea    -0x4(%rdi,%r8,1),%r8
    312a:	48 63 f6             	movslq %esi,%rsi
    312d:	45 8b 7d 00          	mov    0x0(%r13),%r15d
    3131:	48 c1 e6 02          	shl    $0x2,%rsi
    3135:	4c 8d 24 37          	lea    (%rdi,%rsi,1),%r12
    3139:	44 89 7c 24 d4       	mov    %r15d,-0x2c(%rsp)
    313e:	48 8d 74 37 fc       	lea    -0x4(%rdi,%rsi,1),%rsi
    3143:	45 8b 3c 24          	mov    (%r12),%r15d
    3147:	45 89 7d 00          	mov    %r15d,0x0(%r13)
    314b:	44 8b 7c 24 d4       	mov    -0x2c(%rsp),%r15d
    3150:	45 89 3c 24          	mov    %r15d,(%r12)
    3154:	45 8b 20             	mov    (%r8),%r12d
    3157:	44 8b 2e             	mov    (%rsi),%r13d
    315a:	45 89 28             	mov    %r13d,(%r8)
    315d:	44 89 26             	mov    %r12d,(%rsi)
    3160:	44 01 c8             	add    %r9d,%eax
    3163:	8d 72 06             	lea    0x6(%rdx),%esi
    3166:	83 c1 04             	add    $0x4,%ecx
    3169:	44 8d 04 00          	lea    (%rax,%rax,1),%r8d
    316d:	4d 8d 24 b6          	lea    (%r14,%rsi,4),%r12
    3171:	4c 89 c6             	mov    %r8,%rsi
    3174:	4f 8d 04 86          	lea    (%r14,%r8,4),%r8
    3178:	45 8b 2c 24          	mov    (%r12),%r13d
    317c:	45 8b 38             	mov    (%r8),%r15d
    317f:	83 c6 01             	add    $0x1,%esi
    3182:	49 8d 34 b6          	lea    (%r14,%rsi,4),%rsi
    3186:	45 89 3c 24          	mov    %r15d,(%r12)
    318a:	45 89 28             	mov    %r13d,(%r8)
    318d:	44 8d 42 07          	lea    0x7(%rdx),%r8d
    3191:	44 8b 2e             	mov    (%rsi),%r13d
    3194:	83 c2 08             	add    $0x8,%edx
    3197:	4f 8d 04 86          	lea    (%r14,%r8,4),%r8
    319b:	45 8b 20             	mov    (%r8),%r12d
    319e:	45 89 28             	mov    %r13d,(%r8)
    31a1:	44 89 26             	mov    %r12d,(%rsi)
    31a4:	e9 17 fe ff ff       	jmp    2fc0 <riscv_dsp_cfft_rd2_q31+0x480>
    31a9:	0f 1f 80 00 00 00 00 	nopl   0x0(%rax)
    31b0:	8d 90 00 ff ff ff    	lea    -0x100(%rax),%edx
    31b6:	b9 00 01 00 00       	mov    $0x100,%ecx
    31bb:	29 d1                	sub    %edx,%ecx
    31bd:	85 c9                	test   %ecx,%ecx
    31bf:	7e 1f                	jle    31e0 <riscv_dsp_cfft_rd2_q31+0x6a0>
    31c1:	48 63 c9             	movslq %ecx,%rcx
    31c4:	48 63 d2             	movslq %edx,%rdx
    31c7:	45 8b 44 8d 00       	mov    0x0(%r13,%rcx,4),%r8d
    31cc:	45 8b 4c 95 00       	mov    0x0(%r13,%rdx,4),%r9d
    31d1:	41 f7 d8             	neg    %r8d
    31d4:	e9 2a fc ff ff       	jmp    2e03 <riscv_dsp_cfft_rd2_q31+0x2c3>
    31d9:	0f 1f 80 00 00 00 00 	nopl   0x0(%rax)
    31e0:	2d 00 02 00 00       	sub    $0x200,%eax
    31e5:	ba 00 01 00 00       	mov    $0x100,%edx
    31ea:	29 c2                	sub    %eax,%edx
    31ec:	48 98                	cltq   
    31ee:	45 8b 4c 85 00       	mov    0x0(%r13,%rax,4),%r9d
    31f3:	48 63 ca             	movslq %edx,%rcx
    31f6:	45 8b 44 8d 00       	mov    0x0(%r13,%rcx,4),%r8d
    31fb:	41 f7 d9             	neg    %r9d
    31fe:	85 d2                	test   %edx,%edx
    3200:	0f 8e fd fb ff ff    	jle    2e03 <riscv_dsp_cfft_rd2_q31+0x2c3>
    3206:	44 89 c0             	mov    %r8d,%eax
    3209:	45 89 c8             	mov    %r9d,%r8d
    320c:	f7 d8                	neg    %eax
    320e:	41 89 c1             	mov    %eax,%r9d
    3211:	e9 ed fb ff ff       	jmp    2e03 <riscv_dsp_cfft_rd2_q31+0x2c3>
    3216:	48 8b 44 24 d8       	mov    -0x28(%rsp),%rax
    321b:	89 ea                	mov    %ebp,%edx
    321d:	0f 1f 00             	nopl   (%rax)
    3220:	f3 42 0f 7e 14 10    	movq   (%rax,%r10,1),%xmm2
    3226:	f3 0f 7e 00          	movq   (%rax),%xmm0
    322a:	66 0f 6f ca          	movdqa %xmm2,%xmm1
    322e:	66 0f fe c8          	paddd  %xmm0,%xmm1
    3232:	66 0f fa c2          	psubd  %xmm2,%xmm0
    3236:	66 0f 72 e1 01       	psrad  $0x1,%xmm1
    323b:	66 0f 72 e0 01       	psrad  $0x1,%xmm0
    3240:	66 0f d6 08          	movq   %xmm1,(%rax)
    3244:	66 42 0f d6 04 10    	movq   %xmm0,(%rax,%r10,1)
    324a:	48 01 c8             	add    %rcx,%rax
    324d:	83 ea 01             	sub    $0x1,%edx
    3250:	75 ce                	jne    3220 <riscv_dsp_cfft_rd2_q31+0x6e0>
    3252:	e9 65 fb ff ff       	jmp    2dbc <riscv_dsp_cfft_rd2_q31+0x27c>
    3257:	5b                   	pop    %rbx
    3258:	31 c0                	xor    %eax,%eax
    325a:	5d                   	pop    %rbp
    325b:	41 5c                	pop    %r12
    325d:	41 5d                	pop    %r13
    325f:	41 5e                	pop    %r14
    3261:	41 5f                	pop    %r15
    3263:	c3                   	ret    
    3264:	66 2e 0f 1f 84 00 00 	cs nopw 0x0(%rax,%rax,1)
    326b:	00 00 00 
    326e:	66 90                	xchg   %ax,%ax

0000000000003270 <riscv_dsp_cifft_rd2_q31>:
    3270:	f3 0f 1e fa          	endbr64 
    3274:	89 f1                	mov    %esi,%ecx
    3276:	b8 01 00 00 00       	mov    $0x1,%eax
    327b:	41 57                	push   %r15
    327d:	d3 e0                	shl    %cl,%eax
    327f:	41 56                	push   %r14
    3281:	49 89 fe             	mov    %rdi,%r14
    3284:	41 89 c2             	mov    %eax,%r10d
    3287:	41 55                	push   %r13
    3289:	49 c1 e2 02          	shl    $0x2,%r10
    328d:	41 54                	push   %r12
    328f:	4e 8d 24 17          	lea    (%rdi,%r10,1),%r12
    3293:	55                   	push   %rbp
    3294:	53                   	push   %rbx
    3295:	41 8b 54 24 04       	mov    0x4(%r12),%edx
    329a:	89 d1                	mov    %edx,%ecx
    329c:	89 74 24 f0          	mov    %esi,-0x10(%rsp)
    32a0:	8b 77 04             	mov    0x4(%rdi),%esi
    32a3:	f7 d9                	neg    %ecx
    32a5:	89 44 24 f4          	mov    %eax,-0xc(%rsp)
    32a9:	8b 07                	mov    (%rdi),%eax
    32ab:	41 8b 3c 24          	mov    (%r12),%edi
    32af:	29 f1                	sub    %esi,%ecx
    32b1:	29 f2                	sub    %esi,%edx
    32b3:	66 0f 6e e1          	movd   %ecx,%xmm4
    32b7:	8d 1c 38             	lea    (%rax,%rdi,1),%ebx
    32ba:	29 f8                	sub    %edi,%eax
    32bc:	66 0f 6e c3          	movd   %ebx,%xmm0
    32c0:	66 0f 62 c4          	punpckldq %xmm4,%xmm0
    32c4:	66 0f 6e e2          	movd   %edx,%xmm4
    32c8:	66 41 0f d6 06       	movq   %xmm0,(%r14)
    32cd:	66 0f 6e c0          	movd   %eax,%xmm0
    32d1:	49 8d 46 08          	lea    0x8(%r14),%rax
    32d5:	66 0f 62 c4          	punpckldq %xmm4,%xmm0
    32d9:	48 89 44 24 e0       	mov    %rax,-0x20(%rsp)
    32de:	66 41 0f d6 04 24    	movq   %xmm0,(%r12)
    32e4:	49 39 c4             	cmp    %rax,%r12
    32e7:	0f 84 10 01 00 00    	je     33fd <riscv_dsp_cifft_rd2_q31+0x18d>
    32ed:	b9 0a 00 00 00       	mov    $0xa,%ecx
    32f2:	48 89 c2             	mov    %rax,%rdx
    32f5:	2b 4c 24 f0          	sub    -0x10(%rsp),%ecx
    32f9:	45 31 db             	xor    %r11d,%r11d
    32fc:	48 8d 1d 45 5a 00 00 	lea    0x5a45(%rip),%rbx        # 8d48 <riscv_dsp_cos_table_q31_1024+0x8>
    3303:	bd 00 01 00 00       	mov    $0x100,%ebp
    3308:	e9 8a 00 00 00       	jmp    3397 <riscv_dsp_cifft_rd2_q31+0x127>
    330d:	48 98                	cltq   
    330f:	48 63 f6             	movslq %esi,%rsi
    3312:	8b 04 83             	mov    (%rbx,%rax,4),%eax
    3315:	8b 3c b3             	mov    (%rbx,%rsi,4),%edi
    3318:	8b 32                	mov    (%rdx),%esi
    331a:	46 8b 6c 12 04       	mov    0x4(%rdx,%r10,1),%r13d
    331f:	48 98                	cltq   
    3321:	48 63 ff             	movslq %edi,%rdi
    3324:	48 83 c2 08          	add    $0x8,%rdx
    3328:	41 89 f0             	mov    %esi,%r8d
    332b:	45 89 e9             	mov    %r13d,%r9d
    332e:	42 03 74 12 f8       	add    -0x8(%rdx,%r10,1),%esi
    3333:	46 2b 44 12 f8       	sub    -0x8(%rdx,%r10,1),%r8d
    3338:	44 2b 4a fc          	sub    -0x4(%rdx),%r9d
    333c:	41 f7 dd             	neg    %r13d
    333f:	44 2b 6a fc          	sub    -0x4(%rdx),%r13d
    3343:	4d 63 c0             	movslq %r8d,%r8
    3346:	66 41 0f 6e e5       	movd   %r13d,%xmm4
    334b:	4d 63 c9             	movslq %r9d,%r9
    334e:	66 0f 6e c6          	movd   %esi,%xmm0
    3352:	49 89 fd             	mov    %rdi,%r13
    3355:	48 89 c6             	mov    %rax,%rsi
    3358:	4d 0f af e9          	imul   %r9,%r13
    335c:	66 0f 62 c4          	punpckldq %xmm4,%xmm0
    3360:	49 0f af f0          	imul   %r8,%rsi
    3364:	66 0f d6 42 f8       	movq   %xmm0,-0x8(%rdx)
    3369:	49 0f af c1          	imul   %r9,%rax
    336d:	49 0f af f8          	imul   %r8,%rdi
    3371:	4c 01 ee             	add    %r13,%rsi
    3374:	48 c1 fe 1f          	sar    $0x1f,%rsi
    3378:	48 29 f8             	sub    %rdi,%rax
    337b:	66 0f 6e c6          	movd   %esi,%xmm0
    337f:	48 c1 f8 1f          	sar    $0x1f,%rax
    3383:	66 0f 6e e0          	movd   %eax,%xmm4
    3387:	66 0f 62 c4          	punpckldq %xmm4,%xmm0
    338b:	66 42 0f d6 44 12 f8 	movq   %xmm0,-0x8(%rdx,%r10,1)
    3392:	49 39 d4             	cmp    %rdx,%r12
    3395:	74 66                	je     33fd <riscv_dsp_cifft_rd2_q31+0x18d>
    3397:	41 83 c3 01          	add    $0x1,%r11d
    339b:	89 ee                	mov    %ebp,%esi
    339d:	44 89 d8             	mov    %r11d,%eax
    33a0:	d3 e0                	shl    %cl,%eax
    33a2:	29 c6                	sub    %eax,%esi
    33a4:	85 f6                	test   %esi,%esi
    33a6:	0f 8f 61 ff ff ff    	jg     330d <riscv_dsp_cifft_rd2_q31+0x9d>
    33ac:	8d b0 00 ff ff ff    	lea    -0x100(%rax),%esi
    33b2:	89 ef                	mov    %ebp,%edi
    33b4:	29 f7                	sub    %esi,%edi
    33b6:	85 ff                	test   %edi,%edi
    33b8:	7e 13                	jle    33cd <riscv_dsp_cifft_rd2_q31+0x15d>
    33ba:	48 63 ff             	movslq %edi,%rdi
    33bd:	48 63 f6             	movslq %esi,%rsi
    33c0:	8b 04 bb             	mov    (%rbx,%rdi,4),%eax
    33c3:	8b 3c b3             	mov    (%rbx,%rsi,4),%edi
    33c6:	f7 d8                	neg    %eax
    33c8:	e9 4b ff ff ff       	jmp    3318 <riscv_dsp_cifft_rd2_q31+0xa8>
    33cd:	8d b0 00 fe ff ff    	lea    -0x200(%rax),%esi
    33d3:	41 89 e8             	mov    %ebp,%r8d
    33d6:	41 29 f0             	sub    %esi,%r8d
    33d9:	48 63 f6             	movslq %esi,%rsi
    33dc:	8b 3c b3             	mov    (%rbx,%rsi,4),%edi
    33df:	49 63 c0             	movslq %r8d,%rax
    33e2:	8b 04 83             	mov    (%rbx,%rax,4),%eax
    33e5:	f7 df                	neg    %edi
    33e7:	45 85 c0             	test   %r8d,%r8d
    33ea:	0f 8e 28 ff ff ff    	jle    3318 <riscv_dsp_cifft_rd2_q31+0xa8>
    33f0:	f7 d8                	neg    %eax
    33f2:	89 c6                	mov    %eax,%esi
    33f4:	89 f8                	mov    %edi,%eax
    33f6:	89 f7                	mov    %esi,%edi
    33f8:	e9 1b ff ff ff       	jmp    3318 <riscv_dsp_cifft_rd2_q31+0xa8>
    33fd:	8b 44 24 f4          	mov    -0xc(%rsp),%eax
    3401:	8b 5c 24 f0          	mov    -0x10(%rsp),%ebx
    3405:	bd 02 00 00 00       	mov    $0x2,%ebp
    340a:	89 44 24 e8          	mov    %eax,-0x18(%rsp)
    340e:	89 d8                	mov    %ebx,%eax
    3410:	83 e8 02             	sub    $0x2,%eax
    3413:	89 44 24 ec          	mov    %eax,-0x14(%rsp)
    3417:	0f 84 b5 01 00 00    	je     35d2 <riscv_dsp_cifft_rd2_q31+0x362>
    341d:	b8 0a 00 00 00       	mov    $0xa,%eax
    3422:	4c 89 74 24 d8       	mov    %r14,-0x28(%rsp)
    3427:	4c 8d 2d 1a 59 00 00 	lea    0x591a(%rip),%r13        # 8d48 <riscv_dsp_cos_table_q31_1024+0x8>
    342e:	29 d8                	sub    %ebx,%eax
    3430:	89 44 24 c8          	mov    %eax,-0x38(%rsp)
    3434:	0f 1f 40 00          	nopl   0x0(%rax)
    3438:	d1 6c 24 e8          	shrl   -0x18(%rsp)
    343c:	44 8b 5c 24 e8       	mov    -0x18(%rsp),%r11d
    3441:	48 8b 44 24 d8       	mov    -0x28(%rsp),%rax
    3446:	4e 8d 14 9d 00 00 00 	lea    0x0(,%r11,4),%r10
    344d:	00 
    344e:	4e 8d 34 10          	lea    (%rax,%r10,1),%r14
    3452:	85 ed                	test   %ebp,%ebp
    3454:	0f 84 80 00 00 00    	je     34da <riscv_dsp_cifft_rd2_q31+0x26a>
    345a:	4d 85 d2             	test   %r10,%r10
    345d:	4a 8d 0c dd 00 00 00 	lea    0x0(,%r11,8),%rcx
    3464:	00 
    3465:	0f 95 c2             	setne  %dl
    3468:	48 83 f9 07          	cmp    $0x7,%rcx
    346c:	0f 97 c0             	seta   %al
    346f:	84 c2                	test   %al,%dl
    3471:	0f 84 70 0e 00 00    	je     42e7 <riscv_dsp_cifft_rd2_q31+0x1077>
    3477:	4b 8d 44 12 04       	lea    0x4(%r10,%r10,1),%rax
    347c:	4c 39 d0             	cmp    %r10,%rax
    347f:	0f 8d 62 0e 00 00    	jge    42e7 <riscv_dsp_cifft_rd2_q31+0x1077>
    3485:	41 89 e8             	mov    %ebp,%r8d
    3488:	4c 89 df             	mov    %r11,%rdi
    348b:	48 8b 54 24 d8       	mov    -0x28(%rsp),%rdx
    3490:	4c 89 f0             	mov    %r14,%rax
    3493:	41 d1 e8             	shr    %r8d
    3496:	48 c1 e7 04          	shl    $0x4,%rdi
    349a:	31 f6                	xor    %esi,%esi
    349c:	0f 1f 40 00          	nopl   0x0(%rax)
    34a0:	f3 0f 7e 02          	movq   (%rdx),%xmm0
    34a4:	f3 0f 7e 08          	movq   (%rax),%xmm1
    34a8:	83 c6 01             	add    $0x1,%esi
    34ab:	0f 16 04 0a          	movhps (%rdx,%rcx,1),%xmm0
    34af:	0f 16 0c 08          	movhps (%rax,%rcx,1),%xmm1
    34b3:	66 0f 6f d0          	movdqa %xmm0,%xmm2
    34b7:	66 0f fa c1          	psubd  %xmm1,%xmm0
    34bb:	66 0f fe d1          	paddd  %xmm1,%xmm2
    34bf:	66 0f d6 12          	movq   %xmm2,(%rdx)
    34c3:	0f 17 14 0a          	movhps %xmm2,(%rdx,%rcx,1)
    34c7:	48 01 fa             	add    %rdi,%rdx
    34ca:	66 0f d6 00          	movq   %xmm0,(%rax)
    34ce:	0f 17 04 08          	movhps %xmm0,(%rax,%rcx,1)
    34d2:	48 01 f8             	add    %rdi,%rax
    34d5:	44 39 c6             	cmp    %r8d,%esi
    34d8:	75 c6                	jne    34a0 <riscv_dsp_cifft_rd2_q31+0x230>
    34da:	48 8b 44 24 e0       	mov    -0x20(%rsp),%rax
    34df:	49 c1 e3 03          	shl    $0x3,%r11
    34e3:	45 31 e4             	xor    %r12d,%r12d
    34e6:	48 89 c3             	mov    %rax,%rbx
    34e9:	4c 39 f0             	cmp    %r14,%rax
    34ec:	0f 84 ce 00 00 00    	je     35c0 <riscv_dsp_cifft_rd2_q31+0x350>
    34f2:	66 0f 1f 44 00 00    	nopw   0x0(%rax,%rax,1)
    34f8:	0f b6 4c 24 c8       	movzbl -0x38(%rsp),%ecx
    34fd:	41 01 ec             	add    %ebp,%r12d
    3500:	ba 00 01 00 00       	mov    $0x100,%edx
    3505:	44 89 e0             	mov    %r12d,%eax
    3508:	d3 e0                	shl    %cl,%eax
    350a:	29 c2                	sub    %eax,%edx
    350c:	85 d2                	test   %edx,%edx
    350e:	0f 8e 8c 0c 00 00    	jle    41a0 <riscv_dsp_cifft_rd2_q31+0xf30>
    3514:	48 98                	cltq   
    3516:	48 63 d2             	movslq %edx,%rdx
    3519:	45 8b 44 85 00       	mov    0x0(%r13,%rax,4),%r8d
    351e:	45 8b 4c 95 00       	mov    0x0(%r13,%rdx,4),%r9d
    3523:	85 ed                	test   %ebp,%ebp
    3525:	0f 84 88 00 00 00    	je     35b3 <riscv_dsp_cifft_rd2_q31+0x343>
    352b:	4d 63 c0             	movslq %r8d,%r8
    352e:	4d 63 c9             	movslq %r9d,%r9
    3531:	48 89 de             	mov    %rbx,%rsi
    3534:	89 ef                	mov    %ebp,%edi
    3536:	66 2e 0f 1f 84 00 00 	cs nopw 0x0(%rax,%rax,1)
    353d:	00 00 00 
    3540:	f3 0f 7e 0e          	movq   (%rsi),%xmm1
    3544:	f3 42 0f 7e 04 16    	movq   (%rsi,%r10,1),%xmm0
    354a:	66 0f 7e ca          	movd   %xmm1,%edx
    354e:	66 0f 7e c0          	movd   %xmm0,%eax
    3552:	66 0f 70 e8 e5       	pshufd $0xe5,%xmm0,%xmm5
    3557:	66 0f 70 f1 e5       	pshufd $0xe5,%xmm1,%xmm6
    355c:	29 c2                	sub    %eax,%edx
    355e:	66 0f 7e e9          	movd   %xmm5,%ecx
    3562:	66 0f 7e f0          	movd   %xmm6,%eax
    3566:	29 c8                	sub    %ecx,%eax
    3568:	48 63 d2             	movslq %edx,%rdx
    356b:	66 0f fe c1          	paddd  %xmm1,%xmm0
    356f:	48 98                	cltq   
    3571:	48 89 d1             	mov    %rdx,%rcx
    3574:	49 89 c7             	mov    %rax,%r15
    3577:	49 0f af c8          	imul   %r8,%rcx
    357b:	4d 0f af f9          	imul   %r9,%r15
    357f:	66 0f d6 06          	movq   %xmm0,(%rsi)
    3583:	49 0f af c0          	imul   %r8,%rax
    3587:	49 0f af d1          	imul   %r9,%rdx
    358b:	4c 01 f9             	add    %r15,%rcx
    358e:	48 c1 f9 1f          	sar    $0x1f,%rcx
    3592:	48 29 d0             	sub    %rdx,%rax
    3595:	66 0f 6e c1          	movd   %ecx,%xmm0
    3599:	48 c1 f8 1f          	sar    $0x1f,%rax
    359d:	66 0f 6e d8          	movd   %eax,%xmm3
    35a1:	66 0f 62 c3          	punpckldq %xmm3,%xmm0
    35a5:	66 42 0f d6 04 16    	movq   %xmm0,(%rsi,%r10,1)
    35ab:	4c 01 de             	add    %r11,%rsi
    35ae:	83 ef 01             	sub    $0x1,%edi
    35b1:	75 8d                	jne    3540 <riscv_dsp_cifft_rd2_q31+0x2d0>
    35b3:	48 83 c3 08          	add    $0x8,%rbx
    35b7:	49 39 de             	cmp    %rbx,%r14
    35ba:	0f 85 38 ff ff ff    	jne    34f8 <riscv_dsp_cifft_rd2_q31+0x288>
    35c0:	01 ed                	add    %ebp,%ebp
    35c2:	83 6c 24 ec 01       	subl   $0x1,-0x14(%rsp)
    35c7:	0f 85 6b fe ff ff    	jne    3438 <riscv_dsp_cifft_rd2_q31+0x1c8>
    35cd:	4c 8b 74 24 d8       	mov    -0x28(%rsp),%r14
    35d2:	0f b6 4c 24 f0       	movzbl -0x10(%rsp),%ecx
    35d7:	b8 02 00 00 00       	mov    $0x2,%eax
    35dc:	d3 e0                	shl    %cl,%eax
    35de:	48 8d 1c 85 00 00 00 	lea    0x0(,%rax,4),%rbx
    35e5:	00 
    35e6:	4d 8d 14 1e          	lea    (%r14,%rbx,1),%r10
    35ea:	4d 39 d6             	cmp    %r10,%r14
    35ed:	0f 84 4d 09 00 00    	je     3f40 <riscv_dsp_cifft_rd2_q31+0xcd0>
    35f3:	4c 89 d2             	mov    %r10,%rdx
    35f6:	4c 89 f0             	mov    %r14,%rax
    35f9:	4c 29 f2             	sub    %r14,%rdx
    35fc:	48 83 ea 20          	sub    $0x20,%rdx
    3600:	48 89 d1             	mov    %rdx,%rcx
    3603:	48 c1 e9 05          	shr    $0x5,%rcx
    3607:	48 83 c1 01          	add    $0x1,%rcx
    360b:	48 83 fa 40          	cmp    $0x40,%rdx
    360f:	0f 86 ed 06 00 00    	jbe    3d02 <riscv_dsp_cifft_rd2_q31+0xa92>
    3615:	66 44 0f 6f 2d d2 4e 	movdqa 0x4ed2(%rip),%xmm13        # 84f0 <_IO_stdin_used+0x4f0>
    361c:	00 00 
    361e:	48 89 ca             	mov    %rcx,%rdx
    3621:	48 c1 ea 02          	shr    $0x2,%rdx
    3625:	48 c1 e2 07          	shl    $0x7,%rdx
    3629:	4c 01 f2             	add    %r14,%rdx
    362c:	f3 0f 6f 00          	movdqu (%rax),%xmm0
    3630:	f3 0f 6f 78 10       	movdqu 0x10(%rax),%xmm7
    3635:	66 45 0f ef ff       	pxor   %xmm15,%xmm15
    363a:	48 83 e8 80          	sub    $0xffffffffffffff80,%rax
    363e:	f3 0f 6f 60 a0       	movdqu -0x60(%rax),%xmm4
    3643:	f3 0f 6f 48 c0       	movdqu -0x40(%rax),%xmm1
    3648:	66 45 0f 6f e7       	movdqa %xmm15,%xmm12
    364d:	66 0f 6f d8          	movdqa %xmm0,%xmm3
    3651:	0f c6 c7 dd          	shufps $0xdd,%xmm7,%xmm0
    3655:	f3 0f 6f 70 d0       	movdqu -0x30(%rax),%xmm6
    365a:	f3 0f 6f 50 e0       	movdqu -0x20(%rax),%xmm2
    365f:	0f c6 df 88          	shufps $0x88,%xmm7,%xmm3
    3663:	f3 0f 6f 78 b0       	movdqu -0x50(%rax),%xmm7
    3668:	66 44 0f 6f c4       	movdqa %xmm4,%xmm8
    366d:	66 0f 6f ea          	movdqa %xmm2,%xmm5
    3671:	44 0f c6 c7 88       	shufps $0x88,%xmm7,%xmm8
    3676:	0f c6 e7 dd          	shufps $0xdd,%xmm7,%xmm4
    367a:	66 0f 6f f9          	movdqa %xmm1,%xmm7
    367e:	0f c6 ce dd          	shufps $0xdd,%xmm6,%xmm1
    3682:	0f c6 fe 88          	shufps $0x88,%xmm6,%xmm7
    3686:	f3 0f 6f 70 f0       	movdqu -0x10(%rax),%xmm6
    368b:	0f c6 ee 88          	shufps $0x88,%xmm6,%xmm5
    368f:	0f c6 d6 dd          	shufps $0xdd,%xmm6,%xmm2
    3693:	66 0f 6f f3          	movdqa %xmm3,%xmm6
    3697:	41 0f c6 d8 dd       	shufps $0xdd,%xmm8,%xmm3
    369c:	41 0f c6 f0 88       	shufps $0x88,%xmm8,%xmm6
    36a1:	66 44 0f 6f c7       	movdqa %xmm7,%xmm8
    36a6:	0f c6 fd dd          	shufps $0xdd,%xmm5,%xmm7
    36aa:	66 44 0f 6f ce       	movdqa %xmm6,%xmm9
    36af:	44 0f c6 c5 88       	shufps $0x88,%xmm5,%xmm8
    36b4:	66 0f 6f e8          	movdqa %xmm0,%xmm5
    36b8:	0f c6 c4 dd          	shufps $0xdd,%xmm4,%xmm0
    36bc:	45 0f c6 c8 88       	shufps $0x88,%xmm8,%xmm9
    36c1:	0f c6 ec 88          	shufps $0x88,%xmm4,%xmm5
    36c5:	66 0f 6f e1          	movdqa %xmm1,%xmm4
    36c9:	41 0f c6 f0 dd       	shufps $0xdd,%xmm8,%xmm6
    36ce:	0f c6 ca dd          	shufps $0xdd,%xmm2,%xmm1
    36d2:	0f c6 e2 88          	shufps $0x88,%xmm2,%xmm4
    36d6:	66 44 0f 6f c5       	movdqa %xmm5,%xmm8
    36db:	66 44 0f 6f d3       	movdqa %xmm3,%xmm10
    36e0:	66 0f 6f 15 18 4e 00 	movdqa 0x4e18(%rip),%xmm2        # 8500 <_IO_stdin_used+0x500>
    36e7:	00 
    36e8:	44 0f c6 c4 88       	shufps $0x88,%xmm4,%xmm8
    36ed:	0f c6 ec dd          	shufps $0xdd,%xmm4,%xmm5
    36f1:	44 0f c6 d7 88       	shufps $0x88,%xmm7,%xmm10
    36f6:	0f c6 df dd          	shufps $0xdd,%xmm7,%xmm3
    36fa:	66 41 0f 6f e5       	movdqa %xmm13,%xmm4
    36ff:	66 0f 6f f8          	movdqa %xmm0,%xmm7
    3703:	66 45 0f 6f f2       	movdqa %xmm10,%xmm14
    3708:	0f c6 c1 dd          	shufps $0xdd,%xmm1,%xmm0
    370c:	0f c6 f9 88          	shufps $0x88,%xmm1,%xmm7
    3710:	66 41 0f fa e2       	psubd  %xmm10,%xmm4
    3715:	66 41 0f fa d2       	psubd  %xmm10,%xmm2
    371a:	66 41 0f 6f c9       	movdqa %xmm9,%xmm1
    371f:	66 45 0f 66 f7       	pcmpgtd %xmm15,%xmm14
    3724:	66 45 0f 66 e2       	pcmpgtd %xmm10,%xmm12
    3729:	66 45 0f 6f d9       	movdqa %xmm9,%xmm11
    372e:	66 41 0f 66 d1       	pcmpgtd %xmm9,%xmm2
    3733:	66 0f 66 cc          	pcmpgtd %xmm4,%xmm1
    3737:	66 41 0f 6f e2       	movdqa %xmm10,%xmm4
    373c:	66 41 0f 72 e3 1f    	psrad  $0x1f,%xmm11
    3742:	66 41 0f fe e1       	paddd  %xmm9,%xmm4
    3747:	66 45 0f ef dd       	pxor   %xmm13,%xmm11
    374c:	44 0f 29 74 24 c8    	movaps %xmm14,-0x38(%rsp)
    3752:	66 41 0f db ce       	pand   %xmm14,%xmm1
    3757:	66 41 0f db d4       	pand   %xmm12,%xmm2
    375c:	66 0f eb d1          	por    %xmm1,%xmm2
    3760:	66 41 0f 6f cb       	movdqa %xmm11,%xmm1
    3765:	66 0f db ca          	pand   %xmm2,%xmm1
    3769:	66 0f df d4          	pandn  %xmm4,%xmm2
    376d:	66 0f 6f 25 8b 4d 00 	movdqa 0x4d8b(%rip),%xmm4        # 8500 <_IO_stdin_used+0x500>
    3774:	00 
    3775:	66 0f eb d1          	por    %xmm1,%xmm2
    3779:	66 41 0f 6f cf       	movdqa %xmm15,%xmm1
    377e:	66 0f fa e7          	psubd  %xmm7,%xmm4
    3782:	66 0f 66 cf          	pcmpgtd %xmm7,%xmm1
    3786:	66 41 0f 66 e0       	pcmpgtd %xmm8,%xmm4
    378b:	66 0f db e1          	pand   %xmm1,%xmm4
    378f:	66 41 0f 6f cd       	movdqa %xmm13,%xmm1
    3794:	66 0f fa cf          	psubd  %xmm7,%xmm1
    3798:	66 44 0f 6f f1       	movdqa %xmm1,%xmm14
    379d:	66 41 0f 6f c8       	movdqa %xmm8,%xmm1
    37a2:	66 41 0f 66 ce       	pcmpgtd %xmm14,%xmm1
    37a7:	66 44 0f 6f f7       	movdqa %xmm7,%xmm14
    37ac:	66 45 0f 66 f7       	pcmpgtd %xmm15,%xmm14
    37b1:	66 44 0f 6f ff       	movdqa %xmm7,%xmm15
    37b6:	66 45 0f fe f8       	paddd  %xmm8,%xmm15
    37bb:	66 41 0f db ce       	pand   %xmm14,%xmm1
    37c0:	66 0f eb e1          	por    %xmm1,%xmm4
    37c4:	66 41 0f 6f c8       	movdqa %xmm8,%xmm1
    37c9:	66 0f 72 e1 1f       	psrad  $0x1f,%xmm1
    37ce:	66 41 0f ef cd       	pxor   %xmm13,%xmm1
    37d3:	66 0f db cc          	pand   %xmm4,%xmm1
    37d7:	66 41 0f df e7       	pandn  %xmm15,%xmm4
    37dc:	66 44 0f 6f fa       	movdqa %xmm2,%xmm15
    37e1:	66 0f eb e1          	por    %xmm1,%xmm4
    37e5:	66 41 0f 72 e7 1f    	psrad  $0x1f,%xmm15
    37eb:	66 0f 6f ca          	movdqa %xmm2,%xmm1
    37ef:	66 0f 72 f1 01       	pslld  $0x1,%xmm1
    37f4:	66 45 0f ef fd       	pxor   %xmm13,%xmm15
    37f9:	66 44 0f 6f f1       	movdqa %xmm1,%xmm14
    37fe:	66 0f 72 e1 01       	psrad  $0x1,%xmm1
    3803:	66 0f 76 ca          	pcmpeqd %xmm2,%xmm1
    3807:	66 0f 6f d4          	movdqa %xmm4,%xmm2
    380b:	66 0f 72 f2 01       	pslld  $0x1,%xmm2
    3810:	66 44 0f db f1       	pand   %xmm1,%xmm14
    3815:	66 41 0f df cf       	pandn  %xmm15,%xmm1
    381a:	66 44 0f 6f fc       	movdqa %xmm4,%xmm15
    381f:	66 41 0f eb ce       	por    %xmm14,%xmm1
    3824:	66 41 0f 72 e7 1f    	psrad  $0x1f,%xmm15
    382a:	66 44 0f 6f f2       	movdqa %xmm2,%xmm14
    382f:	66 0f 72 e2 01       	psrad  $0x1,%xmm2
    3834:	66 45 0f ef fd       	pxor   %xmm13,%xmm15
    3839:	66 0f 76 d4          	pcmpeqd %xmm4,%xmm2
    383d:	66 0f ef e4          	pxor   %xmm4,%xmm4
    3841:	66 44 0f db f2       	pand   %xmm2,%xmm14
    3846:	66 41 0f df d7       	pandn  %xmm15,%xmm2
    384b:	66 41 0f eb d6       	por    %xmm14,%xmm2
    3850:	66 0f fa e2          	psubd  %xmm2,%xmm4
    3854:	66 41 0f 6f d2       	movdqa %xmm10,%xmm2
    3859:	66 44 0f 6f fc       	movdqa %xmm4,%xmm15
    385e:	66 41 0f fe d5       	paddd  %xmm13,%xmm2
    3863:	66 41 0f 6f e1       	movdqa %xmm9,%xmm4
    3868:	66 0f 66 e2          	pcmpgtd %xmm2,%xmm4
    386c:	66 0f 6f 15 8c 4c 00 	movdqa 0x4c8c(%rip),%xmm2        # 8500 <_IO_stdin_used+0x500>
    3873:	00 
    3874:	66 41 0f fe d2       	paddd  %xmm10,%xmm2
    3879:	66 41 0f 66 d1       	pcmpgtd %xmm9,%xmm2
    387e:	66 0f db 54 24 c8    	pand   -0x38(%rsp),%xmm2
    3884:	66 41 0f db e4       	pand   %xmm12,%xmm4
    3889:	66 45 0f fa ca       	psubd  %xmm10,%xmm9
    388e:	66 45 0f ef e4       	pxor   %xmm12,%xmm12
    3893:	66 45 0f 6f d0       	movdqa %xmm8,%xmm10
    3898:	66 0f eb e2          	por    %xmm2,%xmm4
    389c:	66 0f 6f d7          	movdqa %xmm7,%xmm2
    38a0:	66 45 0f 6f f4       	movdqa %xmm12,%xmm14
    38a5:	66 45 0f 66 d4       	pcmpgtd %xmm12,%xmm10
    38aa:	66 44 0f 66 f3       	pcmpgtd %xmm3,%xmm14
    38af:	66 44 0f db dc       	pand   %xmm4,%xmm11
    38b4:	66 41 0f df e1       	pandn  %xmm9,%xmm4
    38b9:	66 45 0f 6f c8       	movdqa %xmm8,%xmm9
    38be:	66 45 0f fe cd       	paddd  %xmm13,%xmm9
    38c3:	66 41 0f eb e3       	por    %xmm11,%xmm4
    38c8:	66 44 0f 6f db       	movdqa %xmm3,%xmm11
    38cd:	66 41 0f 66 d1       	pcmpgtd %xmm9,%xmm2
    38d2:	66 45 0f ef c9       	pxor   %xmm9,%xmm9
    38d7:	44 0f 29 74 24 c8    	movaps %xmm14,-0x38(%rsp)
    38dd:	66 45 0f 66 c8       	pcmpgtd %xmm8,%xmm9
    38e2:	66 45 0f 66 dc       	pcmpgtd %xmm12,%xmm11
    38e7:	66 41 0f db d1       	pand   %xmm9,%xmm2
    38ec:	66 44 0f 6f 0d 0b 4c 	movdqa 0x4c0b(%rip),%xmm9        # 8500 <_IO_stdin_used+0x500>
    38f3:	00 00 
    38f5:	66 45 0f fe c8       	paddd  %xmm8,%xmm9
    38fa:	66 44 0f 66 cf       	pcmpgtd %xmm7,%xmm9
    38ff:	66 45 0f db ca       	pand   %xmm10,%xmm9
    3904:	66 44 0f 6f d6       	movdqa %xmm6,%xmm10
    3909:	66 41 0f eb d1       	por    %xmm9,%xmm2
    390e:	66 41 0f 72 e2 1f    	psrad  $0x1f,%xmm10
    3914:	66 44 0f 6f cf       	movdqa %xmm7,%xmm9
    3919:	66 41 0f 72 e1 1f    	psrad  $0x1f,%xmm9
    391f:	66 41 0f fa f8       	psubd  %xmm8,%xmm7
    3924:	66 45 0f ef d5       	pxor   %xmm13,%xmm10
    3929:	66 45 0f ef cd       	pxor   %xmm13,%xmm9
    392e:	66 45 0f 6f c1       	movdqa %xmm9,%xmm8
    3933:	66 44 0f db c2       	pand   %xmm2,%xmm8
    3938:	66 0f df d7          	pandn  %xmm7,%xmm2
    393c:	66 0f 6f fc          	movdqa %xmm4,%xmm7
    3940:	66 0f 72 f7 01       	pslld  $0x1,%xmm7
    3945:	66 41 0f eb d0       	por    %xmm8,%xmm2
    394a:	66 44 0f 6f c4       	movdqa %xmm4,%xmm8
    394f:	66 44 0f 6f cf       	movdqa %xmm7,%xmm9
    3954:	66 41 0f 72 e0 1f    	psrad  $0x1f,%xmm8
    395a:	66 41 0f 72 e1 01    	psrad  $0x1,%xmm9
    3960:	66 45 0f ef c5       	pxor   %xmm13,%xmm8
    3965:	66 41 0f 76 e1       	pcmpeqd %xmm9,%xmm4
    396a:	66 0f db fc          	pand   %xmm4,%xmm7
    396e:	66 41 0f df e0       	pandn  %xmm8,%xmm4
    3973:	66 44 0f 6f c2       	movdqa %xmm2,%xmm8
    3978:	66 0f eb e7          	por    %xmm7,%xmm4
    397c:	66 41 0f 72 e0 1f    	psrad  $0x1f,%xmm8
    3982:	66 0f 6f fa          	movdqa %xmm2,%xmm7
    3986:	66 0f 72 f7 01       	pslld  $0x1,%xmm7
    398b:	66 45 0f ef c5       	pxor   %xmm13,%xmm8
    3990:	66 44 0f 6f cf       	movdqa %xmm7,%xmm9
    3995:	66 41 0f 72 e1 01    	psrad  $0x1,%xmm9
    399b:	66 41 0f 76 d1       	pcmpeqd %xmm9,%xmm2
    39a0:	66 44 0f 6f cb       	movdqa %xmm3,%xmm9
    39a5:	66 44 0f fe ce       	paddd  %xmm6,%xmm9
    39aa:	66 0f db fa          	pand   %xmm2,%xmm7
    39ae:	66 41 0f df d0       	pandn  %xmm8,%xmm2
    39b3:	66 44 0f 6f c6       	movdqa %xmm6,%xmm8
    39b8:	66 0f eb d7          	por    %xmm7,%xmm2
    39bc:	66 41 0f 6f fd       	movdqa %xmm13,%xmm7
    39c1:	66 0f fa fb          	psubd  %xmm3,%xmm7
    39c5:	66 44 0f 66 c7       	pcmpgtd %xmm7,%xmm8
    39ca:	66 0f 6f 3d 2e 4b 00 	movdqa 0x4b2e(%rip),%xmm7        # 8500 <_IO_stdin_used+0x500>
    39d1:	00 
    39d2:	66 0f fa fb          	psubd  %xmm3,%xmm7
    39d6:	66 0f 66 fe          	pcmpgtd %xmm6,%xmm7
    39da:	66 45 0f db c3       	pand   %xmm11,%xmm8
    39df:	66 41 0f db fe       	pand   %xmm14,%xmm7
    39e4:	66 44 0f eb c7       	por    %xmm7,%xmm8
    39e9:	66 41 0f 6f fa       	movdqa %xmm10,%xmm7
    39ee:	66 41 0f db f8       	pand   %xmm8,%xmm7
    39f3:	66 45 0f df c1       	pandn  %xmm9,%xmm8
    39f8:	66 44 0f 6f cd       	movdqa %xmm5,%xmm9
    39fd:	66 44 0f eb c7       	por    %xmm7,%xmm8
    3a02:	66 41 0f 6f fd       	movdqa %xmm13,%xmm7
    3a07:	66 0f fa f8          	psubd  %xmm0,%xmm7
    3a0b:	66 45 0f 6f f0       	movdqa %xmm8,%xmm14
    3a10:	66 44 0f 66 cf       	pcmpgtd %xmm7,%xmm9
    3a15:	66 41 0f 72 e6 1f    	psrad  $0x1f,%xmm14
    3a1b:	66 0f 6f f8          	movdqa %xmm0,%xmm7
    3a1f:	66 41 0f 66 fc       	pcmpgtd %xmm12,%xmm7
    3a24:	66 44 0f 66 e0       	pcmpgtd %xmm0,%xmm12
    3a29:	66 45 0f ef f5       	pxor   %xmm13,%xmm14
    3a2e:	66 44 0f db cf       	pand   %xmm7,%xmm9
    3a33:	66 0f 6f 3d c5 4a 00 	movdqa 0x4ac5(%rip),%xmm7        # 8500 <_IO_stdin_used+0x500>
    3a3a:	00 
    3a3b:	66 0f fa f8          	psubd  %xmm0,%xmm7
    3a3f:	66 0f 66 fd          	pcmpgtd %xmm5,%xmm7
    3a43:	66 41 0f db fc       	pand   %xmm12,%xmm7
    3a48:	66 44 0f 6f e0       	movdqa %xmm0,%xmm12
    3a4d:	66 41 0f eb f9       	por    %xmm9,%xmm7
    3a52:	66 44 0f 6f cd       	movdqa %xmm5,%xmm9
    3a57:	66 44 0f fe e5       	paddd  %xmm5,%xmm12
    3a5c:	66 41 0f 72 e1 1f    	psrad  $0x1f,%xmm9
    3a62:	66 45 0f ef cd       	pxor   %xmm13,%xmm9
    3a67:	66 44 0f db cf       	pand   %xmm7,%xmm9
    3a6c:	66 41 0f df fc       	pandn  %xmm12,%xmm7
    3a71:	66 41 0f eb f9       	por    %xmm9,%xmm7
    3a76:	66 45 0f 6f c8       	movdqa %xmm8,%xmm9
    3a7b:	66 41 0f 72 f1 01    	pslld  $0x1,%xmm9
    3a81:	66 45 0f 6f e1       	movdqa %xmm9,%xmm12
    3a86:	66 41 0f 72 e1 01    	psrad  $0x1,%xmm9
    3a8c:	66 45 0f 76 c8       	pcmpeqd %xmm8,%xmm9
    3a91:	66 45 0f db e1       	pand   %xmm9,%xmm12
    3a96:	66 45 0f df ce       	pandn  %xmm14,%xmm9
    3a9b:	66 44 0f 6f f7       	movdqa %xmm7,%xmm14
    3aa0:	66 45 0f 6f c1       	movdqa %xmm9,%xmm8
    3aa5:	66 41 0f 72 e6 1f    	psrad  $0x1f,%xmm14
    3aab:	66 44 0f 6f cf       	movdqa %xmm7,%xmm9
    3ab0:	66 41 0f 72 f1 01    	pslld  $0x1,%xmm9
    3ab6:	66 45 0f eb c4       	por    %xmm12,%xmm8
    3abb:	66 45 0f ef f5       	pxor   %xmm13,%xmm14
    3ac0:	66 45 0f 6f e1       	movdqa %xmm9,%xmm12
    3ac5:	66 41 0f 72 e1 01    	psrad  $0x1,%xmm9
    3acb:	66 44 0f 76 cf       	pcmpeqd %xmm7,%xmm9
    3ad0:	66 0f ef ff          	pxor   %xmm7,%xmm7
    3ad4:	66 45 0f db e1       	pand   %xmm9,%xmm12
    3ad9:	66 45 0f df ce       	pandn  %xmm14,%xmm9
    3ade:	66 45 0f eb cc       	por    %xmm12,%xmm9
    3ae3:	66 41 0f fa f9       	psubd  %xmm9,%xmm7
    3ae8:	66 44 0f 6f 0d 0f 4a 	movdqa 0x4a0f(%rip),%xmm9        # 8500 <_IO_stdin_used+0x500>
    3aef:	00 00 
    3af1:	66 44 0f fe cb       	paddd  %xmm3,%xmm9
    3af6:	66 44 0f 66 ce       	pcmpgtd %xmm6,%xmm9
    3afb:	66 45 0f db cb       	pand   %xmm11,%xmm9
    3b00:	66 44 0f 6f db       	movdqa %xmm3,%xmm11
    3b05:	66 45 0f fe dd       	paddd  %xmm13,%xmm11
    3b0a:	66 45 0f 6f e3       	movdqa %xmm11,%xmm12
    3b0f:	66 44 0f 6f de       	movdqa %xmm6,%xmm11
    3b14:	66 0f fa f3          	psubd  %xmm3,%xmm6
    3b18:	66 45 0f 66 dc       	pcmpgtd %xmm12,%xmm11
    3b1d:	66 44 0f db 5c 24 c8 	pand   -0x38(%rsp),%xmm11
    3b24:	66 0f 6f dd          	movdqa %xmm5,%xmm3
    3b28:	66 45 0f ef e4       	pxor   %xmm12,%xmm12
    3b2d:	66 45 0f eb cb       	por    %xmm11,%xmm9
    3b32:	66 41 0f 66 dc       	pcmpgtd %xmm12,%xmm3
    3b37:	66 45 0f db d1       	pand   %xmm9,%xmm10
    3b3c:	66 44 0f df ce       	pandn  %xmm6,%xmm9
    3b41:	66 0f 6f 35 b7 49 00 	movdqa 0x49b7(%rip),%xmm6        # 8500 <_IO_stdin_used+0x500>
    3b48:	00 
    3b49:	66 45 0f eb d1       	por    %xmm9,%xmm10
    3b4e:	66 44 0f 6f cd       	movdqa %xmm5,%xmm9
    3b53:	66 0f fe f5          	paddd  %xmm5,%xmm6
    3b57:	66 45 0f fe cd       	paddd  %xmm13,%xmm9
    3b5c:	66 0f 66 f0          	pcmpgtd %xmm0,%xmm6
    3b60:	66 0f db f3          	pand   %xmm3,%xmm6
    3b64:	66 0f 6f d8          	movdqa %xmm0,%xmm3
    3b68:	66 41 0f 66 d9       	pcmpgtd %xmm9,%xmm3
    3b6d:	66 45 0f 6f cc       	movdqa %xmm12,%xmm9
    3b72:	66 44 0f 66 cd       	pcmpgtd %xmm5,%xmm9
    3b77:	66 41 0f db d9       	pand   %xmm9,%xmm3
    3b7c:	66 44 0f 6f c8       	movdqa %xmm0,%xmm9
    3b81:	66 41 0f 72 e1 1f    	psrad  $0x1f,%xmm9
    3b87:	66 0f eb f3          	por    %xmm3,%xmm6
    3b8b:	66 0f 6f d8          	movdqa %xmm0,%xmm3
    3b8f:	66 45 0f ef cd       	pxor   %xmm13,%xmm9
    3b94:	66 0f fa dd          	psubd  %xmm5,%xmm3
    3b98:	66 41 0f 6f e9       	movdqa %xmm9,%xmm5
    3b9d:	66 44 0f 6f ca       	movdqa %xmm2,%xmm9
    3ba2:	66 0f db ee          	pand   %xmm6,%xmm5
    3ba6:	66 0f df f3          	pandn  %xmm3,%xmm6
    3baa:	66 41 0f 6f da       	movdqa %xmm10,%xmm3
    3baf:	66 0f 72 f3 01       	pslld  $0x1,%xmm3
    3bb4:	66 0f 6f c6          	movdqa %xmm6,%xmm0
    3bb8:	66 0f 6f f3          	movdqa %xmm3,%xmm6
    3bbc:	66 0f eb c5          	por    %xmm5,%xmm0
    3bc0:	66 41 0f 6f ea       	movdqa %xmm10,%xmm5
    3bc5:	66 0f 72 e6 01       	psrad  $0x1,%xmm6
    3bca:	66 0f 72 e5 1f       	psrad  $0x1f,%xmm5
    3bcf:	66 44 0f 76 d6       	pcmpeqd %xmm6,%xmm10
    3bd4:	66 41 0f ef ed       	pxor   %xmm13,%xmm5
    3bd9:	66 41 0f db da       	pand   %xmm10,%xmm3
    3bde:	66 44 0f df d5       	pandn  %xmm5,%xmm10
    3be3:	66 0f 6f e8          	movdqa %xmm0,%xmm5
    3be7:	66 44 0f eb d3       	por    %xmm3,%xmm10
    3bec:	66 0f 72 e5 1f       	psrad  $0x1f,%xmm5
    3bf1:	66 0f 6f d8          	movdqa %xmm0,%xmm3
    3bf5:	66 0f 72 f3 01       	pslld  $0x1,%xmm3
    3bfa:	66 41 0f ef ed       	pxor   %xmm13,%xmm5
    3bff:	66 0f 6f f3          	movdqa %xmm3,%xmm6
    3c03:	66 0f 72 e6 01       	psrad  $0x1,%xmm6
    3c08:	66 0f 76 c6          	pcmpeqd %xmm6,%xmm0
    3c0c:	66 41 0f 6f f7       	movdqa %xmm15,%xmm6
    3c11:	66 44 0f 6a ff       	punpckhdq %xmm7,%xmm15
    3c16:	66 0f 62 f7          	punpckldq %xmm7,%xmm6
    3c1a:	66 0f 6f fc          	movdqa %xmm4,%xmm7
    3c1e:	66 41 0f 6a e2       	punpckhdq %xmm10,%xmm4
    3c23:	66 41 0f 62 fa       	punpckldq %xmm10,%xmm7
    3c28:	66 0f db d8          	pand   %xmm0,%xmm3
    3c2c:	66 0f df c5          	pandn  %xmm5,%xmm0
    3c30:	66 0f 6f e9          	movdqa %xmm1,%xmm5
    3c34:	66 0f eb c3          	por    %xmm3,%xmm0
    3c38:	66 41 0f 62 e8       	punpckldq %xmm8,%xmm5
    3c3d:	66 41 0f 6a c8       	punpckhdq %xmm8,%xmm1
    3c42:	66 0f 6a d0          	punpckhdq %xmm0,%xmm2
    3c46:	66 0f 6f dd          	movdqa %xmm5,%xmm3
    3c4a:	66 44 0f 62 c8       	punpckldq %xmm0,%xmm9
    3c4f:	66 44 0f 6f c2       	movdqa %xmm2,%xmm8
    3c54:	66 0f 6f d5          	movdqa %xmm5,%xmm2
    3c58:	66 0f 62 df          	punpckldq %xmm7,%xmm3
    3c5c:	66 0f 6a d7          	punpckhdq %xmm7,%xmm2
    3c60:	66 0f 6f fe          	movdqa %xmm6,%xmm7
    3c64:	66 41 0f 6a f1       	punpckhdq %xmm9,%xmm6
    3c69:	66 41 0f 62 f9       	punpckldq %xmm9,%xmm7
    3c6e:	66 0f 6f c6          	movdqa %xmm6,%xmm0
    3c72:	66 0f 6f e9          	movdqa %xmm1,%xmm5
    3c76:	66 0f 6f f3          	movdqa %xmm3,%xmm6
    3c7a:	66 0f 6a df          	punpckhdq %xmm7,%xmm3
    3c7e:	66 0f 62 ec          	punpckldq %xmm4,%xmm5
    3c82:	66 0f 6a cc          	punpckhdq %xmm4,%xmm1
    3c86:	0f 11 58 90          	movups %xmm3,-0x70(%rax)
    3c8a:	66 0f 6f da          	movdqa %xmm2,%xmm3
    3c8e:	66 0f 6a d0          	punpckhdq %xmm0,%xmm2
    3c92:	66 41 0f 6f e7       	movdqa %xmm15,%xmm4
    3c97:	66 0f 62 d8          	punpckldq %xmm0,%xmm3
    3c9b:	66 0f 6f c5          	movdqa %xmm5,%xmm0
    3c9f:	0f 11 50 b0          	movups %xmm2,-0x50(%rax)
    3ca3:	66 41 0f 62 e0       	punpckldq %xmm8,%xmm4
    3ca8:	66 45 0f 6a f8       	punpckhdq %xmm8,%xmm15
    3cad:	66 0f 62 f7          	punpckldq %xmm7,%xmm6
    3cb1:	0f 11 58 a0          	movups %xmm3,-0x60(%rax)
    3cb5:	66 0f 62 c4          	punpckldq %xmm4,%xmm0
    3cb9:	66 0f 6a ec          	punpckhdq %xmm4,%xmm5
    3cbd:	0f 11 70 80          	movups %xmm6,-0x80(%rax)
    3cc1:	0f 11 40 c0          	movups %xmm0,-0x40(%rax)
    3cc5:	66 0f 6f c1          	movdqa %xmm1,%xmm0
    3cc9:	66 41 0f 6a cf       	punpckhdq %xmm15,%xmm1
    3cce:	66 41 0f 62 c7       	punpckldq %xmm15,%xmm0
    3cd3:	0f 11 68 d0          	movups %xmm5,-0x30(%rax)
    3cd7:	0f 11 40 e0          	movups %xmm0,-0x20(%rax)
    3cdb:	0f 11 48 f0          	movups %xmm1,-0x10(%rax)
    3cdf:	48 39 d0             	cmp    %rdx,%rax
    3ce2:	0f 85 44 f9 ff ff    	jne    362c <riscv_dsp_cifft_rd2_q31+0x3bc>
    3ce8:	48 89 ca             	mov    %rcx,%rdx
    3ceb:	48 83 e2 fc          	and    $0xfffffffffffffffc,%rdx
    3cef:	48 89 d0             	mov    %rdx,%rax
    3cf2:	48 c1 e0 05          	shl    $0x5,%rax
    3cf6:	4c 01 f0             	add    %r14,%rax
    3cf9:	48 39 ca             	cmp    %rcx,%rdx
    3cfc:	0f 84 3e 02 00 00    	je     3f40 <riscv_dsp_cifft_rd2_q31+0xcd0>
    3d02:	41 b9 ff ff ff 7f    	mov    $0x7fffffff,%r9d
    3d08:	41 bb 00 00 00 80    	mov    $0x80000000,%r11d
    3d0e:	66 90                	xchg   %ax,%ax
    3d10:	44 8b 00             	mov    (%rax),%r8d
    3d13:	8b 50 08             	mov    0x8(%rax),%edx
    3d16:	8b 48 04             	mov    0x4(%rax),%ecx
    3d19:	8b 78 0c             	mov    0xc(%rax),%edi
    3d1c:	41 8d 34 10          	lea    (%r8,%rdx,1),%esi
    3d20:	85 d2                	test   %edx,%edx
    3d22:	0f 8e 91 05 00 00    	jle    42b9 <riscv_dsp_cifft_rd2_q31+0x1049>
    3d28:	44 89 cd             	mov    %r9d,%ebp
    3d2b:	29 d5                	sub    %edx,%ebp
    3d2d:	44 39 c5             	cmp    %r8d,%ebp
    3d30:	7d 0c                	jge    3d3e <riscv_dsp_cifft_rd2_q31+0xace>
    3d32:	44 89 c6             	mov    %r8d,%esi
    3d35:	c1 fe 1f             	sar    $0x1f,%esi
    3d38:	81 f6 ff ff ff 7f    	xor    $0x7fffffff,%esi
    3d3e:	8d 2c 39             	lea    (%rcx,%rdi,1),%ebp
    3d41:	85 ff                	test   %edi,%edi
    3d43:	0f 8e 56 05 00 00    	jle    429f <riscv_dsp_cifft_rd2_q31+0x102f>
    3d49:	45 89 cc             	mov    %r9d,%r12d
    3d4c:	41 29 fc             	sub    %edi,%r12d
    3d4f:	41 39 cc             	cmp    %ecx,%r12d
    3d52:	7d 0b                	jge    3d5f <riscv_dsp_cifft_rd2_q31+0xaef>
    3d54:	89 cd                	mov    %ecx,%ebp
    3d56:	c1 fd 1f             	sar    $0x1f,%ebp
    3d59:	81 f5 ff ff ff 7f    	xor    $0x7fffffff,%ebp
    3d5f:	44 8d 24 36          	lea    (%rsi,%rsi,1),%r12d
    3d63:	41 89 f5             	mov    %esi,%r13d
    3d66:	45 89 e7             	mov    %r12d,%r15d
    3d69:	41 c1 fd 1f          	sar    $0x1f,%r13d
    3d6d:	41 d1 ff             	sar    %r15d
    3d70:	41 81 f5 ff ff ff 7f 	xor    $0x7fffffff,%r13d
    3d77:	44 39 fe             	cmp    %r15d,%esi
    3d7a:	8d 74 2d 00          	lea    0x0(%rbp,%rbp,1),%esi
    3d7e:	45 0f 45 e5          	cmovne %r13d,%r12d
    3d82:	41 89 f5             	mov    %esi,%r13d
    3d85:	41 d1 fd             	sar    %r13d
    3d88:	44 89 20             	mov    %r12d,(%rax)
    3d8b:	41 89 ec             	mov    %ebp,%r12d
    3d8e:	41 c1 fc 1f          	sar    $0x1f,%r12d
    3d92:	41 81 f4 ff ff ff 7f 	xor    $0x7fffffff,%r12d
    3d99:	44 39 ed             	cmp    %r13d,%ebp
    3d9c:	44 89 c5             	mov    %r8d,%ebp
    3d9f:	41 0f 45 f4          	cmovne %r12d,%esi
    3da3:	29 d5                	sub    %edx,%ebp
    3da5:	f7 de                	neg    %esi
    3da7:	89 70 04             	mov    %esi,0x4(%rax)
    3daa:	85 d2                	test   %edx,%edx
    3dac:	0f 8e d3 04 00 00    	jle    4285 <riscv_dsp_cifft_rd2_q31+0x1015>
    3db2:	81 c2 00 00 00 80    	add    $0x80000000,%edx
    3db8:	44 39 c2             	cmp    %r8d,%edx
    3dbb:	7e 0d                	jle    3dca <riscv_dsp_cifft_rd2_q31+0xb5a>
    3dbd:	41 c1 f8 1f          	sar    $0x1f,%r8d
    3dc1:	44 89 c5             	mov    %r8d,%ebp
    3dc4:	81 f5 ff ff ff 7f    	xor    $0x7fffffff,%ebp
    3dca:	89 fe                	mov    %edi,%esi
    3dcc:	29 ce                	sub    %ecx,%esi
    3dce:	85 c9                	test   %ecx,%ecx
    3dd0:	0f 8e 96 04 00 00    	jle    426c <riscv_dsp_cifft_rd2_q31+0xffc>
    3dd6:	81 c1 00 00 00 80    	add    $0x80000000,%ecx
    3ddc:	39 cf                	cmp    %ecx,%edi
    3dde:	7d 0b                	jge    3deb <riscv_dsp_cifft_rd2_q31+0xb7b>
    3de0:	c1 ff 1f             	sar    $0x1f,%edi
    3de3:	89 fe                	mov    %edi,%esi
    3de5:	81 f6 ff ff ff 7f    	xor    $0x7fffffff,%esi
    3deb:	8d 54 2d 00          	lea    0x0(%rbp,%rbp,1),%edx
    3def:	89 e9                	mov    %ebp,%ecx
    3df1:	44 8b 40 10          	mov    0x10(%rax),%r8d
    3df5:	89 d7                	mov    %edx,%edi
    3df7:	c1 f9 1f             	sar    $0x1f,%ecx
    3dfa:	d1 ff                	sar    %edi
    3dfc:	81 f1 ff ff ff 7f    	xor    $0x7fffffff,%ecx
    3e02:	39 fd                	cmp    %edi,%ebp
    3e04:	0f 45 d1             	cmovne %ecx,%edx
    3e07:	89 f1                	mov    %esi,%ecx
    3e09:	c1 f9 1f             	sar    $0x1f,%ecx
    3e0c:	89 50 08             	mov    %edx,0x8(%rax)
    3e0f:	8d 14 36             	lea    (%rsi,%rsi,1),%edx
    3e12:	81 f1 ff ff ff 7f    	xor    $0x7fffffff,%ecx
    3e18:	89 d7                	mov    %edx,%edi
    3e1a:	d1 ff                	sar    %edi
    3e1c:	39 fe                	cmp    %edi,%esi
    3e1e:	8b 78 1c             	mov    0x1c(%rax),%edi
    3e21:	0f 45 d1             	cmovne %ecx,%edx
    3e24:	8b 48 14             	mov    0x14(%rax),%ecx
    3e27:	89 50 0c             	mov    %edx,0xc(%rax)
    3e2a:	8b 50 18             	mov    0x18(%rax),%edx
    3e2d:	42 8d 34 02          	lea    (%rdx,%r8,1),%esi
    3e31:	85 d2                	test   %edx,%edx
    3e33:	0f 8e 1a 04 00 00    	jle    4253 <riscv_dsp_cifft_rd2_q31+0xfe3>
    3e39:	44 89 cd             	mov    %r9d,%ebp
    3e3c:	29 d5                	sub    %edx,%ebp
    3e3e:	41 39 e8             	cmp    %ebp,%r8d
    3e41:	7e 0c                	jle    3e4f <riscv_dsp_cifft_rd2_q31+0xbdf>
    3e43:	44 89 c6             	mov    %r8d,%esi
    3e46:	c1 fe 1f             	sar    $0x1f,%esi
    3e49:	81 f6 ff ff ff 7f    	xor    $0x7fffffff,%esi
    3e4f:	8d 2c 0f             	lea    (%rdi,%rcx,1),%ebp
    3e52:	85 ff                	test   %edi,%edi
    3e54:	0f 8e df 03 00 00    	jle    4239 <riscv_dsp_cifft_rd2_q31+0xfc9>
    3e5a:	45 89 cc             	mov    %r9d,%r12d
    3e5d:	41 29 fc             	sub    %edi,%r12d
    3e60:	44 39 e1             	cmp    %r12d,%ecx
    3e63:	7e 0b                	jle    3e70 <riscv_dsp_cifft_rd2_q31+0xc00>
    3e65:	89 cd                	mov    %ecx,%ebp
    3e67:	c1 fd 1f             	sar    $0x1f,%ebp
    3e6a:	81 f5 ff ff ff 7f    	xor    $0x7fffffff,%ebp
    3e70:	44 8d 24 36          	lea    (%rsi,%rsi,1),%r12d
    3e74:	41 89 f5             	mov    %esi,%r13d
    3e77:	45 89 e7             	mov    %r12d,%r15d
    3e7a:	41 c1 fd 1f          	sar    $0x1f,%r13d
    3e7e:	41 d1 ff             	sar    %r15d
    3e81:	41 81 f5 ff ff ff 7f 	xor    $0x7fffffff,%r13d
    3e88:	44 39 fe             	cmp    %r15d,%esi
    3e8b:	8d 74 2d 00          	lea    0x0(%rbp,%rbp,1),%esi
    3e8f:	45 0f 45 e5          	cmovne %r13d,%r12d
    3e93:	41 89 f5             	mov    %esi,%r13d
    3e96:	41 d1 fd             	sar    %r13d
    3e99:	44 89 60 10          	mov    %r12d,0x10(%rax)
    3e9d:	41 89 ec             	mov    %ebp,%r12d
    3ea0:	41 c1 fc 1f          	sar    $0x1f,%r12d
    3ea4:	41 81 f4 ff ff ff 7f 	xor    $0x7fffffff,%r12d
    3eab:	41 39 ed             	cmp    %ebp,%r13d
    3eae:	44 89 c5             	mov    %r8d,%ebp
    3eb1:	41 0f 45 f4          	cmovne %r12d,%esi
    3eb5:	29 d5                	sub    %edx,%ebp
    3eb7:	f7 de                	neg    %esi
    3eb9:	89 70 14             	mov    %esi,0x14(%rax)
    3ebc:	85 d2                	test   %edx,%edx
    3ebe:	0f 8e 5b 03 00 00    	jle    421f <riscv_dsp_cifft_rd2_q31+0xfaf>
    3ec4:	81 c2 00 00 00 80    	add    $0x80000000,%edx
    3eca:	44 39 c2             	cmp    %r8d,%edx
    3ecd:	7e 0d                	jle    3edc <riscv_dsp_cifft_rd2_q31+0xc6c>
    3ecf:	41 c1 f8 1f          	sar    $0x1f,%r8d
    3ed3:	44 89 c5             	mov    %r8d,%ebp
    3ed6:	81 f5 ff ff ff 7f    	xor    $0x7fffffff,%ebp
    3edc:	89 fa                	mov    %edi,%edx
    3ede:	29 ca                	sub    %ecx,%edx
    3ee0:	85 c9                	test   %ecx,%ecx
    3ee2:	0f 8e 1e 03 00 00    	jle    4206 <riscv_dsp_cifft_rd2_q31+0xf96>
    3ee8:	81 c1 00 00 00 80    	add    $0x80000000,%ecx
    3eee:	39 f9                	cmp    %edi,%ecx
    3ef0:	7e 0b                	jle    3efd <riscv_dsp_cifft_rd2_q31+0xc8d>
    3ef2:	c1 ff 1f             	sar    $0x1f,%edi
    3ef5:	89 fa                	mov    %edi,%edx
    3ef7:	81 f2 ff ff ff 7f    	xor    $0x7fffffff,%edx
    3efd:	8d 4c 2d 00          	lea    0x0(%rbp,%rbp,1),%ecx
    3f01:	89 ee                	mov    %ebp,%esi
    3f03:	89 cf                	mov    %ecx,%edi
    3f05:	c1 fe 1f             	sar    $0x1f,%esi
    3f08:	d1 ff                	sar    %edi
    3f0a:	81 f6 ff ff ff 7f    	xor    $0x7fffffff,%esi
    3f10:	39 fd                	cmp    %edi,%ebp
    3f12:	0f 45 ce             	cmovne %esi,%ecx
    3f15:	89 48 18             	mov    %ecx,0x18(%rax)
    3f18:	8d 0c 12             	lea    (%rdx,%rdx,1),%ecx
    3f1b:	89 ce                	mov    %ecx,%esi
    3f1d:	d1 fe                	sar    %esi
    3f1f:	39 f2                	cmp    %esi,%edx
    3f21:	0f 84 ab 03 00 00    	je     42d2 <riscv_dsp_cifft_rd2_q31+0x1062>
    3f27:	c1 fa 1f             	sar    $0x1f,%edx
    3f2a:	48 83 c0 20          	add    $0x20,%rax
    3f2e:	81 f2 ff ff ff 7f    	xor    $0x7fffffff,%edx
    3f34:	89 50 fc             	mov    %edx,-0x4(%rax)
    3f37:	49 39 c2             	cmp    %rax,%r10
    3f3a:	0f 85 d0 fd ff ff    	jne    3d10 <riscv_dsp_cifft_rd2_q31+0xaa0>
    3f40:	8b 44 24 f4          	mov    -0xc(%rsp),%eax
    3f44:	49 8d 7c 1e fc       	lea    -0x4(%r14,%rbx,1),%rdi
    3f49:	41 8b 4e 08          	mov    0x8(%r14),%ecx
    3f4d:	89 c3                	mov    %eax,%ebx
    3f4f:	d1 eb                	shr    %ebx
    3f51:	41 89 d9             	mov    %ebx,%r9d
    3f54:	89 c3                	mov    %eax,%ebx
    3f56:	83 e0 fe             	and    $0xfffffffe,%eax
    3f59:	89 c2                	mov    %eax,%edx
    3f5b:	83 c0 01             	add    $0x1,%eax
    3f5e:	49 8d 14 96          	lea    (%r14,%rdx,4),%rdx
    3f62:	49 8d 04 86          	lea    (%r14,%rax,4),%rax
    3f66:	8b 32                	mov    (%rdx),%esi
    3f68:	41 89 76 08          	mov    %esi,0x8(%r14)
    3f6c:	89 0a                	mov    %ecx,(%rdx)
    3f6e:	8b 08                	mov    (%rax),%ecx
    3f70:	41 8b 56 0c          	mov    0xc(%r14),%edx
    3f74:	41 89 4e 0c          	mov    %ecx,0xc(%r14)
    3f78:	b9 04 00 00 00       	mov    $0x4,%ecx
    3f7d:	89 10                	mov    %edx,(%rax)
    3f7f:	89 d8                	mov    %ebx,%eax
    3f81:	c1 eb 02             	shr    $0x2,%ebx
    3f84:	ba 04 00 00 00       	mov    $0x4,%edx
    3f89:	41 89 c3             	mov    %eax,%r11d
    3f8c:	41 89 da             	mov    %ebx,%r10d
    3f8f:	44 89 cb             	mov    %r9d,%ebx
    3f92:	44 89 c8             	mov    %r9d,%eax
    3f95:	41 c1 eb 03          	shr    $0x3,%r11d
    3f99:	44 31 d3             	xor    %r10d,%ebx
    3f9c:	44 89 dd             	mov    %r11d,%ebp
    3f9f:	31 dd                	xor    %ebx,%ebp
    3fa1:	0f 1f 80 00 00 00 00 	nopl   0x0(%rax)
    3fa8:	31 d8                	xor    %ebx,%eax
    3faa:	41 85 c2             	test   %eax,%r10d
    3fad:	75 11                	jne    3fc0 <riscv_dsp_cifft_rd2_q31+0xd50>
    3faf:	44 89 d6             	mov    %r10d,%esi
    3fb2:	66 0f 1f 44 00 00    	nopw   0x0(%rax,%rax,1)
    3fb8:	d1 ee                	shr    %esi
    3fba:	31 f0                	xor    %esi,%eax
    3fbc:	85 c6                	test   %eax,%esi
    3fbe:	74 f8                	je     3fb8 <riscv_dsp_cifft_rd2_q31+0xd48>
    3fc0:	8d 71 fe             	lea    -0x2(%rcx),%esi
    3fc3:	39 f0                	cmp    %esi,%eax
    3fc5:	0f 86 8c 00 00 00    	jbe    4057 <riscv_dsp_cifft_rd2_q31+0xde7>
    3fcb:	89 d6                	mov    %edx,%esi
    3fcd:	44 8d 04 00          	lea    (%rax,%rax,1),%r8d
    3fd1:	4d 8d 24 b6          	lea    (%r14,%rsi,4),%r12
    3fd5:	4c 89 c6             	mov    %r8,%rsi
    3fd8:	4f 8d 04 86          	lea    (%r14,%r8,4),%r8
    3fdc:	45 8b 2c 24          	mov    (%r12),%r13d
    3fe0:	45 8b 38             	mov    (%r8),%r15d
    3fe3:	83 c6 01             	add    $0x1,%esi
    3fe6:	49 8d 34 b6          	lea    (%r14,%rsi,4),%rsi
    3fea:	45 89 3c 24          	mov    %r15d,(%r12)
    3fee:	45 89 28             	mov    %r13d,(%r8)
    3ff1:	44 8d 42 01          	lea    0x1(%rdx),%r8d
    3ff5:	44 8b 2e             	mov    (%rsi),%r13d
    3ff8:	4f 8d 04 86          	lea    (%r14,%r8,4),%r8
    3ffc:	45 8b 20             	mov    (%r8),%r12d
    3fff:	45 89 28             	mov    %r13d,(%r8)
    4002:	41 89 d0             	mov    %edx,%r8d
    4005:	41 f7 d8             	neg    %r8d
    4008:	44 89 26             	mov    %r12d,(%rsi)
    400b:	89 c6                	mov    %eax,%esi
    400d:	4d 63 c0             	movslq %r8d,%r8
    4010:	f7 de                	neg    %esi
    4012:	49 c1 e0 02          	shl    $0x2,%r8
    4016:	01 f6                	add    %esi,%esi
    4018:	4e 8d 2c 07          	lea    (%rdi,%r8,1),%r13
    401c:	4e 8d 44 07 fc       	lea    -0x4(%rdi,%r8,1),%r8
    4021:	48 63 f6             	movslq %esi,%rsi
    4024:	45 8b 7d 00          	mov    0x0(%r13),%r15d
    4028:	48 c1 e6 02          	shl    $0x2,%rsi
    402c:	4c 8d 24 37          	lea    (%rdi,%rsi,1),%r12
    4030:	44 89 7c 24 c8       	mov    %r15d,-0x38(%rsp)
    4035:	48 8d 74 37 fc       	lea    -0x4(%rdi,%rsi,1),%rsi
    403a:	45 8b 3c 24          	mov    (%r12),%r15d
    403e:	45 89 7d 00          	mov    %r15d,0x0(%r13)
    4042:	44 8b 7c 24 c8       	mov    -0x38(%rsp),%r15d
    4047:	45 89 3c 24          	mov    %r15d,(%r12)
    404b:	45 8b 20             	mov    (%r8),%r12d
    404e:	44 8b 2e             	mov    (%rsi),%r13d
    4051:	45 89 28             	mov    %r13d,(%r8)
    4054:	44 89 26             	mov    %r12d,(%rsi)
    4057:	44 01 c8             	add    %r9d,%eax
    405a:	8d 72 02             	lea    0x2(%rdx),%esi
    405d:	44 8d 04 00          	lea    (%rax,%rax,1),%r8d
    4061:	4d 8d 24 b6          	lea    (%r14,%rsi,4),%r12
    4065:	4c 89 c6             	mov    %r8,%rsi
    4068:	4f 8d 04 86          	lea    (%r14,%r8,4),%r8
    406c:	45 8b 2c 24          	mov    (%r12),%r13d
    4070:	45 8b 38             	mov    (%r8),%r15d
    4073:	83 c6 01             	add    $0x1,%esi
    4076:	49 8d 34 b6          	lea    (%r14,%rsi,4),%rsi
    407a:	45 89 3c 24          	mov    %r15d,(%r12)
    407e:	45 89 28             	mov    %r13d,(%r8)
    4081:	44 8d 42 03          	lea    0x3(%rdx),%r8d
    4085:	44 8b 2e             	mov    (%rsi),%r13d
    4088:	4f 8d 04 86          	lea    (%r14,%r8,4),%r8
    408c:	45 8b 20             	mov    (%r8),%r12d
    408f:	45 89 28             	mov    %r13d,(%r8)
    4092:	44 89 26             	mov    %r12d,(%rsi)
    4095:	41 39 c9             	cmp    %ecx,%r9d
    4098:	0f 86 7f 02 00 00    	jbe    431d <riscv_dsp_cifft_rd2_q31+0x10ad>
    409e:	31 e8                	xor    %ebp,%eax
    40a0:	41 85 c3             	test   %eax,%r11d
    40a3:	75 13                	jne    40b8 <riscv_dsp_cifft_rd2_q31+0xe48>
    40a5:	44 89 de             	mov    %r11d,%esi
    40a8:	0f 1f 84 00 00 00 00 	nopl   0x0(%rax,%rax,1)
    40af:	00 
    40b0:	d1 ee                	shr    %esi
    40b2:	31 f0                	xor    %esi,%eax
    40b4:	85 c6                	test   %eax,%esi
    40b6:	74 f8                	je     40b0 <riscv_dsp_cifft_rd2_q31+0xe40>
    40b8:	39 c8                	cmp    %ecx,%eax
    40ba:	0f 86 90 00 00 00    	jbe    4150 <riscv_dsp_cifft_rd2_q31+0xee0>
    40c0:	8d 72 04             	lea    0x4(%rdx),%esi
    40c3:	44 8d 04 00          	lea    (%rax,%rax,1),%r8d
    40c7:	4d 8d 24 b6          	lea    (%r14,%rsi,4),%r12
    40cb:	4c 89 c6             	mov    %r8,%rsi
    40ce:	4f 8d 04 86          	lea    (%r14,%r8,4),%r8
    40d2:	45 8b 2c 24          	mov    (%r12),%r13d
    40d6:	45 8b 38             	mov    (%r8),%r15d
    40d9:	83 c6 01             	add    $0x1,%esi
    40dc:	49 8d 34 b6          	lea    (%r14,%rsi,4),%rsi
    40e0:	45 89 3c 24          	mov    %r15d,(%r12)
    40e4:	45 89 28             	mov    %r13d,(%r8)
    40e7:	44 8d 42 05          	lea    0x5(%rdx),%r8d
    40eb:	44 8b 2e             	mov    (%rsi),%r13d
    40ee:	4f 8d 04 86          	lea    (%r14,%r8,4),%r8
    40f2:	45 8b 20             	mov    (%r8),%r12d
    40f5:	45 89 28             	mov    %r13d,(%r8)
    40f8:	41 b8 fc ff ff ff    	mov    $0xfffffffc,%r8d
    40fe:	41 29 d0             	sub    %edx,%r8d
    4101:	44 89 26             	mov    %r12d,(%rsi)
    4104:	89 c6                	mov    %eax,%esi
    4106:	4d 63 c0             	movslq %r8d,%r8
    4109:	f7 de                	neg    %esi
    410b:	49 c1 e0 02          	shl    $0x2,%r8
    410f:	01 f6                	add    %esi,%esi
    4111:	4e 8d 2c 07          	lea    (%rdi,%r8,1),%r13
    4115:	4e 8d 44 07 fc       	lea    -0x4(%rdi,%r8,1),%r8
    411a:	48 63 f6             	movslq %esi,%rsi
    411d:	45 8b 7d 00          	mov    0x0(%r13),%r15d
    4121:	48 c1 e6 02          	shl    $0x2,%rsi
    4125:	4c 8d 24 37          	lea    (%rdi,%rsi,1),%r12
    4129:	44 89 7c 24 c8       	mov    %r15d,-0x38(%rsp)
    412e:	48 8d 74 37 fc       	lea    -0x4(%rdi,%rsi,1),%rsi
    4133:	45 8b 3c 24          	mov    (%r12),%r15d
    4137:	45 89 7d 00          	mov    %r15d,0x0(%r13)
    413b:	44 8b 7c 24 c8       	mov    -0x38(%rsp),%r15d
    4140:	45 89 3c 24          	mov    %r15d,(%r12)
    4144:	45 8b 20             	mov    (%r8),%r12d
    4147:	44 8b 2e             	mov    (%rsi),%r13d
    414a:	45 89 28             	mov    %r13d,(%r8)
    414d:	44 89 26             	mov    %r12d,(%rsi)
    4150:	44 01 c8             	add    %r9d,%eax
    4153:	8d 72 06             	lea    0x6(%rdx),%esi
    4156:	83 c1 04             	add    $0x4,%ecx
    4159:	44 8d 04 00          	lea    (%rax,%rax,1),%r8d
    415d:	4d 8d 24 b6          	lea    (%r14,%rsi,4),%r12
    4161:	4c 89 c6             	mov    %r8,%rsi
    4164:	4f 8d 04 86          	lea    (%r14,%r8,4),%r8
    4168:	45 8b 2c 24          	mov    (%r12),%r13d
    416c:	45 8b 38             	mov    (%r8),%r15d
    416f:	83 c6 01             	add    $0x1,%esi
    4172:	49 8d 34 b6          	lea    (%r14,%rsi,4),%rsi
    4176:	45 89 3c 24          	mov    %r15d,(%r12)
    417a:	45 89 28             	mov    %r13d,(%r8)
    417d:	44 8d 42 07          	lea    0x7(%rdx),%r8d
    4181:	44 8b 2e             	mov    (%rsi),%r13d
    4184:	83 c2 08             	add    $0x8,%edx
    4187:	4f 8d 04 86          	lea    (%r14,%r8,4),%r8
    418b:	45 8b 20             	mov    (%r8),%r12d
    418e:	45 89 28             	mov    %r13d,(%r8)
    4191:	44 89 26             	mov    %r12d,(%rsi)
    4194:	e9 0f fe ff ff       	jmp    3fa8 <riscv_dsp_cifft_rd2_q31+0xd38>
    4199:	0f 1f 80 00 00 00 00 	nopl   0x0(%rax)
    41a0:	8d 90 00 ff ff ff    	lea    -0x100(%rax),%edx
    41a6:	b9 00 01 00 00       	mov    $0x100,%ecx
    41ab:	29 d1                	sub    %edx,%ecx
    41ad:	85 c9                	test   %ecx,%ecx
    41af:	7e 1f                	jle    41d0 <riscv_dsp_cifft_rd2_q31+0xf60>
    41b1:	48 63 c9             	movslq %ecx,%rcx
    41b4:	48 63 d2             	movslq %edx,%rdx
    41b7:	45 8b 44 8d 00       	mov    0x0(%r13,%rcx,4),%r8d
    41bc:	45 8b 4c 95 00       	mov    0x0(%r13,%rdx,4),%r9d
    41c1:	41 f7 d8             	neg    %r8d
    41c4:	e9 5a f3 ff ff       	jmp    3523 <riscv_dsp_cifft_rd2_q31+0x2b3>
    41c9:	0f 1f 80 00 00 00 00 	nopl   0x0(%rax)
    41d0:	2d 00 02 00 00       	sub    $0x200,%eax
    41d5:	ba 00 01 00 00       	mov    $0x100,%edx
    41da:	29 c2                	sub    %eax,%edx
    41dc:	48 98                	cltq   
    41de:	45 8b 4c 85 00       	mov    0x0(%r13,%rax,4),%r9d
    41e3:	48 63 ca             	movslq %edx,%rcx
    41e6:	45 8b 44 8d 00       	mov    0x0(%r13,%rcx,4),%r8d
    41eb:	41 f7 d9             	neg    %r9d
    41ee:	85 d2                	test   %edx,%edx
    41f0:	0f 8e 2d f3 ff ff    	jle    3523 <riscv_dsp_cifft_rd2_q31+0x2b3>
    41f6:	44 89 c0             	mov    %r8d,%eax
    41f9:	45 89 c8             	mov    %r9d,%r8d
    41fc:	f7 d8                	neg    %eax
    41fe:	41 89 c1             	mov    %eax,%r9d
    4201:	e9 1d f3 ff ff       	jmp    3523 <riscv_dsp_cifft_rd2_q31+0x2b3>
    4206:	0f 84 f1 fc ff ff    	je     3efd <riscv_dsp_cifft_rd2_q31+0xc8d>
    420c:	81 c1 ff ff ff 7f    	add    $0x7fffffff,%ecx
    4212:	39 cf                	cmp    %ecx,%edi
    4214:	0f 8f d8 fc ff ff    	jg     3ef2 <riscv_dsp_cifft_rd2_q31+0xc82>
    421a:	e9 de fc ff ff       	jmp    3efd <riscv_dsp_cifft_rd2_q31+0xc8d>
    421f:	0f 84 b7 fc ff ff    	je     3edc <riscv_dsp_cifft_rd2_q31+0xc6c>
    4225:	81 c2 ff ff ff 7f    	add    $0x7fffffff,%edx
    422b:	44 39 c2             	cmp    %r8d,%edx
    422e:	0f 8c 9b fc ff ff    	jl     3ecf <riscv_dsp_cifft_rd2_q31+0xc5f>
    4234:	e9 a3 fc ff ff       	jmp    3edc <riscv_dsp_cifft_rd2_q31+0xc6c>
    4239:	0f 84 31 fc ff ff    	je     3e70 <riscv_dsp_cifft_rd2_q31+0xc00>
    423f:	45 89 dc             	mov    %r11d,%r12d
    4242:	41 29 fc             	sub    %edi,%r12d
    4245:	44 39 e1             	cmp    %r12d,%ecx
    4248:	0f 8c 17 fc ff ff    	jl     3e65 <riscv_dsp_cifft_rd2_q31+0xbf5>
    424e:	e9 1d fc ff ff       	jmp    3e70 <riscv_dsp_cifft_rd2_q31+0xc00>
    4253:	0f 84 f6 fb ff ff    	je     3e4f <riscv_dsp_cifft_rd2_q31+0xbdf>
    4259:	44 89 dd             	mov    %r11d,%ebp
    425c:	29 d5                	sub    %edx,%ebp
    425e:	41 39 e8             	cmp    %ebp,%r8d
    4261:	0f 8c dc fb ff ff    	jl     3e43 <riscv_dsp_cifft_rd2_q31+0xbd3>
    4267:	e9 e3 fb ff ff       	jmp    3e4f <riscv_dsp_cifft_rd2_q31+0xbdf>
    426c:	0f 84 79 fb ff ff    	je     3deb <riscv_dsp_cifft_rd2_q31+0xb7b>
    4272:	81 c1 ff ff ff 7f    	add    $0x7fffffff,%ecx
    4278:	39 cf                	cmp    %ecx,%edi
    427a:	0f 8f 60 fb ff ff    	jg     3de0 <riscv_dsp_cifft_rd2_q31+0xb70>
    4280:	e9 66 fb ff ff       	jmp    3deb <riscv_dsp_cifft_rd2_q31+0xb7b>
    4285:	0f 84 3f fb ff ff    	je     3dca <riscv_dsp_cifft_rd2_q31+0xb5a>
    428b:	81 c2 ff ff ff 7f    	add    $0x7fffffff,%edx
    4291:	44 39 c2             	cmp    %r8d,%edx
    4294:	0f 8c 23 fb ff ff    	jl     3dbd <riscv_dsp_cifft_rd2_q31+0xb4d>
    429a:	e9 2b fb ff ff       	jmp    3dca <riscv_dsp_cifft_rd2_q31+0xb5a>
    429f:	0f 84 ba fa ff ff    	je     3d5f <riscv_dsp_cifft_rd2_q31+0xaef>
    42a5:	45 89 dc             	mov    %r11d,%r12d
    42a8:	41 29 fc             	sub    %edi,%r12d
    42ab:	41 39 cc             	cmp    %ecx,%r12d
    42ae:	0f 8f a0 fa ff ff    	jg     3d54 <riscv_dsp_cifft_rd2_q31+0xae4>
    42b4:	e9 a6 fa ff ff       	jmp    3d5f <riscv_dsp_cifft_rd2_q31+0xaef>
    42b9:	0f 84 7f fa ff ff    	je     3d3e <riscv_dsp_cifft_rd2_q31+0xace>
    42bf:	44 89 dd             	mov    %r11d,%ebp
    42c2:	29 d5                	sub    %edx,%ebp
    42c4:	44 39 c5             	cmp    %r8d,%ebp
    42c7:	0f 8f 65 fa ff ff    	jg     3d32 <riscv_dsp_cifft_rd2_q31+0xac2>
    42cd:	e9 6c fa ff ff       	jmp    3d3e <riscv_dsp_cifft_rd2_q31+0xace>
    42d2:	89 48 1c             	mov    %ecx,0x1c(%rax)
    42d5:	48 83 c0 20          	add    $0x20,%rax
    42d9:	49 39 c2             	cmp    %rax,%r10
    42dc:	0f 85 2e fa ff ff    	jne    3d10 <riscv_dsp_cifft_rd2_q31+0xaa0>
    42e2:	e9 59 fc ff ff       	jmp    3f40 <riscv_dsp_cifft_rd2_q31+0xcd0>
    42e7:	48 8b 44 24 d8       	mov    -0x28(%rsp),%rax
    42ec:	89 ea                	mov    %ebp,%edx
    42ee:	66 90                	xchg   %ax,%ax
    42f0:	f3 0f 7e 00          	movq   (%rax),%xmm0
    42f4:	f3 42 0f 7e 0c 10    	movq   (%rax,%r10,1),%xmm1
    42fa:	66 0f 6f d0          	movdqa %xmm0,%xmm2
    42fe:	66 0f fa c1          	psubd  %xmm1,%xmm0
    4302:	66 0f fe d1          	paddd  %xmm1,%xmm2
    4306:	66 0f d6 10          	movq   %xmm2,(%rax)
    430a:	66 42 0f d6 04 10    	movq   %xmm0,(%rax,%r10,1)
    4310:	48 01 c8             	add    %rcx,%rax
    4313:	83 ea 01             	sub    $0x1,%edx
    4316:	75 d8                	jne    42f0 <riscv_dsp_cifft_rd2_q31+0x1080>
    4318:	e9 bd f1 ff ff       	jmp    34da <riscv_dsp_cifft_rd2_q31+0x26a>
    431d:	5b                   	pop    %rbx
    431e:	31 c0                	xor    %eax,%eax
    4320:	5d                   	pop    %rbp
    4321:	41 5c                	pop    %r12
    4323:	41 5d                	pop    %r13
    4325:	41 5e                	pop    %r14
    4327:	41 5f                	pop    %r15
    4329:	c3                   	ret    
    432a:	66 0f 1f 44 00 00    	nopw   0x0(%rax,%rax,1)

0000000000004330 <riscv_dsp_cfft_rd4_q31>:
    4330:	f3 0f 1e fa          	endbr64 
    4334:	41 57                	push   %r15
    4336:	89 f1                	mov    %esi,%ecx
    4338:	b8 01 00 00 00       	mov    $0x1,%eax
    433d:	49 89 ff             	mov    %rdi,%r15
    4340:	41 56                	push   %r14
    4342:	d3 e0                	shl    %cl,%eax
    4344:	41 55                	push   %r13
    4346:	41 54                	push   %r12
    4348:	55                   	push   %rbp
    4349:	53                   	push   %rbx
    434a:	89 44 24 f0          	mov    %eax,-0x10(%rsp)
    434e:	d1 e8                	shr    %eax
    4350:	41 89 c4             	mov    %eax,%r12d
    4353:	48 89 7c 24 d8       	mov    %rdi,-0x28(%rsp)
    4358:	49 c1 e4 02          	shl    $0x2,%r12
    435c:	89 44 24 f4          	mov    %eax,-0xc(%rsp)
    4360:	41 8b 07             	mov    (%r15),%eax
    4363:	4e 8d 34 27          	lea    (%rdi,%r12,1),%r14
    4367:	89 74 24 ec          	mov    %esi,-0x14(%rsp)
    436b:	4b 8d 3c 26          	lea    (%r14,%r12,1),%rdi
    436f:	d1 f8                	sar    %eax
    4371:	4c 89 74 24 a0       	mov    %r14,-0x60(%rsp)
    4376:	8b 17                	mov    (%rdi),%edx
    4378:	4e 8d 14 27          	lea    (%rdi,%r12,1),%r10
    437c:	41 8b 0a             	mov    (%r10),%ecx
    437f:	d1 fa                	sar    %edx
    4381:	8d 34 10             	lea    (%rax,%rdx,1),%esi
    4384:	29 d0                	sub    %edx,%eax
    4386:	41 8b 16             	mov    (%r14),%edx
    4389:	d1 f9                	sar    %ecx
    438b:	d1 fe                	sar    %esi
    438d:	d1 f8                	sar    %eax
    438f:	d1 fa                	sar    %edx
    4391:	44 8d 0c 0a          	lea    (%rdx,%rcx,1),%r9d
    4395:	29 ca                	sub    %ecx,%edx
    4397:	41 d1 f9             	sar    %r9d
    439a:	89 d3                	mov    %edx,%ebx
    439c:	42 8d 14 0e          	lea    (%rsi,%r9,1),%edx
    43a0:	44 29 ce             	sub    %r9d,%esi
    43a3:	d1 fb                	sar    %ebx
    43a5:	d1 fa                	sar    %edx
    43a7:	d1 fe                	sar    %esi
    43a9:	41 89 17             	mov    %edx,(%r15)
    43ac:	41 8b 57 04          	mov    0x4(%r15),%edx
    43b0:	44 8b 47 04          	mov    0x4(%rdi),%r8d
    43b4:	45 8b 5a 04          	mov    0x4(%r10),%r11d
    43b8:	d1 fa                	sar    %edx
    43ba:	41 d1 f8             	sar    %r8d
    43bd:	41 d1 fb             	sar    %r11d
    43c0:	42 8d 0c 02          	lea    (%rdx,%r8,1),%ecx
    43c4:	44 29 c2             	sub    %r8d,%edx
    43c7:	d1 fa                	sar    %edx
    43c9:	d1 f9                	sar    %ecx
    43cb:	89 d5                	mov    %edx,%ebp
    43cd:	41 8b 56 04          	mov    0x4(%r14),%edx
    43d1:	89 54 24 90          	mov    %edx,-0x70(%rsp)
    43d5:	d1 fa                	sar    %edx
    43d7:	46 8d 04 1a          	lea    (%rdx,%r11,1),%r8d
    43db:	44 29 da             	sub    %r11d,%edx
    43de:	41 d1 f8             	sar    %r8d
    43e1:	d1 fa                	sar    %edx
    43e3:	46 8d 1c 01          	lea    (%rcx,%r8,1),%r11d
    43e7:	44 29 c1             	sub    %r8d,%ecx
    43ea:	d1 f9                	sar    %ecx
    43ec:	41 d1 fb             	sar    %r11d
    43ef:	45 89 5f 04          	mov    %r11d,0x4(%r15)
    43f3:	41 89 4e 04          	mov    %ecx,0x4(%r14)
    43f7:	8d 0c 10             	lea    (%rax,%rdx,1),%ecx
    43fa:	d1 f9                	sar    %ecx
    43fc:	41 89 36             	mov    %esi,(%r14)
    43ff:	89 0f                	mov    %ecx,(%rdi)
    4401:	89 e9                	mov    %ebp,%ecx
    4403:	29 d9                	sub    %ebx,%ecx
    4405:	d1 f9                	sar    %ecx
    4407:	29 d0                	sub    %edx,%eax
    4409:	01 eb                	add    %ebp,%ebx
    440b:	66 0f 6e c0          	movd   %eax,%xmm0
    440f:	66 0f 6e cb          	movd   %ebx,%xmm1
    4413:	49 8d 47 08          	lea    0x8(%r15),%rax
    4417:	89 4f 04             	mov    %ecx,0x4(%rdi)
    441a:	66 0f 62 c1          	punpckldq %xmm1,%xmm0
    441e:	48 89 44 24 e0       	mov    %rax,-0x20(%rsp)
    4423:	66 0f 72 e0 01       	psrad  $0x1,%xmm0
    4428:	66 41 0f d6 02       	movq   %xmm0,(%r10)
    442d:	49 39 c6             	cmp    %rax,%r14
    4430:	0f 84 2c 03 00 00    	je     4762 <riscv_dsp_cfft_rd4_q31+0x432>
    4436:	48 89 c6             	mov    %rax,%rsi
    4439:	b8 0a 00 00 00       	mov    $0xa,%eax
    443e:	2b 44 24 ec          	sub    -0x14(%rsp),%eax
    4442:	45 31 ff             	xor    %r15d,%r15d
    4445:	89 44 24 90          	mov    %eax,-0x70(%rsp)
    4449:	48 8b 44 24 d8       	mov    -0x28(%rsp),%rax
    444e:	4c 8d 2d f3 48 00 00 	lea    0x48f3(%rip),%r13        # 8d48 <riscv_dsp_cos_table_q31_1024+0x8>
    4455:	41 be 00 01 00 00    	mov    $0x100,%r14d
    445b:	4e 8d 5c 60 08       	lea    0x8(%rax,%r12,2),%r11
    4460:	e9 41 01 00 00       	jmp    45a6 <riscv_dsp_cfft_rd4_q31+0x276>
    4465:	4d 63 d2             	movslq %r10d,%r10
    4468:	41 8b 4c 8d 00       	mov    0x0(%r13,%rcx,4),%ecx
    446d:	43 8b 5c 95 00       	mov    0x0(%r13,%r10,4),%ebx
    4472:	48 63 c9             	movslq %ecx,%rcx
    4475:	48 63 db             	movslq %ebx,%rbx
    4478:	49 89 ca             	mov    %rcx,%r10
    447b:	49 0f af c9          	imul   %r9,%rcx
    447f:	4d 0f af d0          	imul   %r8,%r10
    4483:	4c 89 54 24 98       	mov    %r10,-0x68(%rsp)
    4488:	49 89 da             	mov    %rbx,%r10
    448b:	49 0f af d8          	imul   %r8,%rbx
    448f:	44 8d 04 38          	lea    (%rax,%rdi,1),%r8d
    4493:	4d 0f af d1          	imul   %r9,%r10
    4497:	29 f8                	sub    %edi,%eax
    4499:	4c 03 54 24 98       	add    -0x68(%rsp),%r10
    449e:	41 89 e9             	mov    %ebp,%r9d
    44a1:	49 c1 fa 20          	sar    $0x20,%r10
    44a5:	48 63 f8             	movslq %eax,%rdi
    44a8:	44 89 f8             	mov    %r15d,%eax
    44ab:	41 29 d1             	sub    %edx,%r9d
    44ae:	48 29 d9             	sub    %rbx,%rcx
    44b1:	66 41 0f 6e c2       	movd   %r10d,%xmm0
    44b6:	01 ea                	add    %ebp,%edx
    44b8:	4d 63 c0             	movslq %r8d,%r8
    44bb:	48 c1 f9 20          	sar    $0x20,%rcx
    44bf:	4d 63 c9             	movslq %r9d,%r9
    44c2:	48 63 d2             	movslq %edx,%rdx
    44c5:	66 0f 6e f1          	movd   %ecx,%xmm6
    44c9:	0f b6 4c 24 90       	movzbl -0x70(%rsp),%ecx
    44ce:	66 0f 62 c6          	punpckldq %xmm6,%xmm0
    44d2:	d3 e0                	shl    %cl,%eax
    44d4:	44 89 f1             	mov    %r14d,%ecx
    44d7:	66 42 0f d6 04 26    	movq   %xmm0,(%rsi,%r12,1)
    44dd:	29 c1                	sub    %eax,%ecx
    44df:	85 c9                	test   %ecx,%ecx
    44e1:	0f 8e ab 01 00 00    	jle    4692 <riscv_dsp_cfft_rd4_q31+0x362>
    44e7:	48 98                	cltq   
    44e9:	48 63 c9             	movslq %ecx,%rcx
    44ec:	41 8b 44 85 00       	mov    0x0(%r13,%rax,4),%eax
    44f1:	45 8b 54 8d 00       	mov    0x0(%r13,%rcx,4),%r10d
    44f6:	48 98                	cltq   
    44f8:	4d 63 d2             	movslq %r10d,%r10
    44fb:	48 89 c1             	mov    %rax,%rcx
    44fe:	49 0f af c1          	imul   %r9,%rax
    4502:	4c 89 d3             	mov    %r10,%rbx
    4505:	49 0f af c8          	imul   %r8,%rcx
    4509:	49 0f af d9          	imul   %r9,%rbx
    450d:	4d 0f af d0          	imul   %r8,%r10
    4511:	48 01 d9             	add    %rbx,%rcx
    4514:	48 c1 f9 20          	sar    $0x20,%rcx
    4518:	4c 29 d0             	sub    %r10,%rax
    451b:	48 c1 f8 20          	sar    $0x20,%rax
    451f:	66 0f 6e c1          	movd   %ecx,%xmm0
    4523:	0f b6 4c 24 90       	movzbl -0x70(%rsp),%ecx
    4528:	66 0f 6e e0          	movd   %eax,%xmm4
    452c:	43 8d 04 7f          	lea    (%r15,%r15,2),%eax
    4530:	d3 e0                	shl    %cl,%eax
    4532:	44 89 f1             	mov    %r14d,%ecx
    4535:	66 0f 62 c4          	punpckldq %xmm4,%xmm0
    4539:	29 c1                	sub    %eax,%ecx
    453b:	66 41 0f d6 03       	movq   %xmm0,(%r11)
    4540:	85 c9                	test   %ecx,%ecx
    4542:	0f 8e 22 01 00 00    	jle    466a <riscv_dsp_cfft_rd4_q31+0x33a>
    4548:	48 98                	cltq   
    454a:	48 63 c9             	movslq %ecx,%rcx
    454d:	41 8b 44 85 00       	mov    0x0(%r13,%rax,4),%eax
    4552:	45 8b 44 8d 00       	mov    0x0(%r13,%rcx,4),%r8d
    4557:	48 98                	cltq   
    4559:	4d 63 c0             	movslq %r8d,%r8
    455c:	48 83 c6 08          	add    $0x8,%rsi
    4560:	49 83 c3 08          	add    $0x8,%r11
    4564:	48 89 c1             	mov    %rax,%rcx
    4567:	48 0f af c2          	imul   %rdx,%rax
    456b:	4d 89 c1             	mov    %r8,%r9
    456e:	48 0f af cf          	imul   %rdi,%rcx
    4572:	4c 0f af ca          	imul   %rdx,%r9
    4576:	4c 0f af c7          	imul   %rdi,%r8
    457a:	4c 01 c9             	add    %r9,%rcx
    457d:	4c 29 c0             	sub    %r8,%rax
    4580:	48 c1 f9 20          	sar    $0x20,%rcx
    4584:	48 c1 f8 20          	sar    $0x20,%rax
    4588:	66 0f 6e c1          	movd   %ecx,%xmm0
    458c:	66 0f 6e f0          	movd   %eax,%xmm6
    4590:	66 0f 62 c6          	punpckldq %xmm6,%xmm0
    4594:	66 43 0f d6 44 23 f8 	movq   %xmm0,-0x8(%r11,%r12,1)
    459b:	48 39 74 24 a0       	cmp    %rsi,-0x60(%rsp)
    45a0:	0f 84 bc 01 00 00    	je     4762 <riscv_dsp_cfft_rd4_q31+0x432>
    45a6:	41 8b 13             	mov    (%r11),%edx
    45a9:	8b 06                	mov    (%rsi),%eax
    45ab:	41 83 c7 01          	add    $0x1,%r15d
    45af:	43 8b 3c 23          	mov    (%r11,%r12,1),%edi
    45b3:	d1 fa                	sar    %edx
    45b5:	d1 f8                	sar    %eax
    45b7:	44 8d 04 10          	lea    (%rax,%rdx,1),%r8d
    45bb:	29 d0                	sub    %edx,%eax
    45bd:	42 8b 14 26          	mov    (%rsi,%r12,1),%edx
    45c1:	d1 ff                	sar    %edi
    45c3:	41 d1 f8             	sar    %r8d
    45c6:	d1 f8                	sar    %eax
    45c8:	d1 fa                	sar    %edx
    45ca:	8d 0c 3a             	lea    (%rdx,%rdi,1),%ecx
    45cd:	29 fa                	sub    %edi,%edx
    45cf:	d1 f9                	sar    %ecx
    45d1:	d1 fa                	sar    %edx
    45d3:	41 8d 3c 08          	lea    (%r8,%rcx,1),%edi
    45d7:	41 29 c8             	sub    %ecx,%r8d
    45da:	8b 4e 04             	mov    0x4(%rsi),%ecx
    45dd:	d1 ff                	sar    %edi
    45df:	4d 63 c0             	movslq %r8d,%r8
    45e2:	89 3e                	mov    %edi,(%rsi)
    45e4:	41 8b 7b 04          	mov    0x4(%r11),%edi
    45e8:	d1 f9                	sar    %ecx
    45ea:	47 8b 54 23 04       	mov    0x4(%r11,%r12,1),%r10d
    45ef:	d1 ff                	sar    %edi
    45f1:	44 8d 0c 39          	lea    (%rcx,%rdi,1),%r9d
    45f5:	29 f9                	sub    %edi,%ecx
    45f7:	42 8b 7c 26 04       	mov    0x4(%rsi,%r12,1),%edi
    45fc:	41 d1 fa             	sar    %r10d
    45ff:	d1 f9                	sar    %ecx
    4601:	41 d1 f9             	sar    %r9d
    4604:	d1 ff                	sar    %edi
    4606:	89 cd                	mov    %ecx,%ebp
    4608:	42 8d 0c 17          	lea    (%rdi,%r10,1),%ecx
    460c:	44 29 d7             	sub    %r10d,%edi
    460f:	d1 f9                	sar    %ecx
    4611:	d1 ff                	sar    %edi
    4613:	45 8d 14 09          	lea    (%r9,%rcx,1),%r10d
    4617:	41 29 c9             	sub    %ecx,%r9d
    461a:	0f b6 4c 24 90       	movzbl -0x70(%rsp),%ecx
    461f:	41 d1 fa             	sar    %r10d
    4622:	4d 63 c9             	movslq %r9d,%r9
    4625:	44 89 56 04          	mov    %r10d,0x4(%rsi)
    4629:	47 8d 14 3f          	lea    (%r15,%r15,1),%r10d
    462d:	41 d3 e2             	shl    %cl,%r10d
    4630:	49 63 ca             	movslq %r10d,%rcx
    4633:	45 89 f2             	mov    %r14d,%r10d
    4636:	41 29 ca             	sub    %ecx,%r10d
    4639:	45 85 d2             	test   %r10d,%r10d
    463c:	0f 8f 23 fe ff ff    	jg     4465 <riscv_dsp_cfft_rd4_q31+0x135>
    4642:	44 8d 91 00 ff ff ff 	lea    -0x100(%rcx),%r10d
    4649:	44 89 f3             	mov    %r14d,%ebx
    464c:	44 29 d3             	sub    %r10d,%ebx
    464f:	85 db                	test   %ebx,%ebx
    4651:	7e 6b                	jle    46be <riscv_dsp_cfft_rd4_q31+0x38e>
    4653:	48 63 db             	movslq %ebx,%rbx
    4656:	4d 63 d2             	movslq %r10d,%r10
    4659:	41 8b 4c 9d 00       	mov    0x0(%r13,%rbx,4),%ecx
    465e:	43 8b 5c 95 00       	mov    0x0(%r13,%r10,4),%ebx
    4663:	f7 d9                	neg    %ecx
    4665:	e9 08 fe ff ff       	jmp    4472 <riscv_dsp_cfft_rd4_q31+0x142>
    466a:	8d 88 00 ff ff ff    	lea    -0x100(%rax),%ecx
    4670:	45 89 f0             	mov    %r14d,%r8d
    4673:	41 29 c8             	sub    %ecx,%r8d
    4676:	45 85 c0             	test   %r8d,%r8d
    4679:	7e 79                	jle    46f4 <riscv_dsp_cfft_rd4_q31+0x3c4>
    467b:	4d 63 c0             	movslq %r8d,%r8
    467e:	48 63 c9             	movslq %ecx,%rcx
    4681:	43 8b 44 85 00       	mov    0x0(%r13,%r8,4),%eax
    4686:	45 8b 44 8d 00       	mov    0x0(%r13,%rcx,4),%r8d
    468b:	f7 d8                	neg    %eax
    468d:	e9 c5 fe ff ff       	jmp    4557 <riscv_dsp_cfft_rd4_q31+0x227>
    4692:	8d 88 00 ff ff ff    	lea    -0x100(%rax),%ecx
    4698:	45 89 f2             	mov    %r14d,%r10d
    469b:	41 29 ca             	sub    %ecx,%r10d
    469e:	45 85 d2             	test   %r10d,%r10d
    46a1:	0f 8e 84 00 00 00    	jle    472b <riscv_dsp_cfft_rd4_q31+0x3fb>
    46a7:	4d 63 d2             	movslq %r10d,%r10
    46aa:	48 63 c9             	movslq %ecx,%rcx
    46ad:	43 8b 44 95 00       	mov    0x0(%r13,%r10,4),%eax
    46b2:	45 8b 54 8d 00       	mov    0x0(%r13,%rcx,4),%r10d
    46b7:	f7 d8                	neg    %eax
    46b9:	e9 38 fe ff ff       	jmp    44f6 <riscv_dsp_cfft_rd4_q31+0x1c6>
    46be:	8d 99 00 fe ff ff    	lea    -0x200(%rcx),%ebx
    46c4:	45 89 f2             	mov    %r14d,%r10d
    46c7:	41 29 da             	sub    %ebx,%r10d
    46ca:	48 63 db             	movslq %ebx,%rbx
    46cd:	41 8b 5c 9d 00       	mov    0x0(%r13,%rbx,4),%ebx
    46d2:	49 63 ca             	movslq %r10d,%rcx
    46d5:	41 8b 4c 8d 00       	mov    0x0(%r13,%rcx,4),%ecx
    46da:	f7 db                	neg    %ebx
    46dc:	45 85 d2             	test   %r10d,%r10d
    46df:	0f 8e 8d fd ff ff    	jle    4472 <riscv_dsp_cfft_rd4_q31+0x142>
    46e5:	f7 d9                	neg    %ecx
    46e7:	41 89 ca             	mov    %ecx,%r10d
    46ea:	89 d9                	mov    %ebx,%ecx
    46ec:	44 89 d3             	mov    %r10d,%ebx
    46ef:	e9 7e fd ff ff       	jmp    4472 <riscv_dsp_cfft_rd4_q31+0x142>
    46f4:	8d 88 00 fe ff ff    	lea    -0x200(%rax),%ecx
    46fa:	45 89 f1             	mov    %r14d,%r9d
    46fd:	41 29 c9             	sub    %ecx,%r9d
    4700:	48 63 c9             	movslq %ecx,%rcx
    4703:	45 8b 44 8d 00       	mov    0x0(%r13,%rcx,4),%r8d
    4708:	49 63 c1             	movslq %r9d,%rax
    470b:	41 8b 44 85 00       	mov    0x0(%r13,%rax,4),%eax
    4710:	41 f7 d8             	neg    %r8d
    4713:	45 85 c9             	test   %r9d,%r9d
    4716:	0f 8e 3b fe ff ff    	jle    4557 <riscv_dsp_cfft_rd4_q31+0x227>
    471c:	f7 d8                	neg    %eax
    471e:	89 c1                	mov    %eax,%ecx
    4720:	44 89 c0             	mov    %r8d,%eax
    4723:	41 89 c8             	mov    %ecx,%r8d
    4726:	e9 2c fe ff ff       	jmp    4557 <riscv_dsp_cfft_rd4_q31+0x227>
    472b:	44 8d 90 00 fe ff ff 	lea    -0x200(%rax),%r10d
    4732:	44 89 f1             	mov    %r14d,%ecx
    4735:	44 29 d1             	sub    %r10d,%ecx
    4738:	4d 63 d2             	movslq %r10d,%r10
    473b:	47 8b 54 95 00       	mov    0x0(%r13,%r10,4),%r10d
    4740:	48 63 c1             	movslq %ecx,%rax
    4743:	41 8b 44 85 00       	mov    0x0(%r13,%rax,4),%eax
    4748:	41 f7 da             	neg    %r10d
    474b:	85 c9                	test   %ecx,%ecx
    474d:	0f 8e a3 fd ff ff    	jle    44f6 <riscv_dsp_cfft_rd4_q31+0x1c6>
    4753:	f7 d8                	neg    %eax
    4755:	89 c1                	mov    %eax,%ecx
    4757:	44 89 d0             	mov    %r10d,%eax
    475a:	41 89 ca             	mov    %ecx,%r10d
    475d:	e9 94 fd ff ff       	jmp    44f6 <riscv_dsp_cfft_rd4_q31+0x1c6>
    4762:	8b 5c 24 ec          	mov    -0x14(%rsp),%ebx
    4766:	8b 7c 24 f4          	mov    -0xc(%rsp),%edi
    476a:	c7 44 24 bc 04 00 00 	movl   $0x4,-0x44(%rsp)
    4771:	00 
    4772:	89 d8                	mov    %ebx,%eax
    4774:	89 7c 24 d4          	mov    %edi,-0x2c(%rsp)
    4778:	d1 e8                	shr    %eax
    477a:	83 e8 02             	sub    $0x2,%eax
    477d:	89 44 24 e8          	mov    %eax,-0x18(%rsp)
    4781:	0f 84 96 03 00 00    	je     4b1d <riscv_dsp_cfft_rd4_q31+0x7ed>
    4787:	b8 0a 00 00 00       	mov    $0xa,%eax
    478c:	29 d8                	sub    %ebx,%eax
    478e:	89 44 24 d0          	mov    %eax,-0x30(%rsp)
    4792:	66 0f 1f 44 00 00    	nopw   0x0(%rax,%rax,1)
    4798:	48 8b 44 24 d8       	mov    -0x28(%rsp),%rax
    479d:	8b 74 24 bc          	mov    -0x44(%rsp),%esi
    47a1:	c1 6c 24 d4 02       	shrl   $0x2,-0x2c(%rsp)
    47a6:	44 8b 7c 24 d4       	mov    -0x2c(%rsp),%r15d
    47ab:	4e 8d 34 bd 00 00 00 	lea    0x0(,%r15,4),%r14
    47b2:	00 
    47b3:	4c 01 f0             	add    %r14,%rax
    47b6:	48 89 44 24 c0       	mov    %rax,-0x40(%rsp)
    47bb:	85 f6                	test   %esi,%esi
    47bd:	0f 84 cd 00 00 00    	je     4890 <riscv_dsp_cfft_rd4_q31+0x560>
    47c3:	4d 89 fd             	mov    %r15,%r13
    47c6:	48 8b 54 24 d8       	mov    -0x28(%rsp),%rdx
    47cb:	44 8b 64 24 bc       	mov    -0x44(%rsp),%r12d
    47d0:	4a 8d 34 30          	lea    (%rax,%r14,1),%rsi
    47d4:	49 c1 e5 04          	shl    $0x4,%r13
    47d8:	0f 1f 84 00 00 00 00 	nopl   0x0(%rax,%rax,1)
    47df:	00 
    47e0:	8b 02                	mov    (%rdx),%eax
    47e2:	42 8b 0c 32          	mov    (%rdx,%r14,1),%ecx
    47e6:	42 8b 1c 36          	mov    (%rsi,%r14,1),%ebx
    47ea:	44 8b 06             	mov    (%rsi),%r8d
    47ed:	44 8b 4a 04          	mov    0x4(%rdx),%r9d
    47f1:	41 01 c0             	add    %eax,%r8d
    47f4:	01 cb                	add    %ecx,%ebx
    47f6:	2b 06                	sub    (%rsi),%eax
    47f8:	42 2b 0c 36          	sub    (%rsi,%r14,1),%ecx
    47fc:	41 d1 f8             	sar    %r8d
    47ff:	d1 fb                	sar    %ebx
    4801:	41 8d 3c 18          	lea    (%r8,%rbx,1),%edi
    4805:	d1 f8                	sar    %eax
    4807:	41 29 d8             	sub    %ebx,%r8d
    480a:	d1 f9                	sar    %ecx
    480c:	d1 ff                	sar    %edi
    480e:	41 d1 f8             	sar    %r8d
    4811:	89 3a                	mov    %edi,(%rdx)
    4813:	46 8b 54 32 04       	mov    0x4(%rdx,%r14,1),%r10d
    4818:	46 8b 5c 36 04       	mov    0x4(%rsi,%r14,1),%r11d
    481d:	8b 7e 04             	mov    0x4(%rsi),%edi
    4820:	45 01 d3             	add    %r10d,%r11d
    4823:	44 01 cf             	add    %r9d,%edi
    4826:	46 2b 54 36 04       	sub    0x4(%rsi,%r14,1),%r10d
    482b:	44 2b 4e 04          	sub    0x4(%rsi),%r9d
    482f:	d1 ff                	sar    %edi
    4831:	41 d1 fb             	sar    %r11d
    4834:	42 8d 2c 1f          	lea    (%rdi,%r11,1),%ebp
    4838:	41 d1 fa             	sar    %r10d
    483b:	44 29 df             	sub    %r11d,%edi
    483e:	41 d1 f9             	sar    %r9d
    4841:	d1 ff                	sar    %edi
    4843:	d1 fd                	sar    %ebp
    4845:	89 6a 04             	mov    %ebp,0x4(%rdx)
    4848:	42 89 7c 32 04       	mov    %edi,0x4(%rdx,%r14,1)
    484d:	42 8d 3c 10          	lea    (%rax,%r10,1),%edi
    4851:	44 29 d0             	sub    %r10d,%eax
    4854:	d1 ff                	sar    %edi
    4856:	46 89 04 32          	mov    %r8d,(%rdx,%r14,1)
    485a:	66 0f 6e c0          	movd   %eax,%xmm0
    485e:	4c 01 ea             	add    %r13,%rdx
    4861:	89 3e                	mov    %edi,(%rsi)
    4863:	44 89 cf             	mov    %r9d,%edi
    4866:	29 cf                	sub    %ecx,%edi
    4868:	44 01 c9             	add    %r9d,%ecx
    486b:	66 0f 6e d9          	movd   %ecx,%xmm3
    486f:	d1 ff                	sar    %edi
    4871:	66 0f 62 c3          	punpckldq %xmm3,%xmm0
    4875:	89 7e 04             	mov    %edi,0x4(%rsi)
    4878:	66 0f 72 e0 01       	psrad  $0x1,%xmm0
    487d:	66 42 0f d6 04 36    	movq   %xmm0,(%rsi,%r14,1)
    4883:	4c 01 ee             	add    %r13,%rsi
    4886:	41 83 ec 01          	sub    $0x1,%r12d
    488a:	0f 85 50 ff ff ff    	jne    47e0 <riscv_dsp_cfft_rd4_q31+0x4b0>
    4890:	48 8b 5c 24 c0       	mov    -0x40(%rsp),%rbx
    4895:	48 39 5c 24 e0       	cmp    %rbx,-0x20(%rsp)
    489a:	0f 84 6d 02 00 00    	je     4b0d <riscv_dsp_cfft_rd4_q31+0x7dd>
    48a0:	4a 8d 04 fd 00 00 00 	lea    0x0(,%r15,8),%rax
    48a7:	00 
    48a8:	c7 44 24 b8 00 00 00 	movl   $0x0,-0x48(%rsp)
    48af:	00 
    48b0:	4c 89 fb             	mov    %r15,%rbx
    48b3:	48 89 44 24 c8       	mov    %rax,-0x38(%rsp)
    48b8:	48 8b 44 24 e0       	mov    -0x20(%rsp),%rax
    48bd:	48 c1 e3 04          	shl    $0x4,%rbx
    48c1:	48 89 44 24 b0       	mov    %rax,-0x50(%rsp)
    48c6:	66 2e 0f 1f 84 00 00 	cs nopw 0x0(%rax,%rax,1)
    48cd:	00 00 00 
    48d0:	8b 7c 24 bc          	mov    -0x44(%rsp),%edi
    48d4:	0f b6 4c 24 d0       	movzbl -0x30(%rsp),%ecx
    48d9:	ba 00 01 00 00       	mov    $0x100,%edx
    48de:	01 7c 24 b8          	add    %edi,-0x48(%rsp)
    48e2:	8b 44 24 b8          	mov    -0x48(%rsp),%eax
    48e6:	d3 e0                	shl    %cl,%eax
    48e8:	29 c2                	sub    %eax,%edx
    48ea:	85 d2                	test   %edx,%edx
    48ec:	0f 8e 76 0b 00 00    	jle    5468 <riscv_dsp_cfft_rd4_q31+0x1138>
    48f2:	48 8d 3d 4f 44 00 00 	lea    0x444f(%rip),%rdi        # 8d48 <riscv_dsp_cos_table_q31_1024+0x8>
    48f9:	48 98                	cltq   
    48fb:	48 63 d2             	movslq %edx,%rdx
    48fe:	8b 04 87             	mov    (%rdi,%rax,4),%eax
    4901:	44 8b 2c 97          	mov    (%rdi,%rdx,4),%r13d
    4905:	8b 7c 24 b8          	mov    -0x48(%rsp),%edi
    4909:	0f b6 4c 24 d0       	movzbl -0x30(%rsp),%ecx
    490e:	8d 14 3f             	lea    (%rdi,%rdi,1),%edx
    4911:	d3 e2                	shl    %cl,%edx
    4913:	b9 00 01 00 00       	mov    $0x100,%ecx
    4918:	29 d1                	sub    %edx,%ecx
    491a:	85 c9                	test   %ecx,%ecx
    491c:	0f 8e d6 0a 00 00    	jle    53f8 <riscv_dsp_cfft_rd4_q31+0x10c8>
    4922:	48 63 d2             	movslq %edx,%rdx
    4925:	48 8d 3d 1c 44 00 00 	lea    0x441c(%rip),%rdi        # 8d48 <riscv_dsp_cos_table_q31_1024+0x8>
    492c:	48 63 c9             	movslq %ecx,%rcx
    492f:	8b 34 97             	mov    (%rdi,%rdx,4),%esi
    4932:	8b 14 8f             	mov    (%rdi,%rcx,4),%edx
    4935:	8b 7c 24 b8          	mov    -0x48(%rsp),%edi
    4939:	0f b6 4c 24 d0       	movzbl -0x30(%rsp),%ecx
    493e:	8d 3c 7f             	lea    (%rdi,%rdi,2),%edi
    4941:	d3 e7                	shl    %cl,%edi
    4943:	48 63 cf             	movslq %edi,%rcx
    4946:	bf 00 01 00 00       	mov    $0x100,%edi
    494b:	29 cf                	sub    %ecx,%edi
    494d:	85 ff                	test   %edi,%edi
    494f:	0f 8e db 0a 00 00    	jle    5430 <riscv_dsp_cfft_rd4_q31+0x1100>
    4955:	4c 8d 15 ec 43 00 00 	lea    0x43ec(%rip),%r10        # 8d48 <riscv_dsp_cos_table_q31_1024+0x8>
    495c:	48 63 ff             	movslq %edi,%rdi
    495f:	41 8b 2c 8a          	mov    (%r10,%rcx,4),%ebp
    4963:	45 8b 24 ba          	mov    (%r10,%rdi,4),%r12d
    4967:	8b 4c 24 bc          	mov    -0x44(%rsp),%ecx
    496b:	85 c9                	test   %ecx,%ecx
    496d:	0f 84 84 01 00 00    	je     4af7 <riscv_dsp_cfft_rd4_q31+0x7c7>
    4973:	48 98                	cltq   
    4975:	48 63 fe             	movslq %esi,%rdi
    4978:	4c 8b 44 24 c8       	mov    -0x38(%rsp),%r8
    497d:	4d 63 ed             	movslq %r13d,%r13
    4980:	48 89 44 24 a8       	mov    %rax,-0x58(%rsp)
    4985:	8b 44 24 bc          	mov    -0x44(%rsp),%eax
    4989:	48 63 ed             	movslq %ebp,%rbp
    498c:	4d 63 e4             	movslq %r12d,%r12
    498f:	48 89 7c 24 90       	mov    %rdi,-0x70(%rsp)
    4994:	48 63 fa             	movslq %edx,%rdi
    4997:	48 89 7c 24 98       	mov    %rdi,-0x68(%rsp)
    499c:	48 8b 7c 24 b0       	mov    -0x50(%rsp),%rdi
    49a1:	89 44 24 a0          	mov    %eax,-0x60(%rsp)
    49a5:	49 01 f8             	add    %rdi,%r8
    49a8:	0f 1f 84 00 00 00 00 	nopl   0x0(%rax,%rax,1)
    49af:	00 
    49b0:	42 8b 04 37          	mov    (%rdi,%r14,1),%eax
    49b4:	8b 0f                	mov    (%rdi),%ecx
    49b6:	41 8b 30             	mov    (%r8),%esi
    49b9:	43 8b 14 30          	mov    (%r8,%r14,1),%edx
    49bd:	01 ce                	add    %ecx,%esi
    49bf:	01 c2                	add    %eax,%edx
    49c1:	41 2b 08             	sub    (%r8),%ecx
    49c4:	43 2b 04 30          	sub    (%r8,%r14,1),%eax
    49c8:	d1 fa                	sar    %edx
    49ca:	d1 fe                	sar    %esi
    49cc:	44 8d 0c 16          	lea    (%rsi,%rdx,1),%r9d
    49d0:	d1 f8                	sar    %eax
    49d2:	29 d6                	sub    %edx,%esi
    49d4:	d1 f9                	sar    %ecx
    49d6:	41 d1 f9             	sar    %r9d
    49d9:	48 63 f6             	movslq %esi,%rsi
    49dc:	44 89 0f             	mov    %r9d,(%rdi)
    49df:	44 8b 4f 04          	mov    0x4(%rdi),%r9d
    49e3:	46 8b 54 37 04       	mov    0x4(%rdi,%r14,1),%r10d
    49e8:	41 8b 50 04          	mov    0x4(%r8),%edx
    49ec:	47 8b 5c 30 04       	mov    0x4(%r8,%r14,1),%r11d
    49f1:	44 01 ca             	add    %r9d,%edx
    49f4:	45 2b 48 04          	sub    0x4(%r8),%r9d
    49f8:	d1 fa                	sar    %edx
    49fa:	45 01 d3             	add    %r10d,%r11d
    49fd:	47 2b 54 30 04       	sub    0x4(%r8,%r14,1),%r10d
    4a02:	41 d1 f9             	sar    %r9d
    4a05:	41 d1 fb             	sar    %r11d
    4a08:	41 d1 fa             	sar    %r10d
    4a0b:	46 8d 3c 1a          	lea    (%rdx,%r11,1),%r15d
    4a0f:	44 29 da             	sub    %r11d,%edx
    4a12:	4c 8b 5c 24 90       	mov    -0x70(%rsp),%r11
    4a17:	41 d1 ff             	sar    %r15d
    4a1a:	48 63 d2             	movslq %edx,%rdx
    4a1d:	44 89 7f 04          	mov    %r15d,0x4(%rdi)
    4a21:	4c 8b 7c 24 98       	mov    -0x68(%rsp),%r15
    4a26:	4c 0f af de          	imul   %rsi,%r11
    4a2a:	48 0f af 74 24 98    	imul   -0x68(%rsp),%rsi
    4a30:	4c 0f af fa          	imul   %rdx,%r15
    4a34:	48 0f af 54 24 90    	imul   -0x70(%rsp),%rdx
    4a3a:	4d 01 fb             	add    %r15,%r11
    4a3d:	4c 8b 7c 24 a8       	mov    -0x58(%rsp),%r15
    4a42:	48 29 f2             	sub    %rsi,%rdx
    4a45:	44 89 ce             	mov    %r9d,%esi
    4a48:	49 c1 fb 20          	sar    $0x20,%r11
    4a4c:	48 c1 fa 20          	sar    $0x20,%rdx
    4a50:	29 c6                	sub    %eax,%esi
    4a52:	66 41 0f 6e c3       	movd   %r11d,%xmm0
    4a57:	44 01 c8             	add    %r9d,%eax
    4a5a:	66 0f 6e ea          	movd   %edx,%xmm5
    4a5e:	48 63 f6             	movslq %esi,%rsi
    4a61:	42 8d 14 11          	lea    (%rcx,%r10,1),%edx
    4a65:	4d 89 f9             	mov    %r15,%r9
    4a68:	44 29 d1             	sub    %r10d,%ecx
    4a6b:	48 63 d2             	movslq %edx,%rdx
    4a6e:	49 89 f2             	mov    %rsi,%r10
    4a71:	48 98                	cltq   
    4a73:	4c 0f af ca          	imul   %rdx,%r9
    4a77:	48 63 c9             	movslq %ecx,%rcx
    4a7a:	66 0f 62 c5          	punpckldq %xmm5,%xmm0
    4a7e:	4d 0f af d5          	imul   %r13,%r10
    4a82:	66 42 0f d6 04 37    	movq   %xmm0,(%rdi,%r14,1)
    4a88:	48 01 df             	add    %rbx,%rdi
    4a8b:	49 0f af d5          	imul   %r13,%rdx
    4a8f:	49 0f af f7          	imul   %r15,%rsi
    4a93:	4d 01 d1             	add    %r10,%r9
    4a96:	49 c1 f9 20          	sar    $0x20,%r9
    4a9a:	48 29 d6             	sub    %rdx,%rsi
    4a9d:	48 89 ca             	mov    %rcx,%rdx
    4aa0:	66 41 0f 6e c1       	movd   %r9d,%xmm0
    4aa5:	48 c1 fe 20          	sar    $0x20,%rsi
    4aa9:	48 0f af d5          	imul   %rbp,%rdx
    4aad:	66 0f 6e fe          	movd   %esi,%xmm7
    4ab1:	49 0f af cc          	imul   %r12,%rcx
    4ab5:	48 89 c6             	mov    %rax,%rsi
    4ab8:	49 0f af f4          	imul   %r12,%rsi
    4abc:	66 0f 62 c7          	punpckldq %xmm7,%xmm0
    4ac0:	48 0f af c5          	imul   %rbp,%rax
    4ac4:	66 41 0f d6 00       	movq   %xmm0,(%r8)
    4ac9:	48 01 f2             	add    %rsi,%rdx
    4acc:	48 29 c8             	sub    %rcx,%rax
    4acf:	48 c1 fa 20          	sar    $0x20,%rdx
    4ad3:	48 c1 f8 20          	sar    $0x20,%rax
    4ad7:	66 0f 6e c2          	movd   %edx,%xmm0
    4adb:	66 0f 6e d0          	movd   %eax,%xmm2
    4adf:	66 0f 62 c2          	punpckldq %xmm2,%xmm0
    4ae3:	66 43 0f d6 04 30    	movq   %xmm0,(%r8,%r14,1)
    4ae9:	49 01 d8             	add    %rbx,%r8
    4aec:	83 6c 24 a0 01       	subl   $0x1,-0x60(%rsp)
    4af1:	0f 85 b9 fe ff ff    	jne    49b0 <riscv_dsp_cfft_rd4_q31+0x680>
    4af7:	48 83 44 24 b0 08    	addq   $0x8,-0x50(%rsp)
    4afd:	48 8b 44 24 b0       	mov    -0x50(%rsp),%rax
    4b02:	48 39 44 24 c0       	cmp    %rax,-0x40(%rsp)
    4b07:	0f 85 c3 fd ff ff    	jne    48d0 <riscv_dsp_cfft_rd4_q31+0x5a0>
    4b0d:	c1 64 24 bc 02       	shll   $0x2,-0x44(%rsp)
    4b12:	83 6c 24 e8 01       	subl   $0x1,-0x18(%rsp)
    4b17:	0f 85 7b fc ff ff    	jne    4798 <riscv_dsp_cfft_rd4_q31+0x468>
    4b1d:	8b 44 24 f0          	mov    -0x10(%rsp),%eax
    4b21:	01 c0                	add    %eax,%eax
    4b23:	48 c1 e0 02          	shl    $0x2,%rax
    4b27:	48 89 c2             	mov    %rax,%rdx
    4b2a:	0f 84 6e 06 00 00    	je     519e <riscv_dsp_cfft_rd4_q31+0xe6e>
    4b30:	48 83 ea 20          	sub    $0x20,%rdx
    4b34:	48 8b 5c 24 d8       	mov    -0x28(%rsp),%rbx
    4b39:	48 89 d6             	mov    %rdx,%rsi
    4b3c:	48 c1 ee 05          	shr    $0x5,%rsi
    4b40:	48 89 d8             	mov    %rbx,%rax
    4b43:	48 8d 4e 01          	lea    0x1(%rsi),%rcx
    4b47:	48 83 fa 40          	cmp    $0x40,%rdx
    4b4b:	0f 86 17 0a 00 00    	jbe    5568 <riscv_dsp_cfft_rd4_q31+0x1238>
    4b51:	48 89 ca             	mov    %rcx,%rdx
    4b54:	48 c1 ea 02          	shr    $0x2,%rdx
    4b58:	48 c1 e2 07          	shl    $0x7,%rdx
    4b5c:	48 01 da             	add    %rbx,%rdx
    4b5f:	f3 0f 6f 08          	movdqu (%rax),%xmm1
    4b63:	f3 0f 6f 70 10       	movdqu 0x10(%rax),%xmm6
    4b68:	48 83 e8 80          	sub    $0xffffffffffffff80,%rax
    4b6c:	f3 0f 6f 60 a0       	movdqu -0x60(%rax),%xmm4
    4b71:	f3 0f 6f 50 c0       	movdqu -0x40(%rax),%xmm2
    4b76:	66 0f 6f c1          	movdqa %xmm1,%xmm0
    4b7a:	0f c6 ce dd          	shufps $0xdd,%xmm6,%xmm1
    4b7e:	f3 0f 6f 68 d0       	movdqu -0x30(%rax),%xmm5
    4b83:	f3 0f 6f 58 e0       	movdqu -0x20(%rax),%xmm3
    4b88:	0f c6 c6 88          	shufps $0x88,%xmm6,%xmm0
    4b8c:	f3 0f 6f 70 b0       	movdqu -0x50(%rax),%xmm6
    4b91:	66 44 0f 6f c4       	movdqa %xmm4,%xmm8
    4b96:	66 0f 6f fb          	movdqa %xmm3,%xmm7
    4b9a:	44 0f c6 c6 88       	shufps $0x88,%xmm6,%xmm8
    4b9f:	0f c6 e6 dd          	shufps $0xdd,%xmm6,%xmm4
    4ba3:	66 0f 6f f2          	movdqa %xmm2,%xmm6
    4ba7:	0f c6 d5 dd          	shufps $0xdd,%xmm5,%xmm2
    4bab:	0f c6 f5 88          	shufps $0x88,%xmm5,%xmm6
    4baf:	f3 0f 6f 68 f0       	movdqu -0x10(%rax),%xmm5
    4bb4:	66 44 0f 6f ce       	movdqa %xmm6,%xmm9
    4bb9:	0f c6 fd 88          	shufps $0x88,%xmm5,%xmm7
    4bbd:	0f c6 dd dd          	shufps $0xdd,%xmm5,%xmm3
    4bc1:	66 0f 6f e8          	movdqa %xmm0,%xmm5
    4bc5:	0f c6 f7 dd          	shufps $0xdd,%xmm7,%xmm6
    4bc9:	44 0f c6 cf 88       	shufps $0x88,%xmm7,%xmm9
    4bce:	41 0f c6 e8 88       	shufps $0x88,%xmm8,%xmm5
    4bd3:	41 0f c6 c0 dd       	shufps $0xdd,%xmm8,%xmm0
    4bd8:	66 0f 6f fa          	movdqa %xmm2,%xmm7
    4bdc:	66 44 0f 6f c1       	movdqa %xmm1,%xmm8
    4be1:	0f c6 fb 88          	shufps $0x88,%xmm3,%xmm7
    4be5:	0f c6 d3 dd          	shufps $0xdd,%xmm3,%xmm2
    4be9:	0f c6 cc dd          	shufps $0xdd,%xmm4,%xmm1
    4bed:	44 0f c6 c4 88       	shufps $0x88,%xmm4,%xmm8
    4bf2:	66 0f 6f d8          	movdqa %xmm0,%xmm3
    4bf6:	66 0f 6f e5          	movdqa %xmm5,%xmm4
    4bfa:	0f c6 c6 dd          	shufps $0xdd,%xmm6,%xmm0
    4bfe:	41 0f c6 e9 dd       	shufps $0xdd,%xmm9,%xmm5
    4c03:	41 0f c6 e1 88       	shufps $0x88,%xmm9,%xmm4
    4c08:	0f c6 de 88          	shufps $0x88,%xmm6,%xmm3
    4c0c:	66 45 0f 6f d8       	movdqa %xmm8,%xmm11
    4c11:	66 44 0f 6f d1       	movdqa %xmm1,%xmm10
    4c16:	66 44 0f 6f c8       	movdqa %xmm0,%xmm9
    4c1b:	0f c6 ca dd          	shufps $0xdd,%xmm2,%xmm1
    4c1f:	66 0f 6f f1          	movdqa %xmm1,%xmm6
    4c23:	44 0f c6 df 88       	shufps $0x88,%xmm7,%xmm11
    4c28:	44 0f c6 c7 dd       	shufps $0xdd,%xmm7,%xmm8
    4c2d:	44 0f c6 d2 88       	shufps $0x88,%xmm2,%xmm10
    4c32:	66 0f 6f fd          	movdqa %xmm5,%xmm7
    4c36:	66 44 0f fe cb       	paddd  %xmm3,%xmm9
    4c3b:	66 41 0f fe f2       	paddd  %xmm10,%xmm6
    4c40:	66 41 0f 6f d3       	movdqa %xmm11,%xmm2
    4c45:	66 0f fa d8          	psubd  %xmm0,%xmm3
    4c49:	66 44 0f fa d1       	psubd  %xmm1,%xmm10
    4c4e:	66 41 0f 6f c0       	movdqa %xmm8,%xmm0
    4c53:	66 41 0f 72 e1 01    	psrad  $0x1,%xmm9
    4c59:	66 0f 72 e6 01       	psrad  $0x1,%xmm6
    4c5e:	66 0f fe fc          	paddd  %xmm4,%xmm7
    4c62:	66 41 0f fe c3       	paddd  %xmm11,%xmm0
    4c67:	66 41 0f 6f ca       	movdqa %xmm10,%xmm1
    4c6c:	66 0f fa e5          	psubd  %xmm5,%xmm4
    4c70:	66 0f 72 e1 01       	psrad  $0x1,%xmm1
    4c75:	66 0f 72 e7 01       	psrad  $0x1,%xmm7
    4c7a:	66 0f 6f eb          	movdqa %xmm3,%xmm5
    4c7e:	66 0f 72 e0 01       	psrad  $0x1,%xmm0
    4c83:	66 41 0f 6f d9       	movdqa %xmm9,%xmm3
    4c88:	66 41 0f fa d0       	psubd  %xmm8,%xmm2
    4c8d:	66 44 0f 6f c6       	movdqa %xmm6,%xmm8
    4c92:	66 0f 72 e2 01       	psrad  $0x1,%xmm2
    4c97:	66 0f fe df          	paddd  %xmm7,%xmm3
    4c9b:	66 0f 72 e4 01       	psrad  $0x1,%xmm4
    4ca0:	66 44 0f fe c0       	paddd  %xmm0,%xmm8
    4ca5:	66 0f fa c6          	psubd  %xmm6,%xmm0
    4ca9:	66 0f 6f f1          	movdqa %xmm1,%xmm6
    4cad:	66 0f 72 e5 01       	psrad  $0x1,%xmm5
    4cb2:	66 41 0f fa f9       	psubd  %xmm9,%xmm7
    4cb7:	66 0f 72 e3 01       	psrad  $0x1,%xmm3
    4cbc:	66 0f fe f4          	paddd  %xmm4,%xmm6
    4cc0:	66 44 0f 6f ca       	movdqa %xmm2,%xmm9
    4cc5:	66 0f fa e1          	psubd  %xmm1,%xmm4
    4cc9:	66 0f 6f ca          	movdqa %xmm2,%xmm1
    4ccd:	66 44 0f fa cd       	psubd  %xmm5,%xmm9
    4cd2:	66 0f 72 e7 01       	psrad  $0x1,%xmm7
    4cd7:	66 0f 72 e6 01       	psrad  $0x1,%xmm6
    4cdc:	66 0f fe cd          	paddd  %xmm5,%xmm1
    4ce0:	66 41 0f 72 e0 01    	psrad  $0x1,%xmm8
    4ce6:	66 0f 6f eb          	movdqa %xmm3,%xmm5
    4cea:	66 44 0f 6f df       	movdqa %xmm7,%xmm11
    4cef:	66 41 0f 72 e1 01    	psrad  $0x1,%xmm9
    4cf5:	66 0f 72 e4 01       	psrad  $0x1,%xmm4
    4cfa:	66 0f 6a de          	punpckhdq %xmm6,%xmm3
    4cfe:	66 0f 72 e0 01       	psrad  $0x1,%xmm0
    4d03:	66 0f 62 ee          	punpckldq %xmm6,%xmm5
    4d07:	66 45 0f 6f d0       	movdqa %xmm8,%xmm10
    4d0c:	66 0f 6f d7          	movdqa %xmm7,%xmm2
    4d10:	66 0f 72 e1 01       	psrad  $0x1,%xmm1
    4d15:	66 45 0f 62 d1       	punpckldq %xmm9,%xmm10
    4d1a:	66 0f 6a d4          	punpckhdq %xmm4,%xmm2
    4d1e:	66 45 0f 6a c1       	punpckhdq %xmm9,%xmm8
    4d23:	66 44 0f 62 dc       	punpckldq %xmm4,%xmm11
    4d28:	66 44 0f 6f c8       	movdqa %xmm0,%xmm9
    4d2d:	66 0f 6f f5          	movdqa %xmm5,%xmm6
    4d31:	66 0f 6f e3          	movdqa %xmm3,%xmm4
    4d35:	66 0f 6a c1          	punpckhdq %xmm1,%xmm0
    4d39:	66 44 0f 62 c9       	punpckldq %xmm1,%xmm9
    4d3e:	66 0f 62 e2          	punpckldq %xmm2,%xmm4
    4d42:	66 0f 6a da          	punpckhdq %xmm2,%xmm3
    4d46:	66 41 0f 62 f3       	punpckldq %xmm11,%xmm6
    4d4b:	66 41 0f 6f d0       	movdqa %xmm8,%xmm2
    4d50:	66 41 0f 6f fa       	movdqa %xmm10,%xmm7
    4d55:	66 0f 62 d0          	punpckldq %xmm0,%xmm2
    4d59:	66 44 0f 6a c0       	punpckhdq %xmm0,%xmm8
    4d5e:	66 41 0f 62 f9       	punpckldq %xmm9,%xmm7
    4d63:	66 0f 6f c6          	movdqa %xmm6,%xmm0
    4d67:	66 41 0f 6a eb       	punpckhdq %xmm11,%xmm5
    4d6c:	66 0f 62 c7          	punpckldq %xmm7,%xmm0
    4d70:	66 41 0f 6f ca       	movdqa %xmm10,%xmm1
    4d75:	66 0f 6a f7          	punpckhdq %xmm7,%xmm6
    4d79:	66 41 0f 6a c9       	punpckhdq %xmm9,%xmm1
    4d7e:	0f 11 40 80          	movups %xmm0,-0x80(%rax)
    4d82:	66 0f 6f c5          	movdqa %xmm5,%xmm0
    4d86:	66 0f 62 c1          	punpckldq %xmm1,%xmm0
    4d8a:	66 0f 6a e9          	punpckhdq %xmm1,%xmm5
    4d8e:	0f 11 70 90          	movups %xmm6,-0x70(%rax)
    4d92:	0f 11 40 a0          	movups %xmm0,-0x60(%rax)
    4d96:	66 0f 6f c4          	movdqa %xmm4,%xmm0
    4d9a:	66 0f 6a e2          	punpckhdq %xmm2,%xmm4
    4d9e:	66 0f 62 c2          	punpckldq %xmm2,%xmm0
    4da2:	0f 11 68 b0          	movups %xmm5,-0x50(%rax)
    4da6:	0f 11 40 c0          	movups %xmm0,-0x40(%rax)
    4daa:	66 0f 6f c3          	movdqa %xmm3,%xmm0
    4dae:	66 41 0f 6a d8       	punpckhdq %xmm8,%xmm3
    4db3:	66 41 0f 62 c0       	punpckldq %xmm8,%xmm0
    4db8:	0f 11 60 d0          	movups %xmm4,-0x30(%rax)
    4dbc:	0f 11 40 e0          	movups %xmm0,-0x20(%rax)
    4dc0:	0f 11 58 f0          	movups %xmm3,-0x10(%rax)
    4dc4:	48 39 d0             	cmp    %rdx,%rax
    4dc7:	0f 85 92 fd ff ff    	jne    4b5f <riscv_dsp_cfft_rd4_q31+0x82f>
    4dcd:	48 89 c8             	mov    %rcx,%rax
    4dd0:	48 83 e0 fc          	and    $0xfffffffffffffffc,%rax
    4dd4:	48 89 c2             	mov    %rax,%rdx
    4dd7:	48 c1 e2 05          	shl    $0x5,%rdx
    4ddb:	48 03 54 24 d8       	add    -0x28(%rsp),%rdx
    4de0:	48 39 c8             	cmp    %rcx,%rax
    4de3:	0f 84 b5 03 00 00    	je     519e <riscv_dsp_cfft_rd4_q31+0xe6e>
    4de9:	48 29 c1             	sub    %rax,%rcx
    4dec:	48 39 f0             	cmp    %rsi,%rax
    4def:	0f 84 fb 02 00 00    	je     50f0 <riscv_dsp_cfft_rd4_q31+0xdc0>
    4df5:	48 c1 e0 05          	shl    $0x5,%rax
    4df9:	48 03 44 24 d8       	add    -0x28(%rsp),%rax
    4dfe:	f3 0f 7e 10          	movq   (%rax),%xmm2
    4e02:	f3 0f 7e 48 20       	movq   0x20(%rax),%xmm1
    4e07:	f3 0f 7e 78 08       	movq   0x8(%rax),%xmm7
    4e0c:	f3 0f 7e 70 28       	movq   0x28(%rax),%xmm6
    4e11:	f3 0f 7e 68 10       	movq   0x10(%rax),%xmm5
    4e16:	f3 0f 7e 60 30       	movq   0x30(%rax),%xmm4
    4e1b:	66 0f 6f c2          	movdqa %xmm2,%xmm0
    4e1f:	66 0f 6f da          	movdqa %xmm2,%xmm3
    4e23:	f3 44 0f 7e 48 18    	movq   0x18(%rax),%xmm9
    4e29:	66 0f 6f d1          	movdqa %xmm1,%xmm2
    4e2d:	66 0f 62 c7          	punpckldq %xmm7,%xmm0
    4e31:	66 0f 62 df          	punpckldq %xmm7,%xmm3
    4e35:	f3 44 0f 7e 40 38    	movq   0x38(%rax),%xmm8
    4e3b:	66 0f 62 d6          	punpckldq %xmm6,%xmm2
    4e3f:	66 0f 6f fd          	movdqa %xmm5,%xmm7
    4e43:	66 0f 62 ce          	punpckldq %xmm6,%xmm1
    4e47:	66 0f 6f f4          	movdqa %xmm4,%xmm6
    4e4b:	66 41 0f 62 f9       	punpckldq %xmm9,%xmm7
    4e50:	66 41 0f 62 e9       	punpckldq %xmm9,%xmm5
    4e55:	66 41 0f 62 f0       	punpckldq %xmm8,%xmm6
    4e5a:	66 44 0f 6f c8       	movdqa %xmm0,%xmm9
    4e5f:	66 44 0f 6f d2       	movdqa %xmm2,%xmm10
    4e64:	66 44 0f 62 d6       	punpckldq %xmm6,%xmm10
    4e69:	66 44 0f 62 cf       	punpckldq %xmm7,%xmm9
    4e6e:	66 0f 70 db 0e       	pshufd $0xe,%xmm3,%xmm3
    4e73:	66 0f 70 c9 0e       	pshufd $0xe,%xmm1,%xmm1
    4e78:	66 41 0f 62 e0       	punpckldq %xmm8,%xmm4
    4e7d:	66 0f 62 c7          	punpckldq %xmm7,%xmm0
    4e81:	66 0f 62 d6          	punpckldq %xmm6,%xmm2
    4e85:	66 0f 70 ed 0e       	pshufd $0xe,%xmm5,%xmm5
    4e8a:	66 0f 70 e4 0e       	pshufd $0xe,%xmm4,%xmm4
    4e8f:	66 0f 70 d2 0e       	pshufd $0xe,%xmm2,%xmm2
    4e94:	66 0f 70 c0 0e       	pshufd $0xe,%xmm0,%xmm0
    4e99:	66 44 0f 6f c3       	movdqa %xmm3,%xmm8
    4e9e:	66 0f 6f f9          	movdqa %xmm1,%xmm7
    4ea2:	66 41 0f 6f f1       	movdqa %xmm9,%xmm6
    4ea7:	66 45 0f 62 ca       	punpckldq %xmm10,%xmm9
    4eac:	66 0f 62 fc          	punpckldq %xmm4,%xmm7
    4eb0:	66 45 0f 70 c9 0e    	pshufd $0xe,%xmm9,%xmm9
    4eb6:	66 44 0f 62 c5       	punpckldq %xmm5,%xmm8
    4ebb:	66 0f 62 dd          	punpckldq %xmm5,%xmm3
    4ebf:	66 0f 62 cc          	punpckldq %xmm4,%xmm1
    4ec3:	66 0f 6f e0          	movdqa %xmm0,%xmm4
    4ec7:	66 0f 62 c2          	punpckldq %xmm2,%xmm0
    4ecb:	66 0f 70 c9 0e       	pshufd $0xe,%xmm1,%xmm1
    4ed0:	66 41 0f 62 f2       	punpckldq %xmm10,%xmm6
    4ed5:	66 0f 62 e2          	punpckldq %xmm2,%xmm4
    4ed9:	66 0f 70 c0 0e       	pshufd $0xe,%xmm0,%xmm0
    4ede:	66 0f 70 db 0e       	pshufd $0xe,%xmm3,%xmm3
    4ee3:	66 41 0f 6f e8       	movdqa %xmm8,%xmm5
    4ee8:	66 41 0f 6f d1       	movdqa %xmm9,%xmm2
    4eed:	66 44 0f 62 c7       	punpckldq %xmm7,%xmm8
    4ef2:	66 0f 62 ef          	punpckldq %xmm7,%xmm5
    4ef6:	66 45 0f 70 c0 0e    	pshufd $0xe,%xmm8,%xmm8
    4efc:	66 0f fe d6          	paddd  %xmm6,%xmm2
    4f00:	66 0f 6f fb          	movdqa %xmm3,%xmm7
    4f04:	66 41 0f fa f1       	psubd  %xmm9,%xmm6
    4f09:	66 0f 62 d9          	punpckldq %xmm1,%xmm3
    4f0d:	66 44 0f 6f c8       	movdqa %xmm0,%xmm9
    4f12:	66 0f 70 db 0e       	pshufd $0xe,%xmm3,%xmm3
    4f17:	66 0f 62 f9          	punpckldq %xmm1,%xmm7
    4f1b:	66 44 0f fe cc       	paddd  %xmm4,%xmm9
    4f20:	66 0f fa e0          	psubd  %xmm0,%xmm4
    4f24:	66 41 0f 6f c0       	movdqa %xmm8,%xmm0
    4f29:	66 0f 72 e2 01       	psrad  $0x1,%xmm2
    4f2e:	66 0f 72 e6 01       	psrad  $0x1,%xmm6
    4f33:	66 0f fe c5          	paddd  %xmm5,%xmm0
    4f37:	66 41 0f fa e8       	psubd  %xmm8,%xmm5
    4f3c:	66 44 0f 6f c3       	movdqa %xmm3,%xmm8
    4f41:	66 41 0f 72 e1 01    	psrad  $0x1,%xmm9
    4f47:	66 0f 72 e4 01       	psrad  $0x1,%xmm4
    4f4c:	66 44 0f fe c7       	paddd  %xmm7,%xmm8
    4f51:	66 0f fa fb          	psubd  %xmm3,%xmm7
    4f55:	66 0f 72 e0 01       	psrad  $0x1,%xmm0
    4f5a:	66 41 0f 6f c9       	movdqa %xmm9,%xmm1
    4f5f:	66 0f 72 e5 01       	psrad  $0x1,%xmm5
    4f64:	66 0f fe ca          	paddd  %xmm2,%xmm1
    4f68:	66 41 0f fa d1       	psubd  %xmm9,%xmm2
    4f6d:	66 41 0f 72 e0 01    	psrad  $0x1,%xmm8
    4f73:	66 0f 72 e7 01       	psrad  $0x1,%xmm7
    4f78:	66 41 0f 6f d8       	movdqa %xmm8,%xmm3
    4f7d:	66 0f fe d8          	paddd  %xmm0,%xmm3
    4f81:	66 44 0f 6f cf       	movdqa %xmm7,%xmm9
    4f86:	66 41 0f fa c0       	psubd  %xmm8,%xmm0
    4f8b:	66 44 0f 6f c5       	movdqa %xmm5,%xmm8
    4f90:	66 44 0f fe ce       	paddd  %xmm6,%xmm9
    4f95:	66 0f fe ec          	paddd  %xmm4,%xmm5
    4f99:	66 44 0f fa c4       	psubd  %xmm4,%xmm8
    4f9e:	66 0f fa f7          	psubd  %xmm7,%xmm6
    4fa2:	66 0f 72 e1 01       	psrad  $0x1,%xmm1
    4fa7:	66 0f 72 e3 01       	psrad  $0x1,%xmm3
    4fac:	66 0f 72 e2 01       	psrad  $0x1,%xmm2
    4fb1:	66 0f 6f e1          	movdqa %xmm1,%xmm4
    4fb5:	66 41 0f 72 e1 01    	psrad  $0x1,%xmm9
    4fbb:	66 0f 72 e5 01       	psrad  $0x1,%xmm5
    4fc0:	66 0f 6f fb          	movdqa %xmm3,%xmm7
    4fc4:	66 41 0f 72 e0 01    	psrad  $0x1,%xmm8
    4fca:	66 0f 72 e6 01       	psrad  $0x1,%xmm6
    4fcf:	66 41 0f 62 e1       	punpckldq %xmm9,%xmm4
    4fd4:	66 0f 72 e0 01       	psrad  $0x1,%xmm0
    4fd9:	66 41 0f 62 c9       	punpckldq %xmm9,%xmm1
    4fde:	66 41 0f 62 d8       	punpckldq %xmm8,%xmm3
    4fe3:	66 44 0f 6f ca       	movdqa %xmm2,%xmm9
    4fe8:	66 41 0f 62 f8       	punpckldq %xmm8,%xmm7
    4fed:	66 0f 70 db 0e       	pshufd $0xe,%xmm3,%xmm3
    4ff2:	66 44 0f 62 ce       	punpckldq %xmm6,%xmm9
    4ff7:	66 44 0f 6f d0       	movdqa %xmm0,%xmm10
    4ffc:	66 44 0f 6f c4       	movdqa %xmm4,%xmm8
    5001:	66 0f 62 c5          	punpckldq %xmm5,%xmm0
    5005:	66 44 0f 62 d5       	punpckldq %xmm5,%xmm10
    500a:	66 45 0f 62 c1       	punpckldq %xmm9,%xmm8
    500f:	66 0f 70 c0 0e       	pshufd $0xe,%xmm0,%xmm0
    5014:	66 41 0f 62 e1       	punpckldq %xmm9,%xmm4
    5019:	66 0f 6f ef          	movdqa %xmm7,%xmm5
    501d:	66 44 0f 6f cf       	movdqa %xmm7,%xmm9
    5022:	66 0f 6f fb          	movdqa %xmm3,%xmm7
    5026:	66 0f 62 d8          	punpckldq %xmm0,%xmm3
    502a:	66 0f 62 f8          	punpckldq %xmm0,%xmm7
    502e:	66 45 0f 62 ca       	punpckldq %xmm10,%xmm9
    5033:	66 41 0f 6f c0       	movdqa %xmm8,%xmm0
    5038:	66 0f 70 c9 0e       	pshufd $0xe,%xmm1,%xmm1
    503d:	66 0f 62 d6          	punpckldq %xmm6,%xmm2
    5041:	66 0f 70 e4 0e       	pshufd $0xe,%xmm4,%xmm4
    5046:	66 41 0f 62 c1       	punpckldq %xmm9,%xmm0
    504b:	66 41 0f 62 ea       	punpckldq %xmm10,%xmm5
    5050:	66 0f 70 d2 0e       	pshufd $0xe,%xmm2,%xmm2
    5055:	66 0f 6f f1          	movdqa %xmm1,%xmm6
    5059:	66 0f 70 ed 0e       	pshufd $0xe,%xmm5,%xmm5
    505e:	66 0f d6 00          	movq   %xmm0,(%rax)
    5062:	66 0f 6f c4          	movdqa %xmm4,%xmm0
    5066:	66 0f 62 f2          	punpckldq %xmm2,%xmm6
    506a:	66 0f 62 c5          	punpckldq %xmm5,%xmm0
    506e:	66 0f 62 ca          	punpckldq %xmm2,%xmm1
    5072:	66 0f d6 40 10       	movq   %xmm0,0x10(%rax)
    5077:	66 0f 6f c6          	movdqa %xmm6,%xmm0
    507b:	66 0f 70 c9 0e       	pshufd $0xe,%xmm1,%xmm1
    5080:	66 0f 70 db 0e       	pshufd $0xe,%xmm3,%xmm3
    5085:	66 0f 62 c7          	punpckldq %xmm7,%xmm0
    5089:	66 45 0f 62 c1       	punpckldq %xmm9,%xmm8
    508e:	66 0f 62 e5          	punpckldq %xmm5,%xmm4
    5092:	66 0f d6 40 20       	movq   %xmm0,0x20(%rax)
    5097:	66 0f 62 f7          	punpckldq %xmm7,%xmm6
    509b:	66 0f 6f c1          	movdqa %xmm1,%xmm0
    509f:	66 0f 62 cb          	punpckldq %xmm3,%xmm1
    50a3:	66 45 0f 70 c0 0e    	pshufd $0xe,%xmm8,%xmm8
    50a9:	66 0f 70 e4 0e       	pshufd $0xe,%xmm4,%xmm4
    50ae:	66 0f 70 f6 0e       	pshufd $0xe,%xmm6,%xmm6
    50b3:	66 0f 62 c3          	punpckldq %xmm3,%xmm0
    50b7:	66 0f 70 c9 0e       	pshufd $0xe,%xmm1,%xmm1
    50bc:	66 44 0f d6 40 08    	movq   %xmm8,0x8(%rax)
    50c2:	66 0f d6 60 18       	movq   %xmm4,0x18(%rax)
    50c7:	66 0f d6 70 28       	movq   %xmm6,0x28(%rax)
    50cc:	66 0f d6 40 30       	movq   %xmm0,0x30(%rax)
    50d1:	66 0f d6 48 38       	movq   %xmm1,0x38(%rax)
    50d6:	48 89 c8             	mov    %rcx,%rax
    50d9:	48 83 e0 fe          	and    $0xfffffffffffffffe,%rax
    50dd:	48 89 c6             	mov    %rax,%rsi
    50e0:	48 c1 e6 05          	shl    $0x5,%rsi
    50e4:	48 01 f2             	add    %rsi,%rdx
    50e7:	48 39 c8             	cmp    %rcx,%rax
    50ea:	0f 84 ae 00 00 00    	je     519e <riscv_dsp_cfft_rd4_q31+0xe6e>
    50f0:	44 8b 02             	mov    (%rdx),%r8d
    50f3:	8b 72 08             	mov    0x8(%rdx),%esi
    50f6:	8b 42 10             	mov    0x10(%rdx),%eax
    50f9:	44 8b 5a 18          	mov    0x18(%rdx),%r11d
    50fd:	8b 4a 04             	mov    0x4(%rdx),%ecx
    5100:	8b 7a 0c             	mov    0xc(%rdx),%edi
    5103:	44 8b 4a 14          	mov    0x14(%rdx),%r9d
    5107:	44 8b 52 1c          	mov    0x1c(%rdx),%r10d
    510b:	44 01 c0             	add    %r8d,%eax
    510e:	41 01 f3             	add    %esi,%r11d
    5111:	d1 f8                	sar    %eax
    5113:	41 d1 fb             	sar    %r11d
    5116:	44 2b 42 10          	sub    0x10(%rdx),%r8d
    511a:	2b 72 18             	sub    0x18(%rdx),%esi
    511d:	41 01 c9             	add    %ecx,%r9d
    5120:	41 01 fa             	add    %edi,%r10d
    5123:	41 8d 1c 03          	lea    (%r11,%rax,1),%ebx
    5127:	44 29 d8             	sub    %r11d,%eax
    512a:	41 d1 f9             	sar    %r9d
    512d:	41 d1 fa             	sar    %r10d
    5130:	66 0f 6e c3          	movd   %ebx,%xmm0
    5134:	66 0f 6e c8          	movd   %eax,%xmm1
    5138:	43 8d 1c 0a          	lea    (%r10,%r9,1),%ebx
    513c:	45 29 d1             	sub    %r10d,%r9d
    513f:	2b 7a 1c             	sub    0x1c(%rdx),%edi
    5142:	41 d1 f8             	sar    %r8d
    5145:	d1 ff                	sar    %edi
    5147:	66 41 0f 6e e1       	movd   %r9d,%xmm4
    514c:	2b 4a 14             	sub    0x14(%rdx),%ecx
    514f:	d1 fe                	sar    %esi
    5151:	66 0f 62 cc          	punpckldq %xmm4,%xmm1
    5155:	66 0f 6e e3          	movd   %ebx,%xmm4
    5159:	42 8d 04 07          	lea    (%rdi,%r8,1),%eax
    515d:	d1 f9                	sar    %ecx
    515f:	66 0f 62 c4          	punpckldq %xmm4,%xmm0
    5163:	41 29 f8             	sub    %edi,%r8d
    5166:	66 0f 6c c1          	punpcklqdq %xmm1,%xmm0
    516a:	66 41 0f 6e c8       	movd   %r8d,%xmm1
    516f:	66 0f 72 e0 01       	psrad  $0x1,%xmm0
    5174:	0f 11 02             	movups %xmm0,(%rdx)
    5177:	66 0f 6e c0          	movd   %eax,%xmm0
    517b:	89 c8                	mov    %ecx,%eax
    517d:	01 f1                	add    %esi,%ecx
    517f:	66 0f 6e e1          	movd   %ecx,%xmm4
    5183:	29 f0                	sub    %esi,%eax
    5185:	66 0f 62 cc          	punpckldq %xmm4,%xmm1
    5189:	66 0f 6e e0          	movd   %eax,%xmm4
    518d:	66 0f 62 c4          	punpckldq %xmm4,%xmm0
    5191:	66 0f 6c c1          	punpcklqdq %xmm1,%xmm0
    5195:	66 0f 72 e0 01       	psrad  $0x1,%xmm0
    519a:	0f 11 42 10          	movups %xmm0,0x10(%rdx)
    519e:	44 8b 64 24 f4       	mov    -0xc(%rsp),%r12d
    51a3:	0f b6 4c 24 ec       	movzbl -0x14(%rsp),%ecx
    51a8:	b8 02 00 00 00       	mov    $0x2,%eax
    51ad:	48 8b 5c 24 d8       	mov    -0x28(%rsp),%rbx
    51b2:	d3 e0                	shl    %cl,%eax
    51b4:	43 8d 14 24          	lea    (%r12,%r12,1),%edx
    51b8:	45 89 e6             	mov    %r12d,%r14d
    51bb:	48 8d 7c 83 fc       	lea    -0x4(%rbx,%rax,4),%rdi
    51c0:	48 89 d0             	mov    %rdx,%rax
    51c3:	48 8d 14 93          	lea    (%rbx,%rdx,4),%rdx
    51c7:	8b 4b 08             	mov    0x8(%rbx),%ecx
    51ca:	8b 32                	mov    (%rdx),%esi
    51cc:	83 c0 01             	add    $0x1,%eax
    51cf:	48 8d 04 83          	lea    (%rbx,%rax,4),%rax
    51d3:	89 73 08             	mov    %esi,0x8(%rbx)
    51d6:	48 89 de             	mov    %rbx,%rsi
    51d9:	89 0a                	mov    %ecx,(%rdx)
    51db:	8b 08                	mov    (%rax),%ecx
    51dd:	8b 53 0c             	mov    0xc(%rbx),%edx
    51e0:	89 4b 0c             	mov    %ecx,0xc(%rbx)
    51e3:	8b 5c 24 f0          	mov    -0x10(%rsp),%ebx
    51e7:	b9 04 00 00 00       	mov    $0x4,%ecx
    51ec:	89 10                	mov    %edx,(%rax)
    51ee:	44 89 e0             	mov    %r12d,%eax
    51f1:	ba 04 00 00 00       	mov    $0x4,%edx
    51f6:	41 89 d9             	mov    %ebx,%r9d
    51f9:	c1 eb 03             	shr    $0x3,%ebx
    51fc:	41 c1 e9 02          	shr    $0x2,%r9d
    5200:	41 89 da             	mov    %ebx,%r10d
    5203:	45 31 ce             	xor    %r9d,%r14d
    5206:	44 31 f3             	xor    %r14d,%ebx
    5209:	45 89 f3             	mov    %r14d,%r11d
    520c:	89 5c 24 90          	mov    %ebx,-0x70(%rsp)
    5210:	44 31 d8             	xor    %r11d,%eax
    5213:	41 85 c1             	test   %eax,%r9d
    5216:	75 13                	jne    522b <riscv_dsp_cfft_rd4_q31+0xefb>
    5218:	45 89 c8             	mov    %r9d,%r8d
    521b:	0f 1f 44 00 00       	nopl   0x0(%rax,%rax,1)
    5220:	41 d1 e8             	shr    %r8d
    5223:	44 31 c0             	xor    %r8d,%eax
    5226:	41 85 c0             	test   %eax,%r8d
    5229:	74 f5                	je     5220 <riscv_dsp_cfft_rd4_q31+0xef0>
    522b:	44 8d 41 fe          	lea    -0x2(%rcx),%r8d
    522f:	44 39 c0             	cmp    %r8d,%eax
    5232:	0f 86 81 00 00 00    	jbe    52b9 <riscv_dsp_cfft_rd4_q31+0xf89>
    5238:	41 89 d0             	mov    %edx,%r8d
    523b:	8d 1c 00             	lea    (%rax,%rax,1),%ebx
    523e:	4e 8d 2c 86          	lea    (%rsi,%r8,4),%r13
    5242:	49 89 d8             	mov    %rbx,%r8
    5245:	48 8d 1c 9e          	lea    (%rsi,%rbx,4),%rbx
    5249:	45 8b 75 00          	mov    0x0(%r13),%r14d
    524d:	44 8b 3b             	mov    (%rbx),%r15d
    5250:	41 83 c0 01          	add    $0x1,%r8d
    5254:	4e 8d 04 86          	lea    (%rsi,%r8,4),%r8
    5258:	45 89 7d 00          	mov    %r15d,0x0(%r13)
    525c:	44 89 33             	mov    %r14d,(%rbx)
    525f:	8d 5a 01             	lea    0x1(%rdx),%ebx
    5262:	45 8b 30             	mov    (%r8),%r14d
    5265:	48 8d 1c 9e          	lea    (%rsi,%rbx,4),%rbx
    5269:	44 8b 2b             	mov    (%rbx),%r13d
    526c:	44 89 33             	mov    %r14d,(%rbx)
    526f:	89 d3                	mov    %edx,%ebx
    5271:	f7 db                	neg    %ebx
    5273:	45 89 28             	mov    %r13d,(%r8)
    5276:	41 89 c0             	mov    %eax,%r8d
    5279:	48 63 db             	movslq %ebx,%rbx
    527c:	41 f7 d8             	neg    %r8d
    527f:	48 c1 e3 02          	shl    $0x2,%rbx
    5283:	45 01 c0             	add    %r8d,%r8d
    5286:	4c 8d 34 1f          	lea    (%rdi,%rbx,1),%r14
    528a:	48 8d 5c 1f fc       	lea    -0x4(%rdi,%rbx,1),%rbx
    528f:	4d 63 c0             	movslq %r8d,%r8
    5292:	45 8b 3e             	mov    (%r14),%r15d
    5295:	49 c1 e0 02          	shl    $0x2,%r8
    5299:	4e 8d 2c 07          	lea    (%rdi,%r8,1),%r13
    529d:	4e 8d 44 07 fc       	lea    -0x4(%rdi,%r8,1),%r8
    52a2:	41 8b 6d 00          	mov    0x0(%r13),%ebp
    52a6:	41 89 2e             	mov    %ebp,(%r14)
    52a9:	45 89 7d 00          	mov    %r15d,0x0(%r13)
    52ad:	44 8b 2b             	mov    (%rbx),%r13d
    52b0:	45 8b 30             	mov    (%r8),%r14d
    52b3:	44 89 33             	mov    %r14d,(%rbx)
    52b6:	45 89 28             	mov    %r13d,(%r8)
    52b9:	44 01 e0             	add    %r12d,%eax
    52bc:	44 8d 42 02          	lea    0x2(%rdx),%r8d
    52c0:	8d 1c 00             	lea    (%rax,%rax,1),%ebx
    52c3:	4e 8d 2c 86          	lea    (%rsi,%r8,4),%r13
    52c7:	49 89 d8             	mov    %rbx,%r8
    52ca:	48 8d 1c 9e          	lea    (%rsi,%rbx,4),%rbx
    52ce:	45 8b 75 00          	mov    0x0(%r13),%r14d
    52d2:	44 8b 3b             	mov    (%rbx),%r15d
    52d5:	41 83 c0 01          	add    $0x1,%r8d
    52d9:	4e 8d 04 86          	lea    (%rsi,%r8,4),%r8
    52dd:	45 89 7d 00          	mov    %r15d,0x0(%r13)
    52e1:	44 89 33             	mov    %r14d,(%rbx)
    52e4:	8d 5a 03             	lea    0x3(%rdx),%ebx
    52e7:	45 8b 30             	mov    (%r8),%r14d
    52ea:	48 8d 1c 9e          	lea    (%rsi,%rbx,4),%rbx
    52ee:	44 8b 2b             	mov    (%rbx),%r13d
    52f1:	44 89 33             	mov    %r14d,(%rbx)
    52f4:	45 89 28             	mov    %r13d,(%r8)
    52f7:	41 39 cc             	cmp    %ecx,%r12d
    52fa:	0f 86 5b 02 00 00    	jbe    555b <riscv_dsp_cfft_rd4_q31+0x122b>
    5300:	33 44 24 90          	xor    -0x70(%rsp),%eax
    5304:	41 85 c2             	test   %eax,%r10d
    5307:	75 12                	jne    531b <riscv_dsp_cfft_rd4_q31+0xfeb>
    5309:	45 89 d0             	mov    %r10d,%r8d
    530c:	0f 1f 40 00          	nopl   0x0(%rax)
    5310:	41 d1 e8             	shr    %r8d
    5313:	44 31 c0             	xor    %r8d,%eax
    5316:	41 85 c0             	test   %eax,%r8d
    5319:	74 f5                	je     5310 <riscv_dsp_cfft_rd4_q31+0xfe0>
    531b:	39 c8                	cmp    %ecx,%eax
    531d:	0f 86 85 00 00 00    	jbe    53a8 <riscv_dsp_cfft_rd4_q31+0x1078>
    5323:	44 8d 42 04          	lea    0x4(%rdx),%r8d
    5327:	8d 1c 00             	lea    (%rax,%rax,1),%ebx
    532a:	4e 8d 2c 86          	lea    (%rsi,%r8,4),%r13
    532e:	49 89 d8             	mov    %rbx,%r8
    5331:	48 8d 1c 9e          	lea    (%rsi,%rbx,4),%rbx
    5335:	45 8b 75 00          	mov    0x0(%r13),%r14d
    5339:	44 8b 3b             	mov    (%rbx),%r15d
    533c:	41 83 c0 01          	add    $0x1,%r8d
    5340:	4e 8d 04 86          	lea    (%rsi,%r8,4),%r8
    5344:	45 89 7d 00          	mov    %r15d,0x0(%r13)
    5348:	44 89 33             	mov    %r14d,(%rbx)
    534b:	8d 5a 05             	lea    0x5(%rdx),%ebx
    534e:	45 8b 30             	mov    (%r8),%r14d
    5351:	48 8d 1c 9e          	lea    (%rsi,%rbx,4),%rbx
    5355:	44 8b 2b             	mov    (%rbx),%r13d
    5358:	44 89 33             	mov    %r14d,(%rbx)
    535b:	bb fc ff ff ff       	mov    $0xfffffffc,%ebx
    5360:	29 d3                	sub    %edx,%ebx
    5362:	45 89 28             	mov    %r13d,(%r8)
    5365:	41 89 c0             	mov    %eax,%r8d
    5368:	48 63 db             	movslq %ebx,%rbx
    536b:	41 f7 d8             	neg    %r8d
    536e:	48 c1 e3 02          	shl    $0x2,%rbx
    5372:	45 01 c0             	add    %r8d,%r8d
    5375:	4c 8d 34 1f          	lea    (%rdi,%rbx,1),%r14
    5379:	48 8d 5c 1f fc       	lea    -0x4(%rdi,%rbx,1),%rbx
    537e:	4d 63 c0             	movslq %r8d,%r8
    5381:	45 8b 3e             	mov    (%r14),%r15d
    5384:	49 c1 e0 02          	shl    $0x2,%r8
    5388:	4e 8d 2c 07          	lea    (%rdi,%r8,1),%r13
    538c:	4e 8d 44 07 fc       	lea    -0x4(%rdi,%r8,1),%r8
    5391:	41 8b 6d 00          	mov    0x0(%r13),%ebp
    5395:	41 89 2e             	mov    %ebp,(%r14)
    5398:	45 89 7d 00          	mov    %r15d,0x0(%r13)
    539c:	44 8b 2b             	mov    (%rbx),%r13d
    539f:	45 8b 30             	mov    (%r8),%r14d
    53a2:	44 89 33             	mov    %r14d,(%rbx)
    53a5:	45 89 28             	mov    %r13d,(%r8)
    53a8:	44 01 e0             	add    %r12d,%eax
    53ab:	44 8d 42 06          	lea    0x6(%rdx),%r8d
    53af:	83 c1 04             	add    $0x4,%ecx
    53b2:	8d 1c 00             	lea    (%rax,%rax,1),%ebx
    53b5:	4e 8d 2c 86          	lea    (%rsi,%r8,4),%r13
    53b9:	49 89 d8             	mov    %rbx,%r8
    53bc:	48 8d 1c 9e          	lea    (%rsi,%rbx,4),%rbx
    53c0:	45 8b 75 00          	mov    0x0(%r13),%r14d
    53c4:	44 8b 3b             	mov    (%rbx),%r15d
    53c7:	41 83 c0 01          	add    $0x1,%r8d
    53cb:	4e 8d 04 86          	lea    (%rsi,%r8,4),%r8
    53cf:	45 89 7d 00          	mov    %r15d,0x0(%r13)
    53d3:	44 89 33             	mov    %r14d,(%rbx)
    53d6:	8d 5a 07             	lea    0x7(%rdx),%ebx
    53d9:	45 8b 30             	mov    (%r8),%r14d
    53dc:	83 c2 08             	add    $0x8,%edx
    53df:	48 8d 1c 9e          	lea    (%rsi,%rbx,4),%rbx
    53e3:	44 8b 2b             	mov    (%rbx),%r13d
    53e6:	44 89 33             	mov    %r14d,(%rbx)
    53e9:	45 89 28             	mov    %r13d,(%r8)
    53ec:	e9 1f fe ff ff       	jmp    5210 <riscv_dsp_cfft_rd4_q31+0xee0>
    53f1:	0f 1f 80 00 00 00 00 	nopl   0x0(%rax)
    53f8:	8d 8a 00 ff ff ff    	lea    -0x100(%rdx),%ecx
    53fe:	be 00 01 00 00       	mov    $0x100,%esi
    5403:	29 ce                	sub    %ecx,%esi
    5405:	85 f6                	test   %esi,%esi
    5407:	0f 8e 93 00 00 00    	jle    54a0 <riscv_dsp_cfft_rd4_q31+0x1170>
    540d:	48 8d 3d 34 39 00 00 	lea    0x3934(%rip),%rdi        # 8d48 <riscv_dsp_cos_table_q31_1024+0x8>
    5414:	48 63 f6             	movslq %esi,%rsi
    5417:	48 63 c9             	movslq %ecx,%rcx
    541a:	8b 34 b7             	mov    (%rdi,%rsi,4),%esi
    541d:	8b 14 8f             	mov    (%rdi,%rcx,4),%edx
    5420:	f7 de                	neg    %esi
    5422:	e9 0e f5 ff ff       	jmp    4935 <riscv_dsp_cfft_rd4_q31+0x605>
    5427:	66 0f 1f 84 00 00 00 	nopw   0x0(%rax,%rax,1)
    542e:	00 00 
    5430:	8d b9 00 ff ff ff    	lea    -0x100(%rcx),%edi
    5436:	41 b8 00 01 00 00    	mov    $0x100,%r8d
    543c:	41 29 f8             	sub    %edi,%r8d
    543f:	45 85 c0             	test   %r8d,%r8d
    5442:	0f 8e 98 00 00 00    	jle    54e0 <riscv_dsp_cfft_rd4_q31+0x11b0>
    5448:	48 8d 0d f9 38 00 00 	lea    0x38f9(%rip),%rcx        # 8d48 <riscv_dsp_cos_table_q31_1024+0x8>
    544f:	4d 63 c0             	movslq %r8d,%r8
    5452:	48 63 ff             	movslq %edi,%rdi
    5455:	42 8b 2c 81          	mov    (%rcx,%r8,4),%ebp
    5459:	44 8b 24 b9          	mov    (%rcx,%rdi,4),%r12d
    545d:	f7 dd                	neg    %ebp
    545f:	e9 03 f5 ff ff       	jmp    4967 <riscv_dsp_cfft_rd4_q31+0x637>
    5464:	0f 1f 40 00          	nopl   0x0(%rax)
    5468:	8d 90 00 ff ff ff    	lea    -0x100(%rax),%edx
    546e:	b9 00 01 00 00       	mov    $0x100,%ecx
    5473:	29 d1                	sub    %edx,%ecx
    5475:	85 c9                	test   %ecx,%ecx
    5477:	0f 8e a3 00 00 00    	jle    5520 <riscv_dsp_cfft_rd4_q31+0x11f0>
    547d:	48 8d 3d c4 38 00 00 	lea    0x38c4(%rip),%rdi        # 8d48 <riscv_dsp_cos_table_q31_1024+0x8>
    5484:	48 63 c9             	movslq %ecx,%rcx
    5487:	48 63 d2             	movslq %edx,%rdx
    548a:	8b 04 8f             	mov    (%rdi,%rcx,4),%eax
    548d:	44 8b 2c 97          	mov    (%rdi,%rdx,4),%r13d
    5491:	f7 d8                	neg    %eax
    5493:	e9 6d f4 ff ff       	jmp    4905 <riscv_dsp_cfft_rd4_q31+0x5d5>
    5498:	0f 1f 84 00 00 00 00 	nopl   0x0(%rax,%rax,1)
    549f:	00 
    54a0:	81 ea 00 02 00 00    	sub    $0x200,%edx
    54a6:	b9 00 01 00 00       	mov    $0x100,%ecx
    54ab:	48 8d 3d 96 38 00 00 	lea    0x3896(%rip),%rdi        # 8d48 <riscv_dsp_cos_table_q31_1024+0x8>
    54b2:	29 d1                	sub    %edx,%ecx
    54b4:	48 63 d2             	movslq %edx,%rdx
    54b7:	8b 14 97             	mov    (%rdi,%rdx,4),%edx
    54ba:	48 63 f1             	movslq %ecx,%rsi
    54bd:	8b 34 b7             	mov    (%rdi,%rsi,4),%esi
    54c0:	f7 da                	neg    %edx
    54c2:	85 c9                	test   %ecx,%ecx
    54c4:	0f 8e 6b f4 ff ff    	jle    4935 <riscv_dsp_cfft_rd4_q31+0x605>
    54ca:	89 f1                	mov    %esi,%ecx
    54cc:	89 d6                	mov    %edx,%esi
    54ce:	f7 d9                	neg    %ecx
    54d0:	89 ca                	mov    %ecx,%edx
    54d2:	e9 5e f4 ff ff       	jmp    4935 <riscv_dsp_cfft_rd4_q31+0x605>
    54d7:	66 0f 1f 84 00 00 00 	nopw   0x0(%rax,%rax,1)
    54de:	00 00 
    54e0:	81 e9 00 02 00 00    	sub    $0x200,%ecx
    54e6:	bf 00 01 00 00       	mov    $0x100,%edi
    54eb:	4c 8d 15 56 38 00 00 	lea    0x3856(%rip),%r10        # 8d48 <riscv_dsp_cos_table_q31_1024+0x8>
    54f2:	29 cf                	sub    %ecx,%edi
    54f4:	48 63 c9             	movslq %ecx,%rcx
    54f7:	45 8b 24 8a          	mov    (%r10,%rcx,4),%r12d
    54fb:	4c 63 c7             	movslq %edi,%r8
    54fe:	43 8b 2c 82          	mov    (%r10,%r8,4),%ebp
    5502:	41 f7 dc             	neg    %r12d
    5505:	85 ff                	test   %edi,%edi
    5507:	0f 8e 5a f4 ff ff    	jle    4967 <riscv_dsp_cfft_rd4_q31+0x637>
    550d:	89 e9                	mov    %ebp,%ecx
    550f:	44 89 e5             	mov    %r12d,%ebp
    5512:	f7 d9                	neg    %ecx
    5514:	41 89 cc             	mov    %ecx,%r12d
    5517:	e9 4b f4 ff ff       	jmp    4967 <riscv_dsp_cfft_rd4_q31+0x637>
    551c:	0f 1f 40 00          	nopl   0x0(%rax)
    5520:	8d 90 00 fe ff ff    	lea    -0x200(%rax),%edx
    5526:	b9 00 01 00 00       	mov    $0x100,%ecx
    552b:	48 8d 3d 16 38 00 00 	lea    0x3816(%rip),%rdi        # 8d48 <riscv_dsp_cos_table_q31_1024+0x8>
    5532:	29 d1                	sub    %edx,%ecx
    5534:	48 63 d2             	movslq %edx,%rdx
    5537:	44 8b 2c 97          	mov    (%rdi,%rdx,4),%r13d
    553b:	48 63 c1             	movslq %ecx,%rax
    553e:	8b 04 87             	mov    (%rdi,%rax,4),%eax
    5541:	41 f7 dd             	neg    %r13d
    5544:	85 c9                	test   %ecx,%ecx
    5546:	0f 8e b9 f3 ff ff    	jle    4905 <riscv_dsp_cfft_rd4_q31+0x5d5>
    554c:	f7 d8                	neg    %eax
    554e:	89 c2                	mov    %eax,%edx
    5550:	44 89 e8             	mov    %r13d,%eax
    5553:	41 89 d5             	mov    %edx,%r13d
    5556:	e9 aa f3 ff ff       	jmp    4905 <riscv_dsp_cfft_rd4_q31+0x5d5>
    555b:	5b                   	pop    %rbx
    555c:	31 c0                	xor    %eax,%eax
    555e:	5d                   	pop    %rbp
    555f:	41 5c                	pop    %r12
    5561:	41 5d                	pop    %r13
    5563:	41 5e                	pop    %r14
    5565:	41 5f                	pop    %r15
    5567:	c3                   	ret    
    5568:	48 89 da             	mov    %rbx,%rdx
    556b:	31 c0                	xor    %eax,%eax
    556d:	e9 77 f8 ff ff       	jmp    4de9 <riscv_dsp_cfft_rd4_q31+0xab9>
    5572:	66 2e 0f 1f 84 00 00 	cs nopw 0x0(%rax,%rax,1)
    5579:	00 00 00 
    557c:	0f 1f 40 00          	nopl   0x0(%rax)

0000000000005580 <riscv_dsp_cifft_rd4_q31>:
    5580:	f3 0f 1e fa          	endbr64 
    5584:	41 57                	push   %r15
    5586:	89 f1                	mov    %esi,%ecx
    5588:	b8 01 00 00 00       	mov    $0x1,%eax
    558d:	49 89 ff             	mov    %rdi,%r15
    5590:	41 56                	push   %r14
    5592:	d3 e0                	shl    %cl,%eax
    5594:	41 55                	push   %r13
    5596:	41 54                	push   %r12
    5598:	55                   	push   %rbp
    5599:	53                   	push   %rbx
    559a:	48 83 ec 20          	sub    $0x20,%rsp
    559e:	89 44 24 10          	mov    %eax,0x10(%rsp)
    55a2:	d1 e8                	shr    %eax
    55a4:	89 c3                	mov    %eax,%ebx
    55a6:	89 44 24 14          	mov    %eax,0x14(%rsp)
    55aa:	8b 07                	mov    (%rdi),%eax
    55ac:	48 c1 e3 02          	shl    $0x2,%rbx
    55b0:	89 74 24 0c          	mov    %esi,0xc(%rsp)
    55b4:	4c 8d 34 1f          	lea    (%rdi,%rbx,1),%r14
    55b8:	48 89 7c 24 f8       	mov    %rdi,-0x8(%rsp)
    55bd:	4d 8d 04 1e          	lea    (%r14,%rbx,1),%r8
    55c1:	41 8b 16             	mov    (%r14),%edx
    55c4:	4c 89 74 24 a8       	mov    %r14,-0x58(%rsp)
    55c9:	4d 8d 1c 18          	lea    (%r8,%rbx,1),%r11
    55cd:	45 8b 10             	mov    (%r8),%r10d
    55d0:	41 8b 2b             	mov    (%r11),%ebp
    55d3:	41 01 c2             	add    %eax,%r10d
    55d6:	41 2b 00             	sub    (%r8),%eax
    55d9:	01 d5                	add    %edx,%ebp
