
t_mfcc_q15:     file format elf64-x86-64


Disassembly of section .init:

0000000000001000 <_init>:
    1000:	f3 0f 1e fa          	endbr64 
    1004:	48 83 ec 08          	sub    $0x8,%rsp
    1008:	48 8b 05 d9 af 00 00 	mov    0xafd9(%rip),%rax        # bfe8 <__gmon_start__@Base>
    100f:	48 85 c0             	test   %rax,%rax
    1012:	74 02                	je     1016 <_init+0x16>
    1014:	ff d0                	call   *%rax
    1016:	48 83 c4 08          	add    $0x8,%rsp
    101a:	c3                   	ret    

Disassembly of section .plt:

0000000000001020 <.plt>:
    1020:	ff 35 5a af 00 00    	push   0xaf5a(%rip)        # bf80 <_GLOBAL_OFFSET_TABLE_+0x8>
    1026:	f2 ff 25 5b af 00 00 	bnd jmp *0xaf5b(%rip)        # bf88 <_GLOBAL_OFFSET_TABLE_+0x10>
    102d:	0f 1f 00             	nopl   (%rax)
    1030:	f3 0f 1e fa          	endbr64 
    1034:	68 00 00 00 00       	push   $0x0
    1039:	f2 e9 e1 ff ff ff    	bnd jmp 1020 <_init+0x20>
    103f:	90                   	nop
    1040:	f3 0f 1e fa          	endbr64 
    1044:	68 01 00 00 00       	push   $0x1
    1049:	f2 e9 d1 ff ff ff    	bnd jmp 1020 <_init+0x20>
    104f:	90                   	nop
    1050:	f3 0f 1e fa          	endbr64 
    1054:	68 02 00 00 00       	push   $0x2
    1059:	f2 e9 c1 ff ff ff    	bnd jmp 1020 <_init+0x20>
    105f:	90                   	nop
    1060:	f3 0f 1e fa          	endbr64 
    1064:	68 03 00 00 00       	push   $0x3
    1069:	f2 e9 b1 ff ff ff    	bnd jmp 1020 <_init+0x20>
    106f:	90                   	nop
    1070:	f3 0f 1e fa          	endbr64 
    1074:	68 04 00 00 00       	push   $0x4
    1079:	f2 e9 a1 ff ff ff    	bnd jmp 1020 <_init+0x20>
    107f:	90                   	nop
    1080:	f3 0f 1e fa          	endbr64 
    1084:	68 05 00 00 00       	push   $0x5
    1089:	f2 e9 91 ff ff ff    	bnd jmp 1020 <_init+0x20>
    108f:	90                   	nop
    1090:	f3 0f 1e fa          	endbr64 
    1094:	68 06 00 00 00       	push   $0x6
    1099:	f2 e9 81 ff ff ff    	bnd jmp 1020 <_init+0x20>
    109f:	90                   	nop
    10a0:	f3 0f 1e fa          	endbr64 
    10a4:	68 07 00 00 00       	push   $0x7
    10a9:	f2 e9 71 ff ff ff    	bnd jmp 1020 <_init+0x20>
    10af:	90                   	nop
    10b0:	f3 0f 1e fa          	endbr64 
    10b4:	68 08 00 00 00       	push   $0x8
    10b9:	f2 e9 61 ff ff ff    	bnd jmp 1020 <_init+0x20>
    10bf:	90                   	nop

Disassembly of section .plt.got:

00000000000010c0 <__cxa_finalize@plt>:
    10c0:	f3 0f 1e fa          	endbr64 
    10c4:	f2 ff 25 2d af 00 00 	bnd jmp *0xaf2d(%rip)        # bff8 <__cxa_finalize@GLIBC_2.2.5>
    10cb:	0f 1f 44 00 00       	nopl   0x0(%rax,%rax,1)

Disassembly of section .plt.sec:

00000000000010d0 <puts@plt>:
    10d0:	f3 0f 1e fa          	endbr64 
    10d4:	f2 ff 25 b5 ae 00 00 	bnd jmp *0xaeb5(%rip)        # bf90 <puts@GLIBC_2.2.5>
    10db:	0f 1f 44 00 00       	nopl   0x0(%rax,%rax,1)

00000000000010e0 <fread@plt>:
    10e0:	f3 0f 1e fa          	endbr64 
    10e4:	f2 ff 25 ad ae 00 00 	bnd jmp *0xaead(%rip)        # bf98 <fread@GLIBC_2.2.5>
    10eb:	0f 1f 44 00 00       	nopl   0x0(%rax,%rax,1)

00000000000010f0 <fclose@plt>:
    10f0:	f3 0f 1e fa          	endbr64 
    10f4:	f2 ff 25 a5 ae 00 00 	bnd jmp *0xaea5(%rip)        # bfa0 <fclose@GLIBC_2.2.5>
    10fb:	0f 1f 44 00 00       	nopl   0x0(%rax,%rax,1)

0000000000001100 <__stack_chk_fail@plt>:
    1100:	f3 0f 1e fa          	endbr64 
    1104:	f2 ff 25 9d ae 00 00 	bnd jmp *0xae9d(%rip)        # bfa8 <__stack_chk_fail@GLIBC_2.4>
    110b:	0f 1f 44 00 00       	nopl   0x0(%rax,%rax,1)

0000000000001110 <log10f@plt>:
    1110:	f3 0f 1e fa          	endbr64 
    1114:	f2 ff 25 95 ae 00 00 	bnd jmp *0xae95(%rip)        # bfb0 <log10f@GLIBC_2.2.5>
    111b:	0f 1f 44 00 00       	nopl   0x0(%rax,%rax,1)

0000000000001120 <__printf_chk@plt>:
    1120:	f3 0f 1e fa          	endbr64 
    1124:	f2 ff 25 8d ae 00 00 	bnd jmp *0xae8d(%rip)        # bfb8 <__printf_chk@GLIBC_2.3.4>
    112b:	0f 1f 44 00 00       	nopl   0x0(%rax,%rax,1)

0000000000001130 <fopen@plt>:
    1130:	f3 0f 1e fa          	endbr64 
    1134:	f2 ff 25 85 ae 00 00 	bnd jmp *0xae85(%rip)        # bfc0 <fopen@GLIBC_2.2.5>
    113b:	0f 1f 44 00 00       	nopl   0x0(%rax,%rax,1)

0000000000001140 <sqrt@plt>:
    1140:	f3 0f 1e fa          	endbr64 
    1144:	f2 ff 25 7d ae 00 00 	bnd jmp *0xae7d(%rip)        # bfc8 <sqrt@GLIBC_2.2.5>
    114b:	0f 1f 44 00 00       	nopl   0x0(%rax,%rax,1)

0000000000001150 <__sprintf_chk@plt>:
    1150:	f3 0f 1e fa          	endbr64 
    1154:	f2 ff 25 75 ae 00 00 	bnd jmp *0xae75(%rip)        # bfd0 <__sprintf_chk@GLIBC_2.3.4>
    115b:	0f 1f 44 00 00       	nopl   0x0(%rax,%rax,1)

Disassembly of section .text:

0000000000001160 <main>:
    1160:	f3 0f 1e fa          	endbr64 
    1164:	41 57                	push   %r15
    1166:	48 8d 05 c3 7f 00 00 	lea    0x7fc3(%rip),%rax        # 9130 <_IO_stdin_used+0x130>
    116d:	4c 8d 0d 54 7f 00 00 	lea    0x7f54(%rip),%r9        # 90c8 <_IO_stdin_used+0xc8>
    1174:	41 b8 ec 00 00 00    	mov    $0xec,%r8d
    117a:	41 56                	push   %r14
    117c:	48 8d 35 64 82 00 00 	lea    0x8264(%rip),%rsi        # 93e7 <_IO_stdin_used+0x3e7>
    1183:	bf 00 01 00 00       	mov    $0x100,%edi
    1188:	4c 8d 3d 39 80 00 00 	lea    0x8039(%rip),%r15        # 91c8 <_IO_stdin_used+0x1c8>
    118f:	41 55                	push   %r13
    1191:	4c 8d 2d 58 7f 00 00 	lea    0x7f58(%rip),%r13        # 90f0 <_IO_stdin_used+0xf0>
    1198:	4c 8d 35 e1 80 00 00 	lea    0x80e1(%rip),%r14        # 9280 <_IO_stdin_used+0x280>
    119f:	41 54                	push   %r12
    11a1:	4c 8d 25 68 7f 00 00 	lea    0x7f68(%rip),%r12        # 9110 <_IO_stdin_used+0x110>
    11a8:	4c 89 e9             	mov    %r13,%rcx
    11ab:	55                   	push   %rbp
    11ac:	4c 89 e2             	mov    %r12,%rdx
    11af:	53                   	push   %rbx
    11b0:	48 8d 1d a1 7f 00 00 	lea    0x7fa1(%rip),%rbx        # 9158 <_IO_stdin_used+0x158>
    11b7:	48 83 ec 10          	sub    $0x10,%rsp
    11bb:	50                   	push   %rax
    11bc:	53                   	push   %rbx
    11bd:	68 00 01 00 00       	push   $0x100
    11c2:	e8 99 02 00 00       	call   1460 <test.constprop.0>
    11c7:	48 83 c4 18          	add    $0x18,%rsp
    11cb:	4c 89 fa             	mov    %r15,%rdx
    11ce:	4c 8d 15 d3 7f 00 00 	lea    0x7fd3(%rip),%r10        # 91a8 <_IO_stdin_used+0x1a8>
    11d5:	89 c5                	mov    %eax,%ebp
    11d7:	4c 89 d1             	mov    %r10,%rcx
    11da:	41 b8 d9 01 00 00    	mov    $0x1d9,%r8d
    11e0:	bf 00 02 00 00       	mov    $0x200,%edi
    11e5:	48 8d 05 fc 7f 00 00 	lea    0x7ffc(%rip),%rax        # 91e8 <_IO_stdin_used+0x1e8>
    11ec:	4c 8d 0d 8d 7f 00 00 	lea    0x7f8d(%rip),%r9        # 9180 <_IO_stdin_used+0x180>
    11f3:	50                   	push   %rax
    11f4:	48 8d 05 15 80 00 00 	lea    0x8015(%rip),%rax        # 9210 <_IO_stdin_used+0x210>
    11fb:	48 8d 35 00 82 00 00 	lea    0x8200(%rip),%rsi        # 9402 <_IO_stdin_used+0x402>
    1202:	50                   	push   %rax
    1203:	68 00 02 00 00       	push   $0x200
    1208:	e8 53 02 00 00       	call   1460 <test.constprop.0>
    120d:	48 83 c4 18          	add    $0x18,%rsp
    1211:	48 8d 0d 88 80 00 00 	lea    0x8088(%rip),%rcx        # 92a0 <_IO_stdin_used+0x2a0>
    1218:	48 8d 15 a9 80 00 00 	lea    0x80a9(%rip),%rdx        # 92c8 <_IO_stdin_used+0x2c8>
    121f:	51                   	push   %rcx
    1220:	4c 8d 1d 39 80 00 00 	lea    0x8039(%rip),%r11        # 9260 <_IO_stdin_used+0x260>
    1227:	41 b8 b4 03 00 00    	mov    $0x3b4,%r8d
    122d:	09 c5                	or     %eax,%ebp
    122f:	52                   	push   %rdx
    1230:	4c 89 d9             	mov    %r11,%rcx
    1233:	4c 89 f2             	mov    %r14,%rdx
    1236:	4c 8d 0d fb 7f 00 00 	lea    0x7ffb(%rip),%r9        # 9238 <_IO_stdin_used+0x238>
    123d:	68 00 04 00 00       	push   $0x400
    1242:	48 8d 35 d4 81 00 00 	lea    0x81d4(%rip),%rsi        # 941d <_IO_stdin_used+0x41d>
    1249:	bf 00 04 00 00       	mov    $0x400,%edi
    124e:	e8 0d 02 00 00       	call   1460 <test.constprop.0>
    1253:	48 83 c4 18          	add    $0x18,%rsp
    1257:	4c 89 e9             	mov    %r13,%rcx
    125a:	4c 89 e2             	mov    %r12,%rdx
    125d:	48 8d 3d 8c 80 00 00 	lea    0x808c(%rip),%rdi        # 92f0 <_IO_stdin_used+0x2f0>
    1264:	4c 8d 0d 5d 7e 00 00 	lea    0x7e5d(%rip),%r9        # 90c8 <_IO_stdin_used+0xc8>
    126b:	41 b8 ec 00 00 00    	mov    $0xec,%r8d
    1271:	09 c5                	or     %eax,%ebp
    1273:	57                   	push   %rdi
    1274:	48 8d 35 be 81 00 00 	lea    0x81be(%rip),%rsi        # 9439 <_IO_stdin_used+0x439>
    127b:	bf 00 01 00 00       	mov    $0x100,%edi
    1280:	53                   	push   %rbx
    1281:	68 00 01 00 00       	push   $0x100
    1286:	e8 d5 01 00 00       	call   1460 <test.constprop.0>
    128b:	48 83 c4 18          	add    $0x18,%rsp
    128f:	4c 89 fa             	mov    %r15,%rdx
    1292:	bf 00 02 00 00       	mov    $0x200,%edi
    1297:	09 c5                	or     %eax,%ebp
    1299:	48 8d 0d 78 80 00 00 	lea    0x8078(%rip),%rcx        # 9318 <_IO_stdin_used+0x318>
    12a0:	48 8d 05 69 7f 00 00 	lea    0x7f69(%rip),%rax        # 9210 <_IO_stdin_used+0x210>
    12a7:	41 b8 d9 01 00 00    	mov    $0x1d9,%r8d
    12ad:	51                   	push   %rcx
    12ae:	4c 8d 15 f3 7e 00 00 	lea    0x7ef3(%rip),%r10        # 91a8 <_IO_stdin_used+0x1a8>
    12b5:	4c 8d 0d c4 7e 00 00 	lea    0x7ec4(%rip),%r9        # 9180 <_IO_stdin_used+0x180>
    12bc:	50                   	push   %rax
    12bd:	4c 89 d1             	mov    %r10,%rcx
    12c0:	48 8d 35 8f 81 00 00 	lea    0x818f(%rip),%rsi        # 9456 <_IO_stdin_used+0x456>
    12c7:	68 00 02 00 00       	push   $0x200
    12cc:	e8 8f 01 00 00       	call   1460 <test.constprop.0>
    12d1:	48 83 c4 18          	add    $0x18,%rsp
    12d5:	48 8d 15 ec 7f 00 00 	lea    0x7fec(%rip),%rdx        # 92c8 <_IO_stdin_used+0x2c8>
    12dc:	4c 8d 1d 7d 7f 00 00 	lea    0x7f7d(%rip),%r11        # 9260 <_IO_stdin_used+0x260>
    12e3:	09 c5                	or     %eax,%ebp
    12e5:	4c 89 d9             	mov    %r11,%rcx
    12e8:	41 b8 b4 03 00 00    	mov    $0x3b4,%r8d
    12ee:	bf 00 04 00 00       	mov    $0x400,%edi
    12f3:	48 8d 05 46 80 00 00 	lea    0x8046(%rip),%rax        # 9340 <_IO_stdin_used+0x340>
    12fa:	4c 8d 0d 37 7f 00 00 	lea    0x7f37(%rip),%r9        # 9238 <_IO_stdin_used+0x238>
    1301:	50                   	push   %rax
    1302:	48 8d 35 6a 81 00 00 	lea    0x816a(%rip),%rsi        # 9473 <_IO_stdin_used+0x473>
    1309:	52                   	push   %rdx
    130a:	4c 89 f2             	mov    %r14,%rdx
    130d:	68 00 04 00 00       	push   $0x400
    1312:	e8 49 01 00 00       	call   1460 <test.constprop.0>
    1317:	48 83 c4 18          	add    $0x18,%rsp
    131b:	4c 89 e9             	mov    %r13,%rcx
    131e:	4c 89 e2             	mov    %r12,%rdx
    1321:	09 c5                	or     %eax,%ebp
    1323:	48 8d 05 3e 80 00 00 	lea    0x803e(%rip),%rax        # 9368 <_IO_stdin_used+0x368>
    132a:	4c 8d 0d 97 7d 00 00 	lea    0x7d97(%rip),%r9        # 90c8 <_IO_stdin_used+0xc8>
    1331:	41 b8 ec 00 00 00    	mov    $0xec,%r8d
    1337:	50                   	push   %rax
    1338:	48 8d 35 52 81 00 00 	lea    0x8152(%rip),%rsi        # 9491 <_IO_stdin_used+0x491>
    133f:	bf 00 01 00 00       	mov    $0x100,%edi
    1344:	53                   	push   %rbx
    1345:	68 00 01 00 00       	push   $0x100
    134a:	e8 11 01 00 00       	call   1460 <test.constprop.0>
    134f:	48 83 c4 28          	add    $0x28,%rsp
    1353:	5b                   	pop    %rbx
    1354:	09 e8                	or     %ebp,%eax
    1356:	5d                   	pop    %rbp
    1357:	41 5c                	pop    %r12
    1359:	41 5d                	pop    %r13
    135b:	41 5e                	pop    %r14
    135d:	41 5f                	pop    %r15
    135f:	c3                   	ret    

0000000000001360 <_start>:
    1360:	f3 0f 1e fa          	endbr64 
    1364:	31 ed                	xor    %ebp,%ebp
    1366:	49 89 d1             	mov    %rdx,%r9
    1369:	5e                   	pop    %rsi
    136a:	48 89 e2             	mov    %rsp,%rdx
    136d:	48 83 e4 f0          	and    $0xfffffffffffffff0,%rsp
    1371:	50                   	push   %rax
    1372:	54                   	push   %rsp
    1373:	45 31 c0             	xor    %r8d,%r8d
    1376:	31 c9                	xor    %ecx,%ecx
    1378:	48 8d 3d e1 fd ff ff 	lea    -0x21f(%rip),%rdi        # 1160 <main>
    137f:	ff 15 53 ac 00 00    	call   *0xac53(%rip)        # bfd8 <__libc_start_main@GLIBC_2.34>
    1385:	f4                   	hlt    
    1386:	66 2e 0f 1f 84 00 00 	cs nopw 0x0(%rax,%rax,1)
    138d:	00 00 00 

0000000000001390 <deregister_tm_clones>:
    1390:	48 8d 3d 79 ac 00 00 	lea    0xac79(%rip),%rdi        # c010 <__TMC_END__>
    1397:	48 8d 05 72 ac 00 00 	lea    0xac72(%rip),%rax        # c010 <__TMC_END__>
    139e:	48 39 f8             	cmp    %rdi,%rax
    13a1:	74 15                	je     13b8 <deregister_tm_clones+0x28>
    13a3:	48 8b 05 36 ac 00 00 	mov    0xac36(%rip),%rax        # bfe0 <_ITM_deregisterTMCloneTable@Base>
    13aa:	48 85 c0             	test   %rax,%rax
    13ad:	74 09                	je     13b8 <deregister_tm_clones+0x28>
    13af:	ff e0                	jmp    *%rax
    13b1:	0f 1f 80 00 00 00 00 	nopl   0x0(%rax)
    13b8:	c3                   	ret    
    13b9:	0f 1f 80 00 00 00 00 	nopl   0x0(%rax)

00000000000013c0 <register_tm_clones>:
    13c0:	48 8d 3d 49 ac 00 00 	lea    0xac49(%rip),%rdi        # c010 <__TMC_END__>
    13c7:	48 8d 35 42 ac 00 00 	lea    0xac42(%rip),%rsi        # c010 <__TMC_END__>
    13ce:	48 29 fe             	sub    %rdi,%rsi
    13d1:	48 89 f0             	mov    %rsi,%rax
    13d4:	48 c1 ee 3f          	shr    $0x3f,%rsi
    13d8:	48 c1 f8 03          	sar    $0x3,%rax
    13dc:	48 01 c6             	add    %rax,%rsi
    13df:	48 d1 fe             	sar    %rsi
    13e2:	74 14                	je     13f8 <register_tm_clones+0x38>
    13e4:	48 8b 05 05 ac 00 00 	mov    0xac05(%rip),%rax        # bff0 <_ITM_registerTMCloneTable@Base>
    13eb:	48 85 c0             	test   %rax,%rax
    13ee:	74 08                	je     13f8 <register_tm_clones+0x38>
    13f0:	ff e0                	jmp    *%rax
    13f2:	66 0f 1f 44 00 00    	nopw   0x0(%rax,%rax,1)
    13f8:	c3                   	ret    
    13f9:	0f 1f 80 00 00 00 00 	nopl   0x0(%rax)

0000000000001400 <__do_global_dtors_aux>:
    1400:	f3 0f 1e fa          	endbr64 
    1404:	80 3d 05 ac 00 00 00 	cmpb   $0x0,0xac05(%rip)        # c010 <__TMC_END__>
    140b:	75 2b                	jne    1438 <__do_global_dtors_aux+0x38>
    140d:	55                   	push   %rbp
    140e:	48 83 3d e2 ab 00 00 	cmpq   $0x0,0xabe2(%rip)        # bff8 <__cxa_finalize@GLIBC_2.2.5>
    1415:	00 
    1416:	48 89 e5             	mov    %rsp,%rbp
    1419:	74 0c                	je     1427 <__do_global_dtors_aux+0x27>
    141b:	48 8b 3d e6 ab 00 00 	mov    0xabe6(%rip),%rdi        # c008 <__dso_handle>
    1422:	e8 99 fc ff ff       	call   10c0 <__cxa_finalize@plt>
    1427:	e8 64 ff ff ff       	call   1390 <deregister_tm_clones>
    142c:	c6 05 dd ab 00 00 01 	movb   $0x1,0xabdd(%rip)        # c010 <__TMC_END__>
    1433:	5d                   	pop    %rbp
    1434:	c3                   	ret    
    1435:	0f 1f 00             	nopl   (%rax)
    1438:	c3                   	ret    
    1439:	0f 1f 80 00 00 00 00 	nopl   0x0(%rax)

0000000000001440 <frame_dummy>:
    1440:	f3 0f 1e fa          	endbr64 
    1444:	e9 77 ff ff ff       	jmp    13c0 <register_tm_clones>
    1449:	0f 1f 80 00 00 00 00 	nopl   0x0(%rax)

0000000000001450 <test_Fread.isra.0>:
    1450:	89 d2                	mov    %edx,%edx
    1452:	48 63 f6             	movslq %esi,%rsi
    1455:	e9 86 fc ff ff       	jmp    10e0 <fread@plt>
    145a:	66 0f 1f 44 00 00    	nopw   0x0(%rax,%rax,1)

0000000000001460 <test.constprop.0>:
    1460:	55                   	push   %rbp
    1461:	48 89 e5             	mov    %rsp,%rbp
    1464:	41 57                	push   %r15
    1466:	49 89 d7             	mov    %rdx,%r15
    1469:	41 56                	push   %r14
    146b:	41 55                	push   %r13
    146d:	41 54                	push   %r12
    146f:	53                   	push   %rbx
    1470:	48 89 cb             	mov    %rcx,%rbx
    1473:	48 81 ec 18 04 00 00 	sub    $0x418,%rsp
    147a:	48 8b 45 18          	mov    0x18(%rbp),%rax
    147e:	89 bd 18 fc ff ff    	mov    %edi,-0x3e8(%rbp)
    1484:	44 89 85 08 fc ff ff 	mov    %r8d,-0x3f8(%rbp)
    148b:	48 89 e2             	mov    %rsp,%rdx
    148e:	48 89 85 e0 fb ff ff 	mov    %rax,-0x420(%rbp)
    1495:	48 8b 45 20          	mov    0x20(%rbp),%rax
    1499:	4c 89 8d e8 fb ff ff 	mov    %r9,-0x418(%rbp)
    14a0:	48 89 85 d8 fb ff ff 	mov    %rax,-0x428(%rbp)
    14a7:	64 48 8b 04 25 28 00 	mov    %fs:0x28,%rax
    14ae:	00 00 
    14b0:	48 89 45 c8          	mov    %rax,-0x38(%rbp)
    14b4:	31 c0                	xor    %eax,%eax
    14b6:	89 f8                	mov    %edi,%eax
    14b8:	48 8d 44 00 0f       	lea    0xf(%rax,%rax,1),%rax
    14bd:	48 c1 e8 04          	shr    $0x4,%rax
    14c1:	48 c1 e0 04          	shl    $0x4,%rax
    14c5:	48 89 c1             	mov    %rax,%rcx
    14c8:	48 81 e1 00 f0 ff ff 	and    $0xfffffffffffff000,%rcx
    14cf:	48 29 ca             	sub    %rcx,%rdx
    14d2:	48 39 d4             	cmp    %rdx,%rsp
    14d5:	74 15                	je     14ec <test.constprop.0+0x8c>
    14d7:	48 81 ec 00 10 00 00 	sub    $0x1000,%rsp
    14de:	48 83 8c 24 f8 0f 00 	orq    $0x0,0xff8(%rsp)
    14e5:	00 00 
    14e7:	48 39 d4             	cmp    %rdx,%rsp
    14ea:	75 eb                	jne    14d7 <test.constprop.0+0x77>
    14ec:	25 ff 0f 00 00       	and    $0xfff,%eax
    14f1:	48 29 c4             	sub    %rax,%rsp
    14f4:	48 85 c0             	test   %rax,%rax
    14f7:	75 47                	jne    1540 <test.constprop.0+0xe0>
    14f9:	8b 85 18 fc ff ff    	mov    -0x3e8(%rbp),%eax
    14ff:	48 89 a5 10 fc ff ff 	mov    %rsp,-0x3f0(%rbp)
    1506:	48 89 e2             	mov    %rsp,%rdx
    1509:	83 c0 02             	add    $0x2,%eax
    150c:	48 8d 04 85 0f 00 00 	lea    0xf(,%rax,4),%rax
    1513:	00 
    1514:	48 c1 e8 04          	shr    $0x4,%rax
    1518:	48 c1 e0 04          	shl    $0x4,%rax
    151c:	48 89 c1             	mov    %rax,%rcx
    151f:	48 81 e1 00 f0 ff ff 	and    $0xfffffffffffff000,%rcx
    1526:	48 29 ca             	sub    %rcx,%rdx
    1529:	48 39 d4             	cmp    %rdx,%rsp
    152c:	74 1a                	je     1548 <test.constprop.0+0xe8>
    152e:	48 81 ec 00 10 00 00 	sub    $0x1000,%rsp
    1535:	48 83 8c 24 f8 0f 00 	orq    $0x0,0xff8(%rsp)
    153c:	00 00 
    153e:	eb e9                	jmp    1529 <test.constprop.0+0xc9>
    1540:	48 83 4c 04 f8 00    	orq    $0x0,-0x8(%rsp,%rax,1)
    1546:	eb b1                	jmp    14f9 <test.constprop.0+0x99>
    1548:	25 ff 0f 00 00       	and    $0xfff,%eax
    154d:	48 29 c4             	sub    %rax,%rsp
    1550:	48 85 c0             	test   %rax,%rax
    1553:	75 21                	jne    1576 <test.constprop.0+0x116>
    1555:	48 89 a5 c8 fb ff ff 	mov    %rsp,-0x438(%rbp)
    155c:	48 89 e0             	mov    %rsp,%rax
    155f:	48 39 c4             	cmp    %rax,%rsp
    1562:	74 1a                	je     157e <test.constprop.0+0x11e>
    1564:	48 81 ec 00 10 00 00 	sub    $0x1000,%rsp
    156b:	48 83 8c 24 f8 0f 00 	orq    $0x0,0xff8(%rsp)
    1572:	00 00 
    1574:	eb e9                	jmp    155f <test.constprop.0+0xff>
    1576:	48 83 4c 04 f8 00    	orq    $0x0,-0x8(%rsp,%rax,1)
    157c:	eb d7                	jmp    1555 <test.constprop.0+0xf5>
    157e:	48 81 ec 10 02 00 00 	sub    $0x210,%rsp
    1585:	48 83 8c 24 08 02 00 	orq    $0x0,0x208(%rsp)
    158c:	00 00 
    158e:	8b 85 08 fc ff ff    	mov    -0x3f8(%rbp),%eax
    1594:	48 8d 44 00 0f       	lea    0xf(%rax,%rax,1),%rax
    1599:	48 c1 e8 04          	shr    $0x4,%rax
    159d:	48 c1 e0 04          	shl    $0x4,%rax
    15a1:	48 89 a5 00 fc ff ff 	mov    %rsp,-0x400(%rbp)
    15a8:	48 89 e2             	mov    %rsp,%rdx
    15ab:	48 89 c1             	mov    %rax,%rcx
    15ae:	48 81 e1 00 f0 ff ff 	and    $0xfffffffffffff000,%rcx
    15b5:	48 29 ca             	sub    %rcx,%rdx
    15b8:	48 39 d4             	cmp    %rdx,%rsp
    15bb:	74 12                	je     15cf <test.constprop.0+0x16f>
    15bd:	48 81 ec 00 10 00 00 	sub    $0x1000,%rsp
    15c4:	48 83 8c 24 f8 0f 00 	orq    $0x0,0xff8(%rsp)
    15cb:	00 00 
    15cd:	eb e9                	jmp    15b8 <test.constprop.0+0x158>
    15cf:	25 ff 0f 00 00       	and    $0xfff,%eax
    15d4:	48 29 c4             	sub    %rax,%rsp
    15d7:	48 85 c0             	test   %rax,%rax
    15da:	74 06                	je     15e2 <test.constprop.0+0x182>
    15dc:	48 83 4c 04 f8 00    	orq    $0x0,-0x8(%rsp,%rax,1)
    15e2:	8b 45 10             	mov    0x10(%rbp),%eax
    15e5:	48 89 a5 f8 fb ff ff 	mov    %rsp,-0x408(%rbp)
    15ec:	48 89 e2             	mov    %rsp,%rdx
    15ef:	48 8d 44 00 0f       	lea    0xf(%rax,%rax,1),%rax
    15f4:	48 c1 e8 04          	shr    $0x4,%rax
    15f8:	48 c1 e0 04          	shl    $0x4,%rax
    15fc:	48 89 c1             	mov    %rax,%rcx
    15ff:	48 81 e1 00 f0 ff ff 	and    $0xfffffffffffff000,%rcx
    1606:	48 29 ca             	sub    %rcx,%rdx
    1609:	48 39 d4             	cmp    %rdx,%rsp
    160c:	74 12                	je     1620 <test.constprop.0+0x1c0>
    160e:	48 81 ec 00 10 00 00 	sub    $0x1000,%rsp
    1615:	48 83 8c 24 f8 0f 00 	orq    $0x0,0xff8(%rsp)
    161c:	00 00 
    161e:	eb e9                	jmp    1609 <test.constprop.0+0x1a9>
    1620:	25 ff 0f 00 00       	and    $0xfff,%eax
    1625:	48 29 c4             	sub    %rax,%rsp
    1628:	48 85 c0             	test   %rax,%rax
    162b:	74 06                	je     1633 <test.constprop.0+0x1d3>
    162d:	48 83 4c 04 f8 00    	orq    $0x0,-0x8(%rsp,%rax,1)
    1633:	4c 8d a5 c0 fd ff ff 	lea    -0x240(%rbp),%r12
    163a:	4c 8d 35 4c 7d 00 00 	lea    0x7d4c(%rip),%r14        # 938d <_IO_stdin_used+0x38d>
    1641:	49 89 f1             	mov    %rsi,%r9
    1644:	31 c0                	xor    %eax,%eax
    1646:	be 01 00 00 00       	mov    $0x1,%esi
    164b:	4c 89 e7             	mov    %r12,%rdi
    164e:	4c 89 f1             	mov    %r14,%rcx
    1651:	ba 00 02 00 00       	mov    $0x200,%edx
    1656:	4c 8d 05 ab 79 00 00 	lea    0x79ab(%rip),%r8        # 9008 <_IO_stdin_used+0x8>
    165d:	4c 8d 2d 2f 7d 00 00 	lea    0x7d2f(%rip),%r13        # 9393 <_IO_stdin_used+0x393>
    1664:	48 89 a5 f0 fb ff ff 	mov    %rsp,-0x410(%rbp)
    166b:	e8 e0 fa ff ff       	call   1150 <__sprintf_chk@plt>
    1670:	4c 89 ee             	mov    %r13,%rsi
    1673:	4c 89 e7             	mov    %r12,%rdi
    1676:	e8 b5 fa ff ff       	call   1130 <fopen@plt>
    167b:	48 85 c0             	test   %rax,%rax
    167e:	0f 84 d7 06 00 00    	je     1d5b <test.constprop.0+0x8fb>
    1684:	8b 95 18 fc ff ff    	mov    -0x3e8(%rbp),%edx
    168a:	48 8b bd 10 fc ff ff 	mov    -0x3f0(%rbp),%rdi
    1691:	48 89 c1             	mov    %rax,%rcx
    1694:	be 02 00 00 00       	mov    $0x2,%esi
    1699:	48 89 85 d0 fb ff ff 	mov    %rax,-0x430(%rbp)
    16a0:	e8 ab fd ff ff       	call   1450 <test_Fread.isra.0>
    16a5:	48 8b bd d0 fb ff ff 	mov    -0x430(%rbp),%rdi
    16ac:	e8 3f fa ff ff       	call   10f0 <fclose@plt>
    16b1:	be 01 00 00 00       	mov    $0x1,%esi
    16b6:	4c 89 e7             	mov    %r12,%rdi
    16b9:	31 c0                	xor    %eax,%eax
    16bb:	4c 8d 0d 8e 79 00 00 	lea    0x798e(%rip),%r9        # 9050 <_IO_stdin_used+0x50>
    16c2:	4c 8d 05 3f 79 00 00 	lea    0x793f(%rip),%r8        # 9008 <_IO_stdin_used+0x8>
    16c9:	4c 89 f1             	mov    %r14,%rcx
    16cc:	ba 00 02 00 00       	mov    $0x200,%edx
    16d1:	e8 7a fa ff ff       	call   1150 <__sprintf_chk@plt>
    16d6:	4c 89 ee             	mov    %r13,%rsi
    16d9:	4c 89 e7             	mov    %r12,%rdi
    16dc:	e8 4f fa ff ff       	call   1130 <fopen@plt>
    16e1:	48 85 c0             	test   %rax,%rax
    16e4:	0f 84 71 06 00 00    	je     1d5b <test.constprop.0+0x8fb>
    16ea:	48 8b bd 00 fc ff ff 	mov    -0x400(%rbp),%rdi
    16f1:	48 89 c1             	mov    %rax,%rcx
    16f4:	ba 04 01 00 00       	mov    $0x104,%edx
    16f9:	be 02 00 00 00       	mov    $0x2,%esi
    16fe:	48 89 85 d0 fb ff ff 	mov    %rax,-0x430(%rbp)
    1705:	e8 46 fd ff ff       	call   1450 <test_Fread.isra.0>
    170a:	48 8b bd d0 fb ff ff 	mov    -0x430(%rbp),%rdi
    1711:	e8 da f9 ff ff       	call   10f0 <fclose@plt>
    1716:	be 01 00 00 00       	mov    $0x1,%esi
    171b:	4c 89 e7             	mov    %r12,%rdi
    171e:	31 c0                	xor    %eax,%eax
    1720:	4d 89 f9             	mov    %r15,%r9
    1723:	4c 8d 05 de 78 00 00 	lea    0x78de(%rip),%r8        # 9008 <_IO_stdin_used+0x8>
    172a:	4c 89 f1             	mov    %r14,%rcx
    172d:	ba 00 02 00 00       	mov    $0x200,%edx
    1732:	e8 19 fa ff ff       	call   1150 <__sprintf_chk@plt>
    1737:	4c 89 ee             	mov    %r13,%rsi
    173a:	4c 89 e7             	mov    %r12,%rdi
    173d:	e8 ee f9 ff ff       	call   1130 <fopen@plt>
    1742:	48 85 c0             	test   %rax,%rax
    1745:	0f 84 10 06 00 00    	je     1d5b <test.constprop.0+0x8fb>
    174b:	4c 8d bd 20 fd ff ff 	lea    -0x2e0(%rbp),%r15
    1752:	48 89 c1             	mov    %rax,%rcx
    1755:	ba 14 00 00 00       	mov    $0x14,%edx
    175a:	be 04 00 00 00       	mov    $0x4,%esi
    175f:	4c 89 ff             	mov    %r15,%rdi
    1762:	48 89 85 d0 fb ff ff 	mov    %rax,-0x430(%rbp)
    1769:	e8 e2 fc ff ff       	call   1450 <test_Fread.isra.0>
    176e:	48 8b bd d0 fb ff ff 	mov    -0x430(%rbp),%rdi
    1775:	e8 76 f9 ff ff       	call   10f0 <fclose@plt>
    177a:	be 01 00 00 00       	mov    $0x1,%esi
    177f:	4c 89 e7             	mov    %r12,%rdi
    1782:	31 c0                	xor    %eax,%eax
    1784:	49 89 d9             	mov    %rbx,%r9
    1787:	4c 8d 05 7a 78 00 00 	lea    0x787a(%rip),%r8        # 9008 <_IO_stdin_used+0x8>
    178e:	4c 89 f1             	mov    %r14,%rcx
    1791:	ba 00 02 00 00       	mov    $0x200,%edx
    1796:	e8 b5 f9 ff ff       	call   1150 <__sprintf_chk@plt>
    179b:	4c 89 ee             	mov    %r13,%rsi
    179e:	4c 89 e7             	mov    %r12,%rdi
    17a1:	e8 8a f9 ff ff       	call   1130 <fopen@plt>
    17a6:	48 85 c0             	test   %rax,%rax
    17a9:	0f 84 ac 05 00 00    	je     1d5b <test.constprop.0+0x8fb>
    17af:	48 8d 9d 70 fd ff ff 	lea    -0x290(%rbp),%rbx
    17b6:	48 89 c1             	mov    %rax,%rcx
    17b9:	ba 14 00 00 00       	mov    $0x14,%edx
    17be:	be 04 00 00 00       	mov    $0x4,%esi
    17c3:	48 89 df             	mov    %rbx,%rdi
    17c6:	48 89 85 d0 fb ff ff 	mov    %rax,-0x430(%rbp)
    17cd:	e8 7e fc ff ff       	call   1450 <test_Fread.isra.0>
    17d2:	48 8b bd d0 fb ff ff 	mov    -0x430(%rbp),%rdi
    17d9:	e8 12 f9 ff ff       	call   10f0 <fclose@plt>
    17de:	be 01 00 00 00       	mov    $0x1,%esi
    17e3:	4c 89 e7             	mov    %r12,%rdi
    17e6:	31 c0                	xor    %eax,%eax
    17e8:	4c 8b 8d e8 fb ff ff 	mov    -0x418(%rbp),%r9
    17ef:	4c 8d 05 12 78 00 00 	lea    0x7812(%rip),%r8        # 9008 <_IO_stdin_used+0x8>
    17f6:	4c 89 f1             	mov    %r14,%rcx
    17f9:	ba 00 02 00 00       	mov    $0x200,%edx
    17fe:	e8 4d f9 ff ff       	call   1150 <__sprintf_chk@plt>
    1803:	4c 89 ee             	mov    %r13,%rsi
    1806:	4c 89 e7             	mov    %r12,%rdi
    1809:	e8 22 f9 ff ff       	call   1130 <fopen@plt>
    180e:	48 85 c0             	test   %rax,%rax
    1811:	0f 84 44 05 00 00    	je     1d5b <test.constprop.0+0x8fb>
    1817:	8b 95 08 fc ff ff    	mov    -0x3f8(%rbp),%edx
    181d:	48 8b bd f8 fb ff ff 	mov    -0x408(%rbp),%rdi
    1824:	48 89 c1             	mov    %rax,%rcx
    1827:	be 02 00 00 00       	mov    $0x2,%esi
    182c:	48 89 85 e8 fb ff ff 	mov    %rax,-0x418(%rbp)
    1833:	e8 18 fc ff ff       	call   1450 <test_Fread.isra.0>
    1838:	48 8b bd e8 fb ff ff 	mov    -0x418(%rbp),%rdi
    183f:	e8 ac f8 ff ff       	call   10f0 <fclose@plt>
    1844:	be 01 00 00 00       	mov    $0x1,%esi
    1849:	4c 89 e7             	mov    %r12,%rdi
    184c:	31 c0                	xor    %eax,%eax
    184e:	4c 8b 8d e0 fb ff ff 	mov    -0x420(%rbp),%r9
    1855:	4c 8d 05 ac 77 00 00 	lea    0x77ac(%rip),%r8        # 9008 <_IO_stdin_used+0x8>
    185c:	4c 89 f1             	mov    %r14,%rcx
    185f:	ba 00 02 00 00       	mov    $0x200,%edx
    1864:	e8 e7 f8 ff ff       	call   1150 <__sprintf_chk@plt>
    1869:	4c 89 ee             	mov    %r13,%rsi
    186c:	4c 89 e7             	mov    %r12,%rdi
    186f:	e8 bc f8 ff ff       	call   1130 <fopen@plt>
    1874:	48 85 c0             	test   %rax,%rax
    1877:	0f 84 de 04 00 00    	je     1d5b <test.constprop.0+0x8fb>
    187d:	8b 55 10             	mov    0x10(%rbp),%edx
    1880:	48 8b bd f0 fb ff ff 	mov    -0x410(%rbp),%rdi
    1887:	48 89 c1             	mov    %rax,%rcx
    188a:	be 02 00 00 00       	mov    $0x2,%esi
    188f:	48 89 85 08 fc ff ff 	mov    %rax,-0x3f8(%rbp)
    1896:	e8 b5 fb ff ff       	call   1450 <test_Fread.isra.0>
    189b:	48 8b bd 08 fc ff ff 	mov    -0x3f8(%rbp),%rdi
    18a2:	e8 49 f8 ff ff       	call   10f0 <fclose@plt>
    18a7:	4c 89 f1             	mov    %r14,%rcx
    18aa:	ba 00 02 00 00       	mov    $0x200,%edx
    18af:	4c 89 e7             	mov    %r12,%rdi
    18b2:	4c 8b 8d d8 fb ff ff 	mov    -0x428(%rbp),%r9
    18b9:	4c 8d 05 48 77 00 00 	lea    0x7748(%rip),%r8        # 9008 <_IO_stdin_used+0x8>
    18c0:	be 01 00 00 00       	mov    $0x1,%esi
    18c5:	31 c0                	xor    %eax,%eax
    18c7:	e8 84 f8 ff ff       	call   1150 <__sprintf_chk@plt>
    18cc:	4c 89 ee             	mov    %r13,%rsi
    18cf:	4c 89 e7             	mov    %r12,%rdi
    18d2:	e8 59 f8 ff ff       	call   1130 <fopen@plt>
    18d7:	49 89 c5             	mov    %rax,%r13
    18da:	48 85 c0             	test   %rax,%rax
    18dd:	0f 84 78 04 00 00    	je     1d5b <test.constprop.0+0x8fb>
    18e3:	4c 8d a5 80 fc ff ff 	lea    -0x380(%rbp),%r12
    18ea:	48 89 c1             	mov    %rax,%rcx
    18ed:	ba 0d 00 00 00       	mov    $0xd,%edx
    18f2:	be 02 00 00 00       	mov    $0x2,%esi
    18f7:	4c 89 e7             	mov    %r12,%rdi
    18fa:	4c 8d b5 20 fc ff ff 	lea    -0x3e0(%rbp),%r14
    1901:	e8 4a fb ff ff       	call   1450 <test_Fread.isra.0>
    1906:	4c 89 ef             	mov    %r13,%rdi
    1909:	4c 8d ad 60 fc ff ff 	lea    -0x3a0(%rbp),%r13
    1910:	e8 db f7 ff ff       	call   10f0 <fclose@plt>
    1915:	48 83 ec 08          	sub    $0x8,%rsp
    1919:	4d 89 f9             	mov    %r15,%r9
    191c:	4c 89 f7             	mov    %r14,%rdi
    191f:	ff b5 f0 fb ff ff    	push   -0x410(%rbp)
    1925:	8b b5 18 fc ff ff    	mov    -0x3e8(%rbp),%esi
    192b:	b9 0d 00 00 00       	mov    $0xd,%ecx
    1930:	ba 14 00 00 00       	mov    $0x14,%edx
    1935:	4c 8b 85 00 fc ff ff 	mov    -0x400(%rbp),%r8
    193c:	ff b5 f8 fb ff ff    	push   -0x408(%rbp)
    1942:	53                   	push   %rbx
    1943:	48 8d 9d a0 fc ff ff 	lea    -0x360(%rbp),%rbx
    194a:	e8 81 05 00 00       	call   1ed0 <riscv_dsp_mfcc_init_q15>
    194f:	48 83 c4 20          	add    $0x20,%rsp
    1953:	4c 89 ea             	mov    %r13,%rdx
    1956:	4c 89 f7             	mov    %r14,%rdi
    1959:	48 8b 8d c8 fb ff ff 	mov    -0x438(%rbp),%rcx
    1960:	48 8b b5 10 fc ff ff 	mov    -0x3f0(%rbp),%rsi
    1967:	e8 f4 05 00 00       	call   1f60 <riscv_dsp_mfcc_q15>
    196c:	4c 89 ef             	mov    %r13,%rdi
    196f:	ba 0d 00 00 00       	mov    $0xd,%edx
    1974:	48 89 de             	mov    %rbx,%rsi
    1977:	e8 f4 03 00 00       	call   1d70 <riscv_dsp_convert_q15_f32>
    197c:	4c 8d ad e0 fc ff ff 	lea    -0x320(%rbp),%r13
    1983:	ba 0d 00 00 00       	mov    $0xd,%edx
    1988:	4c 89 e7             	mov    %r12,%rdi
    198b:	4c 89 ee             	mov    %r13,%rsi
    198e:	e8 dd 03 00 00       	call   1d70 <riscv_dsp_convert_q15_f32>
    1993:	66 0f ef ff          	pxor   %xmm7,%xmm7
    1997:	f3 0f 10 85 a0 fc ff 	movss  -0x360(%rbp),%xmm0
    199e:	ff 
    199f:	f3 0f 5c 85 e0 fc ff 	subss  -0x320(%rbp),%xmm0
    19a6:	ff 
    19a7:	f3 0f 10 2d 11 7b 00 	movss  0x7b11(%rip),%xmm5        # 94c0 <_IO_stdin_used+0x4c0>
    19ae:	00 
    19af:	bf 01 00 00 00       	mov    $0x1,%edi
    19b4:	b8 01 00 00 00       	mov    $0x1,%eax
    19b9:	f3 0f 10 8d a4 fc ff 	movss  -0x35c(%rbp),%xmm1
    19c0:	ff 
    19c1:	f3 0f 5c 8d e4 fc ff 	subss  -0x31c(%rbp),%xmm1
    19c8:	ff 
    19c9:	48 8d 35 c6 79 00 00 	lea    0x79c6(%rip),%rsi        # 9396 <_IO_stdin_used+0x396>
    19d0:	0f 54 c5             	andps  %xmm5,%xmm0
    19d3:	f3 0f 5f c7          	maxss  %xmm7,%xmm0
    19d7:	0f 54 cd             	andps  %xmm5,%xmm1
    19da:	f3 0f 5f c8          	maxss  %xmm0,%xmm1
    19de:	f3 0f 10 85 a8 fc ff 	movss  -0x358(%rbp),%xmm0
    19e5:	ff 
    19e6:	f3 0f 5c 85 e8 fc ff 	subss  -0x318(%rbp),%xmm0
    19ed:	ff 
    19ee:	0f 54 c5             	andps  %xmm5,%xmm0
    19f1:	f3 0f 5f c1          	maxss  %xmm1,%xmm0
    19f5:	f3 0f 10 8d ac fc ff 	movss  -0x354(%rbp),%xmm1
    19fc:	ff 
    19fd:	f3 0f 5c 8d ec fc ff 	subss  -0x314(%rbp),%xmm1
    1a04:	ff 
    1a05:	0f 54 cd             	andps  %xmm5,%xmm1
    1a08:	f3 0f 5f c8          	maxss  %xmm0,%xmm1
    1a0c:	f3 0f 10 85 b0 fc ff 	movss  -0x350(%rbp),%xmm0
    1a13:	ff 
    1a14:	f3 0f 5c 85 f0 fc ff 	subss  -0x310(%rbp),%xmm0
    1a1b:	ff 
    1a1c:	0f 54 c5             	andps  %xmm5,%xmm0
    1a1f:	f3 0f 5f c1          	maxss  %xmm1,%xmm0
    1a23:	f3 0f 10 8d b4 fc ff 	movss  -0x34c(%rbp),%xmm1
    1a2a:	ff 
    1a2b:	f3 0f 5c 8d f4 fc ff 	subss  -0x30c(%rbp),%xmm1
    1a32:	ff 
    1a33:	0f 54 cd             	andps  %xmm5,%xmm1
    1a36:	f3 0f 5f c8          	maxss  %xmm0,%xmm1
    1a3a:	f3 0f 10 85 b8 fc ff 	movss  -0x348(%rbp),%xmm0
    1a41:	ff 
    1a42:	f3 0f 5c 85 f8 fc ff 	subss  -0x308(%rbp),%xmm0
    1a49:	ff 
    1a4a:	0f 54 c5             	andps  %xmm5,%xmm0
    1a4d:	f3 0f 5f c1          	maxss  %xmm1,%xmm0
    1a51:	f3 0f 10 8d bc fc ff 	movss  -0x344(%rbp),%xmm1
    1a58:	ff 
    1a59:	f3 0f 5c 8d fc fc ff 	subss  -0x304(%rbp),%xmm1
    1a60:	ff 
    1a61:	0f 54 cd             	andps  %xmm5,%xmm1
    1a64:	f3 0f 5f c8          	maxss  %xmm0,%xmm1
    1a68:	f3 0f 10 85 c0 fc ff 	movss  -0x340(%rbp),%xmm0
    1a6f:	ff 
    1a70:	f3 0f 5c 85 00 fd ff 	subss  -0x300(%rbp),%xmm0
    1a77:	ff 
    1a78:	0f 54 c5             	andps  %xmm5,%xmm0
    1a7b:	f3 0f 5f c1          	maxss  %xmm1,%xmm0
    1a7f:	f3 0f 10 8d c4 fc ff 	movss  -0x33c(%rbp),%xmm1
    1a86:	ff 
    1a87:	f3 0f 5c 8d 04 fd ff 	subss  -0x2fc(%rbp),%xmm1
    1a8e:	ff 
    1a8f:	0f 54 cd             	andps  %xmm5,%xmm1
    1a92:	f3 0f 5f c8          	maxss  %xmm0,%xmm1
    1a96:	f3 0f 10 85 c8 fc ff 	movss  -0x338(%rbp),%xmm0
    1a9d:	ff 
    1a9e:	f3 0f 5c 85 08 fd ff 	subss  -0x2f8(%rbp),%xmm0
    1aa5:	ff 
    1aa6:	0f 54 c5             	andps  %xmm5,%xmm0
    1aa9:	f3 0f 5f c1          	maxss  %xmm1,%xmm0
    1aad:	f3 0f 10 8d cc fc ff 	movss  -0x334(%rbp),%xmm1
    1ab4:	ff 
    1ab5:	f3 0f 5c 8d 0c fd ff 	subss  -0x2f4(%rbp),%xmm1
    1abc:	ff 
    1abd:	0f 54 cd             	andps  %xmm5,%xmm1
    1ac0:	f3 0f 5f c8          	maxss  %xmm0,%xmm1
    1ac4:	f3 0f 10 85 d0 fc ff 	movss  -0x330(%rbp),%xmm0
    1acb:	ff 
    1acc:	f3 0f 5c 85 10 fd ff 	subss  -0x2f0(%rbp),%xmm0
    1ad3:	ff 
    1ad4:	0f 54 c5             	andps  %xmm5,%xmm0
    1ad7:	f3 0f 5f c1          	maxss  %xmm1,%xmm0
    1adb:	f3 0f 5a c0          	cvtss2sd %xmm0,%xmm0
    1adf:	e8 3c f6 ff ff       	call   1120 <__printf_chk@plt>
    1ae4:	66 0f ef db          	pxor   %xmm3,%xmm3
    1ae8:	66 0f ef ff          	pxor   %xmm7,%xmm7
    1aec:	66 0f 28 f7          	movapd %xmm7,%xmm6
    1af0:	0f 28 c3             	movaps %xmm3,%xmm0
    1af3:	44 0f 28 c3          	movaps %xmm3,%xmm8
    1af7:	4c 89 ea             	mov    %r13,%rdx
    1afa:	44 0f 28 cb          	movaps %xmm3,%xmm9
    1afe:	48 89 d8             	mov    %rbx,%rax
    1b01:	48 8d 8d d4 fc ff ff 	lea    -0x32c(%rbp),%rcx
    1b08:	f3 0f 10 2d b0 79 00 	movss  0x79b0(%rip),%xmm5        # 94c0 <_IO_stdin_used+0x4c0>
    1b0f:	00 
    1b10:	f3 0f 10 08          	movss  (%rax),%xmm1
    1b14:	48 83 c0 04          	add    $0x4,%rax
    1b18:	48 83 c2 04          	add    $0x4,%rdx
    1b1c:	f3 0f 10 52 fc       	movss  -0x4(%rdx),%xmm2
    1b21:	66 0f 7e cb          	movd   %xmm1,%ebx
    1b25:	81 fb 00 00 c0 7f    	cmp    $0x7fc00000,%ebx
    1b2b:	0f 84 95 01 00 00    	je     1cc6 <test.constprop.0+0x866>
    1b31:	0f 28 e2             	movaps %xmm2,%xmm4
    1b34:	f3 0f 5c ca          	subss  %xmm2,%xmm1
    1b38:	f3 41 0f 5f e1       	maxss  %xmm9,%xmm4
    1b3d:	44 0f 28 cc          	movaps %xmm4,%xmm9
    1b41:	0f 28 e2             	movaps %xmm2,%xmm4
    1b44:	f3 41 0f 5d e0       	minss  %xmm8,%xmm4
    1b49:	f3 0f 59 d2          	mulss  %xmm2,%xmm2
    1b4d:	44 0f 28 c4          	movaps %xmm4,%xmm8
    1b51:	0f 28 e1             	movaps %xmm1,%xmm4
    1b54:	f3 0f 59 c9          	mulss  %xmm1,%xmm1
    1b58:	0f 54 e5             	andps  %xmm5,%xmm4
    1b5b:	f3 0f 58 c4          	addss  %xmm4,%xmm0
    1b5f:	f3 0f 5f e3          	maxss  %xmm3,%xmm4
    1b63:	f3 0f 5a d2          	cvtss2sd %xmm2,%xmm2
    1b67:	f2 0f 58 fa          	addsd  %xmm2,%xmm7
    1b6b:	0f 28 dc             	movaps %xmm4,%xmm3
    1b6e:	f3 0f 5a c9          	cvtss2sd %xmm1,%xmm1
    1b72:	f2 0f 58 f1          	addsd  %xmm1,%xmm6
    1b76:	48 39 c8             	cmp    %rcx,%rax
    1b79:	75 95                	jne    1b10 <test.constprop.0+0x6b0>
    1b7b:	66 48 0f 7e f0       	movq   %xmm6,%rax
    1b80:	f3 0f 11 a5 00 fc ff 	movss  %xmm4,-0x400(%rbp)
    1b87:	ff 
    1b88:	f3 44 0f 11 85 08 fc 	movss  %xmm8,-0x3f8(%rbp)
    1b8f:	ff ff 
    1b91:	f3 44 0f 11 8d 10 fc 	movss  %xmm9,-0x3f0(%rbp)
    1b98:	ff ff 
    1b9a:	f2 0f 11 bd 18 fc ff 	movsd  %xmm7,-0x3e8(%rbp)
    1ba1:	ff 
    1ba2:	3d 00 00 c0 7f       	cmp    $0x7fc00000,%eax
    1ba7:	0f 84 19 01 00 00    	je     1cc6 <test.constprop.0+0x866>
    1bad:	f3 0f 5e 05 ff 78 00 	divss  0x78ff(%rip),%xmm0        # 94b4 <_IO_stdin_used+0x4b4>
    1bb4:	00 
    1bb5:	f2 0f 11 b5 f8 fb ff 	movsd  %xmm6,-0x408(%rbp)
    1bbc:	ff 
    1bbd:	66 0f 7e c3          	movd   %xmm0,%ebx
    1bc1:	66 0f 28 c6          	movapd %xmm6,%xmm0
    1bc5:	f2 0f 5e 05 03 79 00 	divsd  0x7903(%rip),%xmm0        # 94d0 <_IO_stdin_used+0x4d0>
    1bcc:	00 
    1bcd:	e8 6e f5 ff ff       	call   1140 <sqrt@plt>
    1bd2:	f3 44 0f 10 8d 10 fc 	movss  -0x3f0(%rbp),%xmm9
    1bd9:	ff ff 
    1bdb:	f3 44 0f 10 85 08 fc 	movss  -0x3f8(%rbp),%xmm8
    1be2:	ff ff 
    1be4:	66 0f ef c9          	pxor   %xmm1,%xmm1
    1be8:	66 0f ef ff          	pxor   %xmm7,%xmm7
    1bec:	f3 0f 10 9d 00 fc ff 	movss  -0x400(%rbp),%xmm3
    1bf3:	ff 
    1bf4:	f2 0f 5a c8          	cvtsd2ss %xmm0,%xmm1
    1bf8:	41 0f 28 c1          	movaps %xmm9,%xmm0
    1bfc:	0f 28 f1             	movaps %xmm1,%xmm6
    1bff:	f3 41 0f 5c c0       	subss  %xmm8,%xmm0
    1c04:	f3 0f 5e f0          	divss  %xmm0,%xmm6
    1c08:	66 41 0f 7e f4       	movd   %xmm6,%r12d
    1c0d:	f2 0f 10 b5 f8 fb ff 	movsd  -0x408(%rbp),%xmm6
    1c14:	ff 
    1c15:	66 0f 2e f7          	ucomisd %xmm7,%xmm6
    1c19:	f2 0f 10 bd 18 fc ff 	movsd  -0x3e8(%rbp),%xmm7
    1c20:	ff 
    1c21:	0f 8a d9 00 00 00    	jp     1d00 <test.constprop.0+0x8a0>
    1c27:	f3 0f 10 25 81 78 00 	movss  0x7881(%rip),%xmm4        # 94b0 <_IO_stdin_used+0x4b0>
    1c2e:	00 
    1c2f:	0f 85 cb 00 00 00    	jne    1d00 <test.constprop.0+0x8a0>
    1c35:	48 8d 3d 6d 77 00 00 	lea    0x776d(%rip),%rdi        # 93a9 <_IO_stdin_used+0x3a9>
    1c3c:	f3 0f 11 9d 08 fc ff 	movss  %xmm3,-0x3f8(%rbp)
    1c43:	ff 
    1c44:	f3 0f 11 a5 18 fc ff 	movss  %xmm4,-0x3e8(%rbp)
    1c4b:	ff 
    1c4c:	f3 0f 11 8d 10 fc ff 	movss  %xmm1,-0x3f0(%rbp)
    1c53:	ff 
    1c54:	e8 77 f4 ff ff       	call   10d0 <puts@plt>
    1c59:	66 41 0f 6e f4       	movd   %r12d,%xmm6
    1c5e:	66 0f ef d2          	pxor   %xmm2,%xmm2
    1c62:	f3 0f 10 a5 18 fc ff 	movss  -0x3e8(%rbp),%xmm4
    1c69:	ff 
    1c6a:	f3 0f 10 9d 08 fc ff 	movss  -0x3f8(%rbp),%xmm3
    1c71:	ff 
    1c72:	f3 0f 10 8d 10 fc ff 	movss  -0x3f0(%rbp),%xmm1
    1c79:	ff 
    1c7a:	f3 0f 5a d6          	cvtss2sd %xmm6,%xmm2
    1c7e:	66 0f ef c0          	pxor   %xmm0,%xmm0
    1c82:	66 0f 6e f3          	movd   %ebx,%xmm6
    1c86:	48 8d 35 e3 73 00 00 	lea    0x73e3(%rip),%rsi        # 9070 <_IO_stdin_used+0x70>
    1c8d:	bf 01 00 00 00       	mov    $0x1,%edi
    1c92:	b8 05 00 00 00       	mov    $0x5,%eax
    1c97:	f3 0f 5a c6          	cvtss2sd %xmm6,%xmm0
    1c9b:	f3 0f 5a e4          	cvtss2sd %xmm4,%xmm4
    1c9f:	f3 0f 5a db          	cvtss2sd %xmm3,%xmm3
    1ca3:	f3 0f 5a c9          	cvtss2sd %xmm1,%xmm1
    1ca7:	f2 0f 11 95 18 fc ff 	movsd  %xmm2,-0x3e8(%rbp)
    1cae:	ff 
    1caf:	e8 6c f4 ff ff       	call   1120 <__printf_chk@plt>
    1cb4:	f2 0f 10 95 18 fc ff 	movsd  -0x3e8(%rbp),%xmm2
    1cbb:	ff 
    1cbc:	66 0f 2f 15 14 78 00 	comisd 0x7814(%rip),%xmm2        # 94d8 <_IO_stdin_used+0x4d8>
    1cc3:	00 
    1cc4:	77 7b                	ja     1d41 <test.constprop.0+0x8e1>
    1cc6:	48 8d 15 f1 76 00 00 	lea    0x76f1(%rip),%rdx        # 93be <_IO_stdin_used+0x3be>
    1ccd:	48 8d 35 08 77 00 00 	lea    0x7708(%rip),%rsi        # 93dc <_IO_stdin_used+0x3dc>
    1cd4:	bf 01 00 00 00       	mov    $0x1,%edi
    1cd9:	31 c0                	xor    %eax,%eax
    1cdb:	e8 40 f4 ff ff       	call   1120 <__printf_chk@plt>
    1ce0:	31 c0                	xor    %eax,%eax
    1ce2:	48 8b 55 c8          	mov    -0x38(%rbp),%rdx
    1ce6:	64 48 2b 14 25 28 00 	sub    %fs:0x28,%rdx
    1ced:	00 00 
    1cef:	75 6f                	jne    1d60 <test.constprop.0+0x900>
    1cf1:	48 8d 65 d8          	lea    -0x28(%rbp),%rsp
    1cf5:	5b                   	pop    %rbx
    1cf6:	41 5c                	pop    %r12
    1cf8:	41 5d                	pop    %r13
    1cfa:	41 5e                	pop    %r14
    1cfc:	41 5f                	pop    %r15
    1cfe:	5d                   	pop    %rbp
    1cff:	c3                   	ret    
    1d00:	f2 0f 5e fe          	divsd  %xmm6,%xmm7
    1d04:	66 0f ef c0          	pxor   %xmm0,%xmm0
    1d08:	f3 0f 11 9d 10 fc ff 	movss  %xmm3,-0x3f0(%rbp)
    1d0f:	ff 
    1d10:	f3 0f 11 8d 18 fc ff 	movss  %xmm1,-0x3e8(%rbp)
    1d17:	ff 
    1d18:	f2 0f 5a c7          	cvtsd2ss %xmm7,%xmm0
    1d1c:	e8 ef f3 ff ff       	call   1110 <log10f@plt>
    1d21:	f3 0f 59 05 8f 77 00 	mulss  0x778f(%rip),%xmm0        # 94b8 <_IO_stdin_used+0x4b8>
    1d28:	00 
    1d29:	f3 0f 10 9d 10 fc ff 	movss  -0x3f0(%rbp),%xmm3
    1d30:	ff 
    1d31:	f3 0f 10 8d 18 fc ff 	movss  -0x3e8(%rbp),%xmm1
    1d38:	ff 
    1d39:	0f 28 e0             	movaps %xmm0,%xmm4
    1d3c:	e9 f4 fe ff ff       	jmp    1c35 <test.constprop.0+0x7d5>
    1d41:	48 8d 15 76 76 00 00 	lea    0x7676(%rip),%rdx        # 93be <_IO_stdin_used+0x3be>
    1d48:	48 8d 35 82 76 00 00 	lea    0x7682(%rip),%rsi        # 93d1 <_IO_stdin_used+0x3d1>
    1d4f:	bf 01 00 00 00       	mov    $0x1,%edi
    1d54:	31 c0                	xor    %eax,%eax
    1d56:	e8 c5 f3 ff ff       	call   1120 <__printf_chk@plt>
    1d5b:	83 c8 ff             	or     $0xffffffff,%eax
    1d5e:	eb 82                	jmp    1ce2 <test.constprop.0+0x882>
    1d60:	e8 9b f3 ff ff       	call   1100 <__stack_chk_fail@plt>
    1d65:	66 2e 0f 1f 84 00 00 	cs nopw 0x0(%rax,%rax,1)
    1d6c:	00 00 00 
    1d6f:	90                   	nop

0000000000001d70 <riscv_dsp_convert_q15_f32>:
    1d70:	f3 0f 1e fa          	endbr64 
    1d74:	48 89 f1             	mov    %rsi,%rcx
    1d77:	85 d2                	test   %edx,%edx
    1d79:	0f 84 36 01 00 00    	je     1eb5 <riscv_dsp_convert_q15_f32+0x145>
    1d7f:	8d 42 ff             	lea    -0x1(%rdx),%eax
    1d82:	83 f8 06             	cmp    $0x6,%eax
    1d85:	0f 86 36 01 00 00    	jbe    1ec1 <riscv_dsp_convert_q15_f32+0x151>
    1d8b:	89 d6                	mov    %edx,%esi
    1d8d:	0f 28 1d 4c 77 00 00 	movaps 0x774c(%rip),%xmm3        # 94e0 <_IO_stdin_used+0x4e0>
    1d94:	31 c0                	xor    %eax,%eax
    1d96:	66 0f ef e4          	pxor   %xmm4,%xmm4
    1d9a:	c1 ee 03             	shr    $0x3,%esi
    1d9d:	48 c1 e6 04          	shl    $0x4,%rsi
    1da1:	0f 1f 80 00 00 00 00 	nopl   0x0(%rax)
    1da8:	f3 0f 6f 04 07       	movdqu (%rdi,%rax,1),%xmm0
    1dad:	66 0f 6f d4          	movdqa %xmm4,%xmm2
    1db1:	66 0f 65 d0          	pcmpgtw %xmm0,%xmm2
    1db5:	66 0f 6f c8          	movdqa %xmm0,%xmm1
    1db9:	66 0f 61 ca          	punpcklwd %xmm2,%xmm1
    1dbd:	66 0f 69 c2          	punpckhwd %xmm2,%xmm0
    1dc1:	0f 5b c9             	cvtdq2ps %xmm1,%xmm1
    1dc4:	0f 5b c0             	cvtdq2ps %xmm0,%xmm0
    1dc7:	0f 59 cb             	mulps  %xmm3,%xmm1
    1dca:	0f 59 c3             	mulps  %xmm3,%xmm0
    1dcd:	0f 11 0c 41          	movups %xmm1,(%rcx,%rax,2)
    1dd1:	0f 11 44 41 10       	movups %xmm0,0x10(%rcx,%rax,2)
    1dd6:	48 83 c0 10          	add    $0x10,%rax
    1dda:	48 39 f0             	cmp    %rsi,%rax
    1ddd:	75 c9                	jne    1da8 <riscv_dsp_convert_q15_f32+0x38>
    1ddf:	89 d6                	mov    %edx,%esi
    1de1:	83 e6 f8             	and    $0xfffffff8,%esi
    1de4:	89 f0                	mov    %esi,%eax
    1de6:	48 8d 3c 47          	lea    (%rdi,%rax,2),%rdi
    1dea:	48 8d 0c 81          	lea    (%rcx,%rax,4),%rcx
    1dee:	89 d0                	mov    %edx,%eax
    1df0:	29 f0                	sub    %esi,%eax
    1df2:	39 f2                	cmp    %esi,%edx
    1df4:	0f 84 c6 00 00 00    	je     1ec0 <riscv_dsp_convert_q15_f32+0x150>
    1dfa:	0f bf 17             	movswl (%rdi),%edx
    1dfd:	66 0f ef c9          	pxor   %xmm1,%xmm1
    1e01:	f3 0f 10 05 d7 76 00 	movss  0x76d7(%rip),%xmm0        # 94e0 <_IO_stdin_used+0x4e0>
    1e08:	00 
    1e09:	f3 0f 2a ca          	cvtsi2ss %edx,%xmm1
    1e0d:	f3 0f 59 c8          	mulss  %xmm0,%xmm1
    1e11:	f3 0f 11 09          	movss  %xmm1,(%rcx)
    1e15:	83 f8 01             	cmp    $0x1,%eax
    1e18:	0f 84 97 00 00 00    	je     1eb5 <riscv_dsp_convert_q15_f32+0x145>
    1e1e:	0f bf 57 02          	movswl 0x2(%rdi),%edx
    1e22:	66 0f ef c9          	pxor   %xmm1,%xmm1
    1e26:	f3 0f 2a ca          	cvtsi2ss %edx,%xmm1
    1e2a:	f3 0f 59 c8          	mulss  %xmm0,%xmm1
    1e2e:	f3 0f 11 49 04       	movss  %xmm1,0x4(%rcx)
    1e33:	83 f8 02             	cmp    $0x2,%eax
    1e36:	74 7d                	je     1eb5 <riscv_dsp_convert_q15_f32+0x145>
    1e38:	0f bf 57 04          	movswl 0x4(%rdi),%edx
    1e3c:	66 0f ef c9          	pxor   %xmm1,%xmm1
    1e40:	f3 0f 2a ca          	cvtsi2ss %edx,%xmm1
    1e44:	f3 0f 59 c8          	mulss  %xmm0,%xmm1
    1e48:	f3 0f 11 49 08       	movss  %xmm1,0x8(%rcx)
    1e4d:	83 f8 03             	cmp    $0x3,%eax
    1e50:	74 63                	je     1eb5 <riscv_dsp_convert_q15_f32+0x145>
    1e52:	0f bf 57 06          	movswl 0x6(%rdi),%edx
    1e56:	66 0f ef c9          	pxor   %xmm1,%xmm1
    1e5a:	f3 0f 2a ca          	cvtsi2ss %edx,%xmm1
    1e5e:	f3 0f 59 c8          	mulss  %xmm0,%xmm1
    1e62:	f3 0f 11 49 0c       	movss  %xmm1,0xc(%rcx)
    1e67:	83 f8 04             	cmp    $0x4,%eax
    1e6a:	74 49                	je     1eb5 <riscv_dsp_convert_q15_f32+0x145>
    1e6c:	0f bf 57 08          	movswl 0x8(%rdi),%edx
    1e70:	66 0f ef c9          	pxor   %xmm1,%xmm1
    1e74:	f3 0f 2a ca          	cvtsi2ss %edx,%xmm1
    1e78:	f3 0f 59 c8          	mulss  %xmm0,%xmm1
    1e7c:	f3 0f 11 49 10       	movss  %xmm1,0x10(%rcx)
    1e81:	83 f8 05             	cmp    $0x5,%eax
    1e84:	74 2f                	je     1eb5 <riscv_dsp_convert_q15_f32+0x145>
    1e86:	0f bf 57 0a          	movswl 0xa(%rdi),%edx
    1e8a:	66 0f ef c9          	pxor   %xmm1,%xmm1
    1e8e:	f3 0f 2a ca          	cvtsi2ss %edx,%xmm1
    1e92:	f3 0f 59 c8          	mulss  %xmm0,%xmm1
    1e96:	f3 0f 11 49 14       	movss  %xmm1,0x14(%rcx)
    1e9b:	83 f8 06             	cmp    $0x6,%eax
    1e9e:	74 15                	je     1eb5 <riscv_dsp_convert_q15_f32+0x145>
    1ea0:	0f bf 47 0c          	movswl 0xc(%rdi),%eax
    1ea4:	66 0f ef c9          	pxor   %xmm1,%xmm1
    1ea8:	f3 0f 2a c8          	cvtsi2ss %eax,%xmm1
    1eac:	f3 0f 59 c8          	mulss  %xmm0,%xmm1
    1eb0:	f3 0f 11 49 18       	movss  %xmm1,0x18(%rcx)
    1eb5:	c3                   	ret    
    1eb6:	66 2e 0f 1f 84 00 00 	cs nopw 0x0(%rax,%rax,1)
    1ebd:	00 00 00 
    1ec0:	c3                   	ret    
    1ec1:	89 d0                	mov    %edx,%eax
    1ec3:	e9 32 ff ff ff       	jmp    1dfa <riscv_dsp_convert_q15_f32+0x8a>
    1ec8:	0f 1f 84 00 00 00 00 	nopl   0x0(%rax,%rax,1)
    1ecf:	00 

0000000000001ed0 <riscv_dsp_mfcc_init_q15>:
    1ed0:	f3 0f 1e fa          	endbr64 
    1ed4:	66 0f 6e ca          	movd   %edx,%xmm1
    1ed8:	48 8b 54 24 18       	mov    0x18(%rsp),%rdx
    1edd:	89 4f 08             	mov    %ecx,0x8(%rdi)
    1ee0:	66 0f 6e c6          	movd   %esi,%xmm0
    1ee4:	66 0f 62 c1          	punpckldq %xmm1,%xmm0
    1ee8:	66 49 0f 6e d1       	movq   %r9,%xmm2
    1eed:	48 89 57 30          	mov    %rdx,0x30(%rdi)
    1ef1:	31 d2                	xor    %edx,%edx
    1ef3:	81 fe ff ff 00 00    	cmp    $0xffff,%esi
    1ef9:	0f 97 c2             	seta   %dl
    1efc:	66 0f d6 07          	movq   %xmm0,(%rdi)
    1f00:	66 49 0f 6e c0       	movq   %r8,%xmm0
    1f05:	c1 e2 04             	shl    $0x4,%edx
    1f08:	66 0f 6c c2          	punpcklqdq %xmm2,%xmm0
    1f0c:	89 d1                	mov    %edx,%ecx
    1f0e:	0f 11 47 10          	movups %xmm0,0x10(%rdi)
    1f12:	f3 0f 7e 44 24 08    	movq   0x8(%rsp),%xmm0
    1f18:	d3 ee                	shr    %cl,%esi
    1f1a:	31 c9                	xor    %ecx,%ecx
    1f1c:	81 fe ff 00 00 00    	cmp    $0xff,%esi
    1f22:	0f 16 44 24 10       	movhps 0x10(%rsp),%xmm0
    1f27:	0f 97 c1             	seta   %cl
    1f2a:	0f 11 47 20          	movups %xmm0,0x20(%rdi)
    1f2e:	c1 e1 03             	shl    $0x3,%ecx
    1f31:	d3 ee                	shr    %cl,%esi
    1f33:	09 ca                	or     %ecx,%edx
    1f35:	31 c9                	xor    %ecx,%ecx
    1f37:	83 fe 0f             	cmp    $0xf,%esi
    1f3a:	0f 97 c1             	seta   %cl
    1f3d:	c1 e1 02             	shl    $0x2,%ecx
    1f40:	d3 ee                	shr    %cl,%esi
    1f42:	09 ca                	or     %ecx,%edx
    1f44:	31 c9                	xor    %ecx,%ecx
    1f46:	83 fe 03             	cmp    $0x3,%esi
    1f49:	0f 97 c1             	seta   %cl
    1f4c:	01 c9                	add    %ecx,%ecx
    1f4e:	d3 ee                	shr    %cl,%esi
    1f50:	09 ca                	or     %ecx,%edx
    1f52:	d1 ee                	shr    %esi
    1f54:	09 d6                	or     %edx,%esi
    1f56:	89 77 38             	mov    %esi,0x38(%rdi)
    1f59:	c3                   	ret    
    1f5a:	66 0f 1f 44 00 00    	nopw   0x0(%rax,%rax,1)

0000000000001f60 <riscv_dsp_mfcc_q15>:
    1f60:	f3 0f 1e fa          	endbr64 
    1f64:	41 57                	push   %r15
    1f66:	49 89 cf             	mov    %rcx,%r15
    1f69:	41 56                	push   %r14
    1f6b:	49 89 fe             	mov    %rdi,%r14
    1f6e:	41 55                	push   %r13
    1f70:	41 54                	push   %r12
    1f72:	55                   	push   %rbp
    1f73:	48 89 f5             	mov    %rsi,%rbp
    1f76:	53                   	push   %rbx
    1f77:	48 83 ec 28          	sub    $0x28,%rsp
    1f7b:	8b 37                	mov    (%rdi),%esi
    1f7d:	4c 8b 6f 28          	mov    0x28(%rdi),%r13
    1f81:	48 89 ef             	mov    %rbp,%rdi
    1f84:	48 89 14 24          	mov    %rdx,(%rsp)
    1f88:	64 48 8b 04 25 28 00 	mov    %fs:0x28,%rax
    1f8f:	00 00 
    1f91:	48 89 44 24 18       	mov    %rax,0x18(%rsp)
    1f96:	31 c0                	xor    %eax,%eax
    1f98:	e8 53 12 00 00       	call   31f0 <riscv_dsp_absmax_val_q15>
    1f9d:	66 85 c0             	test   %ax,%ax
    1fa0:	66 89 44 24 0c       	mov    %ax,0xc(%rsp)
    1fa5:	89 c7                	mov    %eax,%edi
    1fa7:	41 0f 95 c4          	setne  %r12b
    1fab:	66 3d ff 7f          	cmp    $0x7fff,%ax
    1faf:	0f 95 c0             	setne  %al
    1fb2:	41 20 c4             	and    %al,%r12b
    1fb5:	44 88 64 24 0b       	mov    %r12b,0xb(%rsp)
    1fba:	74 5c                	je     2018 <riscv_dsp_mfcc_q15+0xb8>
    1fbc:	0f bf f7             	movswl %di,%esi
    1fbf:	48 8d 4c 24 16       	lea    0x16(%rsp),%rcx
    1fc4:	48 8d 54 24 14       	lea    0x14(%rsp),%rdx
    1fc9:	bf ff 7f 00 00       	mov    $0x7fff,%edi
    1fce:	e8 dd 5c 00 00       	call   7cb0 <riscv_dsp_divide_q15>
    1fd3:	85 c0                	test   %eax,%eax
    1fd5:	74 29                	je     2000 <riscv_dsp_mfcc_q15+0xa0>
    1fd7:	48 8b 44 24 18       	mov    0x18(%rsp),%rax
    1fdc:	64 48 2b 04 25 28 00 	sub    %fs:0x28,%rax
    1fe3:	00 00 
    1fe5:	0f 85 b3 02 00 00    	jne    229e <riscv_dsp_mfcc_q15+0x33e>
    1feb:	48 83 c4 28          	add    $0x28,%rsp
    1fef:	5b                   	pop    %rbx
    1ff0:	5d                   	pop    %rbp
    1ff1:	41 5c                	pop    %r12
    1ff3:	41 5d                	pop    %r13
    1ff5:	41 5e                	pop    %r14
    1ff7:	41 5f                	pop    %r15
    1ff9:	c3                   	ret    
    1ffa:	66 0f 1f 44 00 00    	nopw   0x0(%rax,%rax,1)
    2000:	0f be 54 24 16       	movsbl 0x16(%rsp),%edx
    2005:	0f bf 74 24 14       	movswl 0x14(%rsp),%esi
    200a:	48 89 e9             	mov    %rbp,%rcx
    200d:	48 89 ef             	mov    %rbp,%rdi
    2010:	45 8b 06             	mov    (%r14),%r8d
    2013:	e8 08 09 00 00       	call   2920 <riscv_dsp_scale_q15>
    2018:	41 8b 0e             	mov    (%r14),%ecx
    201b:	49 8b 76 30          	mov    0x30(%r14),%rsi
    201f:	48 89 ea             	mov    %rbp,%rdx
    2022:	48 89 ef             	mov    %rbp,%rdi
    2025:	e8 86 02 00 00       	call   22b0 <riscv_dsp_mul_q15>
    202a:	41 8b 76 38          	mov    0x38(%r14),%esi
    202e:	48 89 ef             	mov    %rbp,%rdi
    2031:	e8 8a 05 00 00       	call   25c0 <riscv_dsp_rfft_q15>
    2036:	41 8b 06             	mov    (%r14),%eax
    2039:	0f b7 55 02          	movzwl 0x2(%rbp),%edx
    203d:	31 f6                	xor    %esi,%esi
    203f:	48 89 ef             	mov    %rbp,%rdi
    2042:	66 89 54 45 00       	mov    %dx,0x0(%rbp,%rax,2)
    2047:	48 89 c1             	mov    %rax,%rcx
    204a:	31 d2                	xor    %edx,%edx
    204c:	8d 40 01             	lea    0x1(%rax),%eax
    204f:	66 89 54 45 00       	mov    %dx,0x0(%rbp,%rax,2)
    2054:	48 89 ea             	mov    %rbp,%rdx
    2057:	66 89 75 02          	mov    %si,0x2(%rbp)
    205b:	be 02 00 00 00       	mov    $0x2,%esi
    2060:	e8 eb 0c 00 00       	call   2d50 <riscv_dsp_shift_q15>
    2065:	41 8b 16             	mov    (%r14),%edx
    2068:	48 89 ee             	mov    %rbp,%rsi
    206b:	48 89 ef             	mov    %rbp,%rdi
    206e:	d1 ea                	shr    %edx
    2070:	83 c2 01             	add    $0x1,%edx
    2073:	e8 d8 5b 00 00       	call   7c50 <riscv_dsp_cmag_hp_q15>
    2078:	45 8b 46 04          	mov    0x4(%r14),%r8d
    207c:	45 85 c0             	test   %r8d,%r8d
    207f:	0f 84 db 01 00 00    	je     2260 <riscv_dsp_mfcc_q15+0x300>
    2085:	49 8b 56 20          	mov    0x20(%r14),%rdx
    2089:	45 31 e4             	xor    %r12d,%r12d
    208c:	0f 1f 40 00          	nopl   0x0(%rax)
    2090:	49 8b 46 18          	mov    0x18(%r14),%rax
    2094:	44 89 e3             	mov    %r12d,%ebx
    2097:	4c 89 ee             	mov    %r13,%rsi
    209a:	8b 14 9a             	mov    (%rdx,%rbx,4),%edx
    209d:	8b 04 98             	mov    (%rax,%rbx,4),%eax
    20a0:	48 8d 7c 45 00       	lea    0x0(%rbp,%rax,2),%rdi
    20a5:	e8 26 5d 00 00       	call   7dd0 <riscv_dsp_dprod_q15>
    20aa:	49 8b 56 20          	mov    0x20(%r14),%rdx
    20ae:	48 05 19 02 00 00    	add    $0x219,%rax
    20b4:	8b 34 9a             	mov    (%rdx,%rbx,4),%esi
    20b7:	48 c1 f8 0a          	sar    $0xa,%rax
    20bb:	4d 8d 6c 75 00       	lea    0x0(%r13,%rsi,2),%r13
    20c0:	be 00 00 00 c0       	mov    $0xc0000000,%esi
    20c5:	39 f0                	cmp    %esi,%eax
    20c7:	0f 4c c6             	cmovl  %esi,%eax
    20ca:	be ff ff ff 3f       	mov    $0x3fffffff,%esi
    20cf:	39 f0                	cmp    %esi,%eax
    20d1:	0f 4f c6             	cmovg  %esi,%eax
    20d4:	41 83 c4 01          	add    $0x1,%r12d
    20d8:	41 89 04 9f          	mov    %eax,(%r15,%rbx,4)
    20dc:	45 8b 46 04          	mov    0x4(%r14),%r8d
    20e0:	45 39 e0             	cmp    %r12d,%r8d
    20e3:	77 ab                	ja     2090 <riscv_dsp_mfcc_q15+0x130>
    20e5:	80 7c 24 0b 00       	cmpb   $0x0,0xb(%rsp)
    20ea:	0f 85 80 01 00 00    	jne    2270 <riscv_dsp_mfcc_q15+0x310>
    20f0:	31 db                	xor    %ebx,%ebx
    20f2:	45 85 c0             	test   %r8d,%r8d
    20f5:	0f 84 95 01 00 00    	je     2290 <riscv_dsp_mfcc_q15+0x330>
    20fb:	0f 1f 44 00 00       	nopl   0x0(%rax,%rax,1)
    2100:	89 d8                	mov    %ebx,%eax
    2102:	83 c3 01             	add    $0x1,%ebx
    2105:	4d 8d 24 87          	lea    (%r15,%rax,4),%r12
    2109:	41 8b 3c 24          	mov    (%r12),%edi
    210d:	e8 9e 5e 00 00       	call   7fb0 <riscv_dsp_log_q31>
    2112:	41 89 04 24          	mov    %eax,(%r12)
    2116:	41 8b 4e 04          	mov    0x4(%r14),%ecx
    211a:	39 d9                	cmp    %ebx,%ecx
    211c:	77 e2                	ja     2100 <riscv_dsp_mfcc_q15+0x1a0>
    211e:	41 8b 46 38          	mov    0x38(%r14),%eax
    2122:	4c 89 fa             	mov    %r15,%rdx
    2125:	4c 89 ff             	mov    %r15,%rdi
    2128:	8d 70 0b             	lea    0xb(%rax),%esi
    212b:	69 f6 60 c8 c5 02    	imul   $0x2c5c860,%esi,%esi
    2131:	e8 1a 02 00 00       	call   2350 <riscv_dsp_offset_q31>
    2136:	41 8b 4e 04          	mov    0x4(%r14),%ecx
    213a:	4c 89 fa             	mov    %r15,%rdx
    213d:	4c 89 ff             	mov    %r15,%rdi
    2140:	be ed ff ff ff       	mov    $0xffffffed,%esi
    2145:	e8 86 0f 00 00       	call   30d0 <riscv_dsp_shift_q31>
    214a:	45 8b 46 04          	mov    0x4(%r14),%r8d
    214e:	45 85 c0             	test   %r8d,%r8d
    2151:	0f 84 cd 00 00 00    	je     2224 <riscv_dsp_mfcc_q15+0x2c4>
    2157:	41 8d 40 ff          	lea    -0x1(%r8),%eax
    215b:	83 f8 06             	cmp    $0x6,%eax
    215e:	0f 86 33 01 00 00    	jbe    2297 <riscv_dsp_mfcc_q15+0x337>
    2164:	44 89 c2             	mov    %r8d,%edx
    2167:	31 c0                	xor    %eax,%eax
    2169:	c1 ea 03             	shr    $0x3,%edx
    216c:	48 c1 e2 04          	shl    $0x4,%rdx
    2170:	f3 41 0f 6f 04 47    	movdqu (%r15,%rax,2),%xmm0
    2176:	f3 41 0f 6f 5c 47 10 	movdqu 0x10(%r15,%rax,2),%xmm3
    217d:	66 0f 6f c8          	movdqa %xmm0,%xmm1
    2181:	66 0f 61 c3          	punpcklwd %xmm3,%xmm0
    2185:	66 0f 69 cb          	punpckhwd %xmm3,%xmm1
    2189:	66 0f 6f d0          	movdqa %xmm0,%xmm2
    218d:	66 0f 69 d1          	punpckhwd %xmm1,%xmm2
    2191:	66 0f 61 c1          	punpcklwd %xmm1,%xmm0
    2195:	66 0f 61 c2          	punpcklwd %xmm2,%xmm0
    2199:	0f 11 44 05 00       	movups %xmm0,0x0(%rbp,%rax,1)
    219e:	48 83 c0 10          	add    $0x10,%rax
    21a2:	48 39 d0             	cmp    %rdx,%rax
    21a5:	75 c9                	jne    2170 <riscv_dsp_mfcc_q15+0x210>
    21a7:	44 89 c0             	mov    %r8d,%eax
    21aa:	83 e0 f8             	and    $0xfffffff8,%eax
    21ad:	41 f6 c0 07          	test   $0x7,%r8b
    21b1:	74 71                	je     2224 <riscv_dsp_mfcc_q15+0x2c4>
    21b3:	89 c2                	mov    %eax,%edx
    21b5:	41 8b 0c 97          	mov    (%r15,%rdx,4),%ecx
    21b9:	66 89 4c 55 00       	mov    %cx,0x0(%rbp,%rdx,2)
    21be:	8d 50 01             	lea    0x1(%rax),%edx
    21c1:	41 39 d0             	cmp    %edx,%r8d
    21c4:	76 5e                	jbe    2224 <riscv_dsp_mfcc_q15+0x2c4>
    21c6:	41 8b 0c 97          	mov    (%r15,%rdx,4),%ecx
    21ca:	66 89 4c 55 00       	mov    %cx,0x0(%rbp,%rdx,2)
    21cf:	8d 50 02             	lea    0x2(%rax),%edx
    21d2:	44 39 c2             	cmp    %r8d,%edx
    21d5:	73 4d                	jae    2224 <riscv_dsp_mfcc_q15+0x2c4>
    21d7:	41 8b 0c 97          	mov    (%r15,%rdx,4),%ecx
    21db:	66 89 4c 55 00       	mov    %cx,0x0(%rbp,%rdx,2)
    21e0:	8d 50 03             	lea    0x3(%rax),%edx
    21e3:	41 39 d0             	cmp    %edx,%r8d
    21e6:	76 3c                	jbe    2224 <riscv_dsp_mfcc_q15+0x2c4>
    21e8:	41 8b 0c 97          	mov    (%r15,%rdx,4),%ecx
    21ec:	66 89 4c 55 00       	mov    %cx,0x0(%rbp,%rdx,2)
    21f1:	8d 50 04             	lea    0x4(%rax),%edx
    21f4:	41 39 d0             	cmp    %edx,%r8d
    21f7:	76 2b                	jbe    2224 <riscv_dsp_mfcc_q15+0x2c4>
    21f9:	41 8b 0c 97          	mov    (%r15,%rdx,4),%ecx
    21fd:	66 89 4c 55 00       	mov    %cx,0x0(%rbp,%rdx,2)
    2202:	8d 50 05             	lea    0x5(%rax),%edx
    2205:	41 39 d0             	cmp    %edx,%r8d
    2208:	76 1a                	jbe    2224 <riscv_dsp_mfcc_q15+0x2c4>
    220a:	41 8b 0c 97          	mov    (%r15,%rdx,4),%ecx
    220e:	83 c0 06             	add    $0x6,%eax
    2211:	66 89 4c 55 00       	mov    %cx,0x0(%rbp,%rdx,2)
    2216:	41 39 c0             	cmp    %eax,%r8d
    2219:	76 09                	jbe    2224 <riscv_dsp_mfcc_q15+0x2c4>
    221b:	41 8b 14 87          	mov    (%r15,%rax,4),%edx
    221f:	66 89 54 45 00       	mov    %dx,0x0(%rbp,%rax,2)
    2224:	48 8b 44 24 18       	mov    0x18(%rsp),%rax
    2229:	64 48 2b 04 25 28 00 	sub    %fs:0x28,%rax
    2230:	00 00 
    2232:	75 6a                	jne    229e <riscv_dsp_mfcc_q15+0x33e>
    2234:	41 8b 4e 08          	mov    0x8(%r14),%ecx
    2238:	49 8b 7e 10          	mov    0x10(%r14),%rdi
    223c:	48 89 ee             	mov    %rbp,%rsi
    223f:	48 8b 14 24          	mov    (%rsp),%rdx
    2243:	48 83 c4 28          	add    $0x28,%rsp
    2247:	5b                   	pop    %rbx
    2248:	5d                   	pop    %rbp
    2249:	41 5c                	pop    %r12
    224b:	41 5d                	pop    %r13
    224d:	41 5e                	pop    %r14
    224f:	41 5f                	pop    %r15
    2251:	e9 2a 5e 00 00       	jmp    8080 <riscv_dsp_mat_mul_mxv_q15>
    2256:	66 2e 0f 1f 84 00 00 	cs nopw 0x0(%rax,%rax,1)
    225d:	00 00 00 
    2260:	80 7c 24 0b 00       	cmpb   $0x0,0xb(%rsp)
    2265:	74 29                	je     2290 <riscv_dsp_mfcc_q15+0x330>
    2267:	66 0f 1f 84 00 00 00 	nopw   0x0(%rax,%rax,1)
    226e:	00 00 
    2270:	8b 74 24 0c          	mov    0xc(%rsp),%esi
    2274:	4c 89 f9             	mov    %r15,%rcx
    2277:	31 d2                	xor    %edx,%edx
    2279:	4c 89 ff             	mov    %r15,%rdi
    227c:	c1 e6 10             	shl    $0x10,%esi
    227f:	e8 2c 09 00 00       	call   2bb0 <riscv_dsp_scale_q31>
    2284:	45 8b 46 04          	mov    0x4(%r14),%r8d
    2288:	e9 63 fe ff ff       	jmp    20f0 <riscv_dsp_mfcc_q15+0x190>
    228d:	0f 1f 00             	nopl   (%rax)
    2290:	31 c9                	xor    %ecx,%ecx
    2292:	e9 87 fe ff ff       	jmp    211e <riscv_dsp_mfcc_q15+0x1be>
    2297:	31 c0                	xor    %eax,%eax
    2299:	e9 15 ff ff ff       	jmp    21b3 <riscv_dsp_mfcc_q15+0x253>
    229e:	e8 5d ee ff ff       	call   1100 <__stack_chk_fail@plt>
    22a3:	66 2e 0f 1f 84 00 00 	cs nopw 0x0(%rax,%rax,1)
    22aa:	00 00 00 
    22ad:	0f 1f 00             	nopl   (%rax)

00000000000022b0 <riscv_dsp_mul_q15>:
    22b0:	f3 0f 1e fa          	endbr64 
    22b4:	41 89 ca             	mov    %ecx,%r10d
    22b7:	41 83 e2 01          	and    $0x1,%r10d
    22bb:	83 e1 fe             	and    $0xfffffffe,%ecx
    22be:	74 57                	je     2317 <riscv_dsp_mul_q15+0x67>
    22c0:	41 b9 ff 7f 00 00    	mov    $0x7fff,%r9d
    22c6:	66 2e 0f 1f 84 00 00 	cs nopw 0x0(%rax,%rax,1)
    22cd:	00 00 00 
    22d0:	0f bf 07             	movswl (%rdi),%eax
    22d3:	44 0f bf 06          	movswl (%rsi),%r8d
    22d7:	48 83 c7 04          	add    $0x4,%rdi
    22db:	48 83 c6 04          	add    $0x4,%rsi
    22df:	41 0f af c0          	imul   %r8d,%eax
    22e3:	44 0f bf 46 fe       	movswl -0x2(%rsi),%r8d
    22e8:	c1 f8 0f             	sar    $0xf,%eax
    22eb:	3d 00 80 00 00       	cmp    $0x8000,%eax
    22f0:	41 0f 44 c1          	cmove  %r9d,%eax
    22f4:	48 83 c2 04          	add    $0x4,%rdx
    22f8:	66 89 42 fc          	mov    %ax,-0x4(%rdx)
    22fc:	0f bf 47 fe          	movswl -0x2(%rdi),%eax
    2300:	41 0f af c0          	imul   %r8d,%eax
    2304:	c1 f8 0f             	sar    $0xf,%eax
    2307:	3d 00 80 00 00       	cmp    $0x8000,%eax
    230c:	74 32                	je     2340 <riscv_dsp_mul_q15+0x90>
    230e:	66 89 42 fe          	mov    %ax,-0x2(%rdx)
    2312:	83 e9 02             	sub    $0x2,%ecx
    2315:	75 b9                	jne    22d0 <riscv_dsp_mul_q15+0x20>
    2317:	45 85 d2             	test   %r10d,%r10d
    231a:	74 1c                	je     2338 <riscv_dsp_mul_q15+0x88>
    231c:	0f bf 0f             	movswl (%rdi),%ecx
    231f:	0f bf 06             	movswl (%rsi),%eax
    2322:	0f af c1             	imul   %ecx,%eax
    2325:	b9 ff 7f 00 00       	mov    $0x7fff,%ecx
    232a:	c1 f8 0f             	sar    $0xf,%eax
    232d:	3d 00 80 00 00       	cmp    $0x8000,%eax
    2332:	0f 44 c1             	cmove  %ecx,%eax
    2335:	66 89 02             	mov    %ax,(%rdx)
    2338:	c3                   	ret    
    2339:	0f 1f 80 00 00 00 00 	nopl   0x0(%rax)
    2340:	b8 ff 7f 00 00       	mov    $0x7fff,%eax
    2345:	66 89 42 fe          	mov    %ax,-0x2(%rdx)
    2349:	83 e9 02             	sub    $0x2,%ecx
    234c:	75 82                	jne    22d0 <riscv_dsp_mul_q15+0x20>
    234e:	eb c7                	jmp    2317 <riscv_dsp_mul_q15+0x67>

0000000000002350 <riscv_dsp_offset_q31>:
    2350:	f3 0f 1e fa          	endbr64 
    2354:	85 c9                	test   %ecx,%ecx
    2356:	0f 84 eb 00 00 00    	je     2447 <riscv_dsp_offset_q31+0xf7>
    235c:	8d 41 ff             	lea    -0x1(%rcx),%eax
    235f:	85 f6                	test   %esi,%esi
    2361:	0f 8e e9 00 00 00    	jle    2450 <riscv_dsp_offset_q31+0x100>
    2367:	83 f8 02             	cmp    $0x2,%eax
    236a:	0f 86 c9 01 00 00    	jbe    2539 <riscv_dsp_offset_q31+0x1e9>
    2370:	41 b8 ff ff ff 7f    	mov    $0x7fffffff,%r8d
    2376:	41 89 c9             	mov    %ecx,%r9d
    2379:	66 0f 6e fe          	movd   %esi,%xmm7
    237d:	31 c0                	xor    %eax,%eax
    237f:	41 29 f0             	sub    %esi,%r8d
    2382:	41 c1 e9 02          	shr    $0x2,%r9d
    2386:	66 0f 70 ef 00       	pshufd $0x0,%xmm7,%xmm5
    238b:	66 0f 6f 1d 5d 71 00 	movdqa 0x715d(%rip),%xmm3        # 94f0 <_IO_stdin_used+0x4f0>
    2392:	00 
    2393:	66 41 0f 6e f0       	movd   %r8d,%xmm6
    2398:	49 c1 e1 04          	shl    $0x4,%r9
    239c:	66 0f 70 e6 00       	pshufd $0x0,%xmm6,%xmm4
    23a1:	0f 1f 80 00 00 00 00 	nopl   0x0(%rax)
    23a8:	f3 0f 6f 04 07       	movdqu (%rdi,%rax,1),%xmm0
    23ad:	66 0f 6f d0          	movdqa %xmm0,%xmm2
    23b1:	66 0f 6f c8          	movdqa %xmm0,%xmm1
    23b5:	66 0f 66 c4          	pcmpgtd %xmm4,%xmm0
    23b9:	66 0f 72 e1 1f       	psrad  $0x1f,%xmm1
    23be:	66 0f fe d5          	paddd  %xmm5,%xmm2
    23c2:	66 0f ef cb          	pxor   %xmm3,%xmm1
    23c6:	66 0f db c8          	pand   %xmm0,%xmm1
    23ca:	66 0f df c2          	pandn  %xmm2,%xmm0
    23ce:	66 0f eb c1          	por    %xmm1,%xmm0
    23d2:	0f 11 04 02          	movups %xmm0,(%rdx,%rax,1)
    23d6:	48 83 c0 10          	add    $0x10,%rax
    23da:	49 39 c1             	cmp    %rax,%r9
    23dd:	75 c9                	jne    23a8 <riscv_dsp_offset_q31+0x58>
    23df:	41 89 c8             	mov    %ecx,%r8d
    23e2:	41 89 c9             	mov    %ecx,%r9d
    23e5:	41 83 e0 fc          	and    $0xfffffffc,%r8d
    23e9:	44 89 c0             	mov    %r8d,%eax
    23ec:	45 29 c1             	sub    %r8d,%r9d
    23ef:	48 c1 e0 02          	shl    $0x2,%rax
    23f3:	48 01 c7             	add    %rax,%rdi
    23f6:	48 01 c2             	add    %rax,%rdx
    23f9:	44 39 c1             	cmp    %r8d,%ecx
    23fc:	0f 84 46 01 00 00    	je     2548 <riscv_dsp_offset_q31+0x1f8>
    2402:	b8 ff ff ff 7f       	mov    $0x7fffffff,%eax
    2407:	44 8b 17             	mov    (%rdi),%r10d
    240a:	41 89 c0             	mov    %eax,%r8d
    240d:	41 29 f0             	sub    %esi,%r8d
    2410:	42 8d 0c 16          	lea    (%rsi,%r10,1),%ecx
    2414:	45 39 d0             	cmp    %r10d,%r8d
    2417:	0f 4c c8             	cmovl  %eax,%ecx
    241a:	89 0a                	mov    %ecx,(%rdx)
    241c:	41 83 f9 01          	cmp    $0x1,%r9d
    2420:	74 25                	je     2447 <riscv_dsp_offset_q31+0xf7>
    2422:	44 8b 57 04          	mov    0x4(%rdi),%r10d
    2426:	42 8d 0c 16          	lea    (%rsi,%r10,1),%ecx
    242a:	45 39 c2             	cmp    %r8d,%r10d
    242d:	0f 4f c8             	cmovg  %eax,%ecx
    2430:	89 4a 04             	mov    %ecx,0x4(%rdx)
    2433:	41 83 f9 02          	cmp    $0x2,%r9d
    2437:	74 0e                	je     2447 <riscv_dsp_offset_q31+0xf7>
    2439:	8b 4f 08             	mov    0x8(%rdi),%ecx
    243c:	01 ce                	add    %ecx,%esi
    243e:	41 39 c8             	cmp    %ecx,%r8d
    2441:	0f 4c f0             	cmovl  %eax,%esi
    2444:	89 72 08             	mov    %esi,0x8(%rdx)
    2447:	c3                   	ret    
    2448:	0f 1f 84 00 00 00 00 	nopl   0x0(%rax,%rax,1)
    244f:	00 
    2450:	0f 84 fa 00 00 00    	je     2550 <riscv_dsp_offset_q31+0x200>
    2456:	83 f8 02             	cmp    $0x2,%eax
    2459:	0f 86 4f 01 00 00    	jbe    25ae <riscv_dsp_offset_q31+0x25e>
    245f:	41 b8 00 00 00 80    	mov    $0x80000000,%r8d
    2465:	66 0f 6e fe          	movd   %esi,%xmm7
    2469:	41 89 c9             	mov    %ecx,%r9d
    246c:	31 c0                	xor    %eax,%eax
    246e:	41 29 f0             	sub    %esi,%r8d
    2471:	66 0f 70 f7 00       	pshufd $0x0,%xmm7,%xmm6
    2476:	41 c1 e9 02          	shr    $0x2,%r9d
    247a:	66 0f 6f 1d 6e 70 00 	movdqa 0x706e(%rip),%xmm3        # 94f0 <_IO_stdin_used+0x4f0>
    2481:	00 
    2482:	66 41 0f 6e f8       	movd   %r8d,%xmm7
    2487:	49 c1 e1 04          	shl    $0x4,%r9
    248b:	66 0f 70 ef 00       	pshufd $0x0,%xmm7,%xmm5
    2490:	f3 0f 6f 14 07       	movdqu (%rdi,%rax,1),%xmm2
    2495:	66 0f 6f c5          	movdqa %xmm5,%xmm0
    2499:	66 0f 66 c2          	pcmpgtd %xmm2,%xmm0
    249d:	66 0f 6f ca          	movdqa %xmm2,%xmm1
    24a1:	66 0f 6f e2          	movdqa %xmm2,%xmm4
    24a5:	66 0f 72 e1 1f       	psrad  $0x1f,%xmm1
    24aa:	66 0f fe e6          	paddd  %xmm6,%xmm4
    24ae:	66 0f ef cb          	pxor   %xmm3,%xmm1
    24b2:	66 0f db c8          	pand   %xmm0,%xmm1
    24b6:	66 0f df c4          	pandn  %xmm4,%xmm0
    24ba:	66 0f eb c1          	por    %xmm1,%xmm0
    24be:	0f 11 04 02          	movups %xmm0,(%rdx,%rax,1)
    24c2:	48 83 c0 10          	add    $0x10,%rax
    24c6:	4c 39 c8             	cmp    %r9,%rax
    24c9:	75 c5                	jne    2490 <riscv_dsp_offset_q31+0x140>
    24cb:	41 89 c8             	mov    %ecx,%r8d
    24ce:	41 89 c9             	mov    %ecx,%r9d
    24d1:	41 83 e0 fc          	and    $0xfffffffc,%r8d
    24d5:	44 89 c0             	mov    %r8d,%eax
    24d8:	45 29 c1             	sub    %r8d,%r9d
    24db:	48 c1 e0 02          	shl    $0x2,%rax
    24df:	48 01 c7             	add    %rax,%rdi
    24e2:	48 01 c2             	add    %rax,%rdx
    24e5:	44 39 c1             	cmp    %r8d,%ecx
    24e8:	74 4e                	je     2538 <riscv_dsp_offset_q31+0x1e8>
    24ea:	b8 00 00 00 80       	mov    $0x80000000,%eax
    24ef:	44 8b 17             	mov    (%rdi),%r10d
    24f2:	41 89 c0             	mov    %eax,%r8d
    24f5:	41 29 f0             	sub    %esi,%r8d
    24f8:	42 8d 0c 16          	lea    (%rsi,%r10,1),%ecx
    24fc:	45 39 c2             	cmp    %r8d,%r10d
    24ff:	0f 4c c8             	cmovl  %eax,%ecx
    2502:	89 0a                	mov    %ecx,(%rdx)
    2504:	41 83 f9 01          	cmp    $0x1,%r9d
    2508:	0f 84 39 ff ff ff    	je     2447 <riscv_dsp_offset_q31+0xf7>
    250e:	44 8b 57 04          	mov    0x4(%rdi),%r10d
    2512:	42 8d 0c 16          	lea    (%rsi,%r10,1),%ecx
    2516:	45 39 d0             	cmp    %r10d,%r8d
    2519:	0f 4f c8             	cmovg  %eax,%ecx
    251c:	89 4a 04             	mov    %ecx,0x4(%rdx)
    251f:	41 83 f9 02          	cmp    $0x2,%r9d
    2523:	0f 84 1e ff ff ff    	je     2447 <riscv_dsp_offset_q31+0xf7>
    2529:	8b 4f 08             	mov    0x8(%rdi),%ecx
    252c:	01 ce                	add    %ecx,%esi
    252e:	41 39 c8             	cmp    %ecx,%r8d
    2531:	0f 4f f0             	cmovg  %eax,%esi
    2534:	89 72 08             	mov    %esi,0x8(%rdx)
    2537:	c3                   	ret    
    2538:	c3                   	ret    
    2539:	41 89 c9             	mov    %ecx,%r9d
    253c:	e9 c1 fe ff ff       	jmp    2402 <riscv_dsp_offset_q31+0xb2>
    2541:	0f 1f 80 00 00 00 00 	nopl   0x0(%rax)
    2548:	c3                   	ret    
    2549:	0f 1f 80 00 00 00 00 	nopl   0x0(%rax)
    2550:	83 f8 02             	cmp    $0x2,%eax
    2553:	76 62                	jbe    25b7 <riscv_dsp_offset_q31+0x267>
    2555:	89 ce                	mov    %ecx,%esi
    2557:	31 c0                	xor    %eax,%eax
    2559:	c1 ee 02             	shr    $0x2,%esi
    255c:	48 c1 e6 04          	shl    $0x4,%rsi
    2560:	f3 0f 6f 3c 07       	movdqu (%rdi,%rax,1),%xmm7
    2565:	0f 11 3c 02          	movups %xmm7,(%rdx,%rax,1)
    2569:	48 83 c0 10          	add    $0x10,%rax
    256d:	48 39 c6             	cmp    %rax,%rsi
    2570:	75 ee                	jne    2560 <riscv_dsp_offset_q31+0x210>
    2572:	89 ce                	mov    %ecx,%esi
    2574:	83 e6 fc             	and    $0xfffffffc,%esi
    2577:	89 f0                	mov    %esi,%eax
    2579:	48 c1 e0 02          	shl    $0x2,%rax
    257d:	48 01 c7             	add    %rax,%rdi
    2580:	48 01 c2             	add    %rax,%rdx
    2583:	89 c8                	mov    %ecx,%eax
    2585:	29 f0                	sub    %esi,%eax
    2587:	39 f1                	cmp    %esi,%ecx
    2589:	74 2b                	je     25b6 <riscv_dsp_offset_q31+0x266>
    258b:	8b 0f                	mov    (%rdi),%ecx
    258d:	89 0a                	mov    %ecx,(%rdx)
    258f:	83 f8 01             	cmp    $0x1,%eax
    2592:	0f 84 af fe ff ff    	je     2447 <riscv_dsp_offset_q31+0xf7>
    2598:	8b 4f 04             	mov    0x4(%rdi),%ecx
    259b:	89 4a 04             	mov    %ecx,0x4(%rdx)
    259e:	83 f8 02             	cmp    $0x2,%eax
    25a1:	0f 84 a0 fe ff ff    	je     2447 <riscv_dsp_offset_q31+0xf7>
    25a7:	8b 47 08             	mov    0x8(%rdi),%eax
    25aa:	89 42 08             	mov    %eax,0x8(%rdx)
    25ad:	c3                   	ret    
    25ae:	41 89 c9             	mov    %ecx,%r9d
    25b1:	e9 34 ff ff ff       	jmp    24ea <riscv_dsp_offset_q31+0x19a>
    25b6:	c3                   	ret    
    25b7:	89 c8                	mov    %ecx,%eax
    25b9:	eb d0                	jmp    258b <riscv_dsp_offset_q31+0x23b>
    25bb:	0f 1f 44 00 00       	nopl   0x0(%rax,%rax,1)

00000000000025c0 <riscv_dsp_rfft_q15>:
    25c0:	f3 0f 1e fa          	endbr64 
    25c4:	41 57                	push   %r15
    25c6:	41 56                	push   %r14
    25c8:	41 55                	push   %r13
    25ca:	41 54                	push   %r12
    25cc:	55                   	push   %rbp
    25cd:	89 f5                	mov    %esi,%ebp
    25cf:	83 ee 01             	sub    $0x1,%esi
    25d2:	53                   	push   %rbx
    25d3:	48 89 fb             	mov    %rdi,%rbx
    25d6:	48 83 ec 18          	sub    $0x18,%rsp
    25da:	e8 91 0c 00 00       	call   3270 <riscv_dsp_cfft_q15>
    25df:	41 b9 01 00 00 00    	mov    $0x1,%r9d
    25e5:	89 e9                	mov    %ebp,%ecx
    25e7:	41 d3 e1             	shl    %cl,%r9d
    25ea:	41 c1 e9 02          	shr    $0x2,%r9d
    25ee:	0f 84 4f 01 00 00    	je     2743 <riscv_dsp_rfft_q15+0x183>
    25f4:	b8 0a 00 00 00       	mov    $0xa,%eax
    25f9:	43 8d 34 09          	lea    (%r9,%r9,1),%esi
    25fd:	49 89 de             	mov    %rbx,%r14
    2600:	29 e8                	sub    %ebp,%eax
    2602:	49 89 f2             	mov    %rsi,%r10
    2605:	4c 8d 04 73          	lea    (%rbx,%rsi,2),%r8
    2609:	89 44 24 0c          	mov    %eax,0xc(%rsp)
    260d:	e9 a0 00 00 00       	jmp    26b2 <riscv_dsp_rfft_q15+0xf2>
    2612:	66 0f 1f 44 00 00    	nopw   0x0(%rax,%rax,1)
    2618:	48 8d 1d 45 73 00 00 	lea    0x7345(%rip),%rbx        # 9964 <riscv_dsp_cos_table_q15_1024+0x4>
    261f:	48 98                	cltq   
    2621:	48 63 d2             	movslq %edx,%rdx
    2624:	0f b7 04 43          	movzwl (%rbx,%rax,2),%eax
    2628:	0f b7 3c 53          	movzwl (%rbx,%rdx,2),%edi
    262c:	41 8d 52 01          	lea    0x1(%r10),%edx
    2630:	41 0f bf 08          	movswl (%r8),%ecx
    2634:	49 8d 1c 76          	lea    (%r14,%rsi,2),%rbx
    2638:	98                   	cwtl   
    2639:	4d 8d 1c 56          	lea    (%r14,%rdx,2),%r11
    263d:	44 0f bf 2b          	movswl (%rbx),%r13d
    2641:	41 0f bf 70 02       	movswl 0x2(%r8),%esi
    2646:	0f bf ff             	movswl %di,%edi
    2649:	41 0f bf 13          	movswl (%r11),%edx
    264d:	89 cd                	mov    %ecx,%ebp
    264f:	41 89 ff             	mov    %edi,%r15d
    2652:	49 83 e8 04          	sub    $0x4,%r8
    2656:	44 29 ed             	sub    %r13d,%ebp
    2659:	44 01 e9             	add    %r13d,%ecx
    265c:	41 83 c2 02          	add    $0x2,%r10d
    2660:	0f af fd             	imul   %ebp,%edi
    2663:	44 8d 24 16          	lea    (%rsi,%rdx,1),%r12d
    2667:	29 d6                	sub    %edx,%esi
    2669:	89 c2                	mov    %eax,%edx
    266b:	41 0f af c4          	imul   %r12d,%eax
    266f:	c1 f9 02             	sar    $0x2,%ecx
    2672:	c1 fe 02             	sar    $0x2,%esi
    2675:	0f af d5             	imul   %ebp,%edx
    2678:	45 0f af fc          	imul   %r12d,%r15d
    267c:	29 f8                	sub    %edi,%eax
    267e:	c1 f8 11             	sar    $0x11,%eax
    2681:	8d 3c 08             	lea    (%rax,%rcx,1),%edi
    2684:	44 01 fa             	add    %r15d,%edx
    2687:	29 c1                	sub    %eax,%ecx
    2689:	66 41 89 78 04       	mov    %di,0x4(%r8)
    268e:	c1 fa 11             	sar    $0x11,%edx
    2691:	89 f7                	mov    %esi,%edi
    2693:	29 d7                	sub    %edx,%edi
    2695:	f7 da                	neg    %edx
    2697:	29 f2                	sub    %esi,%edx
    2699:	66 41 89 78 06       	mov    %di,0x6(%r8)
    269e:	66 89 0b             	mov    %cx,(%rbx)
    26a1:	66 41 89 13          	mov    %dx,(%r11)
    26a5:	41 83 e9 01          	sub    $0x1,%r9d
    26a9:	0f 84 91 00 00 00    	je     2740 <riscv_dsp_rfft_q15+0x180>
    26af:	44 89 d6             	mov    %r10d,%esi
    26b2:	0f b6 4c 24 0c       	movzbl 0xc(%rsp),%ecx
    26b7:	44 89 c8             	mov    %r9d,%eax
    26ba:	ba 00 01 00 00       	mov    $0x100,%edx
    26bf:	d3 e0                	shl    %cl,%eax
    26c1:	29 c2                	sub    %eax,%edx
    26c3:	85 d2                	test   %edx,%edx
    26c5:	0f 8f 4d ff ff ff    	jg     2618 <riscv_dsp_rfft_q15+0x58>
    26cb:	8d 90 00 ff ff ff    	lea    -0x100(%rax),%edx
    26d1:	b9 00 01 00 00       	mov    $0x100,%ecx
    26d6:	29 d1                	sub    %edx,%ecx
    26d8:	85 c9                	test   %ecx,%ecx
    26da:	7e 24                	jle    2700 <riscv_dsp_rfft_q15+0x140>
    26dc:	48 8d 1d 81 72 00 00 	lea    0x7281(%rip),%rbx        # 9964 <riscv_dsp_cos_table_q15_1024+0x4>
    26e3:	48 63 c9             	movslq %ecx,%rcx
    26e6:	48 63 d2             	movslq %edx,%rdx
    26e9:	0f b7 04 4b          	movzwl (%rbx,%rcx,2),%eax
    26ed:	0f b7 3c 53          	movzwl (%rbx,%rdx,2),%edi
    26f1:	f7 d8                	neg    %eax
    26f3:	e9 34 ff ff ff       	jmp    262c <riscv_dsp_rfft_q15+0x6c>
    26f8:	0f 1f 84 00 00 00 00 	nopl   0x0(%rax,%rax,1)
    26ff:	00 
    2700:	8d 90 00 fe ff ff    	lea    -0x200(%rax),%edx
    2706:	b9 00 01 00 00       	mov    $0x100,%ecx
    270b:	48 8d 1d 52 72 00 00 	lea    0x7252(%rip),%rbx        # 9964 <riscv_dsp_cos_table_q15_1024+0x4>
    2712:	29 d1                	sub    %edx,%ecx
    2714:	48 63 d2             	movslq %edx,%rdx
    2717:	0f b7 3c 53          	movzwl (%rbx,%rdx,2),%edi
    271b:	48 63 c1             	movslq %ecx,%rax
    271e:	0f b7 04 43          	movzwl (%rbx,%rax,2),%eax
    2722:	f7 df                	neg    %edi
    2724:	85 c9                	test   %ecx,%ecx
    2726:	0f 8e 00 ff ff ff    	jle    262c <riscv_dsp_rfft_q15+0x6c>
    272c:	f7 d8                	neg    %eax
    272e:	89 c2                	mov    %eax,%edx
    2730:	89 f8                	mov    %edi,%eax
    2732:	89 d7                	mov    %edx,%edi
    2734:	e9 f3 fe ff ff       	jmp    262c <riscv_dsp_rfft_q15+0x6c>
    2739:	0f 1f 80 00 00 00 00 	nopl   0x0(%rax)
    2740:	4c 89 f3             	mov    %r14,%rbx
    2743:	0f bf 03             	movswl (%rbx),%eax
    2746:	0f bf 4b 02          	movswl 0x2(%rbx),%ecx
    274a:	8d 14 01             	lea    (%rcx,%rax,1),%edx
    274d:	29 c8                	sub    %ecx,%eax
    274f:	d1 f8                	sar    %eax
    2751:	d1 fa                	sar    %edx
    2753:	66 89 43 02          	mov    %ax,0x2(%rbx)
    2757:	31 c0                	xor    %eax,%eax
    2759:	66 89 13             	mov    %dx,(%rbx)
    275c:	48 83 c4 18          	add    $0x18,%rsp
    2760:	5b                   	pop    %rbx
    2761:	5d                   	pop    %rbp
    2762:	41 5c                	pop    %r12
    2764:	41 5d                	pop    %r13
    2766:	41 5e                	pop    %r14
    2768:	41 5f                	pop    %r15
    276a:	c3                   	ret    
    276b:	0f 1f 44 00 00       	nopl   0x0(%rax,%rax,1)

0000000000002770 <riscv_dsp_rifft_q15>:
    2770:	f3 0f 1e fa          	endbr64 
    2774:	41 57                	push   %r15
    2776:	41 b9 01 00 00 00    	mov    $0x1,%r9d
    277c:	89 f1                	mov    %esi,%ecx
    277e:	49 89 fb             	mov    %rdi,%r11
    2781:	41 56                	push   %r14
    2783:	41 d3 e1             	shl    %cl,%r9d
    2786:	41 55                	push   %r13
    2788:	41 54                	push   %r12
    278a:	55                   	push   %rbp
    278b:	53                   	push   %rbx
    278c:	48 83 ec 18          	sub    $0x18,%rsp
    2790:	41 c1 e9 02          	shr    $0x2,%r9d
    2794:	89 74 24 0c          	mov    %esi,0xc(%rsp)
    2798:	0f 84 42 01 00 00    	je     28e0 <riscv_dsp_rifft_q15+0x170>
    279e:	b8 0a 00 00 00       	mov    $0xa,%eax
    27a3:	43 8d 14 09          	lea    (%r9,%r9,1),%edx
    27a7:	29 f0                	sub    %esi,%eax
    27a9:	49 89 d2             	mov    %rdx,%r10
    27ac:	48 8d 34 57          	lea    (%rdi,%rdx,2),%rsi
    27b0:	89 44 24 08          	mov    %eax,0x8(%rsp)
    27b4:	e9 9e 00 00 00       	jmp    2857 <riscv_dsp_rifft_q15+0xe7>
    27b9:	0f 1f 80 00 00 00 00 	nopl   0x0(%rax)
    27c0:	48 8d 1d 9d 71 00 00 	lea    0x719d(%rip),%rbx        # 9964 <riscv_dsp_cos_table_q15_1024+0x4>
    27c7:	48 98                	cltq   
    27c9:	48 63 c9             	movslq %ecx,%rcx
    27cc:	0f b7 04 43          	movzwl (%rbx,%rax,2),%eax
    27d0:	0f b7 0c 4b          	movzwl (%rbx,%rcx,2),%ecx
    27d4:	41 8d 5a 01          	lea    0x1(%r10),%ebx
    27d8:	44 0f bf 06          	movswl (%rsi),%r8d
    27dc:	49 8d 2c 53          	lea    (%r11,%rdx,2),%rbp
    27e0:	0f bf 7e 02          	movswl 0x2(%rsi),%edi
    27e4:	49 8d 1c 5b          	lea    (%r11,%rbx,2),%rbx
    27e8:	0f bf 55 00          	movswl 0x0(%rbp),%edx
    27ec:	98                   	cwtl   
    27ed:	0f bf c9             	movswl %cx,%ecx
    27f0:	44 0f bf 23          	movswl (%rbx),%r12d
    27f4:	45 89 c6             	mov    %r8d,%r14d
    27f7:	41 89 cf             	mov    %ecx,%r15d
    27fa:	48 83 ee 04          	sub    $0x4,%rsi
    27fe:	41 29 d6             	sub    %edx,%r14d
    2801:	41 01 d0             	add    %edx,%r8d
    2804:	89 c2                	mov    %eax,%edx
    2806:	41 83 c2 02          	add    $0x2,%r10d
    280a:	45 0f af fe          	imul   %r14d,%r15d
    280e:	46 8d 2c 27          	lea    (%rdi,%r12,1),%r13d
    2812:	44 29 e7             	sub    %r12d,%edi
    2815:	41 0f af cd          	imul   %r13d,%ecx
    2819:	41 0f af d5          	imul   %r13d,%edx
    281d:	41 0f af c6          	imul   %r14d,%eax
    2821:	44 01 fa             	add    %r15d,%edx
    2824:	45 89 c7             	mov    %r8d,%r15d
    2827:	29 c8                	sub    %ecx,%eax
    2829:	c1 fa 0f             	sar    $0xf,%edx
    282c:	c1 f8 0f             	sar    $0xf,%eax
    282f:	41 29 d7             	sub    %edx,%r15d
    2832:	44 01 c2             	add    %r8d,%edx
    2835:	8d 0c 07             	lea    (%rdi,%rax,1),%ecx
    2838:	29 f8                	sub    %edi,%eax
    283a:	66 44 89 7e 04       	mov    %r15w,0x4(%rsi)
    283f:	66 89 4e 06          	mov    %cx,0x6(%rsi)
    2843:	66 89 55 00          	mov    %dx,0x0(%rbp)
    2847:	66 89 03             	mov    %ax,(%rbx)
    284a:	41 83 e9 01          	sub    $0x1,%r9d
    284e:	0f 84 8c 00 00 00    	je     28e0 <riscv_dsp_rifft_q15+0x170>
    2854:	44 89 d2             	mov    %r10d,%edx
    2857:	0f b6 4c 24 08       	movzbl 0x8(%rsp),%ecx
    285c:	44 89 c8             	mov    %r9d,%eax
    285f:	d3 e0                	shl    %cl,%eax
    2861:	b9 00 01 00 00       	mov    $0x100,%ecx
    2866:	29 c1                	sub    %eax,%ecx
    2868:	85 c9                	test   %ecx,%ecx
    286a:	0f 8f 50 ff ff ff    	jg     27c0 <riscv_dsp_rifft_q15+0x50>
    2870:	8d 88 00 ff ff ff    	lea    -0x100(%rax),%ecx
    2876:	bf 00 01 00 00       	mov    $0x100,%edi
    287b:	29 cf                	sub    %ecx,%edi
    287d:	85 ff                	test   %edi,%edi
    287f:	7e 1f                	jle    28a0 <riscv_dsp_rifft_q15+0x130>
    2881:	48 8d 1d dc 70 00 00 	lea    0x70dc(%rip),%rbx        # 9964 <riscv_dsp_cos_table_q15_1024+0x4>
    2888:	48 63 ff             	movslq %edi,%rdi
    288b:	48 63 c9             	movslq %ecx,%rcx
    288e:	0f b7 04 7b          	movzwl (%rbx,%rdi,2),%eax
    2892:	0f b7 0c 4b          	movzwl (%rbx,%rcx,2),%ecx
    2896:	f7 d8                	neg    %eax
    2898:	e9 37 ff ff ff       	jmp    27d4 <riscv_dsp_rifft_q15+0x64>
    289d:	0f 1f 00             	nopl   (%rax)
    28a0:	8d 88 00 fe ff ff    	lea    -0x200(%rax),%ecx
    28a6:	bf 00 01 00 00       	mov    $0x100,%edi
    28ab:	48 8d 1d b2 70 00 00 	lea    0x70b2(%rip),%rbx        # 9964 <riscv_dsp_cos_table_q15_1024+0x4>
    28b2:	29 cf                	sub    %ecx,%edi
    28b4:	48 63 c9             	movslq %ecx,%rcx
    28b7:	0f b7 0c 4b          	movzwl (%rbx,%rcx,2),%ecx
    28bb:	48 63 c7             	movslq %edi,%rax
    28be:	0f b7 04 43          	movzwl (%rbx,%rax,2),%eax
    28c2:	f7 d9                	neg    %ecx
    28c4:	85 ff                	test   %edi,%edi
    28c6:	0f 8e 08 ff ff ff    	jle    27d4 <riscv_dsp_rifft_q15+0x64>
    28cc:	f7 d8                	neg    %eax
    28ce:	89 c7                	mov    %eax,%edi
    28d0:	89 c8                	mov    %ecx,%eax
    28d2:	89 f9                	mov    %edi,%ecx
    28d4:	e9 fb fe ff ff       	jmp    27d4 <riscv_dsp_rifft_q15+0x64>
    28d9:	0f 1f 80 00 00 00 00 	nopl   0x0(%rax)
    28e0:	41 0f b7 03          	movzwl (%r11),%eax
    28e4:	41 0f b7 53 02       	movzwl 0x2(%r11),%edx
    28e9:	4c 89 df             	mov    %r11,%rdi
    28ec:	8b 74 24 0c          	mov    0xc(%rsp),%esi
    28f0:	01 c2                	add    %eax,%edx
    28f2:	66 41 2b 43 02       	sub    0x2(%r11),%ax
    28f7:	66 41 89 13          	mov    %dx,(%r11)
    28fb:	83 ee 01             	sub    $0x1,%esi
    28fe:	66 41 89 43 02       	mov    %ax,0x2(%r11)
    2903:	e8 98 09 00 00       	call   32a0 <riscv_dsp_cifft_q15>
    2908:	48 83 c4 18          	add    $0x18,%rsp
    290c:	31 c0                	xor    %eax,%eax
    290e:	5b                   	pop    %rbx
    290f:	5d                   	pop    %rbp
    2910:	41 5c                	pop    %r12
    2912:	41 5d                	pop    %r13
    2914:	41 5e                	pop    %r14
    2916:	41 5f                	pop    %r15
    2918:	c3                   	ret    
    2919:	0f 1f 80 00 00 00 00 	nopl   0x0(%rax)

0000000000002920 <riscv_dsp_scale_q15>:
    2920:	f3 0f 1e fa          	endbr64 
    2924:	41 89 d1             	mov    %edx,%r9d
    2927:	48 89 ca             	mov    %rcx,%rdx
    292a:	b9 0f 00 00 00       	mov    $0xf,%ecx
    292f:	44 29 c9             	sub    %r9d,%ecx
    2932:	45 85 c0             	test   %r8d,%r8d
    2935:	0f 84 57 02 00 00    	je     2b92 <riscv_dsp_scale_q15+0x272>
    293b:	41 8d 40 ff          	lea    -0x1(%r8),%eax
    293f:	44 0f bf d6          	movswl %si,%r10d
    2943:	44 0f be c9          	movsbl %cl,%r9d
    2947:	83 f8 06             	cmp    $0x6,%eax
    294a:	0f 86 49 02 00 00    	jbe    2b99 <riscv_dsp_scale_q15+0x279>
    2950:	66 0f 6e ee          	movd   %esi,%xmm5
    2954:	44 89 c6             	mov    %r8d,%esi
    2957:	4d 63 d9             	movslq %r9d,%r11
    295a:	31 c0                	xor    %eax,%eax
    295c:	66 0f 61 ed          	punpcklwd %xmm5,%xmm5
    2960:	c1 ee 03             	shr    $0x3,%esi
    2963:	66 0f 6f 25 95 6b 00 	movdqa 0x6b95(%rip),%xmm4        # 9500 <_IO_stdin_used+0x500>
    296a:	00 
    296b:	66 0f 6f 1d 9d 6b 00 	movdqa 0x6b9d(%rip),%xmm3        # 9510 <_IO_stdin_used+0x510>
    2972:	00 
    2973:	66 0f 70 ed 00       	pshufd $0x0,%xmm5,%xmm5
    2978:	48 c1 e6 04          	shl    $0x4,%rsi
    297c:	66 49 0f 6e fb       	movq   %r11,%xmm7
    2981:	0f 1f 80 00 00 00 00 	nopl   0x0(%rax)
    2988:	f3 0f 6f 04 07       	movdqu (%rdi,%rax,1),%xmm0
    298d:	f3 0f 6f 34 07       	movdqu (%rdi,%rax,1),%xmm6
    2992:	66 44 0f 6f c3       	movdqa %xmm3,%xmm8
    2997:	66 0f d5 c5          	pmullw %xmm5,%xmm0
    299b:	66 0f e5 f5          	pmulhw %xmm5,%xmm6
    299f:	66 0f 6f c8          	movdqa %xmm0,%xmm1
    29a3:	66 0f 69 c6          	punpckhwd %xmm6,%xmm0
    29a7:	66 0f 61 ce          	punpcklwd %xmm6,%xmm1
    29ab:	66 0f e2 c7          	psrad  %xmm7,%xmm0
    29af:	66 0f 6f f3          	movdqa %xmm3,%xmm6
    29b3:	66 0f e2 cf          	psrad  %xmm7,%xmm1
    29b7:	66 0f 6f d1          	movdqa %xmm1,%xmm2
    29bb:	66 0f 66 d4          	pcmpgtd %xmm4,%xmm2
    29bf:	66 0f db ca          	pand   %xmm2,%xmm1
    29c3:	66 0f df d4          	pandn  %xmm4,%xmm2
    29c7:	66 0f eb d1          	por    %xmm1,%xmm2
    29cb:	66 0f 6f ca          	movdqa %xmm2,%xmm1
    29cf:	66 0f 66 cb          	pcmpgtd %xmm3,%xmm1
    29d3:	66 44 0f db c1       	pand   %xmm1,%xmm8
    29d8:	66 0f df ca          	pandn  %xmm2,%xmm1
    29dc:	66 0f 6f d0          	movdqa %xmm0,%xmm2
    29e0:	66 0f 66 d4          	pcmpgtd %xmm4,%xmm2
    29e4:	66 41 0f eb c8       	por    %xmm8,%xmm1
    29e9:	66 0f db c2          	pand   %xmm2,%xmm0
    29ed:	66 0f df d4          	pandn  %xmm4,%xmm2
    29f1:	66 0f eb d0          	por    %xmm0,%xmm2
    29f5:	66 0f 6f c2          	movdqa %xmm2,%xmm0
    29f9:	66 0f 66 c3          	pcmpgtd %xmm3,%xmm0
    29fd:	66 0f db f0          	pand   %xmm0,%xmm6
    2a01:	66 0f df c2          	pandn  %xmm2,%xmm0
    2a05:	66 0f 6f d1          	movdqa %xmm1,%xmm2
    2a09:	66 0f eb c6          	por    %xmm6,%xmm0
    2a0d:	66 0f 61 c8          	punpcklwd %xmm0,%xmm1
    2a11:	66 0f 69 d0          	punpckhwd %xmm0,%xmm2
    2a15:	66 0f 6f c1          	movdqa %xmm1,%xmm0
    2a19:	66 0f 61 ca          	punpcklwd %xmm2,%xmm1
    2a1d:	66 0f 69 c2          	punpckhwd %xmm2,%xmm0
    2a21:	66 0f 61 c8          	punpcklwd %xmm0,%xmm1
    2a25:	0f 11 0c 02          	movups %xmm1,(%rdx,%rax,1)
    2a29:	48 83 c0 10          	add    $0x10,%rax
    2a2d:	48 39 c6             	cmp    %rax,%rsi
    2a30:	0f 85 52 ff ff ff    	jne    2988 <riscv_dsp_scale_q15+0x68>
    2a36:	45 89 c1             	mov    %r8d,%r9d
    2a39:	44 89 c6             	mov    %r8d,%esi
    2a3c:	41 83 e1 f8          	and    $0xfffffff8,%r9d
    2a40:	44 89 c8             	mov    %r9d,%eax
    2a43:	44 29 ce             	sub    %r9d,%esi
    2a46:	48 01 c0             	add    %rax,%rax
    2a49:	48 01 c7             	add    %rax,%rdi
    2a4c:	48 01 c2             	add    %rax,%rdx
    2a4f:	45 39 c8             	cmp    %r9d,%r8d
    2a52:	0f 84 40 01 00 00    	je     2b98 <riscv_dsp_scale_q15+0x278>
    2a58:	0f bf 07             	movswl (%rdi),%eax
    2a5b:	41 b8 00 80 ff ff    	mov    $0xffff8000,%r8d
    2a61:	41 0f af c2          	imul   %r10d,%eax
    2a65:	d3 f8                	sar    %cl,%eax
    2a67:	44 39 c0             	cmp    %r8d,%eax
    2a6a:	41 0f 4c c0          	cmovl  %r8d,%eax
    2a6e:	41 b8 ff 7f 00 00    	mov    $0x7fff,%r8d
    2a74:	44 39 c0             	cmp    %r8d,%eax
    2a77:	41 0f 4f c0          	cmovg  %r8d,%eax
    2a7b:	66 89 02             	mov    %ax,(%rdx)
    2a7e:	83 fe 01             	cmp    $0x1,%esi
    2a81:	0f 84 0b 01 00 00    	je     2b92 <riscv_dsp_scale_q15+0x272>
    2a87:	0f bf 47 02          	movswl 0x2(%rdi),%eax
    2a8b:	41 b8 00 80 ff ff    	mov    $0xffff8000,%r8d
    2a91:	41 0f af c2          	imul   %r10d,%eax
    2a95:	d3 f8                	sar    %cl,%eax
    2a97:	44 39 c0             	cmp    %r8d,%eax
    2a9a:	41 0f 4c c0          	cmovl  %r8d,%eax
    2a9e:	41 b8 ff 7f 00 00    	mov    $0x7fff,%r8d
    2aa4:	44 39 c0             	cmp    %r8d,%eax
    2aa7:	41 0f 4f c0          	cmovg  %r8d,%eax
    2aab:	66 89 42 02          	mov    %ax,0x2(%rdx)
    2aaf:	83 fe 02             	cmp    $0x2,%esi
    2ab2:	0f 84 da 00 00 00    	je     2b92 <riscv_dsp_scale_q15+0x272>
    2ab8:	0f bf 47 04          	movswl 0x4(%rdi),%eax
    2abc:	41 b8 00 80 ff ff    	mov    $0xffff8000,%r8d
    2ac2:	41 0f af c2          	imul   %r10d,%eax
    2ac6:	d3 f8                	sar    %cl,%eax
    2ac8:	44 39 c0             	cmp    %r8d,%eax
    2acb:	41 0f 4c c0          	cmovl  %r8d,%eax
    2acf:	41 b8 ff 7f 00 00    	mov    $0x7fff,%r8d
    2ad5:	44 39 c0             	cmp    %r8d,%eax
    2ad8:	41 0f 4f c0          	cmovg  %r8d,%eax
    2adc:	66 89 42 04          	mov    %ax,0x4(%rdx)
    2ae0:	83 fe 03             	cmp    $0x3,%esi
    2ae3:	0f 84 a9 00 00 00    	je     2b92 <riscv_dsp_scale_q15+0x272>
    2ae9:	0f bf 47 06          	movswl 0x6(%rdi),%eax
    2aed:	41 b8 00 80 ff ff    	mov    $0xffff8000,%r8d
    2af3:	41 0f af c2          	imul   %r10d,%eax
    2af7:	d3 f8                	sar    %cl,%eax
    2af9:	44 39 c0             	cmp    %r8d,%eax
    2afc:	41 0f 4c c0          	cmovl  %r8d,%eax
    2b00:	41 b8 ff 7f 00 00    	mov    $0x7fff,%r8d
    2b06:	44 39 c0             	cmp    %r8d,%eax
    2b09:	41 0f 4f c0          	cmovg  %r8d,%eax
    2b0d:	66 89 42 06          	mov    %ax,0x6(%rdx)
    2b11:	83 fe 04             	cmp    $0x4,%esi
    2b14:	74 7c                	je     2b92 <riscv_dsp_scale_q15+0x272>
    2b16:	0f bf 47 08          	movswl 0x8(%rdi),%eax
    2b1a:	41 b8 00 80 ff ff    	mov    $0xffff8000,%r8d
    2b20:	41 0f af c2          	imul   %r10d,%eax
    2b24:	d3 f8                	sar    %cl,%eax
    2b26:	44 39 c0             	cmp    %r8d,%eax
    2b29:	41 0f 4c c0          	cmovl  %r8d,%eax
    2b2d:	41 b8 ff 7f 00 00    	mov    $0x7fff,%r8d
    2b33:	44 39 c0             	cmp    %r8d,%eax
    2b36:	41 0f 4f c0          	cmovg  %r8d,%eax
    2b3a:	66 89 42 08          	mov    %ax,0x8(%rdx)
    2b3e:	83 fe 05             	cmp    $0x5,%esi
    2b41:	74 4f                	je     2b92 <riscv_dsp_scale_q15+0x272>
    2b43:	0f bf 47 0a          	movswl 0xa(%rdi),%eax
    2b47:	41 b8 00 80 ff ff    	mov    $0xffff8000,%r8d
    2b4d:	41 0f af c2          	imul   %r10d,%eax
    2b51:	d3 f8                	sar    %cl,%eax
    2b53:	44 39 c0             	cmp    %r8d,%eax
    2b56:	41 0f 4c c0          	cmovl  %r8d,%eax
    2b5a:	41 b8 ff 7f 00 00    	mov    $0x7fff,%r8d
    2b60:	44 39 c0             	cmp    %r8d,%eax
    2b63:	41 0f 4f c0          	cmovg  %r8d,%eax
    2b67:	66 89 42 0a          	mov    %ax,0xa(%rdx)
    2b6b:	83 fe 06             	cmp    $0x6,%esi
    2b6e:	74 22                	je     2b92 <riscv_dsp_scale_q15+0x272>
    2b70:	0f bf 47 0c          	movswl 0xc(%rdi),%eax
    2b74:	41 0f af c2          	imul   %r10d,%eax
    2b78:	d3 f8                	sar    %cl,%eax
    2b7a:	b9 00 80 ff ff       	mov    $0xffff8000,%ecx
    2b7f:	39 c8                	cmp    %ecx,%eax
    2b81:	0f 4c c1             	cmovl  %ecx,%eax
    2b84:	b9 ff 7f 00 00       	mov    $0x7fff,%ecx
    2b89:	39 c8                	cmp    %ecx,%eax
    2b8b:	0f 4f c1             	cmovg  %ecx,%eax
    2b8e:	66 89 42 0c          	mov    %ax,0xc(%rdx)
    2b92:	c3                   	ret    
    2b93:	0f 1f 44 00 00       	nopl   0x0(%rax,%rax,1)
    2b98:	c3                   	ret    
    2b99:	44 89 c6             	mov    %r8d,%esi
    2b9c:	e9 b7 fe ff ff       	jmp    2a58 <riscv_dsp_scale_q15+0x138>
    2ba1:	66 2e 0f 1f 84 00 00 	cs nopw 0x0(%rax,%rax,1)
    2ba8:	00 00 00 
    2bab:	0f 1f 44 00 00       	nopl   0x0(%rax,%rax,1)

0000000000002bb0 <riscv_dsp_scale_q31>:
    2bb0:	f3 0f 1e fa          	endbr64 
    2bb4:	41 57                	push   %r15
    2bb6:	49 89 f9             	mov    %rdi,%r9
    2bb9:	49 89 ca             	mov    %rcx,%r10
    2bbc:	0f be c2             	movsbl %dl,%eax
    2bbf:	41 56                	push   %r14
    2bc1:	41 55                	push   %r13
    2bc3:	41 54                	push   %r12
    2bc5:	55                   	push   %rbp
    2bc6:	48 63 ee             	movslq %esi,%rbp
    2bc9:	53                   	push   %rbx
    2bca:	80 fa ff             	cmp    $0xff,%dl
    2bcd:	0f 8c 1d 01 00 00    	jl     2cf0 <riscv_dsp_scale_q31+0x140>
    2bd3:	41 bb 1f 00 00 00    	mov    $0x1f,%r11d
    2bd9:	b9 1e 00 00 00       	mov    $0x1e,%ecx
    2bde:	44 89 c3             	mov    %r8d,%ebx
    2be1:	29 c1                	sub    %eax,%ecx
    2be3:	41 29 c3             	sub    %eax,%r11d
    2be6:	b8 01 00 00 00       	mov    $0x1,%eax
    2beb:	83 e3 01             	and    $0x1,%ebx
    2bee:	48 d3 e0             	shl    %cl,%rax
    2bf1:	89 5c 24 f4          	mov    %ebx,-0xc(%rsp)
    2bf5:	41 89 c6             	mov    %eax,%r14d
    2bf8:	48 89 44 24 f8       	mov    %rax,-0x8(%rsp)
    2bfd:	41 89 c4             	mov    %eax,%r12d
    2c00:	41 f7 de             	neg    %r14d
    2c03:	41 d1 e8             	shr    %r8d
    2c06:	0f 84 a1 00 00 00    	je     2cad <riscv_dsp_scale_q31+0xfd>
    2c0c:	48 63 dd             	movslq %ebp,%rbx
    2c0f:	45 89 c0             	mov    %r8d,%r8d
    2c12:	31 f6                	xor    %esi,%esi
    2c14:	41 bf 00 00 00 80    	mov    $0x80000000,%r15d
    2c1a:	41 bd ff ff ff 7f    	mov    $0x7fffffff,%r13d
    2c20:	44 89 d9             	mov    %r11d,%ecx
    2c23:	eb 2a                	jmp    2c4f <riscv_dsp_scale_q31+0x9f>
    2c25:	0f 1f 00             	nopl   (%rax)
    2c28:	48 c1 f8 20          	sar    $0x20,%rax
    2c2c:	41 39 c4             	cmp    %eax,%r12d
    2c2f:	45 0f 4e dd          	cmovle %r13d,%r11d
    2c33:	66 0f 6e c7          	movd   %edi,%xmm0
    2c37:	66 41 0f 6e cb       	movd   %r11d,%xmm1
    2c3c:	66 0f 62 c1          	punpckldq %xmm1,%xmm0
    2c40:	66 41 0f d6 04 f2    	movq   %xmm0,(%r10,%rsi,8)
    2c46:	48 83 c6 01          	add    $0x1,%rsi
    2c4a:	4c 39 c6             	cmp    %r8,%rsi
    2c4d:	74 51                	je     2ca0 <riscv_dsp_scale_q31+0xf0>
    2c4f:	49 63 14 f1          	movslq (%r9,%rsi,8),%rdx
    2c53:	49 63 44 f1 04       	movslq 0x4(%r9,%rsi,8),%rax
    2c58:	48 0f af d3          	imul   %rbx,%rdx
    2c5c:	48 0f af c3          	imul   %rbx,%rax
    2c60:	48 89 d7             	mov    %rdx,%rdi
    2c63:	49 89 c3             	mov    %rax,%r11
    2c66:	48 d3 ff             	sar    %cl,%rdi
    2c69:	49 d3 fb             	sar    %cl,%r11
    2c6c:	48 85 d2             	test   %rdx,%rdx
    2c6f:	7e 1f                	jle    2c90 <riscv_dsp_scale_q31+0xe0>
    2c71:	48 c1 fa 20          	sar    $0x20,%rdx
    2c75:	41 39 d4             	cmp    %edx,%r12d
    2c78:	41 0f 4e fd          	cmovle %r13d,%edi
    2c7c:	48 85 c0             	test   %rax,%rax
    2c7f:	7f a7                	jg     2c28 <riscv_dsp_scale_q31+0x78>
    2c81:	74 b0                	je     2c33 <riscv_dsp_scale_q31+0x83>
    2c83:	48 c1 f8 20          	sar    $0x20,%rax
    2c87:	41 39 c6             	cmp    %eax,%r14d
    2c8a:	45 0f 4d df          	cmovge %r15d,%r11d
    2c8e:	eb a3                	jmp    2c33 <riscv_dsp_scale_q31+0x83>
    2c90:	74 ea                	je     2c7c <riscv_dsp_scale_q31+0xcc>
    2c92:	48 c1 fa 20          	sar    $0x20,%rdx
    2c96:	41 39 d6             	cmp    %edx,%r14d
    2c99:	41 0f 4d ff          	cmovge %r15d,%edi
    2c9d:	eb dd                	jmp    2c7c <riscv_dsp_scale_q31+0xcc>
    2c9f:	90                   	nop
    2ca0:	48 c1 e6 03          	shl    $0x3,%rsi
    2ca4:	41 89 cb             	mov    %ecx,%r11d
    2ca7:	49 01 f1             	add    %rsi,%r9
    2caa:	49 01 f2             	add    %rsi,%r10
    2cad:	8b 44 24 f4          	mov    -0xc(%rsp),%eax
    2cb1:	85 c0                	test   %eax,%eax
    2cb3:	74 28                	je     2cdd <riscv_dsp_scale_q31+0x12d>
    2cb5:	49 63 01             	movslq (%r9),%rax
    2cb8:	44 89 d9             	mov    %r11d,%ecx
    2cbb:	48 0f af e8          	imul   %rax,%rbp
    2cbf:	48 89 e8             	mov    %rbp,%rax
    2cc2:	48 d3 f8             	sar    %cl,%rax
    2cc5:	48 85 ed             	test   %rbp,%rbp
    2cc8:	7e 66                	jle    2d30 <riscv_dsp_scale_q31+0x180>
    2cca:	48 c1 fd 20          	sar    $0x20,%rbp
    2cce:	ba ff ff ff 7f       	mov    $0x7fffffff,%edx
    2cd3:	39 6c 24 f8          	cmp    %ebp,-0x8(%rsp)
    2cd7:	0f 4e c2             	cmovle %edx,%eax
    2cda:	41 89 02             	mov    %eax,(%r10)
    2cdd:	5b                   	pop    %rbx
    2cde:	5d                   	pop    %rbp
    2cdf:	41 5c                	pop    %r12
    2ce1:	41 5d                	pop    %r13
    2ce3:	41 5e                	pop    %r14
    2ce5:	41 5f                	pop    %r15
    2ce7:	c3                   	ret    
    2ce8:	0f 1f 84 00 00 00 00 	nopl   0x0(%rax,%rax,1)
    2cef:	00 
    2cf0:	45 85 c0             	test   %r8d,%r8d
    2cf3:	74 e8                	je     2cdd <riscv_dsp_scale_q31+0x12d>
    2cf5:	f7 d0                	not    %eax
    2cf7:	45 89 c0             	mov    %r8d,%r8d
    2cfa:	31 d2                	xor    %edx,%edx
    2cfc:	89 c1                	mov    %eax,%ecx
    2cfe:	66 90                	xchg   %ax,%ax
    2d00:	49 63 04 91          	movslq (%r9,%rdx,4),%rax
    2d04:	48 0f af c5          	imul   %rbp,%rax
    2d08:	48 c1 f8 20          	sar    $0x20,%rax
    2d0c:	d3 f8                	sar    %cl,%eax
    2d0e:	41 89 04 92          	mov    %eax,(%r10,%rdx,4)
    2d12:	48 83 c2 01          	add    $0x1,%rdx
    2d16:	4c 39 c2             	cmp    %r8,%rdx
    2d19:	75 e5                	jne    2d00 <riscv_dsp_scale_q31+0x150>
    2d1b:	5b                   	pop    %rbx
    2d1c:	5d                   	pop    %rbp
    2d1d:	41 5c                	pop    %r12
    2d1f:	41 5d                	pop    %r13
    2d21:	41 5e                	pop    %r14
    2d23:	41 5f                	pop    %r15
    2d25:	c3                   	ret    
    2d26:	66 2e 0f 1f 84 00 00 	cs nopw 0x0(%rax,%rax,1)
    2d2d:	00 00 00 
    2d30:	74 a8                	je     2cda <riscv_dsp_scale_q31+0x12a>
    2d32:	48 c1 fd 20          	sar    $0x20,%rbp
    2d36:	ba 00 00 00 80       	mov    $0x80000000,%edx
    2d3b:	41 39 ee             	cmp    %ebp,%r14d
    2d3e:	0f 4d c2             	cmovge %edx,%eax
    2d41:	eb 97                	jmp    2cda <riscv_dsp_scale_q31+0x12a>
    2d43:	66 2e 0f 1f 84 00 00 	cs nopw 0x0(%rax,%rax,1)
    2d4a:	00 00 00 
    2d4d:	0f 1f 00             	nopl   (%rax)

0000000000002d50 <riscv_dsp_shift_q15>:
    2d50:	f3 0f 1e fa          	endbr64 
    2d54:	41 89 c8             	mov    %ecx,%r8d
    2d57:	40 84 f6             	test   %sil,%sil
    2d5a:	0f 88 38 02 00 00    	js     2f98 <riscv_dsp_shift_q15+0x248>
    2d60:	85 c9                	test   %ecx,%ecx
    2d62:	0f 84 50 03 00 00    	je     30b8 <riscv_dsp_shift_q15+0x368>
    2d68:	41 8d 40 ff          	lea    -0x1(%r8),%eax
    2d6c:	40 0f be ce          	movsbl %sil,%ecx
    2d70:	44 89 c6             	mov    %r8d,%esi
    2d73:	83 f8 06             	cmp    $0x6,%eax
    2d76:	0f 86 f7 00 00 00    	jbe    2e73 <riscv_dsp_shift_q15+0x123>
    2d7c:	c1 ee 03             	shr    $0x3,%esi
    2d7f:	4c 63 d1             	movslq %ecx,%r10
    2d82:	66 0f 6f 25 76 67 00 	movdqa 0x6776(%rip),%xmm4        # 9500 <_IO_stdin_used+0x500>
    2d89:	00 
    2d8a:	31 c0                	xor    %eax,%eax
    2d8c:	66 0f 6f 1d 7c 67 00 	movdqa 0x677c(%rip),%xmm3        # 9510 <_IO_stdin_used+0x510>
    2d93:	00 
    2d94:	48 c1 e6 04          	shl    $0x4,%rsi
    2d98:	66 49 0f 6e fa       	movq   %r10,%xmm7
    2d9d:	66 0f ef ed          	pxor   %xmm5,%xmm5
    2da1:	0f 1f 80 00 00 00 00 	nopl   0x0(%rax)
    2da8:	f3 0f 6f 04 07       	movdqu (%rdi,%rax,1),%xmm0
    2dad:	66 0f 6f f5          	movdqa %xmm5,%xmm6
    2db1:	66 44 0f 6f c3       	movdqa %xmm3,%xmm8
    2db6:	66 0f 65 f0          	pcmpgtw %xmm0,%xmm6
    2dba:	66 0f 6f c8          	movdqa %xmm0,%xmm1
    2dbe:	66 0f 61 ce          	punpcklwd %xmm6,%xmm1
    2dc2:	66 0f 69 c6          	punpckhwd %xmm6,%xmm0
    2dc6:	66 0f 6f f3          	movdqa %xmm3,%xmm6
    2dca:	66 0f f2 cf          	pslld  %xmm7,%xmm1
    2dce:	66 0f f2 c7          	pslld  %xmm7,%xmm0
    2dd2:	66 0f 6f d1          	movdqa %xmm1,%xmm2
    2dd6:	66 0f 66 d4          	pcmpgtd %xmm4,%xmm2
    2dda:	66 0f db ca          	pand   %xmm2,%xmm1
    2dde:	66 0f df d4          	pandn  %xmm4,%xmm2
    2de2:	66 0f eb d1          	por    %xmm1,%xmm2
    2de6:	66 0f 6f ca          	movdqa %xmm2,%xmm1
    2dea:	66 0f 66 cb          	pcmpgtd %xmm3,%xmm1
    2dee:	66 44 0f db c1       	pand   %xmm1,%xmm8
    2df3:	66 0f df ca          	pandn  %xmm2,%xmm1
    2df7:	66 0f 6f d0          	movdqa %xmm0,%xmm2
    2dfb:	66 0f 66 d4          	pcmpgtd %xmm4,%xmm2
    2dff:	66 41 0f eb c8       	por    %xmm8,%xmm1
    2e04:	66 0f db c2          	pand   %xmm2,%xmm0
    2e08:	66 0f df d4          	pandn  %xmm4,%xmm2
    2e0c:	66 0f eb d0          	por    %xmm0,%xmm2
    2e10:	66 0f 6f c2          	movdqa %xmm2,%xmm0
    2e14:	66 0f 66 c3          	pcmpgtd %xmm3,%xmm0
    2e18:	66 0f db f0          	pand   %xmm0,%xmm6
    2e1c:	66 0f df c2          	pandn  %xmm2,%xmm0
    2e20:	66 0f 6f d1          	movdqa %xmm1,%xmm2
    2e24:	66 0f eb c6          	por    %xmm6,%xmm0
    2e28:	66 0f 61 c8          	punpcklwd %xmm0,%xmm1
    2e2c:	66 0f 69 d0          	punpckhwd %xmm0,%xmm2
    2e30:	66 0f 6f c1          	movdqa %xmm1,%xmm0
    2e34:	66 0f 61 ca          	punpcklwd %xmm2,%xmm1
    2e38:	66 0f 69 c2          	punpckhwd %xmm2,%xmm0
    2e3c:	66 0f 61 c8          	punpcklwd %xmm0,%xmm1
    2e40:	0f 11 0c 02          	movups %xmm1,(%rdx,%rax,1)
    2e44:	48 83 c0 10          	add    $0x10,%rax
    2e48:	48 39 f0             	cmp    %rsi,%rax
    2e4b:	0f 85 57 ff ff ff    	jne    2da8 <riscv_dsp_shift_q15+0x58>
    2e51:	45 89 c1             	mov    %r8d,%r9d
    2e54:	44 89 c6             	mov    %r8d,%esi
    2e57:	41 83 e1 f8          	and    $0xfffffff8,%r9d
    2e5b:	44 89 c8             	mov    %r9d,%eax
    2e5e:	44 29 ce             	sub    %r9d,%esi
    2e61:	48 01 c0             	add    %rax,%rax
    2e64:	48 01 c7             	add    %rax,%rdi
    2e67:	48 01 c2             	add    %rax,%rdx
    2e6a:	45 39 c8             	cmp    %r9d,%r8d
    2e6d:	0f 84 4d 02 00 00    	je     30c0 <riscv_dsp_shift_q15+0x370>
    2e73:	0f bf 07             	movswl (%rdi),%eax
    2e76:	41 b8 00 80 ff ff    	mov    $0xffff8000,%r8d
    2e7c:	d3 e0                	shl    %cl,%eax
    2e7e:	44 39 c0             	cmp    %r8d,%eax
    2e81:	41 0f 4c c0          	cmovl  %r8d,%eax
    2e85:	41 b8 ff 7f 00 00    	mov    $0x7fff,%r8d
    2e8b:	44 39 c0             	cmp    %r8d,%eax
    2e8e:	41 0f 4f c0          	cmovg  %r8d,%eax
    2e92:	66 89 02             	mov    %ax,(%rdx)
    2e95:	83 fe 01             	cmp    $0x1,%esi
    2e98:	0f 84 f3 00 00 00    	je     2f91 <riscv_dsp_shift_q15+0x241>
    2e9e:	0f bf 47 02          	movswl 0x2(%rdi),%eax
    2ea2:	41 b8 00 80 ff ff    	mov    $0xffff8000,%r8d
    2ea8:	d3 e0                	shl    %cl,%eax
    2eaa:	44 39 c0             	cmp    %r8d,%eax
    2ead:	41 0f 4c c0          	cmovl  %r8d,%eax
    2eb1:	41 b8 ff 7f 00 00    	mov    $0x7fff,%r8d
    2eb7:	44 39 c0             	cmp    %r8d,%eax
    2eba:	41 0f 4f c0          	cmovg  %r8d,%eax
    2ebe:	66 89 42 02          	mov    %ax,0x2(%rdx)
    2ec2:	83 fe 02             	cmp    $0x2,%esi
    2ec5:	0f 84 c6 00 00 00    	je     2f91 <riscv_dsp_shift_q15+0x241>
    2ecb:	0f bf 47 04          	movswl 0x4(%rdi),%eax
    2ecf:	41 b8 00 80 ff ff    	mov    $0xffff8000,%r8d
    2ed5:	d3 e0                	shl    %cl,%eax
    2ed7:	44 39 c0             	cmp    %r8d,%eax
    2eda:	41 0f 4c c0          	cmovl  %r8d,%eax
    2ede:	41 b8 ff 7f 00 00    	mov    $0x7fff,%r8d
    2ee4:	44 39 c0             	cmp    %r8d,%eax
    2ee7:	41 0f 4f c0          	cmovg  %r8d,%eax
    2eeb:	66 89 42 04          	mov    %ax,0x4(%rdx)
    2eef:	83 fe 03             	cmp    $0x3,%esi
    2ef2:	0f 84 99 00 00 00    	je     2f91 <riscv_dsp_shift_q15+0x241>
    2ef8:	0f bf 47 06          	movswl 0x6(%rdi),%eax
    2efc:	41 b8 00 80 ff ff    	mov    $0xffff8000,%r8d
    2f02:	d3 e0                	shl    %cl,%eax
    2f04:	44 39 c0             	cmp    %r8d,%eax
    2f07:	41 0f 4c c0          	cmovl  %r8d,%eax
    2f0b:	41 b8 ff 7f 00 00    	mov    $0x7fff,%r8d
    2f11:	44 39 c0             	cmp    %r8d,%eax
    2f14:	41 0f 4f c0          	cmovg  %r8d,%eax
    2f18:	66 89 42 06          	mov    %ax,0x6(%rdx)
    2f1c:	83 fe 04             	cmp    $0x4,%esi
    2f1f:	74 70                	je     2f91 <riscv_dsp_shift_q15+0x241>
    2f21:	0f bf 47 08          	movswl 0x8(%rdi),%eax
    2f25:	41 b8 00 80 ff ff    	mov    $0xffff8000,%r8d
    2f2b:	d3 e0                	shl    %cl,%eax
    2f2d:	44 39 c0             	cmp    %r8d,%eax
    2f30:	41 0f 4c c0          	cmovl  %r8d,%eax
    2f34:	41 b8 ff 7f 00 00    	mov    $0x7fff,%r8d
    2f3a:	44 39 c0             	cmp    %r8d,%eax
    2f3d:	41 0f 4f c0          	cmovg  %r8d,%eax
    2f41:	66 89 42 08          	mov    %ax,0x8(%rdx)
    2f45:	83 fe 05             	cmp    $0x5,%esi
    2f48:	74 47                	je     2f91 <riscv_dsp_shift_q15+0x241>
    2f4a:	0f bf 47 0a          	movswl 0xa(%rdi),%eax
    2f4e:	41 b8 00 80 ff ff    	mov    $0xffff8000,%r8d
    2f54:	d3 e0                	shl    %cl,%eax
    2f56:	44 39 c0             	cmp    %r8d,%eax
    2f59:	41 0f 4c c0          	cmovl  %r8d,%eax
    2f5d:	41 b8 ff 7f 00 00    	mov    $0x7fff,%r8d
    2f63:	44 39 c0             	cmp    %r8d,%eax
    2f66:	41 0f 4f c0          	cmovg  %r8d,%eax
    2f6a:	66 89 42 0a          	mov    %ax,0xa(%rdx)
    2f6e:	83 fe 06             	cmp    $0x6,%esi
    2f71:	74 1e                	je     2f91 <riscv_dsp_shift_q15+0x241>
    2f73:	0f bf 47 0c          	movswl 0xc(%rdi),%eax
    2f77:	d3 e0                	shl    %cl,%eax
    2f79:	b9 00 80 ff ff       	mov    $0xffff8000,%ecx
    2f7e:	39 c8                	cmp    %ecx,%eax
    2f80:	0f 4c c1             	cmovl  %ecx,%eax
    2f83:	b9 ff 7f 00 00       	mov    $0x7fff,%ecx
    2f88:	39 c8                	cmp    %ecx,%eax
    2f8a:	0f 4f c1             	cmovg  %ecx,%eax
    2f8d:	66 89 42 0c          	mov    %ax,0xc(%rdx)
    2f91:	c3                   	ret    
    2f92:	66 0f 1f 44 00 00    	nopw   0x0(%rax,%rax,1)
    2f98:	89 f1                	mov    %esi,%ecx
    2f9a:	f7 d9                	neg    %ecx
    2f9c:	45 85 c0             	test   %r8d,%r8d
    2f9f:	74 f0                	je     2f91 <riscv_dsp_shift_q15+0x241>
    2fa1:	41 8d 40 ff          	lea    -0x1(%r8),%eax
    2fa5:	48 0f be f1          	movsbq %cl,%rsi
    2fa9:	83 f8 06             	cmp    $0x6,%eax
    2fac:	0f 86 10 01 00 00    	jbe    30c2 <riscv_dsp_shift_q15+0x372>
    2fb2:	45 89 c1             	mov    %r8d,%r9d
    2fb5:	66 48 0f 6e de       	movq   %rsi,%xmm3
    2fba:	66 0f ef e4          	pxor   %xmm4,%xmm4
    2fbe:	31 c0                	xor    %eax,%eax
    2fc0:	41 c1 e9 03          	shr    $0x3,%r9d
    2fc4:	49 c1 e1 04          	shl    $0x4,%r9
    2fc8:	0f 1f 84 00 00 00 00 	nopl   0x0(%rax,%rax,1)
    2fcf:	00 
    2fd0:	f3 0f 6f 0c 07       	movdqu (%rdi,%rax,1),%xmm1
    2fd5:	66 0f 6f d4          	movdqa %xmm4,%xmm2
    2fd9:	66 0f 65 d1          	pcmpgtw %xmm1,%xmm2
    2fdd:	66 0f 6f c1          	movdqa %xmm1,%xmm0
    2fe1:	66 0f 61 c2          	punpcklwd %xmm2,%xmm0
    2fe5:	66 0f 69 ca          	punpckhwd %xmm2,%xmm1
    2fe9:	66 0f e2 cb          	psrad  %xmm3,%xmm1
    2fed:	66 0f e2 c3          	psrad  %xmm3,%xmm0
    2ff1:	66 0f 6f d0          	movdqa %xmm0,%xmm2
    2ff5:	66 0f 61 c1          	punpcklwd %xmm1,%xmm0
    2ff9:	66 0f 69 d1          	punpckhwd %xmm1,%xmm2
    2ffd:	66 0f 6f c8          	movdqa %xmm0,%xmm1
    3001:	66 0f 69 ca          	punpckhwd %xmm2,%xmm1
    3005:	66 0f 61 c2          	punpcklwd %xmm2,%xmm0
    3009:	66 0f 61 c1          	punpcklwd %xmm1,%xmm0
    300d:	0f 11 04 02          	movups %xmm0,(%rdx,%rax,1)
    3011:	48 83 c0 10          	add    $0x10,%rax
    3015:	4c 39 c8             	cmp    %r9,%rax
    3018:	75 b6                	jne    2fd0 <riscv_dsp_shift_q15+0x280>
    301a:	44 89 c6             	mov    %r8d,%esi
    301d:	83 e6 f8             	and    $0xfffffff8,%esi
    3020:	89 f0                	mov    %esi,%eax
    3022:	48 01 c0             	add    %rax,%rax
    3025:	48 01 c7             	add    %rax,%rdi
    3028:	48 01 c2             	add    %rax,%rdx
    302b:	44 89 c0             	mov    %r8d,%eax
    302e:	29 f0                	sub    %esi,%eax
    3030:	44 39 c6             	cmp    %r8d,%esi
    3033:	0f 84 88 00 00 00    	je     30c1 <riscv_dsp_shift_q15+0x371>
    3039:	0f bf 37             	movswl (%rdi),%esi
    303c:	d3 fe                	sar    %cl,%esi
    303e:	66 89 32             	mov    %si,(%rdx)
    3041:	83 f8 01             	cmp    $0x1,%eax
    3044:	0f 84 47 ff ff ff    	je     2f91 <riscv_dsp_shift_q15+0x241>
    304a:	0f bf 77 02          	movswl 0x2(%rdi),%esi
    304e:	d3 fe                	sar    %cl,%esi
    3050:	66 89 72 02          	mov    %si,0x2(%rdx)
    3054:	83 f8 02             	cmp    $0x2,%eax
    3057:	0f 84 34 ff ff ff    	je     2f91 <riscv_dsp_shift_q15+0x241>
    305d:	0f bf 77 04          	movswl 0x4(%rdi),%esi
    3061:	d3 fe                	sar    %cl,%esi
    3063:	66 89 72 04          	mov    %si,0x4(%rdx)
    3067:	83 f8 03             	cmp    $0x3,%eax
    306a:	0f 84 21 ff ff ff    	je     2f91 <riscv_dsp_shift_q15+0x241>
    3070:	0f bf 77 06          	movswl 0x6(%rdi),%esi
    3074:	d3 fe                	sar    %cl,%esi
    3076:	66 89 72 06          	mov    %si,0x6(%rdx)
    307a:	83 f8 04             	cmp    $0x4,%eax
    307d:	0f 84 0e ff ff ff    	je     2f91 <riscv_dsp_shift_q15+0x241>
    3083:	0f bf 77 08          	movswl 0x8(%rdi),%esi
    3087:	d3 fe                	sar    %cl,%esi
    3089:	66 89 72 08          	mov    %si,0x8(%rdx)
    308d:	83 f8 05             	cmp    $0x5,%eax
    3090:	0f 84 fb fe ff ff    	je     2f91 <riscv_dsp_shift_q15+0x241>
    3096:	0f bf 77 0a          	movswl 0xa(%rdi),%esi
    309a:	d3 fe                	sar    %cl,%esi
    309c:	66 89 72 0a          	mov    %si,0xa(%rdx)
    30a0:	83 f8 06             	cmp    $0x6,%eax
    30a3:	0f 84 e8 fe ff ff    	je     2f91 <riscv_dsp_shift_q15+0x241>
    30a9:	0f bf 47 0c          	movswl 0xc(%rdi),%eax
    30ad:	d3 f8                	sar    %cl,%eax
    30af:	66 89 42 0c          	mov    %ax,0xc(%rdx)
    30b3:	c3                   	ret    
    30b4:	0f 1f 40 00          	nopl   0x0(%rax)
    30b8:	c3                   	ret    
    30b9:	0f 1f 80 00 00 00 00 	nopl   0x0(%rax)
    30c0:	c3                   	ret    
    30c1:	c3                   	ret    
    30c2:	44 89 c0             	mov    %r8d,%eax
    30c5:	e9 6f ff ff ff       	jmp    3039 <riscv_dsp_shift_q15+0x2e9>
    30ca:	66 0f 1f 44 00 00    	nopw   0x0(%rax,%rax,1)

00000000000030d0 <riscv_dsp_shift_q31>:
    30d0:	f3 0f 1e fa          	endbr64 
    30d4:	41 56                	push   %r14
    30d6:	41 55                	push   %r13
    30d8:	41 54                	push   %r12
    30da:	55                   	push   %rbp
    30db:	89 cd                	mov    %ecx,%ebp
    30dd:	53                   	push   %rbx
    30de:	89 f3                	mov    %esi,%ebx
    30e0:	48 89 d6             	mov    %rdx,%rsi
    30e3:	89 ca                	mov    %ecx,%edx
    30e5:	83 e5 01             	and    $0x1,%ebp
    30e8:	83 e2 fe             	and    $0xfffffffe,%edx
    30eb:	84 db                	test   %bl,%bl
    30ed:	0f 88 a5 00 00 00    	js     3198 <riscv_dsp_shift_q31+0xc8>
    30f3:	0f be cb             	movsbl %bl,%ecx
    30f6:	85 d2                	test   %edx,%edx
    30f8:	74 6e                	je     3168 <riscv_dsp_shift_q31+0x98>
    30fa:	66 0f 1f 44 00 00    	nopw   0x0(%rax,%rax,1)
    3100:	44 8b 27             	mov    (%rdi),%r12d
    3103:	44 8b 57 04          	mov    0x4(%rdi),%r10d
    3107:	48 83 c7 08          	add    $0x8,%rdi
    310b:	48 83 c6 08          	add    $0x8,%rsi
    310f:	44 89 e0             	mov    %r12d,%eax
    3112:	45 89 d0             	mov    %r10d,%r8d
    3115:	45 89 e3             	mov    %r12d,%r11d
    3118:	45 89 d1             	mov    %r10d,%r9d
    311b:	d3 e0                	shl    %cl,%eax
    311d:	41 d3 e0             	shl    %cl,%r8d
    3120:	41 c1 fb 1f          	sar    $0x1f,%r11d
    3124:	41 89 c6             	mov    %eax,%r14d
    3127:	45 89 c5             	mov    %r8d,%r13d
    312a:	41 c1 f9 1f          	sar    $0x1f,%r9d
    312e:	41 d3 fe             	sar    %cl,%r14d
    3131:	41 81 f3 ff ff ff 7f 	xor    $0x7fffffff,%r11d
    3138:	41 d3 fd             	sar    %cl,%r13d
    313b:	41 81 f1 ff ff ff 7f 	xor    $0x7fffffff,%r9d
    3142:	45 39 f4             	cmp    %r14d,%r12d
    3145:	44 0f 44 d8          	cmove  %eax,%r11d
    3149:	45 39 ea             	cmp    %r13d,%r10d
    314c:	45 0f 45 c1          	cmovne %r9d,%r8d
    3150:	66 41 0f 6e c3       	movd   %r11d,%xmm0
    3155:	66 41 0f 6e d0       	movd   %r8d,%xmm2
    315a:	66 0f 62 c2          	punpckldq %xmm2,%xmm0
    315e:	66 0f d6 46 f8       	movq   %xmm0,-0x8(%rsi)
    3163:	83 ea 02             	sub    $0x2,%edx
    3166:	75 98                	jne    3100 <riscv_dsp_shift_q31+0x30>
    3168:	85 ed                	test   %ebp,%ebp
    316a:	74 20                	je     318c <riscv_dsp_shift_q31+0xbc>
    316c:	8b 3f                	mov    (%rdi),%edi
    316e:	89 d9                	mov    %ebx,%ecx
    3170:	89 f8                	mov    %edi,%eax
    3172:	d3 e0                	shl    %cl,%eax
    3174:	89 c2                	mov    %eax,%edx
    3176:	d3 fa                	sar    %cl,%edx
    3178:	89 d1                	mov    %edx,%ecx
    317a:	89 fa                	mov    %edi,%edx
    317c:	c1 fa 1f             	sar    $0x1f,%edx
    317f:	81 f2 ff ff ff 7f    	xor    $0x7fffffff,%edx
    3185:	39 cf                	cmp    %ecx,%edi
    3187:	0f 45 c2             	cmovne %edx,%eax
    318a:	89 06                	mov    %eax,(%rsi)
    318c:	5b                   	pop    %rbx
    318d:	5d                   	pop    %rbp
    318e:	41 5c                	pop    %r12
    3190:	41 5d                	pop    %r13
    3192:	41 5e                	pop    %r14
    3194:	c3                   	ret    
    3195:	0f 1f 00             	nopl   (%rax)
    3198:	85 d2                	test   %edx,%edx
    319a:	74 2e                	je     31ca <riscv_dsp_shift_q31+0xfa>
    319c:	0f be c3             	movsbl %bl,%eax
    319f:	f7 d8                	neg    %eax
    31a1:	48 98                	cltq   
    31a3:	66 48 0f 6e c8       	movq   %rax,%xmm1
    31a8:	0f 1f 84 00 00 00 00 	nopl   0x0(%rax,%rax,1)
    31af:	00 
    31b0:	f3 0f 7e 07          	movq   (%rdi),%xmm0
    31b4:	48 83 c6 08          	add    $0x8,%rsi
    31b8:	48 83 c7 08          	add    $0x8,%rdi
    31bc:	66 0f e2 c1          	psrad  %xmm1,%xmm0
    31c0:	66 0f d6 46 f8       	movq   %xmm0,-0x8(%rsi)
    31c5:	83 ea 02             	sub    $0x2,%edx
    31c8:	75 e6                	jne    31b0 <riscv_dsp_shift_q31+0xe0>
    31ca:	85 ed                	test   %ebp,%ebp
    31cc:	74 be                	je     318c <riscv_dsp_shift_q31+0xbc>
    31ce:	8b 07                	mov    (%rdi),%eax
    31d0:	89 d9                	mov    %ebx,%ecx
    31d2:	5b                   	pop    %rbx
    31d3:	f7 d9                	neg    %ecx
    31d5:	5d                   	pop    %rbp
    31d6:	41 5c                	pop    %r12
    31d8:	d3 f8                	sar    %cl,%eax
    31da:	41 5d                	pop    %r13
    31dc:	41 5e                	pop    %r14
    31de:	89 06                	mov    %eax,(%rsi)
    31e0:	c3                   	ret    
    31e1:	66 2e 0f 1f 84 00 00 	cs nopw 0x0(%rax,%rax,1)
    31e8:	00 00 00 
    31eb:	0f 1f 44 00 00       	nopl   0x0(%rax,%rax,1)

00000000000031f0 <riscv_dsp_absmax_val_q15>:
    31f0:	f3 0f 1e fa          	endbr64 
    31f4:	85 f6                	test   %esi,%esi
    31f6:	74 6c                	je     3264 <riscv_dsp_absmax_val_q15+0x74>
    31f8:	0f b7 07             	movzwl (%rdi),%eax
    31fb:	66 85 c0             	test   %ax,%ax
    31fe:	7f 10                	jg     3210 <riscv_dsp_absmax_val_q15+0x20>
    3200:	89 c2                	mov    %eax,%edx
    3202:	f7 da                	neg    %edx
    3204:	66 3d 00 80          	cmp    $0x8000,%ax
    3208:	b8 ff 7f 00 00       	mov    $0x7fff,%eax
    320d:	0f 45 c2             	cmovne %edx,%eax
    3210:	48 8d 57 02          	lea    0x2(%rdi),%rdx
    3214:	83 fe 01             	cmp    $0x1,%esi
    3217:	74 50                	je     3269 <riscv_dsp_absmax_val_q15+0x79>
    3219:	89 f6                	mov    %esi,%esi
    321b:	41 b8 ff 7f 00 00    	mov    $0x7fff,%r8d
    3221:	48 8d 3c 77          	lea    (%rdi,%rsi,2),%rdi
    3225:	eb 18                	jmp    323f <riscv_dsp_absmax_val_q15+0x4f>
    3227:	66 0f 1f 84 00 00 00 	nopw   0x0(%rax,%rax,1)
    322e:	00 00 
    3230:	66 39 c8             	cmp    %cx,%ax
    3233:	0f 4c c1             	cmovl  %ecx,%eax
    3236:	48 83 c2 02          	add    $0x2,%rdx
    323a:	48 39 d7             	cmp    %rdx,%rdi
    323d:	74 24                	je     3263 <riscv_dsp_absmax_val_q15+0x73>
    323f:	0f b7 0a             	movzwl (%rdx),%ecx
    3242:	66 85 c9             	test   %cx,%cx
    3245:	7f e9                	jg     3230 <riscv_dsp_absmax_val_q15+0x40>
    3247:	89 ce                	mov    %ecx,%esi
    3249:	f7 de                	neg    %esi
    324b:	66 39 f0             	cmp    %si,%ax
    324e:	0f 4c c6             	cmovl  %esi,%eax
    3251:	66 81 f9 00 80       	cmp    $0x8000,%cx
    3256:	41 0f 44 c0          	cmove  %r8d,%eax
    325a:	48 83 c2 02          	add    $0x2,%rdx
    325e:	48 39 d7             	cmp    %rdx,%rdi
    3261:	75 dc                	jne    323f <riscv_dsp_absmax_val_q15+0x4f>
    3263:	c3                   	ret    
    3264:	b8 00 80 ff ff       	mov    $0xffff8000,%eax
    3269:	c3                   	ret    
    326a:	66 0f 1f 44 00 00    	nopw   0x0(%rax,%rax,1)

0000000000003270 <riscv_dsp_cfft_q15>:
    3270:	f3 0f 1e fa          	endbr64 
    3274:	83 fe 0e             	cmp    $0xe,%esi
    3277:	77 17                	ja     3290 <riscv_dsp_cfft_q15+0x20>
    3279:	b8 50 55 00 00       	mov    $0x5550,%eax
    327e:	48 0f a3 f0          	bt     %rsi,%rax
    3282:	73 0c                	jae    3290 <riscv_dsp_cfft_q15+0x20>
    3284:	e9 d7 1d 00 00       	jmp    5060 <riscv_dsp_cfft_rd4_q15>
    3289:	0f 1f 80 00 00 00 00 	nopl   0x0(%rax)
    3290:	e9 3b 00 00 00       	jmp    32d0 <riscv_dsp_cfft_rd2_q15>
    3295:	66 2e 0f 1f 84 00 00 	cs nopw 0x0(%rax,%rax,1)
    329c:	00 00 00 
    329f:	90                   	nop

00000000000032a0 <riscv_dsp_cifft_q15>:
    32a0:	f3 0f 1e fa          	endbr64 
    32a4:	83 fe 0e             	cmp    $0xe,%esi
    32a7:	77 17                	ja     32c0 <riscv_dsp_cifft_q15+0x20>
    32a9:	b8 50 55 00 00       	mov    $0x5550,%eax
    32ae:	48 0f a3 f0          	bt     %rsi,%rax
    32b2:	73 0c                	jae    32c0 <riscv_dsp_cifft_q15+0x20>
    32b4:	e9 c7 31 00 00       	jmp    6480 <riscv_dsp_cifft_rd4_q15>
    32b9:	0f 1f 80 00 00 00 00 	nopl   0x0(%rax)
    32c0:	e9 ab 09 00 00       	jmp    3c70 <riscv_dsp_cifft_rd2_q15>
    32c5:	66 2e 0f 1f 84 00 00 	cs nopw 0x0(%rax,%rax,1)
    32cc:	00 00 00 
    32cf:	90                   	nop

00000000000032d0 <riscv_dsp_cfft_rd2_q15>:
    32d0:	f3 0f 1e fa          	endbr64 
    32d4:	89 f1                	mov    %esi,%ecx
    32d6:	b8 01 00 00 00       	mov    $0x1,%eax
    32db:	41 57                	push   %r15
    32dd:	d3 e0                	shl    %cl,%eax
    32df:	41 56                	push   %r14
    32e1:	41 55                	push   %r13
    32e3:	41 89 c3             	mov    %eax,%r11d
    32e6:	41 54                	push   %r12
    32e8:	4d 01 db             	add    %r11,%r11
    32eb:	55                   	push   %rbp
    32ec:	4e 8d 34 1f          	lea    (%rdi,%r11,1),%r14
    32f0:	53                   	push   %rbx
    32f1:	48 89 fb             	mov    %rdi,%rbx
    32f4:	41 0f b7 4e 02       	movzwl 0x2(%r14),%ecx
    32f9:	66 d1 f9             	sar    %cx
    32fc:	48 89 7c 24 d8       	mov    %rdi,-0x28(%rsp)
    3301:	0f bf c9             	movswl %cx,%ecx
    3304:	89 44 24 f4          	mov    %eax,-0xc(%rsp)
    3308:	0f b7 47 02          	movzwl 0x2(%rdi),%eax
    330c:	0f b7 3f             	movzwl (%rdi),%edi
    330f:	89 74 24 f0          	mov    %esi,-0x10(%rsp)
    3313:	41 0f b7 36          	movzwl (%r14),%esi
    3317:	66 d1 f8             	sar    %ax
    331a:	89 fa                	mov    %edi,%edx
    331c:	66 89 7c 24 c8       	mov    %di,-0x38(%rsp)
    3321:	98                   	cwtl   
    3322:	66 d1 fa             	sar    %dx
    3325:	66 d1 fe             	sar    %si
    3328:	0f bf d2             	movswl %dx,%edx
    332b:	0f bf f6             	movswl %si,%esi
    332e:	8d 3c 32             	lea    (%rdx,%rsi,1),%edi
    3331:	29 f2                	sub    %esi,%edx
    3333:	d1 ff                	sar    %edi
    3335:	d1 fa                	sar    %edx
    3337:	66 89 3b             	mov    %di,(%rbx)
    333a:	8d 3c 08             	lea    (%rax,%rcx,1),%edi
    333d:	29 c8                	sub    %ecx,%eax
    333f:	d1 f8                	sar    %eax
    3341:	d1 ff                	sar    %edi
    3343:	66 89 7b 02          	mov    %di,0x2(%rbx)
    3347:	66 41 89 46 02       	mov    %ax,0x2(%r14)
    334c:	48 8d 43 04          	lea    0x4(%rbx),%rax
    3350:	66 41 89 16          	mov    %dx,(%r14)
    3354:	48 89 44 24 e0       	mov    %rax,-0x20(%rsp)
    3359:	49 39 c6             	cmp    %rax,%r14
    335c:	0f 84 20 01 00 00    	je     3482 <riscv_dsp_cfft_rd2_q15+0x1b2>
    3362:	b9 0a 00 00 00       	mov    $0xa,%ecx
    3367:	48 89 c2             	mov    %rax,%rdx
    336a:	2b 4c 24 f0          	sub    -0x10(%rsp),%ecx
    336e:	31 db                	xor    %ebx,%ebx
    3370:	4c 8d 25 ed 65 00 00 	lea    0x65ed(%rip),%r12        # 9964 <riscv_dsp_cos_table_q15_1024+0x4>
    3377:	41 bd 00 01 00 00    	mov    $0x100,%r13d
    337d:	e9 91 00 00 00       	jmp    3413 <riscv_dsp_cfft_rd2_q15+0x143>
    3382:	48 98                	cltq   
    3384:	48 63 f6             	movslq %esi,%rsi
    3387:	41 0f b7 04 44       	movzwl (%r12,%rax,2),%eax
    338c:	45 0f b7 04 74       	movzwl (%r12,%rsi,2),%r8d
    3391:	0f b7 3a             	movzwl (%rdx),%edi
    3394:	42 0f b7 2c 1a       	movzwl (%rdx,%r11,1),%ebp
    3399:	98                   	cwtl   
    339a:	45 0f bf c0          	movswl %r8w,%r8d
    339e:	0f b7 72 02          	movzwl 0x2(%rdx),%esi
    33a2:	46 0f b7 4c 1a 02    	movzwl 0x2(%rdx,%r11,1),%r9d
    33a8:	48 83 c2 04          	add    $0x4,%rdx
    33ac:	66 d1 ff             	sar    %di
    33af:	66 d1 fd             	sar    %bp
    33b2:	66 d1 fe             	sar    %si
    33b5:	0f bf ff             	movswl %di,%edi
    33b8:	0f bf ed             	movswl %bp,%ebp
    33bb:	66 41 d1 f9          	sar    %r9w
    33bf:	41 89 fa             	mov    %edi,%r10d
    33c2:	01 ef                	add    %ebp,%edi
    33c4:	45 0f bf c9          	movswl %r9w,%r9d
    33c8:	0f bf f6             	movswl %si,%esi
    33cb:	d1 ff                	sar    %edi
    33cd:	41 29 ea             	sub    %ebp,%r10d
    33d0:	66 89 7a fc          	mov    %di,-0x4(%rdx)
    33d4:	89 f7                	mov    %esi,%edi
    33d6:	44 01 ce             	add    %r9d,%esi
    33d9:	d1 fe                	sar    %esi
    33db:	44 29 cf             	sub    %r9d,%edi
    33de:	45 89 c1             	mov    %r8d,%r9d
    33e1:	66 89 72 fe          	mov    %si,-0x2(%rdx)
    33e5:	89 c6                	mov    %eax,%esi
    33e7:	44 0f af cf          	imul   %edi,%r9d
    33eb:	41 0f af f2          	imul   %r10d,%esi
    33ef:	0f af c7             	imul   %edi,%eax
    33f2:	45 0f af c2          	imul   %r10d,%r8d
    33f6:	44 01 ce             	add    %r9d,%esi
    33f9:	c1 fe 10             	sar    $0x10,%esi
    33fc:	44 29 c0             	sub    %r8d,%eax
    33ff:	66 42 89 74 1a fc    	mov    %si,-0x4(%rdx,%r11,1)
    3405:	c1 f8 10             	sar    $0x10,%eax
    3408:	66 42 89 44 1a fe    	mov    %ax,-0x2(%rdx,%r11,1)
    340e:	49 39 d6             	cmp    %rdx,%r14
    3411:	74 6f                	je     3482 <riscv_dsp_cfft_rd2_q15+0x1b2>
    3413:	83 c3 01             	add    $0x1,%ebx
    3416:	44 89 ee             	mov    %r13d,%esi
    3419:	89 d8                	mov    %ebx,%eax
    341b:	d3 e0                	shl    %cl,%eax
    341d:	29 c6                	sub    %eax,%esi
    341f:	85 f6                	test   %esi,%esi
    3421:	0f 8f 5b ff ff ff    	jg     3382 <riscv_dsp_cfft_rd2_q15+0xb2>
    3427:	8d b0 00 ff ff ff    	lea    -0x100(%rax),%esi
    342d:	44 89 ef             	mov    %r13d,%edi
    3430:	29 f7                	sub    %esi,%edi
    3432:	85 ff                	test   %edi,%edi
    3434:	7e 17                	jle    344d <riscv_dsp_cfft_rd2_q15+0x17d>
    3436:	48 63 ff             	movslq %edi,%rdi
    3439:	48 63 f6             	movslq %esi,%rsi
    343c:	41 0f b7 04 7c       	movzwl (%r12,%rdi,2),%eax
    3441:	45 0f b7 04 74       	movzwl (%r12,%rsi,2),%r8d
    3446:	f7 d8                	neg    %eax
    3448:	e9 44 ff ff ff       	jmp    3391 <riscv_dsp_cfft_rd2_q15+0xc1>
    344d:	8d b0 00 fe ff ff    	lea    -0x200(%rax),%esi
    3453:	44 89 ef             	mov    %r13d,%edi
    3456:	29 f7                	sub    %esi,%edi
    3458:	48 63 f6             	movslq %esi,%rsi
    345b:	45 0f b7 04 74       	movzwl (%r12,%rsi,2),%r8d
    3460:	48 63 c7             	movslq %edi,%rax
    3463:	41 0f b7 04 44       	movzwl (%r12,%rax,2),%eax
    3468:	41 f7 d8             	neg    %r8d
    346b:	85 ff                	test   %edi,%edi
    346d:	0f 8e 1e ff ff ff    	jle    3391 <riscv_dsp_cfft_rd2_q15+0xc1>
    3473:	f7 d8                	neg    %eax
    3475:	89 c6                	mov    %eax,%esi
    3477:	44 89 c0             	mov    %r8d,%eax
    347a:	41 89 f0             	mov    %esi,%r8d
    347d:	e9 0f ff ff ff       	jmp    3391 <riscv_dsp_cfft_rd2_q15+0xc1>
    3482:	8b 44 24 f4          	mov    -0xc(%rsp),%eax
    3486:	8b 7c 24 f0          	mov    -0x10(%rsp),%edi
    348a:	bb 02 00 00 00       	mov    $0x2,%ebx
    348f:	89 44 24 e8          	mov    %eax,-0x18(%rsp)
    3493:	89 f8                	mov    %edi,%eax
    3495:	83 e8 02             	sub    $0x2,%eax
    3498:	89 44 24 ec          	mov    %eax,-0x14(%rsp)
    349c:	0f 84 86 03 00 00    	je     3828 <riscv_dsp_cfft_rd2_q15+0x558>
    34a2:	b8 0a 00 00 00       	mov    $0xa,%eax
    34a7:	66 0f ef ed          	pxor   %xmm5,%xmm5
    34ab:	4c 8d 25 b2 64 00 00 	lea    0x64b2(%rip),%r12        # 9964 <riscv_dsp_cos_table_q15_1024+0x4>
    34b2:	41 bd 00 01 00 00    	mov    $0x100,%r13d
    34b8:	29 f8                	sub    %edi,%eax
    34ba:	89 44 24 d4          	mov    %eax,-0x2c(%rsp)
    34be:	66 90                	xchg   %ax,%ax
    34c0:	d1 6c 24 e8          	shrl   -0x18(%rsp)
    34c4:	44 8b 54 24 e8       	mov    -0x18(%rsp),%r10d
    34c9:	48 8b 44 24 d8       	mov    -0x28(%rsp),%rax
    34ce:	4b 8d 3c 12          	lea    (%r10,%r10,1),%rdi
    34d2:	48 01 f8             	add    %rdi,%rax
    34d5:	48 89 44 24 c8       	mov    %rax,-0x38(%rsp)
    34da:	85 db                	test   %ebx,%ebx
    34dc:	0f 84 6d 02 00 00    	je     374f <riscv_dsp_cfft_rd2_q15+0x47f>
    34e2:	4a 8d 34 17          	lea    (%rdi,%r10,1),%rsi
    34e6:	44 8d 73 ff          	lea    -0x1(%rbx),%r14d
    34ea:	48 c1 e6 02          	shl    $0x2,%rsi
    34ee:	48 85 ff             	test   %rdi,%rdi
    34f1:	4a 8d 04 95 00 00 00 	lea    0x0(,%r10,4),%rax
    34f8:	00 
    34f9:	0f 95 c1             	setne  %cl
    34fc:	41 83 fe 02          	cmp    $0x2,%r14d
    3500:	0f 97 c2             	seta   %dl
    3503:	21 ca                	and    %ecx,%edx
    3505:	48 83 f8 03          	cmp    $0x3,%rax
    3509:	0f 97 c1             	seta   %cl
    350c:	84 ca                	test   %cl,%dl
    350e:	0f 84 f0 06 00 00    	je     3c04 <riscv_dsp_cfft_rd2_q15+0x934>
    3514:	48 8d 56 02          	lea    0x2(%rsi),%rdx
    3518:	48 39 d7             	cmp    %rdx,%rdi
    351b:	0f 8e e3 06 00 00    	jle    3c04 <riscv_dsp_cfft_rd2_q15+0x934>
    3521:	41 89 db             	mov    %ebx,%r11d
    3524:	4d 89 d1             	mov    %r10,%r9
    3527:	48 8b 4c 24 d8       	mov    -0x28(%rsp),%rcx
    352c:	48 8b 54 24 c8       	mov    -0x38(%rsp),%rdx
    3531:	41 c1 eb 02          	shr    $0x2,%r11d
    3535:	49 c1 e1 04          	shl    $0x4,%r9
    3539:	45 31 c0             	xor    %r8d,%r8d
    353c:	0f 1f 40 00          	nopl   0x0(%rax)
    3540:	66 0f 6e 3c 31       	movd   (%rcx,%rsi,1),%xmm7
    3545:	66 0f 6e 11          	movd   (%rcx),%xmm2
    3549:	66 0f 6f cd          	movdqa %xmm5,%xmm1
    354d:	41 83 c0 01          	add    $0x1,%r8d
    3551:	66 0f 6e 34 01       	movd   (%rcx,%rax,1),%xmm6
    3556:	66 0f 6e 04 41       	movd   (%rcx,%rax,2),%xmm0
    355b:	66 0f 6e 24 42       	movd   (%rdx,%rax,2),%xmm4
    3560:	66 0f 62 c7          	punpckldq %xmm7,%xmm0
    3564:	66 0f 62 d6          	punpckldq %xmm6,%xmm2
    3568:	66 0f 6e 3c 32       	movd   (%rdx,%rsi,1),%xmm7
    356d:	66 0f 6e 34 02       	movd   (%rdx,%rax,1),%xmm6
    3572:	66 0f 6c d0          	punpcklqdq %xmm0,%xmm2
    3576:	66 0f 65 ca          	pcmpgtw %xmm2,%xmm1
    357a:	66 0f 6f c2          	movdqa %xmm2,%xmm0
    357e:	66 0f 6f da          	movdqa %xmm2,%xmm3
    3582:	66 0f 62 e7          	punpckldq %xmm7,%xmm4
    3586:	66 0f 61 c1          	punpcklwd %xmm1,%xmm0
    358a:	66 0f 69 d9          	punpckhwd %xmm1,%xmm3
    358e:	66 0f 6e 0a          	movd   (%rdx),%xmm1
    3592:	66 0f 62 ce          	punpckldq %xmm6,%xmm1
    3596:	66 0f 6c cc          	punpcklqdq %xmm4,%xmm1
    359a:	66 0f 6f e5          	movdqa %xmm5,%xmm4
    359e:	66 0f 65 e1          	pcmpgtw %xmm1,%xmm4
    35a2:	66 0f 6f f1          	movdqa %xmm1,%xmm6
    35a6:	66 0f 6f d1          	movdqa %xmm1,%xmm2
    35aa:	66 0f 6f c8          	movdqa %xmm0,%xmm1
    35ae:	66 0f 69 d4          	punpckhwd %xmm4,%xmm2
    35b2:	66 0f 61 f4          	punpcklwd %xmm4,%xmm6
    35b6:	66 0f 6f e3          	movdqa %xmm3,%xmm4
    35ba:	66 0f fe e2          	paddd  %xmm2,%xmm4
    35be:	66 0f fa da          	psubd  %xmm2,%xmm3
    35c2:	66 0f fe ce          	paddd  %xmm6,%xmm1
    35c6:	66 0f 72 e4 01       	psrad  $0x1,%xmm4
    35cb:	66 0f fa c6          	psubd  %xmm6,%xmm0
    35cf:	66 0f 72 e1 01       	psrad  $0x1,%xmm1
    35d4:	66 0f 72 e3 01       	psrad  $0x1,%xmm3
    35d9:	66 0f 6f d3          	movdqa %xmm3,%xmm2
    35dd:	66 0f 72 e0 01       	psrad  $0x1,%xmm0
    35e2:	66 0f 6f f9          	movdqa %xmm1,%xmm7
    35e6:	66 0f 61 cc          	punpcklwd %xmm4,%xmm1
    35ea:	66 0f 69 fc          	punpckhwd %xmm4,%xmm7
    35ee:	66 0f 6f d8          	movdqa %xmm0,%xmm3
    35f2:	66 0f 6f e1          	movdqa %xmm1,%xmm4
    35f6:	66 0f 61 c2          	punpcklwd %xmm2,%xmm0
    35fa:	66 0f 69 da          	punpckhwd %xmm2,%xmm3
    35fe:	66 0f 69 e7          	punpckhwd %xmm7,%xmm4
    3602:	66 0f 6f d0          	movdqa %xmm0,%xmm2
    3606:	66 0f 61 cf          	punpcklwd %xmm7,%xmm1
    360a:	66 0f 61 cc          	punpcklwd %xmm4,%xmm1
    360e:	66 0f 69 d3          	punpckhwd %xmm3,%xmm2
    3612:	66 0f 61 c3          	punpcklwd %xmm3,%xmm0
    3616:	66 0f 61 c2          	punpcklwd %xmm2,%xmm0
    361a:	66 0f 70 d1 55       	pshufd $0x55,%xmm1,%xmm2
    361f:	66 0f 7e 09          	movd   %xmm1,(%rcx)
    3623:	66 0f 7e 14 01       	movd   %xmm2,(%rcx,%rax,1)
    3628:	66 0f 6f d1          	movdqa %xmm1,%xmm2
    362c:	66 0f 6a d1          	punpckhdq %xmm1,%xmm2
    3630:	66 0f 70 c9 ff       	pshufd $0xff,%xmm1,%xmm1
    3635:	66 0f 7e 14 41       	movd   %xmm2,(%rcx,%rax,2)
    363a:	66 0f 7e 0c 31       	movd   %xmm1,(%rcx,%rsi,1)
    363f:	66 0f 70 c8 55       	pshufd $0x55,%xmm0,%xmm1
    3644:	4c 01 c9             	add    %r9,%rcx
    3647:	66 0f 7e 02          	movd   %xmm0,(%rdx)
    364b:	66 0f 7e 0c 02       	movd   %xmm1,(%rdx,%rax,1)
    3650:	66 0f 6f c8          	movdqa %xmm0,%xmm1
    3654:	66 0f 6a c8          	punpckhdq %xmm0,%xmm1
    3658:	66 0f 70 c0 ff       	pshufd $0xff,%xmm0,%xmm0
    365d:	66 0f 7e 0c 42       	movd   %xmm1,(%rdx,%rax,2)
    3662:	66 0f 7e 04 32       	movd   %xmm0,(%rdx,%rsi,1)
    3667:	4c 01 ca             	add    %r9,%rdx
    366a:	45 39 d8             	cmp    %r11d,%r8d
    366d:	0f 85 cd fe ff ff    	jne    3540 <riscv_dsp_cfft_rd2_q15+0x270>
    3673:	41 89 d8             	mov    %ebx,%r8d
    3676:	48 8b 74 24 d8       	mov    -0x28(%rsp),%rsi
    367b:	41 83 e0 fc          	and    $0xfffffffc,%r8d
    367f:	44 89 c0             	mov    %r8d,%eax
    3682:	48 0f af c7          	imul   %rdi,%rax
    3686:	48 8d 14 46          	lea    (%rsi,%rax,2),%rdx
    368a:	44 39 c3             	cmp    %r8d,%ebx
    368d:	0f 84 bc 00 00 00    	je     374f <riscv_dsp_cfft_rd2_q15+0x47f>
    3693:	48 8d 04 3a          	lea    (%rdx,%rdi,1),%rax
    3697:	0f bf 32             	movswl (%rdx),%esi
    369a:	0f bf 28             	movswl (%rax),%ebp
    369d:	44 0f bf 48 02       	movswl 0x2(%rax),%r9d
    36a2:	8d 0c 2e             	lea    (%rsi,%rbp,1),%ecx
    36a5:	29 ee                	sub    %ebp,%esi
    36a7:	d1 f9                	sar    %ecx
    36a9:	d1 fe                	sar    %esi
    36ab:	66 89 0a             	mov    %cx,(%rdx)
    36ae:	0f bf 4a 02          	movswl 0x2(%rdx),%ecx
    36b2:	46 8d 1c 09          	lea    (%rcx,%r9,1),%r11d
    36b6:	44 29 c9             	sub    %r9d,%ecx
    36b9:	41 d1 fb             	sar    %r11d
    36bc:	d1 f9                	sar    %ecx
    36be:	66 44 89 5a 02       	mov    %r11w,0x2(%rdx)
    36c3:	45 89 f3             	mov    %r14d,%r11d
    36c6:	66 89 30             	mov    %si,(%rax)
    36c9:	66 89 48 02          	mov    %cx,0x2(%rax)
    36cd:	48 01 f8             	add    %rdi,%rax
    36d0:	45 29 c3             	sub    %r8d,%r11d
    36d3:	74 7a                	je     374f <riscv_dsp_cfft_rd2_q15+0x47f>
    36d5:	48 8d 14 38          	lea    (%rax,%rdi,1),%rdx
    36d9:	0f bf 30             	movswl (%rax),%esi
    36dc:	0f bf 2a             	movswl (%rdx),%ebp
    36df:	44 0f bf 42 02       	movswl 0x2(%rdx),%r8d
    36e4:	8d 0c 2e             	lea    (%rsi,%rbp,1),%ecx
    36e7:	29 ee                	sub    %ebp,%esi
    36e9:	d1 f9                	sar    %ecx
    36eb:	d1 fe                	sar    %esi
    36ed:	66 89 08             	mov    %cx,(%rax)
    36f0:	0f bf 48 02          	movswl 0x2(%rax),%ecx
    36f4:	46 8d 0c 01          	lea    (%rcx,%r8,1),%r9d
    36f8:	44 29 c1             	sub    %r8d,%ecx
    36fb:	41 d1 f9             	sar    %r9d
    36fe:	d1 f9                	sar    %ecx
    3700:	66 44 89 48 02       	mov    %r9w,0x2(%rax)
    3705:	66 89 32             	mov    %si,(%rdx)
    3708:	66 89 4a 02          	mov    %cx,0x2(%rdx)
    370c:	48 01 fa             	add    %rdi,%rdx
    370f:	41 83 fb 01          	cmp    $0x1,%r11d
    3713:	74 3a                	je     374f <riscv_dsp_cfft_rd2_q15+0x47f>
    3715:	48 8d 34 3a          	lea    (%rdx,%rdi,1),%rsi
    3719:	0f bf 0a             	movswl (%rdx),%ecx
    371c:	44 0f bf 1e          	movswl (%rsi),%r11d
    3720:	44 0f bf 46 02       	movswl 0x2(%rsi),%r8d
    3725:	41 8d 04 0b          	lea    (%r11,%rcx,1),%eax
    3729:	44 29 d9             	sub    %r11d,%ecx
    372c:	d1 f8                	sar    %eax
    372e:	d1 f9                	sar    %ecx
    3730:	66 89 02             	mov    %ax,(%rdx)
    3733:	0f bf 42 02          	movswl 0x2(%rdx),%eax
    3737:	45 8d 0c 00          	lea    (%r8,%rax,1),%r9d
    373b:	44 29 c0             	sub    %r8d,%eax
    373e:	41 d1 f9             	sar    %r9d
    3741:	d1 f8                	sar    %eax
    3743:	66 44 89 4a 02       	mov    %r9w,0x2(%rdx)
    3748:	66 89 0e             	mov    %cx,(%rsi)
    374b:	66 89 46 02          	mov    %ax,0x2(%rsi)
    374f:	48 8b 44 24 e0       	mov    -0x20(%rsp),%rax
    3754:	48 8b 74 24 c8       	mov    -0x38(%rsp),%rsi
    3759:	49 c1 e2 02          	shl    $0x2,%r10
    375d:	31 ed                	xor    %ebp,%ebp
    375f:	49 89 c3             	mov    %rax,%r11
    3762:	48 39 f0             	cmp    %rsi,%rax
    3765:	0f 84 b0 00 00 00    	je     381b <riscv_dsp_cfft_rd2_q15+0x54b>
    376b:	0f 1f 44 00 00       	nopl   0x0(%rax,%rax,1)
    3770:	0f b6 4c 24 d4       	movzbl -0x2c(%rsp),%ecx
    3775:	01 dd                	add    %ebx,%ebp
    3777:	44 89 ea             	mov    %r13d,%edx
    377a:	89 e8                	mov    %ebp,%eax
    377c:	d3 e0                	shl    %cl,%eax
    377e:	29 c2                	sub    %eax,%edx
    3780:	85 d2                	test   %edx,%edx
    3782:	0f 8e 20 04 00 00    	jle    3ba8 <riscv_dsp_cfft_rd2_q15+0x8d8>
    3788:	48 98                	cltq   
    378a:	48 63 d2             	movslq %edx,%rdx
    378d:	45 0f b7 0c 44       	movzwl (%r12,%rax,2),%r9d
    3792:	45 0f b7 34 54       	movzwl (%r12,%rdx,2),%r14d
    3797:	85 db                	test   %ebx,%ebx
    3799:	74 71                	je     380c <riscv_dsp_cfft_rd2_q15+0x53c>
    379b:	45 0f bf c9          	movswl %r9w,%r9d
    379f:	45 0f bf f6          	movswl %r14w,%r14d
    37a3:	4c 89 d8             	mov    %r11,%rax
    37a6:	41 89 d8             	mov    %ebx,%r8d
    37a9:	0f 1f 80 00 00 00 00 	nopl   0x0(%rax)
    37b0:	0f bf 10             	movswl (%rax),%edx
    37b3:	0f bf 0c 38          	movswl (%rax,%rdi,1),%ecx
    37b7:	44 0f bf 7c 38 02    	movswl 0x2(%rax,%rdi,1),%r15d
    37bd:	89 d6                	mov    %edx,%esi
    37bf:	01 ca                	add    %ecx,%edx
    37c1:	29 ce                	sub    %ecx,%esi
    37c3:	0f bf 48 02          	movswl 0x2(%rax),%ecx
    37c7:	d1 fa                	sar    %edx
    37c9:	66 89 10             	mov    %dx,(%rax)
    37cc:	89 ca                	mov    %ecx,%edx
    37ce:	44 01 f9             	add    %r15d,%ecx
    37d1:	44 29 fa             	sub    %r15d,%edx
    37d4:	d1 f9                	sar    %ecx
    37d6:	66 89 48 02          	mov    %cx,0x2(%rax)
    37da:	41 89 d7             	mov    %edx,%r15d
    37dd:	41 0f af d1          	imul   %r9d,%edx
    37e1:	89 f1                	mov    %esi,%ecx
    37e3:	41 0f af c9          	imul   %r9d,%ecx
    37e7:	45 0f af fe          	imul   %r14d,%r15d
    37eb:	41 0f af f6          	imul   %r14d,%esi
    37ef:	44 01 f9             	add    %r15d,%ecx
    37f2:	29 f2                	sub    %esi,%edx
    37f4:	c1 f9 10             	sar    $0x10,%ecx
    37f7:	c1 fa 10             	sar    $0x10,%edx
    37fa:	66 89 0c 38          	mov    %cx,(%rax,%rdi,1)
    37fe:	66 89 54 38 02       	mov    %dx,0x2(%rax,%rdi,1)
    3803:	4c 01 d0             	add    %r10,%rax
    3806:	41 83 e8 01          	sub    $0x1,%r8d
    380a:	75 a4                	jne    37b0 <riscv_dsp_cfft_rd2_q15+0x4e0>
    380c:	49 83 c3 04          	add    $0x4,%r11
    3810:	4c 39 5c 24 c8       	cmp    %r11,-0x38(%rsp)
    3815:	0f 85 55 ff ff ff    	jne    3770 <riscv_dsp_cfft_rd2_q15+0x4a0>
    381b:	01 db                	add    %ebx,%ebx
    381d:	83 6c 24 ec 01       	subl   $0x1,-0x14(%rsp)
    3822:	0f 85 98 fc ff ff    	jne    34c0 <riscv_dsp_cfft_rd2_q15+0x1f0>
    3828:	0f b6 4c 24 f0       	movzbl -0x10(%rsp),%ecx
    382d:	b8 02 00 00 00       	mov    $0x2,%eax
    3832:	d3 e0                	shl    %cl,%eax
    3834:	48 8d 34 00          	lea    (%rax,%rax,1),%rsi
    3838:	48 8b 44 24 d8       	mov    -0x28(%rsp),%rax
    383d:	48 8d 14 30          	lea    (%rax,%rsi,1),%rdx
    3841:	48 39 d0             	cmp    %rdx,%rax
    3844:	0f 84 b3 00 00 00    	je     38fd <riscv_dsp_cfft_rd2_q15+0x62d>
    384a:	48 29 c2             	sub    %rax,%rdx
    384d:	66 0f ef e4          	pxor   %xmm4,%xmm4
    3851:	48 8d 4a f0          	lea    -0x10(%rdx),%rcx
    3855:	31 d2                	xor    %edx,%edx
    3857:	48 c1 e9 04          	shr    $0x4,%rcx
    385b:	48 83 c1 01          	add    $0x1,%rcx
    385f:	90                   	nop
    3860:	f3 0f 6f 28          	movdqu (%rax),%xmm5
    3864:	66 0f 6f cc          	movdqa %xmm4,%xmm1
    3868:	66 0f 6f f4          	movdqa %xmm4,%xmm6
    386c:	48 83 c2 01          	add    $0x1,%rdx
    3870:	48 83 c0 10          	add    $0x10,%rax
    3874:	66 0f 70 c5 a0       	pshufd $0xa0,%xmm5,%xmm0
    3879:	66 0f 65 c8          	pcmpgtw %xmm0,%xmm1
    387d:	66 0f 6f d8          	movdqa %xmm0,%xmm3
    3881:	66 0f 6f d0          	movdqa %xmm0,%xmm2
    3885:	66 0f 70 c5 f5       	pshufd $0xf5,%xmm5,%xmm0
    388a:	66 0f 65 f0          	pcmpgtw %xmm0,%xmm6
    388e:	66 0f 6f e8          	movdqa %xmm0,%xmm5
    3892:	66 0f 61 d9          	punpcklwd %xmm1,%xmm3
    3896:	66 0f 69 d1          	punpckhwd %xmm1,%xmm2
    389a:	66 0f 6f c8          	movdqa %xmm0,%xmm1
    389e:	66 0f 6f c3          	movdqa %xmm3,%xmm0
    38a2:	66 0f 61 ee          	punpcklwd %xmm6,%xmm5
    38a6:	66 0f 69 ce          	punpckhwd %xmm6,%xmm1
    38aa:	66 0f fa dd          	psubd  %xmm5,%xmm3
    38ae:	66 0f fe c5          	paddd  %xmm5,%xmm0
    38b2:	0f c6 c3 e4          	shufps $0xe4,%xmm3,%xmm0
    38b6:	66 0f 6f da          	movdqa %xmm2,%xmm3
    38ba:	66 0f fa d1          	psubd  %xmm1,%xmm2
    38be:	66 0f fe d9          	paddd  %xmm1,%xmm3
    38c2:	66 0f 72 e0 01       	psrad  $0x1,%xmm0
    38c7:	0f c6 da e4          	shufps $0xe4,%xmm2,%xmm3
    38cb:	66 0f 6f cb          	movdqa %xmm3,%xmm1
    38cf:	66 0f 6f d0          	movdqa %xmm0,%xmm2
    38d3:	66 0f 72 e1 01       	psrad  $0x1,%xmm1
    38d8:	66 0f 61 c1          	punpcklwd %xmm1,%xmm0
    38dc:	66 0f 69 d1          	punpckhwd %xmm1,%xmm2
    38e0:	66 0f 6f c8          	movdqa %xmm0,%xmm1
    38e4:	66 0f 61 c2          	punpcklwd %xmm2,%xmm0
    38e8:	66 0f 69 ca          	punpckhwd %xmm2,%xmm1
    38ec:	66 0f 61 c1          	punpcklwd %xmm1,%xmm0
    38f0:	0f 11 40 f0          	movups %xmm0,-0x10(%rax)
    38f4:	48 39 ca             	cmp    %rcx,%rdx
    38f7:	0f 82 63 ff ff ff    	jb     3860 <riscv_dsp_cfft_rd2_q15+0x590>
    38fd:	48 8b 44 24 d8       	mov    -0x28(%rsp),%rax
    3902:	8b 5c 24 f4          	mov    -0xc(%rsp),%ebx
    3906:	0f b7 48 04          	movzwl 0x4(%rax),%ecx
    390a:	48 8d 7c 30 fe       	lea    -0x2(%rax,%rsi,1),%rdi
    390f:	48 89 c6             	mov    %rax,%rsi
    3912:	89 d8                	mov    %ebx,%eax
    3914:	83 e0 fe             	and    $0xfffffffe,%eax
    3917:	41 89 db             	mov    %ebx,%r11d
    391a:	89 c2                	mov    %eax,%edx
    391c:	41 d1 eb             	shr    %r11d
    391f:	83 c0 01             	add    $0x1,%eax
    3922:	48 8d 14 56          	lea    (%rsi,%rdx,2),%rdx
    3926:	45 89 d9             	mov    %r11d,%r9d
    3929:	41 89 db             	mov    %ebx,%r11d
    392c:	48 89 f3             	mov    %rsi,%rbx
    392f:	0f b7 32             	movzwl (%rdx),%esi
    3932:	48 8d 04 43          	lea    (%rbx,%rax,2),%rax
    3936:	66 89 73 04          	mov    %si,0x4(%rbx)
    393a:	48 89 de             	mov    %rbx,%rsi
    393d:	66 89 0a             	mov    %cx,(%rdx)
    3940:	0f b7 53 06          	movzwl 0x6(%rbx),%edx
    3944:	0f b7 08             	movzwl (%rax),%ecx
    3947:	66 89 4b 06          	mov    %cx,0x6(%rbx)
    394b:	44 89 cb             	mov    %r9d,%ebx
    394e:	b9 04 00 00 00       	mov    $0x4,%ecx
    3953:	66 89 10             	mov    %dx,(%rax)
    3956:	44 89 d8             	mov    %r11d,%eax
    3959:	41 c1 eb 02          	shr    $0x2,%r11d
    395d:	ba 04 00 00 00       	mov    $0x4,%edx
    3962:	44 31 db             	xor    %r11d,%ebx
    3965:	45 89 da             	mov    %r11d,%r10d
    3968:	41 89 c3             	mov    %eax,%r11d
    396b:	44 89 c8             	mov    %r9d,%eax
    396e:	41 c1 eb 03          	shr    $0x3,%r11d
    3972:	44 89 dd             	mov    %r11d,%ebp
    3975:	31 dd                	xor    %ebx,%ebp
    3977:	89 6c 24 c8          	mov    %ebp,-0x38(%rsp)
    397b:	0f 1f 44 00 00       	nopl   0x0(%rax,%rax,1)
    3980:	31 d8                	xor    %ebx,%eax
    3982:	41 85 c2             	test   %eax,%r10d
    3985:	75 14                	jne    399b <riscv_dsp_cfft_rd2_q15+0x6cb>
    3987:	45 89 d0             	mov    %r10d,%r8d
    398a:	66 0f 1f 44 00 00    	nopw   0x0(%rax,%rax,1)
    3990:	41 d1 e8             	shr    %r8d
    3993:	44 31 c0             	xor    %r8d,%eax
    3996:	41 85 c0             	test   %eax,%r8d
    3999:	74 f5                	je     3990 <riscv_dsp_cfft_rd2_q15+0x6c0>
    399b:	44 8d 41 fe          	lea    -0x2(%rcx),%r8d
    399f:	44 39 c0             	cmp    %r8d,%eax
    39a2:	0f 86 97 00 00 00    	jbe    3a3f <riscv_dsp_cfft_rd2_q15+0x76f>
    39a8:	41 89 d0             	mov    %edx,%r8d
    39ab:	8d 2c 00             	lea    (%rax,%rax,1),%ebp
    39ae:	4e 8d 24 46          	lea    (%rsi,%r8,2),%r12
    39b2:	49 89 e8             	mov    %rbp,%r8
    39b5:	48 8d 2c 6e          	lea    (%rsi,%rbp,2),%rbp
    39b9:	45 0f b7 2c 24       	movzwl (%r12),%r13d
    39be:	44 0f b7 75 00       	movzwl 0x0(%rbp),%r14d
    39c3:	41 83 c0 01          	add    $0x1,%r8d
    39c7:	4e 8d 04 46          	lea    (%rsi,%r8,2),%r8
    39cb:	66 45 89 34 24       	mov    %r14w,(%r12)
    39d0:	66 44 89 6d 00       	mov    %r13w,0x0(%rbp)
    39d5:	8d 6a 01             	lea    0x1(%rdx),%ebp
    39d8:	45 0f b7 28          	movzwl (%r8),%r13d
    39dc:	48 8d 2c 6e          	lea    (%rsi,%rbp,2),%rbp
    39e0:	44 0f b7 65 00       	movzwl 0x0(%rbp),%r12d
    39e5:	66 44 89 6d 00       	mov    %r13w,0x0(%rbp)
    39ea:	89 d5                	mov    %edx,%ebp
    39ec:	f7 dd                	neg    %ebp
    39ee:	66 45 89 20          	mov    %r12w,(%r8)
    39f2:	41 89 c0             	mov    %eax,%r8d
    39f5:	48 63 ed             	movslq %ebp,%rbp
    39f8:	41 f7 d8             	neg    %r8d
    39fb:	48 01 ed             	add    %rbp,%rbp
    39fe:	45 01 c0             	add    %r8d,%r8d
    3a01:	4c 8d 2c 2f          	lea    (%rdi,%rbp,1),%r13
    3a05:	48 8d 6c 2f fe       	lea    -0x2(%rdi,%rbp,1),%rbp
    3a0a:	4d 63 c0             	movslq %r8d,%r8
    3a0d:	45 0f b7 75 00       	movzwl 0x0(%r13),%r14d
    3a12:	4d 01 c0             	add    %r8,%r8
    3a15:	4e 8d 24 07          	lea    (%rdi,%r8,1),%r12
    3a19:	4e 8d 44 07 fe       	lea    -0x2(%rdi,%r8,1),%r8
    3a1e:	45 0f b7 3c 24       	movzwl (%r12),%r15d
    3a23:	66 45 89 7d 00       	mov    %r15w,0x0(%r13)
    3a28:	66 45 89 34 24       	mov    %r14w,(%r12)
    3a2d:	44 0f b7 65 00       	movzwl 0x0(%rbp),%r12d
    3a32:	45 0f b7 28          	movzwl (%r8),%r13d
    3a36:	66 44 89 6d 00       	mov    %r13w,0x0(%rbp)
    3a3b:	66 45 89 20          	mov    %r12w,(%r8)
    3a3f:	44 01 c8             	add    %r9d,%eax
    3a42:	44 8d 42 02          	lea    0x2(%rdx),%r8d
    3a46:	8d 2c 00             	lea    (%rax,%rax,1),%ebp
    3a49:	4e 8d 24 46          	lea    (%rsi,%r8,2),%r12
    3a4d:	49 89 e8             	mov    %rbp,%r8
    3a50:	48 8d 2c 6e          	lea    (%rsi,%rbp,2),%rbp
    3a54:	45 0f b7 2c 24       	movzwl (%r12),%r13d
    3a59:	44 0f b7 75 00       	movzwl 0x0(%rbp),%r14d
    3a5e:	41 83 c0 01          	add    $0x1,%r8d
    3a62:	4e 8d 04 46          	lea    (%rsi,%r8,2),%r8
    3a66:	66 45 89 34 24       	mov    %r14w,(%r12)
    3a6b:	66 44 89 6d 00       	mov    %r13w,0x0(%rbp)
    3a70:	8d 6a 03             	lea    0x3(%rdx),%ebp
    3a73:	45 0f b7 28          	movzwl (%r8),%r13d
    3a77:	48 8d 2c 6e          	lea    (%rsi,%rbp,2),%rbp
    3a7b:	44 0f b7 65 00       	movzwl 0x0(%rbp),%r12d
    3a80:	66 44 89 6d 00       	mov    %r13w,0x0(%rbp)
    3a85:	66 45 89 20          	mov    %r12w,(%r8)
    3a89:	41 39 c9             	cmp    %ecx,%r9d
    3a8c:	0f 86 c4 01 00 00    	jbe    3c56 <riscv_dsp_cfft_rd2_q15+0x986>
    3a92:	33 44 24 c8          	xor    -0x38(%rsp),%eax
    3a96:	41 85 c3             	test   %eax,%r11d
    3a99:	75 10                	jne    3aab <riscv_dsp_cfft_rd2_q15+0x7db>
    3a9b:	45 89 d8             	mov    %r11d,%r8d
    3a9e:	66 90                	xchg   %ax,%ax
    3aa0:	41 d1 e8             	shr    %r8d
    3aa3:	44 31 c0             	xor    %r8d,%eax
    3aa6:	41 85 c0             	test   %eax,%r8d
    3aa9:	74 f5                	je     3aa0 <riscv_dsp_cfft_rd2_q15+0x7d0>
    3aab:	39 c8                	cmp    %ecx,%eax
    3aad:	0f 86 9b 00 00 00    	jbe    3b4e <riscv_dsp_cfft_rd2_q15+0x87e>
    3ab3:	44 8d 42 04          	lea    0x4(%rdx),%r8d
    3ab7:	8d 2c 00             	lea    (%rax,%rax,1),%ebp
    3aba:	4e 8d 24 46          	lea    (%rsi,%r8,2),%r12
    3abe:	49 89 e8             	mov    %rbp,%r8
    3ac1:	48 8d 2c 6e          	lea    (%rsi,%rbp,2),%rbp
    3ac5:	45 0f b7 2c 24       	movzwl (%r12),%r13d
    3aca:	44 0f b7 75 00       	movzwl 0x0(%rbp),%r14d
    3acf:	41 83 c0 01          	add    $0x1,%r8d
    3ad3:	4e 8d 04 46          	lea    (%rsi,%r8,2),%r8
    3ad7:	66 45 89 34 24       	mov    %r14w,(%r12)
    3adc:	66 44 89 6d 00       	mov    %r13w,0x0(%rbp)
    3ae1:	8d 6a 05             	lea    0x5(%rdx),%ebp
    3ae4:	45 0f b7 28          	movzwl (%r8),%r13d
    3ae8:	48 8d 2c 6e          	lea    (%rsi,%rbp,2),%rbp
    3aec:	44 0f b7 65 00       	movzwl 0x0(%rbp),%r12d
    3af1:	66 44 89 6d 00       	mov    %r13w,0x0(%rbp)
    3af6:	bd fc ff ff ff       	mov    $0xfffffffc,%ebp
    3afb:	29 d5                	sub    %edx,%ebp
    3afd:	66 45 89 20          	mov    %r12w,(%r8)
    3b01:	41 89 c0             	mov    %eax,%r8d
    3b04:	48 63 ed             	movslq %ebp,%rbp
    3b07:	41 f7 d8             	neg    %r8d
    3b0a:	48 01 ed             	add    %rbp,%rbp
    3b0d:	45 01 c0             	add    %r8d,%r8d
    3b10:	4c 8d 2c 2f          	lea    (%rdi,%rbp,1),%r13
    3b14:	48 8d 6c 2f fe       	lea    -0x2(%rdi,%rbp,1),%rbp
    3b19:	4d 63 c0             	movslq %r8d,%r8
    3b1c:	45 0f b7 75 00       	movzwl 0x0(%r13),%r14d
    3b21:	4d 01 c0             	add    %r8,%r8
    3b24:	4e 8d 24 07          	lea    (%rdi,%r8,1),%r12
    3b28:	4e 8d 44 07 fe       	lea    -0x2(%rdi,%r8,1),%r8
    3b2d:	45 0f b7 3c 24       	movzwl (%r12),%r15d
    3b32:	66 45 89 7d 00       	mov    %r15w,0x0(%r13)
    3b37:	66 45 89 34 24       	mov    %r14w,(%r12)
    3b3c:	44 0f b7 65 00       	movzwl 0x0(%rbp),%r12d
    3b41:	45 0f b7 28          	movzwl (%r8),%r13d
    3b45:	66 44 89 6d 00       	mov    %r13w,0x0(%rbp)
    3b4a:	66 45 89 20          	mov    %r12w,(%r8)
    3b4e:	44 01 c8             	add    %r9d,%eax
    3b51:	44 8d 42 06          	lea    0x6(%rdx),%r8d
    3b55:	83 c1 04             	add    $0x4,%ecx
    3b58:	8d 2c 00             	lea    (%rax,%rax,1),%ebp
    3b5b:	4e 8d 24 46          	lea    (%rsi,%r8,2),%r12
    3b5f:	49 89 e8             	mov    %rbp,%r8
    3b62:	48 8d 2c 6e          	lea    (%rsi,%rbp,2),%rbp
    3b66:	45 0f b7 2c 24       	movzwl (%r12),%r13d
    3b6b:	44 0f b7 75 00       	movzwl 0x0(%rbp),%r14d
    3b70:	41 83 c0 01          	add    $0x1,%r8d
    3b74:	4e 8d 04 46          	lea    (%rsi,%r8,2),%r8
    3b78:	66 45 89 34 24       	mov    %r14w,(%r12)
    3b7d:	66 44 89 6d 00       	mov    %r13w,0x0(%rbp)
    3b82:	8d 6a 07             	lea    0x7(%rdx),%ebp
    3b85:	45 0f b7 28          	movzwl (%r8),%r13d
    3b89:	83 c2 08             	add    $0x8,%edx
    3b8c:	48 8d 2c 6e          	lea    (%rsi,%rbp,2),%rbp
    3b90:	44 0f b7 65 00       	movzwl 0x0(%rbp),%r12d
    3b95:	66 44 89 6d 00       	mov    %r13w,0x0(%rbp)
    3b9a:	66 45 89 20          	mov    %r12w,(%r8)
    3b9e:	e9 dd fd ff ff       	jmp    3980 <riscv_dsp_cfft_rd2_q15+0x6b0>
    3ba3:	0f 1f 44 00 00       	nopl   0x0(%rax,%rax,1)
    3ba8:	8d 90 00 ff ff ff    	lea    -0x100(%rax),%edx
    3bae:	44 89 e9             	mov    %r13d,%ecx
    3bb1:	29 d1                	sub    %edx,%ecx
    3bb3:	85 c9                	test   %ecx,%ecx
    3bb5:	7e 19                	jle    3bd0 <riscv_dsp_cfft_rd2_q15+0x900>
    3bb7:	48 63 c9             	movslq %ecx,%rcx
    3bba:	48 63 d2             	movslq %edx,%rdx
    3bbd:	45 0f b7 0c 4c       	movzwl (%r12,%rcx,2),%r9d
    3bc2:	45 0f b7 34 54       	movzwl (%r12,%rdx,2),%r14d
    3bc7:	41 f7 d9             	neg    %r9d
    3bca:	e9 c8 fb ff ff       	jmp    3797 <riscv_dsp_cfft_rd2_q15+0x4c7>
    3bcf:	90                   	nop
    3bd0:	2d 00 02 00 00       	sub    $0x200,%eax
    3bd5:	44 89 ea             	mov    %r13d,%edx
    3bd8:	29 c2                	sub    %eax,%edx
    3bda:	48 98                	cltq   
    3bdc:	45 0f b7 34 44       	movzwl (%r12,%rax,2),%r14d
    3be1:	48 63 ca             	movslq %edx,%rcx
    3be4:	45 0f b7 0c 4c       	movzwl (%r12,%rcx,2),%r9d
    3be9:	41 f7 de             	neg    %r14d
    3bec:	85 d2                	test   %edx,%edx
    3bee:	0f 8e a3 fb ff ff    	jle    3797 <riscv_dsp_cfft_rd2_q15+0x4c7>
    3bf4:	44 89 c8             	mov    %r9d,%eax
    3bf7:	45 89 f1             	mov    %r14d,%r9d
    3bfa:	f7 d8                	neg    %eax
    3bfc:	41 89 c6             	mov    %eax,%r14d
    3bff:	e9 93 fb ff ff       	jmp    3797 <riscv_dsp_cfft_rd2_q15+0x4c7>
    3c04:	48 8b 54 24 d8       	mov    -0x28(%rsp),%rdx
    3c09:	41 89 db             	mov    %ebx,%r11d
    3c0c:	0f 1f 40 00          	nopl   0x0(%rax)
    3c10:	0f bf 32             	movswl (%rdx),%esi
    3c13:	0f bf 2c 3a          	movswl (%rdx,%rdi,1),%ebp
    3c17:	44 0f bf 44 3a 02    	movswl 0x2(%rdx,%rdi,1),%r8d
    3c1d:	8d 4c 35 00          	lea    0x0(%rbp,%rsi,1),%ecx
    3c21:	29 ee                	sub    %ebp,%esi
    3c23:	d1 f9                	sar    %ecx
    3c25:	d1 fe                	sar    %esi
    3c27:	66 89 0a             	mov    %cx,(%rdx)
    3c2a:	0f bf 4a 02          	movswl 0x2(%rdx),%ecx
    3c2e:	45 8d 0c 08          	lea    (%r8,%rcx,1),%r9d
    3c32:	44 29 c1             	sub    %r8d,%ecx
    3c35:	41 d1 f9             	sar    %r9d
    3c38:	d1 f9                	sar    %ecx
    3c3a:	66 44 89 4a 02       	mov    %r9w,0x2(%rdx)
    3c3f:	66 89 34 3a          	mov    %si,(%rdx,%rdi,1)
    3c43:	66 89 4c 3a 02       	mov    %cx,0x2(%rdx,%rdi,1)
    3c48:	48 01 c2             	add    %rax,%rdx
    3c4b:	41 83 eb 01          	sub    $0x1,%r11d
    3c4f:	75 bf                	jne    3c10 <riscv_dsp_cfft_rd2_q15+0x940>
    3c51:	e9 f9 fa ff ff       	jmp    374f <riscv_dsp_cfft_rd2_q15+0x47f>
    3c56:	5b                   	pop    %rbx
    3c57:	31 c0                	xor    %eax,%eax
    3c59:	5d                   	pop    %rbp
    3c5a:	41 5c                	pop    %r12
    3c5c:	41 5d                	pop    %r13
    3c5e:	41 5e                	pop    %r14
    3c60:	41 5f                	pop    %r15
    3c62:	c3                   	ret    
    3c63:	66 2e 0f 1f 84 00 00 	cs nopw 0x0(%rax,%rax,1)
    3c6a:	00 00 00 
    3c6d:	0f 1f 00             	nopl   (%rax)

0000000000003c70 <riscv_dsp_cifft_rd2_q15>:
    3c70:	f3 0f 1e fa          	endbr64 
    3c74:	89 f1                	mov    %esi,%ecx
    3c76:	b8 01 00 00 00       	mov    $0x1,%eax
    3c7b:	41 57                	push   %r15
    3c7d:	d3 e0                	shl    %cl,%eax
    3c7f:	41 56                	push   %r14
    3c81:	41 89 c1             	mov    %eax,%r9d
    3c84:	41 55                	push   %r13
    3c86:	41 54                	push   %r12
    3c88:	4d 01 c9             	add    %r9,%r9
    3c8b:	55                   	push   %rbp
    3c8c:	4e 8d 2c 0f          	lea    (%rdi,%r9,1),%r13
    3c90:	53                   	push   %rbx
    3c91:	48 89 fb             	mov    %rdi,%rbx
    3c94:	0f b7 17             	movzwl (%rdi),%edx
    3c97:	48 89 7c 24 d8       	mov    %rdi,-0x28(%rsp)
    3c9c:	89 74 24 f0          	mov    %esi,-0x10(%rsp)
    3ca0:	0f b7 77 02          	movzwl 0x2(%rdi),%esi
    3ca4:	41 0f b7 7d 00       	movzwl 0x0(%r13),%edi
    3ca9:	89 44 24 f4          	mov    %eax,-0xc(%rsp)
    3cad:	41 0f b7 45 02       	movzwl 0x2(%r13),%eax
    3cb2:	8d 0c 3a             	lea    (%rdx,%rdi,1),%ecx
    3cb5:	29 fa                	sub    %edi,%edx
    3cb7:	66 89 0b             	mov    %cx,(%rbx)
    3cba:	8d 0c 30             	lea    (%rax,%rsi,1),%ecx
    3cbd:	29 f0                	sub    %esi,%eax
    3cbf:	f7 d9                	neg    %ecx
    3cc1:	66 89 4b 02          	mov    %cx,0x2(%rbx)
    3cc5:	66 41 89 45 02       	mov    %ax,0x2(%r13)
    3cca:	48 8d 43 04          	lea    0x4(%rbx),%rax
    3cce:	66 41 89 55 00       	mov    %dx,0x0(%r13)
    3cd3:	48 89 44 24 e0       	mov    %rax,-0x20(%rsp)
    3cd8:	49 39 c5             	cmp    %rax,%r13
    3cdb:	0f 84 11 01 00 00    	je     3df2 <riscv_dsp_cifft_rd2_q15+0x182>
    3ce1:	48 89 c2             	mov    %rax,%rdx
    3ce4:	b8 0a 00 00 00       	mov    $0xa,%eax
    3ce9:	2b 44 24 f0          	sub    -0x10(%rsp),%eax
    3ced:	45 31 d2             	xor    %r10d,%r10d
    3cf0:	48 8d 2d 6d 5c 00 00 	lea    0x5c6d(%rip),%rbp        # 9964 <riscv_dsp_cos_table_q15_1024+0x4>
    3cf7:	41 bc 00 01 00 00    	mov    $0x100,%r12d
    3cfd:	89 c1                	mov    %eax,%ecx
    3cff:	eb 7e                	jmp    3d7f <riscv_dsp_cifft_rd2_q15+0x10f>
    3d01:	48 98                	cltq   
    3d03:	48 63 ff             	movslq %edi,%rdi
    3d06:	0f b7 74 45 00       	movzwl 0x0(%rbp,%rax,2),%esi
    3d0b:	44 0f b7 5c 7d 00    	movzwl 0x0(%rbp,%rdi,2),%r11d
    3d11:	0f bf 3a             	movswl (%rdx),%edi
    3d14:	46 0f bf 3c 0a       	movswl (%rdx,%r9,1),%r15d
    3d19:	45 0f bf db          	movswl %r11w,%r11d
    3d1d:	48 83 c2 04          	add    $0x4,%rdx
    3d21:	0f b7 5a fe          	movzwl -0x2(%rdx),%ebx
    3d25:	42 0f b7 44 0a fe    	movzwl -0x2(%rdx,%r9,1),%eax
    3d2b:	41 89 f8             	mov    %edi,%r8d
    3d2e:	44 29 ff             	sub    %r15d,%edi
    3d31:	45 01 f8             	add    %r15d,%r8d
    3d34:	44 0f bf f3          	movswl %bx,%r14d
    3d38:	66 44 89 42 fc       	mov    %r8w,-0x4(%rdx)
    3d3d:	44 0f bf c0          	movswl %ax,%r8d
    3d41:	01 d8                	add    %ebx,%eax
    3d43:	44 89 db             	mov    %r11d,%ebx
    3d46:	f7 d8                	neg    %eax
    3d48:	44 0f af df          	imul   %edi,%r11d
    3d4c:	45 29 f0             	sub    %r14d,%r8d
    3d4f:	66 89 42 fe          	mov    %ax,-0x2(%rdx)
    3d53:	0f bf c6             	movswl %si,%eax
    3d56:	41 0f af d8          	imul   %r8d,%ebx
    3d5a:	89 c6                	mov    %eax,%esi
    3d5c:	41 0f af c0          	imul   %r8d,%eax
    3d60:	0f af f7             	imul   %edi,%esi
    3d63:	44 29 d8             	sub    %r11d,%eax
    3d66:	01 de                	add    %ebx,%esi
    3d68:	c1 f8 0f             	sar    $0xf,%eax
    3d6b:	c1 fe 0f             	sar    $0xf,%esi
    3d6e:	66 42 89 44 0a fe    	mov    %ax,-0x2(%rdx,%r9,1)
    3d74:	66 42 89 74 0a fc    	mov    %si,-0x4(%rdx,%r9,1)
    3d7a:	49 39 d5             	cmp    %rdx,%r13
    3d7d:	74 73                	je     3df2 <riscv_dsp_cifft_rd2_q15+0x182>
    3d7f:	41 83 c2 01          	add    $0x1,%r10d
    3d83:	44 89 e7             	mov    %r12d,%edi
    3d86:	44 89 d0             	mov    %r10d,%eax
    3d89:	d3 e0                	shl    %cl,%eax
    3d8b:	29 c7                	sub    %eax,%edi
    3d8d:	85 ff                	test   %edi,%edi
    3d8f:	0f 8f 6c ff ff ff    	jg     3d01 <riscv_dsp_cifft_rd2_q15+0x91>
    3d95:	8d b8 00 ff ff ff    	lea    -0x100(%rax),%edi
    3d9b:	44 89 e6             	mov    %r12d,%esi
    3d9e:	29 fe                	sub    %edi,%esi
    3da0:	85 f6                	test   %esi,%esi
    3da2:	7e 1a                	jle    3dbe <riscv_dsp_cifft_rd2_q15+0x14e>
    3da4:	48 63 f6             	movslq %esi,%rsi
    3da7:	48 63 ff             	movslq %edi,%rdi
    3daa:	0f b7 44 75 00       	movzwl 0x0(%rbp,%rsi,2),%eax
    3daf:	44 0f b7 5c 7d 00    	movzwl 0x0(%rbp,%rdi,2),%r11d
    3db5:	f7 d8                	neg    %eax
    3db7:	89 c6                	mov    %eax,%esi
    3db9:	e9 53 ff ff ff       	jmp    3d11 <riscv_dsp_cifft_rd2_q15+0xa1>
    3dbe:	2d 00 02 00 00       	sub    $0x200,%eax
    3dc3:	44 89 e7             	mov    %r12d,%edi
    3dc6:	29 c7                	sub    %eax,%edi
    3dc8:	48 98                	cltq   
    3dca:	44 0f b7 5c 45 00    	movzwl 0x0(%rbp,%rax,2),%r11d
    3dd0:	48 63 f7             	movslq %edi,%rsi
    3dd3:	0f b7 74 75 00       	movzwl 0x0(%rbp,%rsi,2),%esi
    3dd8:	41 f7 db             	neg    %r11d
    3ddb:	85 ff                	test   %edi,%edi
    3ddd:	0f 8e 2e ff ff ff    	jle    3d11 <riscv_dsp_cifft_rd2_q15+0xa1>
    3de3:	89 f0                	mov    %esi,%eax
    3de5:	44 89 de             	mov    %r11d,%esi
    3de8:	f7 d8                	neg    %eax
    3dea:	41 89 c3             	mov    %eax,%r11d
    3ded:	e9 1f ff ff ff       	jmp    3d11 <riscv_dsp_cifft_rd2_q15+0xa1>
    3df2:	8b 44 24 f4          	mov    -0xc(%rsp),%eax
    3df6:	8b 5c 24 f0          	mov    -0x10(%rsp),%ebx
    3dfa:	41 be 02 00 00 00    	mov    $0x2,%r14d
    3e00:	89 44 24 c8          	mov    %eax,-0x38(%rsp)
    3e04:	89 d8                	mov    %ebx,%eax
    3e06:	83 e8 02             	sub    $0x2,%eax
    3e09:	89 44 24 ec          	mov    %eax,-0x14(%rsp)
    3e0d:	0f 84 e9 02 00 00    	je     40fc <riscv_dsp_cifft_rd2_q15+0x48c>
    3e13:	b8 0a 00 00 00       	mov    $0xa,%eax
    3e18:	29 d8                	sub    %ebx,%eax
    3e1a:	89 44 24 b8          	mov    %eax,-0x48(%rsp)
    3e1e:	66 90                	xchg   %ax,%ax
    3e20:	d1 6c 24 c8          	shrl   -0x38(%rsp)
    3e24:	8b 6c 24 c8          	mov    -0x38(%rsp),%ebp
    3e28:	48 8b 44 24 d8       	mov    -0x28(%rsp),%rax
    3e2d:	48 8d 7c 2d 00       	lea    0x0(%rbp,%rbp,1),%rdi
    3e32:	48 01 f8             	add    %rdi,%rax
    3e35:	48 89 44 24 a8       	mov    %rax,-0x58(%rsp)
    3e3a:	45 85 f6             	test   %r14d,%r14d
    3e3d:	0f 84 d5 01 00 00    	je     4018 <riscv_dsp_cifft_rd2_q15+0x3a8>
    3e43:	48 8d 04 ad 00 00 00 	lea    0x0(,%rbp,4),%rax
    3e4a:	00 
    3e4b:	48 8d 34 2f          	lea    (%rdi,%rbp,1),%rsi
    3e4f:	48 c1 e6 02          	shl    $0x2,%rsi
    3e53:	48 83 f8 03          	cmp    $0x3,%rax
    3e57:	0f 97 c1             	seta   %cl
    3e5a:	48 85 ff             	test   %rdi,%rdi
    3e5d:	0f 95 c2             	setne  %dl
    3e60:	84 d1                	test   %dl,%cl
    3e62:	0f 84 82 11 00 00    	je     4fea <riscv_dsp_cifft_rd2_q15+0x137a>
    3e68:	48 8d 56 02          	lea    0x2(%rsi),%rdx
    3e6c:	48 39 d7             	cmp    %rdx,%rdi
    3e6f:	0f 8e 75 11 00 00    	jle    4fea <riscv_dsp_cifft_rd2_q15+0x137a>
    3e75:	41 8d 56 ff          	lea    -0x1(%r14),%edx
    3e79:	83 fa 02             	cmp    $0x2,%edx
    3e7c:	0f 86 c3 11 00 00    	jbe    5045 <riscv_dsp_cifft_rd2_q15+0x13d5>
    3e82:	45 89 f2             	mov    %r14d,%r10d
    3e85:	49 89 e9             	mov    %rbp,%r9
    3e88:	48 8b 4c 24 d8       	mov    -0x28(%rsp),%rcx
    3e8d:	48 8b 54 24 a8       	mov    -0x58(%rsp),%rdx
    3e92:	41 c1 ea 02          	shr    $0x2,%r10d
    3e96:	49 c1 e1 04          	shl    $0x4,%r9
    3e9a:	45 31 c0             	xor    %r8d,%r8d
    3e9d:	0f 1f 00             	nopl   (%rax)
    3ea0:	66 0f 6e 3c 31       	movd   (%rcx,%rsi,1),%xmm7
    3ea5:	66 0f 6e 0c 41       	movd   (%rcx,%rax,2),%xmm1
    3eaa:	41 83 c0 01          	add    $0x1,%r8d
    3eae:	66 0f 6e 01          	movd   (%rcx),%xmm0
    3eb2:	66 0f 6e 1c 01       	movd   (%rcx,%rax,1),%xmm3
    3eb7:	66 0f 62 cf          	punpckldq %xmm7,%xmm1
    3ebb:	66 0f 6e 24 32       	movd   (%rdx,%rsi,1),%xmm4
    3ec0:	66 0f 6e 12          	movd   (%rdx),%xmm2
    3ec4:	66 0f 62 c3          	punpckldq %xmm3,%xmm0
    3ec8:	66 0f 6e 3c 02       	movd   (%rdx,%rax,1),%xmm7
    3ecd:	66 0f 6c c1          	punpcklqdq %xmm1,%xmm0
    3ed1:	66 0f 6e 0c 42       	movd   (%rdx,%rax,2),%xmm1
    3ed6:	66 0f 62 d7          	punpckldq %xmm7,%xmm2
    3eda:	66 0f 62 cc          	punpckldq %xmm4,%xmm1
    3ede:	66 0f 6c d1          	punpcklqdq %xmm1,%xmm2
    3ee2:	66 0f 6f c8          	movdqa %xmm0,%xmm1
    3ee6:	66 0f fd ca          	paddw  %xmm2,%xmm1
    3eea:	66 0f f9 c2          	psubw  %xmm2,%xmm0
    3eee:	66 0f 70 d1 55       	pshufd $0x55,%xmm1,%xmm2
    3ef3:	66 0f 7e 09          	movd   %xmm1,(%rcx)
    3ef7:	66 0f 7e 14 01       	movd   %xmm2,(%rcx,%rax,1)
    3efc:	66 0f 6f d1          	movdqa %xmm1,%xmm2
    3f00:	66 0f 6a d1          	punpckhdq %xmm1,%xmm2
    3f04:	66 0f 70 c9 ff       	pshufd $0xff,%xmm1,%xmm1
    3f09:	66 0f 7e 14 41       	movd   %xmm2,(%rcx,%rax,2)
    3f0e:	66 0f 7e 0c 31       	movd   %xmm1,(%rcx,%rsi,1)
    3f13:	66 0f 70 c8 55       	pshufd $0x55,%xmm0,%xmm1
    3f18:	4c 01 c9             	add    %r9,%rcx
    3f1b:	66 0f 7e 02          	movd   %xmm0,(%rdx)
    3f1f:	66 0f 7e 0c 02       	movd   %xmm1,(%rdx,%rax,1)
    3f24:	66 0f 6f c8          	movdqa %xmm0,%xmm1
    3f28:	66 0f 6a c8          	punpckhdq %xmm0,%xmm1
    3f2c:	66 0f 70 c0 ff       	pshufd $0xff,%xmm0,%xmm0
    3f31:	66 0f 7e 0c 42       	movd   %xmm1,(%rdx,%rax,2)
    3f36:	66 0f 7e 04 32       	movd   %xmm0,(%rdx,%rsi,1)
    3f3b:	4c 01 ca             	add    %r9,%rdx
    3f3e:	45 39 d0             	cmp    %r10d,%r8d
    3f41:	0f 85 59 ff ff ff    	jne    3ea0 <riscv_dsp_cifft_rd2_q15+0x230>
    3f47:	44 89 f6             	mov    %r14d,%esi
    3f4a:	48 8b 5c 24 d8       	mov    -0x28(%rsp),%rbx
    3f4f:	83 e6 fc             	and    $0xfffffffc,%esi
    3f52:	89 f1                	mov    %esi,%ecx
    3f54:	48 89 ca             	mov    %rcx,%rdx
    3f57:	48 0f af d7          	imul   %rdi,%rdx
    3f5b:	48 8d 14 53          	lea    (%rbx,%rdx,2),%rdx
    3f5f:	41 39 f6             	cmp    %esi,%r14d
    3f62:	0f 84 b0 00 00 00    	je     4018 <riscv_dsp_cifft_rd2_q15+0x3a8>
    3f68:	45 89 f0             	mov    %r14d,%r8d
    3f6b:	41 29 f0             	sub    %esi,%r8d
    3f6e:	41 83 f8 01          	cmp    $0x1,%r8d
    3f72:	74 72                	je     3fe6 <riscv_dsp_cifft_rd2_q15+0x376>
    3f74:	48 0f af cf          	imul   %rdi,%rcx
    3f78:	48 8b 5c 24 d8       	mov    -0x28(%rsp),%rbx
    3f7d:	48 8d 34 4b          	lea    (%rbx,%rcx,2),%rsi
    3f81:	48 01 e9             	add    %rbp,%rcx
    3f84:	48 8d 0c 4b          	lea    (%rbx,%rcx,2),%rcx
    3f88:	4c 8d 14 06          	lea    (%rsi,%rax,1),%r10
    3f8c:	66 0f 6e 06          	movd   (%rsi),%xmm0
    3f90:	66 41 0f 6e 1a       	movd   (%r10),%xmm3
    3f95:	4c 8d 0c 01          	lea    (%rcx,%rax,1),%r9
    3f99:	66 0f 6e 09          	movd   (%rcx),%xmm1
    3f9d:	66 41 0f 6e 21       	movd   (%r9),%xmm4
    3fa2:	66 0f 62 c3          	punpckldq %xmm3,%xmm0
    3fa6:	66 0f 62 cc          	punpckldq %xmm4,%xmm1
    3faa:	66 0f 6f d0          	movdqa %xmm0,%xmm2
    3fae:	66 0f fd d1          	paddw  %xmm1,%xmm2
    3fb2:	66 0f f9 c1          	psubw  %xmm1,%xmm0
    3fb6:	66 0f 7e 16          	movd   %xmm2,(%rsi)
    3fba:	44 89 c6             	mov    %r8d,%esi
    3fbd:	66 0f 70 da e5       	pshufd $0xe5,%xmm2,%xmm3
    3fc2:	66 0f 70 e0 e5       	pshufd $0xe5,%xmm0,%xmm4
    3fc7:	83 e6 fe             	and    $0xfffffffe,%esi
    3fca:	66 41 0f 7e 1a       	movd   %xmm3,(%r10)
    3fcf:	66 0f 7e 01          	movd   %xmm0,(%rcx)
    3fd3:	89 f1                	mov    %esi,%ecx
    3fd5:	48 0f af c1          	imul   %rcx,%rax
    3fd9:	66 41 0f 7e 21       	movd   %xmm4,(%r9)
    3fde:	48 01 c2             	add    %rax,%rdx
    3fe1:	44 39 c6             	cmp    %r8d,%esi
    3fe4:	74 32                	je     4018 <riscv_dsp_cifft_rd2_q15+0x3a8>
    3fe6:	48 8d 04 3a          	lea    (%rdx,%rdi,1),%rax
    3fea:	0f b7 32             	movzwl (%rdx),%esi
    3fed:	0f b7 4a 02          	movzwl 0x2(%rdx),%ecx
    3ff1:	44 0f b7 08          	movzwl (%rax),%r9d
    3ff5:	44 0f b7 40 02       	movzwl 0x2(%rax),%r8d
    3ffa:	45 8d 14 31          	lea    (%r9,%rsi,1),%r10d
    3ffe:	44 29 ce             	sub    %r9d,%esi
    4001:	66 44 89 12          	mov    %r10w,(%rdx)
    4005:	45 8d 14 08          	lea    (%r8,%rcx,1),%r10d
    4009:	44 29 c1             	sub    %r8d,%ecx
    400c:	66 44 89 52 02       	mov    %r10w,0x2(%rdx)
    4011:	66 89 30             	mov    %si,(%rax)
    4014:	66 89 48 02          	mov    %cx,0x2(%rax)
    4018:	48 8b 44 24 e0       	mov    -0x20(%rsp),%rax
    401d:	48 8b 5c 24 a8       	mov    -0x58(%rsp),%rbx
    4022:	48 c1 e5 02          	shl    $0x2,%rbp
    4026:	45 31 ed             	xor    %r13d,%r13d
    4029:	49 89 c4             	mov    %rax,%r12
    402c:	48 39 d8             	cmp    %rbx,%rax
    402f:	0f 84 b9 00 00 00    	je     40ee <riscv_dsp_cifft_rd2_q15+0x47e>
    4035:	0f 1f 00             	nopl   (%rax)
    4038:	0f b6 4c 24 b8       	movzbl -0x48(%rsp),%ecx
    403d:	45 01 f5             	add    %r14d,%r13d
    4040:	ba 00 01 00 00       	mov    $0x100,%edx
    4045:	44 89 e8             	mov    %r13d,%eax
    4048:	d3 e0                	shl    %cl,%eax
    404a:	29 c2                	sub    %eax,%edx
    404c:	85 d2                	test   %edx,%edx
    404e:	0f 8e 24 0f 00 00    	jle    4f78 <riscv_dsp_cifft_rd2_q15+0x1308>
    4054:	48 8d 1d 09 59 00 00 	lea    0x5909(%rip),%rbx        # 9964 <riscv_dsp_cos_table_q15_1024+0x4>
    405b:	48 98                	cltq   
    405d:	48 63 d2             	movslq %edx,%rdx
    4060:	44 0f b7 1c 43       	movzwl (%rbx,%rax,2),%r11d
    4065:	0f b7 1c 53          	movzwl (%rbx,%rdx,2),%ebx
    4069:	45 85 f6             	test   %r14d,%r14d
    406c:	74 71                	je     40df <riscv_dsp_cifft_rd2_q15+0x46f>
    406e:	45 0f bf db          	movswl %r11w,%r11d
    4072:	0f bf db             	movswl %bx,%ebx
    4075:	4c 89 e0             	mov    %r12,%rax
    4078:	45 89 f0             	mov    %r14d,%r8d
    407b:	0f 1f 44 00 00       	nopl   0x0(%rax,%rax,1)
    4080:	0f bf 08             	movswl (%rax),%ecx
    4083:	44 0f bf 3c 38       	movswl (%rax,%rdi,1),%r15d
    4088:	44 0f b7 4c 38 02    	movzwl 0x2(%rax,%rdi,1),%r9d
    408e:	0f b7 70 02          	movzwl 0x2(%rax),%esi
    4092:	89 ca                	mov    %ecx,%edx
    4094:	44 29 f9             	sub    %r15d,%ecx
    4097:	44 01 fa             	add    %r15d,%edx
    409a:	45 0f bf d1          	movswl %r9w,%r10d
    409e:	66 89 10             	mov    %dx,(%rax)
    40a1:	0f bf d6             	movswl %si,%edx
    40a4:	44 01 ce             	add    %r9d,%esi
    40a7:	44 29 d2             	sub    %r10d,%edx
    40aa:	66 89 70 02          	mov    %si,0x2(%rax)
    40ae:	89 ce                	mov    %ecx,%esi
    40b0:	41 89 d1             	mov    %edx,%r9d
    40b3:	41 0f af f3          	imul   %r11d,%esi
    40b7:	44 0f af cb          	imul   %ebx,%r9d
    40bb:	41 0f af d3          	imul   %r11d,%edx
    40bf:	0f af cb             	imul   %ebx,%ecx
    40c2:	44 01 ce             	add    %r9d,%esi
    40c5:	c1 fe 0f             	sar    $0xf,%esi
    40c8:	29 ca                	sub    %ecx,%edx
    40ca:	66 89 34 38          	mov    %si,(%rax,%rdi,1)
    40ce:	c1 fa 0f             	sar    $0xf,%edx
    40d1:	66 89 54 38 02       	mov    %dx,0x2(%rax,%rdi,1)
    40d6:	48 01 e8             	add    %rbp,%rax
    40d9:	41 83 e8 01          	sub    $0x1,%r8d
    40dd:	75 a1                	jne    4080 <riscv_dsp_cifft_rd2_q15+0x410>
    40df:	49 83 c4 04          	add    $0x4,%r12
    40e3:	4c 39 64 24 a8       	cmp    %r12,-0x58(%rsp)
    40e8:	0f 85 4a ff ff ff    	jne    4038 <riscv_dsp_cifft_rd2_q15+0x3c8>
    40ee:	45 01 f6             	add    %r14d,%r14d
    40f1:	83 6c 24 ec 01       	subl   $0x1,-0x14(%rsp)
    40f6:	0f 85 24 fd ff ff    	jne    3e20 <riscv_dsp_cifft_rd2_q15+0x1b0>
    40fc:	0f b6 4c 24 f0       	movzbl -0x10(%rsp),%ecx
    4101:	b8 02 00 00 00       	mov    $0x2,%eax
    4106:	d3 e0                	shl    %cl,%eax
    4108:	4c 8d 34 00          	lea    (%rax,%rax,1),%r14
    410c:	48 8b 44 24 d8       	mov    -0x28(%rsp),%rax
    4111:	4e 8d 24 30          	lea    (%rax,%r14,1),%r12
    4115:	4c 39 e0             	cmp    %r12,%rax
    4118:	0f 84 b9 0b 00 00    	je     4cd7 <riscv_dsp_cifft_rd2_q15+0x1067>
    411e:	4c 89 e2             	mov    %r12,%rdx
    4121:	48 29 c2             	sub    %rax,%rdx
    4124:	48 83 ea 10          	sub    $0x10,%rdx
    4128:	48 89 d1             	mov    %rdx,%rcx
    412b:	48 c1 e9 04          	shr    $0x4,%rcx
    412f:	48 83 c1 01          	add    $0x1,%rcx
    4133:	48 83 fa 60          	cmp    $0x60,%rdx
    4137:	0f 86 17 0f 00 00    	jbe    5054 <riscv_dsp_cifft_rd2_q15+0x13e4>
    413d:	66 44 0f 6f 2d ba 53 	movdqa 0x53ba(%rip),%xmm13        # 9500 <_IO_stdin_used+0x500>
    4144:	00 00 
    4146:	48 89 ca             	mov    %rcx,%rdx
    4149:	48 c1 ea 03          	shr    $0x3,%rdx
    414d:	48 c1 e2 07          	shl    $0x7,%rdx
    4151:	48 01 c2             	add    %rax,%rdx
    4154:	f3 0f 6f 00          	movdqu (%rax),%xmm0
    4158:	f3 44 0f 6f 40 10    	movdqu 0x10(%rax),%xmm8
    415e:	48 83 e8 80          	sub    $0xffffffffffffff80,%rax
    4162:	f3 0f 6f 60 a0       	movdqu -0x60(%rax),%xmm4
    4167:	f3 0f 6f 68 b0       	movdqu -0x50(%rax),%xmm5
    416c:	66 0f 6f f8          	movdqa %xmm0,%xmm7
    4170:	66 0f 6f c8          	movdqa %xmm0,%xmm1
    4174:	f3 0f 6f 50 c0       	movdqu -0x40(%rax),%xmm2
    4179:	66 41 0f 61 c0       	punpcklwd %xmm8,%xmm0
    417e:	66 41 0f 61 f8       	punpcklwd %xmm8,%xmm7
    4183:	66 41 0f 69 c8       	punpckhwd %xmm8,%xmm1
    4188:	66 44 0f 6f c4       	movdqa %xmm4,%xmm8
    418d:	f3 0f 6f 70 d0       	movdqu -0x30(%rax),%xmm6
    4192:	66 44 0f 6f d7       	movdqa %xmm7,%xmm10
    4197:	66 44 0f 61 c5       	punpcklwd %xmm5,%xmm8
    419c:	66 0f 61 f9          	punpcklwd %xmm1,%xmm7
    41a0:	f3 0f 6f 58 e0       	movdqu -0x20(%rax),%xmm3
    41a5:	66 44 0f 69 d1       	punpckhwd %xmm1,%xmm10
    41aa:	66 0f 61 c1          	punpcklwd %xmm1,%xmm0
    41ae:	66 0f 6f cc          	movdqa %xmm4,%xmm1
    41b2:	f3 44 0f 6f 48 f0    	movdqu -0x10(%rax),%xmm9
    41b8:	66 0f 69 cd          	punpckhwd %xmm5,%xmm1
    41bc:	66 41 0f 61 fa       	punpcklwd %xmm10,%xmm7
    41c1:	66 41 0f 69 c2       	punpckhwd %xmm10,%xmm0
    41c6:	66 0f 61 e5          	punpcklwd %xmm5,%xmm4
    41ca:	66 45 0f 6f d0       	movdqa %xmm8,%xmm10
    41cf:	66 0f 6f ea          	movdqa %xmm2,%xmm5
    41d3:	66 44 0f 69 d1       	punpckhwd %xmm1,%xmm10
    41d8:	66 0f 61 ee          	punpcklwd %xmm6,%xmm5
    41dc:	66 44 0f 61 c1       	punpcklwd %xmm1,%xmm8
    41e1:	66 0f 61 e1          	punpcklwd %xmm1,%xmm4
    41e5:	66 0f 6f ca          	movdqa %xmm2,%xmm1
    41e9:	66 45 0f 61 c2       	punpcklwd %xmm10,%xmm8
    41ee:	66 41 0f 69 e2       	punpckhwd %xmm10,%xmm4
    41f3:	66 0f 69 ce          	punpckhwd %xmm6,%xmm1
    41f7:	66 44 0f 6f d5       	movdqa %xmm5,%xmm10
    41fc:	66 0f 61 d6          	punpcklwd %xmm6,%xmm2
    4200:	66 0f 6f f3          	movdqa %xmm3,%xmm6
    4204:	66 44 0f 69 d1       	punpckhwd %xmm1,%xmm10
    4209:	66 41 0f 61 f1       	punpcklwd %xmm9,%xmm6
    420e:	66 0f 61 e9          	punpcklwd %xmm1,%xmm5
    4212:	66 0f 61 d1          	punpcklwd %xmm1,%xmm2
    4216:	66 0f 6f cb          	movdqa %xmm3,%xmm1
    421a:	66 41 0f 61 ea       	punpcklwd %xmm10,%xmm5
    421f:	66 41 0f 69 d2       	punpckhwd %xmm10,%xmm2
    4224:	66 41 0f 69 c9       	punpckhwd %xmm9,%xmm1
    4229:	66 44 0f 6f d6       	movdqa %xmm6,%xmm10
    422e:	66 41 0f 61 d9       	punpcklwd %xmm9,%xmm3
    4233:	66 44 0f 69 d1       	punpckhwd %xmm1,%xmm10
    4238:	66 0f 61 f1          	punpcklwd %xmm1,%xmm6
    423c:	66 0f 61 d9          	punpcklwd %xmm1,%xmm3
    4240:	66 0f 6f cf          	movdqa %xmm7,%xmm1
    4244:	66 44 0f 6f cf       	movdqa %xmm7,%xmm9
    4249:	66 41 0f 61 f2       	punpcklwd %xmm10,%xmm6
    424e:	66 41 0f 61 c8       	punpcklwd %xmm8,%xmm1
    4253:	66 41 0f 69 da       	punpckhwd %xmm10,%xmm3
    4258:	66 45 0f 69 c8       	punpckhwd %xmm8,%xmm9
    425d:	66 44 0f 6f d1       	movdqa %xmm1,%xmm10
    4262:	66 41 0f 61 f8       	punpcklwd %xmm8,%xmm7
    4267:	66 41 0f 61 c9       	punpcklwd %xmm9,%xmm1
    426c:	66 45 0f 69 d1       	punpckhwd %xmm9,%xmm10
    4271:	66 41 0f 61 f9       	punpcklwd %xmm9,%xmm7
    4276:	66 44 0f 6f cd       	movdqa %xmm5,%xmm9
    427b:	66 44 0f 61 ce       	punpcklwd %xmm6,%xmm9
    4280:	66 44 0f 6f c5       	movdqa %xmm5,%xmm8
    4285:	66 41 0f 61 ca       	punpcklwd %xmm10,%xmm1
    428a:	66 44 0f 69 c6       	punpckhwd %xmm6,%xmm8
    428f:	66 41 0f 69 fa       	punpckhwd %xmm10,%xmm7
    4294:	66 0f 61 ee          	punpcklwd %xmm6,%xmm5
    4298:	66 45 0f 6f d1       	movdqa %xmm9,%xmm10
    429d:	66 41 0f 61 e8       	punpcklwd %xmm8,%xmm5
    42a2:	66 45 0f 61 c8       	punpcklwd %xmm8,%xmm9
    42a7:	66 45 0f 69 d0       	punpckhwd %xmm8,%xmm10
    42ac:	66 44 0f 6f c0       	movdqa %xmm0,%xmm8
    42b1:	66 0f 6f f0          	movdqa %xmm0,%xmm6
    42b5:	66 44 0f 61 c4       	punpcklwd %xmm4,%xmm8
    42ba:	66 45 0f 61 ca       	punpcklwd %xmm10,%xmm9
    42bf:	66 41 0f 69 ea       	punpckhwd %xmm10,%xmm5
    42c4:	66 0f 69 f4          	punpckhwd %xmm4,%xmm6
    42c8:	66 45 0f 6f d0       	movdqa %xmm8,%xmm10
    42cd:	66 0f 61 c4          	punpcklwd %xmm4,%xmm0
    42d1:	66 0f 6f e2          	movdqa %xmm2,%xmm4
    42d5:	66 44 0f 69 d6       	punpckhwd %xmm6,%xmm10
    42da:	66 44 0f 61 c6       	punpcklwd %xmm6,%xmm8
    42df:	66 0f 61 e3          	punpcklwd %xmm3,%xmm4
    42e3:	66 0f 61 c6          	punpcklwd %xmm6,%xmm0
    42e7:	66 0f 6f f2          	movdqa %xmm2,%xmm6
    42eb:	66 0f 69 f3          	punpckhwd %xmm3,%xmm6
    42ef:	66 45 0f 61 c2       	punpcklwd %xmm10,%xmm8
    42f4:	66 41 0f 69 c2       	punpckhwd %xmm10,%xmm0
    42f9:	66 0f 61 d3          	punpcklwd %xmm3,%xmm2
    42fd:	66 44 0f 6f d4       	movdqa %xmm4,%xmm10
    4302:	66 0f 61 e6          	punpcklwd %xmm6,%xmm4
    4306:	66 44 0f 69 d6       	punpckhwd %xmm6,%xmm10
    430b:	66 0f 61 d6          	punpcklwd %xmm6,%xmm2
    430f:	66 0f 6f f1          	movdqa %xmm1,%xmm6
    4313:	66 41 0f 61 f1       	punpcklwd %xmm9,%xmm6
    4318:	66 0f 6f d9          	movdqa %xmm1,%xmm3
    431c:	66 41 0f 61 e2       	punpcklwd %xmm10,%xmm4
    4321:	66 41 0f 69 d2       	punpckhwd %xmm10,%xmm2
    4326:	66 41 0f 69 d9       	punpckhwd %xmm9,%xmm3
    432b:	66 44 0f 6f d6       	movdqa %xmm6,%xmm10
    4330:	66 41 0f 61 c9       	punpcklwd %xmm9,%xmm1
    4335:	66 44 0f 69 d3       	punpckhwd %xmm3,%xmm10
    433a:	66 0f 61 f3          	punpcklwd %xmm3,%xmm6
    433e:	66 0f 61 cb          	punpcklwd %xmm3,%xmm1
    4342:	66 41 0f 6f d8       	movdqa %xmm8,%xmm3
    4347:	66 45 0f 6f c8       	movdqa %xmm8,%xmm9
    434c:	66 0f 61 dc          	punpcklwd %xmm4,%xmm3
    4350:	66 44 0f 69 cc       	punpckhwd %xmm4,%xmm9
    4355:	66 41 0f 61 f2       	punpcklwd %xmm10,%xmm6
    435a:	66 41 0f 69 ca       	punpckhwd %xmm10,%xmm1
    435f:	66 44 0f 61 c4       	punpcklwd %xmm4,%xmm8
    4364:	66 44 0f 6f d3       	movdqa %xmm3,%xmm10
    4369:	66 45 0f 69 d1       	punpckhwd %xmm9,%xmm10
    436e:	66 41 0f 61 d9       	punpcklwd %xmm9,%xmm3
    4373:	66 45 0f 61 c1       	punpcklwd %xmm9,%xmm8
    4378:	66 44 0f 6f cf       	movdqa %xmm7,%xmm9
    437d:	66 0f 6f e7          	movdqa %xmm7,%xmm4
    4381:	66 45 0f 69 c2       	punpckhwd %xmm10,%xmm8
    4386:	66 44 0f 61 cd       	punpcklwd %xmm5,%xmm9
    438b:	66 0f 69 e5          	punpckhwd %xmm5,%xmm4
    438f:	66 41 0f 61 da       	punpcklwd %xmm10,%xmm3
    4394:	66 0f 61 fd          	punpcklwd %xmm5,%xmm7
    4398:	66 45 0f 6f d1       	movdqa %xmm9,%xmm10
    439d:	66 0f 6f e8          	movdqa %xmm0,%xmm5
    43a1:	66 44 0f 69 d4       	punpckhwd %xmm4,%xmm10
    43a6:	66 44 0f 61 cc       	punpcklwd %xmm4,%xmm9
    43ab:	66 0f 61 fc          	punpcklwd %xmm4,%xmm7
    43af:	66 0f 6f e0          	movdqa %xmm0,%xmm4
    43b3:	66 0f 61 ea          	punpcklwd %xmm2,%xmm5
    43b7:	66 0f 61 c2          	punpcklwd %xmm2,%xmm0
    43bb:	66 0f 69 e2          	punpckhwd %xmm2,%xmm4
    43bf:	66 0f ef d2          	pxor   %xmm2,%xmm2
    43c3:	66 45 0f 61 ca       	punpcklwd %xmm10,%xmm9
    43c8:	66 0f 65 d6          	pcmpgtw %xmm6,%xmm2
    43cc:	66 41 0f 69 fa       	punpckhwd %xmm10,%xmm7
    43d1:	66 44 0f 6f d5       	movdqa %xmm5,%xmm10
    43d6:	66 44 0f 69 d4       	punpckhwd %xmm4,%xmm10
    43db:	66 0f 61 ec          	punpcklwd %xmm4,%xmm5
    43df:	66 0f 61 c4          	punpcklwd %xmm4,%xmm0
    43e3:	66 0f 6f e6          	movdqa %xmm6,%xmm4
    43e7:	66 45 0f 6f f1       	movdqa %xmm9,%xmm14
    43ec:	66 44 0f 6f db       	movdqa %xmm3,%xmm11
    43f1:	66 0f 61 e2          	punpcklwd %xmm2,%xmm4
    43f5:	66 0f 69 f2          	punpckhwd %xmm2,%xmm6
    43f9:	66 0f ef d2          	pxor   %xmm2,%xmm2
    43fd:	66 41 0f 65 d1       	pcmpgtw %xmm9,%xmm2
    4402:	66 41 0f 61 ea       	punpcklwd %xmm10,%xmm5
    4407:	66 41 0f 69 c2       	punpckhwd %xmm10,%xmm0
    440c:	66 44 0f 6f d4       	movdqa %xmm4,%xmm10
    4411:	44 0f 29 54 24 a8    	movaps %xmm10,-0x58(%rsp)
    4417:	66 44 0f 61 f2       	punpcklwd %xmm2,%xmm14
    441c:	66 44 0f 69 ca       	punpckhwd %xmm2,%xmm9
    4421:	66 0f ef d2          	pxor   %xmm2,%xmm2
    4425:	66 0f 65 d3          	pcmpgtw %xmm3,%xmm2
    4429:	66 41 0f 6f e1       	movdqa %xmm9,%xmm4
    442e:	0f 29 64 24 b8       	movaps %xmm4,-0x48(%rsp)
    4433:	66 44 0f 61 da       	punpcklwd %xmm2,%xmm11
    4438:	66 0f 69 da          	punpckhwd %xmm2,%xmm3
    443c:	66 0f ef d2          	pxor   %xmm2,%xmm2
    4440:	66 0f 65 d5          	pcmpgtw %xmm5,%xmm2
    4444:	66 44 0f 6f fb       	movdqa %xmm3,%xmm15
    4449:	66 0f 6f dd          	movdqa %xmm5,%xmm3
    444d:	44 0f 29 5c 24 c8    	movaps %xmm11,-0x38(%rsp)
    4453:	66 45 0f 6f e3       	movdqa %xmm11,%xmm12
    4458:	66 0f 61 da          	punpcklwd %xmm2,%xmm3
    445c:	66 0f 69 ea          	punpckhwd %xmm2,%xmm5
    4460:	66 41 0f 6f d7       	movdqa %xmm15,%xmm2
    4465:	66 0f fe d5          	paddd  %xmm5,%xmm2
    4469:	66 44 0f fe e3       	paddd  %xmm3,%xmm12
    446e:	66 44 0f 6f da       	movdqa %xmm2,%xmm11
    4473:	66 41 0f 6f d2       	movdqa %xmm10,%xmm2
    4478:	66 0f fa 5c 24 c8    	psubd  -0x38(%rsp),%xmm3
    447e:	66 44 0f 6f 15 89 50 	movdqa 0x5089(%rip),%xmm10        # 9510 <_IO_stdin_used+0x510>
    4485:	00 00 
    4487:	66 41 0f fe d6       	paddd  %xmm14,%xmm2
    448c:	66 41 0f 72 f4 01    	pslld  $0x1,%xmm12
    4492:	66 41 0f fa ef       	psubd  %xmm15,%xmm5
    4497:	66 0f 72 f2 01       	pslld  $0x1,%xmm2
    449c:	66 41 0f 72 f3 01    	pslld  $0x1,%xmm11
    44a2:	66 45 0f 6f f8       	movdqa %xmm8,%xmm15
    44a7:	66 0f 72 f3 01       	pslld  $0x1,%xmm3
    44ac:	66 0f 72 f5 01       	pslld  $0x1,%xmm5
    44b1:	66 44 0f 6f ca       	movdqa %xmm2,%xmm9
    44b6:	66 45 0f 66 cd       	pcmpgtd %xmm13,%xmm9
    44bb:	66 41 0f db d1       	pand   %xmm9,%xmm2
    44c0:	66 45 0f df cd       	pandn  %xmm13,%xmm9
    44c5:	66 44 0f eb ca       	por    %xmm2,%xmm9
    44ca:	66 41 0f 6f d1       	movdqa %xmm9,%xmm2
    44cf:	66 0f 66 15 39 50 00 	pcmpgtd 0x5039(%rip),%xmm2        # 9510 <_IO_stdin_used+0x510>
    44d6:	00 
    44d7:	66 44 0f db d2       	pand   %xmm2,%xmm10
    44dc:	66 41 0f df d1       	pandn  %xmm9,%xmm2
    44e1:	66 44 0f 6f cc       	movdqa %xmm4,%xmm9
    44e6:	66 0f 6f 25 22 50 00 	movdqa 0x5022(%rip),%xmm4        # 9510 <_IO_stdin_used+0x510>
    44ed:	00 
    44ee:	66 44 0f fe ce       	paddd  %xmm6,%xmm9
    44f3:	66 41 0f eb d2       	por    %xmm10,%xmm2
    44f8:	66 0f fa 74 24 b8    	psubd  -0x48(%rsp),%xmm6
    44fe:	66 41 0f 72 f1 01    	pslld  $0x1,%xmm9
    4504:	66 45 0f 6f d1       	movdqa %xmm9,%xmm10
    4509:	66 0f 72 f6 01       	pslld  $0x1,%xmm6
    450e:	66 45 0f 66 d5       	pcmpgtd %xmm13,%xmm10
    4513:	66 45 0f db ca       	pand   %xmm10,%xmm9
    4518:	66 45 0f df d5       	pandn  %xmm13,%xmm10
    451d:	66 45 0f eb d1       	por    %xmm9,%xmm10
    4522:	66 45 0f 6f ca       	movdqa %xmm10,%xmm9
    4527:	66 44 0f 66 0d e0 4f 	pcmpgtd 0x4fe0(%rip),%xmm9        # 9510 <_IO_stdin_used+0x510>
    452e:	00 00 
    4530:	66 41 0f db e1       	pand   %xmm9,%xmm4
    4535:	66 45 0f df ca       	pandn  %xmm10,%xmm9
    453a:	66 44 0f 6f d2       	movdqa %xmm2,%xmm10
    453f:	66 44 0f eb cc       	por    %xmm4,%xmm9
    4544:	66 0f 6f 25 c4 4f 00 	movdqa 0x4fc4(%rip),%xmm4        # 9510 <_IO_stdin_used+0x510>
    454b:	00 
    454c:	66 41 0f 61 d1       	punpcklwd %xmm9,%xmm2
    4551:	66 45 0f 69 d1       	punpckhwd %xmm9,%xmm10
    4556:	66 44 0f 6f ca       	movdqa %xmm2,%xmm9
    455b:	66 41 0f 61 d2       	punpcklwd %xmm10,%xmm2
    4560:	66 45 0f 69 ca       	punpckhwd %xmm10,%xmm9
    4565:	66 41 0f 61 d1       	punpcklwd %xmm9,%xmm2
    456a:	66 45 0f ef c9       	pxor   %xmm9,%xmm9
    456f:	66 45 0f fa cc       	psubd  %xmm12,%xmm9
    4574:	66 45 0f 6f d1       	movdqa %xmm9,%xmm10
    4579:	66 45 0f 66 d5       	pcmpgtd %xmm13,%xmm10
    457e:	66 45 0f db ca       	pand   %xmm10,%xmm9
    4583:	66 45 0f df d5       	pandn  %xmm13,%xmm10
    4588:	66 45 0f eb d1       	por    %xmm9,%xmm10
    458d:	66 44 0f 6f 0d 8a 4f 	movdqa 0x4f8a(%rip),%xmm9        # 9520 <_IO_stdin_used+0x520>
    4594:	00 00 
    4596:	66 45 0f 66 cc       	pcmpgtd %xmm12,%xmm9
    459b:	66 44 0f 6f 25 6c 4f 	movdqa 0x4f6c(%rip),%xmm12        # 9510 <_IO_stdin_used+0x510>
    45a2:	00 00 
    45a4:	66 45 0f db e1       	pand   %xmm9,%xmm12
    45a9:	66 45 0f df ca       	pandn  %xmm10,%xmm9
    45ae:	66 45 0f ef d2       	pxor   %xmm10,%xmm10
    45b3:	66 45 0f fa d3       	psubd  %xmm11,%xmm10
    45b8:	66 45 0f eb cc       	por    %xmm12,%xmm9
    45bd:	66 45 0f 6f e2       	movdqa %xmm10,%xmm12
    45c2:	66 45 0f 66 e5       	pcmpgtd %xmm13,%xmm12
    45c7:	66 45 0f db d4       	pand   %xmm12,%xmm10
    45cc:	66 45 0f df e5       	pandn  %xmm13,%xmm12
    45d1:	66 45 0f eb e2       	por    %xmm10,%xmm12
    45d6:	66 44 0f 6f 15 41 4f 	movdqa 0x4f41(%rip),%xmm10        # 9520 <_IO_stdin_used+0x520>
    45dd:	00 00 
    45df:	66 45 0f 66 d3       	pcmpgtd %xmm11,%xmm10
    45e4:	66 44 0f 6f 1d 23 4f 	movdqa 0x4f23(%rip),%xmm11        # 9510 <_IO_stdin_used+0x510>
    45eb:	00 00 
    45ed:	66 41 0f db e2       	pand   %xmm10,%xmm4
    45f2:	66 45 0f df d4       	pandn  %xmm12,%xmm10
    45f7:	66 44 0f eb d4       	por    %xmm4,%xmm10
    45fc:	66 41 0f 6f e1       	movdqa %xmm9,%xmm4
    4601:	66 45 0f 61 ca       	punpcklwd %xmm10,%xmm9
    4606:	66 41 0f 69 e2       	punpckhwd %xmm10,%xmm4
    460b:	66 45 0f 6f d1       	movdqa %xmm9,%xmm10
    4610:	66 44 0f 61 cc       	punpcklwd %xmm4,%xmm9
    4615:	66 44 0f 69 d4       	punpckhwd %xmm4,%xmm10
    461a:	66 0f 6f 64 24 a8    	movdqa -0x58(%rsp),%xmm4
    4620:	66 45 0f 61 ca       	punpcklwd %xmm10,%xmm9
    4625:	66 41 0f fa e6       	psubd  %xmm14,%xmm4
    462a:	66 44 0f 6f 35 dd 4e 	movdqa 0x4edd(%rip),%xmm14        # 9510 <_IO_stdin_used+0x510>
    4631:	00 00 
    4633:	66 0f 72 f4 01       	pslld  $0x1,%xmm4
    4638:	66 44 0f 6f d4       	movdqa %xmm4,%xmm10
    463d:	66 45 0f 66 d5       	pcmpgtd %xmm13,%xmm10
    4642:	66 41 0f db e2       	pand   %xmm10,%xmm4
    4647:	66 45 0f df d5       	pandn  %xmm13,%xmm10
    464c:	66 44 0f eb d4       	por    %xmm4,%xmm10
    4651:	66 41 0f 6f e2       	movdqa %xmm10,%xmm4
    4656:	66 0f 66 25 b2 4e 00 	pcmpgtd 0x4eb2(%rip),%xmm4        # 9510 <_IO_stdin_used+0x510>
    465d:	00 
    465e:	66 44 0f db f4       	pand   %xmm4,%xmm14
    4663:	66 41 0f df e2       	pandn  %xmm10,%xmm4
    4668:	66 44 0f 6f d6       	movdqa %xmm6,%xmm10
    466d:	66 45 0f 66 d5       	pcmpgtd %xmm13,%xmm10
    4672:	66 41 0f eb e6       	por    %xmm14,%xmm4
    4677:	66 45 0f 6f f0       	movdqa %xmm8,%xmm14
    467c:	66 41 0f db f2       	pand   %xmm10,%xmm6
    4681:	66 45 0f df d5       	pandn  %xmm13,%xmm10
    4686:	66 44 0f eb d6       	por    %xmm6,%xmm10
    468b:	66 41 0f 6f f2       	movdqa %xmm10,%xmm6
    4690:	66 0f 66 35 78 4e 00 	pcmpgtd 0x4e78(%rip),%xmm6        # 9510 <_IO_stdin_used+0x510>
    4697:	00 
    4698:	66 44 0f db de       	pand   %xmm6,%xmm11
    469d:	66 41 0f df f2       	pandn  %xmm10,%xmm6
    46a2:	66 44 0f 6f d4       	movdqa %xmm4,%xmm10
    46a7:	66 41 0f eb f3       	por    %xmm11,%xmm6
    46ac:	66 44 0f 6f df       	movdqa %xmm7,%xmm11
    46b1:	66 0f 61 e6          	punpcklwd %xmm6,%xmm4
    46b5:	66 44 0f 69 d6       	punpckhwd %xmm6,%xmm10
    46ba:	66 0f 6f f4          	movdqa %xmm4,%xmm6
    46be:	66 41 0f 61 e2       	punpcklwd %xmm10,%xmm4
    46c3:	66 41 0f 69 f2       	punpckhwd %xmm10,%xmm6
    46c8:	66 44 0f 6f 15 3f 4e 	movdqa 0x4e3f(%rip),%xmm10        # 9510 <_IO_stdin_used+0x510>
    46cf:	00 00 
    46d1:	66 0f 61 e6          	punpcklwd %xmm6,%xmm4
    46d5:	66 0f 6f f3          	movdqa %xmm3,%xmm6
    46d9:	66 41 0f 66 f5       	pcmpgtd %xmm13,%xmm6
    46de:	66 0f db de          	pand   %xmm6,%xmm3
    46e2:	66 41 0f df f5       	pandn  %xmm13,%xmm6
    46e7:	66 0f eb f3          	por    %xmm3,%xmm6
    46eb:	66 0f 6f de          	movdqa %xmm6,%xmm3
    46ef:	66 0f 66 1d 19 4e 00 	pcmpgtd 0x4e19(%rip),%xmm3        # 9510 <_IO_stdin_used+0x510>
    46f6:	00 
    46f7:	66 44 0f db d3       	pand   %xmm3,%xmm10
    46fc:	66 0f df de          	pandn  %xmm6,%xmm3
    4700:	66 0f 6f f5          	movdqa %xmm5,%xmm6
    4704:	66 41 0f 66 f5       	pcmpgtd %xmm13,%xmm6
    4709:	66 41 0f eb da       	por    %xmm10,%xmm3
    470e:	66 44 0f 6f 15 f9 4d 	movdqa 0x4df9(%rip),%xmm10        # 9510 <_IO_stdin_used+0x510>
    4715:	00 00 
    4717:	66 0f db ee          	pand   %xmm6,%xmm5
    471b:	66 41 0f df f5       	pandn  %xmm13,%xmm6
    4720:	66 0f eb f5          	por    %xmm5,%xmm6
    4724:	66 0f 6f ee          	movdqa %xmm6,%xmm5
    4728:	66 0f 66 2d e0 4d 00 	pcmpgtd 0x4de0(%rip),%xmm5        # 9510 <_IO_stdin_used+0x510>
    472f:	00 
    4730:	66 44 0f db d5       	pand   %xmm5,%xmm10
    4735:	66 0f df ee          	pandn  %xmm6,%xmm5
    4739:	66 0f 6f f3          	movdqa %xmm3,%xmm6
    473d:	66 41 0f eb ea       	por    %xmm10,%xmm5
    4742:	66 0f 61 dd          	punpcklwd %xmm5,%xmm3
    4746:	66 0f 69 f5          	punpckhwd %xmm5,%xmm6
    474a:	66 0f 6f eb          	movdqa %xmm3,%xmm5
    474e:	66 0f 61 de          	punpcklwd %xmm6,%xmm3
    4752:	66 0f 69 ee          	punpckhwd %xmm6,%xmm5
    4756:	66 0f 6f f1          	movdqa %xmm1,%xmm6
    475a:	66 0f 61 dd          	punpcklwd %xmm5,%xmm3
    475e:	66 0f ef ed          	pxor   %xmm5,%xmm5
    4762:	66 0f 65 e9          	pcmpgtw %xmm1,%xmm5
    4766:	66 0f 61 f5          	punpcklwd %xmm5,%xmm6
    476a:	66 0f 69 cd          	punpckhwd %xmm5,%xmm1
    476e:	66 0f ef ed          	pxor   %xmm5,%xmm5
    4772:	66 0f 65 ef          	pcmpgtw %xmm7,%xmm5
    4776:	0f 29 4c 24 a8       	movaps %xmm1,-0x58(%rsp)
    477b:	66 44 0f 61 dd       	punpcklwd %xmm5,%xmm11
    4780:	66 0f 69 fd          	punpckhwd %xmm5,%xmm7
    4784:	66 0f ef ed          	pxor   %xmm5,%xmm5
    4788:	66 41 0f 65 e8       	pcmpgtw %xmm8,%xmm5
    478d:	66 0f 6f cf          	movdqa %xmm7,%xmm1
    4791:	66 0f ef ff          	pxor   %xmm7,%xmm7
    4795:	66 0f 65 f8          	pcmpgtw %xmm0,%xmm7
    4799:	66 44 0f 61 f5       	punpcklwd %xmm5,%xmm14
    479e:	66 44 0f 69 fd       	punpckhwd %xmm5,%xmm15
    47a3:	66 0f 6f e8          	movdqa %xmm0,%xmm5
    47a7:	66 0f 61 ef          	punpcklwd %xmm7,%xmm5
    47ab:	66 0f 69 c7          	punpckhwd %xmm7,%xmm0
    47af:	66 0f 6f fe          	movdqa %xmm6,%xmm7
    47b3:	44 0f 29 74 24 c8    	movaps %xmm14,-0x38(%rsp)
    47b9:	66 41 0f fe fb       	paddd  %xmm11,%xmm7
    47be:	66 44 0f fe f5       	paddd  %xmm5,%xmm14
    47c3:	66 45 0f 6f e7       	movdqa %xmm15,%xmm12
    47c8:	66 0f 72 f7 01       	pslld  $0x1,%xmm7
    47cd:	66 41 0f 72 f6 01    	pslld  $0x1,%xmm14
    47d3:	66 44 0f fe e0       	paddd  %xmm0,%xmm12
    47d8:	66 44 0f 6f c7       	movdqa %xmm7,%xmm8
    47dd:	66 41 0f 72 f4 01    	pslld  $0x1,%xmm12
    47e3:	66 41 0f fa f3       	psubd  %xmm11,%xmm6
    47e8:	66 45 0f 66 c5       	pcmpgtd %xmm13,%xmm8
    47ed:	66 0f 72 f6 01       	pslld  $0x1,%xmm6
    47f2:	66 41 0f fa c7       	psubd  %xmm15,%xmm0
    47f7:	66 0f 72 f0 01       	pslld  $0x1,%xmm0
    47fc:	66 41 0f db f8       	pand   %xmm8,%xmm7
    4801:	66 45 0f df c5       	pandn  %xmm13,%xmm8
    4806:	66 44 0f eb c7       	por    %xmm7,%xmm8
    480b:	66 41 0f 6f f8       	movdqa %xmm8,%xmm7
    4810:	66 0f 66 3d f8 4c 00 	pcmpgtd 0x4cf8(%rip),%xmm7        # 9510 <_IO_stdin_used+0x510>
    4817:	00 
    4818:	0f 29 4c 24 b8       	movaps %xmm1,-0x48(%rsp)
    481d:	66 44 0f 6f 15 ea 4c 	movdqa 0x4cea(%rip),%xmm10        # 9510 <_IO_stdin_used+0x510>
    4824:	00 00 
    4826:	66 44 0f 6f 1d e1 4c 	movdqa 0x4ce1(%rip),%xmm11        # 9510 <_IO_stdin_used+0x510>
    482d:	00 00 
    482f:	66 0f fa 6c 24 c8    	psubd  -0x38(%rsp),%xmm5
    4835:	66 44 0f db d7       	pand   %xmm7,%xmm10
    483a:	66 0f 72 f5 01       	pslld  $0x1,%xmm5
    483f:	66 41 0f df f8       	pandn  %xmm8,%xmm7
    4844:	66 44 0f 6f 44 24 a8 	movdqa -0x58(%rsp),%xmm8
    484b:	66 41 0f eb fa       	por    %xmm10,%xmm7
    4850:	66 44 0f fe c1       	paddd  %xmm1,%xmm8
    4855:	66 0f 6f 0d b3 4c 00 	movdqa 0x4cb3(%rip),%xmm1        # 9510 <_IO_stdin_used+0x510>
    485c:	00 
    485d:	66 41 0f 72 f0 01    	pslld  $0x1,%xmm8
    4863:	66 45 0f 6f d0       	movdqa %xmm8,%xmm10
    4868:	66 45 0f 66 d5       	pcmpgtd %xmm13,%xmm10
    486d:	66 45 0f db c2       	pand   %xmm10,%xmm8
    4872:	66 45 0f df d5       	pandn  %xmm13,%xmm10
    4877:	66 45 0f eb d0       	por    %xmm8,%xmm10
    487c:	66 45 0f 6f c2       	movdqa %xmm10,%xmm8
    4881:	66 44 0f 66 05 86 4c 	pcmpgtd 0x4c86(%rip),%xmm8        # 9510 <_IO_stdin_used+0x510>
    4888:	00 00 
    488a:	66 41 0f db c8       	pand   %xmm8,%xmm1
    488f:	66 45 0f df c2       	pandn  %xmm10,%xmm8
    4894:	66 44 0f 6f d7       	movdqa %xmm7,%xmm10
    4899:	66 44 0f eb c1       	por    %xmm1,%xmm8
    489e:	66 0f 6f 0d 6a 4c 00 	movdqa 0x4c6a(%rip),%xmm1        # 9510 <_IO_stdin_used+0x510>
    48a5:	00 
    48a6:	66 41 0f 61 f8       	punpcklwd %xmm8,%xmm7
    48ab:	66 45 0f 69 d0       	punpckhwd %xmm8,%xmm10
    48b0:	66 44 0f 6f c7       	movdqa %xmm7,%xmm8
    48b5:	66 41 0f 61 fa       	punpcklwd %xmm10,%xmm7
    48ba:	66 45 0f 69 c2       	punpckhwd %xmm10,%xmm8
    48bf:	66 41 0f 61 f8       	punpcklwd %xmm8,%xmm7
    48c4:	66 45 0f ef c0       	pxor   %xmm8,%xmm8
    48c9:	66 45 0f fa c6       	psubd  %xmm14,%xmm8
    48ce:	66 45 0f 6f d0       	movdqa %xmm8,%xmm10
    48d3:	66 45 0f 66 d5       	pcmpgtd %xmm13,%xmm10
    48d8:	66 45 0f db c2       	pand   %xmm10,%xmm8
    48dd:	66 45 0f df d5       	pandn  %xmm13,%xmm10
    48e2:	66 45 0f eb d0       	por    %xmm8,%xmm10
    48e7:	66 44 0f 6f 05 30 4c 	movdqa 0x4c30(%rip),%xmm8        # 9520 <_IO_stdin_used+0x520>
    48ee:	00 00 
    48f0:	66 45 0f 66 c6       	pcmpgtd %xmm14,%xmm8
    48f5:	66 41 0f db c8       	pand   %xmm8,%xmm1
    48fa:	66 45 0f df c2       	pandn  %xmm10,%xmm8
    48ff:	66 45 0f ef d2       	pxor   %xmm10,%xmm10
    4904:	66 45 0f fa d4       	psubd  %xmm12,%xmm10
    4909:	66 44 0f eb c1       	por    %xmm1,%xmm8
    490e:	66 41 0f 6f ca       	movdqa %xmm10,%xmm1
    4913:	66 41 0f 66 cd       	pcmpgtd %xmm13,%xmm1
    4918:	66 44 0f 6f f1       	movdqa %xmm1,%xmm14
    491d:	66 44 0f db d1       	pand   %xmm1,%xmm10
    4922:	66 0f 6f 4c 24 a8    	movdqa -0x58(%rsp),%xmm1
    4928:	66 0f fa 4c 24 b8    	psubd  -0x48(%rsp),%xmm1
    492e:	66 45 0f df f5       	pandn  %xmm13,%xmm14
    4933:	66 45 0f eb f2       	por    %xmm10,%xmm14
    4938:	66 0f 72 f1 01       	pslld  $0x1,%xmm1
    493d:	66 44 0f 6f 15 da 4b 	movdqa 0x4bda(%rip),%xmm10        # 9520 <_IO_stdin_used+0x520>
    4944:	00 00 
    4946:	66 45 0f 66 d4       	pcmpgtd %xmm12,%xmm10
    494b:	66 44 0f 6f 25 bc 4b 	movdqa 0x4bbc(%rip),%xmm12        # 9510 <_IO_stdin_used+0x510>
    4952:	00 00 
    4954:	66 45 0f db e2       	pand   %xmm10,%xmm12
    4959:	66 45 0f df d6       	pandn  %xmm14,%xmm10
    495e:	66 45 0f eb d4       	por    %xmm12,%xmm10
    4963:	66 45 0f 6f e0       	movdqa %xmm8,%xmm12
    4968:	66 45 0f 61 c2       	punpcklwd %xmm10,%xmm8
    496d:	66 45 0f 69 e2       	punpckhwd %xmm10,%xmm12
    4972:	66 45 0f 6f d0       	movdqa %xmm8,%xmm10
    4977:	66 45 0f 61 c4       	punpcklwd %xmm12,%xmm8
    497c:	66 45 0f 69 d4       	punpckhwd %xmm12,%xmm10
    4981:	66 45 0f 61 c2       	punpcklwd %xmm10,%xmm8
    4986:	66 44 0f 6f d6       	movdqa %xmm6,%xmm10
    498b:	66 45 0f 66 d5       	pcmpgtd %xmm13,%xmm10
    4990:	66 41 0f db f2       	pand   %xmm10,%xmm6
    4995:	66 45 0f df d5       	pandn  %xmm13,%xmm10
    499a:	66 44 0f eb d6       	por    %xmm6,%xmm10
    499f:	66 41 0f 6f f2       	movdqa %xmm10,%xmm6
    49a4:	66 0f 66 35 64 4b 00 	pcmpgtd 0x4b64(%rip),%xmm6        # 9510 <_IO_stdin_used+0x510>
    49ab:	00 
    49ac:	66 44 0f db de       	pand   %xmm6,%xmm11
    49b1:	66 41 0f df f2       	pandn  %xmm10,%xmm6
    49b6:	66 44 0f 6f d1       	movdqa %xmm1,%xmm10
    49bb:	66 45 0f 66 d5       	pcmpgtd %xmm13,%xmm10
    49c0:	66 41 0f eb f3       	por    %xmm11,%xmm6
    49c5:	66 44 0f 6f 1d 42 4b 	movdqa 0x4b42(%rip),%xmm11        # 9510 <_IO_stdin_used+0x510>
    49cc:	00 00 
    49ce:	66 41 0f db ca       	pand   %xmm10,%xmm1
    49d3:	66 45 0f df d5       	pandn  %xmm13,%xmm10
    49d8:	66 44 0f eb d1       	por    %xmm1,%xmm10
    49dd:	66 41 0f 6f ca       	movdqa %xmm10,%xmm1
    49e2:	66 0f 66 0d 26 4b 00 	pcmpgtd 0x4b26(%rip),%xmm1        # 9510 <_IO_stdin_used+0x510>
    49e9:	00 
    49ea:	66 44 0f db d9       	pand   %xmm1,%xmm11
    49ef:	66 41 0f df ca       	pandn  %xmm10,%xmm1
    49f4:	66 44 0f 6f d6       	movdqa %xmm6,%xmm10
    49f9:	66 41 0f eb cb       	por    %xmm11,%xmm1
    49fe:	66 0f 61 f1          	punpcklwd %xmm1,%xmm6
    4a02:	66 44 0f 69 d1       	punpckhwd %xmm1,%xmm10
    4a07:	66 0f 6f ce          	movdqa %xmm6,%xmm1
    4a0b:	66 41 0f 61 f2       	punpcklwd %xmm10,%xmm6
    4a10:	66 41 0f 69 ca       	punpckhwd %xmm10,%xmm1
    4a15:	66 44 0f 6f 15 f2 4a 	movdqa 0x4af2(%rip),%xmm10        # 9510 <_IO_stdin_used+0x510>
    4a1c:	00 00 
    4a1e:	66 0f 61 f1          	punpcklwd %xmm1,%xmm6
    4a22:	66 0f 6f cd          	movdqa %xmm5,%xmm1
    4a26:	66 41 0f 66 cd       	pcmpgtd %xmm13,%xmm1
    4a2b:	66 0f db e9          	pand   %xmm1,%xmm5
    4a2f:	66 41 0f df cd       	pandn  %xmm13,%xmm1
    4a34:	66 0f eb cd          	por    %xmm5,%xmm1
    4a38:	66 0f 6f e9          	movdqa %xmm1,%xmm5
    4a3c:	66 0f 66 2d cc 4a 00 	pcmpgtd 0x4acc(%rip),%xmm5        # 9510 <_IO_stdin_used+0x510>
    4a43:	00 
    4a44:	66 44 0f db d5       	pand   %xmm5,%xmm10
    4a49:	66 0f df e9          	pandn  %xmm1,%xmm5
    4a4d:	66 0f 6f c8          	movdqa %xmm0,%xmm1
    4a51:	66 41 0f 66 cd       	pcmpgtd %xmm13,%xmm1
    4a56:	66 41 0f eb ea       	por    %xmm10,%xmm5
    4a5b:	66 44 0f 6f 15 ac 4a 	movdqa 0x4aac(%rip),%xmm10        # 9510 <_IO_stdin_used+0x510>
    4a62:	00 00 
    4a64:	66 0f db c1          	pand   %xmm1,%xmm0
    4a68:	66 41 0f df cd       	pandn  %xmm13,%xmm1
    4a6d:	66 0f eb c8          	por    %xmm0,%xmm1
    4a71:	66 0f 6f c1          	movdqa %xmm1,%xmm0
    4a75:	66 0f 66 05 93 4a 00 	pcmpgtd 0x4a93(%rip),%xmm0        # 9510 <_IO_stdin_used+0x510>
    4a7c:	00 
    4a7d:	66 44 0f db d0       	pand   %xmm0,%xmm10
    4a82:	66 0f df c1          	pandn  %xmm1,%xmm0
    4a86:	66 0f 6f cd          	movdqa %xmm5,%xmm1
    4a8a:	66 41 0f eb c2       	por    %xmm10,%xmm0
    4a8f:	66 0f 61 e8          	punpcklwd %xmm0,%xmm5
    4a93:	66 0f 69 c8          	punpckhwd %xmm0,%xmm1
    4a97:	66 0f 6f c5          	movdqa %xmm5,%xmm0
    4a9b:	66 0f 61 e9          	punpcklwd %xmm1,%xmm5
    4a9f:	66 0f 69 c1          	punpckhwd %xmm1,%xmm0
    4aa3:	66 0f 6f ca          	movdqa %xmm2,%xmm1
    4aa7:	66 0f 69 d7          	punpckhwd %xmm7,%xmm2
    4aab:	66 0f 61 e8          	punpcklwd %xmm0,%xmm5
    4aaf:	66 41 0f 6f c1       	movdqa %xmm9,%xmm0
    4ab4:	66 0f 61 cf          	punpcklwd %xmm7,%xmm1
    4ab8:	66 41 0f 61 c0       	punpcklwd %xmm8,%xmm0
    4abd:	66 45 0f 69 c8       	punpckhwd %xmm8,%xmm9
    4ac2:	66 0f 6f fc          	movdqa %xmm4,%xmm7
    4ac6:	66 44 0f 6f c3       	movdqa %xmm3,%xmm8
    4acb:	66 0f 61 fe          	punpcklwd %xmm6,%xmm7
    4acf:	66 0f 69 e6          	punpckhwd %xmm6,%xmm4
    4ad3:	66 0f 69 dd          	punpckhwd %xmm5,%xmm3
    4ad7:	66 44 0f 61 c5       	punpcklwd %xmm5,%xmm8
    4adc:	66 0f 6f f1          	movdqa %xmm1,%xmm6
    4ae0:	66 0f 6f e9          	movdqa %xmm1,%xmm5
    4ae4:	66 0f 6f ca          	movdqa %xmm2,%xmm1
    4ae8:	66 0f 61 f7          	punpcklwd %xmm7,%xmm6
    4aec:	66 0f 69 ef          	punpckhwd %xmm7,%xmm5
    4af0:	66 0f 61 cc          	punpcklwd %xmm4,%xmm1
    4af4:	66 0f 69 d4          	punpckhwd %xmm4,%xmm2
    4af8:	66 0f 6f f8          	movdqa %xmm0,%xmm7
    4afc:	66 41 0f 6f e1       	movdqa %xmm9,%xmm4
    4b01:	66 44 0f 69 cb       	punpckhwd %xmm3,%xmm9
    4b06:	66 0f 61 e3          	punpcklwd %xmm3,%xmm4
    4b0a:	66 41 0f 61 f8       	punpcklwd %xmm8,%xmm7
    4b0f:	66 0f 6f de          	movdqa %xmm6,%xmm3
    4b13:	66 0f 61 df          	punpcklwd %xmm7,%xmm3
    4b17:	66 41 0f 69 c0       	punpckhwd %xmm8,%xmm0
    4b1c:	66 0f 69 f7          	punpckhwd %xmm7,%xmm6
    4b20:	0f 11 58 80          	movups %xmm3,-0x80(%rax)
    4b24:	66 0f 6f dd          	movdqa %xmm5,%xmm3
    4b28:	66 0f 69 e8          	punpckhwd %xmm0,%xmm5
    4b2c:	66 0f 61 d8          	punpcklwd %xmm0,%xmm3
    4b30:	66 0f 6f c1          	movdqa %xmm1,%xmm0
    4b34:	66 0f 69 cc          	punpckhwd %xmm4,%xmm1
    4b38:	0f 11 70 90          	movups %xmm6,-0x70(%rax)
    4b3c:	66 0f 61 c4          	punpcklwd %xmm4,%xmm0
    4b40:	0f 11 58 a0          	movups %xmm3,-0x60(%rax)
    4b44:	0f 11 40 c0          	movups %xmm0,-0x40(%rax)
    4b48:	66 0f 6f c2          	movdqa %xmm2,%xmm0
    4b4c:	66 41 0f 69 d1       	punpckhwd %xmm9,%xmm2
    4b51:	66 41 0f 61 c1       	punpcklwd %xmm9,%xmm0
    4b56:	0f 11 68 b0          	movups %xmm5,-0x50(%rax)
    4b5a:	0f 11 48 d0          	movups %xmm1,-0x30(%rax)
    4b5e:	0f 11 40 e0          	movups %xmm0,-0x20(%rax)
    4b62:	0f 11 50 f0          	movups %xmm2,-0x10(%rax)
    4b66:	48 39 d0             	cmp    %rdx,%rax
    4b69:	0f 85 e5 f5 ff ff    	jne    4154 <riscv_dsp_cifft_rd2_q15+0x4e4>
    4b6f:	48 89 c8             	mov    %rcx,%rax
    4b72:	48 83 e0 f8          	and    $0xfffffffffffffff8,%rax
    4b76:	48 89 c2             	mov    %rax,%rdx
    4b79:	48 c1 e2 04          	shl    $0x4,%rdx
    4b7d:	48 03 54 24 d8       	add    -0x28(%rsp),%rdx
    4b82:	48 39 c8             	cmp    %rcx,%rax
    4b85:	0f 84 4c 01 00 00    	je     4cd7 <riscv_dsp_cifft_rd2_q15+0x1067>
    4b8b:	bd ff 7f 00 00       	mov    $0x7fff,%ebp
    4b90:	0f bf 32             	movswl (%rdx),%esi
    4b93:	44 0f bf 7a 04       	movswl 0x4(%rdx),%r15d
    4b98:	41 b9 00 80 ff ff    	mov    $0xffff8000,%r9d
    4b9e:	0f bf 7a 02          	movswl 0x2(%rdx),%edi
    4ba2:	0f bf 4a 06          	movswl 0x6(%rdx),%ecx
    4ba6:	41 8d 04 37          	lea    (%r15,%rsi,1),%eax
    4baa:	44 0f bf 52 0a       	movswl 0xa(%rdx),%r10d
    4baf:	0f bf 5a 0c          	movswl 0xc(%rdx),%ebx
    4bb3:	44 8d 04 39          	lea    (%rcx,%rdi,1),%r8d
    4bb7:	01 c0                	add    %eax,%eax
    4bb9:	45 01 c0             	add    %r8d,%r8d
    4bbc:	44 39 c8             	cmp    %r9d,%eax
    4bbf:	41 0f 4c c1          	cmovl  %r9d,%eax
    4bc3:	41 b9 ff 7f 00 00    	mov    $0x7fff,%r9d
    4bc9:	45 89 c3             	mov    %r8d,%r11d
    4bcc:	44 39 c8             	cmp    %r9d,%eax
    4bcf:	41 0f 4f c1          	cmovg  %r9d,%eax
    4bd3:	41 f7 db             	neg    %r11d
    4bd6:	44 0f bf 4a 08       	movswl 0x8(%rdx),%r9d
    4bdb:	66 89 02             	mov    %ax,(%rdx)
    4bde:	b8 00 80 ff ff       	mov    $0xffff8000,%eax
    4be3:	41 39 c3             	cmp    %eax,%r11d
    4be6:	44 0f 4c d8          	cmovl  %eax,%r11d
    4bea:	41 81 f8 01 80 ff ff 	cmp    $0xffff8001,%r8d
    4bf1:	44 0f bf 42 0e       	movswl 0xe(%rdx),%r8d
    4bf6:	44 0f 4c dd          	cmovl  %ebp,%r11d
    4bfa:	44 29 fe             	sub    %r15d,%esi
    4bfd:	47 8d 2c 10          	lea    (%r8,%r10,1),%r13d
    4c01:	01 f6                	add    %esi,%esi
    4c03:	45 01 ed             	add    %r13d,%r13d
    4c06:	39 c6                	cmp    %eax,%esi
    4c08:	45 0f b7 db          	movzwl %r11w,%r11d
    4c0c:	0f 4c f0             	cmovl  %eax,%esi
    4c0f:	b8 ff 7f 00 00       	mov    $0x7fff,%eax
    4c14:	39 c6                	cmp    %eax,%esi
    4c16:	0f 4f f0             	cmovg  %eax,%esi
    4c19:	29 f9                	sub    %edi,%ecx
    4c1b:	b8 00 80 ff ff       	mov    $0xffff8000,%eax
    4c20:	01 c9                	add    %ecx,%ecx
    4c22:	39 c1                	cmp    %eax,%ecx
    4c24:	0f b7 f6             	movzwl %si,%esi
    4c27:	0f 4c c8             	cmovl  %eax,%ecx
    4c2a:	b8 ff 7f 00 00       	mov    $0x7fff,%eax
    4c2f:	39 c1                	cmp    %eax,%ecx
    4c31:	0f 4f c8             	cmovg  %eax,%ecx
    4c34:	42 8d 04 0b          	lea    (%rbx,%r9,1),%eax
    4c38:	8d 3c 00             	lea    (%rax,%rax,1),%edi
    4c3b:	b8 00 80 ff ff       	mov    $0xffff8000,%eax
    4c40:	39 c7                	cmp    %eax,%edi
    4c42:	0f 4c f8             	cmovl  %eax,%edi
    4c45:	b8 ff 7f 00 00       	mov    $0x7fff,%eax
    4c4a:	39 c7                	cmp    %eax,%edi
    4c4c:	0f 4f f8             	cmovg  %eax,%edi
    4c4f:	0f b7 c7             	movzwl %di,%eax
    4c52:	0f b7 f9             	movzwl %cx,%edi
    4c55:	b9 00 80 ff ff       	mov    $0xffff8000,%ecx
    4c5a:	48 c1 e0 10          	shl    $0x10,%rax
    4c5e:	48 09 f8             	or     %rdi,%rax
    4c61:	48 c1 e0 10          	shl    $0x10,%rax
    4c65:	48 09 f0             	or     %rsi,%rax
    4c68:	48 c1 e0 10          	shl    $0x10,%rax
    4c6c:	4c 09 d8             	or     %r11,%rax
    4c6f:	48 89 42 02          	mov    %rax,0x2(%rdx)
    4c73:	44 89 e8             	mov    %r13d,%eax
    4c76:	f7 d8                	neg    %eax
    4c78:	39 c8                	cmp    %ecx,%eax
    4c7a:	0f 4c c1             	cmovl  %ecx,%eax
    4c7d:	41 81 fd 00 80 ff ff 	cmp    $0xffff8000,%r13d
    4c84:	44 89 c9             	mov    %r9d,%ecx
    4c87:	0f 4e c5             	cmovle %ebp,%eax
    4c8a:	29 d9                	sub    %ebx,%ecx
    4c8c:	01 c9                	add    %ecx,%ecx
    4c8e:	66 89 42 0a          	mov    %ax,0xa(%rdx)
    4c92:	b8 00 80 ff ff       	mov    $0xffff8000,%eax
    4c97:	39 c1                	cmp    %eax,%ecx
    4c99:	0f 4c c8             	cmovl  %eax,%ecx
    4c9c:	b8 ff 7f 00 00       	mov    $0x7fff,%eax
    4ca1:	39 c1                	cmp    %eax,%ecx
    4ca3:	0f 4f c8             	cmovg  %eax,%ecx
    4ca6:	44 89 c0             	mov    %r8d,%eax
    4ca9:	44 29 d0             	sub    %r10d,%eax
    4cac:	66 89 4a 0c          	mov    %cx,0xc(%rdx)
    4cb0:	01 c0                	add    %eax,%eax
    4cb2:	b9 00 80 ff ff       	mov    $0xffff8000,%ecx
    4cb7:	39 c8                	cmp    %ecx,%eax
    4cb9:	0f 4c c1             	cmovl  %ecx,%eax
    4cbc:	b9 ff 7f 00 00       	mov    $0x7fff,%ecx
    4cc1:	39 c8                	cmp    %ecx,%eax
    4cc3:	0f 4f c1             	cmovg  %ecx,%eax
    4cc6:	48 83 c2 10          	add    $0x10,%rdx
    4cca:	66 89 42 fe          	mov    %ax,-0x2(%rdx)
    4cce:	49 39 d4             	cmp    %rdx,%r12
    4cd1:	0f 85 b9 fe ff ff    	jne    4b90 <riscv_dsp_cifft_rd2_q15+0xf20>
    4cd7:	48 8b 5c 24 d8       	mov    -0x28(%rsp),%rbx
    4cdc:	8b 44 24 f4          	mov    -0xc(%rsp),%eax
    4ce0:	4a 8d 7c 33 fe       	lea    -0x2(%rbx,%r14,1),%rdi
    4ce5:	41 89 c6             	mov    %eax,%r14d
    4ce8:	0f b7 4b 04          	movzwl 0x4(%rbx),%ecx
    4cec:	41 d1 ee             	shr    %r14d
    4cef:	45 89 f1             	mov    %r14d,%r9d
    4cf2:	41 89 c6             	mov    %eax,%r14d
    4cf5:	83 e0 fe             	and    $0xfffffffe,%eax
    4cf8:	89 c2                	mov    %eax,%edx
    4cfa:	83 c0 01             	add    $0x1,%eax
    4cfd:	48 8d 14 53          	lea    (%rbx,%rdx,2),%rdx
    4d01:	48 8d 04 43          	lea    (%rbx,%rax,2),%rax
    4d05:	0f b7 32             	movzwl (%rdx),%esi
    4d08:	66 89 73 04          	mov    %si,0x4(%rbx)
    4d0c:	48 89 de             	mov    %rbx,%rsi
    4d0f:	66 89 0a             	mov    %cx,(%rdx)
    4d12:	0f b7 53 06          	movzwl 0x6(%rbx),%edx
    4d16:	0f b7 08             	movzwl (%rax),%ecx
    4d19:	66 89 4b 06          	mov    %cx,0x6(%rbx)
    4d1d:	44 89 cb             	mov    %r9d,%ebx
    4d20:	b9 04 00 00 00       	mov    $0x4,%ecx
    4d25:	66 89 10             	mov    %dx,(%rax)
    4d28:	44 89 f0             	mov    %r14d,%eax
    4d2b:	41 c1 ee 02          	shr    $0x2,%r14d
    4d2f:	ba 04 00 00 00       	mov    $0x4,%edx
    4d34:	44 31 f3             	xor    %r14d,%ebx
    4d37:	45 89 f2             	mov    %r14d,%r10d
    4d3a:	41 89 c6             	mov    %eax,%r14d
    4d3d:	44 89 c8             	mov    %r9d,%eax
    4d40:	41 c1 ee 03          	shr    $0x3,%r14d
    4d44:	44 89 f5             	mov    %r14d,%ebp
    4d47:	45 89 f3             	mov    %r14d,%r11d
    4d4a:	31 dd                	xor    %ebx,%ebp
    4d4c:	89 6c 24 a8          	mov    %ebp,-0x58(%rsp)
    4d50:	31 d8                	xor    %ebx,%eax
    4d52:	41 85 c2             	test   %eax,%r10d
    4d55:	75 14                	jne    4d6b <riscv_dsp_cifft_rd2_q15+0x10fb>
    4d57:	45 89 d0             	mov    %r10d,%r8d
    4d5a:	66 0f 1f 44 00 00    	nopw   0x0(%rax,%rax,1)
    4d60:	41 d1 e8             	shr    %r8d
    4d63:	44 31 c0             	xor    %r8d,%eax
    4d66:	41 85 c0             	test   %eax,%r8d
    4d69:	74 f5                	je     4d60 <riscv_dsp_cifft_rd2_q15+0x10f0>
    4d6b:	44 8d 41 fe          	lea    -0x2(%rcx),%r8d
    4d6f:	41 39 c0             	cmp    %eax,%r8d
    4d72:	0f 83 97 00 00 00    	jae    4e0f <riscv_dsp_cifft_rd2_q15+0x119f>
    4d78:	41 89 d0             	mov    %edx,%r8d
    4d7b:	8d 2c 00             	lea    (%rax,%rax,1),%ebp
    4d7e:	4e 8d 24 46          	lea    (%rsi,%r8,2),%r12
    4d82:	49 89 e8             	mov    %rbp,%r8
    4d85:	48 8d 2c 6e          	lea    (%rsi,%rbp,2),%rbp
    4d89:	45 0f b7 2c 24       	movzwl (%r12),%r13d
    4d8e:	44 0f b7 75 00       	movzwl 0x0(%rbp),%r14d
    4d93:	41 83 c0 01          	add    $0x1,%r8d
    4d97:	4e 8d 04 46          	lea    (%rsi,%r8,2),%r8
    4d9b:	66 45 89 34 24       	mov    %r14w,(%r12)
    4da0:	66 44 89 6d 00       	mov    %r13w,0x0(%rbp)
    4da5:	8d 6a 01             	lea    0x1(%rdx),%ebp
    4da8:	45 0f b7 28          	movzwl (%r8),%r13d
    4dac:	48 8d 2c 6e          	lea    (%rsi,%rbp,2),%rbp
    4db0:	44 0f b7 65 00       	movzwl 0x0(%rbp),%r12d
    4db5:	66 44 89 6d 00       	mov    %r13w,0x0(%rbp)
    4dba:	89 d5                	mov    %edx,%ebp
    4dbc:	f7 dd                	neg    %ebp
    4dbe:	66 45 89 20          	mov    %r12w,(%r8)
    4dc2:	41 89 c0             	mov    %eax,%r8d
    4dc5:	48 63 ed             	movslq %ebp,%rbp
    4dc8:	41 f7 d8             	neg    %r8d
    4dcb:	48 01 ed             	add    %rbp,%rbp
    4dce:	45 01 c0             	add    %r8d,%r8d
    4dd1:	4c 8d 2c 2f          	lea    (%rdi,%rbp,1),%r13
    4dd5:	48 8d 6c 2f fe       	lea    -0x2(%rdi,%rbp,1),%rbp
    4dda:	4d 63 c0             	movslq %r8d,%r8
    4ddd:	45 0f b7 75 00       	movzwl 0x0(%r13),%r14d
    4de2:	4d 01 c0             	add    %r8,%r8
    4de5:	4e 8d 24 07          	lea    (%rdi,%r8,1),%r12
    4de9:	4e 8d 44 07 fe       	lea    -0x2(%rdi,%r8,1),%r8
    4dee:	45 0f b7 3c 24       	movzwl (%r12),%r15d
    4df3:	66 45 89 7d 00       	mov    %r15w,0x0(%r13)
    4df8:	66 45 89 34 24       	mov    %r14w,(%r12)
    4dfd:	44 0f b7 65 00       	movzwl 0x0(%rbp),%r12d
    4e02:	45 0f b7 28          	movzwl (%r8),%r13d
    4e06:	66 44 89 6d 00       	mov    %r13w,0x0(%rbp)
    4e0b:	66 45 89 20          	mov    %r12w,(%r8)
    4e0f:	44 01 c8             	add    %r9d,%eax
    4e12:	44 8d 42 02          	lea    0x2(%rdx),%r8d
    4e16:	8d 2c 00             	lea    (%rax,%rax,1),%ebp
    4e19:	4e 8d 24 46          	lea    (%rsi,%r8,2),%r12
    4e1d:	49 89 e8             	mov    %rbp,%r8
    4e20:	48 8d 2c 6e          	lea    (%rsi,%rbp,2),%rbp
    4e24:	45 0f b7 2c 24       	movzwl (%r12),%r13d
    4e29:	44 0f b7 75 00       	movzwl 0x0(%rbp),%r14d
    4e2e:	41 83 c0 01          	add    $0x1,%r8d
    4e32:	4e 8d 04 46          	lea    (%rsi,%r8,2),%r8
    4e36:	66 45 89 34 24       	mov    %r14w,(%r12)
    4e3b:	66 44 89 6d 00       	mov    %r13w,0x0(%rbp)
    4e40:	8d 6a 03             	lea    0x3(%rdx),%ebp
    4e43:	45 0f b7 28          	movzwl (%r8),%r13d
    4e47:	48 8d 2c 6e          	lea    (%rsi,%rbp,2),%rbp
    4e4b:	44 0f b7 65 00       	movzwl 0x0(%rbp),%r12d
    4e50:	66 44 89 6d 00       	mov    %r13w,0x0(%rbp)
    4e55:	66 45 89 20          	mov    %r12w,(%r8)
    4e59:	44 39 c9             	cmp    %r9d,%ecx
    4e5c:	0f 83 d6 01 00 00    	jae    5038 <riscv_dsp_cifft_rd2_q15+0x13c8>
    4e62:	33 44 24 a8          	xor    -0x58(%rsp),%eax
    4e66:	41 85 c3             	test   %eax,%r11d
    4e69:	75 10                	jne    4e7b <riscv_dsp_cifft_rd2_q15+0x120b>
    4e6b:	45 89 d8             	mov    %r11d,%r8d
    4e6e:	66 90                	xchg   %ax,%ax
    4e70:	41 d1 e8             	shr    %r8d
    4e73:	44 31 c0             	xor    %r8d,%eax
    4e76:	41 85 c0             	test   %eax,%r8d
    4e79:	74 f5                	je     4e70 <riscv_dsp_cifft_rd2_q15+0x1200>
    4e7b:	39 c8                	cmp    %ecx,%eax
    4e7d:	0f 86 9b 00 00 00    	jbe    4f1e <riscv_dsp_cifft_rd2_q15+0x12ae>
    4e83:	44 8d 42 04          	lea    0x4(%rdx),%r8d
    4e87:	8d 2c 00             	lea    (%rax,%rax,1),%ebp
    4e8a:	4e 8d 24 46          	lea    (%rsi,%r8,2),%r12
    4e8e:	49 89 e8             	mov    %rbp,%r8
    4e91:	48 8d 2c 6e          	lea    (%rsi,%rbp,2),%rbp
    4e95:	45 0f b7 2c 24       	movzwl (%r12),%r13d
    4e9a:	44 0f b7 75 00       	movzwl 0x0(%rbp),%r14d
    4e9f:	41 83 c0 01          	add    $0x1,%r8d
    4ea3:	4e 8d 04 46          	lea    (%rsi,%r8,2),%r8
    4ea7:	66 45 89 34 24       	mov    %r14w,(%r12)
    4eac:	66 44 89 6d 00       	mov    %r13w,0x0(%rbp)
    4eb1:	8d 6a 05             	lea    0x5(%rdx),%ebp
    4eb4:	45 0f b7 28          	movzwl (%r8),%r13d
    4eb8:	48 8d 2c 6e          	lea    (%rsi,%rbp,2),%rbp
    4ebc:	44 0f b7 65 00       	movzwl 0x0(%rbp),%r12d
    4ec1:	66 44 89 6d 00       	mov    %r13w,0x0(%rbp)
    4ec6:	bd fc ff ff ff       	mov    $0xfffffffc,%ebp
    4ecb:	29 d5                	sub    %edx,%ebp
    4ecd:	66 45 89 20          	mov    %r12w,(%r8)
    4ed1:	41 89 c0             	mov    %eax,%r8d
    4ed4:	48 63 ed             	movslq %ebp,%rbp
    4ed7:	41 f7 d8             	neg    %r8d
    4eda:	48 01 ed             	add    %rbp,%rbp
    4edd:	45 01 c0             	add    %r8d,%r8d
    4ee0:	4c 8d 2c 2f          	lea    (%rdi,%rbp,1),%r13
    4ee4:	48 8d 6c 2f fe       	lea    -0x2(%rdi,%rbp,1),%rbp
    4ee9:	4d 63 c0             	movslq %r8d,%r8
    4eec:	45 0f b7 75 00       	movzwl 0x0(%r13),%r14d
    4ef1:	4d 01 c0             	add    %r8,%r8
    4ef4:	4e 8d 24 07          	lea    (%rdi,%r8,1),%r12
    4ef8:	4e 8d 44 07 fe       	lea    -0x2(%rdi,%r8,1),%r8
    4efd:	45 0f b7 3c 24       	movzwl (%r12),%r15d
    4f02:	66 45 89 7d 00       	mov    %r15w,0x0(%r13)
    4f07:	66 45 89 34 24       	mov    %r14w,(%r12)
    4f0c:	44 0f b7 65 00       	movzwl 0x0(%rbp),%r12d
    4f11:	45 0f b7 28          	movzwl (%r8),%r13d
    4f15:	66 44 89 6d 00       	mov    %r13w,0x0(%rbp)
    4f1a:	66 45 89 20          	mov    %r12w,(%r8)
    4f1e:	44 01 c8             	add    %r9d,%eax
    4f21:	44 8d 42 06          	lea    0x6(%rdx),%r8d
    4f25:	83 c1 04             	add    $0x4,%ecx
    4f28:	8d 2c 00             	lea    (%rax,%rax,1),%ebp
    4f2b:	4e 8d 24 46          	lea    (%rsi,%r8,2),%r12
    4f2f:	49 89 e8             	mov    %rbp,%r8
    4f32:	48 8d 2c 6e          	lea    (%rsi,%rbp,2),%rbp
    4f36:	45 0f b7 2c 24       	movzwl (%r12),%r13d
    4f3b:	44 0f b7 75 00       	movzwl 0x0(%rbp),%r14d
    4f40:	41 83 c0 01          	add    $0x1,%r8d
    4f44:	4e 8d 04 46          	lea    (%rsi,%r8,2),%r8
    4f48:	66 45 89 34 24       	mov    %r14w,(%r12)
    4f4d:	66 44 89 6d 00       	mov    %r13w,0x0(%rbp)
    4f52:	8d 6a 07             	lea    0x7(%rdx),%ebp
    4f55:	45 0f b7 28          	movzwl (%r8),%r13d
    4f59:	83 c2 08             	add    $0x8,%edx
    4f5c:	48 8d 2c 6e          	lea    (%rsi,%rbp,2),%rbp
    4f60:	44 0f b7 65 00       	movzwl 0x0(%rbp),%r12d
    4f65:	66 44 89 6d 00       	mov    %r13w,0x0(%rbp)
    4f6a:	66 45 89 20          	mov    %r12w,(%r8)
    4f6e:	e9 dd fd ff ff       	jmp    4d50 <riscv_dsp_cifft_rd2_q15+0x10e0>
    4f73:	0f 1f 44 00 00       	nopl   0x0(%rax,%rax,1)
    4f78:	8d 90 00 ff ff ff    	lea    -0x100(%rax),%edx
    4f7e:	b9 00 01 00 00       	mov    $0x100,%ecx
    4f83:	29 d1                	sub    %edx,%ecx
    4f85:	85 c9                	test   %ecx,%ecx
    4f87:	7e 27                	jle    4fb0 <riscv_dsp_cifft_rd2_q15+0x1340>
    4f89:	48 8d 05 d4 49 00 00 	lea    0x49d4(%rip),%rax        # 9964 <riscv_dsp_cos_table_q15_1024+0x4>
    4f90:	48 63 c9             	movslq %ecx,%rcx
    4f93:	48 63 d2             	movslq %edx,%rdx
    4f96:	44 0f b7 1c 48       	movzwl (%rax,%rcx,2),%r11d
    4f9b:	0f b7 1c 50          	movzwl (%rax,%rdx,2),%ebx
    4f9f:	41 f7 db             	neg    %r11d
    4fa2:	e9 c2 f0 ff ff       	jmp    4069 <riscv_dsp_cifft_rd2_q15+0x3f9>
    4fa7:	66 0f 1f 84 00 00 00 	nopw   0x0(%rax,%rax,1)
    4fae:	00 00 
    4fb0:	2d 00 02 00 00       	sub    $0x200,%eax
    4fb5:	ba 00 01 00 00       	mov    $0x100,%edx
    4fba:	48 8d 1d a3 49 00 00 	lea    0x49a3(%rip),%rbx        # 9964 <riscv_dsp_cos_table_q15_1024+0x4>
    4fc1:	29 c2                	sub    %eax,%edx
    4fc3:	48 98                	cltq   
    4fc5:	48 63 ca             	movslq %edx,%rcx
    4fc8:	44 0f b7 1c 4b       	movzwl (%rbx,%rcx,2),%r11d
    4fcd:	0f b7 1c 43          	movzwl (%rbx,%rax,2),%ebx
    4fd1:	f7 db                	neg    %ebx
    4fd3:	85 d2                	test   %edx,%edx
    4fd5:	0f 8e 8e f0 ff ff    	jle    4069 <riscv_dsp_cifft_rd2_q15+0x3f9>
    4fdb:	44 89 d8             	mov    %r11d,%eax
    4fde:	41 89 db             	mov    %ebx,%r11d
    4fe1:	f7 d8                	neg    %eax
    4fe3:	89 c3                	mov    %eax,%ebx
    4fe5:	e9 7f f0 ff ff       	jmp    4069 <riscv_dsp_cifft_rd2_q15+0x3f9>
    4fea:	48 8b 54 24 d8       	mov    -0x28(%rsp),%rdx
    4fef:	45 89 f0             	mov    %r14d,%r8d
    4ff2:	66 0f 1f 44 00 00    	nopw   0x0(%rax,%rax,1)
    4ff8:	0f b7 32             	movzwl (%rdx),%esi
    4ffb:	44 0f b7 14 3a       	movzwl (%rdx,%rdi,1),%r10d
    5000:	0f b7 4a 02          	movzwl 0x2(%rdx),%ecx
    5004:	44 0f b7 4c 3a 02    	movzwl 0x2(%rdx,%rdi,1),%r9d
    500a:	45 8d 1c 32          	lea    (%r10,%rsi,1),%r11d
    500e:	44 29 d6             	sub    %r10d,%esi
    5011:	66 44 89 1a          	mov    %r11w,(%rdx)
    5015:	45 8d 1c 09          	lea    (%r9,%rcx,1),%r11d
    5019:	44 29 c9             	sub    %r9d,%ecx
    501c:	66 44 89 5a 02       	mov    %r11w,0x2(%rdx)
    5021:	66 89 34 3a          	mov    %si,(%rdx,%rdi,1)
    5025:	66 89 4c 3a 02       	mov    %cx,0x2(%rdx,%rdi,1)
    502a:	48 01 c2             	add    %rax,%rdx
    502d:	41 83 e8 01          	sub    $0x1,%r8d
    5031:	75 c5                	jne    4ff8 <riscv_dsp_cifft_rd2_q15+0x1388>
    5033:	e9 e0 ef ff ff       	jmp    4018 <riscv_dsp_cifft_rd2_q15+0x3a8>
    5038:	5b                   	pop    %rbx
    5039:	31 c0                	xor    %eax,%eax
    503b:	5d                   	pop    %rbp
    503c:	41 5c                	pop    %r12
    503e:	41 5d                	pop    %r13
    5040:	41 5e                	pop    %r14
    5042:	41 5f                	pop    %r15
    5044:	c3                   	ret    
    5045:	48 8b 54 24 d8       	mov    -0x28(%rsp),%rdx
    504a:	45 89 f0             	mov    %r14d,%r8d
    504d:	31 c9                	xor    %ecx,%ecx
    504f:	e9 20 ef ff ff       	jmp    3f74 <riscv_dsp_cifft_rd2_q15+0x304>
    5054:	48 89 c2             	mov    %rax,%rdx
    5057:	e9 2f fb ff ff       	jmp    4b8b <riscv_dsp_cifft_rd2_q15+0xf1b>
    505c:	0f 1f 40 00          	nopl   0x0(%rax)

0000000000005060 <riscv_dsp_cfft_rd4_q15>:
    5060:	f3 0f 1e fa          	endbr64 
    5064:	41 57                	push   %r15
    5066:	89 f1                	mov    %esi,%ecx
    5068:	b8 01 00 00 00       	mov    $0x1,%eax
    506d:	41 56                	push   %r14
    506f:	d3 e0                	shl    %cl,%eax
    5071:	49 89 fe             	mov    %rdi,%r14
    5074:	41 55                	push   %r13
    5076:	41 54                	push   %r12
    5078:	55                   	push   %rbp
    5079:	53                   	push   %rbx
    507a:	48 83 ec 30          	sub    $0x30,%rsp
    507e:	89 44 24 18          	mov    %eax,0x18(%rsp)
    5082:	d1 e8                	shr    %eax
    5084:	41 89 c2             	mov    %eax,%r10d
    5087:	89 44 24 1c          	mov    %eax,0x1c(%rsp)
    508b:	41 0f b7 06          	movzwl (%r14),%eax
    508f:	4d 01 d2             	add    %r10,%r10
    5092:	48 89 3c 24          	mov    %rdi,(%rsp)
    5096:	4e 8d 3c 17          	lea    (%rdi,%r10,1),%r15
    509a:	66 d1 f8             	sar    %ax
    509d:	89 74 24 14          	mov    %esi,0x14(%rsp)
    50a1:	4f 8d 24 17          	lea    (%r15,%r10,1),%r12
    50a5:	98                   	cwtl   
    50a6:	4c 89 7c 24 a8       	mov    %r15,-0x58(%rsp)
    50ab:	41 0f b7 14 24       	movzwl (%r12),%edx
    50b0:	4b 8d 3c 14          	lea    (%r12,%r10,1),%rdi
    50b4:	4c 89 64 24 20       	mov    %r12,0x20(%rsp)
    50b9:	0f b7 0f             	movzwl (%rdi),%ecx
    50bc:	66 d1 fa             	sar    %dx
    50bf:	0f bf d2             	movswl %dx,%edx
    50c2:	66 d1 f9             	sar    %cx
    50c5:	8d 34 10             	lea    (%rax,%rdx,1),%esi
    50c8:	29 d0                	sub    %edx,%eax
    50ca:	41 0f b7 17          	movzwl (%r15),%edx
    50ce:	0f bf c9             	movswl %cx,%ecx
    50d1:	d1 fe                	sar    %esi
    50d3:	d1 f8                	sar    %eax
    50d5:	66 d1 fa             	sar    %dx
    50d8:	0f bf d2             	movswl %dx,%edx
    50db:	44 8d 0c 0a          	lea    (%rdx,%rcx,1),%r9d
    50df:	29 ca                	sub    %ecx,%edx
    50e1:	41 d1 f9             	sar    %r9d
    50e4:	89 d3                	mov    %edx,%ebx
    50e6:	42 8d 14 0e          	lea    (%rsi,%r9,1),%edx
    50ea:	44 29 ce             	sub    %r9d,%esi
    50ed:	d1 fb                	sar    %ebx
    50ef:	d1 fa                	sar    %edx
    50f1:	d1 fe                	sar    %esi
    50f3:	66 41 89 16          	mov    %dx,(%r14)
    50f7:	41 0f b7 56 02       	movzwl 0x2(%r14),%edx
    50fc:	45 0f b7 44 24 02    	movzwl 0x2(%r12),%r8d
    5102:	44 0f b7 5f 02       	movzwl 0x2(%rdi),%r11d
    5107:	66 d1 fa             	sar    %dx
    510a:	66 41 d1 f8          	sar    %r8w
    510e:	0f bf d2             	movswl %dx,%edx
    5111:	66 41 d1 fb          	sar    %r11w
    5115:	45 0f bf c0          	movswl %r8w,%r8d
    5119:	45 0f bf db          	movswl %r11w,%r11d
    511d:	42 8d 0c 02          	lea    (%rdx,%r8,1),%ecx
    5121:	44 29 c2             	sub    %r8d,%edx
    5124:	d1 fa                	sar    %edx
    5126:	d1 f9                	sar    %ecx
    5128:	89 d5                	mov    %edx,%ebp
    512a:	41 0f b7 57 02       	movzwl 0x2(%r15),%edx
    512f:	66 89 54 24 88       	mov    %dx,-0x78(%rsp)
    5134:	66 d1 fa             	sar    %dx
    5137:	0f bf d2             	movswl %dx,%edx
    513a:	46 8d 04 1a          	lea    (%rdx,%r11,1),%r8d
    513e:	44 29 da             	sub    %r11d,%edx
    5141:	41 d1 f8             	sar    %r8d
    5144:	d1 fa                	sar    %edx
    5146:	46 8d 1c 01          	lea    (%rcx,%r8,1),%r11d
    514a:	44 29 c1             	sub    %r8d,%ecx
    514d:	d1 f9                	sar    %ecx
    514f:	41 d1 fb             	sar    %r11d
    5152:	66 45 89 5e 02       	mov    %r11w,0x2(%r14)
    5157:	66 41 89 4f 02       	mov    %cx,0x2(%r15)
    515c:	8d 0c 10             	lea    (%rax,%rdx,1),%ecx
    515f:	d1 f9                	sar    %ecx
    5161:	66 41 89 37          	mov    %si,(%r15)
    5165:	66 41 89 0c 24       	mov    %cx,(%r12)
    516a:	89 e9                	mov    %ebp,%ecx
    516c:	29 d9                	sub    %ebx,%ecx
    516e:	d1 f9                	sar    %ecx
    5170:	29 d0                	sub    %edx,%eax
    5172:	d1 f8                	sar    %eax
    5174:	66 41 89 4c 24 02    	mov    %cx,0x2(%r12)
    517a:	66 89 07             	mov    %ax,(%rdi)
    517d:	8d 04 2b             	lea    (%rbx,%rbp,1),%eax
    5180:	d1 f8                	sar    %eax
    5182:	66 89 47 02          	mov    %ax,0x2(%rdi)
    5186:	49 8d 46 04          	lea    0x4(%r14),%rax
    518a:	48 89 44 24 08       	mov    %rax,0x8(%rsp)
    518f:	49 39 c7             	cmp    %rax,%r15
    5192:	0f 84 f7 02 00 00    	je     548f <riscv_dsp_cfft_rd4_q15+0x42f>
    5198:	49 89 c0             	mov    %rax,%r8
    519b:	b8 0a 00 00 00       	mov    $0xa,%eax
    51a0:	2b 44 24 14          	sub    0x14(%rsp),%eax
    51a4:	45 31 ff             	xor    %r15d,%r15d
    51a7:	89 44 24 88          	mov    %eax,-0x78(%rsp)
    51ab:	48 8b 04 24          	mov    (%rsp),%rax
    51af:	4c 8d 25 ae 47 00 00 	lea    0x47ae(%rip),%r12        # 9964 <riscv_dsp_cos_table_q15_1024+0x4>
    51b6:	41 be 00 01 00 00    	mov    $0x100,%r14d
    51bc:	4e 8d 4c 50 04       	lea    0x4(%rax,%r10,2),%r9
    51c1:	e9 0a 01 00 00       	jmp    52d0 <riscv_dsp_cfft_rd4_q15+0x270>
    51c6:	48 63 db             	movslq %ebx,%rbx
    51c9:	41 0f b7 0c 4c       	movzwl (%r12,%rcx,2),%ecx
    51ce:	41 0f b7 1c 5c       	movzwl (%r12,%rbx,2),%ebx
    51d3:	0f bf c9             	movswl %cx,%ecx
    51d6:	0f bf db             	movswl %bx,%ebx
    51d9:	89 cd                	mov    %ecx,%ebp
    51db:	41 0f af cb          	imul   %r11d,%ecx
    51df:	41 0f af ed          	imul   %r13d,%ebp
    51e3:	89 6c 24 98          	mov    %ebp,-0x68(%rsp)
    51e7:	89 dd                	mov    %ebx,%ebp
    51e9:	41 0f af dd          	imul   %r13d,%ebx
    51ed:	41 0f af eb          	imul   %r11d,%ebp
    51f1:	44 8d 1c 38          	lea    (%rax,%rdi,1),%r11d
    51f5:	29 f8                	sub    %edi,%eax
    51f7:	89 d7                	mov    %edx,%edi
    51f9:	29 f7                	sub    %esi,%edi
    51fb:	01 f2                	add    %esi,%edx
    51fd:	44 89 fe             	mov    %r15d,%esi
    5200:	03 6c 24 98          	add    -0x68(%rsp),%ebp
    5204:	29 d9                	sub    %ebx,%ecx
    5206:	c1 fd 10             	sar    $0x10,%ebp
    5209:	c1 f9 10             	sar    $0x10,%ecx
    520c:	66 43 89 2c 10       	mov    %bp,(%r8,%r10,1)
    5211:	66 43 89 4c 10 02    	mov    %cx,0x2(%r8,%r10,1)
    5217:	0f b6 4c 24 88       	movzbl -0x78(%rsp),%ecx
    521c:	d3 e6                	shl    %cl,%esi
    521e:	48 63 ce             	movslq %esi,%rcx
    5221:	44 89 f6             	mov    %r14d,%esi
    5224:	29 ce                	sub    %ecx,%esi
    5226:	85 f6                	test   %esi,%esi
    5228:	0f 8e a5 01 00 00    	jle    53d3 <riscv_dsp_cfft_rd4_q15+0x373>
    522e:	48 63 f6             	movslq %esi,%rsi
    5231:	41 0f b7 0c 4c       	movzwl (%r12,%rcx,2),%ecx
    5236:	41 0f b7 34 74       	movzwl (%r12,%rsi,2),%esi
    523b:	0f bf c9             	movswl %cx,%ecx
    523e:	0f bf f6             	movswl %si,%esi
    5241:	89 cb                	mov    %ecx,%ebx
    5243:	0f af cf             	imul   %edi,%ecx
    5246:	89 f5                	mov    %esi,%ebp
    5248:	41 0f af f3          	imul   %r11d,%esi
    524c:	41 0f af db          	imul   %r11d,%ebx
    5250:	0f af ef             	imul   %edi,%ebp
    5253:	29 f1                	sub    %esi,%ecx
    5255:	43 8d 34 7f          	lea    (%r15,%r15,2),%esi
    5259:	c1 f9 10             	sar    $0x10,%ecx
    525c:	66 41 89 49 02       	mov    %cx,0x2(%r9)
    5261:	0f b6 4c 24 88       	movzbl -0x78(%rsp),%ecx
    5266:	01 eb                	add    %ebp,%ebx
    5268:	c1 fb 10             	sar    $0x10,%ebx
    526b:	d3 e6                	shl    %cl,%esi
    526d:	66 41 89 19          	mov    %bx,(%r9)
    5271:	48 63 ce             	movslq %esi,%rcx
    5274:	44 89 f6             	mov    %r14d,%esi
    5277:	29 ce                	sub    %ecx,%esi
    5279:	85 f6                	test   %esi,%esi
    527b:	0f 8e 2c 01 00 00    	jle    53ad <riscv_dsp_cfft_rd4_q15+0x34d>
    5281:	48 63 f6             	movslq %esi,%rsi
    5284:	41 0f b7 0c 4c       	movzwl (%r12,%rcx,2),%ecx
    5289:	41 0f b7 34 74       	movzwl (%r12,%rsi,2),%esi
    528e:	0f bf c9             	movswl %cx,%ecx
    5291:	0f bf f6             	movswl %si,%esi
    5294:	49 83 c0 04          	add    $0x4,%r8
    5298:	49 83 c1 04          	add    $0x4,%r9
    529c:	89 cf                	mov    %ecx,%edi
    529e:	0f af ca             	imul   %edx,%ecx
    52a1:	41 89 f3             	mov    %esi,%r11d
    52a4:	0f af f8             	imul   %eax,%edi
    52a7:	44 0f af da          	imul   %edx,%r11d
    52ab:	0f af f0             	imul   %eax,%esi
    52ae:	44 01 df             	add    %r11d,%edi
    52b1:	29 f1                	sub    %esi,%ecx
    52b3:	c1 ff 10             	sar    $0x10,%edi
    52b6:	c1 f9 10             	sar    $0x10,%ecx
    52b9:	66 43 89 7c 11 fc    	mov    %di,-0x4(%r9,%r10,1)
    52bf:	66 43 89 4c 11 fe    	mov    %cx,-0x2(%r9,%r10,1)
    52c5:	4c 39 44 24 a8       	cmp    %r8,-0x58(%rsp)
    52ca:	0f 84 bf 01 00 00    	je     548f <riscv_dsp_cfft_rd4_q15+0x42f>
    52d0:	41 0f b7 09          	movzwl (%r9),%ecx
    52d4:	43 0f b7 34 10       	movzwl (%r8,%r10,1),%esi
    52d9:	41 83 c7 01          	add    $0x1,%r15d
    52dd:	43 0f b7 3c 11       	movzwl (%r9,%r10,1),%edi
    52e2:	41 0f b7 00          	movzwl (%r8),%eax
    52e6:	66 d1 f9             	sar    %cx
    52e9:	66 d1 fe             	sar    %si
    52ec:	66 d1 f8             	sar    %ax
    52ef:	66 d1 ff             	sar    %di
    52f2:	0f bf c9             	movswl %cx,%ecx
    52f5:	0f bf f6             	movswl %si,%esi
    52f8:	0f bf ff             	movswl %di,%edi
    52fb:	98                   	cwtl   
    52fc:	8d 14 08             	lea    (%rax,%rcx,1),%edx
    52ff:	29 c8                	sub    %ecx,%eax
    5301:	8d 0c 3e             	lea    (%rsi,%rdi,1),%ecx
    5304:	29 fe                	sub    %edi,%esi
    5306:	d1 f9                	sar    %ecx
    5308:	d1 fa                	sar    %edx
    530a:	8d 3c 0a             	lea    (%rdx,%rcx,1),%edi
    530d:	d1 f8                	sar    %eax
    530f:	29 ca                	sub    %ecx,%edx
    5311:	d1 fe                	sar    %esi
    5313:	d1 ff                	sar    %edi
    5315:	41 89 d5             	mov    %edx,%r13d
    5318:	41 0f b7 50 02       	movzwl 0x2(%r8),%edx
    531d:	66 41 89 38          	mov    %di,(%r8)
    5321:	41 0f b7 49 02       	movzwl 0x2(%r9),%ecx
    5326:	43 0f b7 7c 10 02    	movzwl 0x2(%r8,%r10,1),%edi
    532c:	43 0f b7 5c 11 02    	movzwl 0x2(%r9,%r10,1),%ebx
    5332:	66 d1 fa             	sar    %dx
    5335:	66 d1 f9             	sar    %cx
    5338:	0f bf d2             	movswl %dx,%edx
    533b:	66 d1 ff             	sar    %di
    533e:	66 d1 fb             	sar    %bx
    5341:	0f bf c9             	movswl %cx,%ecx
    5344:	0f bf db             	movswl %bx,%ebx
    5347:	0f bf ff             	movswl %di,%edi
    534a:	44 8d 1c 0a          	lea    (%rdx,%rcx,1),%r11d
    534e:	29 ca                	sub    %ecx,%edx
    5350:	8d 0c 1f             	lea    (%rdi,%rbx,1),%ecx
    5353:	41 d1 fb             	sar    %r11d
    5356:	29 df                	sub    %ebx,%edi
    5358:	d1 fa                	sar    %edx
    535a:	d1 f9                	sar    %ecx
    535c:	d1 ff                	sar    %edi
    535e:	41 8d 1c 0b          	lea    (%r11,%rcx,1),%ebx
    5362:	41 29 cb             	sub    %ecx,%r11d
    5365:	0f b6 4c 24 88       	movzbl -0x78(%rsp),%ecx
    536a:	d1 fb                	sar    %ebx
    536c:	66 41 89 58 02       	mov    %bx,0x2(%r8)
    5371:	43 8d 1c 3f          	lea    (%r15,%r15,1),%ebx
    5375:	d3 e3                	shl    %cl,%ebx
    5377:	48 63 cb             	movslq %ebx,%rcx
    537a:	44 89 f3             	mov    %r14d,%ebx
    537d:	29 cb                	sub    %ecx,%ebx
    537f:	85 db                	test   %ebx,%ebx
    5381:	0f 8f 3f fe ff ff    	jg     51c6 <riscv_dsp_cfft_rd4_q15+0x166>
    5387:	8d 99 00 ff ff ff    	lea    -0x100(%rcx),%ebx
    538d:	44 89 f5             	mov    %r14d,%ebp
    5390:	29 dd                	sub    %ebx,%ebp
    5392:	85 ed                	test   %ebp,%ebp
    5394:	7e 63                	jle    53f9 <riscv_dsp_cfft_rd4_q15+0x399>
    5396:	48 63 ed             	movslq %ebp,%rbp
    5399:	48 63 db             	movslq %ebx,%rbx
    539c:	41 0f b7 0c 6c       	movzwl (%r12,%rbp,2),%ecx
    53a1:	41 0f b7 1c 5c       	movzwl (%r12,%rbx,2),%ebx
    53a6:	f7 d9                	neg    %ecx
    53a8:	e9 26 fe ff ff       	jmp    51d3 <riscv_dsp_cfft_rd4_q15+0x173>
    53ad:	8d b1 00 ff ff ff    	lea    -0x100(%rcx),%esi
    53b3:	44 89 f7             	mov    %r14d,%edi
    53b6:	29 f7                	sub    %esi,%edi
    53b8:	85 ff                	test   %edi,%edi
    53ba:	7e 6f                	jle    542b <riscv_dsp_cfft_rd4_q15+0x3cb>
    53bc:	48 63 ff             	movslq %edi,%rdi
    53bf:	48 63 f6             	movslq %esi,%rsi
    53c2:	41 0f b7 0c 7c       	movzwl (%r12,%rdi,2),%ecx
    53c7:	41 0f b7 34 74       	movzwl (%r12,%rsi,2),%esi
    53cc:	f7 d9                	neg    %ecx
    53ce:	e9 bb fe ff ff       	jmp    528e <riscv_dsp_cfft_rd4_q15+0x22e>
    53d3:	8d b1 00 ff ff ff    	lea    -0x100(%rcx),%esi
    53d9:	44 89 f3             	mov    %r14d,%ebx
    53dc:	29 f3                	sub    %esi,%ebx
    53de:	85 db                	test   %ebx,%ebx
    53e0:	7e 7b                	jle    545d <riscv_dsp_cfft_rd4_q15+0x3fd>
    53e2:	48 63 db             	movslq %ebx,%rbx
    53e5:	48 63 f6             	movslq %esi,%rsi
    53e8:	41 0f b7 0c 5c       	movzwl (%r12,%rbx,2),%ecx
    53ed:	41 0f b7 34 74       	movzwl (%r12,%rsi,2),%esi
    53f2:	f7 d9                	neg    %ecx
    53f4:	e9 42 fe ff ff       	jmp    523b <riscv_dsp_cfft_rd4_q15+0x1db>
    53f9:	8d 99 00 fe ff ff    	lea    -0x200(%rcx),%ebx
    53ff:	44 89 f5             	mov    %r14d,%ebp
    5402:	29 dd                	sub    %ebx,%ebp
    5404:	48 63 db             	movslq %ebx,%rbx
    5407:	41 0f b7 1c 5c       	movzwl (%r12,%rbx,2),%ebx
    540c:	48 63 cd             	movslq %ebp,%rcx
    540f:	41 0f b7 0c 4c       	movzwl (%r12,%rcx,2),%ecx
    5414:	f7 db                	neg    %ebx
    5416:	85 ed                	test   %ebp,%ebp
    5418:	0f 8e b5 fd ff ff    	jle    51d3 <riscv_dsp_cfft_rd4_q15+0x173>
    541e:	f7 d9                	neg    %ecx
    5420:	89 cd                	mov    %ecx,%ebp
    5422:	89 d9                	mov    %ebx,%ecx
    5424:	89 eb                	mov    %ebp,%ebx
    5426:	e9 a8 fd ff ff       	jmp    51d3 <riscv_dsp_cfft_rd4_q15+0x173>
    542b:	8d b1 00 fe ff ff    	lea    -0x200(%rcx),%esi
    5431:	44 89 f7             	mov    %r14d,%edi
    5434:	29 f7                	sub    %esi,%edi
    5436:	48 63 f6             	movslq %esi,%rsi
    5439:	41 0f b7 34 74       	movzwl (%r12,%rsi,2),%esi
    543e:	48 63 cf             	movslq %edi,%rcx
    5441:	41 0f b7 0c 4c       	movzwl (%r12,%rcx,2),%ecx
    5446:	f7 de                	neg    %esi
    5448:	85 ff                	test   %edi,%edi
    544a:	0f 8e 3e fe ff ff    	jle    528e <riscv_dsp_cfft_rd4_q15+0x22e>
    5450:	89 cf                	mov    %ecx,%edi
    5452:	89 f1                	mov    %esi,%ecx
    5454:	f7 df                	neg    %edi
    5456:	89 fe                	mov    %edi,%esi
    5458:	e9 31 fe ff ff       	jmp    528e <riscv_dsp_cfft_rd4_q15+0x22e>
    545d:	8d b1 00 fe ff ff    	lea    -0x200(%rcx),%esi
    5463:	44 89 f3             	mov    %r14d,%ebx
    5466:	29 f3                	sub    %esi,%ebx
    5468:	48 63 f6             	movslq %esi,%rsi
    546b:	41 0f b7 34 74       	movzwl (%r12,%rsi,2),%esi
    5470:	48 63 cb             	movslq %ebx,%rcx
    5473:	41 0f b7 0c 4c       	movzwl (%r12,%rcx,2),%ecx
    5478:	f7 de                	neg    %esi
    547a:	85 db                	test   %ebx,%ebx
    547c:	0f 8e b9 fd ff ff    	jle    523b <riscv_dsp_cfft_rd4_q15+0x1db>
    5482:	f7 d9                	neg    %ecx
    5484:	89 cb                	mov    %ecx,%ebx
    5486:	89 f1                	mov    %esi,%ecx
    5488:	89 de                	mov    %ebx,%esi
    548a:	e9 ac fd ff ff       	jmp    523b <riscv_dsp_cfft_rd4_q15+0x1db>
    548f:	8b 74 24 14          	mov    0x14(%rsp),%esi
    5493:	8b 7c 24 1c          	mov    0x1c(%rsp),%edi
    5497:	c7 44 24 e4 04 00 00 	movl   $0x4,-0x1c(%rsp)
    549e:	00 
    549f:	89 f0                	mov    %esi,%eax
    54a1:	89 7c 24 fc          	mov    %edi,-0x4(%rsp)
    54a5:	d1 e8                	shr    %eax
    54a7:	83 e8 02             	sub    $0x2,%eax
    54aa:	89 44 24 10          	mov    %eax,0x10(%rsp)
    54ae:	0f 84 6f 03 00 00    	je     5823 <riscv_dsp_cfft_rd4_q15+0x7c3>
    54b4:	b8 0a 00 00 00       	mov    $0xa,%eax
    54b9:	29 f0                	sub    %esi,%eax
    54bb:	89 44 24 f8          	mov    %eax,-0x8(%rsp)
    54bf:	90                   	nop
    54c0:	48 8b 04 24          	mov    (%rsp),%rax
    54c4:	8b 74 24 e4          	mov    -0x1c(%rsp),%esi
    54c8:	c1 6c 24 fc 02       	shrl   $0x2,-0x4(%rsp)
    54cd:	44 8b 74 24 fc       	mov    -0x4(%rsp),%r14d
    54d2:	4f 8d 3c 36          	lea    (%r14,%r14,1),%r15
    54d6:	4c 01 f8             	add    %r15,%rax
    54d9:	48 89 44 24 e8       	mov    %rax,-0x18(%rsp)
    54de:	85 f6                	test   %esi,%esi
    54e0:	0f 84 d0 00 00 00    	je     55b6 <riscv_dsp_cfft_rd4_q15+0x556>
    54e6:	48 8b 0c 24          	mov    (%rsp),%rcx
    54ea:	8b 6c 24 e4          	mov    -0x1c(%rsp),%ebp
    54ee:	4e 8d 24 f5 00 00 00 	lea    0x0(,%r14,8),%r12
    54f5:	00 
    54f6:	4a 8d 34 38          	lea    (%rax,%r15,1),%rsi
    54fa:	66 0f 1f 44 00 00    	nopw   0x0(%rax,%rax,1)
    5500:	0f bf 06             	movswl (%rsi),%eax
    5503:	0f bf 11             	movswl (%rcx),%edx
    5506:	42 0f bf 3c 3e       	movswl (%rsi,%r15,1),%edi
    550b:	44 0f bf 49 02       	movswl 0x2(%rcx),%r9d
    5510:	44 8d 04 02          	lea    (%rdx,%rax,1),%r8d
    5514:	29 c2                	sub    %eax,%edx
    5516:	42 0f bf 04 39       	movswl (%rcx,%r15,1),%eax
    551b:	41 d1 f8             	sar    %r8d
    551e:	d1 fa                	sar    %edx
    5520:	8d 1c 38             	lea    (%rax,%rdi,1),%ebx
    5523:	29 f8                	sub    %edi,%eax
    5525:	d1 fb                	sar    %ebx
    5527:	d1 f8                	sar    %eax
    5529:	41 8d 3c 18          	lea    (%r8,%rbx,1),%edi
    552d:	41 29 d8             	sub    %ebx,%r8d
    5530:	d1 ff                	sar    %edi
    5532:	41 d1 f8             	sar    %r8d
    5535:	66 89 39             	mov    %di,(%rcx)
    5538:	44 0f bf 56 02       	movswl 0x2(%rsi),%r10d
    553d:	46 0f bf 6c 3e 02    	movswl 0x2(%rsi,%r15,1),%r13d
    5543:	43 8d 3c 11          	lea    (%r9,%r10,1),%edi
    5547:	45 29 d1             	sub    %r10d,%r9d
    554a:	46 0f bf 54 39 02    	movswl 0x2(%rcx,%r15,1),%r10d
    5550:	d1 ff                	sar    %edi
    5552:	41 d1 f9             	sar    %r9d
    5555:	47 8d 1c 2a          	lea    (%r10,%r13,1),%r11d
    5559:	45 29 ea             	sub    %r13d,%r10d
    555c:	41 d1 fb             	sar    %r11d
    555f:	41 d1 fa             	sar    %r10d
    5562:	46 8d 2c 1f          	lea    (%rdi,%r11,1),%r13d
    5566:	44 29 df             	sub    %r11d,%edi
    5569:	d1 ff                	sar    %edi
    556b:	41 d1 fd             	sar    %r13d
    556e:	66 44 89 69 02       	mov    %r13w,0x2(%rcx)
    5573:	66 42 89 7c 39 02    	mov    %di,0x2(%rcx,%r15,1)
    5579:	42 8d 3c 12          	lea    (%rdx,%r10,1),%edi
    557d:	44 29 d2             	sub    %r10d,%edx
    5580:	d1 ff                	sar    %edi
    5582:	66 46 89 04 39       	mov    %r8w,(%rcx,%r15,1)
    5587:	d1 fa                	sar    %edx
    5589:	4c 01 e1             	add    %r12,%rcx
    558c:	66 89 3e             	mov    %di,(%rsi)
    558f:	44 89 cf             	mov    %r9d,%edi
    5592:	29 c7                	sub    %eax,%edi
    5594:	44 01 c8             	add    %r9d,%eax
    5597:	d1 ff                	sar    %edi
    5599:	d1 f8                	sar    %eax
    559b:	66 89 7e 02          	mov    %di,0x2(%rsi)
    559f:	66 42 89 14 3e       	mov    %dx,(%rsi,%r15,1)
    55a4:	66 42 89 44 3e 02    	mov    %ax,0x2(%rsi,%r15,1)
    55aa:	4c 01 e6             	add    %r12,%rsi
    55ad:	83 ed 01             	sub    $0x1,%ebp
    55b0:	0f 85 4a ff ff ff    	jne    5500 <riscv_dsp_cfft_rd4_q15+0x4a0>
    55b6:	48 8b 74 24 e8       	mov    -0x18(%rsp),%rsi
    55bb:	48 39 74 24 08       	cmp    %rsi,0x8(%rsp)
    55c0:	0f 84 4d 02 00 00    	je     5813 <riscv_dsp_cfft_rd4_q15+0x7b3>
    55c6:	4a 8d 04 b5 00 00 00 	lea    0x0(,%r14,4),%rax
    55cd:	00 
    55ce:	c7 44 24 e0 00 00 00 	movl   $0x0,-0x20(%rsp)
    55d5:	00 
    55d6:	4a 8d 2c f5 00 00 00 	lea    0x0(,%r14,8),%rbp
    55dd:	00 
    55de:	48 89 44 24 f0       	mov    %rax,-0x10(%rsp)
    55e3:	48 8b 44 24 08       	mov    0x8(%rsp),%rax
    55e8:	48 89 44 24 d8       	mov    %rax,-0x28(%rsp)
    55ed:	0f 1f 00             	nopl   (%rax)
    55f0:	0f b6 4c 24 f8       	movzbl -0x8(%rsp),%ecx
    55f5:	8b 74 24 e4          	mov    -0x1c(%rsp),%esi
    55f9:	01 74 24 e0          	add    %esi,-0x20(%rsp)
    55fd:	8b 44 24 e0          	mov    -0x20(%rsp),%eax
    5601:	d3 e0                	shl    %cl,%eax
    5603:	b9 00 01 00 00       	mov    $0x100,%ecx
    5608:	29 c1                	sub    %eax,%ecx
    560a:	85 c9                	test   %ecx,%ecx
    560c:	0f 8e 5e 0d 00 00    	jle    6370 <riscv_dsp_cfft_rd4_q15+0x1310>
    5612:	48 98                	cltq   
    5614:	48 8d 3d 49 43 00 00 	lea    0x4349(%rip),%rdi        # 9964 <riscv_dsp_cos_table_q15_1024+0x4>
    561b:	48 63 c9             	movslq %ecx,%rcx
    561e:	0f b7 14 47          	movzwl (%rdi,%rax,2),%edx
    5622:	0f b7 04 4f          	movzwl (%rdi,%rcx,2),%eax
    5626:	8b 74 24 e0          	mov    -0x20(%rsp),%esi
    562a:	0f b6 4c 24 f8       	movzbl -0x8(%rsp),%ecx
    562f:	01 f6                	add    %esi,%esi
    5631:	d3 e6                	shl    %cl,%esi
    5633:	48 63 ce             	movslq %esi,%rcx
    5636:	be 00 01 00 00       	mov    $0x100,%esi
    563b:	29 ce                	sub    %ecx,%esi
    563d:	85 f6                	test   %esi,%esi
    563f:	0f 8e bb 0c 00 00    	jle    6300 <riscv_dsp_cfft_rd4_q15+0x12a0>
    5645:	48 8d 1d 18 43 00 00 	lea    0x4318(%rip),%rbx        # 9964 <riscv_dsp_cos_table_q15_1024+0x4>
    564c:	48 63 f6             	movslq %esi,%rsi
    564f:	0f b7 3c 4b          	movzwl (%rbx,%rcx,2),%edi
    5653:	0f b7 34 73          	movzwl (%rbx,%rsi,2),%esi
    5657:	8b 4c 24 e0          	mov    -0x20(%rsp),%ecx
