
t_mul_q7:     file format elf64-x86-64


Disassembly of section .init:

0000000000001000 <_init>:
    1000:	f3 0f 1e fa          	endbr64 
    1004:	48 83 ec 08          	sub    $0x8,%rsp
    1008:	48 8b 05 d9 3f 00 00 	mov    0x3fd9(%rip),%rax        # 4fe8 <__gmon_start__@Base>
    100f:	48 85 c0             	test   %rax,%rax
    1012:	74 02                	je     1016 <_init+0x16>
    1014:	ff d0                	call   *%rax
    1016:	48 83 c4 08          	add    $0x8,%rsp
    101a:	c3                   	ret    

Disassembly of section .plt:

0000000000001020 <.plt>:
    1020:	ff 35 5a 3f 00 00    	push   0x3f5a(%rip)        # 4f80 <_GLOBAL_OFFSET_TABLE_+0x8>
    1026:	f2 ff 25 5b 3f 00 00 	bnd jmp *0x3f5b(%rip)        # 4f88 <_GLOBAL_OFFSET_TABLE_+0x10>
    102d:	0f 1f 00             	nopl   (%rax)
    1030:	f3 0f 1e fa          	endbr64 
    1034:	68 00 00 00 00       	push   $0x0
    1039:	f2 e9 e1 ff ff ff    	bnd jmp 1020 <_init+0x20>
    103f:	90                   	nop
    1040:	f3 0f 1e fa          	endbr64 
    1044:	68 01 00 00 00       	push   $0x1
    1049:	f2 e9 d1 ff ff ff    	bnd jmp 1020 <_init+0x20>
    104f:	90                   	nop
    1050:	f3 0f 1e fa          	endbr64 
    1054:	68 02 00 00 00       	push   $0x2
    1059:	f2 e9 c1 ff ff ff    	bnd jmp 1020 <_init+0x20>
    105f:	90                   	nop
    1060:	f3 0f 1e fa          	endbr64 
    1064:	68 03 00 00 00       	push   $0x3
    1069:	f2 e9 b1 ff ff ff    	bnd jmp 1020 <_init+0x20>
    106f:	90                   	nop
    1070:	f3 0f 1e fa          	endbr64 
    1074:	68 04 00 00 00       	push   $0x4
    1079:	f2 e9 a1 ff ff ff    	bnd jmp 1020 <_init+0x20>
    107f:	90                   	nop
    1080:	f3 0f 1e fa          	endbr64 
    1084:	68 05 00 00 00       	push   $0x5
    1089:	f2 e9 91 ff ff ff    	bnd jmp 1020 <_init+0x20>
    108f:	90                   	nop
    1090:	f3 0f 1e fa          	endbr64 
    1094:	68 06 00 00 00       	push   $0x6
    1099:	f2 e9 81 ff ff ff    	bnd jmp 1020 <_init+0x20>
    109f:	90                   	nop
    10a0:	f3 0f 1e fa          	endbr64 
    10a4:	68 07 00 00 00       	push   $0x7
    10a9:	f2 e9 71 ff ff ff    	bnd jmp 1020 <_init+0x20>
    10af:	90                   	nop
    10b0:	f3 0f 1e fa          	endbr64 
    10b4:	68 08 00 00 00       	push   $0x8
    10b9:	f2 e9 61 ff ff ff    	bnd jmp 1020 <_init+0x20>
    10bf:	90                   	nop

Disassembly of section .plt.got:

00000000000010c0 <__cxa_finalize@plt>:
    10c0:	f3 0f 1e fa          	endbr64 
    10c4:	f2 ff 25 2d 3f 00 00 	bnd jmp *0x3f2d(%rip)        # 4ff8 <__cxa_finalize@GLIBC_2.2.5>
    10cb:	0f 1f 44 00 00       	nopl   0x0(%rax,%rax,1)

Disassembly of section .plt.sec:

00000000000010d0 <puts@plt>:
    10d0:	f3 0f 1e fa          	endbr64 
    10d4:	f2 ff 25 b5 3e 00 00 	bnd jmp *0x3eb5(%rip)        # 4f90 <puts@GLIBC_2.2.5>
    10db:	0f 1f 44 00 00       	nopl   0x0(%rax,%rax,1)

00000000000010e0 <fread@plt>:
    10e0:	f3 0f 1e fa          	endbr64 
    10e4:	f2 ff 25 ad 3e 00 00 	bnd jmp *0x3ead(%rip)        # 4f98 <fread@GLIBC_2.2.5>
    10eb:	0f 1f 44 00 00       	nopl   0x0(%rax,%rax,1)

00000000000010f0 <fclose@plt>:
    10f0:	f3 0f 1e fa          	endbr64 
    10f4:	f2 ff 25 a5 3e 00 00 	bnd jmp *0x3ea5(%rip)        # 4fa0 <fclose@GLIBC_2.2.5>
    10fb:	0f 1f 44 00 00       	nopl   0x0(%rax,%rax,1)

0000000000001100 <__stack_chk_fail@plt>:
    1100:	f3 0f 1e fa          	endbr64 
    1104:	f2 ff 25 9d 3e 00 00 	bnd jmp *0x3e9d(%rip)        # 4fa8 <__stack_chk_fail@GLIBC_2.4>
    110b:	0f 1f 44 00 00       	nopl   0x0(%rax,%rax,1)

0000000000001110 <log10f@plt>:
    1110:	f3 0f 1e fa          	endbr64 
    1114:	f2 ff 25 95 3e 00 00 	bnd jmp *0x3e95(%rip)        # 4fb0 <log10f@GLIBC_2.2.5>
    111b:	0f 1f 44 00 00       	nopl   0x0(%rax,%rax,1)

0000000000001120 <__printf_chk@plt>:
    1120:	f3 0f 1e fa          	endbr64 
    1124:	f2 ff 25 8d 3e 00 00 	bnd jmp *0x3e8d(%rip)        # 4fb8 <__printf_chk@GLIBC_2.3.4>
    112b:	0f 1f 44 00 00       	nopl   0x0(%rax,%rax,1)

0000000000001130 <fopen@plt>:
    1130:	f3 0f 1e fa          	endbr64 
    1134:	f2 ff 25 85 3e 00 00 	bnd jmp *0x3e85(%rip)        # 4fc0 <fopen@GLIBC_2.2.5>
    113b:	0f 1f 44 00 00       	nopl   0x0(%rax,%rax,1)

0000000000001140 <sqrt@plt>:
    1140:	f3 0f 1e fa          	endbr64 
    1144:	f2 ff 25 7d 3e 00 00 	bnd jmp *0x3e7d(%rip)        # 4fc8 <sqrt@GLIBC_2.2.5>
    114b:	0f 1f 44 00 00       	nopl   0x0(%rax,%rax,1)

0000000000001150 <__sprintf_chk@plt>:
    1150:	f3 0f 1e fa          	endbr64 
    1154:	f2 ff 25 75 3e 00 00 	bnd jmp *0x3e75(%rip)        # 4fd0 <__sprintf_chk@GLIBC_2.3.4>
    115b:	0f 1f 44 00 00       	nopl   0x0(%rax,%rax,1)

Disassembly of section .text:

0000000000001160 <main>:
    1160:	f3 0f 1e fa          	endbr64 
    1164:	55                   	push   %rbp
    1165:	be 01 00 00 00       	mov    $0x1,%esi
    116a:	4c 8d 05 97 1e 00 00 	lea    0x1e97(%rip),%r8        # 3008 <_IO_stdin_used+0x8>
    1171:	48 8d 0d 2a 1f 00 00 	lea    0x1f2a(%rip),%rcx        # 30a2 <_IO_stdin_used+0xa2>
    1178:	ba 00 02 00 00       	mov    $0x200,%edx
    117d:	48 89 e5             	mov    %rsp,%rbp
    1180:	41 57                	push   %r15
    1182:	4c 8d 3d 30 1f 00 00 	lea    0x1f30(%rip),%r15        # 30b9 <_IO_stdin_used+0xb9>
    1189:	41 56                	push   %r14
    118b:	41 55                	push   %r13
    118d:	41 54                	push   %r12
    118f:	4c 8d a5 c0 fd ff ff 	lea    -0x240(%rbp),%r12
    1196:	53                   	push   %rbx
    1197:	4c 89 e7             	mov    %r12,%rdi
    119a:	48 81 ec 48 06 00 00 	sub    $0x648,%rsp
    11a1:	64 48 8b 04 25 28 00 	mov    %fs:0x28,%rax
    11a8:	00 00 
    11aa:	48 89 45 c8          	mov    %rax,-0x38(%rbp)
    11ae:	31 c0                	xor    %eax,%eax
    11b0:	e8 9b ff ff ff       	call   1150 <__sprintf_chk@plt>
    11b5:	4c 89 fe             	mov    %r15,%rsi
    11b8:	4c 89 e7             	mov    %r12,%rdi
    11bb:	e8 70 ff ff ff       	call   1130 <fopen@plt>
    11c0:	48 85 c0             	test   %rax,%rax
    11c3:	0f 84 ee 08 00 00    	je     1ab7 <main+0x957>
    11c9:	ba 00 02 00 00       	mov    $0x200,%edx
    11ce:	4c 89 e7             	mov    %r12,%rdi
    11d1:	be 01 00 00 00       	mov    $0x1,%esi
    11d6:	49 89 c5             	mov    %rax,%r13
    11d9:	4c 8d 05 28 1e 00 00 	lea    0x1e28(%rip),%r8        # 3008 <_IO_stdin_used+0x8>
    11e0:	48 8d 0d d4 1e 00 00 	lea    0x1ed4(%rip),%rcx        # 30bb <_IO_stdin_used+0xbb>
    11e7:	31 c0                	xor    %eax,%eax
    11e9:	e8 62 ff ff ff       	call   1150 <__sprintf_chk@plt>
    11ee:	4c 89 e7             	mov    %r12,%rdi
    11f1:	4c 89 fe             	mov    %r15,%rsi
    11f4:	e8 37 ff ff ff       	call   1130 <fopen@plt>
    11f9:	4c 89 e7             	mov    %r12,%rdi
    11fc:	ba 00 02 00 00       	mov    $0x200,%edx
    1201:	4c 8d 05 00 1e 00 00 	lea    0x1e00(%rip),%r8        # 3008 <_IO_stdin_used+0x8>
    1208:	48 8d 0d c3 1e 00 00 	lea    0x1ec3(%rip),%rcx        # 30d2 <_IO_stdin_used+0xd2>
    120f:	be 01 00 00 00       	mov    $0x1,%esi
    1214:	49 89 c6             	mov    %rax,%r14
    1217:	31 c0                	xor    %eax,%eax
    1219:	e8 32 ff ff ff       	call   1150 <__sprintf_chk@plt>
    121e:	4c 89 e7             	mov    %r12,%rdi
    1221:	4c 89 fe             	mov    %r15,%rsi
    1224:	e8 07 ff ff ff       	call   1130 <fopen@plt>
    1229:	49 89 c4             	mov    %rax,%r12
    122c:	48 85 c0             	test   %rax,%rax
    122f:	0f 84 82 08 00 00    	je     1ab7 <main+0x957>
    1235:	4c 8d bd c0 f9 ff ff 	lea    -0x640(%rbp),%r15
    123c:	48 8d 9d c0 fa ff ff 	lea    -0x540(%rbp),%rbx
    1243:	4c 89 ee             	mov    %r13,%rsi
    1246:	4c 89 ff             	mov    %r15,%rdi
    1249:	e8 72 09 00 00       	call   1bc0 <test_Fread.constprop.0.isra.0>
    124e:	48 89 df             	mov    %rbx,%rdi
    1251:	4c 89 f6             	mov    %r14,%rsi
    1254:	e8 67 09 00 00       	call   1bc0 <test_Fread.constprop.0.isra.0>
    1259:	48 8d 85 c0 fc ff ff 	lea    -0x340(%rbp),%rax
    1260:	4c 89 e6             	mov    %r12,%rsi
    1263:	48 89 c7             	mov    %rax,%rdi
    1266:	48 89 85 98 f9 ff ff 	mov    %rax,-0x668(%rbp)
    126d:	e8 4e 09 00 00       	call   1bc0 <test_Fread.constprop.0.isra.0>
    1272:	48 89 de             	mov    %rbx,%rsi
    1275:	4c 89 ff             	mov    %r15,%rdi
    1278:	b9 ff 00 00 00       	mov    $0xff,%ecx
    127d:	48 8d 85 c0 fb ff ff 	lea    -0x440(%rbp),%rax
    1284:	48 89 c2             	mov    %rax,%rdx
    1287:	48 89 85 90 f9 ff ff 	mov    %rax,-0x670(%rbp)
    128e:	e8 dd 0b 00 00       	call   1e70 <riscv_dsp_mul_q7>
    1293:	66 0f ef c0          	pxor   %xmm0,%xmm0
    1297:	66 0f 6f 8d c0 fb ff 	movdqa -0x440(%rbp),%xmm1
    129e:	ff 
    129f:	66 0f f8 8d c0 fc ff 	psubb  -0x340(%rbp),%xmm1
    12a6:	ff 
    12a7:	66 0f 6f d0          	movdqa %xmm0,%xmm2
    12ab:	66 0f 6f d8          	movdqa %xmm0,%xmm3
    12af:	66 0f 6f e0          	movdqa %xmm0,%xmm4
    12b3:	0f b6 95 b0 fc ff ff 	movzbl -0x350(%rbp),%edx
    12ba:	66 0f f8 d1          	psubb  %xmm1,%xmm2
    12be:	66 0f da d1          	pminub %xmm1,%xmm2
    12c2:	66 0f 6f 8d d0 fb ff 	movdqa -0x430(%rbp),%xmm1
    12c9:	ff 
    12ca:	66 0f f8 8d d0 fc ff 	psubb  -0x330(%rbp),%xmm1
    12d1:	ff 
    12d2:	66 0f f8 d9          	psubb  %xmm1,%xmm3
    12d6:	66 0f da d9          	pminub %xmm1,%xmm3
    12da:	66 0f 6f ca          	movdqa %xmm2,%xmm1
    12de:	66 0f 64 cb          	pcmpgtb %xmm3,%xmm1
    12e2:	66 0f db d1          	pand   %xmm1,%xmm2
    12e6:	66 0f df cb          	pandn  %xmm3,%xmm1
    12ea:	66 0f 6f 9d e0 fb ff 	movdqa -0x420(%rbp),%xmm3
    12f1:	ff 
    12f2:	66 0f f8 9d e0 fc ff 	psubb  -0x320(%rbp),%xmm3
    12f9:	ff 
    12fa:	66 0f eb ca          	por    %xmm2,%xmm1
    12fe:	66 0f 6f d0          	movdqa %xmm0,%xmm2
    1302:	66 0f f8 d3          	psubb  %xmm3,%xmm2
    1306:	66 0f da d3          	pminub %xmm3,%xmm2
    130a:	66 0f 6f 9d f0 fb ff 	movdqa -0x410(%rbp),%xmm3
    1311:	ff 
    1312:	66 0f f8 9d f0 fc ff 	psubb  -0x310(%rbp),%xmm3
    1319:	ff 
    131a:	66 0f f8 e3          	psubb  %xmm3,%xmm4
    131e:	66 0f da e3          	pminub %xmm3,%xmm4
    1322:	66 0f 6f da          	movdqa %xmm2,%xmm3
    1326:	66 0f 64 dc          	pcmpgtb %xmm4,%xmm3
    132a:	66 0f db d3          	pand   %xmm3,%xmm2
    132e:	66 0f df dc          	pandn  %xmm4,%xmm3
    1332:	66 0f 6f e0          	movdqa %xmm0,%xmm4
    1336:	66 0f eb da          	por    %xmm2,%xmm3
    133a:	66 0f 6f d1          	movdqa %xmm1,%xmm2
    133e:	66 0f 64 d3          	pcmpgtb %xmm3,%xmm2
    1342:	66 0f db ca          	pand   %xmm2,%xmm1
    1346:	66 0f df d3          	pandn  %xmm3,%xmm2
    134a:	66 0f 6f d8          	movdqa %xmm0,%xmm3
    134e:	66 0f eb d1          	por    %xmm1,%xmm2
    1352:	66 0f 6f 8d 00 fc ff 	movdqa -0x400(%rbp),%xmm1
    1359:	ff 
    135a:	66 0f f8 8d 00 fd ff 	psubb  -0x300(%rbp),%xmm1
    1361:	ff 
    1362:	66 0f f8 d9          	psubb  %xmm1,%xmm3
    1366:	66 0f da d9          	pminub %xmm1,%xmm3
    136a:	66 0f 6f 8d 10 fc ff 	movdqa -0x3f0(%rbp),%xmm1
    1371:	ff 
    1372:	66 0f f8 8d 10 fd ff 	psubb  -0x2f0(%rbp),%xmm1
    1379:	ff 
    137a:	66 0f f8 e1          	psubb  %xmm1,%xmm4
    137e:	66 0f da e1          	pminub %xmm1,%xmm4
    1382:	66 0f 6f cb          	movdqa %xmm3,%xmm1
    1386:	66 0f 64 cc          	pcmpgtb %xmm4,%xmm1
    138a:	66 0f db d9          	pand   %xmm1,%xmm3
    138e:	66 0f df cc          	pandn  %xmm4,%xmm1
    1392:	66 0f 6f e0          	movdqa %xmm0,%xmm4
    1396:	66 0f eb cb          	por    %xmm3,%xmm1
    139a:	66 0f 6f d9          	movdqa %xmm1,%xmm3
    139e:	66 0f 64 d8          	pcmpgtb %xmm0,%xmm3
    13a2:	66 0f db cb          	pand   %xmm3,%xmm1
    13a6:	66 0f 6f da          	movdqa %xmm2,%xmm3
    13aa:	66 0f 64 d9          	pcmpgtb %xmm1,%xmm3
    13ae:	66 0f db d3          	pand   %xmm3,%xmm2
    13b2:	66 0f df d9          	pandn  %xmm1,%xmm3
    13b6:	66 0f eb da          	por    %xmm2,%xmm3
    13ba:	66 0f 6f 95 20 fc ff 	movdqa -0x3e0(%rbp),%xmm2
    13c1:	ff 
    13c2:	66 0f f8 95 20 fd ff 	psubb  -0x2e0(%rbp),%xmm2
    13c9:	ff 
    13ca:	66 0f 6f cb          	movdqa %xmm3,%xmm1
    13ce:	66 0f 6f d8          	movdqa %xmm0,%xmm3
    13d2:	66 0f f8 da          	psubb  %xmm2,%xmm3
    13d6:	66 0f da da          	pminub %xmm2,%xmm3
    13da:	66 0f 6f 95 30 fc ff 	movdqa -0x3d0(%rbp),%xmm2
    13e1:	ff 
    13e2:	66 0f f8 95 30 fd ff 	psubb  -0x2d0(%rbp),%xmm2
    13e9:	ff 
    13ea:	66 0f f8 e2          	psubb  %xmm2,%xmm4
    13ee:	66 0f da e2          	pminub %xmm2,%xmm4
    13f2:	66 0f 6f d3          	movdqa %xmm3,%xmm2
    13f6:	66 0f 64 d4          	pcmpgtb %xmm4,%xmm2
    13fa:	66 0f db da          	pand   %xmm2,%xmm3
    13fe:	66 0f df d4          	pandn  %xmm4,%xmm2
    1402:	66 0f 6f e0          	movdqa %xmm0,%xmm4
    1406:	66 0f eb d3          	por    %xmm3,%xmm2
    140a:	66 0f 6f 9d 40 fc ff 	movdqa -0x3c0(%rbp),%xmm3
    1411:	ff 
    1412:	66 0f f8 9d 40 fd ff 	psubb  -0x2c0(%rbp),%xmm3
    1419:	ff 
    141a:	66 0f f8 e3          	psubb  %xmm3,%xmm4
    141e:	66 0f da e3          	pminub %xmm3,%xmm4
    1422:	66 0f 6f da          	movdqa %xmm2,%xmm3
    1426:	66 0f 64 dc          	pcmpgtb %xmm4,%xmm3
    142a:	66 0f db d3          	pand   %xmm3,%xmm2
    142e:	66 0f df dc          	pandn  %xmm4,%xmm3
    1432:	66 0f 6f e0          	movdqa %xmm0,%xmm4
    1436:	66 0f eb da          	por    %xmm2,%xmm3
    143a:	66 0f 6f d1          	movdqa %xmm1,%xmm2
    143e:	66 0f 64 d3          	pcmpgtb %xmm3,%xmm2
    1442:	66 0f db ca          	pand   %xmm2,%xmm1
    1446:	66 0f df d3          	pandn  %xmm3,%xmm2
    144a:	66 0f 6f d8          	movdqa %xmm0,%xmm3
    144e:	66 0f eb d1          	por    %xmm1,%xmm2
    1452:	66 0f 6f 8d 50 fc ff 	movdqa -0x3b0(%rbp),%xmm1
    1459:	ff 
    145a:	66 0f f8 8d 50 fd ff 	psubb  -0x2b0(%rbp),%xmm1
    1461:	ff 
    1462:	66 0f f8 d9          	psubb  %xmm1,%xmm3
    1466:	66 0f da d9          	pminub %xmm1,%xmm3
    146a:	66 0f 6f 8d 60 fc ff 	movdqa -0x3a0(%rbp),%xmm1
    1471:	ff 
    1472:	66 0f f8 8d 60 fd ff 	psubb  -0x2a0(%rbp),%xmm1
    1479:	ff 
    147a:	66 0f f8 e1          	psubb  %xmm1,%xmm4
    147e:	66 0f da e1          	pminub %xmm1,%xmm4
    1482:	66 0f 6f cb          	movdqa %xmm3,%xmm1
    1486:	66 0f 64 cc          	pcmpgtb %xmm4,%xmm1
    148a:	66 0f db d9          	pand   %xmm1,%xmm3
    148e:	66 0f df cc          	pandn  %xmm4,%xmm1
    1492:	66 0f 6f e0          	movdqa %xmm0,%xmm4
    1496:	66 0f eb cb          	por    %xmm3,%xmm1
    149a:	66 0f 6f 9d 70 fc ff 	movdqa -0x390(%rbp),%xmm3
    14a1:	ff 
    14a2:	66 0f f8 9d 70 fd ff 	psubb  -0x290(%rbp),%xmm3
    14a9:	ff 
    14aa:	66 0f f8 e3          	psubb  %xmm3,%xmm4
    14ae:	66 0f da e3          	pminub %xmm3,%xmm4
    14b2:	66 0f 6f d9          	movdqa %xmm1,%xmm3
    14b6:	66 0f 64 dc          	pcmpgtb %xmm4,%xmm3
    14ba:	66 0f db cb          	pand   %xmm3,%xmm1
    14be:	66 0f df dc          	pandn  %xmm4,%xmm3
    14c2:	66 0f 6f e0          	movdqa %xmm0,%xmm4
    14c6:	66 0f eb d9          	por    %xmm1,%xmm3
    14ca:	66 0f 6f ca          	movdqa %xmm2,%xmm1
    14ce:	66 0f 64 cb          	pcmpgtb %xmm3,%xmm1
    14d2:	66 0f db d1          	pand   %xmm1,%xmm2
    14d6:	66 0f df cb          	pandn  %xmm3,%xmm1
    14da:	66 0f 6f d8          	movdqa %xmm0,%xmm3
    14de:	66 0f eb ca          	por    %xmm2,%xmm1
    14e2:	66 0f 6f 95 80 fc ff 	movdqa -0x380(%rbp),%xmm2
    14e9:	ff 
    14ea:	66 0f f8 95 80 fd ff 	psubb  -0x280(%rbp),%xmm2
    14f1:	ff 
    14f2:	66 0f f8 da          	psubb  %xmm2,%xmm3
    14f6:	66 0f da da          	pminub %xmm2,%xmm3
    14fa:	66 0f 6f 95 90 fc ff 	movdqa -0x370(%rbp),%xmm2
    1501:	ff 
    1502:	66 0f f8 95 90 fd ff 	psubb  -0x270(%rbp),%xmm2
    1509:	ff 
    150a:	66 0f f8 e2          	psubb  %xmm2,%xmm4
    150e:	66 0f da e2          	pminub %xmm2,%xmm4
    1512:	66 0f 6f d3          	movdqa %xmm3,%xmm2
    1516:	66 0f 64 d4          	pcmpgtb %xmm4,%xmm2
    151a:	66 0f db da          	pand   %xmm2,%xmm3
    151e:	66 0f df d4          	pandn  %xmm4,%xmm2
    1522:	66 0f eb d3          	por    %xmm3,%xmm2
    1526:	66 0f 6f 9d a0 fc ff 	movdqa -0x360(%rbp),%xmm3
    152d:	ff 
    152e:	66 0f f8 9d a0 fd ff 	psubb  -0x260(%rbp),%xmm3
    1535:	ff 
    1536:	66 0f f8 c3          	psubb  %xmm3,%xmm0
    153a:	66 0f da c3          	pminub %xmm3,%xmm0
    153e:	66 0f 6f da          	movdqa %xmm2,%xmm3
    1542:	66 0f 64 d8          	pcmpgtb %xmm0,%xmm3
    1546:	66 0f db d3          	pand   %xmm3,%xmm2
    154a:	66 0f df d8          	pandn  %xmm0,%xmm3
    154e:	66 0f 6f c1          	movdqa %xmm1,%xmm0
    1552:	66 0f eb d3          	por    %xmm3,%xmm2
    1556:	66 0f 64 c2          	pcmpgtb %xmm2,%xmm0
    155a:	66 0f db c8          	pand   %xmm0,%xmm1
    155e:	66 0f df c2          	pandn  %xmm2,%xmm0
    1562:	66 0f eb c8          	por    %xmm0,%xmm1
    1566:	66 0f 6f d1          	movdqa %xmm1,%xmm2
    156a:	66 0f 73 da 08       	psrldq $0x8,%xmm2
    156f:	66 0f 6f c2          	movdqa %xmm2,%xmm0
    1573:	66 0f 64 c1          	pcmpgtb %xmm1,%xmm0
    1577:	66 0f db d0          	pand   %xmm0,%xmm2
    157b:	66 0f df c1          	pandn  %xmm1,%xmm0
    157f:	66 0f eb c2          	por    %xmm2,%xmm0
    1583:	66 0f 6f d0          	movdqa %xmm0,%xmm2
    1587:	66 0f 73 da 04       	psrldq $0x4,%xmm2
    158c:	66 0f 6f ca          	movdqa %xmm2,%xmm1
    1590:	66 0f 64 c8          	pcmpgtb %xmm0,%xmm1
    1594:	66 0f db d1          	pand   %xmm1,%xmm2
    1598:	66 0f df c8          	pandn  %xmm0,%xmm1
    159c:	66 0f eb ca          	por    %xmm2,%xmm1
    15a0:	66 0f 6f d1          	movdqa %xmm1,%xmm2
    15a4:	66 0f 73 da 02       	psrldq $0x2,%xmm2
    15a9:	66 0f 6f c2          	movdqa %xmm2,%xmm0
    15ad:	66 0f 64 c1          	pcmpgtb %xmm1,%xmm0
    15b1:	66 0f db d0          	pand   %xmm0,%xmm2
    15b5:	66 0f df c1          	pandn  %xmm1,%xmm0
    15b9:	66 0f eb c2          	por    %xmm2,%xmm0
    15bd:	66 0f 6f d0          	movdqa %xmm0,%xmm2
    15c1:	66 0f 73 da 01       	psrldq $0x1,%xmm2
    15c6:	66 0f 6f ca          	movdqa %xmm2,%xmm1
    15ca:	66 0f 64 c8          	pcmpgtb %xmm0,%xmm1
    15ce:	66 0f db d1          	pand   %xmm1,%xmm2
    15d2:	66 0f df c8          	pandn  %xmm0,%xmm1
    15d6:	66 0f eb ca          	por    %xmm2,%xmm1
    15da:	66 0f 7e 8d a8 f9 ff 	movd   %xmm1,-0x658(%rbp)
    15e1:	ff 
    15e2:	2a 95 b0 fd ff ff    	sub    -0x250(%rbp),%dl
    15e8:	89 d0                	mov    %edx,%eax
    15ea:	f6 d8                	neg    %al
    15ec:	0f 48 c2             	cmovs  %edx,%eax
    15ef:	0f b6 95 b1 fc ff ff 	movzbl -0x34f(%rbp),%edx
    15f6:	2a 95 b1 fd ff ff    	sub    -0x24f(%rbp),%dl
    15fc:	41 89 d7             	mov    %edx,%r15d
    15ff:	41 f6 df             	neg    %r15b
    1602:	44 0f 48 fa          	cmovs  %edx,%r15d
    1606:	0f b6 95 b2 fc ff ff 	movzbl -0x34e(%rbp),%edx
    160d:	2a 95 b2 fd ff ff    	sub    -0x24e(%rbp),%dl
    1613:	89 d3                	mov    %edx,%ebx
    1615:	f6 db                	neg    %bl
    1617:	0f 48 da             	cmovs  %edx,%ebx
    161a:	0f b6 95 b3 fc ff ff 	movzbl -0x34d(%rbp),%edx
    1621:	2a 95 b3 fd ff ff    	sub    -0x24d(%rbp),%dl
    1627:	41 89 d3             	mov    %edx,%r11d
    162a:	41 f6 db             	neg    %r11b
    162d:	44 0f 48 da          	cmovs  %edx,%r11d
    1631:	0f b6 95 b4 fc ff ff 	movzbl -0x34c(%rbp),%edx
    1638:	2a 95 b4 fd ff ff    	sub    -0x24c(%rbp),%dl
    163e:	41 89 d2             	mov    %edx,%r10d
    1641:	41 f6 da             	neg    %r10b
    1644:	44 0f 48 d2          	cmovs  %edx,%r10d
    1648:	0f b6 95 b5 fc ff ff 	movzbl -0x34b(%rbp),%edx
    164f:	2a 95 b5 fd ff ff    	sub    -0x24b(%rbp),%dl
    1655:	89 d1                	mov    %edx,%ecx
    1657:	f6 d9                	neg    %cl
    1659:	0f 49 d1             	cmovns %ecx,%edx
    165c:	88 95 b8 f9 ff ff    	mov    %dl,-0x648(%rbp)
    1662:	0f b6 95 b6 fc ff ff 	movzbl -0x34a(%rbp),%edx
    1669:	2a 95 b6 fd ff ff    	sub    -0x24a(%rbp),%dl
    166f:	89 d1                	mov    %edx,%ecx
    1671:	89 d7                	mov    %edx,%edi
    1673:	0f b6 95 b7 fc ff ff 	movzbl -0x349(%rbp),%edx
    167a:	f6 d9                	neg    %cl
    167c:	0f 49 f9             	cmovns %ecx,%edi
    167f:	2a 95 b7 fd ff ff    	sub    -0x249(%rbp),%dl
    1685:	89 d1                	mov    %edx,%ecx
    1687:	89 d6                	mov    %edx,%esi
    1689:	0f b6 95 b8 fc ff ff 	movzbl -0x348(%rbp),%edx
    1690:	f6 d9                	neg    %cl
    1692:	40 88 bd b4 f9 ff ff 	mov    %dil,-0x64c(%rbp)
    1699:	0f 49 f1             	cmovns %ecx,%esi
    169c:	2a 95 b8 fd ff ff    	sub    -0x248(%rbp),%dl
    16a2:	89 d1                	mov    %edx,%ecx
    16a4:	f6 d9                	neg    %cl
    16a6:	40 88 b5 b0 f9 ff ff 	mov    %sil,-0x650(%rbp)
    16ad:	0f 49 d1             	cmovns %ecx,%edx
    16b0:	88 95 ac f9 ff ff    	mov    %dl,-0x654(%rbp)
    16b6:	0f b6 95 b9 fc ff ff 	movzbl -0x347(%rbp),%edx
    16bd:	2a 95 b9 fd ff ff    	sub    -0x247(%rbp),%dl
    16c3:	89 d1                	mov    %edx,%ecx
    16c5:	41 89 d1             	mov    %edx,%r9d
    16c8:	0f b6 95 ba fc ff ff 	movzbl -0x346(%rbp),%edx
    16cf:	f6 d9                	neg    %cl
    16d1:	44 0f 49 c9          	cmovns %ecx,%r9d
    16d5:	2a 95 ba fd ff ff    	sub    -0x246(%rbp),%dl
    16db:	89 d1                	mov    %edx,%ecx
    16dd:	f6 d9                	neg    %cl
    16df:	44 88 8d a0 f9 ff ff 	mov    %r9b,-0x660(%rbp)
    16e6:	41 89 c9             	mov    %ecx,%r9d
    16e9:	44 0f 48 ca          	cmovs  %edx,%r9d
    16ed:	0f b6 95 bb fc ff ff 	movzbl -0x345(%rbp),%edx
    16f4:	2a 95 bb fd ff ff    	sub    -0x245(%rbp),%dl
    16fa:	41 89 d0             	mov    %edx,%r8d
    16fd:	41 f6 d8             	neg    %r8b
    1700:	44 0f 48 c2          	cmovs  %edx,%r8d
    1704:	0f b6 95 bc fc ff ff 	movzbl -0x344(%rbp),%edx
    170b:	2a 95 bc fd ff ff    	sub    -0x244(%rbp),%dl
    1711:	89 d7                	mov    %edx,%edi
    1713:	40 f6 df             	neg    %dil
    1716:	0f 48 fa             	cmovs  %edx,%edi
    1719:	0f b6 95 bd fc ff ff 	movzbl -0x343(%rbp),%edx
    1720:	2a 95 bd fd ff ff    	sub    -0x243(%rbp),%dl
    1726:	89 d6                	mov    %edx,%esi
    1728:	40 f6 de             	neg    %sil
    172b:	0f 48 f2             	cmovs  %edx,%esi
    172e:	0f b6 95 be fc ff ff 	movzbl -0x342(%rbp),%edx
    1735:	2a 95 be fd ff ff    	sub    -0x242(%rbp),%dl
    173b:	89 d1                	mov    %edx,%ecx
    173d:	f6 d9                	neg    %cl
    173f:	0f 48 ca             	cmovs  %edx,%ecx
    1742:	44 38 f8             	cmp    %r15b,%al
    1745:	0f b6 95 ac f9 ff ff 	movzbl -0x654(%rbp),%edx
    174c:	41 0f 4c c7          	cmovl  %r15d,%eax
    1750:	38 d8                	cmp    %bl,%al
    1752:	0f 4c c3             	cmovl  %ebx,%eax
    1755:	0f b6 9d b8 f9 ff ff 	movzbl -0x648(%rbp),%ebx
    175c:	44 38 d8             	cmp    %r11b,%al
    175f:	41 0f 4c c3          	cmovl  %r11d,%eax
    1763:	44 38 d0             	cmp    %r10b,%al
    1766:	41 0f 4c c2          	cmovl  %r10d,%eax
    176a:	38 d8                	cmp    %bl,%al
    176c:	0f 4c c3             	cmovl  %ebx,%eax
    176f:	0f b6 9d b4 f9 ff ff 	movzbl -0x64c(%rbp),%ebx
    1776:	38 d8                	cmp    %bl,%al
    1778:	0f 4c c3             	cmovl  %ebx,%eax
    177b:	0f b6 9d b0 f9 ff ff 	movzbl -0x650(%rbp),%ebx
    1782:	38 d8                	cmp    %bl,%al
    1784:	0f 4c c3             	cmovl  %ebx,%eax
    1787:	38 d0                	cmp    %dl,%al
    1789:	0f 4d d0             	cmovge %eax,%edx
    178c:	0f b6 85 a0 f9 ff ff 	movzbl -0x660(%rbp),%eax
    1793:	38 c2                	cmp    %al,%dl
    1795:	0f 4c d0             	cmovl  %eax,%edx
    1798:	0f b6 85 a8 f9 ff ff 	movzbl -0x658(%rbp),%eax
    179f:	44 38 ca             	cmp    %r9b,%dl
    17a2:	41 0f 4c d1          	cmovl  %r9d,%edx
    17a6:	44 38 c2             	cmp    %r8b,%dl
    17a9:	41 0f 4c d0          	cmovl  %r8d,%edx
    17ad:	40 38 fa             	cmp    %dil,%dl
    17b0:	0f 4c d7             	cmovl  %edi,%edx
    17b3:	bf 01 00 00 00       	mov    $0x1,%edi
    17b8:	40 38 f2             	cmp    %sil,%dl
    17bb:	0f 4c d6             	cmovl  %esi,%edx
    17be:	48 8d 35 23 19 00 00 	lea    0x1923(%rip),%rsi        # 30e8 <_IO_stdin_used+0xe8>
    17c5:	38 ca                	cmp    %cl,%dl
    17c7:	0f 4c d1             	cmovl  %ecx,%edx
    17ca:	38 c2                	cmp    %al,%dl
    17cc:	0f 4c d0             	cmovl  %eax,%edx
    17cf:	31 c0                	xor    %eax,%eax
    17d1:	0f be d2             	movsbl %dl,%edx
    17d4:	e8 47 f9 ff ff       	call   1120 <__printf_chk@plt>
    17d9:	4c 89 ef             	mov    %r13,%rdi
    17dc:	e8 0f f9 ff ff       	call   10f0 <fclose@plt>
    17e1:	4c 89 f7             	mov    %r14,%rdi
    17e4:	e8 07 f9 ff ff       	call   10f0 <fclose@plt>
    17e9:	4c 89 e7             	mov    %r12,%rdi
    17ec:	e8 ff f8 ff ff       	call   10f0 <fclose@plt>
    17f1:	48 89 e0             	mov    %rsp,%rax
    17f4:	48 39 c4             	cmp    %rax,%rsp
    17f7:	74 15                	je     180e <main+0x6ae>
    17f9:	48 81 ec 00 10 00 00 	sub    $0x1000,%rsp
    1800:	48 83 8c 24 f8 0f 00 	orq    $0x0,0xff8(%rsp)
    1807:	00 00 
    1809:	48 39 c4             	cmp    %rax,%rsp
    180c:	75 eb                	jne    17f9 <main+0x699>
    180e:	48 81 ec 00 04 00 00 	sub    $0x400,%rsp
    1815:	48 83 8c 24 f8 03 00 	orq    $0x0,0x3f8(%rsp)
    181c:	00 00 
    181e:	48 89 e3             	mov    %rsp,%rbx
    1821:	48 89 e0             	mov    %rsp,%rax
    1824:	48 39 c4             	cmp    %rax,%rsp
    1827:	74 12                	je     183b <main+0x6db>
    1829:	48 81 ec 00 10 00 00 	sub    $0x1000,%rsp
    1830:	48 83 8c 24 f8 0f 00 	orq    $0x0,0xff8(%rsp)
    1837:	00 00 
    1839:	eb e9                	jmp    1824 <main+0x6c4>
    183b:	48 81 ec 00 04 00 00 	sub    $0x400,%rsp
    1842:	48 83 8c 24 f8 03 00 	orq    $0x0,0x3f8(%rsp)
    1849:	00 00 
    184b:	ba ff 00 00 00       	mov    $0xff,%edx
    1850:	48 8b bd 98 f9 ff ff 	mov    -0x668(%rbp),%rdi
    1857:	48 89 de             	mov    %rbx,%rsi
    185a:	49 89 e4             	mov    %rsp,%r12
    185d:	e8 7e 03 00 00       	call   1be0 <riscv_dsp_convert_q7_f32>
    1862:	48 8b bd 90 f9 ff ff 	mov    -0x670(%rbp),%rdi
    1869:	ba ff 00 00 00       	mov    $0xff,%edx
    186e:	4c 89 e6             	mov    %r12,%rsi
    1871:	e8 6a 03 00 00       	call   1be0 <riscv_dsp_convert_q7_f32>
    1876:	66 0f ef db          	pxor   %xmm3,%xmm3
    187a:	66 0f ef ff          	pxor   %xmm7,%xmm7
    187e:	31 c0                	xor    %eax,%eax
    1880:	66 0f 28 ef          	movapd %xmm7,%xmm5
    1884:	0f 28 c3             	movaps %xmm3,%xmm0
    1887:	44 0f 28 c3          	movaps %xmm3,%xmm8
    188b:	f3 44 0f 10 0d 8c 18 	movss  0x188c(%rip),%xmm9        # 3120 <_IO_stdin_used+0x120>
    1892:	00 00 
    1894:	0f 28 f3             	movaps %xmm3,%xmm6
    1897:	66 0f 1f 84 00 00 00 	nopw   0x0(%rax,%rax,1)
    189e:	00 00 
    18a0:	f3 41 0f 10 0c 04    	movss  (%r12,%rax,1),%xmm1
    18a6:	f3 0f 10 14 03       	movss  (%rbx,%rax,1),%xmm2
    18ab:	66 0f 7e ce          	movd   %xmm1,%esi
    18af:	81 fe 00 00 c0 7f    	cmp    $0x7fc00000,%esi
    18b5:	0f 84 b7 01 00 00    	je     1a72 <main+0x912>
    18bb:	0f 28 e2             	movaps %xmm2,%xmm4
    18be:	f3 0f 5c ca          	subss  %xmm2,%xmm1
    18c2:	48 83 c0 04          	add    $0x4,%rax
    18c6:	f3 0f 5f e6          	maxss  %xmm6,%xmm4
    18ca:	0f 28 f4             	movaps %xmm4,%xmm6
    18cd:	0f 28 e2             	movaps %xmm2,%xmm4
    18d0:	f3 41 0f 5d e0       	minss  %xmm8,%xmm4
    18d5:	f3 0f 59 d2          	mulss  %xmm2,%xmm2
    18d9:	44 0f 28 c4          	movaps %xmm4,%xmm8
    18dd:	0f 28 e1             	movaps %xmm1,%xmm4
    18e0:	f3 0f 59 c9          	mulss  %xmm1,%xmm1
    18e4:	41 0f 54 e1          	andps  %xmm9,%xmm4
    18e8:	f3 0f 58 c4          	addss  %xmm4,%xmm0
    18ec:	f3 0f 5f e3          	maxss  %xmm3,%xmm4
    18f0:	f3 0f 5a d2          	cvtss2sd %xmm2,%xmm2
    18f4:	f2 0f 58 fa          	addsd  %xmm2,%xmm7
    18f8:	0f 28 dc             	movaps %xmm4,%xmm3
    18fb:	f3 0f 5a c9          	cvtss2sd %xmm1,%xmm1
    18ff:	f2 0f 58 e9          	addsd  %xmm1,%xmm5
    1903:	48 3d fc 03 00 00    	cmp    $0x3fc,%rax
    1909:	75 95                	jne    18a0 <main+0x740>
    190b:	66 48 0f 7e e8       	movq   %xmm5,%rax
    1910:	f3 0f 11 a5 ac f9 ff 	movss  %xmm4,-0x654(%rbp)
    1917:	ff 
    1918:	f3 44 0f 11 85 b0 f9 	movss  %xmm8,-0x650(%rbp)
    191f:	ff ff 
    1921:	f3 0f 11 b5 b4 f9 ff 	movss  %xmm6,-0x64c(%rbp)
    1928:	ff 
    1929:	f2 0f 11 bd b8 f9 ff 	movsd  %xmm7,-0x648(%rbp)
    1930:	ff 
    1931:	3d 00 00 c0 7f       	cmp    $0x7fc00000,%eax
    1936:	0f 84 36 01 00 00    	je     1a72 <main+0x912>
    193c:	f3 0f 5e 05 d0 17 00 	divss  0x17d0(%rip),%xmm0        # 3114 <_IO_stdin_used+0x114>
    1943:	00 
    1944:	f2 0f 11 ad a0 f9 ff 	movsd  %xmm5,-0x660(%rbp)
    194b:	ff 
    194c:	66 0f 7e c3          	movd   %xmm0,%ebx
    1950:	66 0f 28 c5          	movapd %xmm5,%xmm0
    1954:	f2 0f 5e 05 d4 17 00 	divsd  0x17d4(%rip),%xmm0        # 3130 <_IO_stdin_used+0x130>
    195b:	00 
    195c:	e8 df f7 ff ff       	call   1140 <sqrt@plt>
    1961:	f3 0f 10 b5 b4 f9 ff 	movss  -0x64c(%rbp),%xmm6
    1968:	ff 
    1969:	f3 44 0f 10 85 b0 f9 	movss  -0x650(%rbp),%xmm8
    1970:	ff ff 
    1972:	66 0f ef c9          	pxor   %xmm1,%xmm1
    1976:	f2 0f 10 ad a0 f9 ff 	movsd  -0x660(%rbp),%xmm5
    197d:	ff 
    197e:	f3 0f 10 9d ac f9 ff 	movss  -0x654(%rbp),%xmm3
    1985:	ff 
    1986:	f3 41 0f 5c f0       	subss  %xmm8,%xmm6
    198b:	f2 0f 5a c8          	cvtsd2ss %xmm0,%xmm1
    198f:	0f 28 f9             	movaps %xmm1,%xmm7
    1992:	f3 0f 5e fe          	divss  %xmm6,%xmm7
    1996:	66 41 0f 7e fc       	movd   %xmm7,%r12d
    199b:	66 0f ef ff          	pxor   %xmm7,%xmm7
    199f:	66 0f 2e ef          	ucomisd %xmm7,%xmm5
    19a3:	f2 0f 10 bd b8 f9 ff 	movsd  -0x648(%rbp),%xmm7
    19aa:	ff 
    19ab:	0f 8a c5 00 00 00    	jp     1a76 <main+0x916>
    19b1:	f3 0f 10 25 57 17 00 	movss  0x1757(%rip),%xmm4        # 3110 <_IO_stdin_used+0x110>
    19b8:	00 
    19b9:	0f 85 b7 00 00 00    	jne    1a76 <main+0x916>
    19bf:	48 8d 3d 35 17 00 00 	lea    0x1735(%rip),%rdi        # 30fb <_IO_stdin_used+0xfb>
    19c6:	f3 0f 11 9d b0 f9 ff 	movss  %xmm3,-0x650(%rbp)
    19cd:	ff 
    19ce:	f3 0f 11 a5 b8 f9 ff 	movss  %xmm4,-0x648(%rbp)
    19d5:	ff 
    19d6:	f3 0f 11 8d b4 f9 ff 	movss  %xmm1,-0x64c(%rbp)
    19dd:	ff 
    19de:	e8 ed f6 ff ff       	call   10d0 <puts@plt>
    19e3:	66 41 0f 6e ec       	movd   %r12d,%xmm5
    19e8:	66 0f ef d2          	pxor   %xmm2,%xmm2
    19ec:	f3 0f 10 a5 b8 f9 ff 	movss  -0x648(%rbp),%xmm4
    19f3:	ff 
    19f4:	f3 0f 10 9d b0 f9 ff 	movss  -0x650(%rbp),%xmm3
    19fb:	ff 
    19fc:	f3 0f 10 8d b4 f9 ff 	movss  -0x64c(%rbp),%xmm1
    1a03:	ff 
    1a04:	f3 0f 5a d5          	cvtss2sd %xmm5,%xmm2
    1a08:	66 0f ef c0          	pxor   %xmm0,%xmm0
    1a0c:	66 0f 6e eb          	movd   %ebx,%xmm5
    1a10:	48 8d 35 39 16 00 00 	lea    0x1639(%rip),%rsi        # 3050 <_IO_stdin_used+0x50>
    1a17:	bf 01 00 00 00       	mov    $0x1,%edi
    1a1c:	b8 05 00 00 00       	mov    $0x5,%eax
    1a21:	f3 0f 5a c5          	cvtss2sd %xmm5,%xmm0
    1a25:	f3 0f 5a e4          	cvtss2sd %xmm4,%xmm4
    1a29:	f3 0f 5a db          	cvtss2sd %xmm3,%xmm3
    1a2d:	f3 0f 5a c9          	cvtss2sd %xmm1,%xmm1
    1a31:	f2 0f 11 95 b8 f9 ff 	movsd  %xmm2,-0x648(%rbp)
    1a38:	ff 
    1a39:	e8 e2 f6 ff ff       	call   1120 <__printf_chk@plt>
    1a3e:	f2 0f 10 05 f2 16 00 	movsd  0x16f2(%rip),%xmm0        # 3138 <_IO_stdin_used+0x138>
    1a45:	00 
    1a46:	f2 0f 10 95 b8 f9 ff 	movsd  -0x648(%rbp),%xmm2
    1a4d:	ff 
    1a4e:	66 0f 2f c2          	comisd %xmm2,%xmm0
    1a52:	19 c0                	sbb    %eax,%eax
    1a54:	48 8b 55 c8          	mov    -0x38(%rbp),%rdx
    1a58:	64 48 2b 14 25 28 00 	sub    %fs:0x28,%rdx
    1a5f:	00 00 
    1a61:	75 59                	jne    1abc <main+0x95c>
    1a63:	48 8d 65 d8          	lea    -0x28(%rbp),%rsp
    1a67:	5b                   	pop    %rbx
    1a68:	41 5c                	pop    %r12
    1a6a:	41 5d                	pop    %r13
    1a6c:	41 5e                	pop    %r14
    1a6e:	41 5f                	pop    %r15
    1a70:	5d                   	pop    %rbp
    1a71:	c3                   	ret    
    1a72:	31 c0                	xor    %eax,%eax
    1a74:	eb de                	jmp    1a54 <main+0x8f4>
    1a76:	f2 0f 5e fd          	divsd  %xmm5,%xmm7
    1a7a:	66 0f ef c0          	pxor   %xmm0,%xmm0
    1a7e:	f3 0f 11 9d b4 f9 ff 	movss  %xmm3,-0x64c(%rbp)
    1a85:	ff 
    1a86:	f3 0f 11 8d b8 f9 ff 	movss  %xmm1,-0x648(%rbp)
    1a8d:	ff 
    1a8e:	f2 0f 5a c7          	cvtsd2ss %xmm7,%xmm0
    1a92:	e8 79 f6 ff ff       	call   1110 <log10f@plt>
    1a97:	f3 0f 59 05 79 16 00 	mulss  0x1679(%rip),%xmm0        # 3118 <_IO_stdin_used+0x118>
    1a9e:	00 
    1a9f:	f3 0f 10 9d b4 f9 ff 	movss  -0x64c(%rbp),%xmm3
    1aa6:	ff 
    1aa7:	f3 0f 10 8d b8 f9 ff 	movss  -0x648(%rbp),%xmm1
    1aae:	ff 
    1aaf:	0f 28 e0             	movaps %xmm0,%xmm4
    1ab2:	e9 08 ff ff ff       	jmp    19bf <main+0x85f>
    1ab7:	83 c8 ff             	or     $0xffffffff,%eax
    1aba:	eb 98                	jmp    1a54 <main+0x8f4>
    1abc:	e8 3f f6 ff ff       	call   1100 <__stack_chk_fail@plt>
    1ac1:	66 2e 0f 1f 84 00 00 	cs nopw 0x0(%rax,%rax,1)
    1ac8:	00 00 00 
    1acb:	0f 1f 44 00 00       	nopl   0x0(%rax,%rax,1)

0000000000001ad0 <_start>:
    1ad0:	f3 0f 1e fa          	endbr64 
    1ad4:	31 ed                	xor    %ebp,%ebp
    1ad6:	49 89 d1             	mov    %rdx,%r9
    1ad9:	5e                   	pop    %rsi
    1ada:	48 89 e2             	mov    %rsp,%rdx
    1add:	48 83 e4 f0          	and    $0xfffffffffffffff0,%rsp
    1ae1:	50                   	push   %rax
    1ae2:	54                   	push   %rsp
    1ae3:	45 31 c0             	xor    %r8d,%r8d
    1ae6:	31 c9                	xor    %ecx,%ecx
    1ae8:	48 8d 3d 71 f6 ff ff 	lea    -0x98f(%rip),%rdi        # 1160 <main>
    1aef:	ff 15 e3 34 00 00    	call   *0x34e3(%rip)        # 4fd8 <__libc_start_main@GLIBC_2.34>
    1af5:	f4                   	hlt    
    1af6:	66 2e 0f 1f 84 00 00 	cs nopw 0x0(%rax,%rax,1)
    1afd:	00 00 00 

0000000000001b00 <deregister_tm_clones>:
    1b00:	48 8d 3d 09 35 00 00 	lea    0x3509(%rip),%rdi        # 5010 <__TMC_END__>
    1b07:	48 8d 05 02 35 00 00 	lea    0x3502(%rip),%rax        # 5010 <__TMC_END__>
    1b0e:	48 39 f8             	cmp    %rdi,%rax
    1b11:	74 15                	je     1b28 <deregister_tm_clones+0x28>
    1b13:	48 8b 05 c6 34 00 00 	mov    0x34c6(%rip),%rax        # 4fe0 <_ITM_deregisterTMCloneTable@Base>
    1b1a:	48 85 c0             	test   %rax,%rax
    1b1d:	74 09                	je     1b28 <deregister_tm_clones+0x28>
    1b1f:	ff e0                	jmp    *%rax
    1b21:	0f 1f 80 00 00 00 00 	nopl   0x0(%rax)
    1b28:	c3                   	ret    
    1b29:	0f 1f 80 00 00 00 00 	nopl   0x0(%rax)

0000000000001b30 <register_tm_clones>:
    1b30:	48 8d 3d d9 34 00 00 	lea    0x34d9(%rip),%rdi        # 5010 <__TMC_END__>
    1b37:	48 8d 35 d2 34 00 00 	lea    0x34d2(%rip),%rsi        # 5010 <__TMC_END__>
    1b3e:	48 29 fe             	sub    %rdi,%rsi
    1b41:	48 89 f0             	mov    %rsi,%rax
    1b44:	48 c1 ee 3f          	shr    $0x3f,%rsi
    1b48:	48 c1 f8 03          	sar    $0x3,%rax
    1b4c:	48 01 c6             	add    %rax,%rsi
    1b4f:	48 d1 fe             	sar    %rsi
    1b52:	74 14                	je     1b68 <register_tm_clones+0x38>
    1b54:	48 8b 05 95 34 00 00 	mov    0x3495(%rip),%rax        # 4ff0 <_ITM_registerTMCloneTable@Base>
    1b5b:	48 85 c0             	test   %rax,%rax
    1b5e:	74 08                	je     1b68 <register_tm_clones+0x38>
    1b60:	ff e0                	jmp    *%rax
    1b62:	66 0f 1f 44 00 00    	nopw   0x0(%rax,%rax,1)
    1b68:	c3                   	ret    
    1b69:	0f 1f 80 00 00 00 00 	nopl   0x0(%rax)

0000000000001b70 <__do_global_dtors_aux>:
    1b70:	f3 0f 1e fa          	endbr64 
    1b74:	80 3d 95 34 00 00 00 	cmpb   $0x0,0x3495(%rip)        # 5010 <__TMC_END__>
    1b7b:	75 2b                	jne    1ba8 <__do_global_dtors_aux+0x38>
    1b7d:	55                   	push   %rbp
    1b7e:	48 83 3d 72 34 00 00 	cmpq   $0x0,0x3472(%rip)        # 4ff8 <__cxa_finalize@GLIBC_2.2.5>
    1b85:	00 
    1b86:	48 89 e5             	mov    %rsp,%rbp
    1b89:	74 0c                	je     1b97 <__do_global_dtors_aux+0x27>
    1b8b:	48 8b 3d 76 34 00 00 	mov    0x3476(%rip),%rdi        # 5008 <__dso_handle>
    1b92:	e8 29 f5 ff ff       	call   10c0 <__cxa_finalize@plt>
    1b97:	e8 64 ff ff ff       	call   1b00 <deregister_tm_clones>
    1b9c:	c6 05 6d 34 00 00 01 	movb   $0x1,0x346d(%rip)        # 5010 <__TMC_END__>
    1ba3:	5d                   	pop    %rbp
    1ba4:	c3                   	ret    
    1ba5:	0f 1f 00             	nopl   (%rax)
    1ba8:	c3                   	ret    
    1ba9:	0f 1f 80 00 00 00 00 	nopl   0x0(%rax)

0000000000001bb0 <frame_dummy>:
    1bb0:	f3 0f 1e fa          	endbr64 
    1bb4:	e9 77 ff ff ff       	jmp    1b30 <register_tm_clones>
    1bb9:	0f 1f 80 00 00 00 00 	nopl   0x0(%rax)

0000000000001bc0 <test_Fread.constprop.0.isra.0>:
    1bc0:	48 89 f1             	mov    %rsi,%rcx
    1bc3:	ba ff 00 00 00       	mov    $0xff,%edx
    1bc8:	be 01 00 00 00       	mov    $0x1,%esi
    1bcd:	e9 0e f5 ff ff       	jmp    10e0 <fread@plt>
    1bd2:	66 2e 0f 1f 84 00 00 	cs nopw 0x0(%rax,%rax,1)
    1bd9:	00 00 00 
    1bdc:	0f 1f 40 00          	nopl   0x0(%rax)

0000000000001be0 <riscv_dsp_convert_q7_f32>:
    1be0:	f3 0f 1e fa          	endbr64 
    1be4:	85 d2                	test   %edx,%edx
    1be6:	0f 84 76 02 00 00    	je     1e62 <riscv_dsp_convert_q7_f32+0x282>
    1bec:	8d 42 ff             	lea    -0x1(%rdx),%eax
    1bef:	83 f8 0e             	cmp    $0xe,%eax
    1bf2:	0f 86 6b 02 00 00    	jbe    1e63 <riscv_dsp_convert_q7_f32+0x283>
    1bf8:	41 89 d0             	mov    %edx,%r8d
    1bfb:	0f 28 1d 3e 15 00 00 	movaps 0x153e(%rip),%xmm3        # 3140 <_IO_stdin_used+0x140>
    1c02:	48 89 f9             	mov    %rdi,%rcx
    1c05:	48 89 f0             	mov    %rsi,%rax
    1c08:	41 c1 e8 04          	shr    $0x4,%r8d
    1c0c:	66 0f ef ed          	pxor   %xmm5,%xmm5
    1c10:	66 0f ef e4          	pxor   %xmm4,%xmm4
    1c14:	41 83 e8 01          	sub    $0x1,%r8d
    1c18:	49 c1 e0 04          	shl    $0x4,%r8
    1c1c:	4e 8d 44 07 10       	lea    0x10(%rdi,%r8,1),%r8
    1c21:	0f 1f 80 00 00 00 00 	nopl   0x0(%rax)
    1c28:	f3 0f 6f 01          	movdqu (%rcx),%xmm0
    1c2c:	66 0f 6f d5          	movdqa %xmm5,%xmm2
    1c30:	66 0f 6f f4          	movdqa %xmm4,%xmm6
    1c34:	48 83 c1 10          	add    $0x10,%rcx
    1c38:	48 83 c0 40          	add    $0x40,%rax
    1c3c:	66 0f 64 d0          	pcmpgtb %xmm0,%xmm2
    1c40:	66 0f 6f c8          	movdqa %xmm0,%xmm1
    1c44:	66 0f 60 ca          	punpcklbw %xmm2,%xmm1
    1c48:	66 0f 68 c2          	punpckhbw %xmm2,%xmm0
    1c4c:	66 0f 65 f1          	pcmpgtw %xmm1,%xmm6
    1c50:	66 0f 6f d1          	movdqa %xmm1,%xmm2
    1c54:	66 0f 61 d6          	punpcklwd %xmm6,%xmm2
    1c58:	66 0f 69 ce          	punpckhwd %xmm6,%xmm1
    1c5c:	0f 5b d2             	cvtdq2ps %xmm2,%xmm2
    1c5f:	0f 59 d3             	mulps  %xmm3,%xmm2
    1c62:	0f 5b c9             	cvtdq2ps %xmm1,%xmm1
    1c65:	0f 59 cb             	mulps  %xmm3,%xmm1
    1c68:	0f 11 50 c0          	movups %xmm2,-0x40(%rax)
    1c6c:	66 0f 6f d4          	movdqa %xmm4,%xmm2
    1c70:	66 0f 65 d0          	pcmpgtw %xmm0,%xmm2
    1c74:	0f 11 48 d0          	movups %xmm1,-0x30(%rax)
    1c78:	66 0f 6f c8          	movdqa %xmm0,%xmm1
    1c7c:	66 0f 61 ca          	punpcklwd %xmm2,%xmm1
    1c80:	66 0f 69 c2          	punpckhwd %xmm2,%xmm0
    1c84:	0f 5b c9             	cvtdq2ps %xmm1,%xmm1
    1c87:	0f 5b c0             	cvtdq2ps %xmm0,%xmm0
    1c8a:	0f 59 cb             	mulps  %xmm3,%xmm1
    1c8d:	0f 59 c3             	mulps  %xmm3,%xmm0
    1c90:	0f 11 48 e0          	movups %xmm1,-0x20(%rax)
    1c94:	0f 11 40 f0          	movups %xmm0,-0x10(%rax)
    1c98:	4c 39 c1             	cmp    %r8,%rcx
    1c9b:	75 8b                	jne    1c28 <riscv_dsp_convert_q7_f32+0x48>
    1c9d:	89 d1                	mov    %edx,%ecx
    1c9f:	83 e1 f0             	and    $0xfffffff0,%ecx
    1ca2:	89 c8                	mov    %ecx,%eax
    1ca4:	48 01 c7             	add    %rax,%rdi
    1ca7:	48 8d 34 86          	lea    (%rsi,%rax,4),%rsi
    1cab:	89 d0                	mov    %edx,%eax
    1cad:	29 c8                	sub    %ecx,%eax
    1caf:	39 ca                	cmp    %ecx,%edx
    1cb1:	0f 84 b3 01 00 00    	je     1e6a <riscv_dsp_convert_q7_f32+0x28a>
    1cb7:	0f be 17             	movsbl (%rdi),%edx
    1cba:	66 0f ef c9          	pxor   %xmm1,%xmm1
    1cbe:	f3 0f 10 05 7a 14 00 	movss  0x147a(%rip),%xmm0        # 3140 <_IO_stdin_used+0x140>
    1cc5:	00 
    1cc6:	f3 0f 2a ca          	cvtsi2ss %edx,%xmm1
    1cca:	f3 0f 59 c8          	mulss  %xmm0,%xmm1
    1cce:	f3 0f 11 0e          	movss  %xmm1,(%rsi)
    1cd2:	83 f8 01             	cmp    $0x1,%eax
    1cd5:	0f 84 87 01 00 00    	je     1e62 <riscv_dsp_convert_q7_f32+0x282>
    1cdb:	0f be 57 01          	movsbl 0x1(%rdi),%edx
    1cdf:	66 0f ef c9          	pxor   %xmm1,%xmm1
    1ce3:	f3 0f 2a ca          	cvtsi2ss %edx,%xmm1
    1ce7:	f3 0f 59 c8          	mulss  %xmm0,%xmm1
    1ceb:	f3 0f 11 4e 04       	movss  %xmm1,0x4(%rsi)
    1cf0:	83 f8 02             	cmp    $0x2,%eax
    1cf3:	0f 84 69 01 00 00    	je     1e62 <riscv_dsp_convert_q7_f32+0x282>
    1cf9:	0f be 57 02          	movsbl 0x2(%rdi),%edx
    1cfd:	66 0f ef c9          	pxor   %xmm1,%xmm1
    1d01:	f3 0f 2a ca          	cvtsi2ss %edx,%xmm1
    1d05:	f3 0f 59 c8          	mulss  %xmm0,%xmm1
    1d09:	f3 0f 11 4e 08       	movss  %xmm1,0x8(%rsi)
    1d0e:	83 f8 03             	cmp    $0x3,%eax
    1d11:	0f 84 4b 01 00 00    	je     1e62 <riscv_dsp_convert_q7_f32+0x282>
    1d17:	0f be 57 03          	movsbl 0x3(%rdi),%edx
    1d1b:	66 0f ef c9          	pxor   %xmm1,%xmm1
    1d1f:	f3 0f 2a ca          	cvtsi2ss %edx,%xmm1
    1d23:	f3 0f 59 c8          	mulss  %xmm0,%xmm1
    1d27:	f3 0f 11 4e 0c       	movss  %xmm1,0xc(%rsi)
    1d2c:	83 f8 04             	cmp    $0x4,%eax
    1d2f:	0f 84 2d 01 00 00    	je     1e62 <riscv_dsp_convert_q7_f32+0x282>
    1d35:	0f be 57 04          	movsbl 0x4(%rdi),%edx
    1d39:	66 0f ef c9          	pxor   %xmm1,%xmm1
    1d3d:	f3 0f 2a ca          	cvtsi2ss %edx,%xmm1
    1d41:	f3 0f 59 c8          	mulss  %xmm0,%xmm1
    1d45:	f3 0f 11 4e 10       	movss  %xmm1,0x10(%rsi)
    1d4a:	83 f8 05             	cmp    $0x5,%eax
    1d4d:	0f 84 0f 01 00 00    	je     1e62 <riscv_dsp_convert_q7_f32+0x282>
    1d53:	0f be 57 05          	movsbl 0x5(%rdi),%edx
    1d57:	66 0f ef c9          	pxor   %xmm1,%xmm1
    1d5b:	f3 0f 2a ca          	cvtsi2ss %edx,%xmm1
    1d5f:	f3 0f 59 c8          	mulss  %xmm0,%xmm1
    1d63:	f3 0f 11 4e 14       	movss  %xmm1,0x14(%rsi)
    1d68:	83 f8 06             	cmp    $0x6,%eax
    1d6b:	0f 84 f1 00 00 00    	je     1e62 <riscv_dsp_convert_q7_f32+0x282>
    1d71:	0f be 57 06          	movsbl 0x6(%rdi),%edx
    1d75:	66 0f ef c9          	pxor   %xmm1,%xmm1
    1d79:	f3 0f 2a ca          	cvtsi2ss %edx,%xmm1
    1d7d:	f3 0f 59 c8          	mulss  %xmm0,%xmm1
    1d81:	f3 0f 11 4e 18       	movss  %xmm1,0x18(%rsi)
    1d86:	83 f8 07             	cmp    $0x7,%eax
    1d89:	0f 84 d3 00 00 00    	je     1e62 <riscv_dsp_convert_q7_f32+0x282>
    1d8f:	0f be 57 07          	movsbl 0x7(%rdi),%edx
    1d93:	66 0f ef c9          	pxor   %xmm1,%xmm1
    1d97:	f3 0f 2a ca          	cvtsi2ss %edx,%xmm1
    1d9b:	f3 0f 59 c8          	mulss  %xmm0,%xmm1
    1d9f:	f3 0f 11 4e 1c       	movss  %xmm1,0x1c(%rsi)
    1da4:	83 f8 08             	cmp    $0x8,%eax
    1da7:	0f 84 b5 00 00 00    	je     1e62 <riscv_dsp_convert_q7_f32+0x282>
    1dad:	0f be 57 08          	movsbl 0x8(%rdi),%edx
    1db1:	66 0f ef c9          	pxor   %xmm1,%xmm1
    1db5:	f3 0f 2a ca          	cvtsi2ss %edx,%xmm1
    1db9:	f3 0f 59 c8          	mulss  %xmm0,%xmm1
    1dbd:	f3 0f 11 4e 20       	movss  %xmm1,0x20(%rsi)
    1dc2:	83 f8 09             	cmp    $0x9,%eax
    1dc5:	0f 84 97 00 00 00    	je     1e62 <riscv_dsp_convert_q7_f32+0x282>
    1dcb:	0f be 57 09          	movsbl 0x9(%rdi),%edx
    1dcf:	66 0f ef c9          	pxor   %xmm1,%xmm1
    1dd3:	f3 0f 2a ca          	cvtsi2ss %edx,%xmm1
    1dd7:	f3 0f 59 c8          	mulss  %xmm0,%xmm1
    1ddb:	f3 0f 11 4e 24       	movss  %xmm1,0x24(%rsi)
    1de0:	83 f8 0a             	cmp    $0xa,%eax
    1de3:	74 7d                	je     1e62 <riscv_dsp_convert_q7_f32+0x282>
    1de5:	0f be 57 0a          	movsbl 0xa(%rdi),%edx
    1de9:	66 0f ef c9          	pxor   %xmm1,%xmm1
    1ded:	f3 0f 2a ca          	cvtsi2ss %edx,%xmm1
    1df1:	f3 0f 59 c8          	mulss  %xmm0,%xmm1
    1df5:	f3 0f 11 4e 28       	movss  %xmm1,0x28(%rsi)
    1dfa:	83 f8 0b             	cmp    $0xb,%eax
    1dfd:	74 63                	je     1e62 <riscv_dsp_convert_q7_f32+0x282>
    1dff:	0f be 57 0b          	movsbl 0xb(%rdi),%edx
    1e03:	66 0f ef c9          	pxor   %xmm1,%xmm1
    1e07:	f3 0f 2a ca          	cvtsi2ss %edx,%xmm1
    1e0b:	f3 0f 59 c8          	mulss  %xmm0,%xmm1
    1e0f:	f3 0f 11 4e 2c       	movss  %xmm1,0x2c(%rsi)
    1e14:	83 f8 0c             	cmp    $0xc,%eax
    1e17:	74 49                	je     1e62 <riscv_dsp_convert_q7_f32+0x282>
    1e19:	0f be 57 0c          	movsbl 0xc(%rdi),%edx
    1e1d:	66 0f ef c9          	pxor   %xmm1,%xmm1
    1e21:	f3 0f 2a ca          	cvtsi2ss %edx,%xmm1
    1e25:	f3 0f 59 c8          	mulss  %xmm0,%xmm1
    1e29:	f3 0f 11 4e 30       	movss  %xmm1,0x30(%rsi)
    1e2e:	83 f8 0d             	cmp    $0xd,%eax
    1e31:	74 2f                	je     1e62 <riscv_dsp_convert_q7_f32+0x282>
    1e33:	0f be 57 0d          	movsbl 0xd(%rdi),%edx
    1e37:	66 0f ef c9          	pxor   %xmm1,%xmm1
    1e3b:	f3 0f 2a ca          	cvtsi2ss %edx,%xmm1
    1e3f:	f3 0f 59 c8          	mulss  %xmm0,%xmm1
    1e43:	f3 0f 11 4e 34       	movss  %xmm1,0x34(%rsi)
    1e48:	83 f8 0e             	cmp    $0xe,%eax
    1e4b:	74 15                	je     1e62 <riscv_dsp_convert_q7_f32+0x282>
    1e4d:	0f be 47 0e          	movsbl 0xe(%rdi),%eax
    1e51:	66 0f ef c9          	pxor   %xmm1,%xmm1
    1e55:	f3 0f 2a c8          	cvtsi2ss %eax,%xmm1
    1e59:	f3 0f 59 c8          	mulss  %xmm0,%xmm1
    1e5d:	f3 0f 11 4e 38       	movss  %xmm1,0x38(%rsi)
    1e62:	c3                   	ret    
    1e63:	89 d0                	mov    %edx,%eax
    1e65:	e9 4d fe ff ff       	jmp    1cb7 <riscv_dsp_convert_q7_f32+0xd7>
    1e6a:	c3                   	ret    
    1e6b:	0f 1f 44 00 00       	nopl   0x0(%rax,%rax,1)

0000000000001e70 <riscv_dsp_mul_q7>:
    1e70:	f3 0f 1e fa          	endbr64 
    1e74:	41 89 cb             	mov    %ecx,%r11d
    1e77:	41 89 c8             	mov    %ecx,%r8d
    1e7a:	41 54                	push   %r12
    1e7c:	41 83 e3 01          	and    $0x1,%r11d
    1e80:	41 d1 e8             	shr    %r8d
    1e83:	55                   	push   %rbp
    1e84:	53                   	push   %rbx
    1e85:	0f 84 6f 03 00 00    	je     21fa <riscv_dsp_mul_q7+0x38a>
    1e8b:	41 8d 40 ff          	lea    -0x1(%r8),%eax
    1e8f:	83 f8 06             	cmp    $0x6,%eax
    1e92:	0f 8e 87 03 00 00    	jle    221f <riscv_dsp_mul_q7+0x3af>
    1e98:	c1 e9 04             	shr    $0x4,%ecx
    1e9b:	31 c0                	xor    %eax,%eax
    1e9d:	66 0f ef f6          	pxor   %xmm6,%xmm6
    1ea1:	66 0f 6f 25 a7 12 00 	movdqa 0x12a7(%rip),%xmm4        # 3150 <_IO_stdin_used+0x150>
    1ea8:	00 
    1ea9:	41 89 c9             	mov    %ecx,%r9d
    1eac:	66 0f 6f 1d ac 12 00 	movdqa 0x12ac(%rip),%xmm3        # 3160 <_IO_stdin_used+0x160>
    1eb3:	00 
    1eb4:	66 0f ef ed          	pxor   %xmm5,%xmm5
    1eb8:	66 0f ef d2          	pxor   %xmm2,%xmm2
    1ebc:	66 0f 6f 3d ac 12 00 	movdqa 0x12ac(%rip),%xmm7        # 3170 <_IO_stdin_used+0x170>
    1ec3:	00 
    1ec4:	49 c1 e1 04          	shl    $0x4,%r9
    1ec8:	0f 1f 84 00 00 00 00 	nopl   0x0(%rax,%rax,1)
    1ecf:	00 
    1ed0:	f3 0f 6f 04 07       	movdqu (%rdi,%rax,1),%xmm0
    1ed5:	f3 44 0f 6f 0c 06    	movdqu (%rsi,%rax,1),%xmm9
    1edb:	66 44 0f 6f d6       	movdqa %xmm6,%xmm10
    1ee0:	66 0f 6f ce          	movdqa %xmm6,%xmm1
    1ee4:	66 44 0f 64 d0       	pcmpgtb %xmm0,%xmm10
    1ee9:	66 41 0f 64 c9       	pcmpgtb %xmm9,%xmm1
    1eee:	66 44 0f 6f d8       	movdqa %xmm0,%xmm11
    1ef3:	66 45 0f 6f c1       	movdqa %xmm9,%xmm8
    1ef8:	66 45 0f 60 da       	punpcklbw %xmm10,%xmm11
    1efd:	66 44 0f 60 c1       	punpcklbw %xmm1,%xmm8
    1f02:	66 41 0f 68 c2       	punpckhbw %xmm10,%xmm0
    1f07:	66 45 0f d5 c3       	pmullw %xmm11,%xmm8
    1f0c:	66 44 0f 6f d5       	movdqa %xmm5,%xmm10
    1f11:	66 44 0f 68 c9       	punpckhbw %xmm1,%xmm9
    1f16:	66 44 0f d5 c8       	pmullw %xmm0,%xmm9
    1f1b:	66 44 0f 6f dd       	movdqa %xmm5,%xmm11
    1f20:	66 41 0f 71 e0 07    	psraw  $0x7,%xmm8
    1f26:	66 45 0f 65 d0       	pcmpgtw %xmm8,%xmm10
    1f2b:	66 41 0f 6f c0       	movdqa %xmm8,%xmm0
    1f30:	66 41 0f 6f c8       	movdqa %xmm8,%xmm1
    1f35:	66 41 0f 71 e1 07    	psraw  $0x7,%xmm9
    1f3b:	66 44 0f db c3       	pand   %xmm3,%xmm8
    1f40:	66 45 0f 65 d9       	pcmpgtw %xmm9,%xmm11
    1f45:	66 41 0f 61 c2       	punpcklwd %xmm10,%xmm0
    1f4a:	66 41 0f 69 ca       	punpckhwd %xmm10,%xmm1
    1f4f:	66 0f 76 c4          	pcmpeqd %xmm4,%xmm0
    1f53:	66 0f 76 cc          	pcmpeqd %xmm4,%xmm1
    1f57:	66 0f 76 c2          	pcmpeqd %xmm2,%xmm0
    1f5b:	66 0f 76 ca          	pcmpeqd %xmm2,%xmm1
    1f5f:	66 44 0f 6f d0       	movdqa %xmm0,%xmm10
    1f64:	66 0f 61 c1          	punpcklwd %xmm1,%xmm0
    1f68:	66 44 0f 69 d1       	punpckhwd %xmm1,%xmm10
    1f6d:	66 0f 6f c8          	movdqa %xmm0,%xmm1
    1f71:	66 41 0f 69 ca       	punpckhwd %xmm10,%xmm1
    1f76:	66 41 0f 61 c2       	punpcklwd %xmm10,%xmm0
    1f7b:	66 45 0f 6f d1       	movdqa %xmm9,%xmm10
    1f80:	66 0f 61 c1          	punpcklwd %xmm1,%xmm0
    1f84:	66 41 0f 6f c9       	movdqa %xmm9,%xmm1
    1f89:	66 45 0f 69 d3       	punpckhwd %xmm11,%xmm10
    1f8e:	66 41 0f 61 cb       	punpcklwd %xmm11,%xmm1
    1f93:	66 44 0f 76 d4       	pcmpeqd %xmm4,%xmm10
    1f98:	66 0f db c3          	pand   %xmm3,%xmm0
    1f9c:	66 0f 76 cc          	pcmpeqd %xmm4,%xmm1
    1fa0:	66 44 0f db cb       	pand   %xmm3,%xmm9
    1fa5:	66 45 0f 67 c1       	packuswb %xmm9,%xmm8
    1faa:	66 44 0f 76 d2       	pcmpeqd %xmm2,%xmm10
    1faf:	66 0f 76 ca          	pcmpeqd %xmm2,%xmm1
    1fb3:	66 44 0f 6f d9       	movdqa %xmm1,%xmm11
    1fb8:	66 41 0f 61 ca       	punpcklwd %xmm10,%xmm1
    1fbd:	66 45 0f 69 da       	punpckhwd %xmm10,%xmm11
    1fc2:	66 44 0f 6f d1       	movdqa %xmm1,%xmm10
    1fc7:	66 45 0f 69 d3       	punpckhwd %xmm11,%xmm10
    1fcc:	66 41 0f 61 cb       	punpcklwd %xmm11,%xmm1
    1fd1:	66 41 0f 61 ca       	punpcklwd %xmm10,%xmm1
    1fd6:	66 0f db cb          	pand   %xmm3,%xmm1
    1fda:	66 0f 67 c1          	packuswb %xmm1,%xmm0
    1fde:	66 44 0f db c0       	pand   %xmm0,%xmm8
    1fe3:	66 0f df c7          	pandn  %xmm7,%xmm0
    1fe7:	66 41 0f eb c0       	por    %xmm8,%xmm0
    1fec:	0f 11 04 02          	movups %xmm0,(%rdx,%rax,1)
    1ff0:	48 83 c0 10          	add    $0x10,%rax
    1ff4:	4c 39 c8             	cmp    %r9,%rax
    1ff7:	0f 85 d3 fe ff ff    	jne    1ed0 <riscv_dsp_mul_q7+0x60>
    1ffd:	8d 04 cd 00 00 00 00 	lea    0x0(,%rcx,8),%eax
    2004:	44 89 c5             	mov    %r8d,%ebp
    2007:	48 89 c1             	mov    %rax,%rcx
    200a:	48 01 c0             	add    %rax,%rax
    200d:	4c 8d 14 07          	lea    (%rdi,%rax,1),%r10
    2011:	4c 8d 0c 06          	lea    (%rsi,%rax,1),%r9
    2015:	29 cd                	sub    %ecx,%ebp
    2017:	48 01 d0             	add    %rdx,%rax
    201a:	41 39 c8             	cmp    %ecx,%r8d
    201d:	0f 84 c8 01 00 00    	je     21eb <riscv_dsp_mul_q7+0x37b>
    2023:	41 0f be 09          	movsbl (%r9),%ecx
    2027:	41 0f be 1a          	movsbl (%r10),%ebx
    202b:	45 0f be 62 01       	movsbl 0x1(%r10),%r12d
    2030:	0f af d9             	imul   %ecx,%ebx
    2033:	b9 7f 00 00 00       	mov    $0x7f,%ecx
    2038:	c1 fb 07             	sar    $0x7,%ebx
    203b:	81 fb 80 00 00 00    	cmp    $0x80,%ebx
    2041:	0f 44 d9             	cmove  %ecx,%ebx
    2044:	88 18                	mov    %bl,(%rax)
    2046:	41 0f be 59 01       	movsbl 0x1(%r9),%ebx
    204b:	41 0f af dc          	imul   %r12d,%ebx
    204f:	c1 fb 07             	sar    $0x7,%ebx
    2052:	81 fb 80 00 00 00    	cmp    $0x80,%ebx
    2058:	0f 44 d9             	cmove  %ecx,%ebx
    205b:	88 58 01             	mov    %bl,0x1(%rax)
    205e:	83 fd 01             	cmp    $0x1,%ebp
    2061:	0f 84 84 01 00 00    	je     21eb <riscv_dsp_mul_q7+0x37b>
    2067:	45 0f be 62 02       	movsbl 0x2(%r10),%r12d
    206c:	41 0f be 59 02       	movsbl 0x2(%r9),%ebx
    2071:	41 0f af dc          	imul   %r12d,%ebx
    2075:	45 0f be 62 03       	movsbl 0x3(%r10),%r12d
    207a:	c1 fb 07             	sar    $0x7,%ebx
    207d:	81 fb 80 00 00 00    	cmp    $0x80,%ebx
    2083:	0f 44 d9             	cmove  %ecx,%ebx
    2086:	88 58 02             	mov    %bl,0x2(%rax)
    2089:	41 0f be 59 03       	movsbl 0x3(%r9),%ebx
    208e:	41 0f af dc          	imul   %r12d,%ebx
    2092:	c1 fb 07             	sar    $0x7,%ebx
    2095:	81 fb 80 00 00 00    	cmp    $0x80,%ebx
    209b:	0f 44 d9             	cmove  %ecx,%ebx
    209e:	88 58 03             	mov    %bl,0x3(%rax)
    20a1:	83 fd 02             	cmp    $0x2,%ebp
    20a4:	0f 84 41 01 00 00    	je     21eb <riscv_dsp_mul_q7+0x37b>
    20aa:	45 0f be 62 04       	movsbl 0x4(%r10),%r12d
    20af:	41 0f be 59 04       	movsbl 0x4(%r9),%ebx
    20b4:	41 0f af dc          	imul   %r12d,%ebx
    20b8:	45 0f be 62 05       	movsbl 0x5(%r10),%r12d
    20bd:	c1 fb 07             	sar    $0x7,%ebx
    20c0:	81 fb 80 00 00 00    	cmp    $0x80,%ebx
    20c6:	0f 44 d9             	cmove  %ecx,%ebx
    20c9:	88 58 04             	mov    %bl,0x4(%rax)
    20cc:	41 0f be 59 05       	movsbl 0x5(%r9),%ebx
    20d1:	41 0f af dc          	imul   %r12d,%ebx
    20d5:	c1 fb 07             	sar    $0x7,%ebx
    20d8:	81 fb 80 00 00 00    	cmp    $0x80,%ebx
    20de:	0f 44 d9             	cmove  %ecx,%ebx
    20e1:	88 58 05             	mov    %bl,0x5(%rax)
    20e4:	83 fd 03             	cmp    $0x3,%ebp
    20e7:	0f 84 fe 00 00 00    	je     21eb <riscv_dsp_mul_q7+0x37b>
    20ed:	45 0f be 62 06       	movsbl 0x6(%r10),%r12d
    20f2:	41 0f be 59 06       	movsbl 0x6(%r9),%ebx
    20f7:	41 0f af dc          	imul   %r12d,%ebx
    20fb:	45 0f be 62 07       	movsbl 0x7(%r10),%r12d
    2100:	c1 fb 07             	sar    $0x7,%ebx
    2103:	81 fb 80 00 00 00    	cmp    $0x80,%ebx
    2109:	0f 44 d9             	cmove  %ecx,%ebx
    210c:	88 58 06             	mov    %bl,0x6(%rax)
    210f:	41 0f be 59 07       	movsbl 0x7(%r9),%ebx
    2114:	41 0f af dc          	imul   %r12d,%ebx
    2118:	c1 fb 07             	sar    $0x7,%ebx
    211b:	81 fb 80 00 00 00    	cmp    $0x80,%ebx
    2121:	0f 44 d9             	cmove  %ecx,%ebx
    2124:	88 58 07             	mov    %bl,0x7(%rax)
    2127:	83 fd 04             	cmp    $0x4,%ebp
    212a:	0f 84 bb 00 00 00    	je     21eb <riscv_dsp_mul_q7+0x37b>
    2130:	45 0f be 62 08       	movsbl 0x8(%r10),%r12d
    2135:	41 0f be 59 08       	movsbl 0x8(%r9),%ebx
    213a:	41 0f af dc          	imul   %r12d,%ebx
    213e:	45 0f be 61 09       	movsbl 0x9(%r9),%r12d
    2143:	c1 fb 07             	sar    $0x7,%ebx
    2146:	81 fb 80 00 00 00    	cmp    $0x80,%ebx
    214c:	0f 44 d9             	cmove  %ecx,%ebx
    214f:	88 58 08             	mov    %bl,0x8(%rax)
    2152:	41 0f be 5a 09       	movsbl 0x9(%r10),%ebx
    2157:	41 0f af dc          	imul   %r12d,%ebx
    215b:	c1 fb 07             	sar    $0x7,%ebx
    215e:	81 fb 80 00 00 00    	cmp    $0x80,%ebx
    2164:	0f 44 d9             	cmove  %ecx,%ebx
    2167:	88 58 09             	mov    %bl,0x9(%rax)
    216a:	83 fd 05             	cmp    $0x5,%ebp
    216d:	74 7c                	je     21eb <riscv_dsp_mul_q7+0x37b>
    216f:	45 0f be 61 0a       	movsbl 0xa(%r9),%r12d
    2174:	41 0f be 5a 0a       	movsbl 0xa(%r10),%ebx
    2179:	41 0f af dc          	imul   %r12d,%ebx
    217d:	45 0f be 61 0b       	movsbl 0xb(%r9),%r12d
    2182:	c1 fb 07             	sar    $0x7,%ebx
    2185:	81 fb 80 00 00 00    	cmp    $0x80,%ebx
    218b:	0f 44 d9             	cmove  %ecx,%ebx
    218e:	88 58 0a             	mov    %bl,0xa(%rax)
    2191:	41 0f be 5a 0b       	movsbl 0xb(%r10),%ebx
    2196:	41 0f af dc          	imul   %r12d,%ebx
    219a:	c1 fb 07             	sar    $0x7,%ebx
    219d:	81 fb 80 00 00 00    	cmp    $0x80,%ebx
    21a3:	0f 44 d9             	cmove  %ecx,%ebx
    21a6:	88 58 0b             	mov    %bl,0xb(%rax)
    21a9:	83 fd 06             	cmp    $0x6,%ebp
    21ac:	74 3d                	je     21eb <riscv_dsp_mul_q7+0x37b>
    21ae:	41 0f be 5a 0c       	movsbl 0xc(%r10),%ebx
    21b3:	41 0f be 69 0c       	movsbl 0xc(%r9),%ebp
    21b8:	45 0f be 52 0d       	movsbl 0xd(%r10),%r10d
    21bd:	45 0f be 49 0d       	movsbl 0xd(%r9),%r9d
    21c2:	0f af dd             	imul   %ebp,%ebx
    21c5:	c1 fb 07             	sar    $0x7,%ebx
    21c8:	81 fb 80 00 00 00    	cmp    $0x80,%ebx
    21ce:	0f 44 d9             	cmove  %ecx,%ebx
    21d1:	45 0f af ca          	imul   %r10d,%r9d
    21d5:	88 58 0c             	mov    %bl,0xc(%rax)
    21d8:	41 c1 f9 07          	sar    $0x7,%r9d
    21dc:	41 81 f9 80 00 00 00 	cmp    $0x80,%r9d
    21e3:	44 0f 44 c9          	cmove  %ecx,%r9d
    21e7:	44 88 48 0d          	mov    %r9b,0xd(%rax)
    21eb:	4d 63 c0             	movslq %r8d,%r8
    21ee:	4d 01 c0             	add    %r8,%r8
    21f1:	4c 01 c7             	add    %r8,%rdi
    21f4:	4c 01 c6             	add    %r8,%rsi
    21f7:	4c 01 c2             	add    %r8,%rdx
    21fa:	45 85 db             	test   %r11d,%r11d
    21fd:	74 1b                	je     221a <riscv_dsp_mul_q7+0x3aa>
    21ff:	0f be 0e             	movsbl (%rsi),%ecx
    2202:	0f be 07             	movsbl (%rdi),%eax
    2205:	0f af c1             	imul   %ecx,%eax
    2208:	b9 7f 00 00 00       	mov    $0x7f,%ecx
    220d:	c1 f8 07             	sar    $0x7,%eax
    2210:	3d 80 00 00 00       	cmp    $0x80,%eax
    2215:	0f 44 c1             	cmove  %ecx,%eax
    2218:	88 02                	mov    %al,(%rdx)
    221a:	5b                   	pop    %rbx
    221b:	5d                   	pop    %rbp
    221c:	41 5c                	pop    %r12
    221e:	c3                   	ret    
    221f:	44 89 c5             	mov    %r8d,%ebp
    2222:	48 89 d0             	mov    %rdx,%rax
    2225:	49 89 f1             	mov    %rsi,%r9
    2228:	49 89 fa             	mov    %rdi,%r10
    222b:	e9 f3 fd ff ff       	jmp    2023 <riscv_dsp_mul_q7+0x1b3>

Disassembly of section .fini:

0000000000002230 <_fini>:
    2230:	f3 0f 1e fa          	endbr64 
    2234:	48 83 ec 08          	sub    $0x8,%rsp
    2238:	48 83 c4 08          	add    $0x8,%rsp
    223c:	c3                   	ret    
