
t_nlms_q31:     file format elf64-x86-64


Disassembly of section .init:

0000000000001000 <_init>:
    1000:	f3 0f 1e fa          	endbr64 
    1004:	48 83 ec 08          	sub    $0x8,%rsp
    1008:	48 8b 05 d9 3f 00 00 	mov    0x3fd9(%rip),%rax        # 4fe8 <__gmon_start__@Base>
    100f:	48 85 c0             	test   %rax,%rax
    1012:	74 02                	je     1016 <_init+0x16>
    1014:	ff d0                	call   *%rax
    1016:	48 83 c4 08          	add    $0x8,%rsp
    101a:	c3                   	ret    

Disassembly of section .plt:

0000000000001020 <.plt>:
    1020:	ff 35 4a 3f 00 00    	push   0x3f4a(%rip)        # 4f70 <_GLOBAL_OFFSET_TABLE_+0x8>
    1026:	f2 ff 25 4b 3f 00 00 	bnd jmp *0x3f4b(%rip)        # 4f78 <_GLOBAL_OFFSET_TABLE_+0x10>
    102d:	0f 1f 00             	nopl   (%rax)
    1030:	f3 0f 1e fa          	endbr64 
    1034:	68 00 00 00 00       	push   $0x0
    1039:	f2 e9 e1 ff ff ff    	bnd jmp 1020 <_init+0x20>
    103f:	90                   	nop
    1040:	f3 0f 1e fa          	endbr64 
    1044:	68 01 00 00 00       	push   $0x1
    1049:	f2 e9 d1 ff ff ff    	bnd jmp 1020 <_init+0x20>
    104f:	90                   	nop
    1050:	f3 0f 1e fa          	endbr64 
    1054:	68 02 00 00 00       	push   $0x2
    1059:	f2 e9 c1 ff ff ff    	bnd jmp 1020 <_init+0x20>
    105f:	90                   	nop
    1060:	f3 0f 1e fa          	endbr64 
    1064:	68 03 00 00 00       	push   $0x3
    1069:	f2 e9 b1 ff ff ff    	bnd jmp 1020 <_init+0x20>
    106f:	90                   	nop
    1070:	f3 0f 1e fa          	endbr64 
    1074:	68 04 00 00 00       	push   $0x4
    1079:	f2 e9 a1 ff ff ff    	bnd jmp 1020 <_init+0x20>
    107f:	90                   	nop
    1080:	f3 0f 1e fa          	endbr64 
    1084:	68 05 00 00 00       	push   $0x5
    1089:	f2 e9 91 ff ff ff    	bnd jmp 1020 <_init+0x20>
    108f:	90                   	nop
    1090:	f3 0f 1e fa          	endbr64 
    1094:	68 06 00 00 00       	push   $0x6
    1099:	f2 e9 81 ff ff ff    	bnd jmp 1020 <_init+0x20>
    109f:	90                   	nop
    10a0:	f3 0f 1e fa          	endbr64 
    10a4:	68 07 00 00 00       	push   $0x7
    10a9:	f2 e9 71 ff ff ff    	bnd jmp 1020 <_init+0x20>
    10af:	90                   	nop
    10b0:	f3 0f 1e fa          	endbr64 
    10b4:	68 08 00 00 00       	push   $0x8
    10b9:	f2 e9 61 ff ff ff    	bnd jmp 1020 <_init+0x20>
    10bf:	90                   	nop
    10c0:	f3 0f 1e fa          	endbr64 
    10c4:	68 09 00 00 00       	push   $0x9
    10c9:	f2 e9 51 ff ff ff    	bnd jmp 1020 <_init+0x20>
    10cf:	90                   	nop
    10d0:	f3 0f 1e fa          	endbr64 
    10d4:	68 0a 00 00 00       	push   $0xa
    10d9:	f2 e9 41 ff ff ff    	bnd jmp 1020 <_init+0x20>
    10df:	90                   	nop

Disassembly of section .plt.got:

00000000000010e0 <__cxa_finalize@plt>:
    10e0:	f3 0f 1e fa          	endbr64 
    10e4:	f2 ff 25 0d 3f 00 00 	bnd jmp *0x3f0d(%rip)        # 4ff8 <__cxa_finalize@GLIBC_2.2.5>
    10eb:	0f 1f 44 00 00       	nopl   0x0(%rax,%rax,1)

Disassembly of section .plt.sec:

00000000000010f0 <free@plt>:
    10f0:	f3 0f 1e fa          	endbr64 
    10f4:	f2 ff 25 85 3e 00 00 	bnd jmp *0x3e85(%rip)        # 4f80 <free@GLIBC_2.2.5>
    10fb:	0f 1f 44 00 00       	nopl   0x0(%rax,%rax,1)

0000000000001100 <puts@plt>:
    1100:	f3 0f 1e fa          	endbr64 
    1104:	f2 ff 25 7d 3e 00 00 	bnd jmp *0x3e7d(%rip)        # 4f88 <puts@GLIBC_2.2.5>
    110b:	0f 1f 44 00 00       	nopl   0x0(%rax,%rax,1)

0000000000001110 <fread@plt>:
    1110:	f3 0f 1e fa          	endbr64 
    1114:	f2 ff 25 75 3e 00 00 	bnd jmp *0x3e75(%rip)        # 4f90 <fread@GLIBC_2.2.5>
    111b:	0f 1f 44 00 00       	nopl   0x0(%rax,%rax,1)

0000000000001120 <fclose@plt>:
    1120:	f3 0f 1e fa          	endbr64 
    1124:	f2 ff 25 6d 3e 00 00 	bnd jmp *0x3e6d(%rip)        # 4f98 <fclose@GLIBC_2.2.5>
    112b:	0f 1f 44 00 00       	nopl   0x0(%rax,%rax,1)

0000000000001130 <__stack_chk_fail@plt>:
    1130:	f3 0f 1e fa          	endbr64 
    1134:	f2 ff 25 65 3e 00 00 	bnd jmp *0x3e65(%rip)        # 4fa0 <__stack_chk_fail@GLIBC_2.4>
    113b:	0f 1f 44 00 00       	nopl   0x0(%rax,%rax,1)

0000000000001140 <calloc@plt>:
    1140:	f3 0f 1e fa          	endbr64 
    1144:	f2 ff 25 5d 3e 00 00 	bnd jmp *0x3e5d(%rip)        # 4fa8 <calloc@GLIBC_2.2.5>
    114b:	0f 1f 44 00 00       	nopl   0x0(%rax,%rax,1)

0000000000001150 <log10f@plt>:
    1150:	f3 0f 1e fa          	endbr64 
    1154:	f2 ff 25 55 3e 00 00 	bnd jmp *0x3e55(%rip)        # 4fb0 <log10f@GLIBC_2.2.5>
    115b:	0f 1f 44 00 00       	nopl   0x0(%rax,%rax,1)

0000000000001160 <__printf_chk@plt>:
    1160:	f3 0f 1e fa          	endbr64 
    1164:	f2 ff 25 4d 3e 00 00 	bnd jmp *0x3e4d(%rip)        # 4fb8 <__printf_chk@GLIBC_2.3.4>
    116b:	0f 1f 44 00 00       	nopl   0x0(%rax,%rax,1)

0000000000001170 <fopen@plt>:
    1170:	f3 0f 1e fa          	endbr64 
    1174:	f2 ff 25 45 3e 00 00 	bnd jmp *0x3e45(%rip)        # 4fc0 <fopen@GLIBC_2.2.5>
    117b:	0f 1f 44 00 00       	nopl   0x0(%rax,%rax,1)

0000000000001180 <sqrt@plt>:
    1180:	f3 0f 1e fa          	endbr64 
    1184:	f2 ff 25 3d 3e 00 00 	bnd jmp *0x3e3d(%rip)        # 4fc8 <sqrt@GLIBC_2.2.5>
    118b:	0f 1f 44 00 00       	nopl   0x0(%rax,%rax,1)

0000000000001190 <__sprintf_chk@plt>:
    1190:	f3 0f 1e fa          	endbr64 
    1194:	f2 ff 25 35 3e 00 00 	bnd jmp *0x3e35(%rip)        # 4fd0 <__sprintf_chk@GLIBC_2.3.4>
    119b:	0f 1f 44 00 00       	nopl   0x0(%rax,%rax,1)

Disassembly of section .text:

00000000000011a0 <main>:
    11a0:	f3 0f 1e fa          	endbr64 
    11a4:	55                   	push   %rbp
    11a5:	be 04 00 00 00       	mov    $0x4,%esi
    11aa:	bf 7d 00 00 00       	mov    $0x7d,%edi
    11af:	48 89 e5             	mov    %rsp,%rbp
    11b2:	41 57                	push   %r15
    11b4:	41 56                	push   %r14
    11b6:	41 55                	push   %r13
    11b8:	41 54                	push   %r12
    11ba:	53                   	push   %rbx
    11bb:	48 81 ec d8 06 00 00 	sub    $0x6d8,%rsp
    11c2:	64 48 8b 04 25 28 00 	mov    %fs:0x28,%rax
    11c9:	00 00 
    11cb:	48 89 45 c8          	mov    %rax,-0x38(%rbp)
    11cf:	31 c0                	xor    %eax,%eax
    11d1:	e8 6a ff ff ff       	call   1140 <calloc@plt>
    11d6:	be 04 00 00 00       	mov    $0x4,%esi
    11db:	bf 3f 00 00 00       	mov    $0x3f,%edi
    11e0:	48 89 c3             	mov    %rax,%rbx
    11e3:	48 89 85 30 f9 ff ff 	mov    %rax,-0x6d0(%rbp)
    11ea:	e8 51 ff ff ff       	call   1140 <calloc@plt>
    11ef:	66 48 0f 6e c3       	movq   %rbx,%xmm0
    11f4:	c7 85 90 f9 ff ff 3f 	movl   $0x3f,-0x670(%rbp)
    11fb:	00 00 00 
    11fe:	48 89 85 60 f9 ff ff 	mov    %rax,-0x6a0(%rbp)
    1205:	48 8d 84 24 00 d0 ff 	lea    -0x3000(%rsp),%rax
    120c:	ff 
    120d:	c7 85 a8 f9 ff ff 00 	movl   $0x6680000,-0x658(%rbp)
    1214:	00 68 06 
    1217:	c6 85 ac f9 ff ff 00 	movb   $0x0,-0x654(%rbp)
    121e:	0f 16 85 60 f9 ff ff 	movhps -0x6a0(%rbp),%xmm0
    1225:	48 c7 85 b0 f9 ff ff 	movq   $0x0,-0x650(%rbp)
    122c:	00 00 00 00 
    1230:	0f 11 85 98 f9 ff ff 	movups %xmm0,-0x668(%rbp)
    1237:	48 39 c4             	cmp    %rax,%rsp
    123a:	74 15                	je     1251 <main+0xb1>
    123c:	48 81 ec 00 10 00 00 	sub    $0x1000,%rsp
    1243:	48 83 8c 24 f8 0f 00 	orq    $0x0,0xff8(%rsp)
    124a:	00 00 
    124c:	48 39 c4             	cmp    %rax,%rsp
    124f:	75 eb                	jne    123c <main+0x9c>
    1251:	48 81 ec 00 0f 00 00 	sub    $0xf00,%rsp
    1258:	48 83 8c 24 f8 0e 00 	orq    $0x0,0xef8(%rsp)
    125f:	00 00 
    1261:	48 89 a5 58 f9 ff ff 	mov    %rsp,-0x6a8(%rbp)
    1268:	48 8d 84 24 00 d0 ff 	lea    -0x3000(%rsp),%rax
    126f:	ff 
    1270:	48 39 c4             	cmp    %rax,%rsp
    1273:	74 12                	je     1287 <main+0xe7>
    1275:	48 81 ec 00 10 00 00 	sub    $0x1000,%rsp
    127c:	48 83 8c 24 f8 0f 00 	orq    $0x0,0xff8(%rsp)
    1283:	00 00 
    1285:	eb e9                	jmp    1270 <main+0xd0>
    1287:	48 81 ec 00 0f 00 00 	sub    $0xf00,%rsp
    128e:	48 83 8c 24 f8 0e 00 	orq    $0x0,0xef8(%rsp)
    1295:	00 00 
    1297:	48 89 a5 50 f9 ff ff 	mov    %rsp,-0x6b0(%rbp)
    129e:	48 8d 84 24 00 d0 ff 	lea    -0x3000(%rsp),%rax
    12a5:	ff 
    12a6:	48 39 c4             	cmp    %rax,%rsp
    12a9:	74 12                	je     12bd <main+0x11d>
    12ab:	48 81 ec 00 10 00 00 	sub    $0x1000,%rsp
    12b2:	48 83 8c 24 f8 0f 00 	orq    $0x0,0xff8(%rsp)
    12b9:	00 00 
    12bb:	eb e9                	jmp    12a6 <main+0x106>
    12bd:	48 81 ec 00 0f 00 00 	sub    $0xf00,%rsp
    12c4:	48 83 8c 24 f8 0e 00 	orq    $0x0,0xef8(%rsp)
    12cb:	00 00 
    12cd:	48 89 e0             	mov    %rsp,%rax
    12d0:	48 89 85 48 f9 ff ff 	mov    %rax,-0x6b8(%rbp)
    12d7:	48 89 85 10 f9 ff ff 	mov    %rax,-0x6f0(%rbp)
    12de:	48 8d 84 24 00 d0 ff 	lea    -0x3000(%rsp),%rax
    12e5:	ff 
    12e6:	48 39 c4             	cmp    %rax,%rsp
    12e9:	74 12                	je     12fd <main+0x15d>
    12eb:	48 81 ec 00 10 00 00 	sub    $0x1000,%rsp
    12f2:	48 83 8c 24 f8 0f 00 	orq    $0x0,0xff8(%rsp)
    12f9:	00 00 
    12fb:	eb e9                	jmp    12e6 <main+0x146>
    12fd:	48 81 ec 00 0f 00 00 	sub    $0xf00,%rsp
    1304:	48 83 8c 24 f8 0e 00 	orq    $0x0,0xef8(%rsp)
    130b:	00 00 
    130d:	48 89 a5 40 f9 ff ff 	mov    %rsp,-0x6c0(%rbp)
    1314:	48 8d 84 24 00 d0 ff 	lea    -0x3000(%rsp),%rax
    131b:	ff 
    131c:	48 39 c4             	cmp    %rax,%rsp
    131f:	74 12                	je     1333 <main+0x193>
    1321:	48 81 ec 00 10 00 00 	sub    $0x1000,%rsp
    1328:	48 83 8c 24 f8 0f 00 	orq    $0x0,0xff8(%rsp)
    132f:	00 00 
    1331:	eb e9                	jmp    131c <main+0x17c>
    1333:	48 81 ec 00 0f 00 00 	sub    $0xf00,%rsp
    133a:	48 83 8c 24 f8 0e 00 	orq    $0x0,0xef8(%rsp)
    1341:	00 00 
    1343:	48 89 e0             	mov    %rsp,%rax
    1346:	48 89 85 08 f9 ff ff 	mov    %rax,-0x6f8(%rbp)
    134d:	48 89 85 18 f9 ff ff 	mov    %rax,-0x6e8(%rbp)
    1354:	48 8d 84 24 00 d0 ff 	lea    -0x3000(%rsp),%rax
    135b:	ff 
    135c:	48 39 c4             	cmp    %rax,%rsp
    135f:	74 12                	je     1373 <main+0x1d3>
    1361:	48 81 ec 00 10 00 00 	sub    $0x1000,%rsp
    1368:	48 83 8c 24 f8 0f 00 	orq    $0x0,0xff8(%rsp)
    136f:	00 00 
    1371:	eb e9                	jmp    135c <main+0x1bc>
    1373:	48 81 ec 00 0f 00 00 	sub    $0xf00,%rsp
    137a:	48 83 8c 24 f8 0e 00 	orq    $0x0,0xef8(%rsp)
    1381:	00 00 
    1383:	4c 8d 05 1e 1d 00 00 	lea    0x1d1e(%rip),%r8        # 30a8 <_IO_stdin_used+0xa8>
    138a:	ba 00 02 00 00       	mov    $0x200,%edx
    138f:	31 c0                	xor    %eax,%eax
    1391:	48 8d 0d 7f 1c 00 00 	lea    0x1c7f(%rip),%rcx        # 3017 <_IO_stdin_used+0x17>
    1398:	be 01 00 00 00       	mov    $0x1,%esi
    139d:	4c 8d 25 84 1c 00 00 	lea    0x1c84(%rip),%r12        # 3028 <_IO_stdin_used+0x28>
    13a4:	4c 8d ad c0 fd ff ff 	lea    -0x240(%rbp),%r13
    13ab:	48 89 a5 38 f9 ff ff 	mov    %rsp,-0x6c8(%rbp)
    13b2:	4c 89 ef             	mov    %r13,%rdi
    13b5:	e8 d6 fd ff ff       	call   1190 <__sprintf_chk@plt>
    13ba:	4c 89 e6             	mov    %r12,%rsi
    13bd:	4c 89 ef             	mov    %r13,%rdi
    13c0:	e8 ab fd ff ff       	call   1170 <fopen@plt>
    13c5:	48 89 85 78 f9 ff ff 	mov    %rax,-0x688(%rbp)
    13cc:	48 85 c0             	test   %rax,%rax
    13cf:	0f 84 b0 05 00 00    	je     1985 <main+0x7e5>
    13d5:	ba 00 02 00 00       	mov    $0x200,%edx
    13da:	be 01 00 00 00       	mov    $0x1,%esi
    13df:	4c 89 ef             	mov    %r13,%rdi
    13e2:	31 c0                	xor    %eax,%eax
    13e4:	4c 8d 05 bd 1c 00 00 	lea    0x1cbd(%rip),%r8        # 30a8 <_IO_stdin_used+0xa8>
    13eb:	48 8d 0d 38 1c 00 00 	lea    0x1c38(%rip),%rcx        # 302a <_IO_stdin_used+0x2a>
    13f2:	e8 99 fd ff ff       	call   1190 <__sprintf_chk@plt>
    13f7:	4c 89 e6             	mov    %r12,%rsi
    13fa:	4c 89 ef             	mov    %r13,%rdi
    13fd:	e8 6e fd ff ff       	call   1170 <fopen@plt>
    1402:	48 89 85 80 f9 ff ff 	mov    %rax,-0x680(%rbp)
    1409:	48 85 c0             	test   %rax,%rax
    140c:	0f 84 73 05 00 00    	je     1985 <main+0x7e5>
    1412:	ba 00 02 00 00       	mov    $0x200,%edx
    1417:	be 01 00 00 00       	mov    $0x1,%esi
    141c:	4c 89 ef             	mov    %r13,%rdi
    141f:	31 c0                	xor    %eax,%eax
    1421:	4c 8d 05 80 1c 00 00 	lea    0x1c80(%rip),%r8        # 30a8 <_IO_stdin_used+0xa8>
    1428:	48 8d 0d 10 1c 00 00 	lea    0x1c10(%rip),%rcx        # 303f <_IO_stdin_used+0x3f>
    142f:	e8 5c fd ff ff       	call   1190 <__sprintf_chk@plt>
    1434:	4c 89 e6             	mov    %r12,%rsi
    1437:	4c 89 ef             	mov    %r13,%rdi
    143a:	e8 31 fd ff ff       	call   1170 <fopen@plt>
    143f:	48 89 85 28 f9 ff ff 	mov    %rax,-0x6d8(%rbp)
    1446:	48 85 c0             	test   %rax,%rax
    1449:	0f 84 36 05 00 00    	je     1985 <main+0x7e5>
    144f:	ba 00 02 00 00       	mov    $0x200,%edx
    1454:	be 01 00 00 00       	mov    $0x1,%esi
    1459:	4c 89 ef             	mov    %r13,%rdi
    145c:	31 c0                	xor    %eax,%eax
    145e:	4c 8d 05 43 1c 00 00 	lea    0x1c43(%rip),%r8        # 30a8 <_IO_stdin_used+0xa8>
    1465:	48 8d 0d ee 1b 00 00 	lea    0x1bee(%rip),%rcx        # 305a <_IO_stdin_used+0x5a>
    146c:	e8 1f fd ff ff       	call   1190 <__sprintf_chk@plt>
    1471:	4c 89 e6             	mov    %r12,%rsi
    1474:	4c 89 ef             	mov    %r13,%rdi
    1477:	e8 f4 fc ff ff       	call   1170 <fopen@plt>
    147c:	48 89 85 20 f9 ff ff 	mov    %rax,-0x6e0(%rbp)
    1483:	48 85 c0             	test   %rax,%rax
    1486:	0f 84 f9 04 00 00    	je     1985 <main+0x7e5>
    148c:	48 8b 9d 50 f9 ff ff 	mov    -0x6b0(%rbp),%rbx
    1493:	4c 8d bd c0 fb ff ff 	lea    -0x440(%rbp),%r15
    149a:	4c 8d b5 c0 fc ff ff 	lea    -0x340(%rbp),%r14
    14a1:	4c 8d ad c0 f9 ff ff 	lea    -0x640(%rbp),%r13
    14a8:	4c 8d a5 c0 fa ff ff 	lea    -0x540(%rbp),%r12
    14af:	48 8d 83 00 3f 00 00 	lea    0x3f00(%rbx),%rax
    14b6:	48 89 85 70 f9 ff ff 	mov    %rax,-0x690(%rbp)
    14bd:	48 8b 85 58 f9 ff ff 	mov    -0x6a8(%rbp),%rax
    14c4:	48 89 85 88 f9 ff ff 	mov    %rax,-0x678(%rbp)
    14cb:	48 8d 85 90 f9 ff ff 	lea    -0x670(%rbp),%rax
    14d2:	48 89 85 68 f9 ff ff 	mov    %rax,-0x698(%rbp)
    14d9:	0f 1f 80 00 00 00 00 	nopl   0x0(%rax)
    14e0:	48 8b 8d 78 f9 ff ff 	mov    -0x688(%rbp),%rcx
    14e7:	ba 3f 00 00 00       	mov    $0x3f,%edx
    14ec:	be 04 00 00 00       	mov    $0x4,%esi
    14f1:	4c 89 ff             	mov    %r15,%rdi
    14f4:	e8 17 fc ff ff       	call   1110 <fread@plt>
    14f9:	48 8b 8d 80 f9 ff ff 	mov    -0x680(%rbp),%rcx
    1500:	ba 3f 00 00 00       	mov    $0x3f,%edx
    1505:	4c 89 f7             	mov    %r14,%rdi
    1508:	be 04 00 00 00       	mov    $0x4,%esi
    150d:	e8 fe fb ff ff       	call   1110 <fread@plt>
    1512:	ba 3f 00 00 00       	mov    $0x3f,%edx
    1517:	4c 89 ee             	mov    %r13,%rsi
    151a:	4c 89 ff             	mov    %r15,%rdi
    151d:	e8 de 06 00 00       	call   1c00 <riscv_dsp_convert_f32_q31>
    1522:	ba 3f 00 00 00       	mov    $0x3f,%edx
    1527:	4c 89 e6             	mov    %r12,%rsi
    152a:	4c 89 f7             	mov    %r14,%rdi
    152d:	e8 ce 06 00 00       	call   1c00 <riscv_dsp_convert_f32_q31>
    1532:	49 89 d8             	mov    %rbx,%r8
    1535:	4c 89 e2             	mov    %r12,%rdx
    1538:	4c 89 ee             	mov    %r13,%rsi
    153b:	48 8b 8d 88 f9 ff ff 	mov    -0x678(%rbp),%rcx
    1542:	48 8b bd 68 f9 ff ff 	mov    -0x698(%rbp),%rdi
    1549:	41 b9 3f 00 00 00    	mov    $0x3f,%r9d
    154f:	48 81 c3 fc 00 00 00 	add    $0xfc,%rbx
    1556:	e8 f5 07 00 00       	call   1d50 <riscv_dsp_nlms_q31>
    155b:	48 81 85 88 f9 ff ff 	addq   $0xfc,-0x678(%rbp)
    1562:	fc 00 00 00 
    1566:	48 39 9d 70 f9 ff ff 	cmp    %rbx,-0x690(%rbp)
    156d:	0f 85 6d ff ff ff    	jne    14e0 <main+0x340>
    1573:	4c 8b ad 48 f9 ff ff 	mov    -0x6b8(%rbp),%r13
    157a:	48 8b bd 58 f9 ff ff 	mov    -0x6a8(%rbp),%rdi
    1581:	ba c0 0f 00 00       	mov    $0xfc0,%edx
    1586:	4c 89 ee             	mov    %r13,%rsi
    1589:	e8 02 07 00 00       	call   1c90 <riscv_dsp_convert_q31_f32>
    158e:	48 8b b5 40 f9 ff ff 	mov    -0x6c0(%rbp),%rsi
    1595:	ba c0 0f 00 00       	mov    $0xfc0,%edx
    159a:	48 8b bd 50 f9 ff ff 	mov    -0x6b0(%rbp),%rdi
    15a1:	e8 ea 06 00 00       	call   1c90 <riscv_dsp_convert_q31_f32>
    15a6:	4c 8b bd 28 f9 ff ff 	mov    -0x6d8(%rbp),%r15
    15ad:	4c 8b b5 08 f9 ff ff 	mov    -0x6f8(%rbp),%r14
    15b4:	4c 89 fe             	mov    %r15,%rsi
    15b7:	4c 89 f7             	mov    %r14,%rdi
    15ba:	e8 21 06 00 00       	call   1be0 <test_Fread.constprop.1.isra.0>
    15bf:	48 8b 9d 20 f9 ff ff 	mov    -0x6e0(%rbp),%rbx
    15c6:	48 8b bd 38 f9 ff ff 	mov    -0x6c8(%rbp),%rdi
    15cd:	48 89 de             	mov    %rbx,%rsi
    15d0:	e8 0b 06 00 00       	call   1be0 <test_Fread.constprop.1.isra.0>
    15d5:	48 8b bd 78 f9 ff ff 	mov    -0x688(%rbp),%rdi
    15dc:	e8 3f fb ff ff       	call   1120 <fclose@plt>
    15e1:	48 8b bd 80 f9 ff ff 	mov    -0x680(%rbp),%rdi
    15e8:	e8 33 fb ff ff       	call   1120 <fclose@plt>
    15ed:	4c 89 ff             	mov    %r15,%rdi
    15f0:	e8 2b fb ff ff       	call   1120 <fclose@plt>
    15f5:	48 89 df             	mov    %rbx,%rdi
    15f8:	e8 23 fb ff ff       	call   1120 <fclose@plt>
    15fd:	48 8b bd 30 f9 ff ff 	mov    -0x6d0(%rbp),%rdi
    1604:	e8 e7 fa ff ff       	call   10f0 <free@plt>
    1609:	48 8b bd 60 f9 ff ff 	mov    -0x6a0(%rbp),%rdi
    1610:	e8 db fa ff ff       	call   10f0 <free@plt>
    1615:	4c 89 ee             	mov    %r13,%rsi
    1618:	4c 89 f7             	mov    %r14,%rdi
    161b:	e8 50 05 00 00       	call   1b70 <dump2_f32.constprop.0>
    1620:	f3 0f 5a c0          	cvtss2sd %xmm0,%xmm0
    1624:	66 0f 2f 05 44 1b 00 	comisd 0x1b44(%rip),%xmm0        # 3170 <_IO_stdin_used+0x170>
    162b:	00 
    162c:	0f 87 47 03 00 00    	ja     1979 <main+0x7d9>
    1632:	48 8b b5 40 f9 ff ff 	mov    -0x6c0(%rbp),%rsi
    1639:	48 8b bd 38 f9 ff ff 	mov    -0x6c8(%rbp),%rdi
    1640:	e8 2b 05 00 00       	call   1b70 <dump2_f32.constprop.0>
    1645:	f3 0f 5a c0          	cvtss2sd %xmm0,%xmm0
    1649:	66 0f 2f 05 1f 1b 00 	comisd 0x1b1f(%rip),%xmm0        # 3170 <_IO_stdin_used+0x170>
    1650:	00 
    1651:	0f 87 36 03 00 00    	ja     198d <main+0x7ed>
    1657:	48 8b 9d 48 f9 ff ff 	mov    -0x6b8(%rbp),%rbx
    165e:	66 45 0f ef db       	pxor   %xmm11,%xmm11
    1663:	4c 8b ad 18 f9 ff ff 	mov    -0x6e8(%rbp),%r13
    166a:	66 45 0f ef e4       	pxor   %xmm12,%xmm12
    166f:	4c 8b a5 10 f9 ff ff 	mov    -0x6f0(%rbp),%r12
    1676:	41 0f 28 e3          	movaps %xmm11,%xmm4
    167a:	41 0f 28 db          	movaps %xmm11,%xmm3
    167e:	41 0f 28 cb          	movaps %xmm11,%xmm1
    1682:	48 81 c3 00 3f 00 00 	add    $0x3f00,%rbx
    1689:	41 0f 28 d3          	movaps %xmm11,%xmm2
    168d:	f3 44 0f 11 9d 88 f9 	movss  %xmm11,-0x678(%rbp)
    1694:	ff ff 
    1696:	f3 44 0f 10 15 b1 1a 	movss  0x1ab1(%rip),%xmm10        # 3150 <_IO_stdin_used+0x150>
    169d:	00 00 
    169f:	90                   	nop
    16a0:	66 45 0f 28 c4       	movapd %xmm12,%xmm8
    16a5:	66 41 0f 28 f4       	movapd %xmm12,%xmm6
    16aa:	41 0f 28 eb          	movaps %xmm11,%xmm5
    16ae:	31 c0                	xor    %eax,%eax
    16b0:	45 0f 28 eb          	movaps %xmm11,%xmm13
    16b4:	45 0f 28 cb          	movaps %xmm11,%xmm9
    16b8:	41 0f 28 fb          	movaps %xmm11,%xmm7
    16bc:	0f 1f 40 00          	nopl   0x0(%rax)
    16c0:	f3 41 0f 10 04 04    	movss  (%r12,%rax,1),%xmm0
    16c6:	f3 45 0f 10 7c 05 00 	movss  0x0(%r13,%rax,1),%xmm15
    16cd:	66 0f 7e c1          	movd   %xmm0,%ecx
    16d1:	81 f9 00 00 c0 7f    	cmp    $0x7fc00000,%ecx
    16d7:	0f 84 bb 01 00 00    	je     1898 <main+0x6f8>
    16dd:	45 0f 28 f7          	movaps %xmm15,%xmm14
    16e1:	f3 41 0f 5c c7       	subss  %xmm15,%xmm0
    16e6:	48 83 c0 04          	add    $0x4,%rax
    16ea:	f3 44 0f 5f f7       	maxss  %xmm7,%xmm14
    16ef:	41 0f 28 fe          	movaps %xmm14,%xmm7
    16f3:	45 0f 28 f7          	movaps %xmm15,%xmm14
    16f7:	f3 45 0f 5d f1       	minss  %xmm9,%xmm14
    16fc:	f3 45 0f 59 ff       	mulss  %xmm15,%xmm15
    1701:	45 0f 28 ce          	movaps %xmm14,%xmm9
    1705:	44 0f 28 f0          	movaps %xmm0,%xmm14
    1709:	f3 0f 59 c0          	mulss  %xmm0,%xmm0
    170d:	45 0f 54 f2          	andps  %xmm10,%xmm14
    1711:	f3 45 0f 58 ee       	addss  %xmm14,%xmm13
    1716:	f3 44 0f 5f f5       	maxss  %xmm5,%xmm14
    171b:	f3 45 0f 5a ff       	cvtss2sd %xmm15,%xmm15
    1720:	f2 45 0f 58 c7       	addsd  %xmm15,%xmm8
    1725:	41 0f 28 ee          	movaps %xmm14,%xmm5
    1729:	f3 0f 5a c0          	cvtss2sd %xmm0,%xmm0
    172d:	f2 0f 58 f0          	addsd  %xmm0,%xmm6
    1731:	48 3d fc 00 00 00    	cmp    $0xfc,%rax
    1737:	75 87                	jne    16c0 <main+0x520>
    1739:	66 48 0f 7e f0       	movq   %xmm6,%rax
    173e:	3d 00 00 c0 7f       	cmp    $0x7fc00000,%eax
    1743:	0f 84 4f 01 00 00    	je     1898 <main+0x6f8>
    1749:	f3 44 0f 5e 2d 12 1a 	divss  0x1a12(%rip),%xmm13        # 3164 <_IO_stdin_used+0x164>
    1750:	00 00 
    1752:	66 44 0f 28 fe       	movapd %xmm6,%xmm15
    1757:	f2 44 0f 5e 3d 18 1a 	divsd  0x1a18(%rip),%xmm15        # 3178 <_IO_stdin_used+0x178>
    175e:	00 00 
    1760:	66 45 0f 2e e7       	ucomisd %xmm15,%xmm12
    1765:	45 0f 28 f5          	movaps %xmm13,%xmm14
    1769:	0f 87 32 02 00 00    	ja     19a1 <main+0x801>
    176f:	f2 45 0f 51 ff       	sqrtsd %xmm15,%xmm15
    1774:	f3 41 0f 5c f9       	subss  %xmm9,%xmm7
    1779:	66 41 0f 2e f4       	ucomisd %xmm12,%xmm6
    177e:	f2 45 0f 5a ff       	cvtsd2ss %xmm15,%xmm15
    1783:	45 0f 28 cf          	movaps %xmm15,%xmm9
    1787:	f3 44 0f 5e cf       	divss  %xmm7,%xmm9
    178c:	0f 8a 2e 01 00 00    	jp     18c0 <main+0x720>
    1792:	f3 0f 10 05 c6 19 00 	movss  0x19c6(%rip),%xmm0        # 3160 <_IO_stdin_used+0x160>
    1799:	00 
    179a:	0f 85 20 01 00 00    	jne    18c0 <main+0x720>
    17a0:	49 81 c4 fc 00 00 00 	add    $0xfc,%r12
    17a7:	f3 41 0f 58 d1       	addss  %xmm9,%xmm2
    17ac:	f3 41 0f 58 cf       	addss  %xmm15,%xmm1
    17b1:	49 81 c5 fc 00 00 00 	add    $0xfc,%r13
    17b8:	f3 44 0f 58 b5 88 f9 	addss  -0x678(%rbp),%xmm14
    17bf:	ff ff 
    17c1:	f3 0f 58 dd          	addss  %xmm5,%xmm3
    17c5:	f3 0f 58 e0          	addss  %xmm0,%xmm4
    17c9:	f3 44 0f 11 b5 88 f9 	movss  %xmm14,-0x678(%rbp)
    17d0:	ff ff 
    17d2:	4c 39 e3             	cmp    %r12,%rbx
    17d5:	0f 85 c5 fe ff ff    	jne    16a0 <main+0x500>
    17db:	48 8d 3d b1 18 00 00 	lea    0x18b1(%rip),%rdi        # 3093 <_IO_stdin_used+0x93>
    17e2:	f3 0f 11 a5 68 f9 ff 	movss  %xmm4,-0x698(%rbp)
    17e9:	ff 
    17ea:	f3 0f 11 9d 70 f9 ff 	movss  %xmm3,-0x690(%rbp)
    17f1:	ff 
    17f2:	f3 0f 11 8d 78 f9 ff 	movss  %xmm1,-0x688(%rbp)
    17f9:	ff 
    17fa:	f3 0f 11 95 80 f9 ff 	movss  %xmm2,-0x680(%rbp)
    1801:	ff 
    1802:	e8 f9 f8 ff ff       	call   1100 <puts@plt>
    1807:	f3 0f 10 05 5d 19 00 	movss  0x195d(%rip),%xmm0        # 316c <_IO_stdin_used+0x16c>
    180e:	00 
    180f:	f3 0f 10 a5 68 f9 ff 	movss  -0x698(%rbp),%xmm4
    1816:	ff 
    1817:	48 8d 35 d2 18 00 00 	lea    0x18d2(%rip),%rsi        # 30f0 <_IO_stdin_used+0xf0>
    181e:	f3 0f 10 9d 70 f9 ff 	movss  -0x690(%rbp),%xmm3
    1825:	ff 
    1826:	bf 01 00 00 00       	mov    $0x1,%edi
    182b:	b8 05 00 00 00       	mov    $0x5,%eax
    1830:	f3 0f 10 95 80 f9 ff 	movss  -0x680(%rbp),%xmm2
    1837:	ff 
    1838:	f3 0f 10 8d 78 f9 ff 	movss  -0x688(%rbp),%xmm1
    183f:	ff 
    1840:	f3 0f 59 e0          	mulss  %xmm0,%xmm4
    1844:	f3 0f 59 d8          	mulss  %xmm0,%xmm3
    1848:	f3 0f 59 d0          	mulss  %xmm0,%xmm2
    184c:	f3 0f 59 c8          	mulss  %xmm0,%xmm1
    1850:	f3 0f 59 85 88 f9 ff 	mulss  -0x678(%rbp),%xmm0
    1857:	ff 
    1858:	f3 0f 5a e4          	cvtss2sd %xmm4,%xmm4
    185c:	f3 0f 5a db          	cvtss2sd %xmm3,%xmm3
    1860:	f3 0f 5a d2          	cvtss2sd %xmm2,%xmm2
    1864:	f3 0f 5a c9          	cvtss2sd %xmm1,%xmm1
    1868:	f3 0f 5a c0          	cvtss2sd %xmm0,%xmm0
    186c:	e8 ef f8 ff ff       	call   1160 <__printf_chk@plt>
    1871:	31 c0                	xor    %eax,%eax
    1873:	48 8b 55 c8          	mov    -0x38(%rbp),%rdx
    1877:	64 48 2b 14 25 28 00 	sub    %fs:0x28,%rdx
    187e:	00 00 
    1880:	0f 85 e8 01 00 00    	jne    1a6e <main+0x8ce>
    1886:	48 8d 65 d8          	lea    -0x28(%rbp),%rsp
    188a:	5b                   	pop    %rbx
    188b:	41 5c                	pop    %r12
    188d:	41 5d                	pop    %r13
    188f:	41 5e                	pop    %r14
    1891:	41 5f                	pop    %r15
    1893:	5d                   	pop    %rbp
    1894:	c3                   	ret    
    1895:	0f 1f 00             	nopl   (%rax)
    1898:	41 0f 28 eb          	movaps %xmm11,%xmm5
    189c:	41 0f 28 c3          	movaps %xmm11,%xmm0
    18a0:	45 0f 28 fb          	movaps %xmm11,%xmm15
    18a4:	f3 44 0f 10 0d b3 18 	movss  0x18b3(%rip),%xmm9        # 3160 <_IO_stdin_used+0x160>
    18ab:	00 00 
    18ad:	45 0f 28 f3          	movaps %xmm11,%xmm14
    18b1:	e9 ea fe ff ff       	jmp    17a0 <main+0x600>
    18b6:	66 2e 0f 1f 84 00 00 	cs nopw 0x0(%rax,%rax,1)
    18bd:	00 00 00 
    18c0:	f2 44 0f 5e c6       	divsd  %xmm6,%xmm8
    18c5:	66 0f ef c0          	pxor   %xmm0,%xmm0
    18c9:	f3 0f 11 95 48 f9 ff 	movss  %xmm2,-0x6b8(%rbp)
    18d0:	ff 
    18d1:	f3 0f 11 8d 50 f9 ff 	movss  %xmm1,-0x6b0(%rbp)
    18d8:	ff 
    18d9:	f3 0f 11 9d 58 f9 ff 	movss  %xmm3,-0x6a8(%rbp)
    18e0:	ff 
    18e1:	f3 0f 11 a5 60 f9 ff 	movss  %xmm4,-0x6a0(%rbp)
    18e8:	ff 
    18e9:	f3 0f 11 ad 68 f9 ff 	movss  %xmm5,-0x698(%rbp)
    18f0:	ff 
    18f1:	f3 44 0f 11 8d 70 f9 	movss  %xmm9,-0x690(%rbp)
    18f8:	ff ff 
    18fa:	f3 44 0f 11 bd 78 f9 	movss  %xmm15,-0x688(%rbp)
    1901:	ff ff 
    1903:	f3 44 0f 11 b5 80 f9 	movss  %xmm14,-0x680(%rbp)
    190a:	ff ff 
    190c:	f2 41 0f 5a c0       	cvtsd2ss %xmm8,%xmm0
    1911:	e8 3a f8 ff ff       	call   1150 <log10f@plt>
    1916:	66 45 0f ef db       	pxor   %xmm11,%xmm11
    191b:	f3 44 0f 10 b5 80 f9 	movss  -0x680(%rbp),%xmm14
    1922:	ff ff 
    1924:	f3 0f 59 05 3c 18 00 	mulss  0x183c(%rip),%xmm0        # 3168 <_IO_stdin_used+0x168>
    192b:	00 
    192c:	f3 0f 10 ad 68 f9 ff 	movss  -0x698(%rbp),%xmm5
    1933:	ff 
    1934:	66 45 0f ef e4       	pxor   %xmm12,%xmm12
    1939:	f3 44 0f 10 15 0e 18 	movss  0x180e(%rip),%xmm10        # 3150 <_IO_stdin_used+0x150>
    1940:	00 00 
    1942:	f3 0f 10 a5 60 f9 ff 	movss  -0x6a0(%rbp),%xmm4
    1949:	ff 
    194a:	f3 0f 10 9d 58 f9 ff 	movss  -0x6a8(%rbp),%xmm3
    1951:	ff 
    1952:	f3 0f 10 8d 50 f9 ff 	movss  -0x6b0(%rbp),%xmm1
    1959:	ff 
    195a:	f3 0f 10 95 48 f9 ff 	movss  -0x6b8(%rbp),%xmm2
    1961:	ff 
    1962:	f3 44 0f 10 bd 78 f9 	movss  -0x688(%rbp),%xmm15
    1969:	ff ff 
    196b:	f3 44 0f 10 8d 70 f9 	movss  -0x690(%rbp),%xmm9
    1972:	ff ff 
    1974:	e9 27 fe ff ff       	jmp    17a0 <main+0x600>
    1979:	48 8d 3d f5 16 00 00 	lea    0x16f5(%rip),%rdi        # 3075 <_IO_stdin_used+0x75>
    1980:	e8 7b f7 ff ff       	call   1100 <puts@plt>
    1985:	83 c8 ff             	or     $0xffffffff,%eax
    1988:	e9 e6 fe ff ff       	jmp    1873 <main+0x6d3>
    198d:	48 8d 3d ed 16 00 00 	lea    0x16ed(%rip),%rdi        # 3081 <_IO_stdin_used+0x81>
    1994:	e8 67 f7 ff ff       	call   1100 <puts@plt>
    1999:	83 c8 ff             	or     $0xffffffff,%eax
    199c:	e9 d2 fe ff ff       	jmp    1873 <main+0x6d3>
    19a1:	66 41 0f 28 c7       	movapd %xmm15,%xmm0
    19a6:	f3 0f 11 95 38 f9 ff 	movss  %xmm2,-0x6c8(%rbp)
    19ad:	ff 
    19ae:	f3 0f 11 8d 40 f9 ff 	movss  %xmm1,-0x6c0(%rbp)
    19b5:	ff 
    19b6:	f3 0f 11 9d 48 f9 ff 	movss  %xmm3,-0x6b8(%rbp)
    19bd:	ff 
    19be:	f3 0f 11 a5 50 f9 ff 	movss  %xmm4,-0x6b0(%rbp)
    19c5:	ff 
    19c6:	f3 0f 11 ad 58 f9 ff 	movss  %xmm5,-0x6a8(%rbp)
    19cd:	ff 
    19ce:	f2 44 0f 11 85 68 f9 	movsd  %xmm8,-0x698(%rbp)
    19d5:	ff ff 
    19d7:	f2 0f 11 b5 70 f9 ff 	movsd  %xmm6,-0x690(%rbp)
    19de:	ff 
    19df:	f3 44 0f 11 8d 78 f9 	movss  %xmm9,-0x688(%rbp)
    19e6:	ff ff 
    19e8:	f3 0f 11 bd 80 f9 ff 	movss  %xmm7,-0x680(%rbp)
    19ef:	ff 
    19f0:	f3 44 0f 11 ad 60 f9 	movss  %xmm13,-0x6a0(%rbp)
    19f7:	ff ff 
    19f9:	e8 82 f7 ff ff       	call   1180 <sqrt@plt>
    19fe:	f3 0f 10 95 38 f9 ff 	movss  -0x6c8(%rbp),%xmm2
    1a05:	ff 
    1a06:	f3 0f 10 8d 40 f9 ff 	movss  -0x6c0(%rbp),%xmm1
    1a0d:	ff 
    1a0e:	f3 44 0f 10 15 39 17 	movss  0x1739(%rip),%xmm10        # 3150 <_IO_stdin_used+0x150>
    1a15:	00 00 
    1a17:	f3 0f 10 9d 48 f9 ff 	movss  -0x6b8(%rbp),%xmm3
    1a1e:	ff 
    1a1f:	66 44 0f 28 f8       	movapd %xmm0,%xmm15
    1a24:	f3 0f 10 a5 50 f9 ff 	movss  -0x6b0(%rbp),%xmm4
    1a2b:	ff 
    1a2c:	66 45 0f ef e4       	pxor   %xmm12,%xmm12
    1a31:	f3 0f 10 ad 58 f9 ff 	movss  -0x6a8(%rbp),%xmm5
    1a38:	ff 
    1a39:	f2 0f 10 b5 70 f9 ff 	movsd  -0x690(%rbp),%xmm6
    1a40:	ff 
    1a41:	66 45 0f ef db       	pxor   %xmm11,%xmm11
    1a46:	f3 44 0f 10 b5 60 f9 	movss  -0x6a0(%rbp),%xmm14
    1a4d:	ff ff 
    1a4f:	f3 0f 10 bd 80 f9 ff 	movss  -0x680(%rbp),%xmm7
    1a56:	ff 
    1a57:	f2 44 0f 10 85 68 f9 	movsd  -0x698(%rbp),%xmm8
    1a5e:	ff ff 
    1a60:	f3 44 0f 10 8d 78 f9 	movss  -0x688(%rbp),%xmm9
    1a67:	ff ff 
    1a69:	e9 06 fd ff ff       	jmp    1774 <main+0x5d4>
    1a6e:	e8 bd f6 ff ff       	call   1130 <__stack_chk_fail@plt>
    1a73:	66 2e 0f 1f 84 00 00 	cs nopw 0x0(%rax,%rax,1)
    1a7a:	00 00 00 
    1a7d:	0f 1f 00             	nopl   (%rax)

0000000000001a80 <_start>:
    1a80:	f3 0f 1e fa          	endbr64 
    1a84:	31 ed                	xor    %ebp,%ebp
    1a86:	49 89 d1             	mov    %rdx,%r9
    1a89:	5e                   	pop    %rsi
    1a8a:	48 89 e2             	mov    %rsp,%rdx
    1a8d:	48 83 e4 f0          	and    $0xfffffffffffffff0,%rsp
    1a91:	50                   	push   %rax
    1a92:	54                   	push   %rsp
    1a93:	45 31 c0             	xor    %r8d,%r8d
    1a96:	31 c9                	xor    %ecx,%ecx
    1a98:	48 8d 3d 01 f7 ff ff 	lea    -0x8ff(%rip),%rdi        # 11a0 <main>
    1a9f:	ff 15 33 35 00 00    	call   *0x3533(%rip)        # 4fd8 <__libc_start_main@GLIBC_2.34>
    1aa5:	f4                   	hlt    
    1aa6:	66 2e 0f 1f 84 00 00 	cs nopw 0x0(%rax,%rax,1)
    1aad:	00 00 00 

0000000000001ab0 <deregister_tm_clones>:
    1ab0:	48 8d 3d 59 35 00 00 	lea    0x3559(%rip),%rdi        # 5010 <__TMC_END__>
    1ab7:	48 8d 05 52 35 00 00 	lea    0x3552(%rip),%rax        # 5010 <__TMC_END__>
    1abe:	48 39 f8             	cmp    %rdi,%rax
    1ac1:	74 15                	je     1ad8 <deregister_tm_clones+0x28>
    1ac3:	48 8b 05 16 35 00 00 	mov    0x3516(%rip),%rax        # 4fe0 <_ITM_deregisterTMCloneTable@Base>
    1aca:	48 85 c0             	test   %rax,%rax
    1acd:	74 09                	je     1ad8 <deregister_tm_clones+0x28>
    1acf:	ff e0                	jmp    *%rax
    1ad1:	0f 1f 80 00 00 00 00 	nopl   0x0(%rax)
    1ad8:	c3                   	ret    
    1ad9:	0f 1f 80 00 00 00 00 	nopl   0x0(%rax)

0000000000001ae0 <register_tm_clones>:
    1ae0:	48 8d 3d 29 35 00 00 	lea    0x3529(%rip),%rdi        # 5010 <__TMC_END__>
    1ae7:	48 8d 35 22 35 00 00 	lea    0x3522(%rip),%rsi        # 5010 <__TMC_END__>
    1aee:	48 29 fe             	sub    %rdi,%rsi
    1af1:	48 89 f0             	mov    %rsi,%rax
    1af4:	48 c1 ee 3f          	shr    $0x3f,%rsi
    1af8:	48 c1 f8 03          	sar    $0x3,%rax
    1afc:	48 01 c6             	add    %rax,%rsi
    1aff:	48 d1 fe             	sar    %rsi
    1b02:	74 14                	je     1b18 <register_tm_clones+0x38>
    1b04:	48 8b 05 e5 34 00 00 	mov    0x34e5(%rip),%rax        # 4ff0 <_ITM_registerTMCloneTable@Base>
    1b0b:	48 85 c0             	test   %rax,%rax
    1b0e:	74 08                	je     1b18 <register_tm_clones+0x38>
    1b10:	ff e0                	jmp    *%rax
    1b12:	66 0f 1f 44 00 00    	nopw   0x0(%rax,%rax,1)
    1b18:	c3                   	ret    
    1b19:	0f 1f 80 00 00 00 00 	nopl   0x0(%rax)

0000000000001b20 <__do_global_dtors_aux>:
    1b20:	f3 0f 1e fa          	endbr64 
    1b24:	80 3d e5 34 00 00 00 	cmpb   $0x0,0x34e5(%rip)        # 5010 <__TMC_END__>
    1b2b:	75 2b                	jne    1b58 <__do_global_dtors_aux+0x38>
    1b2d:	55                   	push   %rbp
    1b2e:	48 83 3d c2 34 00 00 	cmpq   $0x0,0x34c2(%rip)        # 4ff8 <__cxa_finalize@GLIBC_2.2.5>
    1b35:	00 
    1b36:	48 89 e5             	mov    %rsp,%rbp
    1b39:	74 0c                	je     1b47 <__do_global_dtors_aux+0x27>
    1b3b:	48 8b 3d c6 34 00 00 	mov    0x34c6(%rip),%rdi        # 5008 <__dso_handle>
    1b42:	e8 99 f5 ff ff       	call   10e0 <__cxa_finalize@plt>
    1b47:	e8 64 ff ff ff       	call   1ab0 <deregister_tm_clones>
    1b4c:	c6 05 bd 34 00 00 01 	movb   $0x1,0x34bd(%rip)        # 5010 <__TMC_END__>
    1b53:	5d                   	pop    %rbp
    1b54:	c3                   	ret    
    1b55:	0f 1f 00             	nopl   (%rax)
    1b58:	c3                   	ret    
    1b59:	0f 1f 80 00 00 00 00 	nopl   0x0(%rax)

0000000000001b60 <frame_dummy>:
    1b60:	f3 0f 1e fa          	endbr64 
    1b64:	e9 77 ff ff ff       	jmp    1ae0 <register_tm_clones>
    1b69:	0f 1f 80 00 00 00 00 	nopl   0x0(%rax)

0000000000001b70 <dump2_f32.constprop.0>:
    1b70:	48 83 ec 18          	sub    $0x18,%rsp
    1b74:	31 c0                	xor    %eax,%eax
    1b76:	66 0f ef c9          	pxor   %xmm1,%xmm1
    1b7a:	f3 0f 10 15 ce 15 00 	movss  0x15ce(%rip),%xmm2        # 3150 <_IO_stdin_used+0x150>
    1b81:	00 
    1b82:	66 0f 1f 44 00 00    	nopw   0x0(%rax,%rax,1)
    1b88:	f3 0f 10 04 06       	movss  (%rsi,%rax,1),%xmm0
    1b8d:	f3 0f 5c 04 07       	subss  (%rdi,%rax,1),%xmm0
    1b92:	48 83 c0 04          	add    $0x4,%rax
    1b96:	0f 54 c2             	andps  %xmm2,%xmm0
    1b99:	f3 0f 5f c1          	maxss  %xmm1,%xmm0
    1b9d:	0f 28 c8             	movaps %xmm0,%xmm1
    1ba0:	48 3d 00 3f 00 00    	cmp    $0x3f00,%rax
    1ba6:	75 e0                	jne    1b88 <dump2_f32.constprop.0+0x18>
    1ba8:	48 8d 35 55 14 00 00 	lea    0x1455(%rip),%rsi        # 3004 <_IO_stdin_used+0x4>
    1baf:	bf 01 00 00 00       	mov    $0x1,%edi
    1bb4:	b8 01 00 00 00       	mov    $0x1,%eax
    1bb9:	f3 0f 11 4c 24 0c    	movss  %xmm1,0xc(%rsp)
    1bbf:	f3 0f 5a c0          	cvtss2sd %xmm0,%xmm0
    1bc3:	e8 98 f5 ff ff       	call   1160 <__printf_chk@plt>
    1bc8:	f3 0f 10 4c 24 0c    	movss  0xc(%rsp),%xmm1
    1bce:	48 83 c4 18          	add    $0x18,%rsp
    1bd2:	0f 28 c1             	movaps %xmm1,%xmm0
    1bd5:	c3                   	ret    
    1bd6:	66 2e 0f 1f 84 00 00 	cs nopw 0x0(%rax,%rax,1)
    1bdd:	00 00 00 

0000000000001be0 <test_Fread.constprop.1.isra.0>:
    1be0:	48 89 f1             	mov    %rsi,%rcx
    1be3:	ba c0 0f 00 00       	mov    $0xfc0,%edx
    1be8:	be 04 00 00 00       	mov    $0x4,%esi
    1bed:	e9 1e f5 ff ff       	jmp    1110 <fread@plt>
    1bf2:	66 2e 0f 1f 84 00 00 	cs nopw 0x0(%rax,%rax,1)
    1bf9:	00 00 00 
    1bfc:	0f 1f 40 00          	nopl   0x0(%rax)

0000000000001c00 <riscv_dsp_convert_f32_q31>:
    1c00:	f3 0f 1e fa          	endbr64 
    1c04:	85 d2                	test   %edx,%edx
    1c06:	74 72                	je     1c7a <riscv_dsp_convert_f32_q31+0x7a>
    1c08:	f3 0f 10 0d 70 15 00 	movss  0x1570(%rip),%xmm1        # 3180 <_IO_stdin_used+0x180>
    1c0f:	00 
    1c10:	89 d2                	mov    %edx,%edx
    1c12:	31 c0                	xor    %eax,%eax
    1c14:	66 0f ef e4          	pxor   %xmm4,%xmm4
    1c18:	f3 0f 10 15 40 15 00 	movss  0x1540(%rip),%xmm2        # 3160 <_IO_stdin_used+0x160>
    1c1f:	00 
    1c20:	f3 0f 10 2d 5c 15 00 	movss  0x155c(%rip),%xmm5        # 3184 <_IO_stdin_used+0x184>
    1c27:	00 
    1c28:	f3 0f 10 1d 58 15 00 	movss  0x1558(%rip),%xmm3        # 3188 <_IO_stdin_used+0x188>
    1c2f:	00 
    1c30:	eb 12                	jmp    1c44 <riscv_dsp_convert_f32_q31+0x44>
    1c32:	66 0f 1f 44 00 00    	nopw   0x0(%rax,%rax,1)
    1c38:	89 0c 86             	mov    %ecx,(%rsi,%rax,4)
    1c3b:	48 83 c0 01          	add    $0x1,%rax
    1c3f:	48 39 c2             	cmp    %rax,%rdx
    1c42:	74 36                	je     1c7a <riscv_dsp_convert_f32_q31+0x7a>
    1c44:	f3 0f 10 04 87       	movss  (%rdi,%rax,4),%xmm0
    1c49:	b9 ff ff ff 7f       	mov    $0x7fffffff,%ecx
    1c4e:	0f 2f c1             	comiss %xmm1,%xmm0
    1c51:	77 e5                	ja     1c38 <riscv_dsp_convert_f32_q31+0x38>
    1c53:	0f 2f d0             	comiss %xmm0,%xmm2
    1c56:	b9 00 00 00 80       	mov    $0x80000000,%ecx
    1c5b:	77 db                	ja     1c38 <riscv_dsp_convert_f32_q31+0x38>
    1c5d:	f3 0f 59 c5          	mulss  %xmm5,%xmm0
    1c61:	0f 2f c4             	comiss %xmm4,%xmm0
    1c64:	72 1a                	jb     1c80 <riscv_dsp_convert_f32_q31+0x80>
    1c66:	f3 0f 58 c3          	addss  %xmm3,%xmm0
    1c6a:	f3 0f 2c c8          	cvttss2si %xmm0,%ecx
    1c6e:	89 0c 86             	mov    %ecx,(%rsi,%rax,4)
    1c71:	48 83 c0 01          	add    $0x1,%rax
    1c75:	48 39 c2             	cmp    %rax,%rdx
    1c78:	75 ca                	jne    1c44 <riscv_dsp_convert_f32_q31+0x44>
    1c7a:	c3                   	ret    
    1c7b:	0f 1f 44 00 00       	nopl   0x0(%rax,%rax,1)
    1c80:	f3 0f 5c c3          	subss  %xmm3,%xmm0
    1c84:	eb e4                	jmp    1c6a <riscv_dsp_convert_f32_q31+0x6a>
    1c86:	66 2e 0f 1f 84 00 00 	cs nopw 0x0(%rax,%rax,1)
    1c8d:	00 00 00 

0000000000001c90 <riscv_dsp_convert_q31_f32>:
    1c90:	f3 0f 1e fa          	endbr64 
    1c94:	48 89 f1             	mov    %rsi,%rcx
    1c97:	85 d2                	test   %edx,%edx
    1c99:	0f 84 97 00 00 00    	je     1d36 <riscv_dsp_convert_q31_f32+0xa6>
    1c9f:	8d 42 ff             	lea    -0x1(%rdx),%eax
    1ca2:	83 f8 02             	cmp    $0x2,%eax
    1ca5:	0f 86 96 00 00 00    	jbe    1d41 <riscv_dsp_convert_q31_f32+0xb1>
    1cab:	89 d6                	mov    %edx,%esi
    1cad:	0f 28 0d dc 14 00 00 	movaps 0x14dc(%rip),%xmm1        # 3190 <_IO_stdin_used+0x190>
    1cb4:	31 c0                	xor    %eax,%eax
    1cb6:	c1 ee 02             	shr    $0x2,%esi
    1cb9:	48 c1 e6 04          	shl    $0x4,%rsi
    1cbd:	0f 1f 00             	nopl   (%rax)
    1cc0:	f3 0f 6f 14 07       	movdqu (%rdi,%rax,1),%xmm2
    1cc5:	0f 5b c2             	cvtdq2ps %xmm2,%xmm0
    1cc8:	0f 59 c1             	mulps  %xmm1,%xmm0
    1ccb:	0f 11 04 01          	movups %xmm0,(%rcx,%rax,1)
    1ccf:	48 83 c0 10          	add    $0x10,%rax
    1cd3:	48 39 f0             	cmp    %rsi,%rax
    1cd6:	75 e8                	jne    1cc0 <riscv_dsp_convert_q31_f32+0x30>
    1cd8:	89 d6                	mov    %edx,%esi
    1cda:	83 e6 fc             	and    $0xfffffffc,%esi
    1cdd:	89 f0                	mov    %esi,%eax
    1cdf:	48 c1 e0 02          	shl    $0x2,%rax
    1ce3:	4c 8d 04 07          	lea    (%rdi,%rax,1),%r8
    1ce7:	48 01 c8             	add    %rcx,%rax
    1cea:	39 f2                	cmp    %esi,%edx
    1cec:	74 52                	je     1d40 <riscv_dsp_convert_q31_f32+0xb0>
    1cee:	29 f2                	sub    %esi,%edx
    1cf0:	83 fa 01             	cmp    $0x1,%edx
    1cf3:	74 2c                	je     1d21 <riscv_dsp_convert_q31_f32+0x91>
    1cf5:	f3 0f 7e 0d 93 14 00 	movq   0x1493(%rip),%xmm1        # 3190 <_IO_stdin_used+0x190>
    1cfc:	00 
    1cfd:	f3 0f 7e 04 b7       	movq   (%rdi,%rsi,4),%xmm0
    1d02:	0f 5b c0             	cvtdq2ps %xmm0,%xmm0
    1d05:	0f 59 c1             	mulps  %xmm1,%xmm0
    1d08:	0f 13 04 b1          	movlps %xmm0,(%rcx,%rsi,4)
    1d0c:	89 d6                	mov    %edx,%esi
    1d0e:	83 e6 fe             	and    $0xfffffffe,%esi
    1d11:	89 f1                	mov    %esi,%ecx
    1d13:	48 c1 e1 02          	shl    $0x2,%rcx
    1d17:	49 01 c8             	add    %rcx,%r8
    1d1a:	48 01 c8             	add    %rcx,%rax
    1d1d:	39 f2                	cmp    %esi,%edx
    1d1f:	74 15                	je     1d36 <riscv_dsp_convert_q31_f32+0xa6>
    1d21:	66 0f ef c0          	pxor   %xmm0,%xmm0
    1d25:	f3 41 0f 2a 00       	cvtsi2ssl (%r8),%xmm0
    1d2a:	f3 0f 59 05 5e 14 00 	mulss  0x145e(%rip),%xmm0        # 3190 <_IO_stdin_used+0x190>
    1d31:	00 
    1d32:	f3 0f 11 00          	movss  %xmm0,(%rax)
    1d36:	c3                   	ret    
    1d37:	66 0f 1f 84 00 00 00 	nopw   0x0(%rax,%rax,1)
    1d3e:	00 00 
    1d40:	c3                   	ret    
    1d41:	48 89 f0             	mov    %rsi,%rax
    1d44:	49 89 f8             	mov    %rdi,%r8
    1d47:	31 f6                	xor    %esi,%esi
    1d49:	eb a3                	jmp    1cee <riscv_dsp_convert_q31_f32+0x5e>
    1d4b:	0f 1f 44 00 00       	nopl   0x0(%rax,%rax,1)

0000000000001d50 <riscv_dsp_nlms_q31>:
    1d50:	f3 0f 1e fa          	endbr64 
    1d54:	41 57                	push   %r15
    1d56:	41 56                	push   %r14
    1d58:	41 55                	push   %r13
    1d5a:	41 54                	push   %r12
    1d5c:	49 89 d4             	mov    %rdx,%r12
    1d5f:	55                   	push   %rbp
    1d60:	53                   	push   %rbx
    1d61:	44 8b 37             	mov    (%rdi),%r14d
    1d64:	0f b6 47 1c          	movzbl 0x1c(%rdi),%eax
    1d68:	8b 57 18             	mov    0x18(%rdi),%edx
    1d6b:	45 8d 56 ff          	lea    -0x1(%r14),%r10d
    1d6f:	48 89 74 24 a8       	mov    %rsi,-0x58(%rsp)
    1d74:	48 89 fe             	mov    %rdi,%rsi
    1d77:	48 89 4c 24 b0       	mov    %rcx,-0x50(%rsp)
    1d7c:	48 8b 4f 08          	mov    0x8(%rdi),%rcx
    1d80:	48 89 7c 24 f0       	mov    %rdi,-0x10(%rsp)
    1d85:	f3 0f 7e 46 20       	movq   0x20(%rsi),%xmm0
    1d8a:	8d 78 01             	lea    0x1(%rax),%edi
    1d8d:	b8 20 00 00 00       	mov    $0x20,%eax
    1d92:	29 f8                	sub    %edi,%eax
    1d94:	48 89 4c 24 e8       	mov    %rcx,-0x18(%rsp)
    1d99:	89 7c 24 c8          	mov    %edi,-0x38(%rsp)
    1d9d:	48 89 cf             	mov    %rcx,%rdi
    1da0:	4a 8d 0c 91          	lea    (%rcx,%r10,4),%rcx
    1da4:	66 0f 70 e8 e5       	pshufd $0xe5,%xmm0,%xmm5
    1da9:	4c 89 44 24 b8       	mov    %r8,-0x48(%rsp)
    1dae:	4c 63 46 20          	movslq 0x20(%rsi),%r8
    1db2:	89 44 24 cc          	mov    %eax,-0x34(%rsp)
    1db6:	44 89 54 24 9c       	mov    %r10d,-0x64(%rsp)
    1dbb:	48 89 4c 24 a0       	mov    %rcx,-0x60(%rsp)
    1dc0:	45 85 c9             	test   %r9d,%r9d
    1dc3:	0f 84 b9 04 00 00    	je     2282 <riscv_dsp_nlms_q31+0x532>
    1dc9:	48 63 ca             	movslq %edx,%rcx
    1dcc:	44 89 f2             	mov    %r14d,%edx
    1dcf:	48 8b 76 10          	mov    0x10(%rsi),%rsi
    1dd3:	66 0f 7e e8          	movd   %xmm5,%eax
    1dd7:	48 89 4c 24 c0       	mov    %rcx,-0x40(%rsp)
    1ddc:	44 89 c9             	mov    %r9d,%ecx
    1ddf:	c1 ea 02             	shr    $0x2,%edx
    1de2:	45 31 c9             	xor    %r9d,%r9d
    1de5:	48 89 4c 24 90       	mov    %rcx,-0x70(%rsp)
    1dea:	44 89 f1             	mov    %r14d,%ecx
    1ded:	8d 6a ff             	lea    -0x1(%rdx),%ebp
    1df0:	66 0f ef ed          	pxor   %xmm5,%xmm5
    1df4:	83 e1 fc             	and    $0xfffffffc,%ecx
    1df7:	48 83 c5 01          	add    $0x1,%rbp
    1dfb:	41 bd ff ff ff 7f    	mov    $0x7fffffff,%r13d
    1e01:	89 ca                	mov    %ecx,%edx
    1e03:	89 4c 24 d8          	mov    %ecx,-0x28(%rsp)
    1e07:	48 c1 e5 04          	shl    $0x4,%rbp
    1e0b:	48 8d 1c 95 00 00 00 	lea    0x0(,%rdx,4),%rbx
    1e12:	00 
    1e13:	48 89 5c 24 d0       	mov    %rbx,-0x30(%rsp)
    1e18:	48 01 f3             	add    %rsi,%rbx
    1e1b:	48 89 5c 24 e0       	mov    %rbx,-0x20(%rsp)
    1e20:	44 89 f3             	mov    %r14d,%ebx
    1e23:	29 cb                	sub    %ecx,%ebx
    1e25:	89 5c 24 dc          	mov    %ebx,-0x24(%rsp)
    1e29:	0f 1f 80 00 00 00 00 	nopl   0x0(%rax)
    1e30:	48 8b 4c 24 a8       	mov    -0x58(%rsp),%rcx
    1e35:	48 98                	cltq   
    1e37:	49 c1 e0 20          	shl    $0x20,%r8
    1e3b:	48 0f af c0          	imul   %rax,%rax
    1e3f:	4a 63 14 89          	movslq (%rcx,%r9,4),%rdx
    1e43:	48 8b 4c 24 a0       	mov    -0x60(%rsp),%rcx
    1e48:	48 01 c0             	add    %rax,%rax
    1e4b:	42 89 14 89          	mov    %edx,(%rcx,%r9,4)
    1e4f:	48 0f af d2          	imul   %rdx,%rdx
    1e53:	49 29 c0             	sub    %rax,%r8
    1e56:	48 b8 00 00 00 00 ff 	movabs $0xffffffff00000000,%rax
    1e5d:	ff ff ff 
    1e60:	49 21 c0             	and    %rax,%r8
    1e63:	4d 8d 04 50          	lea    (%r8,%rdx,2),%r8
    1e67:	49 c1 f8 20          	sar    $0x20,%r8
    1e6b:	45 85 f6             	test   %r14d,%r14d
    1e6e:	0f 84 cc 03 00 00    	je     2240 <riscv_dsp_nlms_q31+0x4f0>
    1e74:	83 7c 24 9c 02       	cmpl   $0x2,-0x64(%rsp)
    1e79:	0f 86 c8 03 00 00    	jbe    2247 <riscv_dsp_nlms_q31+0x4f7>
    1e7f:	31 c0                	xor    %eax,%eax
    1e81:	66 0f ef d2          	pxor   %xmm2,%xmm2
    1e85:	0f 1f 00             	nopl   (%rax)
    1e88:	f3 0f 6f 1c 07       	movdqu (%rdi,%rax,1),%xmm3
    1e8d:	f3 0f 6f 04 06       	movdqu (%rsi,%rax,1),%xmm0
    1e92:	66 0f 6f e5          	movdqa %xmm5,%xmm4
    1e96:	66 0f 6f f5          	movdqa %xmm5,%xmm6
    1e9a:	48 83 c0 10          	add    $0x10,%rax
    1e9e:	66 0f 6f c8          	movdqa %xmm0,%xmm1
    1ea2:	66 0f 6f fb          	movdqa %xmm3,%xmm7
    1ea6:	66 0f 62 c8          	punpckldq %xmm0,%xmm1
    1eaa:	66 0f 62 fb          	punpckldq %xmm3,%xmm7
    1eae:	66 0f 6a c0          	punpckhdq %xmm0,%xmm0
    1eb2:	66 0f 66 e1          	pcmpgtd %xmm1,%xmm4
    1eb6:	66 0f 66 f7          	pcmpgtd %xmm7,%xmm6
    1eba:	66 0f 6a db          	punpckhdq %xmm3,%xmm3
    1ebe:	66 0f f4 f1          	pmuludq %xmm1,%xmm6
    1ec2:	66 0f f4 e7          	pmuludq %xmm7,%xmm4
    1ec6:	66 0f f4 cf          	pmuludq %xmm7,%xmm1
    1eca:	66 0f d4 e6          	paddq  %xmm6,%xmm4
    1ece:	66 0f 73 f4 20       	psllq  $0x20,%xmm4
    1ed3:	66 0f d4 cc          	paddq  %xmm4,%xmm1
    1ed7:	66 0f 6f e5          	movdqa %xmm5,%xmm4
    1edb:	66 0f d4 d1          	paddq  %xmm1,%xmm2
    1edf:	66 0f 66 e3          	pcmpgtd %xmm3,%xmm4
    1ee3:	66 0f 6f cd          	movdqa %xmm5,%xmm1
    1ee7:	66 0f 66 c8          	pcmpgtd %xmm0,%xmm1
    1eeb:	66 0f f4 e0          	pmuludq %xmm0,%xmm4
    1eef:	66 0f f4 c3          	pmuludq %xmm3,%xmm0
    1ef3:	66 0f f4 cb          	pmuludq %xmm3,%xmm1
    1ef7:	66 0f d4 cc          	paddq  %xmm4,%xmm1
    1efb:	66 0f 73 f1 20       	psllq  $0x20,%xmm1
    1f00:	66 0f d4 c1          	paddq  %xmm1,%xmm0
    1f04:	66 0f d4 d0          	paddq  %xmm0,%xmm2
    1f08:	48 39 e8             	cmp    %rbp,%rax
    1f0b:	0f 85 77 ff ff ff    	jne    1e88 <riscv_dsp_nlms_q31+0x138>
    1f11:	66 0f 6f c2          	movdqa %xmm2,%xmm0
    1f15:	48 8b 4c 24 d0       	mov    -0x30(%rsp),%rcx
    1f1a:	66 0f 73 d8 08       	psrldq $0x8,%xmm0
    1f1f:	66 0f d4 d0          	paddq  %xmm0,%xmm2
    1f23:	48 01 f9             	add    %rdi,%rcx
    1f26:	66 48 0f 7e d0       	movq   %xmm2,%rax
    1f2b:	44 3b 74 24 d8       	cmp    -0x28(%rsp),%r14d
    1f30:	74 3e                	je     1f70 <riscv_dsp_nlms_q31+0x220>
    1f32:	8b 5c 24 dc          	mov    -0x24(%rsp),%ebx
    1f36:	4c 8b 5c 24 e0       	mov    -0x20(%rsp),%r11
    1f3b:	49 63 13             	movslq (%r11),%rdx
    1f3e:	4c 63 39             	movslq (%rcx),%r15
    1f41:	49 0f af d7          	imul   %r15,%rdx
    1f45:	48 01 d0             	add    %rdx,%rax
    1f48:	83 fb 01             	cmp    $0x1,%ebx
    1f4b:	74 23                	je     1f70 <riscv_dsp_nlms_q31+0x220>
    1f4d:	48 63 51 04          	movslq 0x4(%rcx),%rdx
    1f51:	4d 63 7b 04          	movslq 0x4(%r11),%r15
    1f55:	49 0f af d7          	imul   %r15,%rdx
    1f59:	48 01 d0             	add    %rdx,%rax
    1f5c:	83 fb 02             	cmp    $0x2,%ebx
    1f5f:	74 0f                	je     1f70 <riscv_dsp_nlms_q31+0x220>
    1f61:	49 63 53 08          	movslq 0x8(%r11),%rdx
    1f65:	48 63 49 08          	movslq 0x8(%rcx),%rcx
    1f69:	48 0f af d1          	imul   %rcx,%rdx
    1f6d:	48 01 d0             	add    %rdx,%rax
    1f70:	0f b6 4c 24 c8       	movzbl -0x38(%rsp),%ecx
    1f75:	48 89 c2             	mov    %rax,%rdx
    1f78:	48 c1 ea 20          	shr    $0x20,%rdx
    1f7c:	d3 e2                	shl    %cl,%edx
    1f7e:	0f b6 4c 24 cc       	movzbl -0x34(%rsp),%ecx
    1f83:	d3 e8                	shr    %cl,%eax
    1f85:	09 c2                	or     %eax,%edx
    1f87:	48 8b 44 24 b0       	mov    -0x50(%rsp),%rax
    1f8c:	48 8b 4c 24 b8       	mov    -0x48(%rsp),%rcx
    1f91:	45 8d 98 00 01 00 00 	lea    0x100(%r8),%r11d
    1f98:	42 89 14 88          	mov    %edx,(%rax,%r9,4)
    1f9c:	43 8b 04 8c          	mov    (%r12,%r9,4),%eax
    1fa0:	29 d0                	sub    %edx,%eax
    1fa2:	42 89 04 89          	mov    %eax,(%rcx,%r9,4)
    1fa6:	45 85 db             	test   %r11d,%r11d
    1fa9:	0f 8e 49 02 00 00    	jle    21f8 <riscv_dsp_nlms_q31+0x4a8>
    1faf:	45 31 ff             	xor    %r15d,%r15d
    1fb2:	41 81 fb ff ff 00 00 	cmp    $0xffff,%r11d
    1fb9:	44 89 da             	mov    %r11d,%edx
    1fbc:	41 0f 97 c7          	seta   %r15b
    1fc0:	41 c1 e7 04          	shl    $0x4,%r15d
    1fc4:	44 89 f9             	mov    %r15d,%ecx
    1fc7:	d3 ea                	shr    %cl,%edx
    1fc9:	31 c9                	xor    %ecx,%ecx
    1fcb:	81 fa ff 00 00 00    	cmp    $0xff,%edx
    1fd1:	0f 97 c1             	seta   %cl
    1fd4:	31 db                	xor    %ebx,%ebx
    1fd6:	c1 e1 03             	shl    $0x3,%ecx
    1fd9:	d3 ea                	shr    %cl,%edx
    1fdb:	41 09 cf             	or     %ecx,%r15d
    1fde:	83 fa 0f             	cmp    $0xf,%edx
    1fe1:	0f 97 c3             	seta   %bl
    1fe4:	c1 e3 02             	shl    $0x2,%ebx
    1fe7:	89 d9                	mov    %ebx,%ecx
    1fe9:	44 09 fb             	or     %r15d,%ebx
    1fec:	d3 ea                	shr    %cl,%edx
    1fee:	31 c9                	xor    %ecx,%ecx
    1ff0:	83 fa 03             	cmp    $0x3,%edx
    1ff3:	0f 97 c1             	seta   %cl
    1ff6:	01 c9                	add    %ecx,%ecx
    1ff8:	d3 ea                	shr    %cl,%edx
    1ffa:	09 cb                	or     %ecx,%ebx
    1ffc:	d1 ea                	shr    %edx
    1ffe:	09 da                	or     %ebx,%edx
    2000:	83 c2 01             	add    $0x1,%edx
    2003:	b9 1f 00 00 00       	mov    $0x1f,%ecx
    2008:	44 89 db             	mov    %r11d,%ebx
    200b:	48 98                	cltq   
    200d:	29 d1                	sub    %edx,%ecx
    200f:	44 89 ea             	mov    %r13d,%edx
    2012:	d3 e3                	shl    %cl,%ebx
    2014:	29 da                	sub    %ebx,%edx
    2016:	4c 63 db             	movslq %ebx,%r11
    2019:	44 89 eb             	mov    %r13d,%ebx
    201c:	81 c2 00 00 00 40    	add    $0x40000000,%edx
    2022:	4d 89 df             	mov    %r11,%r15
    2025:	48 63 d2             	movslq %edx,%rdx
    2028:	4c 0f af fa          	imul   %rdx,%r15
    202c:	49 c1 ff 1f          	sar    $0x1f,%r15
    2030:	44 29 fb             	sub    %r15d,%ebx
    2033:	48 0f af da          	imul   %rdx,%rbx
    2037:	48 89 da             	mov    %rbx,%rdx
    203a:	48 c1 fb 3e          	sar    $0x3e,%rbx
    203e:	48 c1 fa 1e          	sar    $0x1e,%rdx
    2042:	41 89 d7             	mov    %edx,%r15d
    2045:	41 c1 ff 1f          	sar    $0x1f,%r15d
    2049:	41 39 df             	cmp    %ebx,%r15d
    204c:	44 89 eb             	mov    %r13d,%ebx
    204f:	41 0f 45 d5          	cmovne %r13d,%edx
    2053:	48 63 d2             	movslq %edx,%rdx
    2056:	4c 0f af da          	imul   %rdx,%r11
    205a:	49 c1 fb 1f          	sar    $0x1f,%r11
    205e:	44 29 db             	sub    %r11d,%ebx
    2061:	48 0f af da          	imul   %rdx,%rbx
    2065:	48 89 da             	mov    %rbx,%rdx
    2068:	49 89 db             	mov    %rbx,%r11
    206b:	48 c1 fa 1e          	sar    $0x1e,%rdx
    206f:	49 c1 fb 3e          	sar    $0x3e,%r11
    2073:	89 d3                	mov    %edx,%ebx
    2075:	c1 fb 1f             	sar    $0x1f,%ebx
    2078:	44 39 db             	cmp    %r11d,%ebx
    207b:	41 0f 45 d5          	cmovne %r13d,%edx
    207f:	48 0f af 44 24 c0    	imul   -0x40(%rsp),%rax
    2085:	48 63 d2             	movslq %edx,%rdx
    2088:	48 c1 f8 1f          	sar    $0x1f,%rax
    208c:	48 98                	cltq   
    208e:	48 0f af c2          	imul   %rdx,%rax
    2092:	8d 51 01             	lea    0x1(%rcx),%edx
    2095:	b9 1f 00 00 00       	mov    $0x1f,%ecx
    209a:	29 d1                	sub    %edx,%ecx
    209c:	48 d3 f8             	sar    %cl,%rax
    209f:	48 89 c2             	mov    %rax,%rdx
    20a2:	41 89 c3             	mov    %eax,%r11d
    20a5:	48 89 c1             	mov    %rax,%rcx
    20a8:	48 c1 f8 3f          	sar    $0x3f,%rax
    20ac:	48 c1 fa 20          	sar    $0x20,%rdx
    20b0:	41 c1 fb 1f          	sar    $0x1f,%r11d
    20b4:	35 ff ff ff 7f       	xor    $0x7fffffff,%eax
    20b9:	41 39 d3             	cmp    %edx,%r11d
    20bc:	0f 45 c8             	cmovne %eax,%ecx
    20bf:	31 d2                	xor    %edx,%edx
    20c1:	48 63 c9             	movslq %ecx,%rcx
    20c4:	45 85 f6             	test   %r14d,%r14d
    20c7:	75 1f                	jne    20e8 <riscv_dsp_nlms_q31+0x398>
    20c9:	eb 51                	jmp    211c <riscv_dsp_nlms_q31+0x3cc>
    20cb:	0f 1f 44 00 00       	nopl   0x0(%rax,%rax,1)
    20d0:	48 c1 f8 3f          	sar    $0x3f,%rax
    20d4:	35 ff ff ff 7f       	xor    $0x7fffffff,%eax
    20d9:	89 04 96             	mov    %eax,(%rsi,%rdx,4)
    20dc:	48 8d 42 01          	lea    0x1(%rdx),%rax
    20e0:	49 39 d2             	cmp    %rdx,%r10
    20e3:	74 37                	je     211c <riscv_dsp_nlms_q31+0x3cc>
    20e5:	48 89 c2             	mov    %rax,%rdx
    20e8:	48 63 04 97          	movslq (%rdi,%rdx,4),%rax
    20ec:	4c 63 1c 96          	movslq (%rsi,%rdx,4),%r11
    20f0:	48 0f af c1          	imul   %rcx,%rax
    20f4:	48 c1 f8 20          	sar    $0x20,%rax
    20f8:	01 c0                	add    %eax,%eax
    20fa:	48 98                	cltq   
    20fc:	4c 01 d8             	add    %r11,%rax
    20ff:	89 c3                	mov    %eax,%ebx
    2101:	49 89 c3             	mov    %rax,%r11
    2104:	c1 fb 1f             	sar    $0x1f,%ebx
    2107:	49 c1 fb 20          	sar    $0x20,%r11
    210b:	44 39 db             	cmp    %r11d,%ebx
    210e:	75 c0                	jne    20d0 <riscv_dsp_nlms_q31+0x380>
    2110:	89 04 96             	mov    %eax,(%rsi,%rdx,4)
    2113:	48 8d 42 01          	lea    0x1(%rdx),%rax
    2117:	49 39 d2             	cmp    %rdx,%r10
    211a:	75 c9                	jne    20e5 <riscv_dsp_nlms_q31+0x395>
    211c:	48 83 c7 04          	add    $0x4,%rdi
    2120:	49 83 c1 01          	add    $0x1,%r9
    2124:	8b 47 fc             	mov    -0x4(%rdi),%eax
    2127:	4c 39 4c 24 90       	cmp    %r9,-0x70(%rsp)
    212c:	0f 85 fe fc ff ff    	jne    1e30 <riscv_dsp_nlms_q31+0xe0>
    2132:	48 8b 7c 24 e8       	mov    -0x18(%rsp),%rdi
    2137:	48 8b 74 24 90       	mov    -0x70(%rsp),%rsi
    213c:	66 41 0f 6e c0       	movd   %r8d,%xmm0
    2141:	66 0f 6e e8          	movd   %eax,%xmm5
    2145:	66 0f 62 c5          	punpckldq %xmm5,%xmm0
    2149:	48 8d 34 b7          	lea    (%rdi,%rsi,4),%rsi
    214d:	48 8b 44 24 f0       	mov    -0x10(%rsp),%rax
    2152:	66 0f d6 40 20       	movq   %xmm0,0x20(%rax)
    2157:	8b 44 24 9c          	mov    -0x64(%rsp),%eax
    215b:	85 c0                	test   %eax,%eax
    215d:	0f 84 87 00 00 00    	je     21ea <riscv_dsp_nlms_q31+0x49a>
    2163:	4c 8b 44 24 e8       	mov    -0x18(%rsp),%r8
    2168:	48 8d 56 04          	lea    0x4(%rsi),%rdx
    216c:	41 8d 7e fe          	lea    -0x2(%r14),%edi
    2170:	4c 89 c0             	mov    %r8,%rax
    2173:	48 29 d0             	sub    %rdx,%rax
    2176:	48 83 f8 08          	cmp    $0x8,%rax
    217a:	0f 86 d7 00 00 00    	jbe    2257 <riscv_dsp_nlms_q31+0x507>
    2180:	83 ff 02             	cmp    $0x2,%edi
    2183:	0f 86 ce 00 00 00    	jbe    2257 <riscv_dsp_nlms_q31+0x507>
    2189:	41 83 ee 05          	sub    $0x5,%r14d
    218d:	31 d2                	xor    %edx,%edx
    218f:	31 c9                	xor    %ecx,%ecx
    2191:	41 c1 ee 02          	shr    $0x2,%r14d
    2195:	41 8d 46 01          	lea    0x1(%r14),%eax
    2199:	0f 1f 80 00 00 00 00 	nopl   0x0(%rax)
    21a0:	f3 0f 6f 2c 16       	movdqu (%rsi,%rdx,1),%xmm5
    21a5:	83 c1 01             	add    $0x1,%ecx
    21a8:	41 0f 11 2c 10       	movups %xmm5,(%r8,%rdx,1)
    21ad:	48 83 c2 10          	add    $0x10,%rdx
    21b1:	39 c1                	cmp    %eax,%ecx
    21b3:	72 eb                	jb     21a0 <riscv_dsp_nlms_q31+0x450>
    21b5:	8d 14 85 00 00 00 00 	lea    0x0(,%rax,4),%edx
    21bc:	48 89 d0             	mov    %rdx,%rax
    21bf:	48 c1 e2 02          	shl    $0x2,%rdx
    21c3:	48 01 d6             	add    %rdx,%rsi
    21c6:	48 03 54 24 e8       	add    -0x18(%rsp),%rdx
    21cb:	39 44 24 9c          	cmp    %eax,-0x64(%rsp)
    21cf:	74 19                	je     21ea <riscv_dsp_nlms_q31+0x49a>
    21d1:	8b 0e                	mov    (%rsi),%ecx
    21d3:	89 0a                	mov    %ecx,(%rdx)
    21d5:	29 c7                	sub    %eax,%edi
    21d7:	74 11                	je     21ea <riscv_dsp_nlms_q31+0x49a>
    21d9:	8b 46 04             	mov    0x4(%rsi),%eax
    21dc:	89 42 04             	mov    %eax,0x4(%rdx)
    21df:	83 ff 01             	cmp    $0x1,%edi
    21e2:	74 06                	je     21ea <riscv_dsp_nlms_q31+0x49a>
    21e4:	8b 46 08             	mov    0x8(%rsi),%eax
    21e7:	89 42 08             	mov    %eax,0x8(%rdx)
    21ea:	5b                   	pop    %rbx
    21eb:	5d                   	pop    %rbp
    21ec:	41 5c                	pop    %r12
    21ee:	41 5d                	pop    %r13
    21f0:	41 5e                	pop    %r14
    21f2:	41 5f                	pop    %r15
    21f4:	c3                   	ret    
    21f5:	0f 1f 00             	nopl   (%rax)
    21f8:	44 89 da             	mov    %r11d,%edx
    21fb:	f7 da                	neg    %edx
    21fd:	45 85 db             	test   %r11d,%r11d
    2200:	0f 84 fd fd ff ff    	je     2003 <riscv_dsp_nlms_q31+0x2b3>
    2206:	31 db                	xor    %ebx,%ebx
    2208:	41 81 fb 01 00 ff ff 	cmp    $0xffff0001,%r11d
    220f:	0f 9c c3             	setl   %bl
    2212:	c1 e3 04             	shl    $0x4,%ebx
    2215:	89 d9                	mov    %ebx,%ecx
    2217:	d3 ea                	shr    %cl,%edx
    2219:	31 c9                	xor    %ecx,%ecx
    221b:	81 fa ff 00 00 00    	cmp    $0xff,%edx
    2221:	0f 97 c1             	seta   %cl
    2224:	c1 e1 03             	shl    $0x3,%ecx
    2227:	d3 ea                	shr    %cl,%edx
    2229:	09 cb                	or     %ecx,%ebx
    222b:	31 c9                	xor    %ecx,%ecx
    222d:	83 fa 0f             	cmp    $0xf,%edx
    2230:	0f 97 c1             	seta   %cl
    2233:	c1 e1 02             	shl    $0x2,%ecx
    2236:	d3 ea                	shr    %cl,%edx
    2238:	09 cb                	or     %ecx,%ebx
    223a:	e9 af fd ff ff       	jmp    1fee <riscv_dsp_nlms_q31+0x29e>
    223f:	90                   	nop
    2240:	31 d2                	xor    %edx,%edx
    2242:	e9 40 fd ff ff       	jmp    1f87 <riscv_dsp_nlms_q31+0x237>
    2247:	44 89 f3             	mov    %r14d,%ebx
    224a:	49 89 f3             	mov    %rsi,%r11
    224d:	48 89 f9             	mov    %rdi,%rcx
    2250:	31 c0                	xor    %eax,%eax
    2252:	e9 e4 fc ff ff       	jmp    1f3b <riscv_dsp_nlms_q31+0x1eb>
    2257:	8b 44 24 9c          	mov    -0x64(%rsp),%eax
    225b:	48 8b 7c 24 e8       	mov    -0x18(%rsp),%rdi
    2260:	31 d2                	xor    %edx,%edx
    2262:	66 0f 1f 44 00 00    	nopw   0x0(%rax,%rax,1)
    2268:	8b 0c 96             	mov    (%rsi,%rdx,4),%ecx
    226b:	89 0c 97             	mov    %ecx,(%rdi,%rdx,4)
    226e:	48 83 c2 01          	add    $0x1,%rdx
    2272:	48 39 c2             	cmp    %rax,%rdx
    2275:	75 f1                	jne    2268 <riscv_dsp_nlms_q31+0x518>
    2277:	5b                   	pop    %rbx
    2278:	5d                   	pop    %rbp
    2279:	41 5c                	pop    %r12
    227b:	41 5d                	pop    %r13
    227d:	41 5e                	pop    %r14
    227f:	41 5f                	pop    %r15
    2281:	c3                   	ret    
    2282:	48 8b 74 24 e8       	mov    -0x18(%rsp),%rsi
    2287:	e9 c1 fe ff ff       	jmp    214d <riscv_dsp_nlms_q31+0x3fd>

Disassembly of section .fini:

000000000000228c <_fini>:
    228c:	f3 0f 1e fa          	endbr64 
    2290:	48 83 ec 08          	sub    $0x8,%rsp
    2294:	48 83 c4 08          	add    $0x8,%rsp
    2298:	c3                   	ret    
