
t_offset_q15:     file format elf64-x86-64


Disassembly of section .init:

0000000000001000 <_init>:
    1000:	f3 0f 1e fa          	endbr64 
    1004:	48 83 ec 08          	sub    $0x8,%rsp
    1008:	48 8b 05 d9 2f 00 00 	mov    0x2fd9(%rip),%rax        # 3fe8 <__gmon_start__@Base>
    100f:	48 85 c0             	test   %rax,%rax
    1012:	74 02                	je     1016 <_init+0x16>
    1014:	ff d0                	call   *%rax
    1016:	48 83 c4 08          	add    $0x8,%rsp
    101a:	c3                   	ret    

Disassembly of section .plt:

0000000000001020 <.plt>:
    1020:	ff 35 5a 2f 00 00    	push   0x2f5a(%rip)        # 3f80 <_GLOBAL_OFFSET_TABLE_+0x8>
    1026:	f2 ff 25 5b 2f 00 00 	bnd jmp *0x2f5b(%rip)        # 3f88 <_GLOBAL_OFFSET_TABLE_+0x10>
    102d:	0f 1f 00             	nopl   (%rax)
    1030:	f3 0f 1e fa          	endbr64 
    1034:	68 00 00 00 00       	push   $0x0
    1039:	f2 e9 e1 ff ff ff    	bnd jmp 1020 <_init+0x20>
    103f:	90                   	nop
    1040:	f3 0f 1e fa          	endbr64 
    1044:	68 01 00 00 00       	push   $0x1
    1049:	f2 e9 d1 ff ff ff    	bnd jmp 1020 <_init+0x20>
    104f:	90                   	nop
    1050:	f3 0f 1e fa          	endbr64 
    1054:	68 02 00 00 00       	push   $0x2
    1059:	f2 e9 c1 ff ff ff    	bnd jmp 1020 <_init+0x20>
    105f:	90                   	nop
    1060:	f3 0f 1e fa          	endbr64 
    1064:	68 03 00 00 00       	push   $0x3
    1069:	f2 e9 b1 ff ff ff    	bnd jmp 1020 <_init+0x20>
    106f:	90                   	nop
    1070:	f3 0f 1e fa          	endbr64 
    1074:	68 04 00 00 00       	push   $0x4
    1079:	f2 e9 a1 ff ff ff    	bnd jmp 1020 <_init+0x20>
    107f:	90                   	nop
    1080:	f3 0f 1e fa          	endbr64 
    1084:	68 05 00 00 00       	push   $0x5
    1089:	f2 e9 91 ff ff ff    	bnd jmp 1020 <_init+0x20>
    108f:	90                   	nop
    1090:	f3 0f 1e fa          	endbr64 
    1094:	68 06 00 00 00       	push   $0x6
    1099:	f2 e9 81 ff ff ff    	bnd jmp 1020 <_init+0x20>
    109f:	90                   	nop
    10a0:	f3 0f 1e fa          	endbr64 
    10a4:	68 07 00 00 00       	push   $0x7
    10a9:	f2 e9 71 ff ff ff    	bnd jmp 1020 <_init+0x20>
    10af:	90                   	nop
    10b0:	f3 0f 1e fa          	endbr64 
    10b4:	68 08 00 00 00       	push   $0x8
    10b9:	f2 e9 61 ff ff ff    	bnd jmp 1020 <_init+0x20>
    10bf:	90                   	nop

Disassembly of section .plt.got:

00000000000010c0 <__cxa_finalize@plt>:
    10c0:	f3 0f 1e fa          	endbr64 
    10c4:	f2 ff 25 2d 2f 00 00 	bnd jmp *0x2f2d(%rip)        # 3ff8 <__cxa_finalize@GLIBC_2.2.5>
    10cb:	0f 1f 44 00 00       	nopl   0x0(%rax,%rax,1)

Disassembly of section .plt.sec:

00000000000010d0 <puts@plt>:
    10d0:	f3 0f 1e fa          	endbr64 
    10d4:	f2 ff 25 b5 2e 00 00 	bnd jmp *0x2eb5(%rip)        # 3f90 <puts@GLIBC_2.2.5>
    10db:	0f 1f 44 00 00       	nopl   0x0(%rax,%rax,1)

00000000000010e0 <fread@plt>:
    10e0:	f3 0f 1e fa          	endbr64 
    10e4:	f2 ff 25 ad 2e 00 00 	bnd jmp *0x2ead(%rip)        # 3f98 <fread@GLIBC_2.2.5>
    10eb:	0f 1f 44 00 00       	nopl   0x0(%rax,%rax,1)

00000000000010f0 <fclose@plt>:
    10f0:	f3 0f 1e fa          	endbr64 
    10f4:	f2 ff 25 a5 2e 00 00 	bnd jmp *0x2ea5(%rip)        # 3fa0 <fclose@GLIBC_2.2.5>
    10fb:	0f 1f 44 00 00       	nopl   0x0(%rax,%rax,1)

0000000000001100 <__stack_chk_fail@plt>:
    1100:	f3 0f 1e fa          	endbr64 
    1104:	f2 ff 25 9d 2e 00 00 	bnd jmp *0x2e9d(%rip)        # 3fa8 <__stack_chk_fail@GLIBC_2.4>
    110b:	0f 1f 44 00 00       	nopl   0x0(%rax,%rax,1)

0000000000001110 <log10f@plt>:
    1110:	f3 0f 1e fa          	endbr64 
    1114:	f2 ff 25 95 2e 00 00 	bnd jmp *0x2e95(%rip)        # 3fb0 <log10f@GLIBC_2.2.5>
    111b:	0f 1f 44 00 00       	nopl   0x0(%rax,%rax,1)

0000000000001120 <__printf_chk@plt>:
    1120:	f3 0f 1e fa          	endbr64 
    1124:	f2 ff 25 8d 2e 00 00 	bnd jmp *0x2e8d(%rip)        # 3fb8 <__printf_chk@GLIBC_2.3.4>
    112b:	0f 1f 44 00 00       	nopl   0x0(%rax,%rax,1)

0000000000001130 <fopen@plt>:
    1130:	f3 0f 1e fa          	endbr64 
    1134:	f2 ff 25 85 2e 00 00 	bnd jmp *0x2e85(%rip)        # 3fc0 <fopen@GLIBC_2.2.5>
    113b:	0f 1f 44 00 00       	nopl   0x0(%rax,%rax,1)

0000000000001140 <sqrt@plt>:
    1140:	f3 0f 1e fa          	endbr64 
    1144:	f2 ff 25 7d 2e 00 00 	bnd jmp *0x2e7d(%rip)        # 3fc8 <sqrt@GLIBC_2.2.5>
    114b:	0f 1f 44 00 00       	nopl   0x0(%rax,%rax,1)

0000000000001150 <__sprintf_chk@plt>:
    1150:	f3 0f 1e fa          	endbr64 
    1154:	f2 ff 25 75 2e 00 00 	bnd jmp *0x2e75(%rip)        # 3fd0 <__sprintf_chk@GLIBC_2.3.4>
    115b:	0f 1f 44 00 00       	nopl   0x0(%rax,%rax,1)

Disassembly of section .text:

0000000000001160 <main>:
    1160:	f3 0f 1e fa          	endbr64 
    1164:	55                   	push   %rbp
    1165:	48 89 e5             	mov    %rsp,%rbp
    1168:	41 57                	push   %r15
    116a:	41 56                	push   %r14
    116c:	41 55                	push   %r13
    116e:	41 54                	push   %r12
    1170:	53                   	push   %rbx
    1171:	48 81 ec 38 02 00 00 	sub    $0x238,%rsp
    1178:	64 48 8b 04 25 28 00 	mov    %fs:0x28,%rax
    117f:	00 00 
    1181:	48 89 45 c8          	mov    %rax,-0x38(%rbp)
    1185:	31 c0                	xor    %eax,%eax
    1187:	48 8d 84 24 00 00 fe 	lea    -0x20000(%rsp),%rax
    118e:	ff 
    118f:	48 39 c4             	cmp    %rax,%rsp
    1192:	74 15                	je     11a9 <main+0x49>
    1194:	48 81 ec 00 10 00 00 	sub    $0x1000,%rsp
    119b:	48 83 8c 24 f8 0f 00 	orq    $0x0,0xff8(%rsp)
    11a2:	00 00 
    11a4:	48 39 c4             	cmp    %rax,%rsp
    11a7:	75 eb                	jne    1194 <main+0x34>
    11a9:	49 89 e6             	mov    %rsp,%r14
    11ac:	48 8d 84 24 00 00 fe 	lea    -0x20000(%rsp),%rax
    11b3:	ff 
    11b4:	48 39 c4             	cmp    %rax,%rsp
    11b7:	74 12                	je     11cb <main+0x6b>
    11b9:	48 81 ec 00 10 00 00 	sub    $0x1000,%rsp
    11c0:	48 83 8c 24 f8 0f 00 	orq    $0x0,0xff8(%rsp)
    11c7:	00 00 
    11c9:	eb e9                	jmp    11b4 <main+0x54>
    11cb:	4c 8d 6c 24 03       	lea    0x3(%rsp),%r13
    11d0:	48 8d 84 24 00 00 fe 	lea    -0x20000(%rsp),%rax
    11d7:	ff 
    11d8:	4d 89 ef             	mov    %r13,%r15
    11db:	49 83 e5 fc          	and    $0xfffffffffffffffc,%r13
    11df:	49 c1 ef 02          	shr    $0x2,%r15
    11e3:	48 39 c4             	cmp    %rax,%rsp
    11e6:	74 12                	je     11fa <main+0x9a>
    11e8:	48 81 ec 00 10 00 00 	sub    $0x1000,%rsp
    11ef:	48 83 8c 24 f8 0f 00 	orq    $0x0,0xff8(%rsp)
    11f6:	00 00 
    11f8:	eb e9                	jmp    11e3 <main+0x83>
    11fa:	4c 8d 05 07 0e 00 00 	lea    0xe07(%rip),%r8        # 2008 <_IO_stdin_used+0x8>
    1201:	ba 00 02 00 00       	mov    $0x200,%edx
    1206:	31 c0                	xor    %eax,%eax
    1208:	48 8d 0d 8b 0e 00 00 	lea    0xe8b(%rip),%rcx        # 209a <_IO_stdin_used+0x9a>
    120f:	be 01 00 00 00       	mov    $0x1,%esi
    1214:	48 8d 1d 92 0e 00 00 	lea    0xe92(%rip),%rbx        # 20ad <_IO_stdin_used+0xad>
    121b:	48 8d bd c0 fd ff ff 	lea    -0x240(%rbp),%rdi
    1222:	49 89 e4             	mov    %rsp,%r12
    1225:	48 89 bd b8 fd ff ff 	mov    %rdi,-0x248(%rbp)
    122c:	e8 1f ff ff ff       	call   1150 <__sprintf_chk@plt>
    1231:	48 8b bd b8 fd ff ff 	mov    -0x248(%rbp),%rdi
    1238:	48 89 de             	mov    %rbx,%rsi
    123b:	48 89 bd b0 fd ff ff 	mov    %rdi,-0x250(%rbp)
    1242:	e8 e9 fe ff ff       	call   1130 <fopen@plt>
    1247:	48 8b bd b0 fd ff ff 	mov    -0x250(%rbp),%rdi
    124e:	48 85 c0             	test   %rax,%rax
    1251:	48 89 85 b8 fd ff ff 	mov    %rax,-0x248(%rbp)
    1258:	0f 84 37 02 00 00    	je     1495 <main+0x335>
    125e:	4c 8d 05 a3 0d 00 00 	lea    0xda3(%rip),%r8        # 2008 <_IO_stdin_used+0x8>
    1265:	48 8d 0d 43 0e 00 00 	lea    0xe43(%rip),%rcx        # 20af <_IO_stdin_used+0xaf>
    126c:	ba 00 02 00 00       	mov    $0x200,%edx
    1271:	31 c0                	xor    %eax,%eax
    1273:	be 01 00 00 00       	mov    $0x1,%esi
    1278:	48 89 bd b0 fd ff ff 	mov    %rdi,-0x250(%rbp)
    127f:	e8 cc fe ff ff       	call   1150 <__sprintf_chk@plt>
    1284:	48 8b bd b0 fd ff ff 	mov    -0x250(%rbp),%rdi
    128b:	48 89 de             	mov    %rbx,%rsi
    128e:	e8 9d fe ff ff       	call   1130 <fopen@plt>
    1293:	48 89 c3             	mov    %rax,%rbx
    1296:	48 85 c0             	test   %rax,%rax
    1299:	0f 84 f6 01 00 00    	je     1495 <main+0x335>
    129f:	48 8b b5 b8 fd ff ff 	mov    -0x248(%rbp),%rsi
    12a6:	4c 89 f7             	mov    %r14,%rdi
    12a9:	e8 32 05 00 00       	call   17e0 <test_Fread.constprop.0.isra.0>
    12ae:	48 89 de             	mov    %rbx,%rsi
    12b1:	4c 89 e7             	mov    %r12,%rdi
    12b4:	e8 27 05 00 00       	call   17e0 <test_Fread.constprop.0.isra.0>
    12b9:	48 8b bd b8 fd ff ff 	mov    -0x248(%rbp),%rdi
    12c0:	e8 2b fe ff ff       	call   10f0 <fclose@plt>
    12c5:	48 89 df             	mov    %rbx,%rdi
    12c8:	e8 23 fe ff ff       	call   10f0 <fclose@plt>
    12cd:	b9 ff ff 00 00       	mov    $0xffff,%ecx
    12d2:	4c 89 ea             	mov    %r13,%rdx
    12d5:	4c 89 f7             	mov    %r14,%rdi
    12d8:	be fb ff ff ff       	mov    $0xfffffffb,%esi
    12dd:	e8 7e 06 00 00       	call   1960 <riscv_dsp_offset_q15>
    12e2:	66 0f ef d2          	pxor   %xmm2,%xmm2
    12e6:	31 c0                	xor    %eax,%eax
    12e8:	66 0f 6f da          	movdqa %xmm2,%xmm3
    12ec:	0f 1f 40 00          	nopl   0x0(%rax)
    12f0:	f3 41 0f 6f 44 05 00 	movdqu 0x0(%r13,%rax,1),%xmm0
    12f7:	f3 41 0f 6f 3c 04    	movdqu (%r12,%rax,1),%xmm7
    12fd:	66 0f 6f cb          	movdqa %xmm3,%xmm1
    1301:	48 83 c0 10          	add    $0x10,%rax
    1305:	66 0f f9 c7          	psubw  %xmm7,%xmm0
    1309:	66 0f f9 c8          	psubw  %xmm0,%xmm1
    130d:	66 0f ee c1          	pmaxsw %xmm1,%xmm0
    1311:	66 0f ee d0          	pmaxsw %xmm0,%xmm2
    1315:	48 3d f0 ff 01 00    	cmp    $0x1fff0,%rax
    131b:	75 d3                	jne    12f0 <main+0x190>
    131d:	42 0f b7 04 bd f0 ff 	movzwl 0x1fff0(,%r15,4),%eax
    1324:	01 00 
    1326:	66 0f 6f c2          	movdqa %xmm2,%xmm0
    132a:	66 41 2b 84 24 f0 ff 	sub    0x1fff0(%r12),%ax
    1331:	01 00 
    1333:	89 c2                	mov    %eax,%edx
    1335:	66 0f 73 d8 08       	psrldq $0x8,%xmm0
    133a:	66 f7 da             	neg    %dx
    133d:	66 0f ee d0          	pmaxsw %xmm0,%xmm2
    1341:	0f 48 d0             	cmovs  %eax,%edx
    1344:	66 0f 6f c2          	movdqa %xmm2,%xmm0
    1348:	42 0f b7 04 bd f2 ff 	movzwl 0x1fff2(,%r15,4),%eax
    134f:	01 00 
    1351:	66 41 2b 84 24 f2 ff 	sub    0x1fff2(%r12),%ax
    1358:	01 00 
    135a:	66 0f 73 d8 04       	psrldq $0x4,%xmm0
    135f:	41 89 c3             	mov    %eax,%r11d
    1362:	66 41 f7 db          	neg    %r11w
    1366:	66 0f ee d0          	pmaxsw %xmm0,%xmm2
    136a:	44 0f 48 d8          	cmovs  %eax,%r11d
    136e:	66 0f 6f c2          	movdqa %xmm2,%xmm0
    1372:	42 0f b7 04 bd f4 ff 	movzwl 0x1fff4(,%r15,4),%eax
    1379:	01 00 
    137b:	66 41 2b 84 24 f4 ff 	sub    0x1fff4(%r12),%ax
    1382:	01 00 
    1384:	66 0f 73 d8 02       	psrldq $0x2,%xmm0
    1389:	41 89 c2             	mov    %eax,%r10d
    138c:	66 41 f7 da          	neg    %r10w
    1390:	66 0f ee d0          	pmaxsw %xmm0,%xmm2
    1394:	44 0f 48 d0          	cmovs  %eax,%r10d
    1398:	66 0f c5 ca 00       	pextrw $0x0,%xmm2,%ecx
    139d:	42 0f b7 04 bd f6 ff 	movzwl 0x1fff6(,%r15,4),%eax
    13a4:	01 00 
    13a6:	66 41 2b 84 24 f6 ff 	sub    0x1fff6(%r12),%ax
    13ad:	01 00 
    13af:	41 89 c0             	mov    %eax,%r8d
    13b2:	66 41 f7 d8          	neg    %r8w
    13b6:	44 0f 48 c0          	cmovs  %eax,%r8d
    13ba:	42 0f b7 04 bd f8 ff 	movzwl 0x1fff8(,%r15,4),%eax
    13c1:	01 00 
    13c3:	66 41 2b 84 24 f8 ff 	sub    0x1fff8(%r12),%ax
    13ca:	01 00 
    13cc:	89 c7                	mov    %eax,%edi
    13ce:	66 f7 df             	neg    %di
    13d1:	0f 48 f8             	cmovs  %eax,%edi
    13d4:	42 0f b7 04 bd fa ff 	movzwl 0x1fffa(,%r15,4),%eax
    13db:	01 00 
    13dd:	66 41 2b 84 24 fa ff 	sub    0x1fffa(%r12),%ax
    13e4:	01 00 
    13e6:	89 c6                	mov    %eax,%esi
    13e8:	66 f7 de             	neg    %si
    13eb:	0f 48 f0             	cmovs  %eax,%esi
    13ee:	42 0f b7 04 bd fc ff 	movzwl 0x1fffc(,%r15,4),%eax
    13f5:	01 00 
    13f7:	66 41 2b 84 24 fc ff 	sub    0x1fffc(%r12),%ax
    13fe:	01 00 
    1400:	41 89 c1             	mov    %eax,%r9d
    1403:	66 41 f7 d9          	neg    %r9w
    1407:	41 0f 49 c1          	cmovns %r9d,%eax
    140b:	66 44 39 da          	cmp    %r11w,%dx
    140f:	41 0f 4c d3          	cmovl  %r11d,%edx
    1413:	66 44 39 d2          	cmp    %r10w,%dx
    1417:	41 0f 4c d2          	cmovl  %r10d,%edx
    141b:	66 44 39 c2          	cmp    %r8w,%dx
    141f:	41 0f 4c d0          	cmovl  %r8d,%edx
    1423:	66 39 fa             	cmp    %di,%dx
    1426:	0f 4c d7             	cmovl  %edi,%edx
    1429:	bf 01 00 00 00       	mov    $0x1,%edi
    142e:	66 39 f2             	cmp    %si,%dx
    1431:	0f 4c d6             	cmovl  %esi,%edx
    1434:	48 8d 35 8d 0c 00 00 	lea    0xc8d(%rip),%rsi        # 20c8 <_IO_stdin_used+0xc8>
    143b:	66 39 c2             	cmp    %ax,%dx
    143e:	0f 4c d0             	cmovl  %eax,%edx
    1441:	66 39 ca             	cmp    %cx,%dx
    1444:	0f 4c d1             	cmovl  %ecx,%edx
    1447:	31 c0                	xor    %eax,%eax
    1449:	0f bf d2             	movswl %dx,%edx
    144c:	e8 cf fc ff ff       	call   1120 <__printf_chk@plt>
    1451:	48 8d 84 24 00 00 fc 	lea    -0x40000(%rsp),%rax
    1458:	ff 
    1459:	48 39 c4             	cmp    %rax,%rsp
    145c:	74 15                	je     1473 <main+0x313>
    145e:	48 81 ec 00 10 00 00 	sub    $0x1000,%rsp
    1465:	48 83 8c 24 f8 0f 00 	orq    $0x0,0xff8(%rsp)
    146c:	00 00 
    146e:	48 39 c4             	cmp    %rax,%rsp
    1471:	75 eb                	jne    145e <main+0x2fe>
    1473:	48 89 e3             	mov    %rsp,%rbx
    1476:	48 8d 84 24 00 00 fc 	lea    -0x40000(%rsp),%rax
    147d:	ff 
    147e:	48 39 c4             	cmp    %rax,%rsp
    1481:	74 37                	je     14ba <main+0x35a>
    1483:	48 81 ec 00 10 00 00 	sub    $0x1000,%rsp
    148a:	48 83 8c 24 f8 0f 00 	orq    $0x0,0xff8(%rsp)
    1491:	00 00 
    1493:	eb e9                	jmp    147e <main+0x31e>
    1495:	83 c8 ff             	or     $0xffffffff,%eax
    1498:	48 8b 55 c8          	mov    -0x38(%rbp),%rdx
    149c:	64 48 2b 14 25 28 00 	sub    %fs:0x28,%rdx
    14a3:	00 00 
    14a5:	0f 85 35 02 00 00    	jne    16e0 <main+0x580>
    14ab:	48 8d 65 d8          	lea    -0x28(%rbp),%rsp
    14af:	5b                   	pop    %rbx
    14b0:	41 5c                	pop    %r12
    14b2:	41 5d                	pop    %r13
    14b4:	41 5e                	pop    %r14
    14b6:	41 5f                	pop    %r15
    14b8:	5d                   	pop    %rbp
    14b9:	c3                   	ret    
    14ba:	ba ff ff 00 00       	mov    $0xffff,%edx
    14bf:	48 89 de             	mov    %rbx,%rsi
    14c2:	4c 89 e7             	mov    %r12,%rdi
    14c5:	49 89 e6             	mov    %rsp,%r14
    14c8:	e8 33 03 00 00       	call   1800 <riscv_dsp_convert_q15_f32>
    14cd:	ba ff ff 00 00       	mov    $0xffff,%edx
    14d2:	4c 89 f6             	mov    %r14,%rsi
    14d5:	4c 89 ef             	mov    %r13,%rdi
    14d8:	e8 23 03 00 00       	call   1800 <riscv_dsp_convert_q15_f32>
    14dd:	66 0f ef db          	pxor   %xmm3,%xmm3
    14e1:	66 0f ef ff          	pxor   %xmm7,%xmm7
    14e5:	31 c0                	xor    %eax,%eax
    14e7:	66 0f 28 f7          	movapd %xmm7,%xmm6
    14eb:	0f 28 c3             	movaps %xmm3,%xmm0
    14ee:	44 0f 28 c3          	movaps %xmm3,%xmm8
    14f2:	f3 44 0f 10 0d 05 0c 	movss  0xc05(%rip),%xmm9        # 2100 <_IO_stdin_used+0x100>
    14f9:	00 00 
    14fb:	0f 28 eb             	movaps %xmm3,%xmm5
    14fe:	66 90                	xchg   %ax,%ax
    1500:	f3 41 0f 10 0c 06    	movss  (%r14,%rax,1),%xmm1
    1506:	f3 0f 10 14 03       	movss  (%rbx,%rax,1),%xmm2
    150b:	66 0f 7e c9          	movd   %xmm1,%ecx
    150f:	81 f9 00 00 c0 7f    	cmp    $0x7fc00000,%ecx
    1515:	0f 84 7a ff ff ff    	je     1495 <main+0x335>
    151b:	0f 28 e2             	movaps %xmm2,%xmm4
    151e:	f3 0f 5c ca          	subss  %xmm2,%xmm1
    1522:	48 83 c0 04          	add    $0x4,%rax
    1526:	f3 0f 5f e5          	maxss  %xmm5,%xmm4
    152a:	0f 28 ec             	movaps %xmm4,%xmm5
    152d:	0f 28 e2             	movaps %xmm2,%xmm4
    1530:	f3 41 0f 5d e0       	minss  %xmm8,%xmm4
    1535:	f3 0f 59 d2          	mulss  %xmm2,%xmm2
    1539:	44 0f 28 c4          	movaps %xmm4,%xmm8
    153d:	0f 28 e1             	movaps %xmm1,%xmm4
    1540:	f3 0f 59 c9          	mulss  %xmm1,%xmm1
    1544:	41 0f 54 e1          	andps  %xmm9,%xmm4
    1548:	f3 0f 58 c4          	addss  %xmm4,%xmm0
    154c:	f3 0f 5f e3          	maxss  %xmm3,%xmm4
    1550:	f3 0f 5a d2          	cvtss2sd %xmm2,%xmm2
    1554:	f2 0f 58 fa          	addsd  %xmm2,%xmm7
    1558:	0f 28 dc             	movaps %xmm4,%xmm3
    155b:	f3 0f 5a c9          	cvtss2sd %xmm1,%xmm1
    155f:	f2 0f 58 f1          	addsd  %xmm1,%xmm6
    1563:	48 3d fc ff 03 00    	cmp    $0x3fffc,%rax
    1569:	75 95                	jne    1500 <main+0x3a0>
    156b:	66 48 0f 7e f0       	movq   %xmm6,%rax
    1570:	f3 0f 11 a5 a8 fd ff 	movss  %xmm4,-0x258(%rbp)
    1577:	ff 
    1578:	f3 44 0f 11 85 ac fd 	movss  %xmm8,-0x254(%rbp)
    157f:	ff ff 
    1581:	f3 0f 11 ad b0 fd ff 	movss  %xmm5,-0x250(%rbp)
    1588:	ff 
    1589:	f2 0f 11 bd b8 fd ff 	movsd  %xmm7,-0x248(%rbp)
    1590:	ff 
    1591:	3d 00 00 c0 7f       	cmp    $0x7fc00000,%eax
    1596:	0f 84 f9 fe ff ff    	je     1495 <main+0x335>
    159c:	f3 0f 5e 05 50 0b 00 	divss  0xb50(%rip),%xmm0        # 20f4 <_IO_stdin_used+0xf4>
    15a3:	00 
    15a4:	f2 0f 11 b5 a0 fd ff 	movsd  %xmm6,-0x260(%rbp)
    15ab:	ff 
    15ac:	66 41 0f 7e c5       	movd   %xmm0,%r13d
    15b1:	66 0f 28 c6          	movapd %xmm6,%xmm0
    15b5:	f2 0f 5e 05 53 0b 00 	divsd  0xb53(%rip),%xmm0        # 2110 <_IO_stdin_used+0x110>
    15bc:	00 
    15bd:	e8 7e fb ff ff       	call   1140 <sqrt@plt>
    15c2:	66 0f ef ed          	pxor   %xmm5,%xmm5
    15c6:	f3 44 0f 10 85 ac fd 	movss  -0x254(%rbp),%xmm8
    15cd:	ff ff 
    15cf:	f2 0f 5a e8          	cvtsd2ss %xmm0,%xmm5
    15d3:	66 0f 7e eb          	movd   %xmm5,%ebx
    15d7:	f3 0f 10 ad b0 fd ff 	movss  -0x250(%rbp),%xmm5
    15de:	ff 
    15df:	f2 0f 10 bd b8 fd ff 	movsd  -0x248(%rbp),%xmm7
    15e6:	ff 
    15e7:	66 0f 6e f3          	movd   %ebx,%xmm6
    15eb:	f3 0f 10 9d a8 fd ff 	movss  -0x258(%rbp),%xmm3
    15f2:	ff 
    15f3:	f3 41 0f 5c e8       	subss  %xmm8,%xmm5
    15f8:	f3 0f 5e f5          	divss  %xmm5,%xmm6
    15fc:	66 0f ef ed          	pxor   %xmm5,%xmm5
    1600:	66 41 0f 7e f4       	movd   %xmm6,%r12d
    1605:	f2 0f 10 b5 a0 fd ff 	movsd  -0x260(%rbp),%xmm6
    160c:	ff 
    160d:	66 0f 2e f5          	ucomisd %xmm5,%xmm6
    1611:	0f 8a 96 00 00 00    	jp     16ad <main+0x54d>
    1617:	44 8b 35 d2 0a 00 00 	mov    0xad2(%rip),%r14d        # 20f0 <_IO_stdin_used+0xf0>
    161e:	0f 85 89 00 00 00    	jne    16ad <main+0x54d>
    1624:	48 8d 3d b0 0a 00 00 	lea    0xab0(%rip),%rdi        # 20db <_IO_stdin_used+0xdb>
    162b:	f3 0f 11 9d b8 fd ff 	movss  %xmm3,-0x248(%rbp)
    1632:	ff 
    1633:	e8 98 fa ff ff       	call   10d0 <puts@plt>
    1638:	66 41 0f 6e f5       	movd   %r13d,%xmm6
    163d:	66 0f ef c0          	pxor   %xmm0,%xmm0
    1641:	66 0f ef e4          	pxor   %xmm4,%xmm4
    1645:	f3 0f 5a c6          	cvtss2sd %xmm6,%xmm0
    1649:	66 41 0f 6e f6       	movd   %r14d,%xmm6
    164e:	66 0f ef d2          	pxor   %xmm2,%xmm2
    1652:	f3 0f 10 9d b8 fd ff 	movss  -0x248(%rbp),%xmm3
    1659:	ff 
    165a:	f3 0f 5a e6          	cvtss2sd %xmm6,%xmm4
    165e:	66 41 0f 6e f4       	movd   %r12d,%xmm6
    1663:	66 0f ef c9          	pxor   %xmm1,%xmm1
    1667:	48 8d 35 da 09 00 00 	lea    0x9da(%rip),%rsi        # 2048 <_IO_stdin_used+0x48>
    166e:	f3 0f 5a d6          	cvtss2sd %xmm6,%xmm2
    1672:	bf 01 00 00 00       	mov    $0x1,%edi
    1677:	66 0f 6e f3          	movd   %ebx,%xmm6
    167b:	f3 0f 5a db          	cvtss2sd %xmm3,%xmm3
    167f:	b8 05 00 00 00       	mov    $0x5,%eax
    1684:	f3 0f 5a ce          	cvtss2sd %xmm6,%xmm1
    1688:	e8 93 fa ff ff       	call   1120 <__printf_chk@plt>
    168d:	66 41 0f 6e f4       	movd   %r12d,%xmm6
    1692:	66 0f ef ed          	pxor   %xmm5,%xmm5
    1696:	31 c0                	xor    %eax,%eax
    1698:	0f 2e f5             	ucomiss %xmm5,%xmm6
    169b:	ba 01 00 00 00       	mov    $0x1,%edx
    16a0:	0f 9a c0             	setp   %al
    16a3:	0f 45 c2             	cmovne %edx,%eax
    16a6:	f7 d8                	neg    %eax
    16a8:	e9 eb fd ff ff       	jmp    1498 <main+0x338>
    16ad:	f2 0f 5e fe          	divsd  %xmm6,%xmm7
    16b1:	66 0f ef c0          	pxor   %xmm0,%xmm0
    16b5:	f3 0f 11 9d b8 fd ff 	movss  %xmm3,-0x248(%rbp)
    16bc:	ff 
    16bd:	f2 0f 5a c7          	cvtsd2ss %xmm7,%xmm0
    16c1:	e8 4a fa ff ff       	call   1110 <log10f@plt>
    16c6:	f3 0f 59 05 2a 0a 00 	mulss  0xa2a(%rip),%xmm0        # 20f8 <_IO_stdin_used+0xf8>
    16cd:	00 
    16ce:	f3 0f 10 9d b8 fd ff 	movss  -0x248(%rbp),%xmm3
    16d5:	ff 
    16d6:	66 41 0f 7e c6       	movd   %xmm0,%r14d
    16db:	e9 44 ff ff ff       	jmp    1624 <main+0x4c4>
    16e0:	e8 1b fa ff ff       	call   1100 <__stack_chk_fail@plt>
    16e5:	66 2e 0f 1f 84 00 00 	cs nopw 0x0(%rax,%rax,1)
    16ec:	00 00 00 
    16ef:	90                   	nop

00000000000016f0 <_start>:
    16f0:	f3 0f 1e fa          	endbr64 
    16f4:	31 ed                	xor    %ebp,%ebp
    16f6:	49 89 d1             	mov    %rdx,%r9
    16f9:	5e                   	pop    %rsi
    16fa:	48 89 e2             	mov    %rsp,%rdx
    16fd:	48 83 e4 f0          	and    $0xfffffffffffffff0,%rsp
    1701:	50                   	push   %rax
    1702:	54                   	push   %rsp
    1703:	45 31 c0             	xor    %r8d,%r8d
    1706:	31 c9                	xor    %ecx,%ecx
    1708:	48 8d 3d 51 fa ff ff 	lea    -0x5af(%rip),%rdi        # 1160 <main>
    170f:	ff 15 c3 28 00 00    	call   *0x28c3(%rip)        # 3fd8 <__libc_start_main@GLIBC_2.34>
    1715:	f4                   	hlt    
    1716:	66 2e 0f 1f 84 00 00 	cs nopw 0x0(%rax,%rax,1)
    171d:	00 00 00 

0000000000001720 <deregister_tm_clones>:
    1720:	48 8d 3d e9 28 00 00 	lea    0x28e9(%rip),%rdi        # 4010 <__TMC_END__>
    1727:	48 8d 05 e2 28 00 00 	lea    0x28e2(%rip),%rax        # 4010 <__TMC_END__>
    172e:	48 39 f8             	cmp    %rdi,%rax
    1731:	74 15                	je     1748 <deregister_tm_clones+0x28>
    1733:	48 8b 05 a6 28 00 00 	mov    0x28a6(%rip),%rax        # 3fe0 <_ITM_deregisterTMCloneTable@Base>
    173a:	48 85 c0             	test   %rax,%rax
    173d:	74 09                	je     1748 <deregister_tm_clones+0x28>
    173f:	ff e0                	jmp    *%rax
    1741:	0f 1f 80 00 00 00 00 	nopl   0x0(%rax)
    1748:	c3                   	ret    
    1749:	0f 1f 80 00 00 00 00 	nopl   0x0(%rax)

0000000000001750 <register_tm_clones>:
    1750:	48 8d 3d b9 28 00 00 	lea    0x28b9(%rip),%rdi        # 4010 <__TMC_END__>
    1757:	48 8d 35 b2 28 00 00 	lea    0x28b2(%rip),%rsi        # 4010 <__TMC_END__>
    175e:	48 29 fe             	sub    %rdi,%rsi
    1761:	48 89 f0             	mov    %rsi,%rax
    1764:	48 c1 ee 3f          	shr    $0x3f,%rsi
    1768:	48 c1 f8 03          	sar    $0x3,%rax
    176c:	48 01 c6             	add    %rax,%rsi
    176f:	48 d1 fe             	sar    %rsi
    1772:	74 14                	je     1788 <register_tm_clones+0x38>
    1774:	48 8b 05 75 28 00 00 	mov    0x2875(%rip),%rax        # 3ff0 <_ITM_registerTMCloneTable@Base>
    177b:	48 85 c0             	test   %rax,%rax
    177e:	74 08                	je     1788 <register_tm_clones+0x38>
    1780:	ff e0                	jmp    *%rax
    1782:	66 0f 1f 44 00 00    	nopw   0x0(%rax,%rax,1)
    1788:	c3                   	ret    
    1789:	0f 1f 80 00 00 00 00 	nopl   0x0(%rax)

0000000000001790 <__do_global_dtors_aux>:
    1790:	f3 0f 1e fa          	endbr64 
    1794:	80 3d 75 28 00 00 00 	cmpb   $0x0,0x2875(%rip)        # 4010 <__TMC_END__>
    179b:	75 2b                	jne    17c8 <__do_global_dtors_aux+0x38>
    179d:	55                   	push   %rbp
    179e:	48 83 3d 52 28 00 00 	cmpq   $0x0,0x2852(%rip)        # 3ff8 <__cxa_finalize@GLIBC_2.2.5>
    17a5:	00 
    17a6:	48 89 e5             	mov    %rsp,%rbp
    17a9:	74 0c                	je     17b7 <__do_global_dtors_aux+0x27>
    17ab:	48 8b 3d 56 28 00 00 	mov    0x2856(%rip),%rdi        # 4008 <__dso_handle>
    17b2:	e8 09 f9 ff ff       	call   10c0 <__cxa_finalize@plt>
    17b7:	e8 64 ff ff ff       	call   1720 <deregister_tm_clones>
    17bc:	c6 05 4d 28 00 00 01 	movb   $0x1,0x284d(%rip)        # 4010 <__TMC_END__>
    17c3:	5d                   	pop    %rbp
    17c4:	c3                   	ret    
    17c5:	0f 1f 00             	nopl   (%rax)
    17c8:	c3                   	ret    
    17c9:	0f 1f 80 00 00 00 00 	nopl   0x0(%rax)

00000000000017d0 <frame_dummy>:
    17d0:	f3 0f 1e fa          	endbr64 
    17d4:	e9 77 ff ff ff       	jmp    1750 <register_tm_clones>
    17d9:	0f 1f 80 00 00 00 00 	nopl   0x0(%rax)

00000000000017e0 <test_Fread.constprop.0.isra.0>:
    17e0:	48 89 f1             	mov    %rsi,%rcx
    17e3:	ba ff ff 00 00       	mov    $0xffff,%edx
    17e8:	be 02 00 00 00       	mov    $0x2,%esi
    17ed:	e9 ee f8 ff ff       	jmp    10e0 <fread@plt>
    17f2:	66 2e 0f 1f 84 00 00 	cs nopw 0x0(%rax,%rax,1)
    17f9:	00 00 00 
    17fc:	0f 1f 40 00          	nopl   0x0(%rax)

0000000000001800 <riscv_dsp_convert_q15_f32>:
    1800:	f3 0f 1e fa          	endbr64 
    1804:	48 89 f1             	mov    %rsi,%rcx
    1807:	85 d2                	test   %edx,%edx
    1809:	0f 84 36 01 00 00    	je     1945 <riscv_dsp_convert_q15_f32+0x145>
    180f:	8d 42 ff             	lea    -0x1(%rdx),%eax
    1812:	83 f8 06             	cmp    $0x6,%eax
    1815:	0f 86 36 01 00 00    	jbe    1951 <riscv_dsp_convert_q15_f32+0x151>
    181b:	89 d6                	mov    %edx,%esi
    181d:	0f 28 1d fc 08 00 00 	movaps 0x8fc(%rip),%xmm3        # 2120 <_IO_stdin_used+0x120>
    1824:	31 c0                	xor    %eax,%eax
    1826:	66 0f ef e4          	pxor   %xmm4,%xmm4
    182a:	c1 ee 03             	shr    $0x3,%esi
    182d:	48 c1 e6 04          	shl    $0x4,%rsi
    1831:	0f 1f 80 00 00 00 00 	nopl   0x0(%rax)
    1838:	f3 0f 6f 04 07       	movdqu (%rdi,%rax,1),%xmm0
    183d:	66 0f 6f d4          	movdqa %xmm4,%xmm2
    1841:	66 0f 65 d0          	pcmpgtw %xmm0,%xmm2
    1845:	66 0f 6f c8          	movdqa %xmm0,%xmm1
    1849:	66 0f 61 ca          	punpcklwd %xmm2,%xmm1
    184d:	66 0f 69 c2          	punpckhwd %xmm2,%xmm0
    1851:	0f 5b c9             	cvtdq2ps %xmm1,%xmm1
    1854:	0f 5b c0             	cvtdq2ps %xmm0,%xmm0
    1857:	0f 59 cb             	mulps  %xmm3,%xmm1
    185a:	0f 59 c3             	mulps  %xmm3,%xmm0
    185d:	0f 11 0c 41          	movups %xmm1,(%rcx,%rax,2)
    1861:	0f 11 44 41 10       	movups %xmm0,0x10(%rcx,%rax,2)
    1866:	48 83 c0 10          	add    $0x10,%rax
    186a:	48 39 f0             	cmp    %rsi,%rax
    186d:	75 c9                	jne    1838 <riscv_dsp_convert_q15_f32+0x38>
    186f:	89 d6                	mov    %edx,%esi
    1871:	83 e6 f8             	and    $0xfffffff8,%esi
    1874:	89 f0                	mov    %esi,%eax
    1876:	48 8d 3c 47          	lea    (%rdi,%rax,2),%rdi
    187a:	48 8d 0c 81          	lea    (%rcx,%rax,4),%rcx
    187e:	89 d0                	mov    %edx,%eax
    1880:	29 f0                	sub    %esi,%eax
    1882:	39 f2                	cmp    %esi,%edx
    1884:	0f 84 c6 00 00 00    	je     1950 <riscv_dsp_convert_q15_f32+0x150>
    188a:	0f bf 17             	movswl (%rdi),%edx
    188d:	66 0f ef c9          	pxor   %xmm1,%xmm1
    1891:	f3 0f 10 05 87 08 00 	movss  0x887(%rip),%xmm0        # 2120 <_IO_stdin_used+0x120>
    1898:	00 
    1899:	f3 0f 2a ca          	cvtsi2ss %edx,%xmm1
    189d:	f3 0f 59 c8          	mulss  %xmm0,%xmm1
    18a1:	f3 0f 11 09          	movss  %xmm1,(%rcx)
    18a5:	83 f8 01             	cmp    $0x1,%eax
    18a8:	0f 84 97 00 00 00    	je     1945 <riscv_dsp_convert_q15_f32+0x145>
    18ae:	0f bf 57 02          	movswl 0x2(%rdi),%edx
    18b2:	66 0f ef c9          	pxor   %xmm1,%xmm1
    18b6:	f3 0f 2a ca          	cvtsi2ss %edx,%xmm1
    18ba:	f3 0f 59 c8          	mulss  %xmm0,%xmm1
    18be:	f3 0f 11 49 04       	movss  %xmm1,0x4(%rcx)
    18c3:	83 f8 02             	cmp    $0x2,%eax
    18c6:	74 7d                	je     1945 <riscv_dsp_convert_q15_f32+0x145>
    18c8:	0f bf 57 04          	movswl 0x4(%rdi),%edx
    18cc:	66 0f ef c9          	pxor   %xmm1,%xmm1
    18d0:	f3 0f 2a ca          	cvtsi2ss %edx,%xmm1
    18d4:	f3 0f 59 c8          	mulss  %xmm0,%xmm1
    18d8:	f3 0f 11 49 08       	movss  %xmm1,0x8(%rcx)
    18dd:	83 f8 03             	cmp    $0x3,%eax
    18e0:	74 63                	je     1945 <riscv_dsp_convert_q15_f32+0x145>
    18e2:	0f bf 57 06          	movswl 0x6(%rdi),%edx
    18e6:	66 0f ef c9          	pxor   %xmm1,%xmm1
    18ea:	f3 0f 2a ca          	cvtsi2ss %edx,%xmm1
    18ee:	f3 0f 59 c8          	mulss  %xmm0,%xmm1
    18f2:	f3 0f 11 49 0c       	movss  %xmm1,0xc(%rcx)
    18f7:	83 f8 04             	cmp    $0x4,%eax
    18fa:	74 49                	je     1945 <riscv_dsp_convert_q15_f32+0x145>
    18fc:	0f bf 57 08          	movswl 0x8(%rdi),%edx
    1900:	66 0f ef c9          	pxor   %xmm1,%xmm1
    1904:	f3 0f 2a ca          	cvtsi2ss %edx,%xmm1
    1908:	f3 0f 59 c8          	mulss  %xmm0,%xmm1
    190c:	f3 0f 11 49 10       	movss  %xmm1,0x10(%rcx)
    1911:	83 f8 05             	cmp    $0x5,%eax
    1914:	74 2f                	je     1945 <riscv_dsp_convert_q15_f32+0x145>
    1916:	0f bf 57 0a          	movswl 0xa(%rdi),%edx
    191a:	66 0f ef c9          	pxor   %xmm1,%xmm1
    191e:	f3 0f 2a ca          	cvtsi2ss %edx,%xmm1
    1922:	f3 0f 59 c8          	mulss  %xmm0,%xmm1
    1926:	f3 0f 11 49 14       	movss  %xmm1,0x14(%rcx)
    192b:	83 f8 06             	cmp    $0x6,%eax
    192e:	74 15                	je     1945 <riscv_dsp_convert_q15_f32+0x145>
    1930:	0f bf 47 0c          	movswl 0xc(%rdi),%eax
    1934:	66 0f ef c9          	pxor   %xmm1,%xmm1
    1938:	f3 0f 2a c8          	cvtsi2ss %eax,%xmm1
    193c:	f3 0f 59 c8          	mulss  %xmm0,%xmm1
    1940:	f3 0f 11 49 18       	movss  %xmm1,0x18(%rcx)
    1945:	c3                   	ret    
    1946:	66 2e 0f 1f 84 00 00 	cs nopw 0x0(%rax,%rax,1)
    194d:	00 00 00 
    1950:	c3                   	ret    
    1951:	89 d0                	mov    %edx,%eax
    1953:	e9 32 ff ff ff       	jmp    188a <riscv_dsp_convert_q15_f32+0x8a>
    1958:	0f 1f 84 00 00 00 00 	nopl   0x0(%rax,%rax,1)
    195f:	00 

0000000000001960 <riscv_dsp_offset_q15>:
    1960:	f3 0f 1e fa          	endbr64 
    1964:	85 c9                	test   %ecx,%ecx
    1966:	0f 84 07 02 00 00    	je     1b73 <riscv_dsp_offset_q15+0x213>
    196c:	8d 41 ff             	lea    -0x1(%rcx),%eax
    196f:	0f bf f6             	movswl %si,%esi
    1972:	83 f8 06             	cmp    $0x6,%eax
    1975:	0f 86 fe 01 00 00    	jbe    1b79 <riscv_dsp_offset_q15+0x219>
    197b:	41 89 c8             	mov    %ecx,%r8d
    197e:	66 0f 6e f6          	movd   %esi,%xmm6
    1982:	31 c0                	xor    %eax,%eax
    1984:	66 0f 6f 25 a4 07 00 	movdqa 0x7a4(%rip),%xmm4        # 2130 <_IO_stdin_used+0x130>
    198b:	00 
    198c:	41 c1 e8 03          	shr    $0x3,%r8d
    1990:	66 0f 6f 1d a8 07 00 	movdqa 0x7a8(%rip),%xmm3        # 2140 <_IO_stdin_used+0x140>
    1997:	00 
    1998:	66 0f 70 ee 00       	pshufd $0x0,%xmm6,%xmm5
    199d:	66 0f ef f6          	pxor   %xmm6,%xmm6
    19a1:	49 c1 e0 04          	shl    $0x4,%r8
    19a5:	0f 1f 00             	nopl   (%rax)
    19a8:	f3 0f 6f 04 07       	movdqu (%rdi,%rax,1),%xmm0
    19ad:	66 0f 6f fe          	movdqa %xmm6,%xmm7
    19b1:	66 44 0f 6f c3       	movdqa %xmm3,%xmm8
    19b6:	66 0f 65 f8          	pcmpgtw %xmm0,%xmm7
    19ba:	66 0f 6f c8          	movdqa %xmm0,%xmm1
    19be:	66 0f 61 cf          	punpcklwd %xmm7,%xmm1
    19c2:	66 0f 69 c7          	punpckhwd %xmm7,%xmm0
    19c6:	66 0f 6f fb          	movdqa %xmm3,%xmm7
    19ca:	66 0f fe cd          	paddd  %xmm5,%xmm1
    19ce:	66 0f fe c5          	paddd  %xmm5,%xmm0
    19d2:	66 0f 6f d1          	movdqa %xmm1,%xmm2
    19d6:	66 0f 66 d4          	pcmpgtd %xmm4,%xmm2
    19da:	66 0f db ca          	pand   %xmm2,%xmm1
    19de:	66 0f df d4          	pandn  %xmm4,%xmm2
    19e2:	66 0f eb d1          	por    %xmm1,%xmm2
    19e6:	66 0f 6f ca          	movdqa %xmm2,%xmm1
    19ea:	66 0f 66 cb          	pcmpgtd %xmm3,%xmm1
    19ee:	66 44 0f db c1       	pand   %xmm1,%xmm8
    19f3:	66 0f df ca          	pandn  %xmm2,%xmm1
    19f7:	66 0f 6f d0          	movdqa %xmm0,%xmm2
    19fb:	66 0f 66 d4          	pcmpgtd %xmm4,%xmm2
    19ff:	66 41 0f eb c8       	por    %xmm8,%xmm1
    1a04:	66 0f db c2          	pand   %xmm2,%xmm0
    1a08:	66 0f df d4          	pandn  %xmm4,%xmm2
    1a0c:	66 0f eb d0          	por    %xmm0,%xmm2
    1a10:	66 0f 6f c2          	movdqa %xmm2,%xmm0
    1a14:	66 0f 66 c3          	pcmpgtd %xmm3,%xmm0
    1a18:	66 0f db f8          	pand   %xmm0,%xmm7
    1a1c:	66 0f df c2          	pandn  %xmm2,%xmm0
    1a20:	66 0f 6f d1          	movdqa %xmm1,%xmm2
    1a24:	66 0f eb c7          	por    %xmm7,%xmm0
    1a28:	66 0f 61 c8          	punpcklwd %xmm0,%xmm1
    1a2c:	66 0f 69 d0          	punpckhwd %xmm0,%xmm2
    1a30:	66 0f 6f c1          	movdqa %xmm1,%xmm0
    1a34:	66 0f 61 ca          	punpcklwd %xmm2,%xmm1
    1a38:	66 0f 69 c2          	punpckhwd %xmm2,%xmm0
    1a3c:	66 0f 61 c8          	punpcklwd %xmm0,%xmm1
    1a40:	0f 11 0c 02          	movups %xmm1,(%rdx,%rax,1)
    1a44:	48 83 c0 10          	add    $0x10,%rax
    1a48:	4c 39 c0             	cmp    %r8,%rax
    1a4b:	0f 85 57 ff ff ff    	jne    19a8 <riscv_dsp_offset_q15+0x48>
    1a51:	41 89 c9             	mov    %ecx,%r9d
    1a54:	41 89 c8             	mov    %ecx,%r8d
    1a57:	41 83 e1 f8          	and    $0xfffffff8,%r9d
    1a5b:	44 89 c8             	mov    %r9d,%eax
    1a5e:	45 29 c8             	sub    %r9d,%r8d
    1a61:	48 01 c0             	add    %rax,%rax
    1a64:	48 01 c7             	add    %rax,%rdi
    1a67:	48 01 c2             	add    %rax,%rdx
    1a6a:	44 39 c9             	cmp    %r9d,%ecx
    1a6d:	0f 84 05 01 00 00    	je     1b78 <riscv_dsp_offset_q15+0x218>
    1a73:	0f bf 07             	movswl (%rdi),%eax
    1a76:	b9 00 80 ff ff       	mov    $0xffff8000,%ecx
    1a7b:	01 f0                	add    %esi,%eax
    1a7d:	39 c8                	cmp    %ecx,%eax
    1a7f:	0f 4c c1             	cmovl  %ecx,%eax
    1a82:	b9 ff 7f 00 00       	mov    $0x7fff,%ecx
    1a87:	39 c8                	cmp    %ecx,%eax
    1a89:	0f 4f c1             	cmovg  %ecx,%eax
    1a8c:	66 89 02             	mov    %ax,(%rdx)
    1a8f:	41 83 f8 01          	cmp    $0x1,%r8d
    1a93:	0f 84 da 00 00 00    	je     1b73 <riscv_dsp_offset_q15+0x213>
    1a99:	0f bf 47 02          	movswl 0x2(%rdi),%eax
    1a9d:	b9 00 80 ff ff       	mov    $0xffff8000,%ecx
    1aa2:	01 f0                	add    %esi,%eax
    1aa4:	39 c8                	cmp    %ecx,%eax
    1aa6:	0f 4c c1             	cmovl  %ecx,%eax
    1aa9:	b9 ff 7f 00 00       	mov    $0x7fff,%ecx
    1aae:	39 c8                	cmp    %ecx,%eax
    1ab0:	0f 4f c1             	cmovg  %ecx,%eax
    1ab3:	66 89 42 02          	mov    %ax,0x2(%rdx)
    1ab7:	41 83 f8 02          	cmp    $0x2,%r8d
    1abb:	0f 84 b2 00 00 00    	je     1b73 <riscv_dsp_offset_q15+0x213>
    1ac1:	0f bf 47 04          	movswl 0x4(%rdi),%eax
    1ac5:	b9 00 80 ff ff       	mov    $0xffff8000,%ecx
    1aca:	01 f0                	add    %esi,%eax
    1acc:	39 c8                	cmp    %ecx,%eax
    1ace:	0f 4c c1             	cmovl  %ecx,%eax
    1ad1:	b9 ff 7f 00 00       	mov    $0x7fff,%ecx
    1ad6:	39 c8                	cmp    %ecx,%eax
    1ad8:	0f 4f c1             	cmovg  %ecx,%eax
    1adb:	66 89 42 04          	mov    %ax,0x4(%rdx)
    1adf:	41 83 f8 03          	cmp    $0x3,%r8d
    1ae3:	0f 84 8a 00 00 00    	je     1b73 <riscv_dsp_offset_q15+0x213>
    1ae9:	0f bf 47 06          	movswl 0x6(%rdi),%eax
    1aed:	b9 00 80 ff ff       	mov    $0xffff8000,%ecx
    1af2:	01 f0                	add    %esi,%eax
    1af4:	39 c8                	cmp    %ecx,%eax
    1af6:	0f 4c c1             	cmovl  %ecx,%eax
    1af9:	b9 ff 7f 00 00       	mov    $0x7fff,%ecx
    1afe:	39 c8                	cmp    %ecx,%eax
    1b00:	0f 4f c1             	cmovg  %ecx,%eax
    1b03:	66 89 42 06          	mov    %ax,0x6(%rdx)
    1b07:	41 83 f8 04          	cmp    $0x4,%r8d
    1b0b:	74 66                	je     1b73 <riscv_dsp_offset_q15+0x213>
    1b0d:	0f bf 47 08          	movswl 0x8(%rdi),%eax
    1b11:	b9 00 80 ff ff       	mov    $0xffff8000,%ecx
    1b16:	01 f0                	add    %esi,%eax
    1b18:	39 c8                	cmp    %ecx,%eax
    1b1a:	0f 4c c1             	cmovl  %ecx,%eax
    1b1d:	b9 ff 7f 00 00       	mov    $0x7fff,%ecx
    1b22:	39 c8                	cmp    %ecx,%eax
    1b24:	0f 4f c1             	cmovg  %ecx,%eax
    1b27:	66 89 42 08          	mov    %ax,0x8(%rdx)
    1b2b:	41 83 f8 05          	cmp    $0x5,%r8d
    1b2f:	74 42                	je     1b73 <riscv_dsp_offset_q15+0x213>
    1b31:	0f bf 47 0a          	movswl 0xa(%rdi),%eax
    1b35:	b9 00 80 ff ff       	mov    $0xffff8000,%ecx
    1b3a:	01 f0                	add    %esi,%eax
    1b3c:	39 c8                	cmp    %ecx,%eax
    1b3e:	0f 4c c1             	cmovl  %ecx,%eax
    1b41:	b9 ff 7f 00 00       	mov    $0x7fff,%ecx
    1b46:	39 c8                	cmp    %ecx,%eax
    1b48:	0f 4f c1             	cmovg  %ecx,%eax
    1b4b:	66 89 42 0a          	mov    %ax,0xa(%rdx)
    1b4f:	41 83 f8 06          	cmp    $0x6,%r8d
    1b53:	74 1e                	je     1b73 <riscv_dsp_offset_q15+0x213>
    1b55:	0f bf 47 0c          	movswl 0xc(%rdi),%eax
    1b59:	b9 00 80 ff ff       	mov    $0xffff8000,%ecx
    1b5e:	01 f0                	add    %esi,%eax
    1b60:	39 c8                	cmp    %ecx,%eax
    1b62:	0f 4c c1             	cmovl  %ecx,%eax
    1b65:	b9 ff 7f 00 00       	mov    $0x7fff,%ecx
    1b6a:	39 c8                	cmp    %ecx,%eax
    1b6c:	0f 4f c1             	cmovg  %ecx,%eax
    1b6f:	66 89 42 0c          	mov    %ax,0xc(%rdx)
    1b73:	c3                   	ret    
    1b74:	0f 1f 40 00          	nopl   0x0(%rax)
    1b78:	c3                   	ret    
    1b79:	41 89 c8             	mov    %ecx,%r8d
    1b7c:	e9 f2 fe ff ff       	jmp    1a73 <riscv_dsp_offset_q15+0x113>

Disassembly of section .fini:

0000000000001b84 <_fini>:
    1b84:	f3 0f 1e fa          	endbr64 
    1b88:	48 83 ec 08          	sub    $0x8,%rsp
    1b8c:	48 83 c4 08          	add    $0x8,%rsp
    1b90:	c3                   	ret    
