
t_pwr_q7:     file format elf64-x86-64


Disassembly of section .init:

0000000000001000 <_init>:
    1000:	f3 0f 1e fa          	endbr64 
    1004:	48 83 ec 08          	sub    $0x8,%rsp
    1008:	48 8b 05 d9 2f 00 00 	mov    0x2fd9(%rip),%rax        # 3fe8 <__gmon_start__@Base>
    100f:	48 85 c0             	test   %rax,%rax
    1012:	74 02                	je     1016 <_init+0x16>
    1014:	ff d0                	call   *%rax
    1016:	48 83 c4 08          	add    $0x8,%rsp
    101a:	c3                   	ret    

Disassembly of section .plt:

0000000000001020 <.plt>:
    1020:	ff 35 5a 2f 00 00    	push   0x2f5a(%rip)        # 3f80 <_GLOBAL_OFFSET_TABLE_+0x8>
    1026:	f2 ff 25 5b 2f 00 00 	bnd jmp *0x2f5b(%rip)        # 3f88 <_GLOBAL_OFFSET_TABLE_+0x10>
    102d:	0f 1f 00             	nopl   (%rax)
    1030:	f3 0f 1e fa          	endbr64 
    1034:	68 00 00 00 00       	push   $0x0
    1039:	f2 e9 e1 ff ff ff    	bnd jmp 1020 <_init+0x20>
    103f:	90                   	nop
    1040:	f3 0f 1e fa          	endbr64 
    1044:	68 01 00 00 00       	push   $0x1
    1049:	f2 e9 d1 ff ff ff    	bnd jmp 1020 <_init+0x20>
    104f:	90                   	nop
    1050:	f3 0f 1e fa          	endbr64 
    1054:	68 02 00 00 00       	push   $0x2
    1059:	f2 e9 c1 ff ff ff    	bnd jmp 1020 <_init+0x20>
    105f:	90                   	nop
    1060:	f3 0f 1e fa          	endbr64 
    1064:	68 03 00 00 00       	push   $0x3
    1069:	f2 e9 b1 ff ff ff    	bnd jmp 1020 <_init+0x20>
    106f:	90                   	nop
    1070:	f3 0f 1e fa          	endbr64 
    1074:	68 04 00 00 00       	push   $0x4
    1079:	f2 e9 a1 ff ff ff    	bnd jmp 1020 <_init+0x20>
    107f:	90                   	nop
    1080:	f3 0f 1e fa          	endbr64 
    1084:	68 05 00 00 00       	push   $0x5
    1089:	f2 e9 91 ff ff ff    	bnd jmp 1020 <_init+0x20>
    108f:	90                   	nop
    1090:	f3 0f 1e fa          	endbr64 
    1094:	68 06 00 00 00       	push   $0x6
    1099:	f2 e9 81 ff ff ff    	bnd jmp 1020 <_init+0x20>
    109f:	90                   	nop
    10a0:	f3 0f 1e fa          	endbr64 
    10a4:	68 07 00 00 00       	push   $0x7
    10a9:	f2 e9 71 ff ff ff    	bnd jmp 1020 <_init+0x20>
    10af:	90                   	nop
    10b0:	f3 0f 1e fa          	endbr64 
    10b4:	68 08 00 00 00       	push   $0x8
    10b9:	f2 e9 61 ff ff ff    	bnd jmp 1020 <_init+0x20>
    10bf:	90                   	nop

Disassembly of section .plt.got:

00000000000010c0 <__cxa_finalize@plt>:
    10c0:	f3 0f 1e fa          	endbr64 
    10c4:	f2 ff 25 2d 2f 00 00 	bnd jmp *0x2f2d(%rip)        # 3ff8 <__cxa_finalize@GLIBC_2.2.5>
    10cb:	0f 1f 44 00 00       	nopl   0x0(%rax,%rax,1)

Disassembly of section .plt.sec:

00000000000010d0 <puts@plt>:
    10d0:	f3 0f 1e fa          	endbr64 
    10d4:	f2 ff 25 b5 2e 00 00 	bnd jmp *0x2eb5(%rip)        # 3f90 <puts@GLIBC_2.2.5>
    10db:	0f 1f 44 00 00       	nopl   0x0(%rax,%rax,1)

00000000000010e0 <fread@plt>:
    10e0:	f3 0f 1e fa          	endbr64 
    10e4:	f2 ff 25 ad 2e 00 00 	bnd jmp *0x2ead(%rip)        # 3f98 <fread@GLIBC_2.2.5>
    10eb:	0f 1f 44 00 00       	nopl   0x0(%rax,%rax,1)

00000000000010f0 <fclose@plt>:
    10f0:	f3 0f 1e fa          	endbr64 
    10f4:	f2 ff 25 a5 2e 00 00 	bnd jmp *0x2ea5(%rip)        # 3fa0 <fclose@GLIBC_2.2.5>
    10fb:	0f 1f 44 00 00       	nopl   0x0(%rax,%rax,1)

0000000000001100 <__stack_chk_fail@plt>:
    1100:	f3 0f 1e fa          	endbr64 
    1104:	f2 ff 25 9d 2e 00 00 	bnd jmp *0x2e9d(%rip)        # 3fa8 <__stack_chk_fail@GLIBC_2.4>
    110b:	0f 1f 44 00 00       	nopl   0x0(%rax,%rax,1)

0000000000001110 <log10f@plt>:
    1110:	f3 0f 1e fa          	endbr64 
    1114:	f2 ff 25 95 2e 00 00 	bnd jmp *0x2e95(%rip)        # 3fb0 <log10f@GLIBC_2.2.5>
    111b:	0f 1f 44 00 00       	nopl   0x0(%rax,%rax,1)

0000000000001120 <__printf_chk@plt>:
    1120:	f3 0f 1e fa          	endbr64 
    1124:	f2 ff 25 8d 2e 00 00 	bnd jmp *0x2e8d(%rip)        # 3fb8 <__printf_chk@GLIBC_2.3.4>
    112b:	0f 1f 44 00 00       	nopl   0x0(%rax,%rax,1)

0000000000001130 <fopen@plt>:
    1130:	f3 0f 1e fa          	endbr64 
    1134:	f2 ff 25 85 2e 00 00 	bnd jmp *0x2e85(%rip)        # 3fc0 <fopen@GLIBC_2.2.5>
    113b:	0f 1f 44 00 00       	nopl   0x0(%rax,%rax,1)

0000000000001140 <sqrt@plt>:
    1140:	f3 0f 1e fa          	endbr64 
    1144:	f2 ff 25 7d 2e 00 00 	bnd jmp *0x2e7d(%rip)        # 3fc8 <sqrt@GLIBC_2.2.5>
    114b:	0f 1f 44 00 00       	nopl   0x0(%rax,%rax,1)

0000000000001150 <__sprintf_chk@plt>:
    1150:	f3 0f 1e fa          	endbr64 
    1154:	f2 ff 25 75 2e 00 00 	bnd jmp *0x2e75(%rip)        # 3fd0 <__sprintf_chk@GLIBC_2.3.4>
    115b:	0f 1f 44 00 00       	nopl   0x0(%rax,%rax,1)

Disassembly of section .text:

0000000000001160 <main>:
    1160:	f3 0f 1e fa          	endbr64 
    1164:	41 57                	push   %r15
    1166:	be 01 00 00 00       	mov    $0x1,%esi
    116b:	4c 8d 05 96 0e 00 00 	lea    0xe96(%rip),%r8        # 2008 <_IO_stdin_used+0x8>
    1172:	48 8d 0d 29 0f 00 00 	lea    0xf29(%rip),%rcx        # 20a2 <_IO_stdin_used+0xa2>
    1179:	41 56                	push   %r14
    117b:	ba 00 02 00 00       	mov    $0x200,%edx
    1180:	41 55                	push   %r13
    1182:	4c 8d 2d 29 0f 00 00 	lea    0xf29(%rip),%r13        # 20b2 <_IO_stdin_used+0xb2>
    1189:	41 54                	push   %r12
    118b:	55                   	push   %rbp
    118c:	53                   	push   %rbx
    118d:	48 81 ec 28 03 00 00 	sub    $0x328,%rsp
    1194:	64 48 8b 04 25 28 00 	mov    %fs:0x28,%rax
    119b:	00 00 
    119d:	48 89 84 24 18 03 00 	mov    %rax,0x318(%rsp)
    11a4:	00 
    11a5:	31 c0                	xor    %eax,%eax
    11a7:	48 8d ac 24 10 01 00 	lea    0x110(%rsp),%rbp
    11ae:	00 
    11af:	48 89 ef             	mov    %rbp,%rdi
    11b2:	e8 99 ff ff ff       	call   1150 <__sprintf_chk@plt>
    11b7:	4c 89 ee             	mov    %r13,%rsi
    11ba:	48 89 ef             	mov    %rbp,%rdi
    11bd:	e8 6e ff ff ff       	call   1130 <fopen@plt>
    11c2:	48 85 c0             	test   %rax,%rax
    11c5:	0f 84 8b 03 00 00    	je     1556 <main+0x3f6>
    11cb:	ba 00 02 00 00       	mov    $0x200,%edx
    11d0:	be 01 00 00 00       	mov    $0x1,%esi
    11d5:	48 89 ef             	mov    %rbp,%rdi
    11d8:	49 89 c4             	mov    %rax,%r12
    11db:	4c 8d 05 26 0e 00 00 	lea    0xe26(%rip),%r8        # 2008 <_IO_stdin_used+0x8>
    11e2:	48 8d 0d cb 0e 00 00 	lea    0xecb(%rip),%rcx        # 20b4 <_IO_stdin_used+0xb4>
    11e9:	31 c0                	xor    %eax,%eax
    11eb:	e8 60 ff ff ff       	call   1150 <__sprintf_chk@plt>
    11f0:	4c 89 ee             	mov    %r13,%rsi
    11f3:	48 89 ef             	mov    %rbp,%rdi
    11f6:	e8 35 ff ff ff       	call   1130 <fopen@plt>
    11fb:	49 89 c7             	mov    %rax,%r15
    11fe:	48 85 c0             	test   %rax,%rax
    1201:	0f 84 4f 03 00 00    	je     1556 <main+0x3f6>
    1207:	4c 8d 6c 24 50       	lea    0x50(%rsp),%r13
    120c:	4c 8d 74 24 78       	lea    0x78(%rsp),%r14
    1211:	4c 89 eb             	mov    %r13,%rbx
    1214:	48 8d 6c 24 20       	lea    0x20(%rsp),%rbp
    1219:	0f 1f 80 00 00 00 00 	nopl   0x0(%rax)
    1220:	4c 89 e1             	mov    %r12,%rcx
    1223:	ba 23 00 00 00       	mov    $0x23,%edx
    1228:	be 01 00 00 00       	mov    $0x1,%esi
    122d:	48 89 ef             	mov    %rbp,%rdi
    1230:	e8 ab fe ff ff       	call   10e0 <fread@plt>
    1235:	be 23 00 00 00       	mov    $0x23,%esi
    123a:	48 89 ef             	mov    %rbp,%rdi
    123d:	48 83 c3 04          	add    $0x4,%rbx
    1241:	e8 2a 05 00 00       	call   1770 <riscv_dsp_pwr_q7>
    1246:	89 43 fc             	mov    %eax,-0x4(%rbx)
    1249:	49 39 de             	cmp    %rbx,%r14
    124c:	75 d2                	jne    1220 <main+0xc0>
    124e:	4c 8d b4 24 80 00 00 	lea    0x80(%rsp),%r14
    1255:	00 
    1256:	4c 89 f9             	mov    %r15,%rcx
    1259:	ba 0a 00 00 00       	mov    $0xa,%edx
    125e:	be 04 00 00 00       	mov    $0x4,%esi
    1263:	4c 89 f7             	mov    %r14,%rdi
    1266:	48 8d ac 24 b0 00 00 	lea    0xb0(%rsp),%rbp
    126d:	00 
    126e:	48 8d 9c 24 e0 00 00 	lea    0xe0(%rsp),%rbx
    1275:	00 
    1276:	e8 65 fe ff ff       	call   10e0 <fread@plt>
    127b:	8b b4 24 a4 00 00 00 	mov    0xa4(%rsp),%esi
    1282:	2b 74 24 74          	sub    0x74(%rsp),%esi
    1286:	bf 01 00 00 00       	mov    $0x1,%edi
    128b:	66 0f 6f 8c 24 90 00 	movdqa 0x90(%rsp),%xmm1
    1292:	00 00 
    1294:	66 0f fa 4c 24 60    	psubd  0x60(%rsp),%xmm1
    129a:	89 f2                	mov    %esi,%edx
    129c:	66 0f 6f 94 24 80 00 	movdqa 0x80(%rsp),%xmm2
    12a3:	00 00 
    12a5:	66 0f fa 54 24 50    	psubd  0x50(%rsp),%xmm2
    12ab:	66 0f 6f c1          	movdqa %xmm1,%xmm0
    12af:	8b 8c 24 a0 00 00 00 	mov    0xa0(%rsp),%ecx
    12b6:	2b 4c 24 70          	sub    0x70(%rsp),%ecx
    12ba:	f7 da                	neg    %edx
    12bc:	66 0f 72 e0 1f       	psrad  $0x1f,%xmm0
    12c1:	0f 48 d6             	cmovs  %esi,%edx
    12c4:	89 ce                	mov    %ecx,%esi
    12c6:	66 0f ef c8          	pxor   %xmm0,%xmm1
    12ca:	f7 de                	neg    %esi
    12cc:	66 0f fa c8          	psubd  %xmm0,%xmm1
    12d0:	66 0f 6f c2          	movdqa %xmm2,%xmm0
    12d4:	0f 49 ce             	cmovns %esi,%ecx
    12d7:	66 0f 72 e0 1f       	psrad  $0x1f,%xmm0
    12dc:	48 8d 35 e8 0d 00 00 	lea    0xde8(%rip),%rsi        # 20cb <_IO_stdin_used+0xcb>
    12e3:	66 0f ef d0          	pxor   %xmm0,%xmm2
    12e7:	39 ca                	cmp    %ecx,%edx
    12e9:	66 0f fa d0          	psubd  %xmm0,%xmm2
    12ed:	66 0f 6f c1          	movdqa %xmm1,%xmm0
    12f1:	0f 4c d1             	cmovl  %ecx,%edx
    12f4:	66 0f 66 c2          	pcmpgtd %xmm2,%xmm0
    12f8:	66 0f db c8          	pand   %xmm0,%xmm1
    12fc:	66 0f df c2          	pandn  %xmm2,%xmm0
    1300:	66 0f ef d2          	pxor   %xmm2,%xmm2
    1304:	66 0f eb c1          	por    %xmm1,%xmm0
    1308:	66 0f 6f c8          	movdqa %xmm0,%xmm1
    130c:	66 0f 66 ca          	pcmpgtd %xmm2,%xmm1
    1310:	66 0f db c1          	pand   %xmm1,%xmm0
    1314:	66 0f 6f d0          	movdqa %xmm0,%xmm2
    1318:	66 0f 73 da 08       	psrldq $0x8,%xmm2
    131d:	66 0f 6f ca          	movdqa %xmm2,%xmm1
    1321:	66 0f 66 c8          	pcmpgtd %xmm0,%xmm1
    1325:	66 0f db d1          	pand   %xmm1,%xmm2
    1329:	66 0f df c8          	pandn  %xmm0,%xmm1
    132d:	66 0f eb ca          	por    %xmm2,%xmm1
    1331:	66 0f 6f d1          	movdqa %xmm1,%xmm2
    1335:	66 0f 73 da 04       	psrldq $0x4,%xmm2
    133a:	66 0f 6f c2          	movdqa %xmm2,%xmm0
    133e:	66 0f 66 c1          	pcmpgtd %xmm1,%xmm0
    1342:	66 0f db d0          	pand   %xmm0,%xmm2
    1346:	66 0f df c1          	pandn  %xmm1,%xmm0
    134a:	66 0f eb c2          	por    %xmm2,%xmm0
    134e:	66 0f 7e c0          	movd   %xmm0,%eax
    1352:	39 c2                	cmp    %eax,%edx
    1354:	0f 4c d0             	cmovl  %eax,%edx
    1357:	31 c0                	xor    %eax,%eax
    1359:	e8 c2 fd ff ff       	call   1120 <__printf_chk@plt>
    135e:	4c 89 e7             	mov    %r12,%rdi
    1361:	e8 8a fd ff ff       	call   10f0 <fclose@plt>
    1366:	4c 89 ff             	mov    %r15,%rdi
    1369:	e8 82 fd ff ff       	call   10f0 <fclose@plt>
    136e:	ba 0a 00 00 00       	mov    $0xa,%edx
    1373:	48 89 ee             	mov    %rbp,%rsi
    1376:	4c 89 f7             	mov    %r14,%rdi
    1379:	e8 32 03 00 00       	call   16b0 <riscv_dsp_convert_q31_f32>
    137e:	ba 0a 00 00 00       	mov    $0xa,%edx
    1383:	48 89 de             	mov    %rbx,%rsi
    1386:	4c 89 ef             	mov    %r13,%rdi
    1389:	e8 22 03 00 00       	call   16b0 <riscv_dsp_convert_q31_f32>
    138e:	66 0f ef ed          	pxor   %xmm5,%xmm5
    1392:	66 0f ef ff          	pxor   %xmm7,%xmm7
    1396:	48 89 ea             	mov    %rbp,%rdx
    1399:	66 0f 28 f7          	movapd %xmm7,%xmm6
    139d:	0f 28 dd             	movaps %xmm5,%xmm3
    13a0:	0f 28 c5             	movaps %xmm5,%xmm0
    13a3:	48 89 d8             	mov    %rbx,%rax
    13a6:	44 0f 28 c5          	movaps %xmm5,%xmm8
    13aa:	44 0f 28 cd          	movaps %xmm5,%xmm9
    13ae:	f3 44 0f 10 15 49 0d 	movss  0xd49(%rip),%xmm10        # 2100 <_IO_stdin_used+0x100>
    13b5:	00 00 
    13b7:	48 8d 8c 24 08 01 00 	lea    0x108(%rsp),%rcx
    13be:	00 
    13bf:	90                   	nop
    13c0:	f3 0f 10 08          	movss  (%rax),%xmm1
    13c4:	48 83 c0 04          	add    $0x4,%rax
    13c8:	48 83 c2 04          	add    $0x4,%rdx
    13cc:	f3 0f 10 52 fc       	movss  -0x4(%rdx),%xmm2
    13d1:	66 0f 7e cf          	movd   %xmm1,%edi
    13d5:	81 ff 00 00 c0 7f    	cmp    $0x7fc00000,%edi
    13db:	0f 84 75 01 00 00    	je     1556 <main+0x3f6>
    13e1:	0f 28 e2             	movaps %xmm2,%xmm4
    13e4:	f3 0f 5c ca          	subss  %xmm2,%xmm1
    13e8:	f3 41 0f 5f e1       	maxss  %xmm9,%xmm4
    13ed:	44 0f 28 cc          	movaps %xmm4,%xmm9
    13f1:	0f 28 e2             	movaps %xmm2,%xmm4
    13f4:	f3 41 0f 5d e0       	minss  %xmm8,%xmm4
    13f9:	f3 0f 59 d2          	mulss  %xmm2,%xmm2
    13fd:	44 0f 28 c4          	movaps %xmm4,%xmm8
    1401:	0f 28 e1             	movaps %xmm1,%xmm4
    1404:	f3 0f 59 c9          	mulss  %xmm1,%xmm1
    1408:	41 0f 54 e2          	andps  %xmm10,%xmm4
    140c:	f3 0f 58 c4          	addss  %xmm4,%xmm0
    1410:	f3 0f 5f e3          	maxss  %xmm3,%xmm4
    1414:	f3 0f 5a d2          	cvtss2sd %xmm2,%xmm2
    1418:	f2 0f 58 fa          	addsd  %xmm2,%xmm7
    141c:	0f 28 dc             	movaps %xmm4,%xmm3
    141f:	f3 0f 5a c9          	cvtss2sd %xmm1,%xmm1
    1423:	f2 0f 58 f1          	addsd  %xmm1,%xmm6
    1427:	48 39 c8             	cmp    %rcx,%rax
    142a:	75 94                	jne    13c0 <main+0x260>
    142c:	66 48 0f 7e f0       	movq   %xmm6,%rax
    1431:	f3 44 0f 11 44 24 14 	movss  %xmm8,0x14(%rsp)
    1438:	f3 44 0f 11 4c 24 10 	movss  %xmm9,0x10(%rsp)
    143f:	f2 0f 11 7c 24 08    	movsd  %xmm7,0x8(%rsp)
    1445:	f3 0f 11 64 24 04    	movss  %xmm4,0x4(%rsp)
    144b:	3d 00 00 c0 7f       	cmp    $0x7fc00000,%eax
    1450:	0f 84 00 01 00 00    	je     1556 <main+0x3f6>
    1456:	f3 0f 5e 05 9a 0c 00 	divss  0xc9a(%rip),%xmm0        # 20f8 <_IO_stdin_used+0xf8>
    145d:	00 
    145e:	f2 0f 11 74 24 18    	movsd  %xmm6,0x18(%rsp)
    1464:	66 0f 7e c3          	movd   %xmm0,%ebx
    1468:	66 0f 28 c6          	movapd %xmm6,%xmm0
    146c:	f2 0f 5e 05 9c 0c 00 	divsd  0xc9c(%rip),%xmm0        # 2110 <_IO_stdin_used+0x110>
    1473:	00 
    1474:	e8 c7 fc ff ff       	call   1140 <sqrt@plt>
    1479:	f3 44 0f 10 4c 24 10 	movss  0x10(%rsp),%xmm9
    1480:	f3 44 0f 10 44 24 14 	movss  0x14(%rsp),%xmm8
    1487:	66 0f ef f6          	pxor   %xmm6,%xmm6
    148b:	f3 0f 10 5c 24 04    	movss  0x4(%rsp),%xmm3
    1491:	f2 0f 10 7c 24 08    	movsd  0x8(%rsp),%xmm7
    1497:	f2 0f 5a f0          	cvtsd2ss %xmm0,%xmm6
    149b:	41 0f 28 c1          	movaps %xmm9,%xmm0
    149f:	0f 28 ee             	movaps %xmm6,%xmm5
    14a2:	66 0f 7e f5          	movd   %xmm6,%ebp
    14a6:	f3 41 0f 5c c0       	subss  %xmm8,%xmm0
    14ab:	f2 0f 10 74 24 18    	movsd  0x18(%rsp),%xmm6
    14b1:	f3 0f 5e e8          	divss  %xmm0,%xmm5
    14b5:	66 41 0f 7e ec       	movd   %xmm5,%r12d
    14ba:	66 0f ef ed          	pxor   %xmm5,%xmm5
    14be:	66 0f 2e f5          	ucomisd %xmm5,%xmm6
    14c2:	0f 8a b6 00 00 00    	jp     157e <main+0x41e>
    14c8:	44 8b 2d 25 0c 00 00 	mov    0xc25(%rip),%r13d        # 20f4 <_IO_stdin_used+0xf4>
    14cf:	0f 85 a9 00 00 00    	jne    157e <main+0x41e>
    14d5:	48 8d 3d 02 0c 00 00 	lea    0xc02(%rip),%rdi        # 20de <_IO_stdin_used+0xde>
    14dc:	f3 0f 11 5c 24 04    	movss  %xmm3,0x4(%rsp)
    14e2:	e8 e9 fb ff ff       	call   10d0 <puts@plt>
    14e7:	f3 0f 10 5c 24 04    	movss  0x4(%rsp),%xmm3
    14ed:	66 0f 6e eb          	movd   %ebx,%xmm5
    14f1:	66 0f ef c0          	pxor   %xmm0,%xmm0
    14f5:	66 0f 6e f5          	movd   %ebp,%xmm6
    14f9:	f3 0f 5a c5          	cvtss2sd %xmm5,%xmm0
    14fd:	66 0f ef e4          	pxor   %xmm4,%xmm4
    1501:	66 0f ef d2          	pxor   %xmm2,%xmm2
    1505:	66 41 0f 6e fd       	movd   %r13d,%xmm7
    150a:	66 41 0f 6e ec       	movd   %r12d,%xmm5
    150f:	66 0f ef c9          	pxor   %xmm1,%xmm1
    1513:	bf 01 00 00 00       	mov    $0x1,%edi
    1518:	f3 0f 5a e7          	cvtss2sd %xmm7,%xmm4
    151c:	f3 0f 5a d5          	cvtss2sd %xmm5,%xmm2
    1520:	f3 0f 5a db          	cvtss2sd %xmm3,%xmm3
    1524:	f3 0f 5a ce          	cvtss2sd %xmm6,%xmm1
    1528:	48 8d 35 21 0b 00 00 	lea    0xb21(%rip),%rsi        # 2050 <_IO_stdin_used+0x50>
    152f:	b8 05 00 00 00       	mov    $0x5,%eax
    1534:	e8 e7 fb ff ff       	call   1120 <__printf_chk@plt>
    1539:	66 41 0f 6e fc       	movd   %r12d,%xmm7
    153e:	66 0f ef ed          	pxor   %xmm5,%xmm5
    1542:	31 c0                	xor    %eax,%eax
    1544:	0f 2e fd             	ucomiss %xmm5,%xmm7
    1547:	ba 01 00 00 00       	mov    $0x1,%edx
    154c:	0f 9a c0             	setp   %al
    154f:	0f 45 c2             	cmovne %edx,%eax
    1552:	f7 d8                	neg    %eax
    1554:	eb 03                	jmp    1559 <main+0x3f9>
    1556:	83 c8 ff             	or     $0xffffffff,%eax
    1559:	48 8b 94 24 18 03 00 	mov    0x318(%rsp),%rdx
    1560:	00 
    1561:	64 48 2b 14 25 28 00 	sub    %fs:0x28,%rdx
    1568:	00 00 
    156a:	75 41                	jne    15ad <main+0x44d>
    156c:	48 81 c4 28 03 00 00 	add    $0x328,%rsp
    1573:	5b                   	pop    %rbx
    1574:	5d                   	pop    %rbp
    1575:	41 5c                	pop    %r12
    1577:	41 5d                	pop    %r13
    1579:	41 5e                	pop    %r14
    157b:	41 5f                	pop    %r15
    157d:	c3                   	ret    
    157e:	f2 0f 5e fe          	divsd  %xmm6,%xmm7
    1582:	66 0f ef c0          	pxor   %xmm0,%xmm0
    1586:	f3 0f 11 5c 24 04    	movss  %xmm3,0x4(%rsp)
    158c:	f2 0f 5a c7          	cvtsd2ss %xmm7,%xmm0
    1590:	e8 7b fb ff ff       	call   1110 <log10f@plt>
    1595:	f3 0f 10 5c 24 04    	movss  0x4(%rsp),%xmm3
    159b:	f3 0f 59 05 55 0b 00 	mulss  0xb55(%rip),%xmm0        # 20f8 <_IO_stdin_used+0xf8>
    15a2:	00 
    15a3:	66 41 0f 7e c5       	movd   %xmm0,%r13d
    15a8:	e9 28 ff ff ff       	jmp    14d5 <main+0x375>
    15ad:	e8 4e fb ff ff       	call   1100 <__stack_chk_fail@plt>
    15b2:	66 2e 0f 1f 84 00 00 	cs nopw 0x0(%rax,%rax,1)
    15b9:	00 00 00 
    15bc:	0f 1f 40 00          	nopl   0x0(%rax)

00000000000015c0 <_start>:
    15c0:	f3 0f 1e fa          	endbr64 
    15c4:	31 ed                	xor    %ebp,%ebp
    15c6:	49 89 d1             	mov    %rdx,%r9
    15c9:	5e                   	pop    %rsi
    15ca:	48 89 e2             	mov    %rsp,%rdx
    15cd:	48 83 e4 f0          	and    $0xfffffffffffffff0,%rsp
    15d1:	50                   	push   %rax
    15d2:	54                   	push   %rsp
    15d3:	45 31 c0             	xor    %r8d,%r8d
    15d6:	31 c9                	xor    %ecx,%ecx
    15d8:	48 8d 3d 81 fb ff ff 	lea    -0x47f(%rip),%rdi        # 1160 <main>
    15df:	ff 15 f3 29 00 00    	call   *0x29f3(%rip)        # 3fd8 <__libc_start_main@GLIBC_2.34>
    15e5:	f4                   	hlt    
    15e6:	66 2e 0f 1f 84 00 00 	cs nopw 0x0(%rax,%rax,1)
    15ed:	00 00 00 

00000000000015f0 <deregister_tm_clones>:
    15f0:	48 8d 3d 19 2a 00 00 	lea    0x2a19(%rip),%rdi        # 4010 <__TMC_END__>
    15f7:	48 8d 05 12 2a 00 00 	lea    0x2a12(%rip),%rax        # 4010 <__TMC_END__>
    15fe:	48 39 f8             	cmp    %rdi,%rax
    1601:	74 15                	je     1618 <deregister_tm_clones+0x28>
    1603:	48 8b 05 d6 29 00 00 	mov    0x29d6(%rip),%rax        # 3fe0 <_ITM_deregisterTMCloneTable@Base>
    160a:	48 85 c0             	test   %rax,%rax
    160d:	74 09                	je     1618 <deregister_tm_clones+0x28>
    160f:	ff e0                	jmp    *%rax
    1611:	0f 1f 80 00 00 00 00 	nopl   0x0(%rax)
    1618:	c3                   	ret    
    1619:	0f 1f 80 00 00 00 00 	nopl   0x0(%rax)

0000000000001620 <register_tm_clones>:
    1620:	48 8d 3d e9 29 00 00 	lea    0x29e9(%rip),%rdi        # 4010 <__TMC_END__>
    1627:	48 8d 35 e2 29 00 00 	lea    0x29e2(%rip),%rsi        # 4010 <__TMC_END__>
    162e:	48 29 fe             	sub    %rdi,%rsi
    1631:	48 89 f0             	mov    %rsi,%rax
    1634:	48 c1 ee 3f          	shr    $0x3f,%rsi
    1638:	48 c1 f8 03          	sar    $0x3,%rax
    163c:	48 01 c6             	add    %rax,%rsi
    163f:	48 d1 fe             	sar    %rsi
    1642:	74 14                	je     1658 <register_tm_clones+0x38>
    1644:	48 8b 05 a5 29 00 00 	mov    0x29a5(%rip),%rax        # 3ff0 <_ITM_registerTMCloneTable@Base>
    164b:	48 85 c0             	test   %rax,%rax
    164e:	74 08                	je     1658 <register_tm_clones+0x38>
    1650:	ff e0                	jmp    *%rax
    1652:	66 0f 1f 44 00 00    	nopw   0x0(%rax,%rax,1)
    1658:	c3                   	ret    
    1659:	0f 1f 80 00 00 00 00 	nopl   0x0(%rax)

0000000000001660 <__do_global_dtors_aux>:
    1660:	f3 0f 1e fa          	endbr64 
    1664:	80 3d a5 29 00 00 00 	cmpb   $0x0,0x29a5(%rip)        # 4010 <__TMC_END__>
    166b:	75 2b                	jne    1698 <__do_global_dtors_aux+0x38>
    166d:	55                   	push   %rbp
    166e:	48 83 3d 82 29 00 00 	cmpq   $0x0,0x2982(%rip)        # 3ff8 <__cxa_finalize@GLIBC_2.2.5>
    1675:	00 
    1676:	48 89 e5             	mov    %rsp,%rbp
    1679:	74 0c                	je     1687 <__do_global_dtors_aux+0x27>
    167b:	48 8b 3d 86 29 00 00 	mov    0x2986(%rip),%rdi        # 4008 <__dso_handle>
    1682:	e8 39 fa ff ff       	call   10c0 <__cxa_finalize@plt>
    1687:	e8 64 ff ff ff       	call   15f0 <deregister_tm_clones>
    168c:	c6 05 7d 29 00 00 01 	movb   $0x1,0x297d(%rip)        # 4010 <__TMC_END__>
    1693:	5d                   	pop    %rbp
    1694:	c3                   	ret    
    1695:	0f 1f 00             	nopl   (%rax)
    1698:	c3                   	ret    
    1699:	0f 1f 80 00 00 00 00 	nopl   0x0(%rax)

00000000000016a0 <frame_dummy>:
    16a0:	f3 0f 1e fa          	endbr64 
    16a4:	e9 77 ff ff ff       	jmp    1620 <register_tm_clones>
    16a9:	0f 1f 80 00 00 00 00 	nopl   0x0(%rax)

00000000000016b0 <riscv_dsp_convert_q31_f32>:
    16b0:	f3 0f 1e fa          	endbr64 
    16b4:	48 89 f1             	mov    %rsi,%rcx
    16b7:	85 d2                	test   %edx,%edx
    16b9:	0f 84 97 00 00 00    	je     1756 <riscv_dsp_convert_q31_f32+0xa6>
    16bf:	8d 42 ff             	lea    -0x1(%rdx),%eax
    16c2:	83 f8 02             	cmp    $0x2,%eax
    16c5:	0f 86 96 00 00 00    	jbe    1761 <riscv_dsp_convert_q31_f32+0xb1>
    16cb:	89 d6                	mov    %edx,%esi
    16cd:	0f 28 0d 4c 0a 00 00 	movaps 0xa4c(%rip),%xmm1        # 2120 <_IO_stdin_used+0x120>
    16d4:	31 c0                	xor    %eax,%eax
    16d6:	c1 ee 02             	shr    $0x2,%esi
    16d9:	48 c1 e6 04          	shl    $0x4,%rsi
    16dd:	0f 1f 00             	nopl   (%rax)
    16e0:	f3 0f 6f 14 07       	movdqu (%rdi,%rax,1),%xmm2
    16e5:	0f 5b c2             	cvtdq2ps %xmm2,%xmm0
    16e8:	0f 59 c1             	mulps  %xmm1,%xmm0
    16eb:	0f 11 04 01          	movups %xmm0,(%rcx,%rax,1)
    16ef:	48 83 c0 10          	add    $0x10,%rax
    16f3:	48 39 f0             	cmp    %rsi,%rax
    16f6:	75 e8                	jne    16e0 <riscv_dsp_convert_q31_f32+0x30>
    16f8:	89 d6                	mov    %edx,%esi
    16fa:	83 e6 fc             	and    $0xfffffffc,%esi
    16fd:	89 f0                	mov    %esi,%eax
    16ff:	48 c1 e0 02          	shl    $0x2,%rax
    1703:	4c 8d 04 07          	lea    (%rdi,%rax,1),%r8
    1707:	48 01 c8             	add    %rcx,%rax
    170a:	39 f2                	cmp    %esi,%edx
    170c:	74 52                	je     1760 <riscv_dsp_convert_q31_f32+0xb0>
    170e:	29 f2                	sub    %esi,%edx
    1710:	83 fa 01             	cmp    $0x1,%edx
    1713:	74 2c                	je     1741 <riscv_dsp_convert_q31_f32+0x91>
    1715:	f3 0f 7e 0d 03 0a 00 	movq   0xa03(%rip),%xmm1        # 2120 <_IO_stdin_used+0x120>
    171c:	00 
    171d:	f3 0f 7e 04 b7       	movq   (%rdi,%rsi,4),%xmm0
    1722:	0f 5b c0             	cvtdq2ps %xmm0,%xmm0
    1725:	0f 59 c1             	mulps  %xmm1,%xmm0
    1728:	0f 13 04 b1          	movlps %xmm0,(%rcx,%rsi,4)
    172c:	89 d6                	mov    %edx,%esi
    172e:	83 e6 fe             	and    $0xfffffffe,%esi
    1731:	89 f1                	mov    %esi,%ecx
    1733:	48 c1 e1 02          	shl    $0x2,%rcx
    1737:	49 01 c8             	add    %rcx,%r8
    173a:	48 01 c8             	add    %rcx,%rax
    173d:	39 f2                	cmp    %esi,%edx
    173f:	74 15                	je     1756 <riscv_dsp_convert_q31_f32+0xa6>
    1741:	66 0f ef c0          	pxor   %xmm0,%xmm0
    1745:	f3 41 0f 2a 00       	cvtsi2ssl (%r8),%xmm0
    174a:	f3 0f 59 05 ce 09 00 	mulss  0x9ce(%rip),%xmm0        # 2120 <_IO_stdin_used+0x120>
    1751:	00 
    1752:	f3 0f 11 00          	movss  %xmm0,(%rax)
    1756:	c3                   	ret    
    1757:	66 0f 1f 84 00 00 00 	nopw   0x0(%rax,%rax,1)
    175e:	00 00 
    1760:	c3                   	ret    
    1761:	48 89 f0             	mov    %rsi,%rax
    1764:	49 89 f8             	mov    %rdi,%r8
    1767:	31 f6                	xor    %esi,%esi
    1769:	eb a3                	jmp    170e <riscv_dsp_convert_q31_f32+0x5e>
    176b:	0f 1f 44 00 00       	nopl   0x0(%rax,%rax,1)

0000000000001770 <riscv_dsp_pwr_q7>:
    1770:	f3 0f 1e fa          	endbr64 
    1774:	48 89 fa             	mov    %rdi,%rdx
    1777:	85 f6                	test   %esi,%esi
    1779:	0f 84 b1 01 00 00    	je     1930 <riscv_dsp_pwr_q7+0x1c0>
    177f:	8d 46 ff             	lea    -0x1(%rsi),%eax
    1782:	83 f8 0e             	cmp    $0xe,%eax
    1785:	0f 86 a8 01 00 00    	jbe    1933 <riscv_dsp_pwr_q7+0x1c3>
    178b:	89 f1                	mov    %esi,%ecx
    178d:	66 0f ef c9          	pxor   %xmm1,%xmm1
    1791:	66 0f ef ed          	pxor   %xmm5,%xmm5
    1795:	48 89 f8             	mov    %rdi,%rax
    1798:	c1 e9 04             	shr    $0x4,%ecx
    179b:	66 0f ef e4          	pxor   %xmm4,%xmm4
    179f:	83 e9 01             	sub    $0x1,%ecx
    17a2:	48 c1 e1 04          	shl    $0x4,%rcx
    17a6:	48 8d 4c 0f 10       	lea    0x10(%rdi,%rcx,1),%rcx
    17ab:	0f 1f 44 00 00       	nopl   0x0(%rax,%rax,1)
    17b0:	f3 0f 6f 00          	movdqu (%rax),%xmm0
    17b4:	66 0f 6f dd          	movdqa %xmm5,%xmm3
    17b8:	48 83 c0 10          	add    $0x10,%rax
    17bc:	66 0f 64 d8          	pcmpgtb %xmm0,%xmm3
    17c0:	66 0f 6f d0          	movdqa %xmm0,%xmm2
    17c4:	66 0f 60 d3          	punpcklbw %xmm3,%xmm2
    17c8:	66 0f 68 c3          	punpckhbw %xmm3,%xmm0
    17cc:	66 0f 6f dc          	movdqa %xmm4,%xmm3
    17d0:	66 0f d5 d2          	pmullw %xmm2,%xmm2
    17d4:	66 0f d5 c0          	pmullw %xmm0,%xmm0
    17d8:	66 0f 65 da          	pcmpgtw %xmm2,%xmm3
    17dc:	66 0f 6f f2          	movdqa %xmm2,%xmm6
    17e0:	66 0f 61 f3          	punpcklwd %xmm3,%xmm6
    17e4:	66 0f 69 d3          	punpckhwd %xmm3,%xmm2
    17e8:	66 0f 6f d8          	movdqa %xmm0,%xmm3
    17ec:	66 0f fe ce          	paddd  %xmm6,%xmm1
    17f0:	66 0f fe ca          	paddd  %xmm2,%xmm1
    17f4:	66 0f 6f d4          	movdqa %xmm4,%xmm2
    17f8:	66 0f 65 d0          	pcmpgtw %xmm0,%xmm2
    17fc:	66 0f 61 da          	punpcklwd %xmm2,%xmm3
    1800:	66 0f 69 c2          	punpckhwd %xmm2,%xmm0
    1804:	66 0f fe cb          	paddd  %xmm3,%xmm1
    1808:	66 0f fe c8          	paddd  %xmm0,%xmm1
    180c:	48 39 c8             	cmp    %rcx,%rax
    180f:	75 9f                	jne    17b0 <riscv_dsp_pwr_q7+0x40>
    1811:	66 0f 6f c1          	movdqa %xmm1,%xmm0
    1815:	89 f7                	mov    %esi,%edi
    1817:	66 0f 73 d8 08       	psrldq $0x8,%xmm0
    181c:	83 e7 f0             	and    $0xfffffff0,%edi
    181f:	66 0f fe c8          	paddd  %xmm0,%xmm1
    1823:	89 f9                	mov    %edi,%ecx
    1825:	66 0f 6f c1          	movdqa %xmm1,%xmm0
    1829:	48 01 ca             	add    %rcx,%rdx
    182c:	89 f1                	mov    %esi,%ecx
    182e:	66 0f 73 d8 04       	psrldq $0x4,%xmm0
    1833:	29 f9                	sub    %edi,%ecx
    1835:	66 0f fe c8          	paddd  %xmm0,%xmm1
    1839:	66 0f 7e c8          	movd   %xmm1,%eax
    183d:	39 fe                	cmp    %edi,%esi
    183f:	0f 84 f7 00 00 00    	je     193c <riscv_dsp_pwr_q7+0x1cc>
    1845:	0f be 32             	movsbl (%rdx),%esi
    1848:	0f af f6             	imul   %esi,%esi
    184b:	01 f0                	add    %esi,%eax
    184d:	83 f9 01             	cmp    $0x1,%ecx
    1850:	0f 84 dc 00 00 00    	je     1932 <riscv_dsp_pwr_q7+0x1c2>
    1856:	0f be 72 01          	movsbl 0x1(%rdx),%esi
    185a:	0f af f6             	imul   %esi,%esi
    185d:	01 f0                	add    %esi,%eax
    185f:	83 f9 02             	cmp    $0x2,%ecx
    1862:	0f 84 ca 00 00 00    	je     1932 <riscv_dsp_pwr_q7+0x1c2>
    1868:	0f be 72 02          	movsbl 0x2(%rdx),%esi
    186c:	0f af f6             	imul   %esi,%esi
    186f:	01 f0                	add    %esi,%eax
    1871:	83 f9 03             	cmp    $0x3,%ecx
    1874:	0f 84 b8 00 00 00    	je     1932 <riscv_dsp_pwr_q7+0x1c2>
    187a:	0f be 72 03          	movsbl 0x3(%rdx),%esi
    187e:	0f af f6             	imul   %esi,%esi
    1881:	01 f0                	add    %esi,%eax
    1883:	83 f9 04             	cmp    $0x4,%ecx
    1886:	0f 84 a6 00 00 00    	je     1932 <riscv_dsp_pwr_q7+0x1c2>
    188c:	0f be 72 04          	movsbl 0x4(%rdx),%esi
    1890:	0f af f6             	imul   %esi,%esi
    1893:	01 f0                	add    %esi,%eax
    1895:	83 f9 05             	cmp    $0x5,%ecx
    1898:	0f 84 94 00 00 00    	je     1932 <riscv_dsp_pwr_q7+0x1c2>
    189e:	0f be 72 05          	movsbl 0x5(%rdx),%esi
    18a2:	0f af f6             	imul   %esi,%esi
    18a5:	01 f0                	add    %esi,%eax
    18a7:	83 f9 06             	cmp    $0x6,%ecx
    18aa:	0f 84 82 00 00 00    	je     1932 <riscv_dsp_pwr_q7+0x1c2>
    18b0:	0f be 72 06          	movsbl 0x6(%rdx),%esi
    18b4:	0f af f6             	imul   %esi,%esi
    18b7:	01 f0                	add    %esi,%eax
    18b9:	83 f9 07             	cmp    $0x7,%ecx
    18bc:	74 74                	je     1932 <riscv_dsp_pwr_q7+0x1c2>
    18be:	0f be 72 07          	movsbl 0x7(%rdx),%esi
    18c2:	0f af f6             	imul   %esi,%esi
    18c5:	01 f0                	add    %esi,%eax
    18c7:	83 f9 08             	cmp    $0x8,%ecx
    18ca:	74 66                	je     1932 <riscv_dsp_pwr_q7+0x1c2>
    18cc:	0f be 72 08          	movsbl 0x8(%rdx),%esi
    18d0:	0f af f6             	imul   %esi,%esi
    18d3:	01 f0                	add    %esi,%eax
    18d5:	83 f9 09             	cmp    $0x9,%ecx
    18d8:	74 58                	je     1932 <riscv_dsp_pwr_q7+0x1c2>
    18da:	0f be 72 09          	movsbl 0x9(%rdx),%esi
    18de:	0f af f6             	imul   %esi,%esi
    18e1:	01 f0                	add    %esi,%eax
    18e3:	83 f9 0a             	cmp    $0xa,%ecx
    18e6:	74 4a                	je     1932 <riscv_dsp_pwr_q7+0x1c2>
    18e8:	0f be 72 0a          	movsbl 0xa(%rdx),%esi
    18ec:	0f af f6             	imul   %esi,%esi
    18ef:	01 f0                	add    %esi,%eax
    18f1:	83 f9 0b             	cmp    $0xb,%ecx
    18f4:	74 3c                	je     1932 <riscv_dsp_pwr_q7+0x1c2>
    18f6:	0f be 72 0b          	movsbl 0xb(%rdx),%esi
    18fa:	0f af f6             	imul   %esi,%esi
    18fd:	01 f0                	add    %esi,%eax
    18ff:	83 f9 0c             	cmp    $0xc,%ecx
    1902:	74 2e                	je     1932 <riscv_dsp_pwr_q7+0x1c2>
    1904:	0f be 72 0c          	movsbl 0xc(%rdx),%esi
    1908:	0f af f6             	imul   %esi,%esi
    190b:	01 f0                	add    %esi,%eax
    190d:	83 f9 0d             	cmp    $0xd,%ecx
    1910:	74 20                	je     1932 <riscv_dsp_pwr_q7+0x1c2>
    1912:	0f be 72 0d          	movsbl 0xd(%rdx),%esi
    1916:	0f af f6             	imul   %esi,%esi
    1919:	01 f0                	add    %esi,%eax
    191b:	83 f9 0e             	cmp    $0xe,%ecx
    191e:	74 12                	je     1932 <riscv_dsp_pwr_q7+0x1c2>
    1920:	0f be 52 0e          	movsbl 0xe(%rdx),%edx
    1924:	0f af d2             	imul   %edx,%edx
    1927:	01 d0                	add    %edx,%eax
    1929:	c3                   	ret    
    192a:	66 0f 1f 44 00 00    	nopw   0x0(%rax,%rax,1)
    1930:	31 c0                	xor    %eax,%eax
    1932:	c3                   	ret    
    1933:	89 f1                	mov    %esi,%ecx
    1935:	31 c0                	xor    %eax,%eax
    1937:	e9 09 ff ff ff       	jmp    1845 <riscv_dsp_pwr_q7+0xd5>
    193c:	c3                   	ret    

Disassembly of section .fini:

0000000000001940 <_fini>:
    1940:	f3 0f 1e fa          	endbr64 
    1944:	48 83 ec 08          	sub    $0x8,%rsp
    1948:	48 83 c4 08          	add    $0x8,%rsp
    194c:	c3                   	ret    
