
t_quaternion_product_f32:     file format elf64-x86-64


Disassembly of section .init:

0000000000001000 <_init>:
    1000:	f3 0f 1e fa          	endbr64 
    1004:	48 83 ec 08          	sub    $0x8,%rsp
    1008:	48 8b 05 d9 2f 00 00 	mov    0x2fd9(%rip),%rax        # 3fe8 <__gmon_start__@Base>
    100f:	48 85 c0             	test   %rax,%rax
    1012:	74 02                	je     1016 <_init+0x16>
    1014:	ff d0                	call   *%rax
    1016:	48 83 c4 08          	add    $0x8,%rsp
    101a:	c3                   	ret    

Disassembly of section .plt:

0000000000001020 <.plt>:
    1020:	ff 35 5a 2f 00 00    	push   0x2f5a(%rip)        # 3f80 <_GLOBAL_OFFSET_TABLE_+0x8>
    1026:	f2 ff 25 5b 2f 00 00 	bnd jmp *0x2f5b(%rip)        # 3f88 <_GLOBAL_OFFSET_TABLE_+0x10>
    102d:	0f 1f 00             	nopl   (%rax)
    1030:	f3 0f 1e fa          	endbr64 
    1034:	68 00 00 00 00       	push   $0x0
    1039:	f2 e9 e1 ff ff ff    	bnd jmp 1020 <_init+0x20>
    103f:	90                   	nop
    1040:	f3 0f 1e fa          	endbr64 
    1044:	68 01 00 00 00       	push   $0x1
    1049:	f2 e9 d1 ff ff ff    	bnd jmp 1020 <_init+0x20>
    104f:	90                   	nop
    1050:	f3 0f 1e fa          	endbr64 
    1054:	68 02 00 00 00       	push   $0x2
    1059:	f2 e9 c1 ff ff ff    	bnd jmp 1020 <_init+0x20>
    105f:	90                   	nop
    1060:	f3 0f 1e fa          	endbr64 
    1064:	68 03 00 00 00       	push   $0x3
    1069:	f2 e9 b1 ff ff ff    	bnd jmp 1020 <_init+0x20>
    106f:	90                   	nop
    1070:	f3 0f 1e fa          	endbr64 
    1074:	68 04 00 00 00       	push   $0x4
    1079:	f2 e9 a1 ff ff ff    	bnd jmp 1020 <_init+0x20>
    107f:	90                   	nop
    1080:	f3 0f 1e fa          	endbr64 
    1084:	68 05 00 00 00       	push   $0x5
    1089:	f2 e9 91 ff ff ff    	bnd jmp 1020 <_init+0x20>
    108f:	90                   	nop
    1090:	f3 0f 1e fa          	endbr64 
    1094:	68 06 00 00 00       	push   $0x6
    1099:	f2 e9 81 ff ff ff    	bnd jmp 1020 <_init+0x20>
    109f:	90                   	nop
    10a0:	f3 0f 1e fa          	endbr64 
    10a4:	68 07 00 00 00       	push   $0x7
    10a9:	f2 e9 71 ff ff ff    	bnd jmp 1020 <_init+0x20>
    10af:	90                   	nop
    10b0:	f3 0f 1e fa          	endbr64 
    10b4:	68 08 00 00 00       	push   $0x8
    10b9:	f2 e9 61 ff ff ff    	bnd jmp 1020 <_init+0x20>
    10bf:	90                   	nop

Disassembly of section .plt.got:

00000000000010c0 <__cxa_finalize@plt>:
    10c0:	f3 0f 1e fa          	endbr64 
    10c4:	f2 ff 25 2d 2f 00 00 	bnd jmp *0x2f2d(%rip)        # 3ff8 <__cxa_finalize@GLIBC_2.2.5>
    10cb:	0f 1f 44 00 00       	nopl   0x0(%rax,%rax,1)

Disassembly of section .plt.sec:

00000000000010d0 <puts@plt>:
    10d0:	f3 0f 1e fa          	endbr64 
    10d4:	f2 ff 25 b5 2e 00 00 	bnd jmp *0x2eb5(%rip)        # 3f90 <puts@GLIBC_2.2.5>
    10db:	0f 1f 44 00 00       	nopl   0x0(%rax,%rax,1)

00000000000010e0 <fread@plt>:
    10e0:	f3 0f 1e fa          	endbr64 
    10e4:	f2 ff 25 ad 2e 00 00 	bnd jmp *0x2ead(%rip)        # 3f98 <fread@GLIBC_2.2.5>
    10eb:	0f 1f 44 00 00       	nopl   0x0(%rax,%rax,1)

00000000000010f0 <fclose@plt>:
    10f0:	f3 0f 1e fa          	endbr64 
    10f4:	f2 ff 25 a5 2e 00 00 	bnd jmp *0x2ea5(%rip)        # 3fa0 <fclose@GLIBC_2.2.5>
    10fb:	0f 1f 44 00 00       	nopl   0x0(%rax,%rax,1)

0000000000001100 <__stack_chk_fail@plt>:
    1100:	f3 0f 1e fa          	endbr64 
    1104:	f2 ff 25 9d 2e 00 00 	bnd jmp *0x2e9d(%rip)        # 3fa8 <__stack_chk_fail@GLIBC_2.4>
    110b:	0f 1f 44 00 00       	nopl   0x0(%rax,%rax,1)

0000000000001110 <log10f@plt>:
    1110:	f3 0f 1e fa          	endbr64 
    1114:	f2 ff 25 95 2e 00 00 	bnd jmp *0x2e95(%rip)        # 3fb0 <log10f@GLIBC_2.2.5>
    111b:	0f 1f 44 00 00       	nopl   0x0(%rax,%rax,1)

0000000000001120 <__printf_chk@plt>:
    1120:	f3 0f 1e fa          	endbr64 
    1124:	f2 ff 25 8d 2e 00 00 	bnd jmp *0x2e8d(%rip)        # 3fb8 <__printf_chk@GLIBC_2.3.4>
    112b:	0f 1f 44 00 00       	nopl   0x0(%rax,%rax,1)

0000000000001130 <fopen@plt>:
    1130:	f3 0f 1e fa          	endbr64 
    1134:	f2 ff 25 85 2e 00 00 	bnd jmp *0x2e85(%rip)        # 3fc0 <fopen@GLIBC_2.2.5>
    113b:	0f 1f 44 00 00       	nopl   0x0(%rax,%rax,1)

0000000000001140 <sqrt@plt>:
    1140:	f3 0f 1e fa          	endbr64 
    1144:	f2 ff 25 7d 2e 00 00 	bnd jmp *0x2e7d(%rip)        # 3fc8 <sqrt@GLIBC_2.2.5>
    114b:	0f 1f 44 00 00       	nopl   0x0(%rax,%rax,1)

0000000000001150 <__sprintf_chk@plt>:
    1150:	f3 0f 1e fa          	endbr64 
    1154:	f2 ff 25 75 2e 00 00 	bnd jmp *0x2e75(%rip)        # 3fd0 <__sprintf_chk@GLIBC_2.3.4>
    115b:	0f 1f 44 00 00       	nopl   0x0(%rax,%rax,1)

Disassembly of section .text:

0000000000001160 <main>:
    1160:	f3 0f 1e fa          	endbr64 
    1164:	55                   	push   %rbp
    1165:	48 89 e5             	mov    %rsp,%rbp
    1168:	41 57                	push   %r15
    116a:	41 56                	push   %r14
    116c:	41 55                	push   %r13
    116e:	41 54                	push   %r12
    1170:	53                   	push   %rbx
    1171:	48 83 ec 38          	sub    $0x38,%rsp
    1175:	64 48 8b 04 25 28 00 	mov    %fs:0x28,%rax
    117c:	00 00 
    117e:	48 89 45 c8          	mov    %rax,-0x38(%rbp)
    1182:	31 c0                	xor    %eax,%eax
    1184:	48 8d 84 24 00 d0 ff 	lea    -0x3000(%rsp),%rax
    118b:	ff 
    118c:	48 89 e3             	mov    %rsp,%rbx
    118f:	48 39 c4             	cmp    %rax,%rsp
    1192:	74 15                	je     11a9 <main+0x49>
    1194:	48 81 ec 00 10 00 00 	sub    $0x1000,%rsp
    119b:	48 83 8c 24 f8 0f 00 	orq    $0x0,0xff8(%rsp)
    11a2:	00 00 
    11a4:	48 39 c4             	cmp    %rax,%rsp
    11a7:	75 eb                	jne    1194 <main+0x34>
    11a9:	48 81 ec 80 0e 00 00 	sub    $0xe80,%rsp
    11b0:	48 83 8c 24 78 0e 00 	orq    $0x0,0xe78(%rsp)
    11b7:	00 00 
    11b9:	49 89 e6             	mov    %rsp,%r14
    11bc:	48 8d 84 24 00 d0 ff 	lea    -0x3000(%rsp),%rax
    11c3:	ff 
    11c4:	48 39 c4             	cmp    %rax,%rsp
    11c7:	74 12                	je     11db <main+0x7b>
    11c9:	48 81 ec 00 10 00 00 	sub    $0x1000,%rsp
    11d0:	48 83 8c 24 f8 0f 00 	orq    $0x0,0xff8(%rsp)
    11d7:	00 00 
    11d9:	eb e9                	jmp    11c4 <main+0x64>
    11db:	48 81 ec 80 0e 00 00 	sub    $0xe80,%rsp
    11e2:	48 83 8c 24 78 0e 00 	orq    $0x0,0xe78(%rsp)
    11e9:	00 00 
    11eb:	49 89 e7             	mov    %rsp,%r15
    11ee:	48 8d 84 24 00 d0 ff 	lea    -0x3000(%rsp),%rax
    11f5:	ff 
    11f6:	48 39 c4             	cmp    %rax,%rsp
    11f9:	74 12                	je     120d <main+0xad>
    11fb:	48 81 ec 00 10 00 00 	sub    $0x1000,%rsp
    1202:	48 83 8c 24 f8 0f 00 	orq    $0x0,0xff8(%rsp)
    1209:	00 00 
    120b:	eb e9                	jmp    11f6 <main+0x96>
    120d:	48 81 ec 80 0e 00 00 	sub    $0xe80,%rsp
    1214:	48 83 8c 24 78 0e 00 	orq    $0x0,0xe78(%rsp)
    121b:	00 00 
    121d:	49 89 e5             	mov    %rsp,%r13
    1220:	48 8d 84 24 00 d0 ff 	lea    -0x3000(%rsp),%rax
    1227:	ff 
    1228:	48 39 c4             	cmp    %rax,%rsp
    122b:	74 12                	je     123f <main+0xdf>
    122d:	48 81 ec 00 10 00 00 	sub    $0x1000,%rsp
    1234:	48 83 8c 24 f8 0f 00 	orq    $0x0,0xff8(%rsp)
    123b:	00 00 
    123d:	eb e9                	jmp    1228 <main+0xc8>
    123f:	48 81 ec 80 0e 00 00 	sub    $0xe80,%rsp
    1246:	48 83 8c 24 78 0e 00 	orq    $0x0,0xe78(%rsp)
    124d:	00 00 
    124f:	48 8d 3d b5 0e 00 00 	lea    0xeb5(%rip),%rdi        # 210b <_IO_stdin_used+0x10b>
    1256:	4c 89 f6             	mov    %r14,%rsi
    1259:	49 89 e4             	mov    %rsp,%r12
    125c:	e8 5f 04 00 00       	call   16c0 <read_write_buffer.constprop.0>
    1261:	4c 89 fe             	mov    %r15,%rsi
    1264:	48 8d 3d a0 0e 00 00 	lea    0xea0(%rip),%rdi        # 210b <_IO_stdin_used+0x10b>
    126b:	e8 50 04 00 00       	call   16c0 <read_write_buffer.constprop.0>
    1270:	b9 e8 03 00 00       	mov    $0x3e8,%ecx
    1275:	4c 89 ea             	mov    %r13,%rdx
    1278:	4c 89 fe             	mov    %r15,%rsi
    127b:	4c 89 f7             	mov    %r14,%rdi
    127e:	e8 ad 04 00 00       	call   1730 <riscv_dsp_quaternion_product_f32>
    1283:	4c 89 e6             	mov    %r12,%rsi
    1286:	48 8d 3d bb 0d 00 00 	lea    0xdbb(%rip),%rdi        # 2048 <_IO_stdin_used+0x48>
    128d:	e8 2e 04 00 00       	call   16c0 <read_write_buffer.constprop.0>
    1292:	31 c0                	xor    %eax,%eax
    1294:	66 0f ef c0          	pxor   %xmm0,%xmm0
    1298:	f3 0f 10 2d d0 0e 00 	movss  0xed0(%rip),%xmm5        # 2170 <_IO_stdin_used+0x170>
    129f:	00 
    12a0:	f3 41 0f 10 4c 05 00 	movss  0x0(%r13,%rax,1),%xmm1
    12a7:	f3 41 0f 5c 0c 04    	subss  (%r12,%rax,1),%xmm1
    12ad:	48 83 c0 04          	add    $0x4,%rax
    12b1:	0f 54 cd             	andps  %xmm5,%xmm1
    12b4:	f3 0f 5f c8          	maxss  %xmm0,%xmm1
    12b8:	0f 28 c1             	movaps %xmm1,%xmm0
    12bb:	48 3d 80 3e 00 00    	cmp    $0x3e80,%rax
    12c1:	75 dd                	jne    12a0 <main+0x140>
    12c3:	66 0f ef c0          	pxor   %xmm0,%xmm0
    12c7:	bf 01 00 00 00       	mov    $0x1,%edi
    12cc:	b8 01 00 00 00       	mov    $0x1,%eax
    12d1:	48 8d 35 41 0e 00 00 	lea    0xe41(%rip),%rsi        # 2119 <_IO_stdin_used+0x119>
    12d8:	f3 0f 5a c1          	cvtss2sd %xmm1,%xmm0
    12dc:	e8 3f fe ff ff       	call   1120 <__printf_chk@plt>
    12e1:	66 0f ef db          	pxor   %xmm3,%xmm3
    12e5:	66 45 0f ef c0       	pxor   %xmm8,%xmm8
    12ea:	31 c0                	xor    %eax,%eax
    12ec:	66 41 0f 28 f0       	movapd %xmm8,%xmm6
    12f1:	0f 28 c3             	movaps %xmm3,%xmm0
    12f4:	44 0f 28 cb          	movaps %xmm3,%xmm9
    12f8:	0f 28 fb             	movaps %xmm3,%xmm7
    12fb:	f3 0f 10 2d 6d 0e 00 	movss  0xe6d(%rip),%xmm5        # 2170 <_IO_stdin_used+0x170>
    1302:	00 
    1303:	0f 1f 44 00 00       	nopl   0x0(%rax,%rax,1)
    1308:	f3 41 0f 10 4c 05 00 	movss  0x0(%r13,%rax,1),%xmm1
    130f:	f3 41 0f 10 14 04    	movss  (%r12,%rax,1),%xmm2
    1315:	66 0f 7e c9          	movd   %xmm1,%ecx
    1319:	81 f9 00 00 c0 7f    	cmp    $0x7fc00000,%ecx
    131f:	0f 84 63 01 00 00    	je     1488 <main+0x328>
    1325:	0f 28 e2             	movaps %xmm2,%xmm4
    1328:	f3 0f 5c ca          	subss  %xmm2,%xmm1
    132c:	48 83 c0 04          	add    $0x4,%rax
    1330:	f3 0f 5f e7          	maxss  %xmm7,%xmm4
    1334:	0f 28 fc             	movaps %xmm4,%xmm7
    1337:	0f 28 e2             	movaps %xmm2,%xmm4
    133a:	f3 41 0f 5d e1       	minss  %xmm9,%xmm4
    133f:	f3 0f 59 d2          	mulss  %xmm2,%xmm2
    1343:	44 0f 28 cc          	movaps %xmm4,%xmm9
    1347:	0f 28 e1             	movaps %xmm1,%xmm4
    134a:	f3 0f 59 c9          	mulss  %xmm1,%xmm1
    134e:	0f 54 e5             	andps  %xmm5,%xmm4
    1351:	f3 0f 58 c4          	addss  %xmm4,%xmm0
    1355:	f3 0f 5f e3          	maxss  %xmm3,%xmm4
    1359:	f3 0f 5a d2          	cvtss2sd %xmm2,%xmm2
    135d:	f2 44 0f 58 c2       	addsd  %xmm2,%xmm8
    1362:	0f 28 dc             	movaps %xmm4,%xmm3
    1365:	f3 0f 5a c9          	cvtss2sd %xmm1,%xmm1
    1369:	f2 0f 58 f1          	addsd  %xmm1,%xmm6
    136d:	48 3d 80 3e 00 00    	cmp    $0x3e80,%rax
    1373:	75 93                	jne    1308 <main+0x1a8>
    1375:	66 48 0f 7e f0       	movq   %xmm6,%rax
    137a:	f3 0f 11 65 ac       	movss  %xmm4,-0x54(%rbp)
    137f:	f3 44 0f 11 4d b0    	movss  %xmm9,-0x50(%rbp)
    1385:	f3 0f 11 7d b4       	movss  %xmm7,-0x4c(%rbp)
    138a:	f2 44 0f 11 45 b8    	movsd  %xmm8,-0x48(%rbp)
    1390:	3d 00 00 c0 7f       	cmp    $0x7fc00000,%eax
    1395:	0f 84 ed 00 00 00    	je     1488 <main+0x328>
    139b:	f3 0f 5e 05 b9 0d 00 	divss  0xdb9(%rip),%xmm0        # 215c <_IO_stdin_used+0x15c>
    13a2:	00 
    13a3:	f2 0f 11 75 a0       	movsd  %xmm6,-0x60(%rbp)
    13a8:	66 41 0f 7e c4       	movd   %xmm0,%r12d
    13ad:	66 0f 28 c6          	movapd %xmm6,%xmm0
    13b1:	f2 0f 5e 05 c7 0d 00 	divsd  0xdc7(%rip),%xmm0        # 2180 <_IO_stdin_used+0x180>
    13b8:	00 
    13b9:	e8 82 fd ff ff       	call   1140 <sqrt@plt>
    13be:	f3 0f 10 7d b4       	movss  -0x4c(%rbp),%xmm7
    13c3:	f3 44 0f 10 4d b0    	movss  -0x50(%rbp),%xmm9
    13c9:	66 0f ef c9          	pxor   %xmm1,%xmm1
    13cd:	66 0f ef ed          	pxor   %xmm5,%xmm5
    13d1:	f2 44 0f 10 45 b8    	movsd  -0x48(%rbp),%xmm8
    13d7:	f3 0f 10 5d ac       	movss  -0x54(%rbp),%xmm3
    13dc:	f3 41 0f 5c f9       	subss  %xmm9,%xmm7
    13e1:	f2 0f 5a c8          	cvtsd2ss %xmm0,%xmm1
    13e5:	0f 28 f1             	movaps %xmm1,%xmm6
    13e8:	f3 0f 5e f7          	divss  %xmm7,%xmm6
    13ec:	66 41 0f 7e f5       	movd   %xmm6,%r13d
    13f1:	f2 0f 10 75 a0       	movsd  -0x60(%rbp),%xmm6
    13f6:	66 0f 2e f5          	ucomisd %xmm5,%xmm6
    13fa:	0f 8a c5 00 00 00    	jp     14c5 <main+0x365>
    1400:	f3 0f 10 25 50 0d 00 	movss  0xd50(%rip),%xmm4        # 2158 <_IO_stdin_used+0x158>
    1407:	00 
    1408:	0f 85 b7 00 00 00    	jne    14c5 <main+0x365>
    140e:	48 8d 3d 17 0d 00 00 	lea    0xd17(%rip),%rdi        # 212c <_IO_stdin_used+0x12c>
    1415:	f3 0f 11 5d b0       	movss  %xmm3,-0x50(%rbp)
    141a:	f3 0f 11 65 b8       	movss  %xmm4,-0x48(%rbp)
    141f:	f3 0f 11 4d b4       	movss  %xmm1,-0x4c(%rbp)
    1424:	e8 a7 fc ff ff       	call   10d0 <puts@plt>
    1429:	f3 0f 10 65 b8       	movss  -0x48(%rbp),%xmm4
    142e:	f3 0f 10 5d b0       	movss  -0x50(%rbp),%xmm3
    1433:	66 41 0f 6e f5       	movd   %r13d,%xmm6
    1438:	f3 0f 10 4d b4       	movss  -0x4c(%rbp),%xmm1
    143d:	66 0f ef d2          	pxor   %xmm2,%xmm2
    1441:	66 0f ef c0          	pxor   %xmm0,%xmm0
    1445:	48 8d 35 24 0c 00 00 	lea    0xc24(%rip),%rsi        # 2070 <_IO_stdin_used+0x70>
    144c:	f3 0f 5a d6          	cvtss2sd %xmm6,%xmm2
    1450:	bf 01 00 00 00       	mov    $0x1,%edi
    1455:	f3 0f 5a e4          	cvtss2sd %xmm4,%xmm4
    1459:	f3 0f 5a db          	cvtss2sd %xmm3,%xmm3
    145d:	66 41 0f 6e f4       	movd   %r12d,%xmm6
    1462:	b8 05 00 00 00       	mov    $0x5,%eax
    1467:	f2 0f 11 55 b8       	movsd  %xmm2,-0x48(%rbp)
    146c:	f3 0f 5a c9          	cvtss2sd %xmm1,%xmm1
    1470:	f3 0f 5a c6          	cvtss2sd %xmm6,%xmm0
    1474:	e8 a7 fc ff ff       	call   1120 <__printf_chk@plt>
    1479:	f2 0f 10 55 b8       	movsd  -0x48(%rbp),%xmm2
    147e:	66 0f 2f 15 02 0d 00 	comisd 0xd02(%rip),%xmm2        # 2188 <_IO_stdin_used+0x188>
    1485:	00 
    1486:	77 74                	ja     14fc <main+0x39c>
    1488:	48 8d 15 39 0c 00 00 	lea    0xc39(%rip),%rdx        # 20c8 <_IO_stdin_used+0xc8>
    148f:	48 8d 35 b6 0c 00 00 	lea    0xcb6(%rip),%rsi        # 214c <_IO_stdin_used+0x14c>
    1496:	bf 01 00 00 00       	mov    $0x1,%edi
    149b:	31 c0                	xor    %eax,%eax
    149d:	e8 7e fc ff ff       	call   1120 <__printf_chk@plt>
    14a2:	31 c0                	xor    %eax,%eax
    14a4:	48 89 dc             	mov    %rbx,%rsp
    14a7:	48 8b 55 c8          	mov    -0x38(%rbp),%rdx
    14ab:	64 48 2b 14 25 28 00 	sub    %fs:0x28,%rdx
    14b2:	00 00 
    14b4:	75 68                	jne    151e <main+0x3be>
    14b6:	48 8d 65 d8          	lea    -0x28(%rbp),%rsp
    14ba:	5b                   	pop    %rbx
    14bb:	41 5c                	pop    %r12
    14bd:	41 5d                	pop    %r13
    14bf:	41 5e                	pop    %r14
    14c1:	41 5f                	pop    %r15
    14c3:	5d                   	pop    %rbp
    14c4:	c3                   	ret    
    14c5:	f2 44 0f 5e c6       	divsd  %xmm6,%xmm8
    14ca:	66 0f ef c0          	pxor   %xmm0,%xmm0
    14ce:	f3 0f 11 5d b4       	movss  %xmm3,-0x4c(%rbp)
    14d3:	f3 0f 11 4d b8       	movss  %xmm1,-0x48(%rbp)
    14d8:	f2 41 0f 5a c0       	cvtsd2ss %xmm8,%xmm0
    14dd:	e8 2e fc ff ff       	call   1110 <log10f@plt>
    14e2:	f3 0f 10 5d b4       	movss  -0x4c(%rbp),%xmm3
    14e7:	f3 0f 59 05 71 0c 00 	mulss  0xc71(%rip),%xmm0        # 2160 <_IO_stdin_used+0x160>
    14ee:	00 
    14ef:	f3 0f 10 4d b8       	movss  -0x48(%rbp),%xmm1
    14f4:	0f 28 e0             	movaps %xmm0,%xmm4
    14f7:	e9 12 ff ff ff       	jmp    140e <main+0x2ae>
    14fc:	48 8d 15 c5 0b 00 00 	lea    0xbc5(%rip),%rdx        # 20c8 <_IO_stdin_used+0xc8>
    1503:	48 8d 35 37 0c 00 00 	lea    0xc37(%rip),%rsi        # 2141 <_IO_stdin_used+0x141>
    150a:	bf 01 00 00 00       	mov    $0x1,%edi
    150f:	31 c0                	xor    %eax,%eax
    1511:	e8 0a fc ff ff       	call   1120 <__printf_chk@plt>
    1516:	83 c8 ff             	or     $0xffffffff,%eax
    1519:	48 89 dc             	mov    %rbx,%rsp
    151c:	eb 89                	jmp    14a7 <main+0x347>
    151e:	e8 dd fb ff ff       	call   1100 <__stack_chk_fail@plt>
    1523:	66 2e 0f 1f 84 00 00 	cs nopw 0x0(%rax,%rax,1)
    152a:	00 00 00 
    152d:	0f 1f 00             	nopl   (%rax)

0000000000001530 <_start>:
    1530:	f3 0f 1e fa          	endbr64 
    1534:	31 ed                	xor    %ebp,%ebp
    1536:	49 89 d1             	mov    %rdx,%r9
    1539:	5e                   	pop    %rsi
    153a:	48 89 e2             	mov    %rsp,%rdx
    153d:	48 83 e4 f0          	and    $0xfffffffffffffff0,%rsp
    1541:	50                   	push   %rax
    1542:	54                   	push   %rsp
    1543:	45 31 c0             	xor    %r8d,%r8d
    1546:	31 c9                	xor    %ecx,%ecx
    1548:	48 8d 3d 11 fc ff ff 	lea    -0x3ef(%rip),%rdi        # 1160 <main>
    154f:	ff 15 83 2a 00 00    	call   *0x2a83(%rip)        # 3fd8 <__libc_start_main@GLIBC_2.34>
    1555:	f4                   	hlt    
    1556:	66 2e 0f 1f 84 00 00 	cs nopw 0x0(%rax,%rax,1)
    155d:	00 00 00 

0000000000001560 <deregister_tm_clones>:
    1560:	48 8d 3d a9 2a 00 00 	lea    0x2aa9(%rip),%rdi        # 4010 <__TMC_END__>
    1567:	48 8d 05 a2 2a 00 00 	lea    0x2aa2(%rip),%rax        # 4010 <__TMC_END__>
    156e:	48 39 f8             	cmp    %rdi,%rax
    1571:	74 15                	je     1588 <deregister_tm_clones+0x28>
    1573:	48 8b 05 66 2a 00 00 	mov    0x2a66(%rip),%rax        # 3fe0 <_ITM_deregisterTMCloneTable@Base>
    157a:	48 85 c0             	test   %rax,%rax
    157d:	74 09                	je     1588 <deregister_tm_clones+0x28>
    157f:	ff e0                	jmp    *%rax
    1581:	0f 1f 80 00 00 00 00 	nopl   0x0(%rax)
    1588:	c3                   	ret    
    1589:	0f 1f 80 00 00 00 00 	nopl   0x0(%rax)

0000000000001590 <register_tm_clones>:
    1590:	48 8d 3d 79 2a 00 00 	lea    0x2a79(%rip),%rdi        # 4010 <__TMC_END__>
    1597:	48 8d 35 72 2a 00 00 	lea    0x2a72(%rip),%rsi        # 4010 <__TMC_END__>
    159e:	48 29 fe             	sub    %rdi,%rsi
    15a1:	48 89 f0             	mov    %rsi,%rax
    15a4:	48 c1 ee 3f          	shr    $0x3f,%rsi
    15a8:	48 c1 f8 03          	sar    $0x3,%rax
    15ac:	48 01 c6             	add    %rax,%rsi
    15af:	48 d1 fe             	sar    %rsi
    15b2:	74 14                	je     15c8 <register_tm_clones+0x38>
    15b4:	48 8b 05 35 2a 00 00 	mov    0x2a35(%rip),%rax        # 3ff0 <_ITM_registerTMCloneTable@Base>
    15bb:	48 85 c0             	test   %rax,%rax
    15be:	74 08                	je     15c8 <register_tm_clones+0x38>
    15c0:	ff e0                	jmp    *%rax
    15c2:	66 0f 1f 44 00 00    	nopw   0x0(%rax,%rax,1)
    15c8:	c3                   	ret    
    15c9:	0f 1f 80 00 00 00 00 	nopl   0x0(%rax)

00000000000015d0 <__do_global_dtors_aux>:
    15d0:	f3 0f 1e fa          	endbr64 
    15d4:	80 3d 35 2a 00 00 00 	cmpb   $0x0,0x2a35(%rip)        # 4010 <__TMC_END__>
    15db:	75 2b                	jne    1608 <__do_global_dtors_aux+0x38>
    15dd:	55                   	push   %rbp
    15de:	48 83 3d 12 2a 00 00 	cmpq   $0x0,0x2a12(%rip)        # 3ff8 <__cxa_finalize@GLIBC_2.2.5>
    15e5:	00 
    15e6:	48 89 e5             	mov    %rsp,%rbp
    15e9:	74 0c                	je     15f7 <__do_global_dtors_aux+0x27>
    15eb:	48 8b 3d 16 2a 00 00 	mov    0x2a16(%rip),%rdi        # 4008 <__dso_handle>
    15f2:	e8 c9 fa ff ff       	call   10c0 <__cxa_finalize@plt>
    15f7:	e8 64 ff ff ff       	call   1560 <deregister_tm_clones>
    15fc:	c6 05 0d 2a 00 00 01 	movb   $0x1,0x2a0d(%rip)        # 4010 <__TMC_END__>
    1603:	5d                   	pop    %rbp
    1604:	c3                   	ret    
    1605:	0f 1f 00             	nopl   (%rax)
    1608:	c3                   	ret    
    1609:	0f 1f 80 00 00 00 00 	nopl   0x0(%rax)

0000000000001610 <frame_dummy>:
    1610:	f3 0f 1e fa          	endbr64 
    1614:	e9 77 ff ff ff       	jmp    1590 <register_tm_clones>
    1619:	0f 1f 80 00 00 00 00 	nopl   0x0(%rax)

0000000000001620 <test_Fopen.constprop.0.isra.0>:
    1620:	41 54                	push   %r12
    1622:	49 89 f9             	mov    %rdi,%r9
    1625:	49 89 fc             	mov    %rdi,%r12
    1628:	4c 8d 05 d9 09 00 00 	lea    0x9d9(%rip),%r8        # 2008 <_IO_stdin_used+0x8>
    162f:	55                   	push   %rbp
    1630:	48 8d 0d b2 0a 00 00 	lea    0xab2(%rip),%rcx        # 20e9 <_IO_stdin_used+0xe9>
    1637:	ba 00 04 00 00       	mov    $0x400,%edx
    163c:	53                   	push   %rbx
    163d:	48 89 f3             	mov    %rsi,%rbx
    1640:	be 01 00 00 00       	mov    $0x1,%esi
    1645:	48 81 ec 10 04 00 00 	sub    $0x410,%rsp
    164c:	64 48 8b 04 25 28 00 	mov    %fs:0x28,%rax
    1653:	00 00 
    1655:	48 89 84 24 08 04 00 	mov    %rax,0x408(%rsp)
    165c:	00 
    165d:	31 c0                	xor    %eax,%eax
    165f:	48 89 e5             	mov    %rsp,%rbp
    1662:	48 89 ef             	mov    %rbp,%rdi
    1665:	e8 e6 fa ff ff       	call   1150 <__sprintf_chk@plt>
    166a:	48 8d 35 7e 0a 00 00 	lea    0xa7e(%rip),%rsi        # 20ef <_IO_stdin_used+0xef>
    1671:	48 89 ef             	mov    %rbp,%rdi
    1674:	e8 b7 fa ff ff       	call   1130 <fopen@plt>
    1679:	48 89 03             	mov    %rax,(%rbx)
    167c:	48 85 c0             	test   %rax,%rax
    167f:	74 1f                	je     16a0 <test_Fopen.constprop.0.isra.0+0x80>
    1681:	48 8b 84 24 08 04 00 	mov    0x408(%rsp),%rax
    1688:	00 
    1689:	64 48 2b 04 25 28 00 	sub    %fs:0x28,%rax
    1690:	00 00 
    1692:	75 22                	jne    16b6 <test_Fopen.constprop.0.isra.0+0x96>
    1694:	48 81 c4 10 04 00 00 	add    $0x410,%rsp
    169b:	5b                   	pop    %rbx
    169c:	5d                   	pop    %rbp
    169d:	41 5c                	pop    %r12
    169f:	c3                   	ret    
    16a0:	4c 89 e2             	mov    %r12,%rdx
    16a3:	48 8d 35 48 0a 00 00 	lea    0xa48(%rip),%rsi        # 20f2 <_IO_stdin_used+0xf2>
    16aa:	bf 01 00 00 00       	mov    $0x1,%edi
    16af:	e8 6c fa ff ff       	call   1120 <__printf_chk@plt>
    16b4:	eb cb                	jmp    1681 <test_Fopen.constprop.0.isra.0+0x61>
    16b6:	e8 45 fa ff ff       	call   1100 <__stack_chk_fail@plt>
    16bb:	0f 1f 44 00 00       	nopl   0x0(%rax,%rax,1)

00000000000016c0 <read_write_buffer.constprop.0>:
    16c0:	41 54                	push   %r12
    16c2:	55                   	push   %rbp
    16c3:	48 89 f5             	mov    %rsi,%rbp
    16c6:	48 83 ec 18          	sub    $0x18,%rsp
    16ca:	64 48 8b 04 25 28 00 	mov    %fs:0x28,%rax
    16d1:	00 00 
    16d3:	48 89 44 24 08       	mov    %rax,0x8(%rsp)
    16d8:	31 c0                	xor    %eax,%eax
    16da:	48 89 e6             	mov    %rsp,%rsi
    16dd:	48 c7 04 24 00 00 00 	movq   $0x0,(%rsp)
    16e4:	00 
    16e5:	e8 36 ff ff ff       	call   1620 <test_Fopen.constprop.0.isra.0>
    16ea:	4c 8b 24 24          	mov    (%rsp),%r12
    16ee:	ba a0 0f 00 00       	mov    $0xfa0,%edx
    16f3:	48 89 ef             	mov    %rbp,%rdi
    16f6:	be 04 00 00 00       	mov    $0x4,%esi
    16fb:	4c 89 e1             	mov    %r12,%rcx
    16fe:	e8 dd f9 ff ff       	call   10e0 <fread@plt>
    1703:	48 8b 44 24 08       	mov    0x8(%rsp),%rax
    1708:	64 48 2b 04 25 28 00 	sub    %fs:0x28,%rax
    170f:	00 00 
    1711:	75 0f                	jne    1722 <read_write_buffer.constprop.0+0x62>
    1713:	48 83 c4 18          	add    $0x18,%rsp
    1717:	4c 89 e7             	mov    %r12,%rdi
    171a:	5d                   	pop    %rbp
    171b:	41 5c                	pop    %r12
    171d:	e9 ce f9 ff ff       	jmp    10f0 <fclose@plt>
    1722:	e8 d9 f9 ff ff       	call   1100 <__stack_chk_fail@plt>
    1727:	66 0f 1f 84 00 00 00 	nopw   0x0(%rax,%rax,1)
    172e:	00 00 

0000000000001730 <riscv_dsp_quaternion_product_f32>:
    1730:	f3 0f 1e fa          	endbr64 
    1734:	85 c9                	test   %ecx,%ecx
    1736:	74 50                	je     1788 <riscv_dsp_quaternion_product_f32+0x58>
    1738:	41 55                	push   %r13
    173a:	89 c9                	mov    %ecx,%ecx
    173c:	41 54                	push   %r12
    173e:	48 c1 e1 04          	shl    $0x4,%rcx
    1742:	49 89 d4             	mov    %rdx,%r12
    1745:	55                   	push   %rbp
    1746:	4c 8d 2c 0f          	lea    (%rdi,%rcx,1),%r13
    174a:	48 89 f5             	mov    %rsi,%rbp
    174d:	53                   	push   %rbx
    174e:	48 89 fb             	mov    %rdi,%rbx
    1751:	48 83 ec 08          	sub    $0x8,%rsp
    1755:	0f 1f 00             	nopl   (%rax)
    1758:	4c 89 e2             	mov    %r12,%rdx
    175b:	48 89 ee             	mov    %rbp,%rsi
    175e:	48 89 df             	mov    %rbx,%rdi
    1761:	48 83 c3 10          	add    $0x10,%rbx
    1765:	e8 26 00 00 00       	call   1790 <riscv_dsp_quaternion_product_single_f32>
    176a:	48 83 c5 10          	add    $0x10,%rbp
    176e:	49 83 c4 10          	add    $0x10,%r12
    1772:	49 39 dd             	cmp    %rbx,%r13
    1775:	75 e1                	jne    1758 <riscv_dsp_quaternion_product_f32+0x28>
    1777:	48 83 c4 08          	add    $0x8,%rsp
    177b:	5b                   	pop    %rbx
    177c:	5d                   	pop    %rbp
    177d:	41 5c                	pop    %r12
    177f:	41 5d                	pop    %r13
    1781:	c3                   	ret    
    1782:	66 0f 1f 44 00 00    	nopw   0x0(%rax,%rax,1)
    1788:	c3                   	ret    
    1789:	0f 1f 80 00 00 00 00 	nopl   0x0(%rax)

0000000000001790 <riscv_dsp_quaternion_product_single_f32>:
    1790:	f3 0f 1e fa          	endbr64 
    1794:	f3 0f 10 07          	movss  (%rdi),%xmm0
    1798:	f3 0f 10 4f 04       	movss  0x4(%rdi),%xmm1
    179d:	f3 0f 59 06          	mulss  (%rsi),%xmm0
    17a1:	f3 0f 59 4e 04       	mulss  0x4(%rsi),%xmm1
    17a6:	f3 0f 5c c1          	subss  %xmm1,%xmm0
    17aa:	f3 0f 10 4f 08       	movss  0x8(%rdi),%xmm1
    17af:	f3 0f 59 4e 08       	mulss  0x8(%rsi),%xmm1
    17b4:	f3 0f 5c c1          	subss  %xmm1,%xmm0
    17b8:	f3 0f 10 4f 0c       	movss  0xc(%rdi),%xmm1
    17bd:	f3 0f 59 4e 0c       	mulss  0xc(%rsi),%xmm1
    17c2:	f3 0f 5c c1          	subss  %xmm1,%xmm0
    17c6:	f3 0f 11 02          	movss  %xmm0,(%rdx)
    17ca:	f3 0f 10 07          	movss  (%rdi),%xmm0
    17ce:	f3 0f 10 4f 04       	movss  0x4(%rdi),%xmm1
    17d3:	f3 0f 59 46 04       	mulss  0x4(%rsi),%xmm0
    17d8:	f3 0f 59 0e          	mulss  (%rsi),%xmm1
    17dc:	f3 0f 58 c1          	addss  %xmm1,%xmm0
    17e0:	f3 0f 10 4f 08       	movss  0x8(%rdi),%xmm1
    17e5:	f3 0f 59 4e 0c       	mulss  0xc(%rsi),%xmm1
    17ea:	f3 0f 58 c1          	addss  %xmm1,%xmm0
    17ee:	f3 0f 10 4f 0c       	movss  0xc(%rdi),%xmm1
    17f3:	f3 0f 59 4e 08       	mulss  0x8(%rsi),%xmm1
    17f8:	f3 0f 5c c1          	subss  %xmm1,%xmm0
    17fc:	f3 0f 11 42 04       	movss  %xmm0,0x4(%rdx)
    1801:	f3 0f 10 07          	movss  (%rdi),%xmm0
    1805:	f3 0f 10 4f 08       	movss  0x8(%rdi),%xmm1
    180a:	f3 0f 59 46 08       	mulss  0x8(%rsi),%xmm0
    180f:	f3 0f 59 0e          	mulss  (%rsi),%xmm1
    1813:	f3 0f 58 c1          	addss  %xmm1,%xmm0
    1817:	f3 0f 10 4f 0c       	movss  0xc(%rdi),%xmm1
    181c:	f3 0f 59 4e 04       	mulss  0x4(%rsi),%xmm1
    1821:	f3 0f 58 c1          	addss  %xmm1,%xmm0
    1825:	f3 0f 10 4f 04       	movss  0x4(%rdi),%xmm1
    182a:	f3 0f 59 4e 0c       	mulss  0xc(%rsi),%xmm1
    182f:	f3 0f 5c c1          	subss  %xmm1,%xmm0
    1833:	f3 0f 11 42 08       	movss  %xmm0,0x8(%rdx)
    1838:	f3 0f 10 07          	movss  (%rdi),%xmm0
    183c:	f3 0f 10 4f 0c       	movss  0xc(%rdi),%xmm1
    1841:	f3 0f 59 46 0c       	mulss  0xc(%rsi),%xmm0
    1846:	f3 0f 59 0e          	mulss  (%rsi),%xmm1
    184a:	f3 0f 58 c1          	addss  %xmm1,%xmm0
    184e:	f3 0f 10 4f 04       	movss  0x4(%rdi),%xmm1
    1853:	f3 0f 59 4e 08       	mulss  0x8(%rsi),%xmm1
    1858:	f3 0f 58 c1          	addss  %xmm1,%xmm0
    185c:	f3 0f 10 4f 08       	movss  0x8(%rdi),%xmm1
    1861:	f3 0f 59 4e 04       	mulss  0x4(%rsi),%xmm1
    1866:	f3 0f 5c c1          	subss  %xmm1,%xmm0
    186a:	f3 0f 11 42 0c       	movss  %xmm0,0xc(%rdx)
    186f:	c3                   	ret    

Disassembly of section .fini:

0000000000001870 <_fini>:
    1870:	f3 0f 1e fa          	endbr64 
    1874:	48 83 ec 08          	sub    $0x8,%rsp
    1878:	48 83 c4 08          	add    $0x8,%rsp
    187c:	c3                   	ret    
