
t_rfft_q15_6:     file format elf64-x86-64


Disassembly of section .init:

0000000000001000 <_init>:
    1000:	f3 0f 1e fa          	endbr64 
    1004:	48 83 ec 08          	sub    $0x8,%rsp
    1008:	48 8b 05 d9 7f 00 00 	mov    0x7fd9(%rip),%rax        # 8fe8 <__gmon_start__@Base>
    100f:	48 85 c0             	test   %rax,%rax
    1012:	74 02                	je     1016 <_init+0x16>
    1014:	ff d0                	call   *%rax
    1016:	48 83 c4 08          	add    $0x8,%rsp
    101a:	c3                   	ret    

Disassembly of section .plt:

0000000000001020 <.plt>:
    1020:	ff 35 6a 7f 00 00    	push   0x7f6a(%rip)        # 8f90 <_GLOBAL_OFFSET_TABLE_+0x8>
    1026:	f2 ff 25 6b 7f 00 00 	bnd jmp *0x7f6b(%rip)        # 8f98 <_GLOBAL_OFFSET_TABLE_+0x10>
    102d:	0f 1f 00             	nopl   (%rax)
    1030:	f3 0f 1e fa          	endbr64 
    1034:	68 00 00 00 00       	push   $0x0
    1039:	f2 e9 e1 ff ff ff    	bnd jmp 1020 <_init+0x20>
    103f:	90                   	nop
    1040:	f3 0f 1e fa          	endbr64 
    1044:	68 01 00 00 00       	push   $0x1
    1049:	f2 e9 d1 ff ff ff    	bnd jmp 1020 <_init+0x20>
    104f:	90                   	nop
    1050:	f3 0f 1e fa          	endbr64 
    1054:	68 02 00 00 00       	push   $0x2
    1059:	f2 e9 c1 ff ff ff    	bnd jmp 1020 <_init+0x20>
    105f:	90                   	nop
    1060:	f3 0f 1e fa          	endbr64 
    1064:	68 03 00 00 00       	push   $0x3
    1069:	f2 e9 b1 ff ff ff    	bnd jmp 1020 <_init+0x20>
    106f:	90                   	nop
    1070:	f3 0f 1e fa          	endbr64 
    1074:	68 04 00 00 00       	push   $0x4
    1079:	f2 e9 a1 ff ff ff    	bnd jmp 1020 <_init+0x20>
    107f:	90                   	nop
    1080:	f3 0f 1e fa          	endbr64 
    1084:	68 05 00 00 00       	push   $0x5
    1089:	f2 e9 91 ff ff ff    	bnd jmp 1020 <_init+0x20>
    108f:	90                   	nop
    1090:	f3 0f 1e fa          	endbr64 
    1094:	68 06 00 00 00       	push   $0x6
    1099:	f2 e9 81 ff ff ff    	bnd jmp 1020 <_init+0x20>
    109f:	90                   	nop

Disassembly of section .plt.got:

00000000000010a0 <__cxa_finalize@plt>:
    10a0:	f3 0f 1e fa          	endbr64 
    10a4:	f2 ff 25 4d 7f 00 00 	bnd jmp *0x7f4d(%rip)        # 8ff8 <__cxa_finalize@GLIBC_2.2.5>
    10ab:	0f 1f 44 00 00       	nopl   0x0(%rax,%rax,1)

Disassembly of section .plt.sec:

00000000000010b0 <puts@plt>:
    10b0:	f3 0f 1e fa          	endbr64 
    10b4:	f2 ff 25 e5 7e 00 00 	bnd jmp *0x7ee5(%rip)        # 8fa0 <puts@GLIBC_2.2.5>
    10bb:	0f 1f 44 00 00       	nopl   0x0(%rax,%rax,1)

00000000000010c0 <fread@plt>:
    10c0:	f3 0f 1e fa          	endbr64 
    10c4:	f2 ff 25 dd 7e 00 00 	bnd jmp *0x7edd(%rip)        # 8fa8 <fread@GLIBC_2.2.5>
    10cb:	0f 1f 44 00 00       	nopl   0x0(%rax,%rax,1)

00000000000010d0 <fclose@plt>:
    10d0:	f3 0f 1e fa          	endbr64 
    10d4:	f2 ff 25 d5 7e 00 00 	bnd jmp *0x7ed5(%rip)        # 8fb0 <fclose@GLIBC_2.2.5>
    10db:	0f 1f 44 00 00       	nopl   0x0(%rax,%rax,1)

00000000000010e0 <__stack_chk_fail@plt>:
    10e0:	f3 0f 1e fa          	endbr64 
    10e4:	f2 ff 25 cd 7e 00 00 	bnd jmp *0x7ecd(%rip)        # 8fb8 <__stack_chk_fail@GLIBC_2.4>
    10eb:	0f 1f 44 00 00       	nopl   0x0(%rax,%rax,1)

00000000000010f0 <__printf_chk@plt>:
    10f0:	f3 0f 1e fa          	endbr64 
    10f4:	f2 ff 25 c5 7e 00 00 	bnd jmp *0x7ec5(%rip)        # 8fc0 <__printf_chk@GLIBC_2.3.4>
    10fb:	0f 1f 44 00 00       	nopl   0x0(%rax,%rax,1)

0000000000001100 <fopen@plt>:
    1100:	f3 0f 1e fa          	endbr64 
    1104:	f2 ff 25 bd 7e 00 00 	bnd jmp *0x7ebd(%rip)        # 8fc8 <fopen@GLIBC_2.2.5>
    110b:	0f 1f 44 00 00       	nopl   0x0(%rax,%rax,1)

0000000000001110 <__sprintf_chk@plt>:
    1110:	f3 0f 1e fa          	endbr64 
    1114:	f2 ff 25 b5 7e 00 00 	bnd jmp *0x7eb5(%rip)        # 8fd0 <__sprintf_chk@GLIBC_2.3.4>
    111b:	0f 1f 44 00 00       	nopl   0x0(%rax,%rax,1)

Disassembly of section .text:

0000000000001120 <main>:
    1120:	f3 0f 1e fa          	endbr64 
    1124:	41 54                	push   %r12
    1126:	48 8d 3d bd 5f 00 00 	lea    0x5fbd(%rip),%rdi        # 70ea <_IO_stdin_used+0xea>
    112d:	55                   	push   %rbp
    112e:	53                   	push   %rbx
    112f:	48 83 ec 20          	sub    $0x20,%rsp
    1133:	64 48 8b 04 25 28 00 	mov    %fs:0x28,%rax
    113a:	00 00 
    113c:	48 89 44 24 18       	mov    %rax,0x18(%rsp)
    1141:	31 c0                	xor    %eax,%eax
    1143:	48 8d 6c 24 10       	lea    0x10(%rsp),%rbp
    1148:	48 c7 44 24 10 00 00 	movq   $0x0,0x10(%rsp)
    114f:	00 00 
    1151:	48 89 ee             	mov    %rbp,%rsi
    1154:	e8 c7 0f 00 00       	call   2120 <test_Fopen.constprop.0.isra.0>
    1159:	4c 8b 64 24 10       	mov    0x10(%rsp),%r12
    115e:	ba 40 00 00 00       	mov    $0x40,%edx
    1163:	be 04 00 00 00       	mov    $0x4,%esi
    1168:	48 8d 3d 51 80 00 00 	lea    0x8051(%rip),%rdi        # 91c0 <src_f32>
    116f:	4c 89 e1             	mov    %r12,%rcx
    1172:	e8 49 ff ff ff       	call   10c0 <fread@plt>
    1177:	4c 89 e7             	mov    %r12,%rdi
    117a:	e8 51 ff ff ff       	call   10d0 <fclose@plt>
    117f:	48 8d 3d ca 5e 00 00 	lea    0x5eca(%rip),%rdi        # 7050 <_IO_stdin_used+0x50>
    1186:	e8 25 ff ff ff       	call   10b0 <puts@plt>
    118b:	ba 40 00 00 00       	mov    $0x40,%edx
    1190:	48 8d 35 60 5f 00 00 	lea    0x5f60(%rip),%rsi        # 70f7 <_IO_stdin_used+0xf7>
    1197:	31 c0                	xor    %eax,%eax
    1199:	bf 01 00 00 00       	mov    $0x1,%edi
    119e:	e8 4d ff ff ff       	call   10f0 <__printf_chk@plt>
    11a3:	66 45 0f ef db       	pxor   %xmm11,%xmm11
    11a8:	be 06 00 00 00       	mov    $0x6,%esi
    11ad:	0f 28 25 8c 5f 00 00 	movaps 0x5f8c(%rip),%xmm4        # 7140 <_IO_stdin_used+0x140>
    11b4:	0f 28 2d 05 80 00 00 	movaps 0x8005(%rip),%xmm5        # 91c0 <src_f32>
    11bb:	0f 28 15 0e 80 00 00 	movaps 0x800e(%rip),%xmm2        # 91d0 <src_f32+0x10>
    11c2:	48 8d 3d 77 7f 00 00 	lea    0x7f77(%rip),%rdi        # 9140 <src>
    11c9:	0f 28 3d 80 5f 00 00 	movaps 0x5f80(%rip),%xmm7        # 7150 <_IO_stdin_used+0x150>
    11d0:	44 0f 28 15 88 5f 00 	movaps 0x5f88(%rip),%xmm10        # 7160 <_IO_stdin_used+0x160>
    11d7:	00 
    11d8:	0f 59 ec             	mulps  %xmm4,%xmm5
    11db:	0f 59 d4             	mulps  %xmm4,%xmm2
    11de:	0f 28 cf             	movaps %xmm7,%xmm1
    11e1:	0f 28 df             	movaps %xmm7,%xmm3
    11e4:	0f 28 c5             	movaps %xmm5,%xmm0
    11e7:	41 0f c2 c3 01       	cmpltps %xmm11,%xmm0
    11ec:	0f 54 c8             	andps  %xmm0,%xmm1
    11ef:	41 0f 55 c2          	andnps %xmm10,%xmm0
    11f3:	0f 56 c8             	orps   %xmm0,%xmm1
    11f6:	0f 28 c2             	movaps %xmm2,%xmm0
    11f9:	41 0f c2 c3 01       	cmpltps %xmm11,%xmm0
    11fe:	0f 58 e9             	addps  %xmm1,%xmm5
    1201:	0f 54 d8             	andps  %xmm0,%xmm3
    1204:	41 0f 55 c2          	andnps %xmm10,%xmm0
    1208:	f3 0f 5b ed          	cvttps2dq %xmm5,%xmm5
    120c:	66 44 0f 6f ed       	movdqa %xmm5,%xmm13
    1211:	0f 56 c3             	orps   %xmm3,%xmm0
    1214:	66 0f 6f dd          	movdqa %xmm5,%xmm3
    1218:	0f 58 d0             	addps  %xmm0,%xmm2
    121b:	66 0f 6f c5          	movdqa %xmm5,%xmm0
    121f:	f3 0f 5b d2          	cvttps2dq %xmm2,%xmm2
    1223:	66 44 0f 61 ea       	punpcklwd %xmm2,%xmm13
    1228:	66 0f 69 c2          	punpckhwd %xmm2,%xmm0
    122c:	66 41 0f 6f cd       	movdqa %xmm13,%xmm1
    1231:	66 44 0f 61 e8       	punpcklwd %xmm0,%xmm13
    1236:	66 0f 69 c8          	punpckhwd %xmm0,%xmm1
    123a:	66 0f 6f 05 2e 5f 00 	movdqa 0x5f2e(%rip),%xmm0        # 7170 <_IO_stdin_used+0x170>
    1241:	00 
    1242:	66 44 0f 61 e9       	punpcklwd %xmm1,%xmm13
    1247:	66 0f 6f 0d 31 5f 00 	movdqa 0x5f31(%rip),%xmm1        # 7180 <_IO_stdin_used+0x180>
    124e:	00 
    124f:	66 0f 66 d8          	pcmpgtd %xmm0,%xmm3
    1253:	66 0f 6f f0          	movdqa %xmm0,%xmm6
    1257:	66 44 0f 6f c9       	movdqa %xmm1,%xmm9
    125c:	66 0f db f3          	pand   %xmm3,%xmm6
    1260:	66 0f df d9          	pandn  %xmm1,%xmm3
    1264:	66 0f eb de          	por    %xmm6,%xmm3
    1268:	66 0f 6f f0          	movdqa %xmm0,%xmm6
    126c:	66 44 0f 6f c3       	movdqa %xmm3,%xmm8
    1271:	66 0f 6f da          	movdqa %xmm2,%xmm3
    1275:	66 0f 66 d8          	pcmpgtd %xmm0,%xmm3
    1279:	66 0f db f3          	pand   %xmm3,%xmm6
    127d:	66 0f df d9          	pandn  %xmm1,%xmm3
    1281:	66 0f eb f3          	por    %xmm3,%xmm6
    1285:	66 0f 6f 1d 03 5f 00 	movdqa 0x5f03(%rip),%xmm3        # 7190 <_IO_stdin_used+0x190>
    128c:	00 
    128d:	66 44 0f 6f e3       	movdqa %xmm3,%xmm12
    1292:	66 44 0f 6f f3       	movdqa %xmm3,%xmm14
    1297:	66 44 0f 66 e5       	pcmpgtd %xmm5,%xmm12
    129c:	66 44 0f 66 f2       	pcmpgtd %xmm2,%xmm14
    12a1:	66 0f fe e8          	paddd  %xmm0,%xmm5
    12a5:	66 0f fe d0          	paddd  %xmm0,%xmm2
    12a9:	66 45 0f db cc       	pand   %xmm12,%xmm9
    12ae:	66 45 0f df e0       	pandn  %xmm8,%xmm12
    12b3:	66 44 0f 6f c1       	movdqa %xmm1,%xmm8
    12b8:	66 45 0f db c6       	pand   %xmm14,%xmm8
    12bd:	66 44 0f df f6       	pandn  %xmm6,%xmm14
    12c2:	66 45 0f eb e1       	por    %xmm9,%xmm12
    12c7:	66 0f 6f 35 d1 5e 00 	movdqa 0x5ed1(%rip),%xmm6        # 71a0 <_IO_stdin_used+0x1a0>
    12ce:	00 
    12cf:	66 45 0f eb f0       	por    %xmm8,%xmm14
    12d4:	66 45 0f ef c9       	pxor   %xmm9,%xmm9
    12d9:	66 44 0f 6f 05 ce 5e 	movdqa 0x5ece(%rip),%xmm8        # 71b0 <_IO_stdin_used+0x1b0>
    12e0:	00 00 
    12e2:	66 41 0f fa f0       	psubd  %xmm8,%xmm6
    12e7:	66 41 0f fa e8       	psubd  %xmm8,%xmm5
    12ec:	66 41 0f fa d0       	psubd  %xmm8,%xmm2
    12f1:	66 0f 66 ee          	pcmpgtd %xmm6,%xmm5
    12f5:	66 0f 66 d6          	pcmpgtd %xmm6,%xmm2
    12f9:	66 41 0f 76 e9       	pcmpeqd %xmm9,%xmm5
    12fe:	66 41 0f 76 d1       	pcmpeqd %xmm9,%xmm2
    1303:	66 44 0f 6f fd       	movdqa %xmm5,%xmm15
    1308:	66 0f 61 ea          	punpcklwd %xmm2,%xmm5
    130c:	66 44 0f 69 fa       	punpckhwd %xmm2,%xmm15
    1311:	66 0f 6f d5          	movdqa %xmm5,%xmm2
    1315:	66 41 0f 61 ef       	punpcklwd %xmm15,%xmm5
    131a:	66 41 0f 69 d7       	punpckhwd %xmm15,%xmm2
    131f:	66 44 0f 6f f8       	movdqa %xmm0,%xmm15
    1324:	66 0f 61 ea          	punpcklwd %xmm2,%xmm5
    1328:	66 41 0f 6f d4       	movdqa %xmm12,%xmm2
    132d:	66 45 0f 61 e6       	punpcklwd %xmm14,%xmm12
    1332:	66 41 0f 69 d6       	punpckhwd %xmm14,%xmm2
    1337:	66 45 0f 6f f4       	movdqa %xmm12,%xmm14
    133c:	66 44 0f db ed       	pand   %xmm5,%xmm13
    1341:	66 44 0f 69 f2       	punpckhwd %xmm2,%xmm14
    1346:	66 44 0f 61 e2       	punpcklwd %xmm2,%xmm12
    134b:	0f 28 15 8e 7e 00 00 	movaps 0x7e8e(%rip),%xmm2        # 91e0 <src_f32+0x20>
    1352:	66 45 0f 61 e6       	punpcklwd %xmm14,%xmm12
    1357:	44 0f 28 f7          	movaps %xmm7,%xmm14
    135b:	0f 59 d4             	mulps  %xmm4,%xmm2
    135e:	66 41 0f df ec       	pandn  %xmm12,%xmm5
    1363:	66 41 0f eb ed       	por    %xmm13,%xmm5
    1368:	44 0f 28 ef          	movaps %xmm7,%xmm13
    136c:	0f 29 2d cd 7d 00 00 	movaps %xmm5,0x7dcd(%rip)        # 9140 <src>
    1373:	0f 28 2d 76 7e 00 00 	movaps 0x7e76(%rip),%xmm5        # 91f0 <src_f32+0x30>
    137a:	0f 59 ec             	mulps  %xmm4,%xmm5
    137d:	44 0f 28 e2          	movaps %xmm2,%xmm12
    1381:	45 0f c2 e3 01       	cmpltps %xmm11,%xmm12
    1386:	45 0f 54 ec          	andps  %xmm12,%xmm13
    138a:	45 0f 55 e2          	andnps %xmm10,%xmm12
    138e:	45 0f 56 ec          	orps   %xmm12,%xmm13
    1392:	44 0f 28 e5          	movaps %xmm5,%xmm12
    1396:	45 0f c2 e3 01       	cmpltps %xmm11,%xmm12
    139b:	41 0f 58 d5          	addps  %xmm13,%xmm2
    139f:	45 0f 54 f4          	andps  %xmm12,%xmm14
    13a3:	45 0f 55 e2          	andnps %xmm10,%xmm12
    13a7:	f3 0f 5b d2          	cvttps2dq %xmm2,%xmm2
    13ab:	66 44 0f 6f ea       	movdqa %xmm2,%xmm13
    13b0:	45 0f 56 e6          	orps   %xmm14,%xmm12
    13b4:	41 0f 58 ec          	addps  %xmm12,%xmm5
    13b8:	66 44 0f 6f e2       	movdqa %xmm2,%xmm12
    13bd:	f3 0f 5b ed          	cvttps2dq %xmm5,%xmm5
    13c1:	66 44 0f 61 ed       	punpcklwd %xmm5,%xmm13
    13c6:	66 44 0f 69 e5       	punpckhwd %xmm5,%xmm12
    13cb:	66 45 0f 6f f5       	movdqa %xmm13,%xmm14
    13d0:	66 45 0f 61 ec       	punpcklwd %xmm12,%xmm13
    13d5:	66 45 0f 69 f4       	punpckhwd %xmm12,%xmm14
    13da:	66 44 0f 6f e0       	movdqa %xmm0,%xmm12
    13df:	66 45 0f 61 ee       	punpcklwd %xmm14,%xmm13
    13e4:	66 44 0f 6f f2       	movdqa %xmm2,%xmm14
    13e9:	66 44 0f 66 f0       	pcmpgtd %xmm0,%xmm14
    13ee:	66 45 0f db e6       	pand   %xmm14,%xmm12
    13f3:	66 44 0f df f1       	pandn  %xmm1,%xmm14
    13f8:	66 45 0f eb f4       	por    %xmm12,%xmm14
    13fd:	66 44 0f 6f e5       	movdqa %xmm5,%xmm12
    1402:	66 44 0f 66 e0       	pcmpgtd %xmm0,%xmm12
    1407:	66 45 0f db fc       	pand   %xmm12,%xmm15
    140c:	66 44 0f df e1       	pandn  %xmm1,%xmm12
    1411:	66 45 0f eb e7       	por    %xmm15,%xmm12
    1416:	66 44 0f 6f fb       	movdqa %xmm3,%xmm15
    141b:	66 44 0f 66 fa       	pcmpgtd %xmm2,%xmm15
    1420:	44 0f 29 24 24       	movaps %xmm12,(%rsp)
    1425:	66 0f fe d0          	paddd  %xmm0,%xmm2
    1429:	66 41 0f fa d0       	psubd  %xmm8,%xmm2
    142e:	66 0f 66 d6          	pcmpgtd %xmm6,%xmm2
    1432:	66 45 0f 6f e7       	movdqa %xmm15,%xmm12
    1437:	66 44 0f 6f f9       	movdqa %xmm1,%xmm15
    143c:	66 45 0f db fc       	pand   %xmm12,%xmm15
    1441:	66 45 0f df e6       	pandn  %xmm14,%xmm12
    1446:	66 44 0f 6f f3       	movdqa %xmm3,%xmm14
    144b:	66 44 0f 66 f5       	pcmpgtd %xmm5,%xmm14
    1450:	66 0f fe e8          	paddd  %xmm0,%xmm5
    1454:	66 45 0f eb e7       	por    %xmm15,%xmm12
    1459:	66 41 0f fa e8       	psubd  %xmm8,%xmm5
    145e:	66 41 0f 76 d1       	pcmpeqd %xmm9,%xmm2
    1463:	66 44 0f 6f f9       	movdqa %xmm1,%xmm15
    1468:	66 0f 66 ee          	pcmpgtd %xmm6,%xmm5
    146c:	66 45 0f db fe       	pand   %xmm14,%xmm15
    1471:	66 44 0f df 34 24    	pandn  (%rsp),%xmm14
    1477:	66 41 0f 76 e9       	pcmpeqd %xmm9,%xmm5
    147c:	66 45 0f eb f7       	por    %xmm15,%xmm14
    1481:	66 44 0f 6f fa       	movdqa %xmm2,%xmm15
    1486:	66 0f 61 d5          	punpcklwd %xmm5,%xmm2
    148a:	66 44 0f 69 fd       	punpckhwd %xmm5,%xmm15
    148f:	66 0f 6f ea          	movdqa %xmm2,%xmm5
    1493:	66 41 0f 61 d7       	punpcklwd %xmm15,%xmm2
    1498:	66 41 0f 69 ef       	punpckhwd %xmm15,%xmm5
    149d:	66 44 0f 6f f8       	movdqa %xmm0,%xmm15
    14a2:	66 0f 61 d5          	punpcklwd %xmm5,%xmm2
    14a6:	66 41 0f 6f ec       	movdqa %xmm12,%xmm5
    14ab:	66 45 0f 61 e6       	punpcklwd %xmm14,%xmm12
    14b0:	66 41 0f 69 ee       	punpckhwd %xmm14,%xmm5
    14b5:	66 45 0f 6f f4       	movdqa %xmm12,%xmm14
    14ba:	66 44 0f db ea       	pand   %xmm2,%xmm13
    14bf:	66 44 0f 69 f5       	punpckhwd %xmm5,%xmm14
    14c4:	66 44 0f 61 e5       	punpcklwd %xmm5,%xmm12
    14c9:	0f 28 2d 40 7d 00 00 	movaps 0x7d40(%rip),%xmm5        # 9210 <src_f32+0x50>
    14d0:	66 45 0f 61 e6       	punpcklwd %xmm14,%xmm12
    14d5:	44 0f 28 f7          	movaps %xmm7,%xmm14
    14d9:	0f 59 ec             	mulps  %xmm4,%xmm5
    14dc:	66 41 0f df d4       	pandn  %xmm12,%xmm2
    14e1:	66 44 0f eb ea       	por    %xmm2,%xmm13
    14e6:	0f 28 15 13 7d 00 00 	movaps 0x7d13(%rip),%xmm2        # 9200 <src_f32+0x40>
    14ed:	44 0f 29 2d 5b 7c 00 	movaps %xmm13,0x7c5b(%rip)        # 9150 <src+0x10>
    14f4:	00 
    14f5:	44 0f 28 ef          	movaps %xmm7,%xmm13
    14f9:	0f 59 d4             	mulps  %xmm4,%xmm2
    14fc:	44 0f 28 e2          	movaps %xmm2,%xmm12
    1500:	45 0f c2 e3 01       	cmpltps %xmm11,%xmm12
    1505:	45 0f 54 ec          	andps  %xmm12,%xmm13
    1509:	45 0f 55 e2          	andnps %xmm10,%xmm12
    150d:	45 0f 56 ec          	orps   %xmm12,%xmm13
    1511:	44 0f 28 e5          	movaps %xmm5,%xmm12
    1515:	45 0f c2 e3 01       	cmpltps %xmm11,%xmm12
    151a:	41 0f 58 d5          	addps  %xmm13,%xmm2
    151e:	45 0f 54 f4          	andps  %xmm12,%xmm14
    1522:	45 0f 55 e2          	andnps %xmm10,%xmm12
    1526:	f3 0f 5b d2          	cvttps2dq %xmm2,%xmm2
    152a:	66 44 0f 6f ea       	movdqa %xmm2,%xmm13
    152f:	45 0f 56 e6          	orps   %xmm14,%xmm12
    1533:	41 0f 58 ec          	addps  %xmm12,%xmm5
    1537:	66 44 0f 6f e2       	movdqa %xmm2,%xmm12
    153c:	f3 0f 5b ed          	cvttps2dq %xmm5,%xmm5
    1540:	66 44 0f 61 ed       	punpcklwd %xmm5,%xmm13
    1545:	66 44 0f 69 e5       	punpckhwd %xmm5,%xmm12
    154a:	66 45 0f 6f f5       	movdqa %xmm13,%xmm14
    154f:	66 45 0f 61 ec       	punpcklwd %xmm12,%xmm13
    1554:	66 45 0f 69 f4       	punpckhwd %xmm12,%xmm14
    1559:	66 44 0f 6f e0       	movdqa %xmm0,%xmm12
    155e:	66 45 0f 61 ee       	punpcklwd %xmm14,%xmm13
    1563:	66 44 0f 6f f2       	movdqa %xmm2,%xmm14
    1568:	66 44 0f 66 f0       	pcmpgtd %xmm0,%xmm14
    156d:	66 45 0f db e6       	pand   %xmm14,%xmm12
    1572:	66 44 0f df f1       	pandn  %xmm1,%xmm14
    1577:	66 45 0f eb f4       	por    %xmm12,%xmm14
    157c:	66 44 0f 6f e5       	movdqa %xmm5,%xmm12
    1581:	66 44 0f 66 e0       	pcmpgtd %xmm0,%xmm12
    1586:	66 45 0f db fc       	pand   %xmm12,%xmm15
    158b:	66 44 0f df e1       	pandn  %xmm1,%xmm12
    1590:	66 45 0f eb e7       	por    %xmm15,%xmm12
    1595:	66 44 0f 6f fb       	movdqa %xmm3,%xmm15
    159a:	66 44 0f 66 fa       	pcmpgtd %xmm2,%xmm15
    159f:	44 0f 29 24 24       	movaps %xmm12,(%rsp)
    15a4:	66 0f fe d0          	paddd  %xmm0,%xmm2
    15a8:	66 41 0f fa d0       	psubd  %xmm8,%xmm2
    15ad:	66 0f 66 d6          	pcmpgtd %xmm6,%xmm2
    15b1:	66 45 0f 6f e7       	movdqa %xmm15,%xmm12
    15b6:	66 44 0f 6f f9       	movdqa %xmm1,%xmm15
    15bb:	66 45 0f db fc       	pand   %xmm12,%xmm15
    15c0:	66 45 0f df e6       	pandn  %xmm14,%xmm12
    15c5:	66 44 0f 6f f3       	movdqa %xmm3,%xmm14
    15ca:	66 44 0f 66 f5       	pcmpgtd %xmm5,%xmm14
    15cf:	66 0f fe e8          	paddd  %xmm0,%xmm5
    15d3:	66 45 0f eb e7       	por    %xmm15,%xmm12
    15d8:	66 41 0f fa e8       	psubd  %xmm8,%xmm5
    15dd:	66 41 0f 76 d1       	pcmpeqd %xmm9,%xmm2
    15e2:	66 44 0f 6f f9       	movdqa %xmm1,%xmm15
    15e7:	66 0f 66 ee          	pcmpgtd %xmm6,%xmm5
    15eb:	66 45 0f db fe       	pand   %xmm14,%xmm15
    15f0:	66 44 0f df 34 24    	pandn  (%rsp),%xmm14
    15f6:	66 41 0f 76 e9       	pcmpeqd %xmm9,%xmm5
    15fb:	66 45 0f eb f7       	por    %xmm15,%xmm14
    1600:	66 44 0f 6f fa       	movdqa %xmm2,%xmm15
    1605:	66 0f 61 d5          	punpcklwd %xmm5,%xmm2
    1609:	66 44 0f 69 fd       	punpckhwd %xmm5,%xmm15
    160e:	66 0f 6f ea          	movdqa %xmm2,%xmm5
    1612:	66 41 0f 61 d7       	punpcklwd %xmm15,%xmm2
    1617:	66 41 0f 69 ef       	punpckhwd %xmm15,%xmm5
    161c:	66 44 0f 6f f8       	movdqa %xmm0,%xmm15
    1621:	66 0f 61 d5          	punpcklwd %xmm5,%xmm2
    1625:	66 41 0f 6f ec       	movdqa %xmm12,%xmm5
    162a:	66 45 0f 61 e6       	punpcklwd %xmm14,%xmm12
    162f:	66 41 0f 69 ee       	punpckhwd %xmm14,%xmm5
    1634:	66 45 0f 6f f4       	movdqa %xmm12,%xmm14
    1639:	66 44 0f db ea       	pand   %xmm2,%xmm13
    163e:	66 44 0f 69 f5       	punpckhwd %xmm5,%xmm14
    1643:	66 44 0f 61 e5       	punpcklwd %xmm5,%xmm12
    1648:	0f 28 2d e1 7b 00 00 	movaps 0x7be1(%rip),%xmm5        # 9230 <src_f32+0x70>
    164f:	66 45 0f 61 e6       	punpcklwd %xmm14,%xmm12
    1654:	44 0f 28 f7          	movaps %xmm7,%xmm14
    1658:	0f 59 ec             	mulps  %xmm4,%xmm5
    165b:	66 41 0f df d4       	pandn  %xmm12,%xmm2
    1660:	66 44 0f eb ea       	por    %xmm2,%xmm13
    1665:	0f 28 15 b4 7b 00 00 	movaps 0x7bb4(%rip),%xmm2        # 9220 <src_f32+0x60>
    166c:	44 0f 29 2d ec 7a 00 	movaps %xmm13,0x7aec(%rip)        # 9160 <src+0x20>
    1673:	00 
    1674:	44 0f 28 ef          	movaps %xmm7,%xmm13
    1678:	0f 59 d4             	mulps  %xmm4,%xmm2
    167b:	44 0f 28 e2          	movaps %xmm2,%xmm12
    167f:	45 0f c2 e3 01       	cmpltps %xmm11,%xmm12
    1684:	45 0f 54 ec          	andps  %xmm12,%xmm13
    1688:	45 0f 55 e2          	andnps %xmm10,%xmm12
    168c:	45 0f 56 ec          	orps   %xmm12,%xmm13
    1690:	44 0f 28 e5          	movaps %xmm5,%xmm12
    1694:	45 0f c2 e3 01       	cmpltps %xmm11,%xmm12
    1699:	41 0f 58 d5          	addps  %xmm13,%xmm2
    169d:	45 0f 54 f4          	andps  %xmm12,%xmm14
    16a1:	45 0f 55 e2          	andnps %xmm10,%xmm12
    16a5:	f3 0f 5b d2          	cvttps2dq %xmm2,%xmm2
    16a9:	66 44 0f 6f ea       	movdqa %xmm2,%xmm13
    16ae:	45 0f 56 e6          	orps   %xmm14,%xmm12
    16b2:	41 0f 58 ec          	addps  %xmm12,%xmm5
    16b6:	66 44 0f 6f e2       	movdqa %xmm2,%xmm12
    16bb:	f3 0f 5b ed          	cvttps2dq %xmm5,%xmm5
    16bf:	66 44 0f 61 ed       	punpcklwd %xmm5,%xmm13
    16c4:	66 44 0f 69 e5       	punpckhwd %xmm5,%xmm12
    16c9:	66 45 0f 6f f5       	movdqa %xmm13,%xmm14
    16ce:	66 45 0f 61 ec       	punpcklwd %xmm12,%xmm13
    16d3:	66 45 0f 69 f4       	punpckhwd %xmm12,%xmm14
    16d8:	66 44 0f 6f e0       	movdqa %xmm0,%xmm12
    16dd:	66 45 0f 61 ee       	punpcklwd %xmm14,%xmm13
    16e2:	66 44 0f 6f f2       	movdqa %xmm2,%xmm14
    16e7:	66 44 0f 66 f0       	pcmpgtd %xmm0,%xmm14
    16ec:	66 45 0f db e6       	pand   %xmm14,%xmm12
    16f1:	66 44 0f df f1       	pandn  %xmm1,%xmm14
    16f6:	66 45 0f eb f4       	por    %xmm12,%xmm14
    16fb:	66 44 0f 6f e5       	movdqa %xmm5,%xmm12
    1700:	66 44 0f 66 e0       	pcmpgtd %xmm0,%xmm12
    1705:	66 45 0f db fc       	pand   %xmm12,%xmm15
    170a:	66 44 0f df e1       	pandn  %xmm1,%xmm12
    170f:	66 45 0f eb e7       	por    %xmm15,%xmm12
    1714:	66 44 0f 6f fb       	movdqa %xmm3,%xmm15
    1719:	66 44 0f 66 fa       	pcmpgtd %xmm2,%xmm15
    171e:	44 0f 29 24 24       	movaps %xmm12,(%rsp)
    1723:	66 0f fe d0          	paddd  %xmm0,%xmm2
    1727:	66 41 0f fa d0       	psubd  %xmm8,%xmm2
    172c:	66 0f 66 d6          	pcmpgtd %xmm6,%xmm2
    1730:	66 45 0f 6f e7       	movdqa %xmm15,%xmm12
    1735:	66 44 0f 6f f9       	movdqa %xmm1,%xmm15
    173a:	66 45 0f db fc       	pand   %xmm12,%xmm15
    173f:	66 45 0f df e6       	pandn  %xmm14,%xmm12
    1744:	66 44 0f 6f f3       	movdqa %xmm3,%xmm14
    1749:	66 44 0f 66 f5       	pcmpgtd %xmm5,%xmm14
    174e:	66 0f fe e8          	paddd  %xmm0,%xmm5
    1752:	66 45 0f eb e7       	por    %xmm15,%xmm12
    1757:	66 41 0f fa e8       	psubd  %xmm8,%xmm5
    175c:	66 41 0f 76 d1       	pcmpeqd %xmm9,%xmm2
    1761:	66 44 0f 6f f9       	movdqa %xmm1,%xmm15
    1766:	66 0f 66 ee          	pcmpgtd %xmm6,%xmm5
    176a:	66 45 0f db fe       	pand   %xmm14,%xmm15
    176f:	66 44 0f df 34 24    	pandn  (%rsp),%xmm14
    1775:	66 41 0f 76 e9       	pcmpeqd %xmm9,%xmm5
    177a:	66 45 0f eb f7       	por    %xmm15,%xmm14
    177f:	66 44 0f 6f fa       	movdqa %xmm2,%xmm15
    1784:	66 0f 61 d5          	punpcklwd %xmm5,%xmm2
    1788:	66 44 0f 69 fd       	punpckhwd %xmm5,%xmm15
    178d:	66 0f 6f ea          	movdqa %xmm2,%xmm5
    1791:	66 41 0f 61 d7       	punpcklwd %xmm15,%xmm2
    1796:	66 41 0f 69 ef       	punpckhwd %xmm15,%xmm5
    179b:	66 44 0f 6f f8       	movdqa %xmm0,%xmm15
    17a0:	66 0f 61 d5          	punpcklwd %xmm5,%xmm2
    17a4:	66 41 0f 6f ec       	movdqa %xmm12,%xmm5
    17a9:	66 45 0f 61 e6       	punpcklwd %xmm14,%xmm12
    17ae:	66 41 0f 69 ee       	punpckhwd %xmm14,%xmm5
    17b3:	66 45 0f 6f f4       	movdqa %xmm12,%xmm14
    17b8:	66 44 0f db ea       	pand   %xmm2,%xmm13
    17bd:	66 44 0f 69 f5       	punpckhwd %xmm5,%xmm14
    17c2:	66 44 0f 61 e5       	punpcklwd %xmm5,%xmm12
    17c7:	0f 28 2d 82 7a 00 00 	movaps 0x7a82(%rip),%xmm5        # 9250 <src_f32+0x90>
    17ce:	66 45 0f 61 e6       	punpcklwd %xmm14,%xmm12
    17d3:	44 0f 28 f7          	movaps %xmm7,%xmm14
    17d7:	0f 59 ec             	mulps  %xmm4,%xmm5
    17da:	66 41 0f df d4       	pandn  %xmm12,%xmm2
    17df:	66 44 0f eb ea       	por    %xmm2,%xmm13
    17e4:	0f 28 15 55 7a 00 00 	movaps 0x7a55(%rip),%xmm2        # 9240 <src_f32+0x80>
    17eb:	44 0f 29 2d 7d 79 00 	movaps %xmm13,0x797d(%rip)        # 9170 <src+0x30>
    17f2:	00 
    17f3:	44 0f 28 ef          	movaps %xmm7,%xmm13
    17f7:	0f 59 d4             	mulps  %xmm4,%xmm2
    17fa:	44 0f 28 e2          	movaps %xmm2,%xmm12
    17fe:	45 0f c2 e3 01       	cmpltps %xmm11,%xmm12
    1803:	45 0f 54 ec          	andps  %xmm12,%xmm13
    1807:	45 0f 55 e2          	andnps %xmm10,%xmm12
    180b:	45 0f 56 ec          	orps   %xmm12,%xmm13
    180f:	44 0f 28 e5          	movaps %xmm5,%xmm12
    1813:	45 0f c2 e3 01       	cmpltps %xmm11,%xmm12
    1818:	41 0f 58 d5          	addps  %xmm13,%xmm2
    181c:	45 0f 54 f4          	andps  %xmm12,%xmm14
    1820:	45 0f 55 e2          	andnps %xmm10,%xmm12
    1824:	f3 0f 5b d2          	cvttps2dq %xmm2,%xmm2
    1828:	66 44 0f 6f ea       	movdqa %xmm2,%xmm13
    182d:	45 0f 56 e6          	orps   %xmm14,%xmm12
    1831:	41 0f 58 ec          	addps  %xmm12,%xmm5
    1835:	66 44 0f 6f e2       	movdqa %xmm2,%xmm12
    183a:	f3 0f 5b ed          	cvttps2dq %xmm5,%xmm5
    183e:	66 44 0f 61 ed       	punpcklwd %xmm5,%xmm13
    1843:	66 44 0f 69 e5       	punpckhwd %xmm5,%xmm12
    1848:	66 45 0f 6f f5       	movdqa %xmm13,%xmm14
    184d:	66 45 0f 61 ec       	punpcklwd %xmm12,%xmm13
    1852:	66 45 0f 69 f4       	punpckhwd %xmm12,%xmm14
    1857:	66 44 0f 6f e0       	movdqa %xmm0,%xmm12
    185c:	66 45 0f 61 ee       	punpcklwd %xmm14,%xmm13
    1861:	66 44 0f 6f f2       	movdqa %xmm2,%xmm14
    1866:	66 44 0f 66 f0       	pcmpgtd %xmm0,%xmm14
    186b:	66 45 0f db e6       	pand   %xmm14,%xmm12
    1870:	66 44 0f df f1       	pandn  %xmm1,%xmm14
    1875:	66 45 0f eb f4       	por    %xmm12,%xmm14
    187a:	66 44 0f 6f e5       	movdqa %xmm5,%xmm12
    187f:	66 44 0f 66 e0       	pcmpgtd %xmm0,%xmm12
    1884:	66 45 0f db fc       	pand   %xmm12,%xmm15
    1889:	66 44 0f df e1       	pandn  %xmm1,%xmm12
    188e:	66 45 0f eb e7       	por    %xmm15,%xmm12
    1893:	66 44 0f 6f fb       	movdqa %xmm3,%xmm15
    1898:	66 44 0f 66 fa       	pcmpgtd %xmm2,%xmm15
    189d:	44 0f 29 24 24       	movaps %xmm12,(%rsp)
    18a2:	66 0f fe d0          	paddd  %xmm0,%xmm2
    18a6:	66 41 0f fa d0       	psubd  %xmm8,%xmm2
    18ab:	66 0f 66 d6          	pcmpgtd %xmm6,%xmm2
    18af:	66 45 0f 6f e7       	movdqa %xmm15,%xmm12
    18b4:	66 44 0f 6f f9       	movdqa %xmm1,%xmm15
    18b9:	66 45 0f db fc       	pand   %xmm12,%xmm15
    18be:	66 45 0f df e6       	pandn  %xmm14,%xmm12
    18c3:	66 44 0f 6f f3       	movdqa %xmm3,%xmm14
    18c8:	66 44 0f 66 f5       	pcmpgtd %xmm5,%xmm14
    18cd:	66 0f fe e8          	paddd  %xmm0,%xmm5
    18d1:	66 45 0f eb e7       	por    %xmm15,%xmm12
    18d6:	66 41 0f fa e8       	psubd  %xmm8,%xmm5
    18db:	66 41 0f 76 d1       	pcmpeqd %xmm9,%xmm2
    18e0:	66 44 0f 6f f9       	movdqa %xmm1,%xmm15
    18e5:	66 0f 66 ee          	pcmpgtd %xmm6,%xmm5
    18e9:	66 45 0f db fe       	pand   %xmm14,%xmm15
    18ee:	66 44 0f df 34 24    	pandn  (%rsp),%xmm14
    18f4:	66 41 0f 76 e9       	pcmpeqd %xmm9,%xmm5
    18f9:	66 45 0f eb f7       	por    %xmm15,%xmm14
    18fe:	66 44 0f 6f fa       	movdqa %xmm2,%xmm15
    1903:	66 0f 61 d5          	punpcklwd %xmm5,%xmm2
    1907:	66 44 0f 69 fd       	punpckhwd %xmm5,%xmm15
    190c:	66 0f 6f ea          	movdqa %xmm2,%xmm5
    1910:	66 41 0f 61 d7       	punpcklwd %xmm15,%xmm2
    1915:	66 41 0f 69 ef       	punpckhwd %xmm15,%xmm5
    191a:	66 44 0f 6f f8       	movdqa %xmm0,%xmm15
    191f:	66 0f 61 d5          	punpcklwd %xmm5,%xmm2
    1923:	66 41 0f 6f ec       	movdqa %xmm12,%xmm5
    1928:	66 45 0f 61 e6       	punpcklwd %xmm14,%xmm12
    192d:	66 41 0f 69 ee       	punpckhwd %xmm14,%xmm5
    1932:	66 45 0f 6f f4       	movdqa %xmm12,%xmm14
    1937:	66 44 0f db ea       	pand   %xmm2,%xmm13
    193c:	66 44 0f 69 f5       	punpckhwd %xmm5,%xmm14
    1941:	66 44 0f 61 e5       	punpcklwd %xmm5,%xmm12
    1946:	66 45 0f 61 e6       	punpcklwd %xmm14,%xmm12
    194b:	44 0f 28 f7          	movaps %xmm7,%xmm14
    194f:	66 41 0f df d4       	pandn  %xmm12,%xmm2
    1954:	66 44 0f eb ea       	por    %xmm2,%xmm13
    1959:	0f 28 15 00 79 00 00 	movaps 0x7900(%rip),%xmm2        # 9260 <src_f32+0xa0>
    1960:	44 0f 29 2d 18 78 00 	movaps %xmm13,0x7818(%rip)        # 9180 <src+0x40>
    1967:	00 
    1968:	0f 28 2d 01 79 00 00 	movaps 0x7901(%rip),%xmm5        # 9270 <src_f32+0xb0>
    196f:	44 0f 28 ef          	movaps %xmm7,%xmm13
    1973:	0f 59 d4             	mulps  %xmm4,%xmm2
    1976:	0f 59 ec             	mulps  %xmm4,%xmm5
    1979:	44 0f 28 e2          	movaps %xmm2,%xmm12
    197d:	45 0f c2 e3 01       	cmpltps %xmm11,%xmm12
    1982:	45 0f 54 ec          	andps  %xmm12,%xmm13
    1986:	45 0f 55 e2          	andnps %xmm10,%xmm12
    198a:	45 0f 56 ec          	orps   %xmm12,%xmm13
    198e:	44 0f 28 e5          	movaps %xmm5,%xmm12
    1992:	45 0f c2 e3 01       	cmpltps %xmm11,%xmm12
    1997:	41 0f 58 d5          	addps  %xmm13,%xmm2
    199b:	45 0f 54 f4          	andps  %xmm12,%xmm14
    199f:	45 0f 55 e2          	andnps %xmm10,%xmm12
    19a3:	f3 0f 5b d2          	cvttps2dq %xmm2,%xmm2
    19a7:	66 44 0f 6f ea       	movdqa %xmm2,%xmm13
    19ac:	45 0f 56 e6          	orps   %xmm14,%xmm12
    19b0:	41 0f 58 ec          	addps  %xmm12,%xmm5
    19b4:	66 44 0f 6f e2       	movdqa %xmm2,%xmm12
    19b9:	f3 0f 5b ed          	cvttps2dq %xmm5,%xmm5
    19bd:	66 44 0f 61 ed       	punpcklwd %xmm5,%xmm13
    19c2:	66 44 0f 69 e5       	punpckhwd %xmm5,%xmm12
    19c7:	66 45 0f 6f f5       	movdqa %xmm13,%xmm14
    19cc:	66 45 0f 61 ec       	punpcklwd %xmm12,%xmm13
    19d1:	66 45 0f 69 f4       	punpckhwd %xmm12,%xmm14
    19d6:	66 44 0f 6f e0       	movdqa %xmm0,%xmm12
    19db:	66 45 0f 61 ee       	punpcklwd %xmm14,%xmm13
    19e0:	66 44 0f 6f f2       	movdqa %xmm2,%xmm14
    19e5:	66 44 0f 66 f0       	pcmpgtd %xmm0,%xmm14
    19ea:	66 45 0f db e6       	pand   %xmm14,%xmm12
    19ef:	66 44 0f df f1       	pandn  %xmm1,%xmm14
    19f4:	66 45 0f eb f4       	por    %xmm12,%xmm14
    19f9:	66 44 0f 6f e5       	movdqa %xmm5,%xmm12
    19fe:	66 44 0f 66 e0       	pcmpgtd %xmm0,%xmm12
    1a03:	66 45 0f db fc       	pand   %xmm12,%xmm15
    1a08:	66 44 0f df e1       	pandn  %xmm1,%xmm12
    1a0d:	66 45 0f eb e7       	por    %xmm15,%xmm12
    1a12:	66 44 0f 6f fb       	movdqa %xmm3,%xmm15
    1a17:	66 44 0f 66 fa       	pcmpgtd %xmm2,%xmm15
    1a1c:	44 0f 29 24 24       	movaps %xmm12,(%rsp)
    1a21:	66 0f fe d0          	paddd  %xmm0,%xmm2
    1a25:	66 41 0f fa d0       	psubd  %xmm8,%xmm2
    1a2a:	66 0f 66 d6          	pcmpgtd %xmm6,%xmm2
    1a2e:	66 45 0f 6f e7       	movdqa %xmm15,%xmm12
    1a33:	66 44 0f 6f f9       	movdqa %xmm1,%xmm15
    1a38:	66 45 0f db fc       	pand   %xmm12,%xmm15
    1a3d:	66 45 0f df e6       	pandn  %xmm14,%xmm12
    1a42:	66 44 0f 6f f3       	movdqa %xmm3,%xmm14
    1a47:	66 44 0f 66 f5       	pcmpgtd %xmm5,%xmm14
    1a4c:	66 0f fe e8          	paddd  %xmm0,%xmm5
    1a50:	66 45 0f eb e7       	por    %xmm15,%xmm12
    1a55:	66 41 0f fa e8       	psubd  %xmm8,%xmm5
    1a5a:	66 41 0f 76 d1       	pcmpeqd %xmm9,%xmm2
    1a5f:	66 44 0f 6f f9       	movdqa %xmm1,%xmm15
    1a64:	66 0f 66 ee          	pcmpgtd %xmm6,%xmm5
    1a68:	66 45 0f db fe       	pand   %xmm14,%xmm15
    1a6d:	66 44 0f df 34 24    	pandn  (%rsp),%xmm14
    1a73:	66 41 0f 76 e9       	pcmpeqd %xmm9,%xmm5
    1a78:	66 45 0f eb f7       	por    %xmm15,%xmm14
    1a7d:	66 44 0f 6f fa       	movdqa %xmm2,%xmm15
    1a82:	66 0f 61 d5          	punpcklwd %xmm5,%xmm2
    1a86:	66 44 0f 69 fd       	punpckhwd %xmm5,%xmm15
    1a8b:	66 0f 6f ea          	movdqa %xmm2,%xmm5
    1a8f:	66 41 0f 61 d7       	punpcklwd %xmm15,%xmm2
    1a94:	66 41 0f 69 ef       	punpckhwd %xmm15,%xmm5
    1a99:	66 44 0f 6f f8       	movdqa %xmm0,%xmm15
    1a9e:	66 0f 61 d5          	punpcklwd %xmm5,%xmm2
    1aa2:	66 41 0f 6f ec       	movdqa %xmm12,%xmm5
    1aa7:	66 45 0f 61 e6       	punpcklwd %xmm14,%xmm12
    1aac:	66 41 0f 69 ee       	punpckhwd %xmm14,%xmm5
    1ab1:	66 45 0f 6f f4       	movdqa %xmm12,%xmm14
    1ab6:	66 44 0f db ea       	pand   %xmm2,%xmm13
    1abb:	66 44 0f 69 f5       	punpckhwd %xmm5,%xmm14
    1ac0:	66 44 0f 61 e5       	punpcklwd %xmm5,%xmm12
    1ac5:	0f 28 2d c4 77 00 00 	movaps 0x77c4(%rip),%xmm5        # 9290 <src_f32+0xd0>
    1acc:	66 45 0f 61 e6       	punpcklwd %xmm14,%xmm12
    1ad1:	44 0f 28 f7          	movaps %xmm7,%xmm14
    1ad5:	0f 59 ec             	mulps  %xmm4,%xmm5
    1ad8:	66 41 0f df d4       	pandn  %xmm12,%xmm2
    1add:	66 44 0f eb ea       	por    %xmm2,%xmm13
    1ae2:	0f 28 15 97 77 00 00 	movaps 0x7797(%rip),%xmm2        # 9280 <src_f32+0xc0>
    1ae9:	44 0f 29 2d 9f 76 00 	movaps %xmm13,0x769f(%rip)        # 9190 <src+0x50>
    1af0:	00 
    1af1:	44 0f 28 ef          	movaps %xmm7,%xmm13
    1af5:	0f 59 d4             	mulps  %xmm4,%xmm2
    1af8:	44 0f 28 e2          	movaps %xmm2,%xmm12
    1afc:	45 0f c2 e3 01       	cmpltps %xmm11,%xmm12
    1b01:	45 0f 54 ec          	andps  %xmm12,%xmm13
    1b05:	45 0f 55 e2          	andnps %xmm10,%xmm12
    1b09:	45 0f 56 ec          	orps   %xmm12,%xmm13
    1b0d:	44 0f 28 e5          	movaps %xmm5,%xmm12
    1b11:	45 0f c2 e3 01       	cmpltps %xmm11,%xmm12
    1b16:	41 0f 58 d5          	addps  %xmm13,%xmm2
    1b1a:	45 0f 54 f4          	andps  %xmm12,%xmm14
    1b1e:	45 0f 55 e2          	andnps %xmm10,%xmm12
    1b22:	f3 0f 5b d2          	cvttps2dq %xmm2,%xmm2
    1b26:	66 44 0f 6f ea       	movdqa %xmm2,%xmm13
    1b2b:	45 0f 56 e6          	orps   %xmm14,%xmm12
    1b2f:	41 0f 58 ec          	addps  %xmm12,%xmm5
    1b33:	66 44 0f 6f e2       	movdqa %xmm2,%xmm12
    1b38:	f3 0f 5b ed          	cvttps2dq %xmm5,%xmm5
    1b3c:	66 44 0f 61 ed       	punpcklwd %xmm5,%xmm13
    1b41:	66 44 0f 69 e5       	punpckhwd %xmm5,%xmm12
    1b46:	66 45 0f 6f f5       	movdqa %xmm13,%xmm14
    1b4b:	66 45 0f 61 ec       	punpcklwd %xmm12,%xmm13
    1b50:	66 45 0f 69 f4       	punpckhwd %xmm12,%xmm14
    1b55:	66 44 0f 6f e0       	movdqa %xmm0,%xmm12
    1b5a:	66 45 0f 61 ee       	punpcklwd %xmm14,%xmm13
    1b5f:	66 44 0f 6f f2       	movdqa %xmm2,%xmm14
    1b64:	66 44 0f 66 f0       	pcmpgtd %xmm0,%xmm14
    1b69:	66 45 0f db e6       	pand   %xmm14,%xmm12
    1b6e:	66 44 0f df f1       	pandn  %xmm1,%xmm14
    1b73:	66 45 0f eb f4       	por    %xmm12,%xmm14
    1b78:	66 44 0f 6f e5       	movdqa %xmm5,%xmm12
    1b7d:	66 44 0f 66 e0       	pcmpgtd %xmm0,%xmm12
    1b82:	66 45 0f db fc       	pand   %xmm12,%xmm15
    1b87:	66 44 0f df e1       	pandn  %xmm1,%xmm12
    1b8c:	66 45 0f eb e7       	por    %xmm15,%xmm12
    1b91:	66 44 0f 6f fb       	movdqa %xmm3,%xmm15
    1b96:	66 44 0f 66 fa       	pcmpgtd %xmm2,%xmm15
    1b9b:	44 0f 29 24 24       	movaps %xmm12,(%rsp)
    1ba0:	66 0f fe d0          	paddd  %xmm0,%xmm2
    1ba4:	66 41 0f fa d0       	psubd  %xmm8,%xmm2
    1ba9:	66 0f 66 d6          	pcmpgtd %xmm6,%xmm2
    1bad:	66 45 0f 6f e7       	movdqa %xmm15,%xmm12
    1bb2:	66 44 0f 6f f9       	movdqa %xmm1,%xmm15
    1bb7:	66 45 0f db fc       	pand   %xmm12,%xmm15
    1bbc:	66 45 0f df e6       	pandn  %xmm14,%xmm12
    1bc1:	66 44 0f 6f f3       	movdqa %xmm3,%xmm14
    1bc6:	66 44 0f 66 f5       	pcmpgtd %xmm5,%xmm14
    1bcb:	66 0f fe e8          	paddd  %xmm0,%xmm5
    1bcf:	66 45 0f eb e7       	por    %xmm15,%xmm12
    1bd4:	66 41 0f fa e8       	psubd  %xmm8,%xmm5
    1bd9:	66 41 0f 76 d1       	pcmpeqd %xmm9,%xmm2
    1bde:	66 44 0f 6f f9       	movdqa %xmm1,%xmm15
    1be3:	66 0f 66 ee          	pcmpgtd %xmm6,%xmm5
    1be7:	66 45 0f db fe       	pand   %xmm14,%xmm15
    1bec:	66 44 0f df 34 24    	pandn  (%rsp),%xmm14
    1bf2:	66 41 0f 76 e9       	pcmpeqd %xmm9,%xmm5
    1bf7:	66 45 0f eb f7       	por    %xmm15,%xmm14
    1bfc:	66 44 0f 6f fa       	movdqa %xmm2,%xmm15
    1c01:	66 0f 61 d5          	punpcklwd %xmm5,%xmm2
    1c05:	66 44 0f 69 fd       	punpckhwd %xmm5,%xmm15
    1c0a:	66 0f 6f ea          	movdqa %xmm2,%xmm5
    1c0e:	66 41 0f 61 d7       	punpcklwd %xmm15,%xmm2
    1c13:	66 41 0f 69 ef       	punpckhwd %xmm15,%xmm5
    1c18:	66 0f 61 d5          	punpcklwd %xmm5,%xmm2
    1c1c:	66 41 0f 6f ec       	movdqa %xmm12,%xmm5
    1c21:	66 45 0f 61 e6       	punpcklwd %xmm14,%xmm12
    1c26:	66 41 0f 69 ee       	punpckhwd %xmm14,%xmm5
    1c2b:	66 45 0f 6f f4       	movdqa %xmm12,%xmm14
    1c30:	66 44 0f db ea       	pand   %xmm2,%xmm13
    1c35:	66 44 0f 69 f5       	punpckhwd %xmm5,%xmm14
    1c3a:	66 44 0f 61 e5       	punpcklwd %xmm5,%xmm12
    1c3f:	0f 28 ef             	movaps %xmm7,%xmm5
    1c42:	66 45 0f 61 e6       	punpcklwd %xmm14,%xmm12
    1c47:	66 41 0f df d4       	pandn  %xmm12,%xmm2
    1c4c:	44 0f 28 25 4c 76 00 	movaps 0x764c(%rip),%xmm12        # 92a0 <src_f32+0xe0>
    1c53:	00 
    1c54:	66 44 0f eb ea       	por    %xmm2,%xmm13
    1c59:	44 0f 59 e4          	mulps  %xmm4,%xmm12
    1c5d:	44 0f 29 2d 3b 75 00 	movaps %xmm13,0x753b(%rip)        # 91a0 <src+0x60>
    1c64:	00 
    1c65:	0f 59 25 44 76 00 00 	mulps  0x7644(%rip),%xmm4        # 92b0 <src_f32+0xf0>
    1c6c:	41 0f 28 d4          	movaps %xmm12,%xmm2
    1c70:	41 0f c2 d3 01       	cmpltps %xmm11,%xmm2
    1c75:	0f 54 ea             	andps  %xmm2,%xmm5
    1c78:	41 0f 55 d2          	andnps %xmm10,%xmm2
    1c7c:	0f 56 d5             	orps   %xmm5,%xmm2
    1c7f:	0f 28 ec             	movaps %xmm4,%xmm5
    1c82:	41 0f c2 eb 01       	cmpltps %xmm11,%xmm5
    1c87:	41 0f 58 d4          	addps  %xmm12,%xmm2
    1c8b:	66 44 0f 6f e1       	movdqa %xmm1,%xmm12
    1c90:	0f 54 fd             	andps  %xmm5,%xmm7
    1c93:	41 0f 55 ea          	andnps %xmm10,%xmm5
    1c97:	f3 0f 5b d2          	cvttps2dq %xmm2,%xmm2
    1c9b:	0f 56 fd             	orps   %xmm5,%xmm7
    1c9e:	66 0f 6f ea          	movdqa %xmm2,%xmm5
    1ca2:	0f 58 e7             	addps  %xmm7,%xmm4
    1ca5:	f3 0f 5b fc          	cvttps2dq %xmm4,%xmm7
    1ca9:	66 0f 6f e2          	movdqa %xmm2,%xmm4
    1cad:	66 0f 61 ef          	punpcklwd %xmm7,%xmm5
    1cb1:	66 0f 69 e7          	punpckhwd %xmm7,%xmm4
    1cb5:	66 44 0f 6f d5       	movdqa %xmm5,%xmm10
    1cba:	66 44 0f 69 d4       	punpckhwd %xmm4,%xmm10
    1cbf:	66 0f 61 ec          	punpcklwd %xmm4,%xmm5
    1cc3:	66 0f 6f e2          	movdqa %xmm2,%xmm4
    1cc7:	66 0f 66 e0          	pcmpgtd %xmm0,%xmm4
    1ccb:	66 41 0f 61 ea       	punpcklwd %xmm10,%xmm5
    1cd0:	66 44 0f 6f d0       	movdqa %xmm0,%xmm10
    1cd5:	66 44 0f db d4       	pand   %xmm4,%xmm10
    1cda:	66 0f df e1          	pandn  %xmm1,%xmm4
    1cde:	66 41 0f eb e2       	por    %xmm10,%xmm4
    1ce3:	66 44 0f 6f d0       	movdqa %xmm0,%xmm10
    1ce8:	66 44 0f 6f dc       	movdqa %xmm4,%xmm11
    1ced:	66 0f 6f e7          	movdqa %xmm7,%xmm4
    1cf1:	66 0f 66 e0          	pcmpgtd %xmm0,%xmm4
    1cf5:	66 44 0f db d4       	pand   %xmm4,%xmm10
    1cfa:	66 0f df e1          	pandn  %xmm1,%xmm4
    1cfe:	66 44 0f eb d4       	por    %xmm4,%xmm10
    1d03:	66 0f 6f e3          	movdqa %xmm3,%xmm4
    1d07:	66 0f 66 df          	pcmpgtd %xmm7,%xmm3
    1d0b:	66 0f 66 e2          	pcmpgtd %xmm2,%xmm4
    1d0f:	66 0f fe f8          	paddd  %xmm0,%xmm7
    1d13:	66 0f db cb          	pand   %xmm3,%xmm1
    1d17:	66 41 0f df da       	pandn  %xmm10,%xmm3
    1d1c:	66 44 0f db e4       	pand   %xmm4,%xmm12
    1d21:	66 0f eb d9          	por    %xmm1,%xmm3
    1d25:	66 0f 6f ca          	movdqa %xmm2,%xmm1
    1d29:	66 0f 6f d7          	movdqa %xmm7,%xmm2
    1d2d:	66 0f fe c8          	paddd  %xmm0,%xmm1
    1d31:	66 41 0f fa d0       	psubd  %xmm8,%xmm2
    1d36:	66 41 0f df e3       	pandn  %xmm11,%xmm4
    1d3b:	66 41 0f fa c8       	psubd  %xmm8,%xmm1
    1d40:	66 0f 66 d6          	pcmpgtd %xmm6,%xmm2
    1d44:	66 41 0f eb e4       	por    %xmm12,%xmm4
    1d49:	66 0f 66 ce          	pcmpgtd %xmm6,%xmm1
    1d4d:	66 41 0f 76 d1       	pcmpeqd %xmm9,%xmm2
    1d52:	66 41 0f 76 c9       	pcmpeqd %xmm9,%xmm1
    1d57:	66 0f 6f c1          	movdqa %xmm1,%xmm0
    1d5b:	66 0f 6f f1          	movdqa %xmm1,%xmm6
    1d5f:	66 0f 61 c2          	punpcklwd %xmm2,%xmm0
    1d63:	66 0f 69 f2          	punpckhwd %xmm2,%xmm6
    1d67:	66 0f 6f c8          	movdqa %xmm0,%xmm1
    1d6b:	66 0f 61 c6          	punpcklwd %xmm6,%xmm0
    1d6f:	66 0f 69 ce          	punpckhwd %xmm6,%xmm1
    1d73:	66 0f 61 c1          	punpcklwd %xmm1,%xmm0
    1d77:	66 0f 6f cc          	movdqa %xmm4,%xmm1
    1d7b:	66 0f 61 e3          	punpcklwd %xmm3,%xmm4
    1d7f:	66 0f 69 cb          	punpckhwd %xmm3,%xmm1
    1d83:	66 0f 6f d4          	movdqa %xmm4,%xmm2
    1d87:	66 0f db e8          	pand   %xmm0,%xmm5
    1d8b:	66 0f 69 d1          	punpckhwd %xmm1,%xmm2
    1d8f:	66 0f 61 e1          	punpcklwd %xmm1,%xmm4
    1d93:	66 0f 61 e2          	punpcklwd %xmm2,%xmm4
    1d97:	66 0f df c4          	pandn  %xmm4,%xmm0
    1d9b:	66 0f eb c5          	por    %xmm5,%xmm0
    1d9f:	0f 29 05 0a 74 00 00 	movaps %xmm0,0x740a(%rip)        # 91b0 <src+0x70>
    1da6:	e8 15 04 00 00       	call   21c0 <riscv_dsp_rfft_q15>
    1dab:	66 0f 6f 05 8d 73 00 	movdqa 0x738d(%rip),%xmm0        # 9140 <src>
    1db2:	00 
    1db3:	48 89 ee             	mov    %rbp,%rsi
    1db6:	48 8d 3d 4c 53 00 00 	lea    0x534c(%rip),%rdi        # 7109 <_IO_stdin_used+0x109>
    1dbd:	48 c7 44 24 10 00 00 	movq   $0x0,0x10(%rsp)
    1dc4:	00 00 
    1dc6:	66 0f 71 f0 01       	psllw  $0x1,%xmm0
    1dcb:	0f 29 05 6e 73 00 00 	movaps %xmm0,0x736e(%rip)        # 9140 <src>
    1dd2:	66 0f 6f 05 76 73 00 	movdqa 0x7376(%rip),%xmm0        # 9150 <src+0x10>
    1dd9:	00 
    1dda:	66 0f 71 f0 01       	psllw  $0x1,%xmm0
    1ddf:	0f 29 05 6a 73 00 00 	movaps %xmm0,0x736a(%rip)        # 9150 <src+0x10>
    1de6:	66 0f 6f 05 72 73 00 	movdqa 0x7372(%rip),%xmm0        # 9160 <src+0x20>
    1ded:	00 
    1dee:	66 0f 71 f0 01       	psllw  $0x1,%xmm0
    1df3:	0f 29 05 66 73 00 00 	movaps %xmm0,0x7366(%rip)        # 9160 <src+0x20>
    1dfa:	66 0f 6f 05 6e 73 00 	movdqa 0x736e(%rip),%xmm0        # 9170 <src+0x30>
    1e01:	00 
    1e02:	66 0f 71 f0 01       	psllw  $0x1,%xmm0
    1e07:	0f 29 05 62 73 00 00 	movaps %xmm0,0x7362(%rip)        # 9170 <src+0x30>
    1e0e:	66 0f 6f 05 6a 73 00 	movdqa 0x736a(%rip),%xmm0        # 9180 <src+0x40>
    1e15:	00 
    1e16:	66 0f 71 f0 01       	psllw  $0x1,%xmm0
    1e1b:	0f 29 05 5e 73 00 00 	movaps %xmm0,0x735e(%rip)        # 9180 <src+0x40>
    1e22:	66 0f 6f 05 66 73 00 	movdqa 0x7366(%rip),%xmm0        # 9190 <src+0x50>
    1e29:	00 
    1e2a:	66 0f 71 f0 01       	psllw  $0x1,%xmm0
    1e2f:	0f 29 05 5a 73 00 00 	movaps %xmm0,0x735a(%rip)        # 9190 <src+0x50>
    1e36:	66 0f 6f 05 62 73 00 	movdqa 0x7362(%rip),%xmm0        # 91a0 <src+0x60>
    1e3d:	00 
    1e3e:	66 0f 71 f0 01       	psllw  $0x1,%xmm0
    1e43:	0f 29 05 56 73 00 00 	movaps %xmm0,0x7356(%rip)        # 91a0 <src+0x60>
    1e4a:	66 0f 6f 05 5e 73 00 	movdqa 0x735e(%rip),%xmm0        # 91b0 <src+0x70>
    1e51:	00 
    1e52:	66 0f 71 f0 01       	psllw  $0x1,%xmm0
    1e57:	0f 29 05 52 73 00 00 	movaps %xmm0,0x7352(%rip)        # 91b0 <src+0x70>
    1e5e:	e8 bd 02 00 00       	call   2120 <test_Fopen.constprop.0.isra.0>
    1e63:	48 8b 6c 24 10       	mov    0x10(%rsp),%rbp
    1e68:	ba 41 00 00 00       	mov    $0x41,%edx
    1e6d:	be 02 00 00 00       	mov    $0x2,%esi
    1e72:	48 8d 3d 07 72 00 00 	lea    0x7207(%rip),%rdi        # 9080 <golden>
    1e79:	48 89 e9             	mov    %rbp,%rcx
    1e7c:	e8 3f f2 ff ff       	call   10c0 <fread@plt>
    1e81:	48 89 ef             	mov    %rbp,%rdi
    1e84:	e8 47 f2 ff ff       	call   10d0 <fclose@plt>
    1e89:	66 0f ef c9          	pxor   %xmm1,%xmm1
    1e8d:	66 0f 6f 15 db 72 00 	movdqa 0x72db(%rip),%xmm2        # 9170 <src+0x30>
    1e94:	00 
    1e95:	66 0f f9 15 13 72 00 	psubw  0x7213(%rip),%xmm2        # 90b0 <golden+0x30>
    1e9c:	00 
    1e9d:	66 0f 6f c1          	movdqa %xmm1,%xmm0
    1ea1:	0f b7 05 58 72 00 00 	movzwl 0x7258(%rip),%eax        # 9100 <golden+0x80>
    1ea8:	66 0f 6f d9          	movdqa %xmm1,%xmm3
    1eac:	66 0f 6f e1          	movdqa %xmm1,%xmm4
    1eb0:	66 0f f9 c2          	psubw  %xmm2,%xmm0
    1eb4:	48 8d 35 64 52 00 00 	lea    0x5264(%rip),%rsi        # 711f <_IO_stdin_used+0x11f>
    1ebb:	bf 01 00 00 00       	mov    $0x1,%edi
    1ec0:	66 0f ee c2          	pmaxsw %xmm2,%xmm0
    1ec4:	66 0f 6f 15 94 72 00 	movdqa 0x7294(%rip),%xmm2        # 9160 <src+0x20>
    1ecb:	00 
    1ecc:	66 0f f9 15 cc 71 00 	psubw  0x71cc(%rip),%xmm2        # 90a0 <golden+0x20>
    1ed3:	00 
    1ed4:	66 89 05 a7 71 00 00 	mov    %ax,0x71a7(%rip)        # 9082 <golden+0x2>
    1edb:	31 c0                	xor    %eax,%eax
    1edd:	66 0f f9 da          	psubw  %xmm2,%xmm3
    1ee1:	66 0f ee d3          	pmaxsw %xmm3,%xmm2
    1ee5:	66 0f 6f 1d 53 72 00 	movdqa 0x7253(%rip),%xmm3        # 9140 <src>
    1eec:	00 
    1eed:	66 0f f9 1d 8b 71 00 	psubw  0x718b(%rip),%xmm3        # 9080 <golden>
    1ef4:	00 
    1ef5:	66 0f ee c2          	pmaxsw %xmm2,%xmm0
    1ef9:	66 0f 6f d1          	movdqa %xmm1,%xmm2
    1efd:	66 0f f9 d3          	psubw  %xmm3,%xmm2
    1f01:	66 0f ee d3          	pmaxsw %xmm3,%xmm2
    1f05:	66 0f 6f 1d 43 72 00 	movdqa 0x7243(%rip),%xmm3        # 9150 <src+0x10>
    1f0c:	00 
    1f0d:	66 0f f9 1d 7b 71 00 	psubw  0x717b(%rip),%xmm3        # 9090 <golden+0x10>
    1f14:	00 
    1f15:	66 0f f9 e3          	psubw  %xmm3,%xmm4
    1f19:	66 0f ee dc          	pmaxsw %xmm4,%xmm3
    1f1d:	66 0f 6f e1          	movdqa %xmm1,%xmm4
    1f21:	66 0f ee d3          	pmaxsw %xmm3,%xmm2
    1f25:	66 0f 6f 1d 63 72 00 	movdqa 0x7263(%rip),%xmm3        # 9190 <src+0x50>
    1f2c:	00 
    1f2d:	66 0f f9 1d 9b 71 00 	psubw  0x719b(%rip),%xmm3        # 90d0 <golden+0x50>
    1f34:	00 
    1f35:	66 0f ee c2          	pmaxsw %xmm2,%xmm0
    1f39:	66 0f 6f d1          	movdqa %xmm1,%xmm2
    1f3d:	66 0f f9 d3          	psubw  %xmm3,%xmm2
    1f41:	66 0f ee d3          	pmaxsw %xmm3,%xmm2
    1f45:	66 0f 6f 1d 33 72 00 	movdqa 0x7233(%rip),%xmm3        # 9180 <src+0x40>
    1f4c:	00 
    1f4d:	66 0f f9 1d 6b 71 00 	psubw  0x716b(%rip),%xmm3        # 90c0 <golden+0x40>
    1f54:	00 
    1f55:	66 0f f9 e3          	psubw  %xmm3,%xmm4
    1f59:	66 0f ee dc          	pmaxsw %xmm4,%xmm3
    1f5d:	66 0f ee d3          	pmaxsw %xmm3,%xmm2
    1f61:	66 0f 6f 1d 37 72 00 	movdqa 0x7237(%rip),%xmm3        # 91a0 <src+0x60>
    1f68:	00 
    1f69:	66 0f f9 1d 6f 71 00 	psubw  0x716f(%rip),%xmm3        # 90e0 <golden+0x60>
    1f70:	00 
    1f71:	66 0f ee d1          	pmaxsw %xmm1,%xmm2
    1f75:	66 0f ee c2          	pmaxsw %xmm2,%xmm0
    1f79:	66 0f 6f d1          	movdqa %xmm1,%xmm2
    1f7d:	66 0f f9 d3          	psubw  %xmm3,%xmm2
    1f81:	66 0f ee d3          	pmaxsw %xmm3,%xmm2
    1f85:	66 0f 6f 1d 23 72 00 	movdqa 0x7223(%rip),%xmm3        # 91b0 <src+0x70>
    1f8c:	00 
    1f8d:	66 0f f9 1d 5b 71 00 	psubw  0x715b(%rip),%xmm3        # 90f0 <golden+0x70>
    1f94:	00 
    1f95:	66 0f f9 cb          	psubw  %xmm3,%xmm1
    1f99:	66 0f ee cb          	pmaxsw %xmm3,%xmm1
    1f9d:	66 0f ee ca          	pmaxsw %xmm2,%xmm1
    1fa1:	66 0f ee c1          	pmaxsw %xmm1,%xmm0
    1fa5:	66 0f 6f c8          	movdqa %xmm0,%xmm1
    1fa9:	66 0f 73 d9 08       	psrldq $0x8,%xmm1
    1fae:	66 0f ee c1          	pmaxsw %xmm1,%xmm0
    1fb2:	66 0f 6f c8          	movdqa %xmm0,%xmm1
    1fb6:	66 0f 73 d9 04       	psrldq $0x4,%xmm1
    1fbb:	66 0f ee c1          	pmaxsw %xmm1,%xmm0
    1fbf:	66 0f 6f c8          	movdqa %xmm0,%xmm1
    1fc3:	66 0f 73 d9 02       	psrldq $0x2,%xmm1
    1fc8:	66 0f ee c1          	pmaxsw %xmm1,%xmm0
    1fcc:	66 0f c5 d8 00       	pextrw $0x0,%xmm0,%ebx
    1fd1:	0f bf d3             	movswl %bx,%edx
    1fd4:	e8 17 f1 ff ff       	call   10f0 <__printf_chk@plt>
    1fd9:	ba 40 00 00 00       	mov    $0x40,%edx
    1fde:	66 83 fb 64          	cmp    $0x64,%bx
    1fe2:	7f 2e                	jg     2012 <main+0xef2>
    1fe4:	48 8d 35 b5 50 00 00 	lea    0x50b5(%rip),%rsi        # 70a0 <_IO_stdin_used+0xa0>
    1feb:	bf 01 00 00 00       	mov    $0x1,%edi
    1ff0:	31 c0                	xor    %eax,%eax
    1ff2:	e8 f9 f0 ff ff       	call   10f0 <__printf_chk@plt>
    1ff7:	31 c0                	xor    %eax,%eax
    1ff9:	48 8b 54 24 18       	mov    0x18(%rsp),%rdx
    1ffe:	64 48 2b 14 25 28 00 	sub    %fs:0x28,%rdx
    2005:	00 00 
    2007:	75 21                	jne    202a <main+0xf0a>
    2009:	48 83 c4 20          	add    $0x20,%rsp
    200d:	5b                   	pop    %rbx
    200e:	5d                   	pop    %rbp
    200f:	41 5c                	pop    %r12
    2011:	c3                   	ret    
    2012:	48 8d 35 5f 50 00 00 	lea    0x505f(%rip),%rsi        # 7078 <_IO_stdin_used+0x78>
    2019:	bf 01 00 00 00       	mov    $0x1,%edi
    201e:	31 c0                	xor    %eax,%eax
    2020:	e8 cb f0 ff ff       	call   10f0 <__printf_chk@plt>
    2025:	83 c8 ff             	or     $0xffffffff,%eax
    2028:	eb cf                	jmp    1ff9 <main+0xed9>
    202a:	e8 b1 f0 ff ff       	call   10e0 <__stack_chk_fail@plt>
    202f:	90                   	nop

0000000000002030 <_start>:
    2030:	f3 0f 1e fa          	endbr64 
    2034:	31 ed                	xor    %ebp,%ebp
    2036:	49 89 d1             	mov    %rdx,%r9
    2039:	5e                   	pop    %rsi
    203a:	48 89 e2             	mov    %rsp,%rdx
    203d:	48 83 e4 f0          	and    $0xfffffffffffffff0,%rsp
    2041:	50                   	push   %rax
    2042:	54                   	push   %rsp
    2043:	45 31 c0             	xor    %r8d,%r8d
    2046:	31 c9                	xor    %ecx,%ecx
    2048:	48 8d 3d d1 f0 ff ff 	lea    -0xf2f(%rip),%rdi        # 1120 <main>
    204f:	ff 15 83 6f 00 00    	call   *0x6f83(%rip)        # 8fd8 <__libc_start_main@GLIBC_2.34>
    2055:	f4                   	hlt    
    2056:	66 2e 0f 1f 84 00 00 	cs nopw 0x0(%rax,%rax,1)
    205d:	00 00 00 

0000000000002060 <deregister_tm_clones>:
    2060:	48 8d 3d a9 6f 00 00 	lea    0x6fa9(%rip),%rdi        # 9010 <__TMC_END__>
    2067:	48 8d 05 a2 6f 00 00 	lea    0x6fa2(%rip),%rax        # 9010 <__TMC_END__>
    206e:	48 39 f8             	cmp    %rdi,%rax
    2071:	74 15                	je     2088 <deregister_tm_clones+0x28>
    2073:	48 8b 05 66 6f 00 00 	mov    0x6f66(%rip),%rax        # 8fe0 <_ITM_deregisterTMCloneTable@Base>
    207a:	48 85 c0             	test   %rax,%rax
    207d:	74 09                	je     2088 <deregister_tm_clones+0x28>
    207f:	ff e0                	jmp    *%rax
    2081:	0f 1f 80 00 00 00 00 	nopl   0x0(%rax)
    2088:	c3                   	ret    
    2089:	0f 1f 80 00 00 00 00 	nopl   0x0(%rax)

0000000000002090 <register_tm_clones>:
    2090:	48 8d 3d 79 6f 00 00 	lea    0x6f79(%rip),%rdi        # 9010 <__TMC_END__>
    2097:	48 8d 35 72 6f 00 00 	lea    0x6f72(%rip),%rsi        # 9010 <__TMC_END__>
    209e:	48 29 fe             	sub    %rdi,%rsi
    20a1:	48 89 f0             	mov    %rsi,%rax
    20a4:	48 c1 ee 3f          	shr    $0x3f,%rsi
    20a8:	48 c1 f8 03          	sar    $0x3,%rax
    20ac:	48 01 c6             	add    %rax,%rsi
    20af:	48 d1 fe             	sar    %rsi
    20b2:	74 14                	je     20c8 <register_tm_clones+0x38>
    20b4:	48 8b 05 35 6f 00 00 	mov    0x6f35(%rip),%rax        # 8ff0 <_ITM_registerTMCloneTable@Base>
    20bb:	48 85 c0             	test   %rax,%rax
    20be:	74 08                	je     20c8 <register_tm_clones+0x38>
    20c0:	ff e0                	jmp    *%rax
    20c2:	66 0f 1f 44 00 00    	nopw   0x0(%rax,%rax,1)
    20c8:	c3                   	ret    
    20c9:	0f 1f 80 00 00 00 00 	nopl   0x0(%rax)

00000000000020d0 <__do_global_dtors_aux>:
    20d0:	f3 0f 1e fa          	endbr64 
    20d4:	80 3d 65 6f 00 00 00 	cmpb   $0x0,0x6f65(%rip)        # 9040 <completed.0>
    20db:	75 2b                	jne    2108 <__do_global_dtors_aux+0x38>
    20dd:	55                   	push   %rbp
    20de:	48 83 3d 12 6f 00 00 	cmpq   $0x0,0x6f12(%rip)        # 8ff8 <__cxa_finalize@GLIBC_2.2.5>
    20e5:	00 
    20e6:	48 89 e5             	mov    %rsp,%rbp
    20e9:	74 0c                	je     20f7 <__do_global_dtors_aux+0x27>
    20eb:	48 8b 3d 16 6f 00 00 	mov    0x6f16(%rip),%rdi        # 9008 <__dso_handle>
    20f2:	e8 a9 ef ff ff       	call   10a0 <__cxa_finalize@plt>
    20f7:	e8 64 ff ff ff       	call   2060 <deregister_tm_clones>
    20fc:	c6 05 3d 6f 00 00 01 	movb   $0x1,0x6f3d(%rip)        # 9040 <completed.0>
    2103:	5d                   	pop    %rbp
    2104:	c3                   	ret    
    2105:	0f 1f 00             	nopl   (%rax)
    2108:	c3                   	ret    
    2109:	0f 1f 80 00 00 00 00 	nopl   0x0(%rax)

0000000000002110 <frame_dummy>:
    2110:	f3 0f 1e fa          	endbr64 
    2114:	e9 77 ff ff ff       	jmp    2090 <register_tm_clones>
    2119:	0f 1f 80 00 00 00 00 	nopl   0x0(%rax)

0000000000002120 <test_Fopen.constprop.0.isra.0>:
    2120:	41 54                	push   %r12
    2122:	49 89 f9             	mov    %rdi,%r9
    2125:	49 89 fc             	mov    %rdi,%r12
    2128:	4c 8d 05 d9 4e 00 00 	lea    0x4ed9(%rip),%r8        # 7008 <_IO_stdin_used+0x8>
    212f:	55                   	push   %rbp
    2130:	48 8d 0d 91 4f 00 00 	lea    0x4f91(%rip),%rcx        # 70c8 <_IO_stdin_used+0xc8>
    2137:	ba 00 04 00 00       	mov    $0x400,%edx
    213c:	53                   	push   %rbx
    213d:	48 89 f3             	mov    %rsi,%rbx
    2140:	be 01 00 00 00       	mov    $0x1,%esi
    2145:	48 81 ec 10 04 00 00 	sub    $0x410,%rsp
    214c:	64 48 8b 04 25 28 00 	mov    %fs:0x28,%rax
    2153:	00 00 
    2155:	48 89 84 24 08 04 00 	mov    %rax,0x408(%rsp)
    215c:	00 
    215d:	31 c0                	xor    %eax,%eax
    215f:	48 89 e5             	mov    %rsp,%rbp
    2162:	48 89 ef             	mov    %rbp,%rdi
    2165:	e8 a6 ef ff ff       	call   1110 <__sprintf_chk@plt>
    216a:	48 8d 35 5d 4f 00 00 	lea    0x4f5d(%rip),%rsi        # 70ce <_IO_stdin_used+0xce>
    2171:	48 89 ef             	mov    %rbp,%rdi
    2174:	e8 87 ef ff ff       	call   1100 <fopen@plt>
    2179:	48 89 03             	mov    %rax,(%rbx)
    217c:	48 85 c0             	test   %rax,%rax
    217f:	74 1f                	je     21a0 <test_Fopen.constprop.0.isra.0+0x80>
    2181:	48 8b 84 24 08 04 00 	mov    0x408(%rsp),%rax
    2188:	00 
    2189:	64 48 2b 04 25 28 00 	sub    %fs:0x28,%rax
    2190:	00 00 
    2192:	75 22                	jne    21b6 <test_Fopen.constprop.0.isra.0+0x96>
    2194:	48 81 c4 10 04 00 00 	add    $0x410,%rsp
    219b:	5b                   	pop    %rbx
    219c:	5d                   	pop    %rbp
    219d:	41 5c                	pop    %r12
    219f:	c3                   	ret    
    21a0:	4c 89 e2             	mov    %r12,%rdx
    21a3:	48 8d 35 27 4f 00 00 	lea    0x4f27(%rip),%rsi        # 70d1 <_IO_stdin_used+0xd1>
    21aa:	bf 01 00 00 00       	mov    $0x1,%edi
    21af:	e8 3c ef ff ff       	call   10f0 <__printf_chk@plt>
    21b4:	eb cb                	jmp    2181 <test_Fopen.constprop.0.isra.0+0x61>
    21b6:	e8 25 ef ff ff       	call   10e0 <__stack_chk_fail@plt>
    21bb:	0f 1f 44 00 00       	nopl   0x0(%rax,%rax,1)

00000000000021c0 <riscv_dsp_rfft_q15>:
    21c0:	f3 0f 1e fa          	endbr64 
    21c4:	41 57                	push   %r15
    21c6:	41 56                	push   %r14
    21c8:	41 55                	push   %r13
    21ca:	41 54                	push   %r12
    21cc:	55                   	push   %rbp
    21cd:	89 f5                	mov    %esi,%ebp
    21cf:	83 ee 01             	sub    $0x1,%esi
    21d2:	53                   	push   %rbx
    21d3:	48 89 fb             	mov    %rdi,%rbx
    21d6:	48 83 ec 18          	sub    $0x18,%rsp
    21da:	e8 41 03 00 00       	call   2520 <riscv_dsp_cfft_q15>
    21df:	41 b9 01 00 00 00    	mov    $0x1,%r9d
    21e5:	89 e9                	mov    %ebp,%ecx
    21e7:	41 d3 e1             	shl    %cl,%r9d
    21ea:	41 c1 e9 02          	shr    $0x2,%r9d
    21ee:	0f 84 4f 01 00 00    	je     2343 <riscv_dsp_rfft_q15+0x183>
    21f4:	b8 0a 00 00 00       	mov    $0xa,%eax
    21f9:	43 8d 34 09          	lea    (%r9,%r9,1),%esi
    21fd:	49 89 de             	mov    %rbx,%r14
    2200:	29 e8                	sub    %ebp,%eax
    2202:	49 89 f2             	mov    %rsi,%r10
    2205:	4c 8d 04 73          	lea    (%rbx,%rsi,2),%r8
    2209:	89 44 24 0c          	mov    %eax,0xc(%rsp)
    220d:	e9 a0 00 00 00       	jmp    22b2 <riscv_dsp_rfft_q15+0xf2>
    2212:	66 0f 1f 44 00 00    	nopw   0x0(%rax,%rax,1)
    2218:	48 8d 1d c5 53 00 00 	lea    0x53c5(%rip),%rbx        # 75e4 <riscv_dsp_cos_table_q15_1024+0x4>
    221f:	48 98                	cltq   
    2221:	48 63 d2             	movslq %edx,%rdx
    2224:	0f b7 04 43          	movzwl (%rbx,%rax,2),%eax
    2228:	0f b7 3c 53          	movzwl (%rbx,%rdx,2),%edi
    222c:	41 8d 52 01          	lea    0x1(%r10),%edx
    2230:	41 0f bf 08          	movswl (%r8),%ecx
    2234:	49 8d 1c 76          	lea    (%r14,%rsi,2),%rbx
    2238:	98                   	cwtl   
    2239:	4d 8d 1c 56          	lea    (%r14,%rdx,2),%r11
    223d:	44 0f bf 2b          	movswl (%rbx),%r13d
    2241:	41 0f bf 70 02       	movswl 0x2(%r8),%esi
    2246:	0f bf ff             	movswl %di,%edi
    2249:	41 0f bf 13          	movswl (%r11),%edx
    224d:	89 cd                	mov    %ecx,%ebp
    224f:	41 89 ff             	mov    %edi,%r15d
    2252:	49 83 e8 04          	sub    $0x4,%r8
    2256:	44 29 ed             	sub    %r13d,%ebp
    2259:	44 01 e9             	add    %r13d,%ecx
    225c:	41 83 c2 02          	add    $0x2,%r10d
    2260:	0f af fd             	imul   %ebp,%edi
    2263:	44 8d 24 16          	lea    (%rsi,%rdx,1),%r12d
    2267:	29 d6                	sub    %edx,%esi
    2269:	89 c2                	mov    %eax,%edx
    226b:	41 0f af c4          	imul   %r12d,%eax
    226f:	c1 f9 02             	sar    $0x2,%ecx
    2272:	c1 fe 02             	sar    $0x2,%esi
    2275:	0f af d5             	imul   %ebp,%edx
    2278:	45 0f af fc          	imul   %r12d,%r15d
    227c:	29 f8                	sub    %edi,%eax
    227e:	c1 f8 11             	sar    $0x11,%eax
    2281:	8d 3c 08             	lea    (%rax,%rcx,1),%edi
    2284:	44 01 fa             	add    %r15d,%edx
    2287:	29 c1                	sub    %eax,%ecx
    2289:	66 41 89 78 04       	mov    %di,0x4(%r8)
    228e:	c1 fa 11             	sar    $0x11,%edx
    2291:	89 f7                	mov    %esi,%edi
    2293:	29 d7                	sub    %edx,%edi
    2295:	f7 da                	neg    %edx
    2297:	29 f2                	sub    %esi,%edx
    2299:	66 41 89 78 06       	mov    %di,0x6(%r8)
    229e:	66 89 0b             	mov    %cx,(%rbx)
    22a1:	66 41 89 13          	mov    %dx,(%r11)
    22a5:	41 83 e9 01          	sub    $0x1,%r9d
    22a9:	0f 84 91 00 00 00    	je     2340 <riscv_dsp_rfft_q15+0x180>
    22af:	44 89 d6             	mov    %r10d,%esi
    22b2:	0f b6 4c 24 0c       	movzbl 0xc(%rsp),%ecx
    22b7:	44 89 c8             	mov    %r9d,%eax
    22ba:	ba 00 01 00 00       	mov    $0x100,%edx
    22bf:	d3 e0                	shl    %cl,%eax
    22c1:	29 c2                	sub    %eax,%edx
    22c3:	85 d2                	test   %edx,%edx
    22c5:	0f 8f 4d ff ff ff    	jg     2218 <riscv_dsp_rfft_q15+0x58>
    22cb:	8d 90 00 ff ff ff    	lea    -0x100(%rax),%edx
    22d1:	b9 00 01 00 00       	mov    $0x100,%ecx
    22d6:	29 d1                	sub    %edx,%ecx
    22d8:	85 c9                	test   %ecx,%ecx
    22da:	7e 24                	jle    2300 <riscv_dsp_rfft_q15+0x140>
    22dc:	48 8d 1d 01 53 00 00 	lea    0x5301(%rip),%rbx        # 75e4 <riscv_dsp_cos_table_q15_1024+0x4>
    22e3:	48 63 c9             	movslq %ecx,%rcx
    22e6:	48 63 d2             	movslq %edx,%rdx
    22e9:	0f b7 04 4b          	movzwl (%rbx,%rcx,2),%eax
    22ed:	0f b7 3c 53          	movzwl (%rbx,%rdx,2),%edi
    22f1:	f7 d8                	neg    %eax
    22f3:	e9 34 ff ff ff       	jmp    222c <riscv_dsp_rfft_q15+0x6c>
    22f8:	0f 1f 84 00 00 00 00 	nopl   0x0(%rax,%rax,1)
    22ff:	00 
    2300:	8d 90 00 fe ff ff    	lea    -0x200(%rax),%edx
    2306:	b9 00 01 00 00       	mov    $0x100,%ecx
    230b:	48 8d 1d d2 52 00 00 	lea    0x52d2(%rip),%rbx        # 75e4 <riscv_dsp_cos_table_q15_1024+0x4>
    2312:	29 d1                	sub    %edx,%ecx
    2314:	48 63 d2             	movslq %edx,%rdx
    2317:	0f b7 3c 53          	movzwl (%rbx,%rdx,2),%edi
    231b:	48 63 c1             	movslq %ecx,%rax
    231e:	0f b7 04 43          	movzwl (%rbx,%rax,2),%eax
    2322:	f7 df                	neg    %edi
    2324:	85 c9                	test   %ecx,%ecx
    2326:	0f 8e 00 ff ff ff    	jle    222c <riscv_dsp_rfft_q15+0x6c>
    232c:	f7 d8                	neg    %eax
    232e:	89 c2                	mov    %eax,%edx
    2330:	89 f8                	mov    %edi,%eax
    2332:	89 d7                	mov    %edx,%edi
    2334:	e9 f3 fe ff ff       	jmp    222c <riscv_dsp_rfft_q15+0x6c>
    2339:	0f 1f 80 00 00 00 00 	nopl   0x0(%rax)
    2340:	4c 89 f3             	mov    %r14,%rbx
    2343:	0f bf 03             	movswl (%rbx),%eax
    2346:	0f bf 4b 02          	movswl 0x2(%rbx),%ecx
    234a:	8d 14 01             	lea    (%rcx,%rax,1),%edx
    234d:	29 c8                	sub    %ecx,%eax
    234f:	d1 f8                	sar    %eax
    2351:	d1 fa                	sar    %edx
    2353:	66 89 43 02          	mov    %ax,0x2(%rbx)
    2357:	31 c0                	xor    %eax,%eax
    2359:	66 89 13             	mov    %dx,(%rbx)
    235c:	48 83 c4 18          	add    $0x18,%rsp
    2360:	5b                   	pop    %rbx
    2361:	5d                   	pop    %rbp
    2362:	41 5c                	pop    %r12
    2364:	41 5d                	pop    %r13
    2366:	41 5e                	pop    %r14
    2368:	41 5f                	pop    %r15
    236a:	c3                   	ret    
    236b:	0f 1f 44 00 00       	nopl   0x0(%rax,%rax,1)

0000000000002370 <riscv_dsp_rifft_q15>:
    2370:	f3 0f 1e fa          	endbr64 
    2374:	41 57                	push   %r15
    2376:	41 b9 01 00 00 00    	mov    $0x1,%r9d
    237c:	89 f1                	mov    %esi,%ecx
    237e:	49 89 fb             	mov    %rdi,%r11
    2381:	41 56                	push   %r14
    2383:	41 d3 e1             	shl    %cl,%r9d
    2386:	41 55                	push   %r13
    2388:	41 54                	push   %r12
    238a:	55                   	push   %rbp
    238b:	53                   	push   %rbx
    238c:	48 83 ec 18          	sub    $0x18,%rsp
    2390:	41 c1 e9 02          	shr    $0x2,%r9d
    2394:	89 74 24 0c          	mov    %esi,0xc(%rsp)
    2398:	0f 84 42 01 00 00    	je     24e0 <riscv_dsp_rifft_q15+0x170>
    239e:	b8 0a 00 00 00       	mov    $0xa,%eax
    23a3:	43 8d 14 09          	lea    (%r9,%r9,1),%edx
    23a7:	29 f0                	sub    %esi,%eax
    23a9:	49 89 d2             	mov    %rdx,%r10
    23ac:	48 8d 34 57          	lea    (%rdi,%rdx,2),%rsi
    23b0:	89 44 24 08          	mov    %eax,0x8(%rsp)
    23b4:	e9 9e 00 00 00       	jmp    2457 <riscv_dsp_rifft_q15+0xe7>
    23b9:	0f 1f 80 00 00 00 00 	nopl   0x0(%rax)
    23c0:	48 8d 1d 1d 52 00 00 	lea    0x521d(%rip),%rbx        # 75e4 <riscv_dsp_cos_table_q15_1024+0x4>
    23c7:	48 98                	cltq   
    23c9:	48 63 c9             	movslq %ecx,%rcx
    23cc:	0f b7 04 43          	movzwl (%rbx,%rax,2),%eax
    23d0:	0f b7 0c 4b          	movzwl (%rbx,%rcx,2),%ecx
    23d4:	41 8d 5a 01          	lea    0x1(%r10),%ebx
    23d8:	44 0f bf 06          	movswl (%rsi),%r8d
    23dc:	49 8d 2c 53          	lea    (%r11,%rdx,2),%rbp
    23e0:	0f bf 7e 02          	movswl 0x2(%rsi),%edi
    23e4:	49 8d 1c 5b          	lea    (%r11,%rbx,2),%rbx
    23e8:	0f bf 55 00          	movswl 0x0(%rbp),%edx
    23ec:	98                   	cwtl   
    23ed:	0f bf c9             	movswl %cx,%ecx
    23f0:	44 0f bf 23          	movswl (%rbx),%r12d
    23f4:	45 89 c6             	mov    %r8d,%r14d
    23f7:	41 89 cf             	mov    %ecx,%r15d
    23fa:	48 83 ee 04          	sub    $0x4,%rsi
    23fe:	41 29 d6             	sub    %edx,%r14d
    2401:	41 01 d0             	add    %edx,%r8d
    2404:	89 c2                	mov    %eax,%edx
    2406:	41 83 c2 02          	add    $0x2,%r10d
    240a:	45 0f af fe          	imul   %r14d,%r15d
    240e:	46 8d 2c 27          	lea    (%rdi,%r12,1),%r13d
    2412:	44 29 e7             	sub    %r12d,%edi
    2415:	41 0f af cd          	imul   %r13d,%ecx
    2419:	41 0f af d5          	imul   %r13d,%edx
    241d:	41 0f af c6          	imul   %r14d,%eax
    2421:	44 01 fa             	add    %r15d,%edx
    2424:	45 89 c7             	mov    %r8d,%r15d
    2427:	29 c8                	sub    %ecx,%eax
    2429:	c1 fa 0f             	sar    $0xf,%edx
    242c:	c1 f8 0f             	sar    $0xf,%eax
    242f:	41 29 d7             	sub    %edx,%r15d
    2432:	44 01 c2             	add    %r8d,%edx
    2435:	8d 0c 07             	lea    (%rdi,%rax,1),%ecx
    2438:	29 f8                	sub    %edi,%eax
    243a:	66 44 89 7e 04       	mov    %r15w,0x4(%rsi)
    243f:	66 89 4e 06          	mov    %cx,0x6(%rsi)
    2443:	66 89 55 00          	mov    %dx,0x0(%rbp)
    2447:	66 89 03             	mov    %ax,(%rbx)
    244a:	41 83 e9 01          	sub    $0x1,%r9d
    244e:	0f 84 8c 00 00 00    	je     24e0 <riscv_dsp_rifft_q15+0x170>
    2454:	44 89 d2             	mov    %r10d,%edx
    2457:	0f b6 4c 24 08       	movzbl 0x8(%rsp),%ecx
    245c:	44 89 c8             	mov    %r9d,%eax
    245f:	d3 e0                	shl    %cl,%eax
    2461:	b9 00 01 00 00       	mov    $0x100,%ecx
    2466:	29 c1                	sub    %eax,%ecx
    2468:	85 c9                	test   %ecx,%ecx
    246a:	0f 8f 50 ff ff ff    	jg     23c0 <riscv_dsp_rifft_q15+0x50>
    2470:	8d 88 00 ff ff ff    	lea    -0x100(%rax),%ecx
    2476:	bf 00 01 00 00       	mov    $0x100,%edi
    247b:	29 cf                	sub    %ecx,%edi
    247d:	85 ff                	test   %edi,%edi
    247f:	7e 1f                	jle    24a0 <riscv_dsp_rifft_q15+0x130>
    2481:	48 8d 1d 5c 51 00 00 	lea    0x515c(%rip),%rbx        # 75e4 <riscv_dsp_cos_table_q15_1024+0x4>
    2488:	48 63 ff             	movslq %edi,%rdi
    248b:	48 63 c9             	movslq %ecx,%rcx
    248e:	0f b7 04 7b          	movzwl (%rbx,%rdi,2),%eax
    2492:	0f b7 0c 4b          	movzwl (%rbx,%rcx,2),%ecx
    2496:	f7 d8                	neg    %eax
    2498:	e9 37 ff ff ff       	jmp    23d4 <riscv_dsp_rifft_q15+0x64>
    249d:	0f 1f 00             	nopl   (%rax)
    24a0:	8d 88 00 fe ff ff    	lea    -0x200(%rax),%ecx
    24a6:	bf 00 01 00 00       	mov    $0x100,%edi
    24ab:	48 8d 1d 32 51 00 00 	lea    0x5132(%rip),%rbx        # 75e4 <riscv_dsp_cos_table_q15_1024+0x4>
    24b2:	29 cf                	sub    %ecx,%edi
    24b4:	48 63 c9             	movslq %ecx,%rcx
    24b7:	0f b7 0c 4b          	movzwl (%rbx,%rcx,2),%ecx
    24bb:	48 63 c7             	movslq %edi,%rax
    24be:	0f b7 04 43          	movzwl (%rbx,%rax,2),%eax
    24c2:	f7 d9                	neg    %ecx
    24c4:	85 ff                	test   %edi,%edi
    24c6:	0f 8e 08 ff ff ff    	jle    23d4 <riscv_dsp_rifft_q15+0x64>
    24cc:	f7 d8                	neg    %eax
    24ce:	89 c7                	mov    %eax,%edi
    24d0:	89 c8                	mov    %ecx,%eax
    24d2:	89 f9                	mov    %edi,%ecx
    24d4:	e9 fb fe ff ff       	jmp    23d4 <riscv_dsp_rifft_q15+0x64>
    24d9:	0f 1f 80 00 00 00 00 	nopl   0x0(%rax)
    24e0:	41 0f b7 03          	movzwl (%r11),%eax
    24e4:	41 0f b7 53 02       	movzwl 0x2(%r11),%edx
    24e9:	4c 89 df             	mov    %r11,%rdi
    24ec:	8b 74 24 0c          	mov    0xc(%rsp),%esi
    24f0:	01 c2                	add    %eax,%edx
    24f2:	66 41 2b 43 02       	sub    0x2(%r11),%ax
    24f7:	66 41 89 13          	mov    %dx,(%r11)
    24fb:	83 ee 01             	sub    $0x1,%esi
    24fe:	66 41 89 43 02       	mov    %ax,0x2(%r11)
    2503:	e8 48 00 00 00       	call   2550 <riscv_dsp_cifft_q15>
    2508:	48 83 c4 18          	add    $0x18,%rsp
    250c:	31 c0                	xor    %eax,%eax
    250e:	5b                   	pop    %rbx
    250f:	5d                   	pop    %rbp
    2510:	41 5c                	pop    %r12
    2512:	41 5d                	pop    %r13
    2514:	41 5e                	pop    %r14
    2516:	41 5f                	pop    %r15
    2518:	c3                   	ret    
    2519:	0f 1f 80 00 00 00 00 	nopl   0x0(%rax)

0000000000002520 <riscv_dsp_cfft_q15>:
    2520:	f3 0f 1e fa          	endbr64 
    2524:	83 fe 0e             	cmp    $0xe,%esi
    2527:	77 17                	ja     2540 <riscv_dsp_cfft_q15+0x20>
    2529:	b8 50 55 00 00       	mov    $0x5550,%eax
    252e:	48 0f a3 f0          	bt     %rsi,%rax
    2532:	73 0c                	jae    2540 <riscv_dsp_cfft_q15+0x20>
    2534:	e9 d7 1d 00 00       	jmp    4310 <riscv_dsp_cfft_rd4_q15>
    2539:	0f 1f 80 00 00 00 00 	nopl   0x0(%rax)
    2540:	e9 3b 00 00 00       	jmp    2580 <riscv_dsp_cfft_rd2_q15>
    2545:	66 2e 0f 1f 84 00 00 	cs nopw 0x0(%rax,%rax,1)
    254c:	00 00 00 
    254f:	90                   	nop

0000000000002550 <riscv_dsp_cifft_q15>:
    2550:	f3 0f 1e fa          	endbr64 
    2554:	83 fe 0e             	cmp    $0xe,%esi
    2557:	77 17                	ja     2570 <riscv_dsp_cifft_q15+0x20>
    2559:	b8 50 55 00 00       	mov    $0x5550,%eax
    255e:	48 0f a3 f0          	bt     %rsi,%rax
    2562:	73 0c                	jae    2570 <riscv_dsp_cifft_q15+0x20>
    2564:	e9 c7 31 00 00       	jmp    5730 <riscv_dsp_cifft_rd4_q15>
    2569:	0f 1f 80 00 00 00 00 	nopl   0x0(%rax)
    2570:	e9 ab 09 00 00       	jmp    2f20 <riscv_dsp_cifft_rd2_q15>
    2575:	66 2e 0f 1f 84 00 00 	cs nopw 0x0(%rax,%rax,1)
    257c:	00 00 00 
    257f:	90                   	nop

0000000000002580 <riscv_dsp_cfft_rd2_q15>:
    2580:	f3 0f 1e fa          	endbr64 
    2584:	89 f1                	mov    %esi,%ecx
    2586:	b8 01 00 00 00       	mov    $0x1,%eax
    258b:	41 57                	push   %r15
    258d:	d3 e0                	shl    %cl,%eax
    258f:	41 56                	push   %r14
    2591:	41 55                	push   %r13
    2593:	41 89 c3             	mov    %eax,%r11d
    2596:	41 54                	push   %r12
    2598:	4d 01 db             	add    %r11,%r11
    259b:	55                   	push   %rbp
    259c:	4e 8d 34 1f          	lea    (%rdi,%r11,1),%r14
    25a0:	53                   	push   %rbx
    25a1:	48 89 fb             	mov    %rdi,%rbx
    25a4:	41 0f b7 4e 02       	movzwl 0x2(%r14),%ecx
    25a9:	66 d1 f9             	sar    %cx
    25ac:	48 89 7c 24 d8       	mov    %rdi,-0x28(%rsp)
    25b1:	0f bf c9             	movswl %cx,%ecx
    25b4:	89 44 24 f4          	mov    %eax,-0xc(%rsp)
    25b8:	0f b7 47 02          	movzwl 0x2(%rdi),%eax
    25bc:	0f b7 3f             	movzwl (%rdi),%edi
    25bf:	89 74 24 f0          	mov    %esi,-0x10(%rsp)
    25c3:	41 0f b7 36          	movzwl (%r14),%esi
    25c7:	66 d1 f8             	sar    %ax
    25ca:	89 fa                	mov    %edi,%edx
    25cc:	66 89 7c 24 c8       	mov    %di,-0x38(%rsp)
    25d1:	98                   	cwtl   
    25d2:	66 d1 fa             	sar    %dx
    25d5:	66 d1 fe             	sar    %si
    25d8:	0f bf d2             	movswl %dx,%edx
    25db:	0f bf f6             	movswl %si,%esi
    25de:	8d 3c 32             	lea    (%rdx,%rsi,1),%edi
    25e1:	29 f2                	sub    %esi,%edx
    25e3:	d1 ff                	sar    %edi
    25e5:	d1 fa                	sar    %edx
    25e7:	66 89 3b             	mov    %di,(%rbx)
    25ea:	8d 3c 08             	lea    (%rax,%rcx,1),%edi
    25ed:	29 c8                	sub    %ecx,%eax
    25ef:	d1 f8                	sar    %eax
    25f1:	d1 ff                	sar    %edi
    25f3:	66 89 7b 02          	mov    %di,0x2(%rbx)
    25f7:	66 41 89 46 02       	mov    %ax,0x2(%r14)
    25fc:	48 8d 43 04          	lea    0x4(%rbx),%rax
    2600:	66 41 89 16          	mov    %dx,(%r14)
    2604:	48 89 44 24 e0       	mov    %rax,-0x20(%rsp)
    2609:	49 39 c6             	cmp    %rax,%r14
    260c:	0f 84 20 01 00 00    	je     2732 <riscv_dsp_cfft_rd2_q15+0x1b2>
    2612:	b9 0a 00 00 00       	mov    $0xa,%ecx
    2617:	48 89 c2             	mov    %rax,%rdx
    261a:	2b 4c 24 f0          	sub    -0x10(%rsp),%ecx
    261e:	31 db                	xor    %ebx,%ebx
    2620:	4c 8d 25 bd 4f 00 00 	lea    0x4fbd(%rip),%r12        # 75e4 <riscv_dsp_cos_table_q15_1024+0x4>
    2627:	41 bd 00 01 00 00    	mov    $0x100,%r13d
    262d:	e9 91 00 00 00       	jmp    26c3 <riscv_dsp_cfft_rd2_q15+0x143>
    2632:	48 98                	cltq   
    2634:	48 63 f6             	movslq %esi,%rsi
    2637:	41 0f b7 04 44       	movzwl (%r12,%rax,2),%eax
    263c:	45 0f b7 04 74       	movzwl (%r12,%rsi,2),%r8d
    2641:	0f b7 3a             	movzwl (%rdx),%edi
    2644:	42 0f b7 2c 1a       	movzwl (%rdx,%r11,1),%ebp
    2649:	98                   	cwtl   
    264a:	45 0f bf c0          	movswl %r8w,%r8d
    264e:	0f b7 72 02          	movzwl 0x2(%rdx),%esi
    2652:	46 0f b7 4c 1a 02    	movzwl 0x2(%rdx,%r11,1),%r9d
    2658:	48 83 c2 04          	add    $0x4,%rdx
    265c:	66 d1 ff             	sar    %di
    265f:	66 d1 fd             	sar    %bp
    2662:	66 d1 fe             	sar    %si
    2665:	0f bf ff             	movswl %di,%edi
    2668:	0f bf ed             	movswl %bp,%ebp
    266b:	66 41 d1 f9          	sar    %r9w
    266f:	41 89 fa             	mov    %edi,%r10d
    2672:	01 ef                	add    %ebp,%edi
    2674:	45 0f bf c9          	movswl %r9w,%r9d
    2678:	0f bf f6             	movswl %si,%esi
    267b:	d1 ff                	sar    %edi
    267d:	41 29 ea             	sub    %ebp,%r10d
    2680:	66 89 7a fc          	mov    %di,-0x4(%rdx)
    2684:	89 f7                	mov    %esi,%edi
    2686:	44 01 ce             	add    %r9d,%esi
    2689:	d1 fe                	sar    %esi
    268b:	44 29 cf             	sub    %r9d,%edi
    268e:	45 89 c1             	mov    %r8d,%r9d
    2691:	66 89 72 fe          	mov    %si,-0x2(%rdx)
    2695:	89 c6                	mov    %eax,%esi
    2697:	44 0f af cf          	imul   %edi,%r9d
    269b:	41 0f af f2          	imul   %r10d,%esi
    269f:	0f af c7             	imul   %edi,%eax
    26a2:	45 0f af c2          	imul   %r10d,%r8d
    26a6:	44 01 ce             	add    %r9d,%esi
    26a9:	c1 fe 10             	sar    $0x10,%esi
    26ac:	44 29 c0             	sub    %r8d,%eax
    26af:	66 42 89 74 1a fc    	mov    %si,-0x4(%rdx,%r11,1)
    26b5:	c1 f8 10             	sar    $0x10,%eax
    26b8:	66 42 89 44 1a fe    	mov    %ax,-0x2(%rdx,%r11,1)
    26be:	49 39 d6             	cmp    %rdx,%r14
    26c1:	74 6f                	je     2732 <riscv_dsp_cfft_rd2_q15+0x1b2>
    26c3:	83 c3 01             	add    $0x1,%ebx
    26c6:	44 89 ee             	mov    %r13d,%esi
    26c9:	89 d8                	mov    %ebx,%eax
    26cb:	d3 e0                	shl    %cl,%eax
    26cd:	29 c6                	sub    %eax,%esi
    26cf:	85 f6                	test   %esi,%esi
    26d1:	0f 8f 5b ff ff ff    	jg     2632 <riscv_dsp_cfft_rd2_q15+0xb2>
    26d7:	8d b0 00 ff ff ff    	lea    -0x100(%rax),%esi
    26dd:	44 89 ef             	mov    %r13d,%edi
    26e0:	29 f7                	sub    %esi,%edi
    26e2:	85 ff                	test   %edi,%edi
    26e4:	7e 17                	jle    26fd <riscv_dsp_cfft_rd2_q15+0x17d>
    26e6:	48 63 ff             	movslq %edi,%rdi
    26e9:	48 63 f6             	movslq %esi,%rsi
    26ec:	41 0f b7 04 7c       	movzwl (%r12,%rdi,2),%eax
    26f1:	45 0f b7 04 74       	movzwl (%r12,%rsi,2),%r8d
    26f6:	f7 d8                	neg    %eax
    26f8:	e9 44 ff ff ff       	jmp    2641 <riscv_dsp_cfft_rd2_q15+0xc1>
    26fd:	8d b0 00 fe ff ff    	lea    -0x200(%rax),%esi
    2703:	44 89 ef             	mov    %r13d,%edi
    2706:	29 f7                	sub    %esi,%edi
    2708:	48 63 f6             	movslq %esi,%rsi
    270b:	45 0f b7 04 74       	movzwl (%r12,%rsi,2),%r8d
    2710:	48 63 c7             	movslq %edi,%rax
    2713:	41 0f b7 04 44       	movzwl (%r12,%rax,2),%eax
    2718:	41 f7 d8             	neg    %r8d
    271b:	85 ff                	test   %edi,%edi
    271d:	0f 8e 1e ff ff ff    	jle    2641 <riscv_dsp_cfft_rd2_q15+0xc1>
    2723:	f7 d8                	neg    %eax
    2725:	89 c6                	mov    %eax,%esi
    2727:	44 89 c0             	mov    %r8d,%eax
    272a:	41 89 f0             	mov    %esi,%r8d
    272d:	e9 0f ff ff ff       	jmp    2641 <riscv_dsp_cfft_rd2_q15+0xc1>
    2732:	8b 44 24 f4          	mov    -0xc(%rsp),%eax
    2736:	8b 7c 24 f0          	mov    -0x10(%rsp),%edi
    273a:	bb 02 00 00 00       	mov    $0x2,%ebx
    273f:	89 44 24 e8          	mov    %eax,-0x18(%rsp)
    2743:	89 f8                	mov    %edi,%eax
    2745:	83 e8 02             	sub    $0x2,%eax
    2748:	89 44 24 ec          	mov    %eax,-0x14(%rsp)
    274c:	0f 84 86 03 00 00    	je     2ad8 <riscv_dsp_cfft_rd2_q15+0x558>
    2752:	b8 0a 00 00 00       	mov    $0xa,%eax
    2757:	66 0f ef ed          	pxor   %xmm5,%xmm5
    275b:	4c 8d 25 82 4e 00 00 	lea    0x4e82(%rip),%r12        # 75e4 <riscv_dsp_cos_table_q15_1024+0x4>
    2762:	41 bd 00 01 00 00    	mov    $0x100,%r13d
    2768:	29 f8                	sub    %edi,%eax
    276a:	89 44 24 d4          	mov    %eax,-0x2c(%rsp)
    276e:	66 90                	xchg   %ax,%ax
    2770:	d1 6c 24 e8          	shrl   -0x18(%rsp)
    2774:	44 8b 54 24 e8       	mov    -0x18(%rsp),%r10d
    2779:	48 8b 44 24 d8       	mov    -0x28(%rsp),%rax
    277e:	4b 8d 3c 12          	lea    (%r10,%r10,1),%rdi
    2782:	48 01 f8             	add    %rdi,%rax
    2785:	48 89 44 24 c8       	mov    %rax,-0x38(%rsp)
    278a:	85 db                	test   %ebx,%ebx
    278c:	0f 84 6d 02 00 00    	je     29ff <riscv_dsp_cfft_rd2_q15+0x47f>
    2792:	4a 8d 34 17          	lea    (%rdi,%r10,1),%rsi
    2796:	44 8d 73 ff          	lea    -0x1(%rbx),%r14d
    279a:	48 c1 e6 02          	shl    $0x2,%rsi
    279e:	48 85 ff             	test   %rdi,%rdi
    27a1:	4a 8d 04 95 00 00 00 	lea    0x0(,%r10,4),%rax
    27a8:	00 
    27a9:	0f 95 c1             	setne  %cl
    27ac:	41 83 fe 02          	cmp    $0x2,%r14d
    27b0:	0f 97 c2             	seta   %dl
    27b3:	21 ca                	and    %ecx,%edx
    27b5:	48 83 f8 03          	cmp    $0x3,%rax
    27b9:	0f 97 c1             	seta   %cl
    27bc:	84 ca                	test   %cl,%dl
    27be:	0f 84 f0 06 00 00    	je     2eb4 <riscv_dsp_cfft_rd2_q15+0x934>
    27c4:	48 8d 56 02          	lea    0x2(%rsi),%rdx
    27c8:	48 39 d7             	cmp    %rdx,%rdi
    27cb:	0f 8e e3 06 00 00    	jle    2eb4 <riscv_dsp_cfft_rd2_q15+0x934>
    27d1:	41 89 db             	mov    %ebx,%r11d
    27d4:	4d 89 d1             	mov    %r10,%r9
    27d7:	48 8b 4c 24 d8       	mov    -0x28(%rsp),%rcx
    27dc:	48 8b 54 24 c8       	mov    -0x38(%rsp),%rdx
    27e1:	41 c1 eb 02          	shr    $0x2,%r11d
    27e5:	49 c1 e1 04          	shl    $0x4,%r9
    27e9:	45 31 c0             	xor    %r8d,%r8d
    27ec:	0f 1f 40 00          	nopl   0x0(%rax)
    27f0:	66 0f 6e 3c 31       	movd   (%rcx,%rsi,1),%xmm7
    27f5:	66 0f 6e 11          	movd   (%rcx),%xmm2
    27f9:	66 0f 6f cd          	movdqa %xmm5,%xmm1
    27fd:	41 83 c0 01          	add    $0x1,%r8d
    2801:	66 0f 6e 34 01       	movd   (%rcx,%rax,1),%xmm6
    2806:	66 0f 6e 04 41       	movd   (%rcx,%rax,2),%xmm0
    280b:	66 0f 6e 24 42       	movd   (%rdx,%rax,2),%xmm4
    2810:	66 0f 62 c7          	punpckldq %xmm7,%xmm0
    2814:	66 0f 62 d6          	punpckldq %xmm6,%xmm2
    2818:	66 0f 6e 3c 32       	movd   (%rdx,%rsi,1),%xmm7
    281d:	66 0f 6e 34 02       	movd   (%rdx,%rax,1),%xmm6
    2822:	66 0f 6c d0          	punpcklqdq %xmm0,%xmm2
    2826:	66 0f 65 ca          	pcmpgtw %xmm2,%xmm1
    282a:	66 0f 6f c2          	movdqa %xmm2,%xmm0
    282e:	66 0f 6f da          	movdqa %xmm2,%xmm3
    2832:	66 0f 62 e7          	punpckldq %xmm7,%xmm4
    2836:	66 0f 61 c1          	punpcklwd %xmm1,%xmm0
    283a:	66 0f 69 d9          	punpckhwd %xmm1,%xmm3
    283e:	66 0f 6e 0a          	movd   (%rdx),%xmm1
    2842:	66 0f 62 ce          	punpckldq %xmm6,%xmm1
    2846:	66 0f 6c cc          	punpcklqdq %xmm4,%xmm1
    284a:	66 0f 6f e5          	movdqa %xmm5,%xmm4
    284e:	66 0f 65 e1          	pcmpgtw %xmm1,%xmm4
    2852:	66 0f 6f f1          	movdqa %xmm1,%xmm6
    2856:	66 0f 6f d1          	movdqa %xmm1,%xmm2
    285a:	66 0f 6f c8          	movdqa %xmm0,%xmm1
    285e:	66 0f 69 d4          	punpckhwd %xmm4,%xmm2
    2862:	66 0f 61 f4          	punpcklwd %xmm4,%xmm6
    2866:	66 0f 6f e3          	movdqa %xmm3,%xmm4
    286a:	66 0f fe e2          	paddd  %xmm2,%xmm4
    286e:	66 0f fa da          	psubd  %xmm2,%xmm3
    2872:	66 0f fe ce          	paddd  %xmm6,%xmm1
    2876:	66 0f 72 e4 01       	psrad  $0x1,%xmm4
    287b:	66 0f fa c6          	psubd  %xmm6,%xmm0
    287f:	66 0f 72 e1 01       	psrad  $0x1,%xmm1
    2884:	66 0f 72 e3 01       	psrad  $0x1,%xmm3
    2889:	66 0f 6f d3          	movdqa %xmm3,%xmm2
    288d:	66 0f 72 e0 01       	psrad  $0x1,%xmm0
    2892:	66 0f 6f f9          	movdqa %xmm1,%xmm7
    2896:	66 0f 61 cc          	punpcklwd %xmm4,%xmm1
    289a:	66 0f 69 fc          	punpckhwd %xmm4,%xmm7
    289e:	66 0f 6f d8          	movdqa %xmm0,%xmm3
    28a2:	66 0f 6f e1          	movdqa %xmm1,%xmm4
    28a6:	66 0f 61 c2          	punpcklwd %xmm2,%xmm0
    28aa:	66 0f 69 da          	punpckhwd %xmm2,%xmm3
    28ae:	66 0f 69 e7          	punpckhwd %xmm7,%xmm4
    28b2:	66 0f 6f d0          	movdqa %xmm0,%xmm2
    28b6:	66 0f 61 cf          	punpcklwd %xmm7,%xmm1
    28ba:	66 0f 61 cc          	punpcklwd %xmm4,%xmm1
    28be:	66 0f 69 d3          	punpckhwd %xmm3,%xmm2
    28c2:	66 0f 61 c3          	punpcklwd %xmm3,%xmm0
    28c6:	66 0f 61 c2          	punpcklwd %xmm2,%xmm0
    28ca:	66 0f 70 d1 55       	pshufd $0x55,%xmm1,%xmm2
    28cf:	66 0f 7e 09          	movd   %xmm1,(%rcx)
    28d3:	66 0f 7e 14 01       	movd   %xmm2,(%rcx,%rax,1)
    28d8:	66 0f 6f d1          	movdqa %xmm1,%xmm2
    28dc:	66 0f 6a d1          	punpckhdq %xmm1,%xmm2
    28e0:	66 0f 70 c9 ff       	pshufd $0xff,%xmm1,%xmm1
    28e5:	66 0f 7e 14 41       	movd   %xmm2,(%rcx,%rax,2)
    28ea:	66 0f 7e 0c 31       	movd   %xmm1,(%rcx,%rsi,1)
    28ef:	66 0f 70 c8 55       	pshufd $0x55,%xmm0,%xmm1
    28f4:	4c 01 c9             	add    %r9,%rcx
    28f7:	66 0f 7e 02          	movd   %xmm0,(%rdx)
    28fb:	66 0f 7e 0c 02       	movd   %xmm1,(%rdx,%rax,1)
    2900:	66 0f 6f c8          	movdqa %xmm0,%xmm1
    2904:	66 0f 6a c8          	punpckhdq %xmm0,%xmm1
    2908:	66 0f 70 c0 ff       	pshufd $0xff,%xmm0,%xmm0
    290d:	66 0f 7e 0c 42       	movd   %xmm1,(%rdx,%rax,2)
    2912:	66 0f 7e 04 32       	movd   %xmm0,(%rdx,%rsi,1)
    2917:	4c 01 ca             	add    %r9,%rdx
    291a:	45 39 d8             	cmp    %r11d,%r8d
    291d:	0f 85 cd fe ff ff    	jne    27f0 <riscv_dsp_cfft_rd2_q15+0x270>
    2923:	41 89 d8             	mov    %ebx,%r8d
    2926:	48 8b 74 24 d8       	mov    -0x28(%rsp),%rsi
    292b:	41 83 e0 fc          	and    $0xfffffffc,%r8d
    292f:	44 89 c0             	mov    %r8d,%eax
    2932:	48 0f af c7          	imul   %rdi,%rax
    2936:	48 8d 14 46          	lea    (%rsi,%rax,2),%rdx
    293a:	44 39 c3             	cmp    %r8d,%ebx
    293d:	0f 84 bc 00 00 00    	je     29ff <riscv_dsp_cfft_rd2_q15+0x47f>
    2943:	48 8d 04 3a          	lea    (%rdx,%rdi,1),%rax
    2947:	0f bf 32             	movswl (%rdx),%esi
    294a:	0f bf 28             	movswl (%rax),%ebp
    294d:	44 0f bf 48 02       	movswl 0x2(%rax),%r9d
    2952:	8d 0c 2e             	lea    (%rsi,%rbp,1),%ecx
    2955:	29 ee                	sub    %ebp,%esi
    2957:	d1 f9                	sar    %ecx
    2959:	d1 fe                	sar    %esi
    295b:	66 89 0a             	mov    %cx,(%rdx)
    295e:	0f bf 4a 02          	movswl 0x2(%rdx),%ecx
    2962:	46 8d 1c 09          	lea    (%rcx,%r9,1),%r11d
    2966:	44 29 c9             	sub    %r9d,%ecx
    2969:	41 d1 fb             	sar    %r11d
    296c:	d1 f9                	sar    %ecx
    296e:	66 44 89 5a 02       	mov    %r11w,0x2(%rdx)
    2973:	45 89 f3             	mov    %r14d,%r11d
    2976:	66 89 30             	mov    %si,(%rax)
    2979:	66 89 48 02          	mov    %cx,0x2(%rax)
    297d:	48 01 f8             	add    %rdi,%rax
    2980:	45 29 c3             	sub    %r8d,%r11d
    2983:	74 7a                	je     29ff <riscv_dsp_cfft_rd2_q15+0x47f>
    2985:	48 8d 14 38          	lea    (%rax,%rdi,1),%rdx
    2989:	0f bf 30             	movswl (%rax),%esi
    298c:	0f bf 2a             	movswl (%rdx),%ebp
    298f:	44 0f bf 42 02       	movswl 0x2(%rdx),%r8d
    2994:	8d 0c 2e             	lea    (%rsi,%rbp,1),%ecx
    2997:	29 ee                	sub    %ebp,%esi
    2999:	d1 f9                	sar    %ecx
    299b:	d1 fe                	sar    %esi
    299d:	66 89 08             	mov    %cx,(%rax)
    29a0:	0f bf 48 02          	movswl 0x2(%rax),%ecx
    29a4:	46 8d 0c 01          	lea    (%rcx,%r8,1),%r9d
    29a8:	44 29 c1             	sub    %r8d,%ecx
    29ab:	41 d1 f9             	sar    %r9d
    29ae:	d1 f9                	sar    %ecx
    29b0:	66 44 89 48 02       	mov    %r9w,0x2(%rax)
    29b5:	66 89 32             	mov    %si,(%rdx)
    29b8:	66 89 4a 02          	mov    %cx,0x2(%rdx)
    29bc:	48 01 fa             	add    %rdi,%rdx
    29bf:	41 83 fb 01          	cmp    $0x1,%r11d
    29c3:	74 3a                	je     29ff <riscv_dsp_cfft_rd2_q15+0x47f>
    29c5:	48 8d 34 3a          	lea    (%rdx,%rdi,1),%rsi
    29c9:	0f bf 0a             	movswl (%rdx),%ecx
    29cc:	44 0f bf 1e          	movswl (%rsi),%r11d
    29d0:	44 0f bf 46 02       	movswl 0x2(%rsi),%r8d
    29d5:	41 8d 04 0b          	lea    (%r11,%rcx,1),%eax
    29d9:	44 29 d9             	sub    %r11d,%ecx
    29dc:	d1 f8                	sar    %eax
    29de:	d1 f9                	sar    %ecx
    29e0:	66 89 02             	mov    %ax,(%rdx)
    29e3:	0f bf 42 02          	movswl 0x2(%rdx),%eax
    29e7:	45 8d 0c 00          	lea    (%r8,%rax,1),%r9d
    29eb:	44 29 c0             	sub    %r8d,%eax
    29ee:	41 d1 f9             	sar    %r9d
    29f1:	d1 f8                	sar    %eax
    29f3:	66 44 89 4a 02       	mov    %r9w,0x2(%rdx)
    29f8:	66 89 0e             	mov    %cx,(%rsi)
    29fb:	66 89 46 02          	mov    %ax,0x2(%rsi)
    29ff:	48 8b 44 24 e0       	mov    -0x20(%rsp),%rax
    2a04:	48 8b 74 24 c8       	mov    -0x38(%rsp),%rsi
    2a09:	49 c1 e2 02          	shl    $0x2,%r10
    2a0d:	31 ed                	xor    %ebp,%ebp
    2a0f:	49 89 c3             	mov    %rax,%r11
    2a12:	48 39 f0             	cmp    %rsi,%rax
    2a15:	0f 84 b0 00 00 00    	je     2acb <riscv_dsp_cfft_rd2_q15+0x54b>
    2a1b:	0f 1f 44 00 00       	nopl   0x0(%rax,%rax,1)
    2a20:	0f b6 4c 24 d4       	movzbl -0x2c(%rsp),%ecx
    2a25:	01 dd                	add    %ebx,%ebp
    2a27:	44 89 ea             	mov    %r13d,%edx
    2a2a:	89 e8                	mov    %ebp,%eax
    2a2c:	d3 e0                	shl    %cl,%eax
    2a2e:	29 c2                	sub    %eax,%edx
    2a30:	85 d2                	test   %edx,%edx
    2a32:	0f 8e 20 04 00 00    	jle    2e58 <riscv_dsp_cfft_rd2_q15+0x8d8>
    2a38:	48 98                	cltq   
    2a3a:	48 63 d2             	movslq %edx,%rdx
    2a3d:	45 0f b7 0c 44       	movzwl (%r12,%rax,2),%r9d
    2a42:	45 0f b7 34 54       	movzwl (%r12,%rdx,2),%r14d
    2a47:	85 db                	test   %ebx,%ebx
    2a49:	74 71                	je     2abc <riscv_dsp_cfft_rd2_q15+0x53c>
    2a4b:	45 0f bf c9          	movswl %r9w,%r9d
    2a4f:	45 0f bf f6          	movswl %r14w,%r14d
    2a53:	4c 89 d8             	mov    %r11,%rax
    2a56:	41 89 d8             	mov    %ebx,%r8d
    2a59:	0f 1f 80 00 00 00 00 	nopl   0x0(%rax)
    2a60:	0f bf 10             	movswl (%rax),%edx
    2a63:	0f bf 0c 38          	movswl (%rax,%rdi,1),%ecx
    2a67:	44 0f bf 7c 38 02    	movswl 0x2(%rax,%rdi,1),%r15d
    2a6d:	89 d6                	mov    %edx,%esi
    2a6f:	01 ca                	add    %ecx,%edx
    2a71:	29 ce                	sub    %ecx,%esi
    2a73:	0f bf 48 02          	movswl 0x2(%rax),%ecx
    2a77:	d1 fa                	sar    %edx
    2a79:	66 89 10             	mov    %dx,(%rax)
    2a7c:	89 ca                	mov    %ecx,%edx
    2a7e:	44 01 f9             	add    %r15d,%ecx
    2a81:	44 29 fa             	sub    %r15d,%edx
    2a84:	d1 f9                	sar    %ecx
    2a86:	66 89 48 02          	mov    %cx,0x2(%rax)
    2a8a:	41 89 d7             	mov    %edx,%r15d
    2a8d:	41 0f af d1          	imul   %r9d,%edx
    2a91:	89 f1                	mov    %esi,%ecx
    2a93:	41 0f af c9          	imul   %r9d,%ecx
    2a97:	45 0f af fe          	imul   %r14d,%r15d
    2a9b:	41 0f af f6          	imul   %r14d,%esi
    2a9f:	44 01 f9             	add    %r15d,%ecx
    2aa2:	29 f2                	sub    %esi,%edx
    2aa4:	c1 f9 10             	sar    $0x10,%ecx
    2aa7:	c1 fa 10             	sar    $0x10,%edx
    2aaa:	66 89 0c 38          	mov    %cx,(%rax,%rdi,1)
    2aae:	66 89 54 38 02       	mov    %dx,0x2(%rax,%rdi,1)
    2ab3:	4c 01 d0             	add    %r10,%rax
    2ab6:	41 83 e8 01          	sub    $0x1,%r8d
    2aba:	75 a4                	jne    2a60 <riscv_dsp_cfft_rd2_q15+0x4e0>
    2abc:	49 83 c3 04          	add    $0x4,%r11
    2ac0:	4c 39 5c 24 c8       	cmp    %r11,-0x38(%rsp)
    2ac5:	0f 85 55 ff ff ff    	jne    2a20 <riscv_dsp_cfft_rd2_q15+0x4a0>
    2acb:	01 db                	add    %ebx,%ebx
    2acd:	83 6c 24 ec 01       	subl   $0x1,-0x14(%rsp)
    2ad2:	0f 85 98 fc ff ff    	jne    2770 <riscv_dsp_cfft_rd2_q15+0x1f0>
    2ad8:	0f b6 4c 24 f0       	movzbl -0x10(%rsp),%ecx
    2add:	b8 02 00 00 00       	mov    $0x2,%eax
    2ae2:	d3 e0                	shl    %cl,%eax
    2ae4:	48 8d 34 00          	lea    (%rax,%rax,1),%rsi
    2ae8:	48 8b 44 24 d8       	mov    -0x28(%rsp),%rax
    2aed:	48 8d 14 30          	lea    (%rax,%rsi,1),%rdx
    2af1:	48 39 d0             	cmp    %rdx,%rax
    2af4:	0f 84 b3 00 00 00    	je     2bad <riscv_dsp_cfft_rd2_q15+0x62d>
    2afa:	48 29 c2             	sub    %rax,%rdx
    2afd:	66 0f ef e4          	pxor   %xmm4,%xmm4
    2b01:	48 8d 4a f0          	lea    -0x10(%rdx),%rcx
    2b05:	31 d2                	xor    %edx,%edx
    2b07:	48 c1 e9 04          	shr    $0x4,%rcx
    2b0b:	48 83 c1 01          	add    $0x1,%rcx
    2b0f:	90                   	nop
    2b10:	f3 0f 6f 28          	movdqu (%rax),%xmm5
    2b14:	66 0f 6f cc          	movdqa %xmm4,%xmm1
    2b18:	66 0f 6f f4          	movdqa %xmm4,%xmm6
    2b1c:	48 83 c2 01          	add    $0x1,%rdx
    2b20:	48 83 c0 10          	add    $0x10,%rax
    2b24:	66 0f 70 c5 a0       	pshufd $0xa0,%xmm5,%xmm0
    2b29:	66 0f 65 c8          	pcmpgtw %xmm0,%xmm1
    2b2d:	66 0f 6f d8          	movdqa %xmm0,%xmm3
    2b31:	66 0f 6f d0          	movdqa %xmm0,%xmm2
    2b35:	66 0f 70 c5 f5       	pshufd $0xf5,%xmm5,%xmm0
    2b3a:	66 0f 65 f0          	pcmpgtw %xmm0,%xmm6
    2b3e:	66 0f 6f e8          	movdqa %xmm0,%xmm5
    2b42:	66 0f 61 d9          	punpcklwd %xmm1,%xmm3
    2b46:	66 0f 69 d1          	punpckhwd %xmm1,%xmm2
    2b4a:	66 0f 6f c8          	movdqa %xmm0,%xmm1
    2b4e:	66 0f 6f c3          	movdqa %xmm3,%xmm0
    2b52:	66 0f 61 ee          	punpcklwd %xmm6,%xmm5
    2b56:	66 0f 69 ce          	punpckhwd %xmm6,%xmm1
    2b5a:	66 0f fa dd          	psubd  %xmm5,%xmm3
    2b5e:	66 0f fe c5          	paddd  %xmm5,%xmm0
    2b62:	0f c6 c3 e4          	shufps $0xe4,%xmm3,%xmm0
    2b66:	66 0f 6f da          	movdqa %xmm2,%xmm3
    2b6a:	66 0f fa d1          	psubd  %xmm1,%xmm2
    2b6e:	66 0f fe d9          	paddd  %xmm1,%xmm3
    2b72:	66 0f 72 e0 01       	psrad  $0x1,%xmm0
    2b77:	0f c6 da e4          	shufps $0xe4,%xmm2,%xmm3
    2b7b:	66 0f 6f cb          	movdqa %xmm3,%xmm1
    2b7f:	66 0f 6f d0          	movdqa %xmm0,%xmm2
    2b83:	66 0f 72 e1 01       	psrad  $0x1,%xmm1
    2b88:	66 0f 61 c1          	punpcklwd %xmm1,%xmm0
    2b8c:	66 0f 69 d1          	punpckhwd %xmm1,%xmm2
    2b90:	66 0f 6f c8          	movdqa %xmm0,%xmm1
    2b94:	66 0f 61 c2          	punpcklwd %xmm2,%xmm0
    2b98:	66 0f 69 ca          	punpckhwd %xmm2,%xmm1
    2b9c:	66 0f 61 c1          	punpcklwd %xmm1,%xmm0
    2ba0:	0f 11 40 f0          	movups %xmm0,-0x10(%rax)
    2ba4:	48 39 ca             	cmp    %rcx,%rdx
    2ba7:	0f 82 63 ff ff ff    	jb     2b10 <riscv_dsp_cfft_rd2_q15+0x590>
    2bad:	48 8b 44 24 d8       	mov    -0x28(%rsp),%rax
    2bb2:	8b 5c 24 f4          	mov    -0xc(%rsp),%ebx
    2bb6:	0f b7 48 04          	movzwl 0x4(%rax),%ecx
    2bba:	48 8d 7c 30 fe       	lea    -0x2(%rax,%rsi,1),%rdi
    2bbf:	48 89 c6             	mov    %rax,%rsi
    2bc2:	89 d8                	mov    %ebx,%eax
    2bc4:	83 e0 fe             	and    $0xfffffffe,%eax
    2bc7:	41 89 db             	mov    %ebx,%r11d
    2bca:	89 c2                	mov    %eax,%edx
    2bcc:	41 d1 eb             	shr    %r11d
    2bcf:	83 c0 01             	add    $0x1,%eax
    2bd2:	48 8d 14 56          	lea    (%rsi,%rdx,2),%rdx
    2bd6:	45 89 d9             	mov    %r11d,%r9d
    2bd9:	41 89 db             	mov    %ebx,%r11d
    2bdc:	48 89 f3             	mov    %rsi,%rbx
    2bdf:	0f b7 32             	movzwl (%rdx),%esi
    2be2:	48 8d 04 43          	lea    (%rbx,%rax,2),%rax
    2be6:	66 89 73 04          	mov    %si,0x4(%rbx)
    2bea:	48 89 de             	mov    %rbx,%rsi
    2bed:	66 89 0a             	mov    %cx,(%rdx)
    2bf0:	0f b7 53 06          	movzwl 0x6(%rbx),%edx
    2bf4:	0f b7 08             	movzwl (%rax),%ecx
    2bf7:	66 89 4b 06          	mov    %cx,0x6(%rbx)
    2bfb:	44 89 cb             	mov    %r9d,%ebx
    2bfe:	b9 04 00 00 00       	mov    $0x4,%ecx
    2c03:	66 89 10             	mov    %dx,(%rax)
    2c06:	44 89 d8             	mov    %r11d,%eax
    2c09:	41 c1 eb 02          	shr    $0x2,%r11d
    2c0d:	ba 04 00 00 00       	mov    $0x4,%edx
    2c12:	44 31 db             	xor    %r11d,%ebx
    2c15:	45 89 da             	mov    %r11d,%r10d
    2c18:	41 89 c3             	mov    %eax,%r11d
    2c1b:	44 89 c8             	mov    %r9d,%eax
    2c1e:	41 c1 eb 03          	shr    $0x3,%r11d
    2c22:	44 89 dd             	mov    %r11d,%ebp
    2c25:	31 dd                	xor    %ebx,%ebp
    2c27:	89 6c 24 c8          	mov    %ebp,-0x38(%rsp)
    2c2b:	0f 1f 44 00 00       	nopl   0x0(%rax,%rax,1)
    2c30:	31 d8                	xor    %ebx,%eax
    2c32:	41 85 c2             	test   %eax,%r10d
    2c35:	75 14                	jne    2c4b <riscv_dsp_cfft_rd2_q15+0x6cb>
    2c37:	45 89 d0             	mov    %r10d,%r8d
    2c3a:	66 0f 1f 44 00 00    	nopw   0x0(%rax,%rax,1)
    2c40:	41 d1 e8             	shr    %r8d
    2c43:	44 31 c0             	xor    %r8d,%eax
    2c46:	41 85 c0             	test   %eax,%r8d
    2c49:	74 f5                	je     2c40 <riscv_dsp_cfft_rd2_q15+0x6c0>
    2c4b:	44 8d 41 fe          	lea    -0x2(%rcx),%r8d
    2c4f:	44 39 c0             	cmp    %r8d,%eax
    2c52:	0f 86 97 00 00 00    	jbe    2cef <riscv_dsp_cfft_rd2_q15+0x76f>
    2c58:	41 89 d0             	mov    %edx,%r8d
    2c5b:	8d 2c 00             	lea    (%rax,%rax,1),%ebp
    2c5e:	4e 8d 24 46          	lea    (%rsi,%r8,2),%r12
    2c62:	49 89 e8             	mov    %rbp,%r8
    2c65:	48 8d 2c 6e          	lea    (%rsi,%rbp,2),%rbp
    2c69:	45 0f b7 2c 24       	movzwl (%r12),%r13d
    2c6e:	44 0f b7 75 00       	movzwl 0x0(%rbp),%r14d
    2c73:	41 83 c0 01          	add    $0x1,%r8d
    2c77:	4e 8d 04 46          	lea    (%rsi,%r8,2),%r8
    2c7b:	66 45 89 34 24       	mov    %r14w,(%r12)
    2c80:	66 44 89 6d 00       	mov    %r13w,0x0(%rbp)
    2c85:	8d 6a 01             	lea    0x1(%rdx),%ebp
    2c88:	45 0f b7 28          	movzwl (%r8),%r13d
    2c8c:	48 8d 2c 6e          	lea    (%rsi,%rbp,2),%rbp
    2c90:	44 0f b7 65 00       	movzwl 0x0(%rbp),%r12d
    2c95:	66 44 89 6d 00       	mov    %r13w,0x0(%rbp)
    2c9a:	89 d5                	mov    %edx,%ebp
    2c9c:	f7 dd                	neg    %ebp
    2c9e:	66 45 89 20          	mov    %r12w,(%r8)
    2ca2:	41 89 c0             	mov    %eax,%r8d
    2ca5:	48 63 ed             	movslq %ebp,%rbp
    2ca8:	41 f7 d8             	neg    %r8d
    2cab:	48 01 ed             	add    %rbp,%rbp
    2cae:	45 01 c0             	add    %r8d,%r8d
    2cb1:	4c 8d 2c 2f          	lea    (%rdi,%rbp,1),%r13
    2cb5:	48 8d 6c 2f fe       	lea    -0x2(%rdi,%rbp,1),%rbp
    2cba:	4d 63 c0             	movslq %r8d,%r8
    2cbd:	45 0f b7 75 00       	movzwl 0x0(%r13),%r14d
    2cc2:	4d 01 c0             	add    %r8,%r8
    2cc5:	4e 8d 24 07          	lea    (%rdi,%r8,1),%r12
    2cc9:	4e 8d 44 07 fe       	lea    -0x2(%rdi,%r8,1),%r8
    2cce:	45 0f b7 3c 24       	movzwl (%r12),%r15d
    2cd3:	66 45 89 7d 00       	mov    %r15w,0x0(%r13)
    2cd8:	66 45 89 34 24       	mov    %r14w,(%r12)
    2cdd:	44 0f b7 65 00       	movzwl 0x0(%rbp),%r12d
    2ce2:	45 0f b7 28          	movzwl (%r8),%r13d
    2ce6:	66 44 89 6d 00       	mov    %r13w,0x0(%rbp)
    2ceb:	66 45 89 20          	mov    %r12w,(%r8)
    2cef:	44 01 c8             	add    %r9d,%eax
    2cf2:	44 8d 42 02          	lea    0x2(%rdx),%r8d
    2cf6:	8d 2c 00             	lea    (%rax,%rax,1),%ebp
    2cf9:	4e 8d 24 46          	lea    (%rsi,%r8,2),%r12
    2cfd:	49 89 e8             	mov    %rbp,%r8
    2d00:	48 8d 2c 6e          	lea    (%rsi,%rbp,2),%rbp
    2d04:	45 0f b7 2c 24       	movzwl (%r12),%r13d
    2d09:	44 0f b7 75 00       	movzwl 0x0(%rbp),%r14d
    2d0e:	41 83 c0 01          	add    $0x1,%r8d
    2d12:	4e 8d 04 46          	lea    (%rsi,%r8,2),%r8
    2d16:	66 45 89 34 24       	mov    %r14w,(%r12)
    2d1b:	66 44 89 6d 00       	mov    %r13w,0x0(%rbp)
    2d20:	8d 6a 03             	lea    0x3(%rdx),%ebp
    2d23:	45 0f b7 28          	movzwl (%r8),%r13d
    2d27:	48 8d 2c 6e          	lea    (%rsi,%rbp,2),%rbp
    2d2b:	44 0f b7 65 00       	movzwl 0x0(%rbp),%r12d
    2d30:	66 44 89 6d 00       	mov    %r13w,0x0(%rbp)
    2d35:	66 45 89 20          	mov    %r12w,(%r8)
    2d39:	41 39 c9             	cmp    %ecx,%r9d
    2d3c:	0f 86 c4 01 00 00    	jbe    2f06 <riscv_dsp_cfft_rd2_q15+0x986>
    2d42:	33 44 24 c8          	xor    -0x38(%rsp),%eax
    2d46:	41 85 c3             	test   %eax,%r11d
    2d49:	75 10                	jne    2d5b <riscv_dsp_cfft_rd2_q15+0x7db>
    2d4b:	45 89 d8             	mov    %r11d,%r8d
    2d4e:	66 90                	xchg   %ax,%ax
    2d50:	41 d1 e8             	shr    %r8d
    2d53:	44 31 c0             	xor    %r8d,%eax
    2d56:	41 85 c0             	test   %eax,%r8d
    2d59:	74 f5                	je     2d50 <riscv_dsp_cfft_rd2_q15+0x7d0>
    2d5b:	39 c8                	cmp    %ecx,%eax
    2d5d:	0f 86 9b 00 00 00    	jbe    2dfe <riscv_dsp_cfft_rd2_q15+0x87e>
    2d63:	44 8d 42 04          	lea    0x4(%rdx),%r8d
    2d67:	8d 2c 00             	lea    (%rax,%rax,1),%ebp
    2d6a:	4e 8d 24 46          	lea    (%rsi,%r8,2),%r12
    2d6e:	49 89 e8             	mov    %rbp,%r8
    2d71:	48 8d 2c 6e          	lea    (%rsi,%rbp,2),%rbp
    2d75:	45 0f b7 2c 24       	movzwl (%r12),%r13d
    2d7a:	44 0f b7 75 00       	movzwl 0x0(%rbp),%r14d
    2d7f:	41 83 c0 01          	add    $0x1,%r8d
    2d83:	4e 8d 04 46          	lea    (%rsi,%r8,2),%r8
    2d87:	66 45 89 34 24       	mov    %r14w,(%r12)
    2d8c:	66 44 89 6d 00       	mov    %r13w,0x0(%rbp)
    2d91:	8d 6a 05             	lea    0x5(%rdx),%ebp
    2d94:	45 0f b7 28          	movzwl (%r8),%r13d
    2d98:	48 8d 2c 6e          	lea    (%rsi,%rbp,2),%rbp
    2d9c:	44 0f b7 65 00       	movzwl 0x0(%rbp),%r12d
    2da1:	66 44 89 6d 00       	mov    %r13w,0x0(%rbp)
    2da6:	bd fc ff ff ff       	mov    $0xfffffffc,%ebp
    2dab:	29 d5                	sub    %edx,%ebp
    2dad:	66 45 89 20          	mov    %r12w,(%r8)
    2db1:	41 89 c0             	mov    %eax,%r8d
    2db4:	48 63 ed             	movslq %ebp,%rbp
    2db7:	41 f7 d8             	neg    %r8d
    2dba:	48 01 ed             	add    %rbp,%rbp
    2dbd:	45 01 c0             	add    %r8d,%r8d
    2dc0:	4c 8d 2c 2f          	lea    (%rdi,%rbp,1),%r13
    2dc4:	48 8d 6c 2f fe       	lea    -0x2(%rdi,%rbp,1),%rbp
    2dc9:	4d 63 c0             	movslq %r8d,%r8
    2dcc:	45 0f b7 75 00       	movzwl 0x0(%r13),%r14d
    2dd1:	4d 01 c0             	add    %r8,%r8
    2dd4:	4e 8d 24 07          	lea    (%rdi,%r8,1),%r12
    2dd8:	4e 8d 44 07 fe       	lea    -0x2(%rdi,%r8,1),%r8
    2ddd:	45 0f b7 3c 24       	movzwl (%r12),%r15d
    2de2:	66 45 89 7d 00       	mov    %r15w,0x0(%r13)
    2de7:	66 45 89 34 24       	mov    %r14w,(%r12)
    2dec:	44 0f b7 65 00       	movzwl 0x0(%rbp),%r12d
    2df1:	45 0f b7 28          	movzwl (%r8),%r13d
    2df5:	66 44 89 6d 00       	mov    %r13w,0x0(%rbp)
    2dfa:	66 45 89 20          	mov    %r12w,(%r8)
    2dfe:	44 01 c8             	add    %r9d,%eax
    2e01:	44 8d 42 06          	lea    0x6(%rdx),%r8d
    2e05:	83 c1 04             	add    $0x4,%ecx
    2e08:	8d 2c 00             	lea    (%rax,%rax,1),%ebp
    2e0b:	4e 8d 24 46          	lea    (%rsi,%r8,2),%r12
    2e0f:	49 89 e8             	mov    %rbp,%r8
    2e12:	48 8d 2c 6e          	lea    (%rsi,%rbp,2),%rbp
    2e16:	45 0f b7 2c 24       	movzwl (%r12),%r13d
    2e1b:	44 0f b7 75 00       	movzwl 0x0(%rbp),%r14d
    2e20:	41 83 c0 01          	add    $0x1,%r8d
    2e24:	4e 8d 04 46          	lea    (%rsi,%r8,2),%r8
    2e28:	66 45 89 34 24       	mov    %r14w,(%r12)
    2e2d:	66 44 89 6d 00       	mov    %r13w,0x0(%rbp)
    2e32:	8d 6a 07             	lea    0x7(%rdx),%ebp
    2e35:	45 0f b7 28          	movzwl (%r8),%r13d
    2e39:	83 c2 08             	add    $0x8,%edx
    2e3c:	48 8d 2c 6e          	lea    (%rsi,%rbp,2),%rbp
    2e40:	44 0f b7 65 00       	movzwl 0x0(%rbp),%r12d
    2e45:	66 44 89 6d 00       	mov    %r13w,0x0(%rbp)
    2e4a:	66 45 89 20          	mov    %r12w,(%r8)
    2e4e:	e9 dd fd ff ff       	jmp    2c30 <riscv_dsp_cfft_rd2_q15+0x6b0>
    2e53:	0f 1f 44 00 00       	nopl   0x0(%rax,%rax,1)
    2e58:	8d 90 00 ff ff ff    	lea    -0x100(%rax),%edx
    2e5e:	44 89 e9             	mov    %r13d,%ecx
    2e61:	29 d1                	sub    %edx,%ecx
    2e63:	85 c9                	test   %ecx,%ecx
    2e65:	7e 19                	jle    2e80 <riscv_dsp_cfft_rd2_q15+0x900>
    2e67:	48 63 c9             	movslq %ecx,%rcx
    2e6a:	48 63 d2             	movslq %edx,%rdx
    2e6d:	45 0f b7 0c 4c       	movzwl (%r12,%rcx,2),%r9d
    2e72:	45 0f b7 34 54       	movzwl (%r12,%rdx,2),%r14d
    2e77:	41 f7 d9             	neg    %r9d
    2e7a:	e9 c8 fb ff ff       	jmp    2a47 <riscv_dsp_cfft_rd2_q15+0x4c7>
    2e7f:	90                   	nop
    2e80:	2d 00 02 00 00       	sub    $0x200,%eax
    2e85:	44 89 ea             	mov    %r13d,%edx
    2e88:	29 c2                	sub    %eax,%edx
    2e8a:	48 98                	cltq   
    2e8c:	45 0f b7 34 44       	movzwl (%r12,%rax,2),%r14d
    2e91:	48 63 ca             	movslq %edx,%rcx
    2e94:	45 0f b7 0c 4c       	movzwl (%r12,%rcx,2),%r9d
    2e99:	41 f7 de             	neg    %r14d
    2e9c:	85 d2                	test   %edx,%edx
    2e9e:	0f 8e a3 fb ff ff    	jle    2a47 <riscv_dsp_cfft_rd2_q15+0x4c7>
    2ea4:	44 89 c8             	mov    %r9d,%eax
    2ea7:	45 89 f1             	mov    %r14d,%r9d
    2eaa:	f7 d8                	neg    %eax
    2eac:	41 89 c6             	mov    %eax,%r14d
    2eaf:	e9 93 fb ff ff       	jmp    2a47 <riscv_dsp_cfft_rd2_q15+0x4c7>
    2eb4:	48 8b 54 24 d8       	mov    -0x28(%rsp),%rdx
    2eb9:	41 89 db             	mov    %ebx,%r11d
    2ebc:	0f 1f 40 00          	nopl   0x0(%rax)
    2ec0:	0f bf 32             	movswl (%rdx),%esi
    2ec3:	0f bf 2c 3a          	movswl (%rdx,%rdi,1),%ebp
    2ec7:	44 0f bf 44 3a 02    	movswl 0x2(%rdx,%rdi,1),%r8d
    2ecd:	8d 4c 35 00          	lea    0x0(%rbp,%rsi,1),%ecx
    2ed1:	29 ee                	sub    %ebp,%esi
    2ed3:	d1 f9                	sar    %ecx
    2ed5:	d1 fe                	sar    %esi
    2ed7:	66 89 0a             	mov    %cx,(%rdx)
    2eda:	0f bf 4a 02          	movswl 0x2(%rdx),%ecx
    2ede:	45 8d 0c 08          	lea    (%r8,%rcx,1),%r9d
    2ee2:	44 29 c1             	sub    %r8d,%ecx
    2ee5:	41 d1 f9             	sar    %r9d
    2ee8:	d1 f9                	sar    %ecx
    2eea:	66 44 89 4a 02       	mov    %r9w,0x2(%rdx)
    2eef:	66 89 34 3a          	mov    %si,(%rdx,%rdi,1)
    2ef3:	66 89 4c 3a 02       	mov    %cx,0x2(%rdx,%rdi,1)
    2ef8:	48 01 c2             	add    %rax,%rdx
    2efb:	41 83 eb 01          	sub    $0x1,%r11d
    2eff:	75 bf                	jne    2ec0 <riscv_dsp_cfft_rd2_q15+0x940>
    2f01:	e9 f9 fa ff ff       	jmp    29ff <riscv_dsp_cfft_rd2_q15+0x47f>
    2f06:	5b                   	pop    %rbx
    2f07:	31 c0                	xor    %eax,%eax
    2f09:	5d                   	pop    %rbp
    2f0a:	41 5c                	pop    %r12
    2f0c:	41 5d                	pop    %r13
    2f0e:	41 5e                	pop    %r14
    2f10:	41 5f                	pop    %r15
    2f12:	c3                   	ret    
    2f13:	66 2e 0f 1f 84 00 00 	cs nopw 0x0(%rax,%rax,1)
    2f1a:	00 00 00 
    2f1d:	0f 1f 00             	nopl   (%rax)

0000000000002f20 <riscv_dsp_cifft_rd2_q15>:
    2f20:	f3 0f 1e fa          	endbr64 
    2f24:	89 f1                	mov    %esi,%ecx
    2f26:	b8 01 00 00 00       	mov    $0x1,%eax
    2f2b:	41 57                	push   %r15
    2f2d:	d3 e0                	shl    %cl,%eax
    2f2f:	41 56                	push   %r14
    2f31:	41 89 c1             	mov    %eax,%r9d
    2f34:	41 55                	push   %r13
    2f36:	41 54                	push   %r12
    2f38:	4d 01 c9             	add    %r9,%r9
    2f3b:	55                   	push   %rbp
    2f3c:	4e 8d 2c 0f          	lea    (%rdi,%r9,1),%r13
    2f40:	53                   	push   %rbx
    2f41:	48 89 fb             	mov    %rdi,%rbx
    2f44:	0f b7 17             	movzwl (%rdi),%edx
    2f47:	48 89 7c 24 d8       	mov    %rdi,-0x28(%rsp)
    2f4c:	89 74 24 f0          	mov    %esi,-0x10(%rsp)
    2f50:	0f b7 77 02          	movzwl 0x2(%rdi),%esi
    2f54:	41 0f b7 7d 00       	movzwl 0x0(%r13),%edi
    2f59:	89 44 24 f4          	mov    %eax,-0xc(%rsp)
    2f5d:	41 0f b7 45 02       	movzwl 0x2(%r13),%eax
    2f62:	8d 0c 3a             	lea    (%rdx,%rdi,1),%ecx
    2f65:	29 fa                	sub    %edi,%edx
    2f67:	66 89 0b             	mov    %cx,(%rbx)
    2f6a:	8d 0c 30             	lea    (%rax,%rsi,1),%ecx
    2f6d:	29 f0                	sub    %esi,%eax
    2f6f:	f7 d9                	neg    %ecx
    2f71:	66 89 4b 02          	mov    %cx,0x2(%rbx)
    2f75:	66 41 89 45 02       	mov    %ax,0x2(%r13)
    2f7a:	48 8d 43 04          	lea    0x4(%rbx),%rax
    2f7e:	66 41 89 55 00       	mov    %dx,0x0(%r13)
    2f83:	48 89 44 24 e0       	mov    %rax,-0x20(%rsp)
    2f88:	49 39 c5             	cmp    %rax,%r13
    2f8b:	0f 84 11 01 00 00    	je     30a2 <riscv_dsp_cifft_rd2_q15+0x182>
    2f91:	48 89 c2             	mov    %rax,%rdx
    2f94:	b8 0a 00 00 00       	mov    $0xa,%eax
    2f99:	2b 44 24 f0          	sub    -0x10(%rsp),%eax
    2f9d:	45 31 d2             	xor    %r10d,%r10d
    2fa0:	48 8d 2d 3d 46 00 00 	lea    0x463d(%rip),%rbp        # 75e4 <riscv_dsp_cos_table_q15_1024+0x4>
    2fa7:	41 bc 00 01 00 00    	mov    $0x100,%r12d
    2fad:	89 c1                	mov    %eax,%ecx
    2faf:	eb 7e                	jmp    302f <riscv_dsp_cifft_rd2_q15+0x10f>
    2fb1:	48 98                	cltq   
    2fb3:	48 63 ff             	movslq %edi,%rdi
    2fb6:	0f b7 74 45 00       	movzwl 0x0(%rbp,%rax,2),%esi
    2fbb:	44 0f b7 5c 7d 00    	movzwl 0x0(%rbp,%rdi,2),%r11d
    2fc1:	0f bf 3a             	movswl (%rdx),%edi
    2fc4:	46 0f bf 3c 0a       	movswl (%rdx,%r9,1),%r15d
    2fc9:	45 0f bf db          	movswl %r11w,%r11d
    2fcd:	48 83 c2 04          	add    $0x4,%rdx
    2fd1:	0f b7 5a fe          	movzwl -0x2(%rdx),%ebx
    2fd5:	42 0f b7 44 0a fe    	movzwl -0x2(%rdx,%r9,1),%eax
    2fdb:	41 89 f8             	mov    %edi,%r8d
    2fde:	44 29 ff             	sub    %r15d,%edi
    2fe1:	45 01 f8             	add    %r15d,%r8d
    2fe4:	44 0f bf f3          	movswl %bx,%r14d
    2fe8:	66 44 89 42 fc       	mov    %r8w,-0x4(%rdx)
    2fed:	44 0f bf c0          	movswl %ax,%r8d
    2ff1:	01 d8                	add    %ebx,%eax
    2ff3:	44 89 db             	mov    %r11d,%ebx
    2ff6:	f7 d8                	neg    %eax
    2ff8:	44 0f af df          	imul   %edi,%r11d
    2ffc:	45 29 f0             	sub    %r14d,%r8d
    2fff:	66 89 42 fe          	mov    %ax,-0x2(%rdx)
    3003:	0f bf c6             	movswl %si,%eax
    3006:	41 0f af d8          	imul   %r8d,%ebx
    300a:	89 c6                	mov    %eax,%esi
    300c:	41 0f af c0          	imul   %r8d,%eax
    3010:	0f af f7             	imul   %edi,%esi
    3013:	44 29 d8             	sub    %r11d,%eax
    3016:	01 de                	add    %ebx,%esi
    3018:	c1 f8 0f             	sar    $0xf,%eax
    301b:	c1 fe 0f             	sar    $0xf,%esi
    301e:	66 42 89 44 0a fe    	mov    %ax,-0x2(%rdx,%r9,1)
    3024:	66 42 89 74 0a fc    	mov    %si,-0x4(%rdx,%r9,1)
    302a:	49 39 d5             	cmp    %rdx,%r13
    302d:	74 73                	je     30a2 <riscv_dsp_cifft_rd2_q15+0x182>
    302f:	41 83 c2 01          	add    $0x1,%r10d
    3033:	44 89 e7             	mov    %r12d,%edi
    3036:	44 89 d0             	mov    %r10d,%eax
    3039:	d3 e0                	shl    %cl,%eax
    303b:	29 c7                	sub    %eax,%edi
    303d:	85 ff                	test   %edi,%edi
    303f:	0f 8f 6c ff ff ff    	jg     2fb1 <riscv_dsp_cifft_rd2_q15+0x91>
    3045:	8d b8 00 ff ff ff    	lea    -0x100(%rax),%edi
    304b:	44 89 e6             	mov    %r12d,%esi
    304e:	29 fe                	sub    %edi,%esi
    3050:	85 f6                	test   %esi,%esi
    3052:	7e 1a                	jle    306e <riscv_dsp_cifft_rd2_q15+0x14e>
    3054:	48 63 f6             	movslq %esi,%rsi
    3057:	48 63 ff             	movslq %edi,%rdi
    305a:	0f b7 44 75 00       	movzwl 0x0(%rbp,%rsi,2),%eax
    305f:	44 0f b7 5c 7d 00    	movzwl 0x0(%rbp,%rdi,2),%r11d
    3065:	f7 d8                	neg    %eax
    3067:	89 c6                	mov    %eax,%esi
    3069:	e9 53 ff ff ff       	jmp    2fc1 <riscv_dsp_cifft_rd2_q15+0xa1>
    306e:	2d 00 02 00 00       	sub    $0x200,%eax
    3073:	44 89 e7             	mov    %r12d,%edi
    3076:	29 c7                	sub    %eax,%edi
    3078:	48 98                	cltq   
    307a:	44 0f b7 5c 45 00    	movzwl 0x0(%rbp,%rax,2),%r11d
    3080:	48 63 f7             	movslq %edi,%rsi
    3083:	0f b7 74 75 00       	movzwl 0x0(%rbp,%rsi,2),%esi
    3088:	41 f7 db             	neg    %r11d
    308b:	85 ff                	test   %edi,%edi
    308d:	0f 8e 2e ff ff ff    	jle    2fc1 <riscv_dsp_cifft_rd2_q15+0xa1>
    3093:	89 f0                	mov    %esi,%eax
    3095:	44 89 de             	mov    %r11d,%esi
    3098:	f7 d8                	neg    %eax
    309a:	41 89 c3             	mov    %eax,%r11d
    309d:	e9 1f ff ff ff       	jmp    2fc1 <riscv_dsp_cifft_rd2_q15+0xa1>
    30a2:	8b 44 24 f4          	mov    -0xc(%rsp),%eax
    30a6:	8b 5c 24 f0          	mov    -0x10(%rsp),%ebx
    30aa:	41 be 02 00 00 00    	mov    $0x2,%r14d
    30b0:	89 44 24 c8          	mov    %eax,-0x38(%rsp)
    30b4:	89 d8                	mov    %ebx,%eax
    30b6:	83 e8 02             	sub    $0x2,%eax
    30b9:	89 44 24 ec          	mov    %eax,-0x14(%rsp)
    30bd:	0f 84 e9 02 00 00    	je     33ac <riscv_dsp_cifft_rd2_q15+0x48c>
    30c3:	b8 0a 00 00 00       	mov    $0xa,%eax
    30c8:	29 d8                	sub    %ebx,%eax
    30ca:	89 44 24 b8          	mov    %eax,-0x48(%rsp)
    30ce:	66 90                	xchg   %ax,%ax
    30d0:	d1 6c 24 c8          	shrl   -0x38(%rsp)
    30d4:	8b 6c 24 c8          	mov    -0x38(%rsp),%ebp
    30d8:	48 8b 44 24 d8       	mov    -0x28(%rsp),%rax
    30dd:	48 8d 7c 2d 00       	lea    0x0(%rbp,%rbp,1),%rdi
    30e2:	48 01 f8             	add    %rdi,%rax
    30e5:	48 89 44 24 a8       	mov    %rax,-0x58(%rsp)
    30ea:	45 85 f6             	test   %r14d,%r14d
    30ed:	0f 84 d5 01 00 00    	je     32c8 <riscv_dsp_cifft_rd2_q15+0x3a8>
    30f3:	48 8d 04 ad 00 00 00 	lea    0x0(,%rbp,4),%rax
    30fa:	00 
    30fb:	48 8d 34 2f          	lea    (%rdi,%rbp,1),%rsi
    30ff:	48 c1 e6 02          	shl    $0x2,%rsi
    3103:	48 83 f8 03          	cmp    $0x3,%rax
    3107:	0f 97 c1             	seta   %cl
    310a:	48 85 ff             	test   %rdi,%rdi
    310d:	0f 95 c2             	setne  %dl
    3110:	84 d1                	test   %dl,%cl
    3112:	0f 84 82 11 00 00    	je     429a <riscv_dsp_cifft_rd2_q15+0x137a>
    3118:	48 8d 56 02          	lea    0x2(%rsi),%rdx
    311c:	48 39 d7             	cmp    %rdx,%rdi
    311f:	0f 8e 75 11 00 00    	jle    429a <riscv_dsp_cifft_rd2_q15+0x137a>
    3125:	41 8d 56 ff          	lea    -0x1(%r14),%edx
    3129:	83 fa 02             	cmp    $0x2,%edx
    312c:	0f 86 c3 11 00 00    	jbe    42f5 <riscv_dsp_cifft_rd2_q15+0x13d5>
    3132:	45 89 f2             	mov    %r14d,%r10d
    3135:	49 89 e9             	mov    %rbp,%r9
    3138:	48 8b 4c 24 d8       	mov    -0x28(%rsp),%rcx
    313d:	48 8b 54 24 a8       	mov    -0x58(%rsp),%rdx
    3142:	41 c1 ea 02          	shr    $0x2,%r10d
    3146:	49 c1 e1 04          	shl    $0x4,%r9
    314a:	45 31 c0             	xor    %r8d,%r8d
    314d:	0f 1f 00             	nopl   (%rax)
    3150:	66 0f 6e 3c 31       	movd   (%rcx,%rsi,1),%xmm7
    3155:	66 0f 6e 0c 41       	movd   (%rcx,%rax,2),%xmm1
    315a:	41 83 c0 01          	add    $0x1,%r8d
    315e:	66 0f 6e 01          	movd   (%rcx),%xmm0
    3162:	66 0f 6e 1c 01       	movd   (%rcx,%rax,1),%xmm3
    3167:	66 0f 62 cf          	punpckldq %xmm7,%xmm1
    316b:	66 0f 6e 24 32       	movd   (%rdx,%rsi,1),%xmm4
    3170:	66 0f 6e 12          	movd   (%rdx),%xmm2
    3174:	66 0f 62 c3          	punpckldq %xmm3,%xmm0
    3178:	66 0f 6e 3c 02       	movd   (%rdx,%rax,1),%xmm7
    317d:	66 0f 6c c1          	punpcklqdq %xmm1,%xmm0
    3181:	66 0f 6e 0c 42       	movd   (%rdx,%rax,2),%xmm1
    3186:	66 0f 62 d7          	punpckldq %xmm7,%xmm2
    318a:	66 0f 62 cc          	punpckldq %xmm4,%xmm1
    318e:	66 0f 6c d1          	punpcklqdq %xmm1,%xmm2
    3192:	66 0f 6f c8          	movdqa %xmm0,%xmm1
    3196:	66 0f fd ca          	paddw  %xmm2,%xmm1
    319a:	66 0f f9 c2          	psubw  %xmm2,%xmm0
    319e:	66 0f 70 d1 55       	pshufd $0x55,%xmm1,%xmm2
    31a3:	66 0f 7e 09          	movd   %xmm1,(%rcx)
    31a7:	66 0f 7e 14 01       	movd   %xmm2,(%rcx,%rax,1)
    31ac:	66 0f 6f d1          	movdqa %xmm1,%xmm2
    31b0:	66 0f 6a d1          	punpckhdq %xmm1,%xmm2
    31b4:	66 0f 70 c9 ff       	pshufd $0xff,%xmm1,%xmm1
    31b9:	66 0f 7e 14 41       	movd   %xmm2,(%rcx,%rax,2)
    31be:	66 0f 7e 0c 31       	movd   %xmm1,(%rcx,%rsi,1)
    31c3:	66 0f 70 c8 55       	pshufd $0x55,%xmm0,%xmm1
    31c8:	4c 01 c9             	add    %r9,%rcx
    31cb:	66 0f 7e 02          	movd   %xmm0,(%rdx)
    31cf:	66 0f 7e 0c 02       	movd   %xmm1,(%rdx,%rax,1)
    31d4:	66 0f 6f c8          	movdqa %xmm0,%xmm1
    31d8:	66 0f 6a c8          	punpckhdq %xmm0,%xmm1
    31dc:	66 0f 70 c0 ff       	pshufd $0xff,%xmm0,%xmm0
    31e1:	66 0f 7e 0c 42       	movd   %xmm1,(%rdx,%rax,2)
    31e6:	66 0f 7e 04 32       	movd   %xmm0,(%rdx,%rsi,1)
    31eb:	4c 01 ca             	add    %r9,%rdx
    31ee:	45 39 d0             	cmp    %r10d,%r8d
    31f1:	0f 85 59 ff ff ff    	jne    3150 <riscv_dsp_cifft_rd2_q15+0x230>
    31f7:	44 89 f6             	mov    %r14d,%esi
    31fa:	48 8b 5c 24 d8       	mov    -0x28(%rsp),%rbx
    31ff:	83 e6 fc             	and    $0xfffffffc,%esi
    3202:	89 f1                	mov    %esi,%ecx
    3204:	48 89 ca             	mov    %rcx,%rdx
    3207:	48 0f af d7          	imul   %rdi,%rdx
    320b:	48 8d 14 53          	lea    (%rbx,%rdx,2),%rdx
    320f:	41 39 f6             	cmp    %esi,%r14d
    3212:	0f 84 b0 00 00 00    	je     32c8 <riscv_dsp_cifft_rd2_q15+0x3a8>
    3218:	45 89 f0             	mov    %r14d,%r8d
    321b:	41 29 f0             	sub    %esi,%r8d
    321e:	41 83 f8 01          	cmp    $0x1,%r8d
    3222:	74 72                	je     3296 <riscv_dsp_cifft_rd2_q15+0x376>
    3224:	48 0f af cf          	imul   %rdi,%rcx
    3228:	48 8b 5c 24 d8       	mov    -0x28(%rsp),%rbx
    322d:	48 8d 34 4b          	lea    (%rbx,%rcx,2),%rsi
    3231:	48 01 e9             	add    %rbp,%rcx
    3234:	48 8d 0c 4b          	lea    (%rbx,%rcx,2),%rcx
    3238:	4c 8d 14 06          	lea    (%rsi,%rax,1),%r10
    323c:	66 0f 6e 06          	movd   (%rsi),%xmm0
    3240:	66 41 0f 6e 1a       	movd   (%r10),%xmm3
    3245:	4c 8d 0c 01          	lea    (%rcx,%rax,1),%r9
    3249:	66 0f 6e 09          	movd   (%rcx),%xmm1
    324d:	66 41 0f 6e 21       	movd   (%r9),%xmm4
    3252:	66 0f 62 c3          	punpckldq %xmm3,%xmm0
    3256:	66 0f 62 cc          	punpckldq %xmm4,%xmm1
    325a:	66 0f 6f d0          	movdqa %xmm0,%xmm2
    325e:	66 0f fd d1          	paddw  %xmm1,%xmm2
    3262:	66 0f f9 c1          	psubw  %xmm1,%xmm0
    3266:	66 0f 7e 16          	movd   %xmm2,(%rsi)
    326a:	44 89 c6             	mov    %r8d,%esi
    326d:	66 0f 70 da e5       	pshufd $0xe5,%xmm2,%xmm3
    3272:	66 0f 70 e0 e5       	pshufd $0xe5,%xmm0,%xmm4
    3277:	83 e6 fe             	and    $0xfffffffe,%esi
    327a:	66 41 0f 7e 1a       	movd   %xmm3,(%r10)
    327f:	66 0f 7e 01          	movd   %xmm0,(%rcx)
    3283:	89 f1                	mov    %esi,%ecx
    3285:	48 0f af c1          	imul   %rcx,%rax
    3289:	66 41 0f 7e 21       	movd   %xmm4,(%r9)
    328e:	48 01 c2             	add    %rax,%rdx
    3291:	44 39 c6             	cmp    %r8d,%esi
    3294:	74 32                	je     32c8 <riscv_dsp_cifft_rd2_q15+0x3a8>
    3296:	48 8d 04 3a          	lea    (%rdx,%rdi,1),%rax
    329a:	0f b7 32             	movzwl (%rdx),%esi
    329d:	0f b7 4a 02          	movzwl 0x2(%rdx),%ecx
    32a1:	44 0f b7 08          	movzwl (%rax),%r9d
    32a5:	44 0f b7 40 02       	movzwl 0x2(%rax),%r8d
    32aa:	45 8d 14 31          	lea    (%r9,%rsi,1),%r10d
    32ae:	44 29 ce             	sub    %r9d,%esi
    32b1:	66 44 89 12          	mov    %r10w,(%rdx)
    32b5:	45 8d 14 08          	lea    (%r8,%rcx,1),%r10d
    32b9:	44 29 c1             	sub    %r8d,%ecx
    32bc:	66 44 89 52 02       	mov    %r10w,0x2(%rdx)
    32c1:	66 89 30             	mov    %si,(%rax)
    32c4:	66 89 48 02          	mov    %cx,0x2(%rax)
    32c8:	48 8b 44 24 e0       	mov    -0x20(%rsp),%rax
    32cd:	48 8b 5c 24 a8       	mov    -0x58(%rsp),%rbx
    32d2:	48 c1 e5 02          	shl    $0x2,%rbp
    32d6:	45 31 ed             	xor    %r13d,%r13d
    32d9:	49 89 c4             	mov    %rax,%r12
    32dc:	48 39 d8             	cmp    %rbx,%rax
    32df:	0f 84 b9 00 00 00    	je     339e <riscv_dsp_cifft_rd2_q15+0x47e>
    32e5:	0f 1f 00             	nopl   (%rax)
    32e8:	0f b6 4c 24 b8       	movzbl -0x48(%rsp),%ecx
    32ed:	45 01 f5             	add    %r14d,%r13d
    32f0:	ba 00 01 00 00       	mov    $0x100,%edx
    32f5:	44 89 e8             	mov    %r13d,%eax
    32f8:	d3 e0                	shl    %cl,%eax
    32fa:	29 c2                	sub    %eax,%edx
    32fc:	85 d2                	test   %edx,%edx
    32fe:	0f 8e 24 0f 00 00    	jle    4228 <riscv_dsp_cifft_rd2_q15+0x1308>
    3304:	48 8d 1d d9 42 00 00 	lea    0x42d9(%rip),%rbx        # 75e4 <riscv_dsp_cos_table_q15_1024+0x4>
    330b:	48 98                	cltq   
    330d:	48 63 d2             	movslq %edx,%rdx
    3310:	44 0f b7 1c 43       	movzwl (%rbx,%rax,2),%r11d
    3315:	0f b7 1c 53          	movzwl (%rbx,%rdx,2),%ebx
    3319:	45 85 f6             	test   %r14d,%r14d
    331c:	74 71                	je     338f <riscv_dsp_cifft_rd2_q15+0x46f>
    331e:	45 0f bf db          	movswl %r11w,%r11d
    3322:	0f bf db             	movswl %bx,%ebx
    3325:	4c 89 e0             	mov    %r12,%rax
    3328:	45 89 f0             	mov    %r14d,%r8d
    332b:	0f 1f 44 00 00       	nopl   0x0(%rax,%rax,1)
    3330:	0f bf 08             	movswl (%rax),%ecx
    3333:	44 0f bf 3c 38       	movswl (%rax,%rdi,1),%r15d
    3338:	44 0f b7 4c 38 02    	movzwl 0x2(%rax,%rdi,1),%r9d
    333e:	0f b7 70 02          	movzwl 0x2(%rax),%esi
    3342:	89 ca                	mov    %ecx,%edx
    3344:	44 29 f9             	sub    %r15d,%ecx
    3347:	44 01 fa             	add    %r15d,%edx
    334a:	45 0f bf d1          	movswl %r9w,%r10d
    334e:	66 89 10             	mov    %dx,(%rax)
    3351:	0f bf d6             	movswl %si,%edx
    3354:	44 01 ce             	add    %r9d,%esi
    3357:	44 29 d2             	sub    %r10d,%edx
    335a:	66 89 70 02          	mov    %si,0x2(%rax)
    335e:	89 ce                	mov    %ecx,%esi
    3360:	41 89 d1             	mov    %edx,%r9d
    3363:	41 0f af f3          	imul   %r11d,%esi
    3367:	44 0f af cb          	imul   %ebx,%r9d
    336b:	41 0f af d3          	imul   %r11d,%edx
    336f:	0f af cb             	imul   %ebx,%ecx
    3372:	44 01 ce             	add    %r9d,%esi
    3375:	c1 fe 0f             	sar    $0xf,%esi
    3378:	29 ca                	sub    %ecx,%edx
    337a:	66 89 34 38          	mov    %si,(%rax,%rdi,1)
    337e:	c1 fa 0f             	sar    $0xf,%edx
    3381:	66 89 54 38 02       	mov    %dx,0x2(%rax,%rdi,1)
    3386:	48 01 e8             	add    %rbp,%rax
    3389:	41 83 e8 01          	sub    $0x1,%r8d
    338d:	75 a1                	jne    3330 <riscv_dsp_cifft_rd2_q15+0x410>
    338f:	49 83 c4 04          	add    $0x4,%r12
    3393:	4c 39 64 24 a8       	cmp    %r12,-0x58(%rsp)
    3398:	0f 85 4a ff ff ff    	jne    32e8 <riscv_dsp_cifft_rd2_q15+0x3c8>
    339e:	45 01 f6             	add    %r14d,%r14d
    33a1:	83 6c 24 ec 01       	subl   $0x1,-0x14(%rsp)
    33a6:	0f 85 24 fd ff ff    	jne    30d0 <riscv_dsp_cifft_rd2_q15+0x1b0>
    33ac:	0f b6 4c 24 f0       	movzbl -0x10(%rsp),%ecx
    33b1:	b8 02 00 00 00       	mov    $0x2,%eax
    33b6:	d3 e0                	shl    %cl,%eax
    33b8:	4c 8d 34 00          	lea    (%rax,%rax,1),%r14
    33bc:	48 8b 44 24 d8       	mov    -0x28(%rsp),%rax
    33c1:	4e 8d 24 30          	lea    (%rax,%r14,1),%r12
    33c5:	4c 39 e0             	cmp    %r12,%rax
    33c8:	0f 84 b9 0b 00 00    	je     3f87 <riscv_dsp_cifft_rd2_q15+0x1067>
    33ce:	4c 89 e2             	mov    %r12,%rdx
    33d1:	48 29 c2             	sub    %rax,%rdx
    33d4:	48 83 ea 10          	sub    $0x10,%rdx
    33d8:	48 89 d1             	mov    %rdx,%rcx
    33db:	48 c1 e9 04          	shr    $0x4,%rcx
    33df:	48 83 c1 01          	add    $0x1,%rcx
    33e3:	48 83 fa 60          	cmp    $0x60,%rdx
    33e7:	0f 86 17 0f 00 00    	jbe    4304 <riscv_dsp_cifft_rd2_q15+0x13e4>
    33ed:	66 44 0f 6f 2d 8a 3d 	movdqa 0x3d8a(%rip),%xmm13        # 7180 <_IO_stdin_used+0x180>
    33f4:	00 00 
    33f6:	48 89 ca             	mov    %rcx,%rdx
    33f9:	48 c1 ea 03          	shr    $0x3,%rdx
    33fd:	48 c1 e2 07          	shl    $0x7,%rdx
    3401:	48 01 c2             	add    %rax,%rdx
    3404:	f3 0f 6f 00          	movdqu (%rax),%xmm0
    3408:	f3 44 0f 6f 40 10    	movdqu 0x10(%rax),%xmm8
    340e:	48 83 e8 80          	sub    $0xffffffffffffff80,%rax
    3412:	f3 0f 6f 60 a0       	movdqu -0x60(%rax),%xmm4
    3417:	f3 0f 6f 68 b0       	movdqu -0x50(%rax),%xmm5
    341c:	66 0f 6f f8          	movdqa %xmm0,%xmm7
    3420:	66 0f 6f c8          	movdqa %xmm0,%xmm1
    3424:	f3 0f 6f 50 c0       	movdqu -0x40(%rax),%xmm2
    3429:	66 41 0f 61 c0       	punpcklwd %xmm8,%xmm0
    342e:	66 41 0f 61 f8       	punpcklwd %xmm8,%xmm7
    3433:	66 41 0f 69 c8       	punpckhwd %xmm8,%xmm1
    3438:	66 44 0f 6f c4       	movdqa %xmm4,%xmm8
    343d:	f3 0f 6f 70 d0       	movdqu -0x30(%rax),%xmm6
    3442:	66 44 0f 6f d7       	movdqa %xmm7,%xmm10
    3447:	66 44 0f 61 c5       	punpcklwd %xmm5,%xmm8
    344c:	66 0f 61 f9          	punpcklwd %xmm1,%xmm7
    3450:	f3 0f 6f 58 e0       	movdqu -0x20(%rax),%xmm3
    3455:	66 44 0f 69 d1       	punpckhwd %xmm1,%xmm10
    345a:	66 0f 61 c1          	punpcklwd %xmm1,%xmm0
    345e:	66 0f 6f cc          	movdqa %xmm4,%xmm1
    3462:	f3 44 0f 6f 48 f0    	movdqu -0x10(%rax),%xmm9
    3468:	66 0f 69 cd          	punpckhwd %xmm5,%xmm1
    346c:	66 41 0f 61 fa       	punpcklwd %xmm10,%xmm7
    3471:	66 41 0f 69 c2       	punpckhwd %xmm10,%xmm0
    3476:	66 0f 61 e5          	punpcklwd %xmm5,%xmm4
    347a:	66 45 0f 6f d0       	movdqa %xmm8,%xmm10
    347f:	66 0f 6f ea          	movdqa %xmm2,%xmm5
    3483:	66 44 0f 69 d1       	punpckhwd %xmm1,%xmm10
    3488:	66 0f 61 ee          	punpcklwd %xmm6,%xmm5
    348c:	66 44 0f 61 c1       	punpcklwd %xmm1,%xmm8
    3491:	66 0f 61 e1          	punpcklwd %xmm1,%xmm4
    3495:	66 0f 6f ca          	movdqa %xmm2,%xmm1
    3499:	66 45 0f 61 c2       	punpcklwd %xmm10,%xmm8
    349e:	66 41 0f 69 e2       	punpckhwd %xmm10,%xmm4
    34a3:	66 0f 69 ce          	punpckhwd %xmm6,%xmm1
    34a7:	66 44 0f 6f d5       	movdqa %xmm5,%xmm10
    34ac:	66 0f 61 d6          	punpcklwd %xmm6,%xmm2
    34b0:	66 0f 6f f3          	movdqa %xmm3,%xmm6
    34b4:	66 44 0f 69 d1       	punpckhwd %xmm1,%xmm10
    34b9:	66 41 0f 61 f1       	punpcklwd %xmm9,%xmm6
    34be:	66 0f 61 e9          	punpcklwd %xmm1,%xmm5
    34c2:	66 0f 61 d1          	punpcklwd %xmm1,%xmm2
    34c6:	66 0f 6f cb          	movdqa %xmm3,%xmm1
    34ca:	66 41 0f 61 ea       	punpcklwd %xmm10,%xmm5
    34cf:	66 41 0f 69 d2       	punpckhwd %xmm10,%xmm2
    34d4:	66 41 0f 69 c9       	punpckhwd %xmm9,%xmm1
    34d9:	66 44 0f 6f d6       	movdqa %xmm6,%xmm10
    34de:	66 41 0f 61 d9       	punpcklwd %xmm9,%xmm3
    34e3:	66 44 0f 69 d1       	punpckhwd %xmm1,%xmm10
    34e8:	66 0f 61 f1          	punpcklwd %xmm1,%xmm6
    34ec:	66 0f 61 d9          	punpcklwd %xmm1,%xmm3
    34f0:	66 0f 6f cf          	movdqa %xmm7,%xmm1
    34f4:	66 44 0f 6f cf       	movdqa %xmm7,%xmm9
    34f9:	66 41 0f 61 f2       	punpcklwd %xmm10,%xmm6
    34fe:	66 41 0f 61 c8       	punpcklwd %xmm8,%xmm1
    3503:	66 41 0f 69 da       	punpckhwd %xmm10,%xmm3
    3508:	66 45 0f 69 c8       	punpckhwd %xmm8,%xmm9
    350d:	66 44 0f 6f d1       	movdqa %xmm1,%xmm10
    3512:	66 41 0f 61 f8       	punpcklwd %xmm8,%xmm7
    3517:	66 41 0f 61 c9       	punpcklwd %xmm9,%xmm1
    351c:	66 45 0f 69 d1       	punpckhwd %xmm9,%xmm10
    3521:	66 41 0f 61 f9       	punpcklwd %xmm9,%xmm7
    3526:	66 44 0f 6f cd       	movdqa %xmm5,%xmm9
    352b:	66 44 0f 61 ce       	punpcklwd %xmm6,%xmm9
    3530:	66 44 0f 6f c5       	movdqa %xmm5,%xmm8
    3535:	66 41 0f 61 ca       	punpcklwd %xmm10,%xmm1
    353a:	66 44 0f 69 c6       	punpckhwd %xmm6,%xmm8
    353f:	66 41 0f 69 fa       	punpckhwd %xmm10,%xmm7
    3544:	66 0f 61 ee          	punpcklwd %xmm6,%xmm5
    3548:	66 45 0f 6f d1       	movdqa %xmm9,%xmm10
    354d:	66 41 0f 61 e8       	punpcklwd %xmm8,%xmm5
    3552:	66 45 0f 61 c8       	punpcklwd %xmm8,%xmm9
    3557:	66 45 0f 69 d0       	punpckhwd %xmm8,%xmm10
    355c:	66 44 0f 6f c0       	movdqa %xmm0,%xmm8
    3561:	66 0f 6f f0          	movdqa %xmm0,%xmm6
    3565:	66 44 0f 61 c4       	punpcklwd %xmm4,%xmm8
    356a:	66 45 0f 61 ca       	punpcklwd %xmm10,%xmm9
    356f:	66 41 0f 69 ea       	punpckhwd %xmm10,%xmm5
    3574:	66 0f 69 f4          	punpckhwd %xmm4,%xmm6
    3578:	66 45 0f 6f d0       	movdqa %xmm8,%xmm10
    357d:	66 0f 61 c4          	punpcklwd %xmm4,%xmm0
    3581:	66 0f 6f e2          	movdqa %xmm2,%xmm4
    3585:	66 44 0f 69 d6       	punpckhwd %xmm6,%xmm10
    358a:	66 44 0f 61 c6       	punpcklwd %xmm6,%xmm8
    358f:	66 0f 61 e3          	punpcklwd %xmm3,%xmm4
    3593:	66 0f 61 c6          	punpcklwd %xmm6,%xmm0
    3597:	66 0f 6f f2          	movdqa %xmm2,%xmm6
    359b:	66 0f 69 f3          	punpckhwd %xmm3,%xmm6
    359f:	66 45 0f 61 c2       	punpcklwd %xmm10,%xmm8
    35a4:	66 41 0f 69 c2       	punpckhwd %xmm10,%xmm0
    35a9:	66 0f 61 d3          	punpcklwd %xmm3,%xmm2
    35ad:	66 44 0f 6f d4       	movdqa %xmm4,%xmm10
    35b2:	66 0f 61 e6          	punpcklwd %xmm6,%xmm4
    35b6:	66 44 0f 69 d6       	punpckhwd %xmm6,%xmm10
    35bb:	66 0f 61 d6          	punpcklwd %xmm6,%xmm2
    35bf:	66 0f 6f f1          	movdqa %xmm1,%xmm6
    35c3:	66 41 0f 61 f1       	punpcklwd %xmm9,%xmm6
    35c8:	66 0f 6f d9          	movdqa %xmm1,%xmm3
    35cc:	66 41 0f 61 e2       	punpcklwd %xmm10,%xmm4
    35d1:	66 41 0f 69 d2       	punpckhwd %xmm10,%xmm2
    35d6:	66 41 0f 69 d9       	punpckhwd %xmm9,%xmm3
    35db:	66 44 0f 6f d6       	movdqa %xmm6,%xmm10
    35e0:	66 41 0f 61 c9       	punpcklwd %xmm9,%xmm1
    35e5:	66 44 0f 69 d3       	punpckhwd %xmm3,%xmm10
    35ea:	66 0f 61 f3          	punpcklwd %xmm3,%xmm6
    35ee:	66 0f 61 cb          	punpcklwd %xmm3,%xmm1
    35f2:	66 41 0f 6f d8       	movdqa %xmm8,%xmm3
    35f7:	66 45 0f 6f c8       	movdqa %xmm8,%xmm9
    35fc:	66 0f 61 dc          	punpcklwd %xmm4,%xmm3
    3600:	66 44 0f 69 cc       	punpckhwd %xmm4,%xmm9
    3605:	66 41 0f 61 f2       	punpcklwd %xmm10,%xmm6
    360a:	66 41 0f 69 ca       	punpckhwd %xmm10,%xmm1
    360f:	66 44 0f 61 c4       	punpcklwd %xmm4,%xmm8
    3614:	66 44 0f 6f d3       	movdqa %xmm3,%xmm10
    3619:	66 45 0f 69 d1       	punpckhwd %xmm9,%xmm10
    361e:	66 41 0f 61 d9       	punpcklwd %xmm9,%xmm3
    3623:	66 45 0f 61 c1       	punpcklwd %xmm9,%xmm8
    3628:	66 44 0f 6f cf       	movdqa %xmm7,%xmm9
    362d:	66 0f 6f e7          	movdqa %xmm7,%xmm4
    3631:	66 45 0f 69 c2       	punpckhwd %xmm10,%xmm8
    3636:	66 44 0f 61 cd       	punpcklwd %xmm5,%xmm9
    363b:	66 0f 69 e5          	punpckhwd %xmm5,%xmm4
    363f:	66 41 0f 61 da       	punpcklwd %xmm10,%xmm3
    3644:	66 0f 61 fd          	punpcklwd %xmm5,%xmm7
    3648:	66 45 0f 6f d1       	movdqa %xmm9,%xmm10
    364d:	66 0f 6f e8          	movdqa %xmm0,%xmm5
    3651:	66 44 0f 69 d4       	punpckhwd %xmm4,%xmm10
    3656:	66 44 0f 61 cc       	punpcklwd %xmm4,%xmm9
    365b:	66 0f 61 fc          	punpcklwd %xmm4,%xmm7
    365f:	66 0f 6f e0          	movdqa %xmm0,%xmm4
    3663:	66 0f 61 ea          	punpcklwd %xmm2,%xmm5
    3667:	66 0f 61 c2          	punpcklwd %xmm2,%xmm0
    366b:	66 0f 69 e2          	punpckhwd %xmm2,%xmm4
    366f:	66 0f ef d2          	pxor   %xmm2,%xmm2
    3673:	66 45 0f 61 ca       	punpcklwd %xmm10,%xmm9
    3678:	66 0f 65 d6          	pcmpgtw %xmm6,%xmm2
    367c:	66 41 0f 69 fa       	punpckhwd %xmm10,%xmm7
    3681:	66 44 0f 6f d5       	movdqa %xmm5,%xmm10
    3686:	66 44 0f 69 d4       	punpckhwd %xmm4,%xmm10
    368b:	66 0f 61 ec          	punpcklwd %xmm4,%xmm5
    368f:	66 0f 61 c4          	punpcklwd %xmm4,%xmm0
    3693:	66 0f 6f e6          	movdqa %xmm6,%xmm4
    3697:	66 45 0f 6f f1       	movdqa %xmm9,%xmm14
    369c:	66 44 0f 6f db       	movdqa %xmm3,%xmm11
    36a1:	66 0f 61 e2          	punpcklwd %xmm2,%xmm4
    36a5:	66 0f 69 f2          	punpckhwd %xmm2,%xmm6
    36a9:	66 0f ef d2          	pxor   %xmm2,%xmm2
    36ad:	66 41 0f 65 d1       	pcmpgtw %xmm9,%xmm2
    36b2:	66 41 0f 61 ea       	punpcklwd %xmm10,%xmm5
    36b7:	66 41 0f 69 c2       	punpckhwd %xmm10,%xmm0
    36bc:	66 44 0f 6f d4       	movdqa %xmm4,%xmm10
    36c1:	44 0f 29 54 24 a8    	movaps %xmm10,-0x58(%rsp)
    36c7:	66 44 0f 61 f2       	punpcklwd %xmm2,%xmm14
    36cc:	66 44 0f 69 ca       	punpckhwd %xmm2,%xmm9
    36d1:	66 0f ef d2          	pxor   %xmm2,%xmm2
    36d5:	66 0f 65 d3          	pcmpgtw %xmm3,%xmm2
    36d9:	66 41 0f 6f e1       	movdqa %xmm9,%xmm4
    36de:	0f 29 64 24 b8       	movaps %xmm4,-0x48(%rsp)
    36e3:	66 44 0f 61 da       	punpcklwd %xmm2,%xmm11
    36e8:	66 0f 69 da          	punpckhwd %xmm2,%xmm3
    36ec:	66 0f ef d2          	pxor   %xmm2,%xmm2
    36f0:	66 0f 65 d5          	pcmpgtw %xmm5,%xmm2
    36f4:	66 44 0f 6f fb       	movdqa %xmm3,%xmm15
    36f9:	66 0f 6f dd          	movdqa %xmm5,%xmm3
    36fd:	44 0f 29 5c 24 c8    	movaps %xmm11,-0x38(%rsp)
    3703:	66 45 0f 6f e3       	movdqa %xmm11,%xmm12
    3708:	66 0f 61 da          	punpcklwd %xmm2,%xmm3
    370c:	66 0f 69 ea          	punpckhwd %xmm2,%xmm5
    3710:	66 41 0f 6f d7       	movdqa %xmm15,%xmm2
    3715:	66 0f fe d5          	paddd  %xmm5,%xmm2
    3719:	66 44 0f fe e3       	paddd  %xmm3,%xmm12
    371e:	66 44 0f 6f da       	movdqa %xmm2,%xmm11
    3723:	66 41 0f 6f d2       	movdqa %xmm10,%xmm2
    3728:	66 0f fa 5c 24 c8    	psubd  -0x38(%rsp),%xmm3
    372e:	66 44 0f 6f 15 39 3a 	movdqa 0x3a39(%rip),%xmm10        # 7170 <_IO_stdin_used+0x170>
    3735:	00 00 
    3737:	66 41 0f fe d6       	paddd  %xmm14,%xmm2
    373c:	66 41 0f 72 f4 01    	pslld  $0x1,%xmm12
    3742:	66 41 0f fa ef       	psubd  %xmm15,%xmm5
    3747:	66 0f 72 f2 01       	pslld  $0x1,%xmm2
    374c:	66 41 0f 72 f3 01    	pslld  $0x1,%xmm11
    3752:	66 45 0f 6f f8       	movdqa %xmm8,%xmm15
    3757:	66 0f 72 f3 01       	pslld  $0x1,%xmm3
    375c:	66 0f 72 f5 01       	pslld  $0x1,%xmm5
    3761:	66 44 0f 6f ca       	movdqa %xmm2,%xmm9
    3766:	66 45 0f 66 cd       	pcmpgtd %xmm13,%xmm9
    376b:	66 41 0f db d1       	pand   %xmm9,%xmm2
    3770:	66 45 0f df cd       	pandn  %xmm13,%xmm9
    3775:	66 44 0f eb ca       	por    %xmm2,%xmm9
    377a:	66 41 0f 6f d1       	movdqa %xmm9,%xmm2
    377f:	66 0f 66 15 e9 39 00 	pcmpgtd 0x39e9(%rip),%xmm2        # 7170 <_IO_stdin_used+0x170>
    3786:	00 
    3787:	66 44 0f db d2       	pand   %xmm2,%xmm10
    378c:	66 41 0f df d1       	pandn  %xmm9,%xmm2
    3791:	66 44 0f 6f cc       	movdqa %xmm4,%xmm9
    3796:	66 0f 6f 25 d2 39 00 	movdqa 0x39d2(%rip),%xmm4        # 7170 <_IO_stdin_used+0x170>
    379d:	00 
    379e:	66 44 0f fe ce       	paddd  %xmm6,%xmm9
    37a3:	66 41 0f eb d2       	por    %xmm10,%xmm2
    37a8:	66 0f fa 74 24 b8    	psubd  -0x48(%rsp),%xmm6
    37ae:	66 41 0f 72 f1 01    	pslld  $0x1,%xmm9
    37b4:	66 45 0f 6f d1       	movdqa %xmm9,%xmm10
    37b9:	66 0f 72 f6 01       	pslld  $0x1,%xmm6
    37be:	66 45 0f 66 d5       	pcmpgtd %xmm13,%xmm10
    37c3:	66 45 0f db ca       	pand   %xmm10,%xmm9
    37c8:	66 45 0f df d5       	pandn  %xmm13,%xmm10
    37cd:	66 45 0f eb d1       	por    %xmm9,%xmm10
    37d2:	66 45 0f 6f ca       	movdqa %xmm10,%xmm9
    37d7:	66 44 0f 66 0d 90 39 	pcmpgtd 0x3990(%rip),%xmm9        # 7170 <_IO_stdin_used+0x170>
    37de:	00 00 
    37e0:	66 41 0f db e1       	pand   %xmm9,%xmm4
    37e5:	66 45 0f df ca       	pandn  %xmm10,%xmm9
    37ea:	66 44 0f 6f d2       	movdqa %xmm2,%xmm10
    37ef:	66 44 0f eb cc       	por    %xmm4,%xmm9
    37f4:	66 0f 6f 25 74 39 00 	movdqa 0x3974(%rip),%xmm4        # 7170 <_IO_stdin_used+0x170>
    37fb:	00 
    37fc:	66 41 0f 61 d1       	punpcklwd %xmm9,%xmm2
    3801:	66 45 0f 69 d1       	punpckhwd %xmm9,%xmm10
    3806:	66 44 0f 6f ca       	movdqa %xmm2,%xmm9
    380b:	66 41 0f 61 d2       	punpcklwd %xmm10,%xmm2
    3810:	66 45 0f 69 ca       	punpckhwd %xmm10,%xmm9
    3815:	66 41 0f 61 d1       	punpcklwd %xmm9,%xmm2
    381a:	66 45 0f ef c9       	pxor   %xmm9,%xmm9
    381f:	66 45 0f fa cc       	psubd  %xmm12,%xmm9
    3824:	66 45 0f 6f d1       	movdqa %xmm9,%xmm10
    3829:	66 45 0f 66 d5       	pcmpgtd %xmm13,%xmm10
    382e:	66 45 0f db ca       	pand   %xmm10,%xmm9
    3833:	66 45 0f df d5       	pandn  %xmm13,%xmm10
    3838:	66 45 0f eb d1       	por    %xmm9,%xmm10
    383d:	66 44 0f 6f 0d 4a 39 	movdqa 0x394a(%rip),%xmm9        # 7190 <_IO_stdin_used+0x190>
    3844:	00 00 
    3846:	66 45 0f 66 cc       	pcmpgtd %xmm12,%xmm9
    384b:	66 44 0f 6f 25 1c 39 	movdqa 0x391c(%rip),%xmm12        # 7170 <_IO_stdin_used+0x170>
    3852:	00 00 
    3854:	66 45 0f db e1       	pand   %xmm9,%xmm12
    3859:	66 45 0f df ca       	pandn  %xmm10,%xmm9
    385e:	66 45 0f ef d2       	pxor   %xmm10,%xmm10
    3863:	66 45 0f fa d3       	psubd  %xmm11,%xmm10
    3868:	66 45 0f eb cc       	por    %xmm12,%xmm9
    386d:	66 45 0f 6f e2       	movdqa %xmm10,%xmm12
    3872:	66 45 0f 66 e5       	pcmpgtd %xmm13,%xmm12
    3877:	66 45 0f db d4       	pand   %xmm12,%xmm10
    387c:	66 45 0f df e5       	pandn  %xmm13,%xmm12
    3881:	66 45 0f eb e2       	por    %xmm10,%xmm12
    3886:	66 44 0f 6f 15 01 39 	movdqa 0x3901(%rip),%xmm10        # 7190 <_IO_stdin_used+0x190>
    388d:	00 00 
    388f:	66 45 0f 66 d3       	pcmpgtd %xmm11,%xmm10
    3894:	66 44 0f 6f 1d d3 38 	movdqa 0x38d3(%rip),%xmm11        # 7170 <_IO_stdin_used+0x170>
    389b:	00 00 
    389d:	66 41 0f db e2       	pand   %xmm10,%xmm4
    38a2:	66 45 0f df d4       	pandn  %xmm12,%xmm10
    38a7:	66 44 0f eb d4       	por    %xmm4,%xmm10
    38ac:	66 41 0f 6f e1       	movdqa %xmm9,%xmm4
    38b1:	66 45 0f 61 ca       	punpcklwd %xmm10,%xmm9
    38b6:	66 41 0f 69 e2       	punpckhwd %xmm10,%xmm4
    38bb:	66 45 0f 6f d1       	movdqa %xmm9,%xmm10
    38c0:	66 44 0f 61 cc       	punpcklwd %xmm4,%xmm9
    38c5:	66 44 0f 69 d4       	punpckhwd %xmm4,%xmm10
    38ca:	66 0f 6f 64 24 a8    	movdqa -0x58(%rsp),%xmm4
    38d0:	66 45 0f 61 ca       	punpcklwd %xmm10,%xmm9
    38d5:	66 41 0f fa e6       	psubd  %xmm14,%xmm4
    38da:	66 44 0f 6f 35 8d 38 	movdqa 0x388d(%rip),%xmm14        # 7170 <_IO_stdin_used+0x170>
    38e1:	00 00 
    38e3:	66 0f 72 f4 01       	pslld  $0x1,%xmm4
    38e8:	66 44 0f 6f d4       	movdqa %xmm4,%xmm10
    38ed:	66 45 0f 66 d5       	pcmpgtd %xmm13,%xmm10
    38f2:	66 41 0f db e2       	pand   %xmm10,%xmm4
    38f7:	66 45 0f df d5       	pandn  %xmm13,%xmm10
    38fc:	66 44 0f eb d4       	por    %xmm4,%xmm10
    3901:	66 41 0f 6f e2       	movdqa %xmm10,%xmm4
    3906:	66 0f 66 25 62 38 00 	pcmpgtd 0x3862(%rip),%xmm4        # 7170 <_IO_stdin_used+0x170>
    390d:	00 
    390e:	66 44 0f db f4       	pand   %xmm4,%xmm14
    3913:	66 41 0f df e2       	pandn  %xmm10,%xmm4
    3918:	66 44 0f 6f d6       	movdqa %xmm6,%xmm10
    391d:	66 45 0f 66 d5       	pcmpgtd %xmm13,%xmm10
    3922:	66 41 0f eb e6       	por    %xmm14,%xmm4
    3927:	66 45 0f 6f f0       	movdqa %xmm8,%xmm14
    392c:	66 41 0f db f2       	pand   %xmm10,%xmm6
    3931:	66 45 0f df d5       	pandn  %xmm13,%xmm10
    3936:	66 44 0f eb d6       	por    %xmm6,%xmm10
    393b:	66 41 0f 6f f2       	movdqa %xmm10,%xmm6
    3940:	66 0f 66 35 28 38 00 	pcmpgtd 0x3828(%rip),%xmm6        # 7170 <_IO_stdin_used+0x170>
    3947:	00 
    3948:	66 44 0f db de       	pand   %xmm6,%xmm11
    394d:	66 41 0f df f2       	pandn  %xmm10,%xmm6
    3952:	66 44 0f 6f d4       	movdqa %xmm4,%xmm10
    3957:	66 41 0f eb f3       	por    %xmm11,%xmm6
    395c:	66 44 0f 6f df       	movdqa %xmm7,%xmm11
    3961:	66 0f 61 e6          	punpcklwd %xmm6,%xmm4
    3965:	66 44 0f 69 d6       	punpckhwd %xmm6,%xmm10
    396a:	66 0f 6f f4          	movdqa %xmm4,%xmm6
    396e:	66 41 0f 61 e2       	punpcklwd %xmm10,%xmm4
    3973:	66 41 0f 69 f2       	punpckhwd %xmm10,%xmm6
    3978:	66 44 0f 6f 15 ef 37 	movdqa 0x37ef(%rip),%xmm10        # 7170 <_IO_stdin_used+0x170>
    397f:	00 00 
    3981:	66 0f 61 e6          	punpcklwd %xmm6,%xmm4
    3985:	66 0f 6f f3          	movdqa %xmm3,%xmm6
    3989:	66 41 0f 66 f5       	pcmpgtd %xmm13,%xmm6
    398e:	66 0f db de          	pand   %xmm6,%xmm3
    3992:	66 41 0f df f5       	pandn  %xmm13,%xmm6
    3997:	66 0f eb f3          	por    %xmm3,%xmm6
    399b:	66 0f 6f de          	movdqa %xmm6,%xmm3
    399f:	66 0f 66 1d c9 37 00 	pcmpgtd 0x37c9(%rip),%xmm3        # 7170 <_IO_stdin_used+0x170>
    39a6:	00 
    39a7:	66 44 0f db d3       	pand   %xmm3,%xmm10
    39ac:	66 0f df de          	pandn  %xmm6,%xmm3
    39b0:	66 0f 6f f5          	movdqa %xmm5,%xmm6
    39b4:	66 41 0f 66 f5       	pcmpgtd %xmm13,%xmm6
    39b9:	66 41 0f eb da       	por    %xmm10,%xmm3
    39be:	66 44 0f 6f 15 a9 37 	movdqa 0x37a9(%rip),%xmm10        # 7170 <_IO_stdin_used+0x170>
    39c5:	00 00 
    39c7:	66 0f db ee          	pand   %xmm6,%xmm5
    39cb:	66 41 0f df f5       	pandn  %xmm13,%xmm6
    39d0:	66 0f eb f5          	por    %xmm5,%xmm6
    39d4:	66 0f 6f ee          	movdqa %xmm6,%xmm5
    39d8:	66 0f 66 2d 90 37 00 	pcmpgtd 0x3790(%rip),%xmm5        # 7170 <_IO_stdin_used+0x170>
    39df:	00 
    39e0:	66 44 0f db d5       	pand   %xmm5,%xmm10
    39e5:	66 0f df ee          	pandn  %xmm6,%xmm5
    39e9:	66 0f 6f f3          	movdqa %xmm3,%xmm6
    39ed:	66 41 0f eb ea       	por    %xmm10,%xmm5
    39f2:	66 0f 61 dd          	punpcklwd %xmm5,%xmm3
    39f6:	66 0f 69 f5          	punpckhwd %xmm5,%xmm6
    39fa:	66 0f 6f eb          	movdqa %xmm3,%xmm5
    39fe:	66 0f 61 de          	punpcklwd %xmm6,%xmm3
    3a02:	66 0f 69 ee          	punpckhwd %xmm6,%xmm5
    3a06:	66 0f 6f f1          	movdqa %xmm1,%xmm6
    3a0a:	66 0f 61 dd          	punpcklwd %xmm5,%xmm3
    3a0e:	66 0f ef ed          	pxor   %xmm5,%xmm5
    3a12:	66 0f 65 e9          	pcmpgtw %xmm1,%xmm5
    3a16:	66 0f 61 f5          	punpcklwd %xmm5,%xmm6
    3a1a:	66 0f 69 cd          	punpckhwd %xmm5,%xmm1
    3a1e:	66 0f ef ed          	pxor   %xmm5,%xmm5
    3a22:	66 0f 65 ef          	pcmpgtw %xmm7,%xmm5
    3a26:	0f 29 4c 24 a8       	movaps %xmm1,-0x58(%rsp)
    3a2b:	66 44 0f 61 dd       	punpcklwd %xmm5,%xmm11
    3a30:	66 0f 69 fd          	punpckhwd %xmm5,%xmm7
    3a34:	66 0f ef ed          	pxor   %xmm5,%xmm5
    3a38:	66 41 0f 65 e8       	pcmpgtw %xmm8,%xmm5
    3a3d:	66 0f 6f cf          	movdqa %xmm7,%xmm1
    3a41:	66 0f ef ff          	pxor   %xmm7,%xmm7
    3a45:	66 0f 65 f8          	pcmpgtw %xmm0,%xmm7
    3a49:	66 44 0f 61 f5       	punpcklwd %xmm5,%xmm14
    3a4e:	66 44 0f 69 fd       	punpckhwd %xmm5,%xmm15
    3a53:	66 0f 6f e8          	movdqa %xmm0,%xmm5
    3a57:	66 0f 61 ef          	punpcklwd %xmm7,%xmm5
    3a5b:	66 0f 69 c7          	punpckhwd %xmm7,%xmm0
    3a5f:	66 0f 6f fe          	movdqa %xmm6,%xmm7
    3a63:	44 0f 29 74 24 c8    	movaps %xmm14,-0x38(%rsp)
    3a69:	66 41 0f fe fb       	paddd  %xmm11,%xmm7
    3a6e:	66 44 0f fe f5       	paddd  %xmm5,%xmm14
    3a73:	66 45 0f 6f e7       	movdqa %xmm15,%xmm12
    3a78:	66 0f 72 f7 01       	pslld  $0x1,%xmm7
    3a7d:	66 41 0f 72 f6 01    	pslld  $0x1,%xmm14
    3a83:	66 44 0f fe e0       	paddd  %xmm0,%xmm12
    3a88:	66 44 0f 6f c7       	movdqa %xmm7,%xmm8
    3a8d:	66 41 0f 72 f4 01    	pslld  $0x1,%xmm12
    3a93:	66 41 0f fa f3       	psubd  %xmm11,%xmm6
    3a98:	66 45 0f 66 c5       	pcmpgtd %xmm13,%xmm8
    3a9d:	66 0f 72 f6 01       	pslld  $0x1,%xmm6
    3aa2:	66 41 0f fa c7       	psubd  %xmm15,%xmm0
    3aa7:	66 0f 72 f0 01       	pslld  $0x1,%xmm0
    3aac:	66 41 0f db f8       	pand   %xmm8,%xmm7
    3ab1:	66 45 0f df c5       	pandn  %xmm13,%xmm8
    3ab6:	66 44 0f eb c7       	por    %xmm7,%xmm8
    3abb:	66 41 0f 6f f8       	movdqa %xmm8,%xmm7
    3ac0:	66 0f 66 3d a8 36 00 	pcmpgtd 0x36a8(%rip),%xmm7        # 7170 <_IO_stdin_used+0x170>
    3ac7:	00 
    3ac8:	0f 29 4c 24 b8       	movaps %xmm1,-0x48(%rsp)
    3acd:	66 44 0f 6f 15 9a 36 	movdqa 0x369a(%rip),%xmm10        # 7170 <_IO_stdin_used+0x170>
    3ad4:	00 00 
    3ad6:	66 44 0f 6f 1d 91 36 	movdqa 0x3691(%rip),%xmm11        # 7170 <_IO_stdin_used+0x170>
    3add:	00 00 
    3adf:	66 0f fa 6c 24 c8    	psubd  -0x38(%rsp),%xmm5
    3ae5:	66 44 0f db d7       	pand   %xmm7,%xmm10
    3aea:	66 0f 72 f5 01       	pslld  $0x1,%xmm5
    3aef:	66 41 0f df f8       	pandn  %xmm8,%xmm7
    3af4:	66 44 0f 6f 44 24 a8 	movdqa -0x58(%rsp),%xmm8
    3afb:	66 41 0f eb fa       	por    %xmm10,%xmm7
    3b00:	66 44 0f fe c1       	paddd  %xmm1,%xmm8
    3b05:	66 0f 6f 0d 63 36 00 	movdqa 0x3663(%rip),%xmm1        # 7170 <_IO_stdin_used+0x170>
    3b0c:	00 
    3b0d:	66 41 0f 72 f0 01    	pslld  $0x1,%xmm8
    3b13:	66 45 0f 6f d0       	movdqa %xmm8,%xmm10
    3b18:	66 45 0f 66 d5       	pcmpgtd %xmm13,%xmm10
    3b1d:	66 45 0f db c2       	pand   %xmm10,%xmm8
    3b22:	66 45 0f df d5       	pandn  %xmm13,%xmm10
    3b27:	66 45 0f eb d0       	por    %xmm8,%xmm10
    3b2c:	66 45 0f 6f c2       	movdqa %xmm10,%xmm8
    3b31:	66 44 0f 66 05 36 36 	pcmpgtd 0x3636(%rip),%xmm8        # 7170 <_IO_stdin_used+0x170>
    3b38:	00 00 
    3b3a:	66 41 0f db c8       	pand   %xmm8,%xmm1
    3b3f:	66 45 0f df c2       	pandn  %xmm10,%xmm8
    3b44:	66 44 0f 6f d7       	movdqa %xmm7,%xmm10
    3b49:	66 44 0f eb c1       	por    %xmm1,%xmm8
    3b4e:	66 0f 6f 0d 1a 36 00 	movdqa 0x361a(%rip),%xmm1        # 7170 <_IO_stdin_used+0x170>
    3b55:	00 
    3b56:	66 41 0f 61 f8       	punpcklwd %xmm8,%xmm7
    3b5b:	66 45 0f 69 d0       	punpckhwd %xmm8,%xmm10
    3b60:	66 44 0f 6f c7       	movdqa %xmm7,%xmm8
    3b65:	66 41 0f 61 fa       	punpcklwd %xmm10,%xmm7
    3b6a:	66 45 0f 69 c2       	punpckhwd %xmm10,%xmm8
    3b6f:	66 41 0f 61 f8       	punpcklwd %xmm8,%xmm7
    3b74:	66 45 0f ef c0       	pxor   %xmm8,%xmm8
    3b79:	66 45 0f fa c6       	psubd  %xmm14,%xmm8
    3b7e:	66 45 0f 6f d0       	movdqa %xmm8,%xmm10
    3b83:	66 45 0f 66 d5       	pcmpgtd %xmm13,%xmm10
    3b88:	66 45 0f db c2       	pand   %xmm10,%xmm8
    3b8d:	66 45 0f df d5       	pandn  %xmm13,%xmm10
    3b92:	66 45 0f eb d0       	por    %xmm8,%xmm10
    3b97:	66 44 0f 6f 05 f0 35 	movdqa 0x35f0(%rip),%xmm8        # 7190 <_IO_stdin_used+0x190>
    3b9e:	00 00 
    3ba0:	66 45 0f 66 c6       	pcmpgtd %xmm14,%xmm8
    3ba5:	66 41 0f db c8       	pand   %xmm8,%xmm1
    3baa:	66 45 0f df c2       	pandn  %xmm10,%xmm8
    3baf:	66 45 0f ef d2       	pxor   %xmm10,%xmm10
    3bb4:	66 45 0f fa d4       	psubd  %xmm12,%xmm10
    3bb9:	66 44 0f eb c1       	por    %xmm1,%xmm8
    3bbe:	66 41 0f 6f ca       	movdqa %xmm10,%xmm1
    3bc3:	66 41 0f 66 cd       	pcmpgtd %xmm13,%xmm1
    3bc8:	66 44 0f 6f f1       	movdqa %xmm1,%xmm14
    3bcd:	66 44 0f db d1       	pand   %xmm1,%xmm10
    3bd2:	66 0f 6f 4c 24 a8    	movdqa -0x58(%rsp),%xmm1
    3bd8:	66 0f fa 4c 24 b8    	psubd  -0x48(%rsp),%xmm1
    3bde:	66 45 0f df f5       	pandn  %xmm13,%xmm14
    3be3:	66 45 0f eb f2       	por    %xmm10,%xmm14
    3be8:	66 0f 72 f1 01       	pslld  $0x1,%xmm1
    3bed:	66 44 0f 6f 15 9a 35 	movdqa 0x359a(%rip),%xmm10        # 7190 <_IO_stdin_used+0x190>
    3bf4:	00 00 
    3bf6:	66 45 0f 66 d4       	pcmpgtd %xmm12,%xmm10
    3bfb:	66 44 0f 6f 25 6c 35 	movdqa 0x356c(%rip),%xmm12        # 7170 <_IO_stdin_used+0x170>
    3c02:	00 00 
    3c04:	66 45 0f db e2       	pand   %xmm10,%xmm12
    3c09:	66 45 0f df d6       	pandn  %xmm14,%xmm10
    3c0e:	66 45 0f eb d4       	por    %xmm12,%xmm10
    3c13:	66 45 0f 6f e0       	movdqa %xmm8,%xmm12
    3c18:	66 45 0f 61 c2       	punpcklwd %xmm10,%xmm8
    3c1d:	66 45 0f 69 e2       	punpckhwd %xmm10,%xmm12
    3c22:	66 45 0f 6f d0       	movdqa %xmm8,%xmm10
    3c27:	66 45 0f 61 c4       	punpcklwd %xmm12,%xmm8
    3c2c:	66 45 0f 69 d4       	punpckhwd %xmm12,%xmm10
    3c31:	66 45 0f 61 c2       	punpcklwd %xmm10,%xmm8
    3c36:	66 44 0f 6f d6       	movdqa %xmm6,%xmm10
    3c3b:	66 45 0f 66 d5       	pcmpgtd %xmm13,%xmm10
    3c40:	66 41 0f db f2       	pand   %xmm10,%xmm6
    3c45:	66 45 0f df d5       	pandn  %xmm13,%xmm10
    3c4a:	66 44 0f eb d6       	por    %xmm6,%xmm10
    3c4f:	66 41 0f 6f f2       	movdqa %xmm10,%xmm6
    3c54:	66 0f 66 35 14 35 00 	pcmpgtd 0x3514(%rip),%xmm6        # 7170 <_IO_stdin_used+0x170>
    3c5b:	00 
    3c5c:	66 44 0f db de       	pand   %xmm6,%xmm11
    3c61:	66 41 0f df f2       	pandn  %xmm10,%xmm6
    3c66:	66 44 0f 6f d1       	movdqa %xmm1,%xmm10
    3c6b:	66 45 0f 66 d5       	pcmpgtd %xmm13,%xmm10
    3c70:	66 41 0f eb f3       	por    %xmm11,%xmm6
    3c75:	66 44 0f 6f 1d f2 34 	movdqa 0x34f2(%rip),%xmm11        # 7170 <_IO_stdin_used+0x170>
    3c7c:	00 00 
    3c7e:	66 41 0f db ca       	pand   %xmm10,%xmm1
    3c83:	66 45 0f df d5       	pandn  %xmm13,%xmm10
    3c88:	66 44 0f eb d1       	por    %xmm1,%xmm10
    3c8d:	66 41 0f 6f ca       	movdqa %xmm10,%xmm1
    3c92:	66 0f 66 0d d6 34 00 	pcmpgtd 0x34d6(%rip),%xmm1        # 7170 <_IO_stdin_used+0x170>
    3c99:	00 
    3c9a:	66 44 0f db d9       	pand   %xmm1,%xmm11
    3c9f:	66 41 0f df ca       	pandn  %xmm10,%xmm1
    3ca4:	66 44 0f 6f d6       	movdqa %xmm6,%xmm10
    3ca9:	66 41 0f eb cb       	por    %xmm11,%xmm1
    3cae:	66 0f 61 f1          	punpcklwd %xmm1,%xmm6
    3cb2:	66 44 0f 69 d1       	punpckhwd %xmm1,%xmm10
    3cb7:	66 0f 6f ce          	movdqa %xmm6,%xmm1
    3cbb:	66 41 0f 61 f2       	punpcklwd %xmm10,%xmm6
    3cc0:	66 41 0f 69 ca       	punpckhwd %xmm10,%xmm1
    3cc5:	66 44 0f 6f 15 a2 34 	movdqa 0x34a2(%rip),%xmm10        # 7170 <_IO_stdin_used+0x170>
    3ccc:	00 00 
    3cce:	66 0f 61 f1          	punpcklwd %xmm1,%xmm6
    3cd2:	66 0f 6f cd          	movdqa %xmm5,%xmm1
    3cd6:	66 41 0f 66 cd       	pcmpgtd %xmm13,%xmm1
    3cdb:	66 0f db e9          	pand   %xmm1,%xmm5
    3cdf:	66 41 0f df cd       	pandn  %xmm13,%xmm1
    3ce4:	66 0f eb cd          	por    %xmm5,%xmm1
    3ce8:	66 0f 6f e9          	movdqa %xmm1,%xmm5
    3cec:	66 0f 66 2d 7c 34 00 	pcmpgtd 0x347c(%rip),%xmm5        # 7170 <_IO_stdin_used+0x170>
    3cf3:	00 
    3cf4:	66 44 0f db d5       	pand   %xmm5,%xmm10
    3cf9:	66 0f df e9          	pandn  %xmm1,%xmm5
    3cfd:	66 0f 6f c8          	movdqa %xmm0,%xmm1
    3d01:	66 41 0f 66 cd       	pcmpgtd %xmm13,%xmm1
    3d06:	66 41 0f eb ea       	por    %xmm10,%xmm5
    3d0b:	66 44 0f 6f 15 5c 34 	movdqa 0x345c(%rip),%xmm10        # 7170 <_IO_stdin_used+0x170>
    3d12:	00 00 
    3d14:	66 0f db c1          	pand   %xmm1,%xmm0
    3d18:	66 41 0f df cd       	pandn  %xmm13,%xmm1
    3d1d:	66 0f eb c8          	por    %xmm0,%xmm1
    3d21:	66 0f 6f c1          	movdqa %xmm1,%xmm0
    3d25:	66 0f 66 05 43 34 00 	pcmpgtd 0x3443(%rip),%xmm0        # 7170 <_IO_stdin_used+0x170>
    3d2c:	00 
    3d2d:	66 44 0f db d0       	pand   %xmm0,%xmm10
    3d32:	66 0f df c1          	pandn  %xmm1,%xmm0
    3d36:	66 0f 6f cd          	movdqa %xmm5,%xmm1
    3d3a:	66 41 0f eb c2       	por    %xmm10,%xmm0
    3d3f:	66 0f 61 e8          	punpcklwd %xmm0,%xmm5
    3d43:	66 0f 69 c8          	punpckhwd %xmm0,%xmm1
    3d47:	66 0f 6f c5          	movdqa %xmm5,%xmm0
    3d4b:	66 0f 61 e9          	punpcklwd %xmm1,%xmm5
    3d4f:	66 0f 69 c1          	punpckhwd %xmm1,%xmm0
    3d53:	66 0f 6f ca          	movdqa %xmm2,%xmm1
    3d57:	66 0f 69 d7          	punpckhwd %xmm7,%xmm2
    3d5b:	66 0f 61 e8          	punpcklwd %xmm0,%xmm5
    3d5f:	66 41 0f 6f c1       	movdqa %xmm9,%xmm0
    3d64:	66 0f 61 cf          	punpcklwd %xmm7,%xmm1
    3d68:	66 41 0f 61 c0       	punpcklwd %xmm8,%xmm0
    3d6d:	66 45 0f 69 c8       	punpckhwd %xmm8,%xmm9
    3d72:	66 0f 6f fc          	movdqa %xmm4,%xmm7
    3d76:	66 44 0f 6f c3       	movdqa %xmm3,%xmm8
    3d7b:	66 0f 61 fe          	punpcklwd %xmm6,%xmm7
    3d7f:	66 0f 69 e6          	punpckhwd %xmm6,%xmm4
    3d83:	66 0f 69 dd          	punpckhwd %xmm5,%xmm3
    3d87:	66 44 0f 61 c5       	punpcklwd %xmm5,%xmm8
    3d8c:	66 0f 6f f1          	movdqa %xmm1,%xmm6
    3d90:	66 0f 6f e9          	movdqa %xmm1,%xmm5
    3d94:	66 0f 6f ca          	movdqa %xmm2,%xmm1
    3d98:	66 0f 61 f7          	punpcklwd %xmm7,%xmm6
    3d9c:	66 0f 69 ef          	punpckhwd %xmm7,%xmm5
    3da0:	66 0f 61 cc          	punpcklwd %xmm4,%xmm1
    3da4:	66 0f 69 d4          	punpckhwd %xmm4,%xmm2
    3da8:	66 0f 6f f8          	movdqa %xmm0,%xmm7
    3dac:	66 41 0f 6f e1       	movdqa %xmm9,%xmm4
    3db1:	66 44 0f 69 cb       	punpckhwd %xmm3,%xmm9
    3db6:	66 0f 61 e3          	punpcklwd %xmm3,%xmm4
    3dba:	66 41 0f 61 f8       	punpcklwd %xmm8,%xmm7
    3dbf:	66 0f 6f de          	movdqa %xmm6,%xmm3
    3dc3:	66 0f 61 df          	punpcklwd %xmm7,%xmm3
    3dc7:	66 41 0f 69 c0       	punpckhwd %xmm8,%xmm0
    3dcc:	66 0f 69 f7          	punpckhwd %xmm7,%xmm6
    3dd0:	0f 11 58 80          	movups %xmm3,-0x80(%rax)
    3dd4:	66 0f 6f dd          	movdqa %xmm5,%xmm3
    3dd8:	66 0f 69 e8          	punpckhwd %xmm0,%xmm5
    3ddc:	66 0f 61 d8          	punpcklwd %xmm0,%xmm3
    3de0:	66 0f 6f c1          	movdqa %xmm1,%xmm0
    3de4:	66 0f 69 cc          	punpckhwd %xmm4,%xmm1
    3de8:	0f 11 70 90          	movups %xmm6,-0x70(%rax)
    3dec:	66 0f 61 c4          	punpcklwd %xmm4,%xmm0
    3df0:	0f 11 58 a0          	movups %xmm3,-0x60(%rax)
    3df4:	0f 11 40 c0          	movups %xmm0,-0x40(%rax)
    3df8:	66 0f 6f c2          	movdqa %xmm2,%xmm0
    3dfc:	66 41 0f 69 d1       	punpckhwd %xmm9,%xmm2
    3e01:	66 41 0f 61 c1       	punpcklwd %xmm9,%xmm0
    3e06:	0f 11 68 b0          	movups %xmm5,-0x50(%rax)
    3e0a:	0f 11 48 d0          	movups %xmm1,-0x30(%rax)
    3e0e:	0f 11 40 e0          	movups %xmm0,-0x20(%rax)
    3e12:	0f 11 50 f0          	movups %xmm2,-0x10(%rax)
    3e16:	48 39 d0             	cmp    %rdx,%rax
    3e19:	0f 85 e5 f5 ff ff    	jne    3404 <riscv_dsp_cifft_rd2_q15+0x4e4>
    3e1f:	48 89 c8             	mov    %rcx,%rax
    3e22:	48 83 e0 f8          	and    $0xfffffffffffffff8,%rax
    3e26:	48 89 c2             	mov    %rax,%rdx
    3e29:	48 c1 e2 04          	shl    $0x4,%rdx
    3e2d:	48 03 54 24 d8       	add    -0x28(%rsp),%rdx
    3e32:	48 39 c8             	cmp    %rcx,%rax
    3e35:	0f 84 4c 01 00 00    	je     3f87 <riscv_dsp_cifft_rd2_q15+0x1067>
    3e3b:	bd ff 7f 00 00       	mov    $0x7fff,%ebp
    3e40:	0f bf 32             	movswl (%rdx),%esi
    3e43:	44 0f bf 7a 04       	movswl 0x4(%rdx),%r15d
    3e48:	41 b9 00 80 ff ff    	mov    $0xffff8000,%r9d
    3e4e:	0f bf 7a 02          	movswl 0x2(%rdx),%edi
    3e52:	0f bf 4a 06          	movswl 0x6(%rdx),%ecx
    3e56:	41 8d 04 37          	lea    (%r15,%rsi,1),%eax
    3e5a:	44 0f bf 52 0a       	movswl 0xa(%rdx),%r10d
    3e5f:	0f bf 5a 0c          	movswl 0xc(%rdx),%ebx
    3e63:	44 8d 04 39          	lea    (%rcx,%rdi,1),%r8d
    3e67:	01 c0                	add    %eax,%eax
    3e69:	45 01 c0             	add    %r8d,%r8d
    3e6c:	44 39 c8             	cmp    %r9d,%eax
    3e6f:	41 0f 4c c1          	cmovl  %r9d,%eax
    3e73:	41 b9 ff 7f 00 00    	mov    $0x7fff,%r9d
    3e79:	45 89 c3             	mov    %r8d,%r11d
    3e7c:	44 39 c8             	cmp    %r9d,%eax
    3e7f:	41 0f 4f c1          	cmovg  %r9d,%eax
    3e83:	41 f7 db             	neg    %r11d
    3e86:	44 0f bf 4a 08       	movswl 0x8(%rdx),%r9d
    3e8b:	66 89 02             	mov    %ax,(%rdx)
    3e8e:	b8 00 80 ff ff       	mov    $0xffff8000,%eax
    3e93:	41 39 c3             	cmp    %eax,%r11d
    3e96:	44 0f 4c d8          	cmovl  %eax,%r11d
    3e9a:	41 81 f8 01 80 ff ff 	cmp    $0xffff8001,%r8d
    3ea1:	44 0f bf 42 0e       	movswl 0xe(%rdx),%r8d
    3ea6:	44 0f 4c dd          	cmovl  %ebp,%r11d
    3eaa:	44 29 fe             	sub    %r15d,%esi
    3ead:	47 8d 2c 10          	lea    (%r8,%r10,1),%r13d
    3eb1:	01 f6                	add    %esi,%esi
    3eb3:	45 01 ed             	add    %r13d,%r13d
    3eb6:	39 c6                	cmp    %eax,%esi
    3eb8:	45 0f b7 db          	movzwl %r11w,%r11d
    3ebc:	0f 4c f0             	cmovl  %eax,%esi
    3ebf:	b8 ff 7f 00 00       	mov    $0x7fff,%eax
    3ec4:	39 c6                	cmp    %eax,%esi
    3ec6:	0f 4f f0             	cmovg  %eax,%esi
    3ec9:	29 f9                	sub    %edi,%ecx
    3ecb:	b8 00 80 ff ff       	mov    $0xffff8000,%eax
    3ed0:	01 c9                	add    %ecx,%ecx
    3ed2:	39 c1                	cmp    %eax,%ecx
    3ed4:	0f b7 f6             	movzwl %si,%esi
    3ed7:	0f 4c c8             	cmovl  %eax,%ecx
    3eda:	b8 ff 7f 00 00       	mov    $0x7fff,%eax
    3edf:	39 c1                	cmp    %eax,%ecx
    3ee1:	0f 4f c8             	cmovg  %eax,%ecx
    3ee4:	42 8d 04 0b          	lea    (%rbx,%r9,1),%eax
    3ee8:	8d 3c 00             	lea    (%rax,%rax,1),%edi
    3eeb:	b8 00 80 ff ff       	mov    $0xffff8000,%eax
    3ef0:	39 c7                	cmp    %eax,%edi
    3ef2:	0f 4c f8             	cmovl  %eax,%edi
    3ef5:	b8 ff 7f 00 00       	mov    $0x7fff,%eax
    3efa:	39 c7                	cmp    %eax,%edi
    3efc:	0f 4f f8             	cmovg  %eax,%edi
    3eff:	0f b7 c7             	movzwl %di,%eax
    3f02:	0f b7 f9             	movzwl %cx,%edi
    3f05:	b9 00 80 ff ff       	mov    $0xffff8000,%ecx
    3f0a:	48 c1 e0 10          	shl    $0x10,%rax
    3f0e:	48 09 f8             	or     %rdi,%rax
    3f11:	48 c1 e0 10          	shl    $0x10,%rax
    3f15:	48 09 f0             	or     %rsi,%rax
    3f18:	48 c1 e0 10          	shl    $0x10,%rax
    3f1c:	4c 09 d8             	or     %r11,%rax
    3f1f:	48 89 42 02          	mov    %rax,0x2(%rdx)
    3f23:	44 89 e8             	mov    %r13d,%eax
    3f26:	f7 d8                	neg    %eax
    3f28:	39 c8                	cmp    %ecx,%eax
    3f2a:	0f 4c c1             	cmovl  %ecx,%eax
    3f2d:	41 81 fd 00 80 ff ff 	cmp    $0xffff8000,%r13d
    3f34:	44 89 c9             	mov    %r9d,%ecx
    3f37:	0f 4e c5             	cmovle %ebp,%eax
    3f3a:	29 d9                	sub    %ebx,%ecx
    3f3c:	01 c9                	add    %ecx,%ecx
    3f3e:	66 89 42 0a          	mov    %ax,0xa(%rdx)
    3f42:	b8 00 80 ff ff       	mov    $0xffff8000,%eax
    3f47:	39 c1                	cmp    %eax,%ecx
    3f49:	0f 4c c8             	cmovl  %eax,%ecx
    3f4c:	b8 ff 7f 00 00       	mov    $0x7fff,%eax
    3f51:	39 c1                	cmp    %eax,%ecx
    3f53:	0f 4f c8             	cmovg  %eax,%ecx
    3f56:	44 89 c0             	mov    %r8d,%eax
    3f59:	44 29 d0             	sub    %r10d,%eax
    3f5c:	66 89 4a 0c          	mov    %cx,0xc(%rdx)
    3f60:	01 c0                	add    %eax,%eax
    3f62:	b9 00 80 ff ff       	mov    $0xffff8000,%ecx
    3f67:	39 c8                	cmp    %ecx,%eax
    3f69:	0f 4c c1             	cmovl  %ecx,%eax
    3f6c:	b9 ff 7f 00 00       	mov    $0x7fff,%ecx
    3f71:	39 c8                	cmp    %ecx,%eax
    3f73:	0f 4f c1             	cmovg  %ecx,%eax
    3f76:	48 83 c2 10          	add    $0x10,%rdx
    3f7a:	66 89 42 fe          	mov    %ax,-0x2(%rdx)
    3f7e:	49 39 d4             	cmp    %rdx,%r12
    3f81:	0f 85 b9 fe ff ff    	jne    3e40 <riscv_dsp_cifft_rd2_q15+0xf20>
    3f87:	48 8b 5c 24 d8       	mov    -0x28(%rsp),%rbx
    3f8c:	8b 44 24 f4          	mov    -0xc(%rsp),%eax
    3f90:	4a 8d 7c 33 fe       	lea    -0x2(%rbx,%r14,1),%rdi
    3f95:	41 89 c6             	mov    %eax,%r14d
    3f98:	0f b7 4b 04          	movzwl 0x4(%rbx),%ecx
    3f9c:	41 d1 ee             	shr    %r14d
    3f9f:	45 89 f1             	mov    %r14d,%r9d
    3fa2:	41 89 c6             	mov    %eax,%r14d
    3fa5:	83 e0 fe             	and    $0xfffffffe,%eax
    3fa8:	89 c2                	mov    %eax,%edx
    3faa:	83 c0 01             	add    $0x1,%eax
    3fad:	48 8d 14 53          	lea    (%rbx,%rdx,2),%rdx
    3fb1:	48 8d 04 43          	lea    (%rbx,%rax,2),%rax
    3fb5:	0f b7 32             	movzwl (%rdx),%esi
    3fb8:	66 89 73 04          	mov    %si,0x4(%rbx)
    3fbc:	48 89 de             	mov    %rbx,%rsi
    3fbf:	66 89 0a             	mov    %cx,(%rdx)
    3fc2:	0f b7 53 06          	movzwl 0x6(%rbx),%edx
    3fc6:	0f b7 08             	movzwl (%rax),%ecx
    3fc9:	66 89 4b 06          	mov    %cx,0x6(%rbx)
    3fcd:	44 89 cb             	mov    %r9d,%ebx
    3fd0:	b9 04 00 00 00       	mov    $0x4,%ecx
    3fd5:	66 89 10             	mov    %dx,(%rax)
    3fd8:	44 89 f0             	mov    %r14d,%eax
    3fdb:	41 c1 ee 02          	shr    $0x2,%r14d
    3fdf:	ba 04 00 00 00       	mov    $0x4,%edx
    3fe4:	44 31 f3             	xor    %r14d,%ebx
    3fe7:	45 89 f2             	mov    %r14d,%r10d
    3fea:	41 89 c6             	mov    %eax,%r14d
    3fed:	44 89 c8             	mov    %r9d,%eax
    3ff0:	41 c1 ee 03          	shr    $0x3,%r14d
    3ff4:	44 89 f5             	mov    %r14d,%ebp
    3ff7:	45 89 f3             	mov    %r14d,%r11d
    3ffa:	31 dd                	xor    %ebx,%ebp
    3ffc:	89 6c 24 a8          	mov    %ebp,-0x58(%rsp)
    4000:	31 d8                	xor    %ebx,%eax
    4002:	41 85 c2             	test   %eax,%r10d
    4005:	75 14                	jne    401b <riscv_dsp_cifft_rd2_q15+0x10fb>
    4007:	45 89 d0             	mov    %r10d,%r8d
    400a:	66 0f 1f 44 00 00    	nopw   0x0(%rax,%rax,1)
    4010:	41 d1 e8             	shr    %r8d
    4013:	44 31 c0             	xor    %r8d,%eax
    4016:	41 85 c0             	test   %eax,%r8d
    4019:	74 f5                	je     4010 <riscv_dsp_cifft_rd2_q15+0x10f0>
    401b:	44 8d 41 fe          	lea    -0x2(%rcx),%r8d
    401f:	41 39 c0             	cmp    %eax,%r8d
    4022:	0f 83 97 00 00 00    	jae    40bf <riscv_dsp_cifft_rd2_q15+0x119f>
    4028:	41 89 d0             	mov    %edx,%r8d
    402b:	8d 2c 00             	lea    (%rax,%rax,1),%ebp
    402e:	4e 8d 24 46          	lea    (%rsi,%r8,2),%r12
    4032:	49 89 e8             	mov    %rbp,%r8
    4035:	48 8d 2c 6e          	lea    (%rsi,%rbp,2),%rbp
    4039:	45 0f b7 2c 24       	movzwl (%r12),%r13d
    403e:	44 0f b7 75 00       	movzwl 0x0(%rbp),%r14d
    4043:	41 83 c0 01          	add    $0x1,%r8d
    4047:	4e 8d 04 46          	lea    (%rsi,%r8,2),%r8
    404b:	66 45 89 34 24       	mov    %r14w,(%r12)
    4050:	66 44 89 6d 00       	mov    %r13w,0x0(%rbp)
    4055:	8d 6a 01             	lea    0x1(%rdx),%ebp
    4058:	45 0f b7 28          	movzwl (%r8),%r13d
    405c:	48 8d 2c 6e          	lea    (%rsi,%rbp,2),%rbp
    4060:	44 0f b7 65 00       	movzwl 0x0(%rbp),%r12d
    4065:	66 44 89 6d 00       	mov    %r13w,0x0(%rbp)
    406a:	89 d5                	mov    %edx,%ebp
    406c:	f7 dd                	neg    %ebp
    406e:	66 45 89 20          	mov    %r12w,(%r8)
    4072:	41 89 c0             	mov    %eax,%r8d
    4075:	48 63 ed             	movslq %ebp,%rbp
    4078:	41 f7 d8             	neg    %r8d
    407b:	48 01 ed             	add    %rbp,%rbp
    407e:	45 01 c0             	add    %r8d,%r8d
    4081:	4c 8d 2c 2f          	lea    (%rdi,%rbp,1),%r13
    4085:	48 8d 6c 2f fe       	lea    -0x2(%rdi,%rbp,1),%rbp
    408a:	4d 63 c0             	movslq %r8d,%r8
    408d:	45 0f b7 75 00       	movzwl 0x0(%r13),%r14d
    4092:	4d 01 c0             	add    %r8,%r8
    4095:	4e 8d 24 07          	lea    (%rdi,%r8,1),%r12
    4099:	4e 8d 44 07 fe       	lea    -0x2(%rdi,%r8,1),%r8
    409e:	45 0f b7 3c 24       	movzwl (%r12),%r15d
    40a3:	66 45 89 7d 00       	mov    %r15w,0x0(%r13)
    40a8:	66 45 89 34 24       	mov    %r14w,(%r12)
    40ad:	44 0f b7 65 00       	movzwl 0x0(%rbp),%r12d
    40b2:	45 0f b7 28          	movzwl (%r8),%r13d
    40b6:	66 44 89 6d 00       	mov    %r13w,0x0(%rbp)
    40bb:	66 45 89 20          	mov    %r12w,(%r8)
    40bf:	44 01 c8             	add    %r9d,%eax
    40c2:	44 8d 42 02          	lea    0x2(%rdx),%r8d
    40c6:	8d 2c 00             	lea    (%rax,%rax,1),%ebp
    40c9:	4e 8d 24 46          	lea    (%rsi,%r8,2),%r12
    40cd:	49 89 e8             	mov    %rbp,%r8
    40d0:	48 8d 2c 6e          	lea    (%rsi,%rbp,2),%rbp
    40d4:	45 0f b7 2c 24       	movzwl (%r12),%r13d
    40d9:	44 0f b7 75 00       	movzwl 0x0(%rbp),%r14d
    40de:	41 83 c0 01          	add    $0x1,%r8d
    40e2:	4e 8d 04 46          	lea    (%rsi,%r8,2),%r8
    40e6:	66 45 89 34 24       	mov    %r14w,(%r12)
    40eb:	66 44 89 6d 00       	mov    %r13w,0x0(%rbp)
    40f0:	8d 6a 03             	lea    0x3(%rdx),%ebp
    40f3:	45 0f b7 28          	movzwl (%r8),%r13d
    40f7:	48 8d 2c 6e          	lea    (%rsi,%rbp,2),%rbp
    40fb:	44 0f b7 65 00       	movzwl 0x0(%rbp),%r12d
    4100:	66 44 89 6d 00       	mov    %r13w,0x0(%rbp)
    4105:	66 45 89 20          	mov    %r12w,(%r8)
    4109:	44 39 c9             	cmp    %r9d,%ecx
    410c:	0f 83 d6 01 00 00    	jae    42e8 <riscv_dsp_cifft_rd2_q15+0x13c8>
    4112:	33 44 24 a8          	xor    -0x58(%rsp),%eax
    4116:	41 85 c3             	test   %eax,%r11d
    4119:	75 10                	jne    412b <riscv_dsp_cifft_rd2_q15+0x120b>
    411b:	45 89 d8             	mov    %r11d,%r8d
    411e:	66 90                	xchg   %ax,%ax
    4120:	41 d1 e8             	shr    %r8d
    4123:	44 31 c0             	xor    %r8d,%eax
    4126:	41 85 c0             	test   %eax,%r8d
    4129:	74 f5                	je     4120 <riscv_dsp_cifft_rd2_q15+0x1200>
    412b:	39 c8                	cmp    %ecx,%eax
    412d:	0f 86 9b 00 00 00    	jbe    41ce <riscv_dsp_cifft_rd2_q15+0x12ae>
    4133:	44 8d 42 04          	lea    0x4(%rdx),%r8d
    4137:	8d 2c 00             	lea    (%rax,%rax,1),%ebp
    413a:	4e 8d 24 46          	lea    (%rsi,%r8,2),%r12
    413e:	49 89 e8             	mov    %rbp,%r8
    4141:	48 8d 2c 6e          	lea    (%rsi,%rbp,2),%rbp
    4145:	45 0f b7 2c 24       	movzwl (%r12),%r13d
    414a:	44 0f b7 75 00       	movzwl 0x0(%rbp),%r14d
    414f:	41 83 c0 01          	add    $0x1,%r8d
    4153:	4e 8d 04 46          	lea    (%rsi,%r8,2),%r8
    4157:	66 45 89 34 24       	mov    %r14w,(%r12)
    415c:	66 44 89 6d 00       	mov    %r13w,0x0(%rbp)
    4161:	8d 6a 05             	lea    0x5(%rdx),%ebp
    4164:	45 0f b7 28          	movzwl (%r8),%r13d
    4168:	48 8d 2c 6e          	lea    (%rsi,%rbp,2),%rbp
    416c:	44 0f b7 65 00       	movzwl 0x0(%rbp),%r12d
    4171:	66 44 89 6d 00       	mov    %r13w,0x0(%rbp)
    4176:	bd fc ff ff ff       	mov    $0xfffffffc,%ebp
    417b:	29 d5                	sub    %edx,%ebp
    417d:	66 45 89 20          	mov    %r12w,(%r8)
    4181:	41 89 c0             	mov    %eax,%r8d
    4184:	48 63 ed             	movslq %ebp,%rbp
    4187:	41 f7 d8             	neg    %r8d
    418a:	48 01 ed             	add    %rbp,%rbp
    418d:	45 01 c0             	add    %r8d,%r8d
    4190:	4c 8d 2c 2f          	lea    (%rdi,%rbp,1),%r13
    4194:	48 8d 6c 2f fe       	lea    -0x2(%rdi,%rbp,1),%rbp
    4199:	4d 63 c0             	movslq %r8d,%r8
    419c:	45 0f b7 75 00       	movzwl 0x0(%r13),%r14d
    41a1:	4d 01 c0             	add    %r8,%r8
    41a4:	4e 8d 24 07          	lea    (%rdi,%r8,1),%r12
    41a8:	4e 8d 44 07 fe       	lea    -0x2(%rdi,%r8,1),%r8
    41ad:	45 0f b7 3c 24       	movzwl (%r12),%r15d
    41b2:	66 45 89 7d 00       	mov    %r15w,0x0(%r13)
    41b7:	66 45 89 34 24       	mov    %r14w,(%r12)
    41bc:	44 0f b7 65 00       	movzwl 0x0(%rbp),%r12d
    41c1:	45 0f b7 28          	movzwl (%r8),%r13d
    41c5:	66 44 89 6d 00       	mov    %r13w,0x0(%rbp)
    41ca:	66 45 89 20          	mov    %r12w,(%r8)
    41ce:	44 01 c8             	add    %r9d,%eax
    41d1:	44 8d 42 06          	lea    0x6(%rdx),%r8d
    41d5:	83 c1 04             	add    $0x4,%ecx
    41d8:	8d 2c 00             	lea    (%rax,%rax,1),%ebp
    41db:	4e 8d 24 46          	lea    (%rsi,%r8,2),%r12
    41df:	49 89 e8             	mov    %rbp,%r8
    41e2:	48 8d 2c 6e          	lea    (%rsi,%rbp,2),%rbp
    41e6:	45 0f b7 2c 24       	movzwl (%r12),%r13d
    41eb:	44 0f b7 75 00       	movzwl 0x0(%rbp),%r14d
    41f0:	41 83 c0 01          	add    $0x1,%r8d
    41f4:	4e 8d 04 46          	lea    (%rsi,%r8,2),%r8
    41f8:	66 45 89 34 24       	mov    %r14w,(%r12)
    41fd:	66 44 89 6d 00       	mov    %r13w,0x0(%rbp)
    4202:	8d 6a 07             	lea    0x7(%rdx),%ebp
    4205:	45 0f b7 28          	movzwl (%r8),%r13d
    4209:	83 c2 08             	add    $0x8,%edx
    420c:	48 8d 2c 6e          	lea    (%rsi,%rbp,2),%rbp
    4210:	44 0f b7 65 00       	movzwl 0x0(%rbp),%r12d
    4215:	66 44 89 6d 00       	mov    %r13w,0x0(%rbp)
    421a:	66 45 89 20          	mov    %r12w,(%r8)
    421e:	e9 dd fd ff ff       	jmp    4000 <riscv_dsp_cifft_rd2_q15+0x10e0>
    4223:	0f 1f 44 00 00       	nopl   0x0(%rax,%rax,1)
    4228:	8d 90 00 ff ff ff    	lea    -0x100(%rax),%edx
    422e:	b9 00 01 00 00       	mov    $0x100,%ecx
    4233:	29 d1                	sub    %edx,%ecx
    4235:	85 c9                	test   %ecx,%ecx
    4237:	7e 27                	jle    4260 <riscv_dsp_cifft_rd2_q15+0x1340>
    4239:	48 8d 05 a4 33 00 00 	lea    0x33a4(%rip),%rax        # 75e4 <riscv_dsp_cos_table_q15_1024+0x4>
    4240:	48 63 c9             	movslq %ecx,%rcx
    4243:	48 63 d2             	movslq %edx,%rdx
    4246:	44 0f b7 1c 48       	movzwl (%rax,%rcx,2),%r11d
    424b:	0f b7 1c 50          	movzwl (%rax,%rdx,2),%ebx
    424f:	41 f7 db             	neg    %r11d
    4252:	e9 c2 f0 ff ff       	jmp    3319 <riscv_dsp_cifft_rd2_q15+0x3f9>
    4257:	66 0f 1f 84 00 00 00 	nopw   0x0(%rax,%rax,1)
    425e:	00 00 
    4260:	2d 00 02 00 00       	sub    $0x200,%eax
    4265:	ba 00 01 00 00       	mov    $0x100,%edx
    426a:	48 8d 1d 73 33 00 00 	lea    0x3373(%rip),%rbx        # 75e4 <riscv_dsp_cos_table_q15_1024+0x4>
    4271:	29 c2                	sub    %eax,%edx
    4273:	48 98                	cltq   
    4275:	48 63 ca             	movslq %edx,%rcx
    4278:	44 0f b7 1c 4b       	movzwl (%rbx,%rcx,2),%r11d
    427d:	0f b7 1c 43          	movzwl (%rbx,%rax,2),%ebx
    4281:	f7 db                	neg    %ebx
    4283:	85 d2                	test   %edx,%edx
    4285:	0f 8e 8e f0 ff ff    	jle    3319 <riscv_dsp_cifft_rd2_q15+0x3f9>
    428b:	44 89 d8             	mov    %r11d,%eax
    428e:	41 89 db             	mov    %ebx,%r11d
    4291:	f7 d8                	neg    %eax
    4293:	89 c3                	mov    %eax,%ebx
    4295:	e9 7f f0 ff ff       	jmp    3319 <riscv_dsp_cifft_rd2_q15+0x3f9>
    429a:	48 8b 54 24 d8       	mov    -0x28(%rsp),%rdx
    429f:	45 89 f0             	mov    %r14d,%r8d
    42a2:	66 0f 1f 44 00 00    	nopw   0x0(%rax,%rax,1)
    42a8:	0f b7 32             	movzwl (%rdx),%esi
    42ab:	44 0f b7 14 3a       	movzwl (%rdx,%rdi,1),%r10d
    42b0:	0f b7 4a 02          	movzwl 0x2(%rdx),%ecx
    42b4:	44 0f b7 4c 3a 02    	movzwl 0x2(%rdx,%rdi,1),%r9d
    42ba:	45 8d 1c 32          	lea    (%r10,%rsi,1),%r11d
    42be:	44 29 d6             	sub    %r10d,%esi
    42c1:	66 44 89 1a          	mov    %r11w,(%rdx)
    42c5:	45 8d 1c 09          	lea    (%r9,%rcx,1),%r11d
    42c9:	44 29 c9             	sub    %r9d,%ecx
    42cc:	66 44 89 5a 02       	mov    %r11w,0x2(%rdx)
    42d1:	66 89 34 3a          	mov    %si,(%rdx,%rdi,1)
    42d5:	66 89 4c 3a 02       	mov    %cx,0x2(%rdx,%rdi,1)
    42da:	48 01 c2             	add    %rax,%rdx
    42dd:	41 83 e8 01          	sub    $0x1,%r8d
    42e1:	75 c5                	jne    42a8 <riscv_dsp_cifft_rd2_q15+0x1388>
    42e3:	e9 e0 ef ff ff       	jmp    32c8 <riscv_dsp_cifft_rd2_q15+0x3a8>
    42e8:	5b                   	pop    %rbx
    42e9:	31 c0                	xor    %eax,%eax
    42eb:	5d                   	pop    %rbp
    42ec:	41 5c                	pop    %r12
    42ee:	41 5d                	pop    %r13
    42f0:	41 5e                	pop    %r14
    42f2:	41 5f                	pop    %r15
    42f4:	c3                   	ret    
    42f5:	48 8b 54 24 d8       	mov    -0x28(%rsp),%rdx
    42fa:	45 89 f0             	mov    %r14d,%r8d
    42fd:	31 c9                	xor    %ecx,%ecx
    42ff:	e9 20 ef ff ff       	jmp    3224 <riscv_dsp_cifft_rd2_q15+0x304>
    4304:	48 89 c2             	mov    %rax,%rdx
    4307:	e9 2f fb ff ff       	jmp    3e3b <riscv_dsp_cifft_rd2_q15+0xf1b>
    430c:	0f 1f 40 00          	nopl   0x0(%rax)

0000000000004310 <riscv_dsp_cfft_rd4_q15>:
    4310:	f3 0f 1e fa          	endbr64 
    4314:	41 57                	push   %r15
    4316:	89 f1                	mov    %esi,%ecx
    4318:	b8 01 00 00 00       	mov    $0x1,%eax
    431d:	41 56                	push   %r14
    431f:	d3 e0                	shl    %cl,%eax
    4321:	49 89 fe             	mov    %rdi,%r14
    4324:	41 55                	push   %r13
    4326:	41 54                	push   %r12
    4328:	55                   	push   %rbp
    4329:	53                   	push   %rbx
    432a:	48 83 ec 30          	sub    $0x30,%rsp
    432e:	89 44 24 18          	mov    %eax,0x18(%rsp)
    4332:	d1 e8                	shr    %eax
    4334:	41 89 c2             	mov    %eax,%r10d
    4337:	89 44 24 1c          	mov    %eax,0x1c(%rsp)
    433b:	41 0f b7 06          	movzwl (%r14),%eax
    433f:	4d 01 d2             	add    %r10,%r10
    4342:	48 89 3c 24          	mov    %rdi,(%rsp)
    4346:	4e 8d 3c 17          	lea    (%rdi,%r10,1),%r15
    434a:	66 d1 f8             	sar    %ax
    434d:	89 74 24 14          	mov    %esi,0x14(%rsp)
    4351:	4f 8d 24 17          	lea    (%r15,%r10,1),%r12
    4355:	98                   	cwtl   
    4356:	4c 89 7c 24 a8       	mov    %r15,-0x58(%rsp)
    435b:	41 0f b7 14 24       	movzwl (%r12),%edx
    4360:	4b 8d 3c 14          	lea    (%r12,%r10,1),%rdi
    4364:	4c 89 64 24 20       	mov    %r12,0x20(%rsp)
    4369:	0f b7 0f             	movzwl (%rdi),%ecx
    436c:	66 d1 fa             	sar    %dx
    436f:	0f bf d2             	movswl %dx,%edx
    4372:	66 d1 f9             	sar    %cx
    4375:	8d 34 10             	lea    (%rax,%rdx,1),%esi
    4378:	29 d0                	sub    %edx,%eax
    437a:	41 0f b7 17          	movzwl (%r15),%edx
    437e:	0f bf c9             	movswl %cx,%ecx
    4381:	d1 fe                	sar    %esi
    4383:	d1 f8                	sar    %eax
    4385:	66 d1 fa             	sar    %dx
    4388:	0f bf d2             	movswl %dx,%edx
    438b:	44 8d 0c 0a          	lea    (%rdx,%rcx,1),%r9d
    438f:	29 ca                	sub    %ecx,%edx
    4391:	41 d1 f9             	sar    %r9d
    4394:	89 d3                	mov    %edx,%ebx
    4396:	42 8d 14 0e          	lea    (%rsi,%r9,1),%edx
    439a:	44 29 ce             	sub    %r9d,%esi
    439d:	d1 fb                	sar    %ebx
    439f:	d1 fa                	sar    %edx
    43a1:	d1 fe                	sar    %esi
    43a3:	66 41 89 16          	mov    %dx,(%r14)
    43a7:	41 0f b7 56 02       	movzwl 0x2(%r14),%edx
    43ac:	45 0f b7 44 24 02    	movzwl 0x2(%r12),%r8d
    43b2:	44 0f b7 5f 02       	movzwl 0x2(%rdi),%r11d
    43b7:	66 d1 fa             	sar    %dx
    43ba:	66 41 d1 f8          	sar    %r8w
    43be:	0f bf d2             	movswl %dx,%edx
    43c1:	66 41 d1 fb          	sar    %r11w
    43c5:	45 0f bf c0          	movswl %r8w,%r8d
    43c9:	45 0f bf db          	movswl %r11w,%r11d
    43cd:	42 8d 0c 02          	lea    (%rdx,%r8,1),%ecx
    43d1:	44 29 c2             	sub    %r8d,%edx
    43d4:	d1 fa                	sar    %edx
    43d6:	d1 f9                	sar    %ecx
    43d8:	89 d5                	mov    %edx,%ebp
    43da:	41 0f b7 57 02       	movzwl 0x2(%r15),%edx
    43df:	66 89 54 24 88       	mov    %dx,-0x78(%rsp)
    43e4:	66 d1 fa             	sar    %dx
    43e7:	0f bf d2             	movswl %dx,%edx
    43ea:	46 8d 04 1a          	lea    (%rdx,%r11,1),%r8d
    43ee:	44 29 da             	sub    %r11d,%edx
    43f1:	41 d1 f8             	sar    %r8d
    43f4:	d1 fa                	sar    %edx
    43f6:	46 8d 1c 01          	lea    (%rcx,%r8,1),%r11d
    43fa:	44 29 c1             	sub    %r8d,%ecx
    43fd:	d1 f9                	sar    %ecx
    43ff:	41 d1 fb             	sar    %r11d
    4402:	66 45 89 5e 02       	mov    %r11w,0x2(%r14)
    4407:	66 41 89 4f 02       	mov    %cx,0x2(%r15)
    440c:	8d 0c 10             	lea    (%rax,%rdx,1),%ecx
    440f:	d1 f9                	sar    %ecx
    4411:	66 41 89 37          	mov    %si,(%r15)
    4415:	66 41 89 0c 24       	mov    %cx,(%r12)
    441a:	89 e9                	mov    %ebp,%ecx
    441c:	29 d9                	sub    %ebx,%ecx
    441e:	d1 f9                	sar    %ecx
    4420:	29 d0                	sub    %edx,%eax
    4422:	d1 f8                	sar    %eax
    4424:	66 41 89 4c 24 02    	mov    %cx,0x2(%r12)
    442a:	66 89 07             	mov    %ax,(%rdi)
    442d:	8d 04 2b             	lea    (%rbx,%rbp,1),%eax
    4430:	d1 f8                	sar    %eax
    4432:	66 89 47 02          	mov    %ax,0x2(%rdi)
    4436:	49 8d 46 04          	lea    0x4(%r14),%rax
    443a:	48 89 44 24 08       	mov    %rax,0x8(%rsp)
    443f:	49 39 c7             	cmp    %rax,%r15
    4442:	0f 84 f7 02 00 00    	je     473f <riscv_dsp_cfft_rd4_q15+0x42f>
    4448:	49 89 c0             	mov    %rax,%r8
    444b:	b8 0a 00 00 00       	mov    $0xa,%eax
    4450:	2b 44 24 14          	sub    0x14(%rsp),%eax
    4454:	45 31 ff             	xor    %r15d,%r15d
    4457:	89 44 24 88          	mov    %eax,-0x78(%rsp)
    445b:	48 8b 04 24          	mov    (%rsp),%rax
    445f:	4c 8d 25 7e 31 00 00 	lea    0x317e(%rip),%r12        # 75e4 <riscv_dsp_cos_table_q15_1024+0x4>
    4466:	41 be 00 01 00 00    	mov    $0x100,%r14d
    446c:	4e 8d 4c 50 04       	lea    0x4(%rax,%r10,2),%r9
    4471:	e9 0a 01 00 00       	jmp    4580 <riscv_dsp_cfft_rd4_q15+0x270>
    4476:	48 63 db             	movslq %ebx,%rbx
    4479:	41 0f b7 0c 4c       	movzwl (%r12,%rcx,2),%ecx
    447e:	41 0f b7 1c 5c       	movzwl (%r12,%rbx,2),%ebx
    4483:	0f bf c9             	movswl %cx,%ecx
    4486:	0f bf db             	movswl %bx,%ebx
    4489:	89 cd                	mov    %ecx,%ebp
    448b:	41 0f af cb          	imul   %r11d,%ecx
    448f:	41 0f af ed          	imul   %r13d,%ebp
    4493:	89 6c 24 98          	mov    %ebp,-0x68(%rsp)
    4497:	89 dd                	mov    %ebx,%ebp
    4499:	41 0f af dd          	imul   %r13d,%ebx
    449d:	41 0f af eb          	imul   %r11d,%ebp
    44a1:	44 8d 1c 38          	lea    (%rax,%rdi,1),%r11d
    44a5:	29 f8                	sub    %edi,%eax
    44a7:	89 d7                	mov    %edx,%edi
    44a9:	29 f7                	sub    %esi,%edi
    44ab:	01 f2                	add    %esi,%edx
    44ad:	44 89 fe             	mov    %r15d,%esi
    44b0:	03 6c 24 98          	add    -0x68(%rsp),%ebp
    44b4:	29 d9                	sub    %ebx,%ecx
    44b6:	c1 fd 10             	sar    $0x10,%ebp
    44b9:	c1 f9 10             	sar    $0x10,%ecx
    44bc:	66 43 89 2c 10       	mov    %bp,(%r8,%r10,1)
    44c1:	66 43 89 4c 10 02    	mov    %cx,0x2(%r8,%r10,1)
    44c7:	0f b6 4c 24 88       	movzbl -0x78(%rsp),%ecx
    44cc:	d3 e6                	shl    %cl,%esi
    44ce:	48 63 ce             	movslq %esi,%rcx
    44d1:	44 89 f6             	mov    %r14d,%esi
    44d4:	29 ce                	sub    %ecx,%esi
    44d6:	85 f6                	test   %esi,%esi
    44d8:	0f 8e a5 01 00 00    	jle    4683 <riscv_dsp_cfft_rd4_q15+0x373>
    44de:	48 63 f6             	movslq %esi,%rsi
    44e1:	41 0f b7 0c 4c       	movzwl (%r12,%rcx,2),%ecx
    44e6:	41 0f b7 34 74       	movzwl (%r12,%rsi,2),%esi
    44eb:	0f bf c9             	movswl %cx,%ecx
    44ee:	0f bf f6             	movswl %si,%esi
    44f1:	89 cb                	mov    %ecx,%ebx
    44f3:	0f af cf             	imul   %edi,%ecx
    44f6:	89 f5                	mov    %esi,%ebp
    44f8:	41 0f af f3          	imul   %r11d,%esi
    44fc:	41 0f af db          	imul   %r11d,%ebx
    4500:	0f af ef             	imul   %edi,%ebp
    4503:	29 f1                	sub    %esi,%ecx
    4505:	43 8d 34 7f          	lea    (%r15,%r15,2),%esi
    4509:	c1 f9 10             	sar    $0x10,%ecx
    450c:	66 41 89 49 02       	mov    %cx,0x2(%r9)
    4511:	0f b6 4c 24 88       	movzbl -0x78(%rsp),%ecx
    4516:	01 eb                	add    %ebp,%ebx
    4518:	c1 fb 10             	sar    $0x10,%ebx
    451b:	d3 e6                	shl    %cl,%esi
    451d:	66 41 89 19          	mov    %bx,(%r9)
    4521:	48 63 ce             	movslq %esi,%rcx
    4524:	44 89 f6             	mov    %r14d,%esi
    4527:	29 ce                	sub    %ecx,%esi
    4529:	85 f6                	test   %esi,%esi
    452b:	0f 8e 2c 01 00 00    	jle    465d <riscv_dsp_cfft_rd4_q15+0x34d>
    4531:	48 63 f6             	movslq %esi,%rsi
    4534:	41 0f b7 0c 4c       	movzwl (%r12,%rcx,2),%ecx
    4539:	41 0f b7 34 74       	movzwl (%r12,%rsi,2),%esi
    453e:	0f bf c9             	movswl %cx,%ecx
    4541:	0f bf f6             	movswl %si,%esi
    4544:	49 83 c0 04          	add    $0x4,%r8
    4548:	49 83 c1 04          	add    $0x4,%r9
    454c:	89 cf                	mov    %ecx,%edi
    454e:	0f af ca             	imul   %edx,%ecx
    4551:	41 89 f3             	mov    %esi,%r11d
    4554:	0f af f8             	imul   %eax,%edi
    4557:	44 0f af da          	imul   %edx,%r11d
    455b:	0f af f0             	imul   %eax,%esi
    455e:	44 01 df             	add    %r11d,%edi
    4561:	29 f1                	sub    %esi,%ecx
    4563:	c1 ff 10             	sar    $0x10,%edi
    4566:	c1 f9 10             	sar    $0x10,%ecx
    4569:	66 43 89 7c 11 fc    	mov    %di,-0x4(%r9,%r10,1)
    456f:	66 43 89 4c 11 fe    	mov    %cx,-0x2(%r9,%r10,1)
    4575:	4c 39 44 24 a8       	cmp    %r8,-0x58(%rsp)
    457a:	0f 84 bf 01 00 00    	je     473f <riscv_dsp_cfft_rd4_q15+0x42f>
    4580:	41 0f b7 09          	movzwl (%r9),%ecx
    4584:	43 0f b7 34 10       	movzwl (%r8,%r10,1),%esi
    4589:	41 83 c7 01          	add    $0x1,%r15d
    458d:	43 0f b7 3c 11       	movzwl (%r9,%r10,1),%edi
    4592:	41 0f b7 00          	movzwl (%r8),%eax
    4596:	66 d1 f9             	sar    %cx
    4599:	66 d1 fe             	sar    %si
    459c:	66 d1 f8             	sar    %ax
    459f:	66 d1 ff             	sar    %di
    45a2:	0f bf c9             	movswl %cx,%ecx
    45a5:	0f bf f6             	movswl %si,%esi
    45a8:	0f bf ff             	movswl %di,%edi
    45ab:	98                   	cwtl   
    45ac:	8d 14 08             	lea    (%rax,%rcx,1),%edx
    45af:	29 c8                	sub    %ecx,%eax
    45b1:	8d 0c 3e             	lea    (%rsi,%rdi,1),%ecx
    45b4:	29 fe                	sub    %edi,%esi
    45b6:	d1 f9                	sar    %ecx
    45b8:	d1 fa                	sar    %edx
    45ba:	8d 3c 0a             	lea    (%rdx,%rcx,1),%edi
    45bd:	d1 f8                	sar    %eax
    45bf:	29 ca                	sub    %ecx,%edx
    45c1:	d1 fe                	sar    %esi
    45c3:	d1 ff                	sar    %edi
    45c5:	41 89 d5             	mov    %edx,%r13d
    45c8:	41 0f b7 50 02       	movzwl 0x2(%r8),%edx
    45cd:	66 41 89 38          	mov    %di,(%r8)
    45d1:	41 0f b7 49 02       	movzwl 0x2(%r9),%ecx
    45d6:	43 0f b7 7c 10 02    	movzwl 0x2(%r8,%r10,1),%edi
    45dc:	43 0f b7 5c 11 02    	movzwl 0x2(%r9,%r10,1),%ebx
    45e2:	66 d1 fa             	sar    %dx
    45e5:	66 d1 f9             	sar    %cx
    45e8:	0f bf d2             	movswl %dx,%edx
    45eb:	66 d1 ff             	sar    %di
    45ee:	66 d1 fb             	sar    %bx
    45f1:	0f bf c9             	movswl %cx,%ecx
    45f4:	0f bf db             	movswl %bx,%ebx
    45f7:	0f bf ff             	movswl %di,%edi
    45fa:	44 8d 1c 0a          	lea    (%rdx,%rcx,1),%r11d
    45fe:	29 ca                	sub    %ecx,%edx
    4600:	8d 0c 1f             	lea    (%rdi,%rbx,1),%ecx
    4603:	41 d1 fb             	sar    %r11d
    4606:	29 df                	sub    %ebx,%edi
    4608:	d1 fa                	sar    %edx
    460a:	d1 f9                	sar    %ecx
    460c:	d1 ff                	sar    %edi
    460e:	41 8d 1c 0b          	lea    (%r11,%rcx,1),%ebx
    4612:	41 29 cb             	sub    %ecx,%r11d
    4615:	0f b6 4c 24 88       	movzbl -0x78(%rsp),%ecx
    461a:	d1 fb                	sar    %ebx
    461c:	66 41 89 58 02       	mov    %bx,0x2(%r8)
    4621:	43 8d 1c 3f          	lea    (%r15,%r15,1),%ebx
    4625:	d3 e3                	shl    %cl,%ebx
    4627:	48 63 cb             	movslq %ebx,%rcx
    462a:	44 89 f3             	mov    %r14d,%ebx
    462d:	29 cb                	sub    %ecx,%ebx
    462f:	85 db                	test   %ebx,%ebx
    4631:	0f 8f 3f fe ff ff    	jg     4476 <riscv_dsp_cfft_rd4_q15+0x166>
    4637:	8d 99 00 ff ff ff    	lea    -0x100(%rcx),%ebx
    463d:	44 89 f5             	mov    %r14d,%ebp
    4640:	29 dd                	sub    %ebx,%ebp
    4642:	85 ed                	test   %ebp,%ebp
    4644:	7e 63                	jle    46a9 <riscv_dsp_cfft_rd4_q15+0x399>
    4646:	48 63 ed             	movslq %ebp,%rbp
    4649:	48 63 db             	movslq %ebx,%rbx
    464c:	41 0f b7 0c 6c       	movzwl (%r12,%rbp,2),%ecx
    4651:	41 0f b7 1c 5c       	movzwl (%r12,%rbx,2),%ebx
    4656:	f7 d9                	neg    %ecx
    4658:	e9 26 fe ff ff       	jmp    4483 <riscv_dsp_cfft_rd4_q15+0x173>
    465d:	8d b1 00 ff ff ff    	lea    -0x100(%rcx),%esi
    4663:	44 89 f7             	mov    %r14d,%edi
    4666:	29 f7                	sub    %esi,%edi
    4668:	85 ff                	test   %edi,%edi
    466a:	7e 6f                	jle    46db <riscv_dsp_cfft_rd4_q15+0x3cb>
    466c:	48 63 ff             	movslq %edi,%rdi
    466f:	48 63 f6             	movslq %esi,%rsi
    4672:	41 0f b7 0c 7c       	movzwl (%r12,%rdi,2),%ecx
    4677:	41 0f b7 34 74       	movzwl (%r12,%rsi,2),%esi
    467c:	f7 d9                	neg    %ecx
    467e:	e9 bb fe ff ff       	jmp    453e <riscv_dsp_cfft_rd4_q15+0x22e>
    4683:	8d b1 00 ff ff ff    	lea    -0x100(%rcx),%esi
    4689:	44 89 f3             	mov    %r14d,%ebx
    468c:	29 f3                	sub    %esi,%ebx
    468e:	85 db                	test   %ebx,%ebx
    4690:	7e 7b                	jle    470d <riscv_dsp_cfft_rd4_q15+0x3fd>
    4692:	48 63 db             	movslq %ebx,%rbx
    4695:	48 63 f6             	movslq %esi,%rsi
    4698:	41 0f b7 0c 5c       	movzwl (%r12,%rbx,2),%ecx
    469d:	41 0f b7 34 74       	movzwl (%r12,%rsi,2),%esi
    46a2:	f7 d9                	neg    %ecx
    46a4:	e9 42 fe ff ff       	jmp    44eb <riscv_dsp_cfft_rd4_q15+0x1db>
    46a9:	8d 99 00 fe ff ff    	lea    -0x200(%rcx),%ebx
    46af:	44 89 f5             	mov    %r14d,%ebp
    46b2:	29 dd                	sub    %ebx,%ebp
    46b4:	48 63 db             	movslq %ebx,%rbx
    46b7:	41 0f b7 1c 5c       	movzwl (%r12,%rbx,2),%ebx
    46bc:	48 63 cd             	movslq %ebp,%rcx
    46bf:	41 0f b7 0c 4c       	movzwl (%r12,%rcx,2),%ecx
    46c4:	f7 db                	neg    %ebx
    46c6:	85 ed                	test   %ebp,%ebp
    46c8:	0f 8e b5 fd ff ff    	jle    4483 <riscv_dsp_cfft_rd4_q15+0x173>
    46ce:	f7 d9                	neg    %ecx
    46d0:	89 cd                	mov    %ecx,%ebp
    46d2:	89 d9                	mov    %ebx,%ecx
    46d4:	89 eb                	mov    %ebp,%ebx
    46d6:	e9 a8 fd ff ff       	jmp    4483 <riscv_dsp_cfft_rd4_q15+0x173>
    46db:	8d b1 00 fe ff ff    	lea    -0x200(%rcx),%esi
    46e1:	44 89 f7             	mov    %r14d,%edi
    46e4:	29 f7                	sub    %esi,%edi
    46e6:	48 63 f6             	movslq %esi,%rsi
    46e9:	41 0f b7 34 74       	movzwl (%r12,%rsi,2),%esi
    46ee:	48 63 cf             	movslq %edi,%rcx
    46f1:	41 0f b7 0c 4c       	movzwl (%r12,%rcx,2),%ecx
    46f6:	f7 de                	neg    %esi
    46f8:	85 ff                	test   %edi,%edi
    46fa:	0f 8e 3e fe ff ff    	jle    453e <riscv_dsp_cfft_rd4_q15+0x22e>
    4700:	89 cf                	mov    %ecx,%edi
    4702:	89 f1                	mov    %esi,%ecx
    4704:	f7 df                	neg    %edi
    4706:	89 fe                	mov    %edi,%esi
    4708:	e9 31 fe ff ff       	jmp    453e <riscv_dsp_cfft_rd4_q15+0x22e>
    470d:	8d b1 00 fe ff ff    	lea    -0x200(%rcx),%esi
    4713:	44 89 f3             	mov    %r14d,%ebx
    4716:	29 f3                	sub    %esi,%ebx
    4718:	48 63 f6             	movslq %esi,%rsi
    471b:	41 0f b7 34 74       	movzwl (%r12,%rsi,2),%esi
    4720:	48 63 cb             	movslq %ebx,%rcx
    4723:	41 0f b7 0c 4c       	movzwl (%r12,%rcx,2),%ecx
    4728:	f7 de                	neg    %esi
    472a:	85 db                	test   %ebx,%ebx
    472c:	0f 8e b9 fd ff ff    	jle    44eb <riscv_dsp_cfft_rd4_q15+0x1db>
    4732:	f7 d9                	neg    %ecx
    4734:	89 cb                	mov    %ecx,%ebx
    4736:	89 f1                	mov    %esi,%ecx
    4738:	89 de                	mov    %ebx,%esi
    473a:	e9 ac fd ff ff       	jmp    44eb <riscv_dsp_cfft_rd4_q15+0x1db>
    473f:	8b 74 24 14          	mov    0x14(%rsp),%esi
    4743:	8b 7c 24 1c          	mov    0x1c(%rsp),%edi
    4747:	c7 44 24 e4 04 00 00 	movl   $0x4,-0x1c(%rsp)
    474e:	00 
    474f:	89 f0                	mov    %esi,%eax
    4751:	89 7c 24 fc          	mov    %edi,-0x4(%rsp)
    4755:	d1 e8                	shr    %eax
    4757:	83 e8 02             	sub    $0x2,%eax
    475a:	89 44 24 10          	mov    %eax,0x10(%rsp)
    475e:	0f 84 6f 03 00 00    	je     4ad3 <riscv_dsp_cfft_rd4_q15+0x7c3>
    4764:	b8 0a 00 00 00       	mov    $0xa,%eax
    4769:	29 f0                	sub    %esi,%eax
    476b:	89 44 24 f8          	mov    %eax,-0x8(%rsp)
    476f:	90                   	nop
    4770:	48 8b 04 24          	mov    (%rsp),%rax
    4774:	8b 74 24 e4          	mov    -0x1c(%rsp),%esi
    4778:	c1 6c 24 fc 02       	shrl   $0x2,-0x4(%rsp)
    477d:	44 8b 74 24 fc       	mov    -0x4(%rsp),%r14d
    4782:	4f 8d 3c 36          	lea    (%r14,%r14,1),%r15
    4786:	4c 01 f8             	add    %r15,%rax
    4789:	48 89 44 24 e8       	mov    %rax,-0x18(%rsp)
    478e:	85 f6                	test   %esi,%esi
    4790:	0f 84 d0 00 00 00    	je     4866 <riscv_dsp_cfft_rd4_q15+0x556>
    4796:	48 8b 0c 24          	mov    (%rsp),%rcx
    479a:	8b 6c 24 e4          	mov    -0x1c(%rsp),%ebp
    479e:	4e 8d 24 f5 00 00 00 	lea    0x0(,%r14,8),%r12
    47a5:	00 
    47a6:	4a 8d 34 38          	lea    (%rax,%r15,1),%rsi
    47aa:	66 0f 1f 44 00 00    	nopw   0x0(%rax,%rax,1)
    47b0:	0f bf 06             	movswl (%rsi),%eax
    47b3:	0f bf 11             	movswl (%rcx),%edx
    47b6:	42 0f bf 3c 3e       	movswl (%rsi,%r15,1),%edi
    47bb:	44 0f bf 49 02       	movswl 0x2(%rcx),%r9d
    47c0:	44 8d 04 02          	lea    (%rdx,%rax,1),%r8d
    47c4:	29 c2                	sub    %eax,%edx
    47c6:	42 0f bf 04 39       	movswl (%rcx,%r15,1),%eax
    47cb:	41 d1 f8             	sar    %r8d
    47ce:	d1 fa                	sar    %edx
    47d0:	8d 1c 38             	lea    (%rax,%rdi,1),%ebx
    47d3:	29 f8                	sub    %edi,%eax
    47d5:	d1 fb                	sar    %ebx
    47d7:	d1 f8                	sar    %eax
    47d9:	41 8d 3c 18          	lea    (%r8,%rbx,1),%edi
    47dd:	41 29 d8             	sub    %ebx,%r8d
    47e0:	d1 ff                	sar    %edi
    47e2:	41 d1 f8             	sar    %r8d
    47e5:	66 89 39             	mov    %di,(%rcx)
    47e8:	44 0f bf 56 02       	movswl 0x2(%rsi),%r10d
    47ed:	46 0f bf 6c 3e 02    	movswl 0x2(%rsi,%r15,1),%r13d
    47f3:	43 8d 3c 11          	lea    (%r9,%r10,1),%edi
    47f7:	45 29 d1             	sub    %r10d,%r9d
    47fa:	46 0f bf 54 39 02    	movswl 0x2(%rcx,%r15,1),%r10d
    4800:	d1 ff                	sar    %edi
    4802:	41 d1 f9             	sar    %r9d
    4805:	47 8d 1c 2a          	lea    (%r10,%r13,1),%r11d
    4809:	45 29 ea             	sub    %r13d,%r10d
    480c:	41 d1 fb             	sar    %r11d
    480f:	41 d1 fa             	sar    %r10d
    4812:	46 8d 2c 1f          	lea    (%rdi,%r11,1),%r13d
    4816:	44 29 df             	sub    %r11d,%edi
    4819:	d1 ff                	sar    %edi
    481b:	41 d1 fd             	sar    %r13d
    481e:	66 44 89 69 02       	mov    %r13w,0x2(%rcx)
    4823:	66 42 89 7c 39 02    	mov    %di,0x2(%rcx,%r15,1)
    4829:	42 8d 3c 12          	lea    (%rdx,%r10,1),%edi
    482d:	44 29 d2             	sub    %r10d,%edx
    4830:	d1 ff                	sar    %edi
    4832:	66 46 89 04 39       	mov    %r8w,(%rcx,%r15,1)
    4837:	d1 fa                	sar    %edx
    4839:	4c 01 e1             	add    %r12,%rcx
    483c:	66 89 3e             	mov    %di,(%rsi)
    483f:	44 89 cf             	mov    %r9d,%edi
    4842:	29 c7                	sub    %eax,%edi
    4844:	44 01 c8             	add    %r9d,%eax
    4847:	d1 ff                	sar    %edi
    4849:	d1 f8                	sar    %eax
    484b:	66 89 7e 02          	mov    %di,0x2(%rsi)
    484f:	66 42 89 14 3e       	mov    %dx,(%rsi,%r15,1)
    4854:	66 42 89 44 3e 02    	mov    %ax,0x2(%rsi,%r15,1)
    485a:	4c 01 e6             	add    %r12,%rsi
    485d:	83 ed 01             	sub    $0x1,%ebp
    4860:	0f 85 4a ff ff ff    	jne    47b0 <riscv_dsp_cfft_rd4_q15+0x4a0>
    4866:	48 8b 74 24 e8       	mov    -0x18(%rsp),%rsi
    486b:	48 39 74 24 08       	cmp    %rsi,0x8(%rsp)
    4870:	0f 84 4d 02 00 00    	je     4ac3 <riscv_dsp_cfft_rd4_q15+0x7b3>
    4876:	4a 8d 04 b5 00 00 00 	lea    0x0(,%r14,4),%rax
    487d:	00 
    487e:	c7 44 24 e0 00 00 00 	movl   $0x0,-0x20(%rsp)
    4885:	00 
    4886:	4a 8d 2c f5 00 00 00 	lea    0x0(,%r14,8),%rbp
    488d:	00 
    488e:	48 89 44 24 f0       	mov    %rax,-0x10(%rsp)
    4893:	48 8b 44 24 08       	mov    0x8(%rsp),%rax
    4898:	48 89 44 24 d8       	mov    %rax,-0x28(%rsp)
    489d:	0f 1f 00             	nopl   (%rax)
    48a0:	0f b6 4c 24 f8       	movzbl -0x8(%rsp),%ecx
    48a5:	8b 74 24 e4          	mov    -0x1c(%rsp),%esi
    48a9:	01 74 24 e0          	add    %esi,-0x20(%rsp)
    48ad:	8b 44 24 e0          	mov    -0x20(%rsp),%eax
    48b1:	d3 e0                	shl    %cl,%eax
    48b3:	b9 00 01 00 00       	mov    $0x100,%ecx
    48b8:	29 c1                	sub    %eax,%ecx
    48ba:	85 c9                	test   %ecx,%ecx
    48bc:	0f 8e 5e 0d 00 00    	jle    5620 <riscv_dsp_cfft_rd4_q15+0x1310>
    48c2:	48 98                	cltq   
    48c4:	48 8d 3d 19 2d 00 00 	lea    0x2d19(%rip),%rdi        # 75e4 <riscv_dsp_cos_table_q15_1024+0x4>
    48cb:	48 63 c9             	movslq %ecx,%rcx
    48ce:	0f b7 14 47          	movzwl (%rdi,%rax,2),%edx
    48d2:	0f b7 04 4f          	movzwl (%rdi,%rcx,2),%eax
    48d6:	8b 74 24 e0          	mov    -0x20(%rsp),%esi
    48da:	0f b6 4c 24 f8       	movzbl -0x8(%rsp),%ecx
    48df:	01 f6                	add    %esi,%esi
    48e1:	d3 e6                	shl    %cl,%esi
    48e3:	48 63 ce             	movslq %esi,%rcx
    48e6:	be 00 01 00 00       	mov    $0x100,%esi
    48eb:	29 ce                	sub    %ecx,%esi
    48ed:	85 f6                	test   %esi,%esi
    48ef:	0f 8e bb 0c 00 00    	jle    55b0 <riscv_dsp_cfft_rd4_q15+0x12a0>
    48f5:	48 8d 1d e8 2c 00 00 	lea    0x2ce8(%rip),%rbx        # 75e4 <riscv_dsp_cos_table_q15_1024+0x4>
    48fc:	48 63 f6             	movslq %esi,%rsi
    48ff:	0f b7 3c 4b          	movzwl (%rbx,%rcx,2),%edi
    4903:	0f b7 34 73          	movzwl (%rbx,%rsi,2),%esi
    4907:	8b 4c 24 e0          	mov    -0x20(%rsp),%ecx
    490b:	44 8d 04 49          	lea    (%rcx,%rcx,2),%r8d
    490f:	0f b6 4c 24 f8       	movzbl -0x8(%rsp),%ecx
    4914:	41 d3 e0             	shl    %cl,%r8d
    4917:	49 63 c8             	movslq %r8d,%rcx
    491a:	41 b8 00 01 00 00    	mov    $0x100,%r8d
    4920:	41 29 c8             	sub    %ecx,%r8d
    4923:	45 85 c0             	test   %r8d,%r8d
    4926:	0f 8e bc 0c 00 00    	jle    55e8 <riscv_dsp_cfft_rd4_q15+0x12d8>
    492c:	48 8d 1d b1 2c 00 00 	lea    0x2cb1(%rip),%rbx        # 75e4 <riscv_dsp_cos_table_q15_1024+0x4>
    4933:	4d 63 c0             	movslq %r8d,%r8
    4936:	44 0f b7 24 4b       	movzwl (%rbx,%rcx,2),%r12d
    493b:	46 0f b7 2c 43       	movzwl (%rbx,%r8,2),%r13d
    4940:	8b 4c 24 e4          	mov    -0x1c(%rsp),%ecx
    4944:	85 c9                	test   %ecx,%ecx
    4946:	0f 84 61 01 00 00    	je     4aad <riscv_dsp_cfft_rd4_q15+0x79d>
    494c:	98                   	cwtl   
    494d:	0f bf f6             	movswl %si,%esi
    4950:	0f bf ff             	movswl %di,%edi
    4953:	45 0f bf e4          	movswl %r12w,%r12d
    4957:	89 44 24 c8          	mov    %eax,-0x38(%rsp)
    495b:	8b 44 24 e4          	mov    -0x1c(%rsp),%eax
    495f:	45 0f bf ed          	movswl %r13w,%r13d
    4963:	89 74 24 88          	mov    %esi,-0x78(%rsp)
    4967:	0f bf f2             	movswl %dx,%esi
    496a:	89 7c 24 a8          	mov    %edi,-0x58(%rsp)
    496e:	48 8b 7c 24 f0       	mov    -0x10(%rsp),%rdi
    4973:	89 74 24 b8          	mov    %esi,-0x48(%rsp)
    4977:	48 8b 74 24 d8       	mov    -0x28(%rsp),%rsi
    497c:	89 44 24 98          	mov    %eax,-0x68(%rsp)
    4980:	48 01 f7             	add    %rsi,%rdi
    4983:	0f 1f 44 00 00       	nopl   0x0(%rax,%rax,1)
    4988:	0f bf 07             	movswl (%rdi),%eax
    498b:	0f bf 0e             	movswl (%rsi),%ecx
    498e:	42 0f bf 14 3f       	movswl (%rdi,%r15,1),%edx
    4993:	44 0f bf 4e 02       	movswl 0x2(%rsi),%r9d
    4998:	44 8d 04 01          	lea    (%rcx,%rax,1),%r8d
    499c:	29 c1                	sub    %eax,%ecx
    499e:	42 0f bf 04 3e       	movswl (%rsi,%r15,1),%eax
    49a3:	41 d1 f8             	sar    %r8d
    49a6:	d1 f9                	sar    %ecx
    49a8:	8d 1c 10             	lea    (%rax,%rdx,1),%ebx
    49ab:	29 d0                	sub    %edx,%eax
    49ad:	d1 fb                	sar    %ebx
    49af:	d1 f8                	sar    %eax
    49b1:	41 8d 14 18          	lea    (%r8,%rbx,1),%edx
    49b5:	41 29 d8             	sub    %ebx,%r8d
    49b8:	8b 5c 24 88          	mov    -0x78(%rsp),%ebx
    49bc:	d1 fa                	sar    %edx
    49be:	66 89 16             	mov    %dx,(%rsi)
    49c1:	44 0f bf 57 02       	movswl 0x2(%rdi),%r10d
    49c6:	46 0f bf 74 3f 02    	movswl 0x2(%rdi,%r15,1),%r14d
    49cc:	43 8d 14 11          	lea    (%r9,%r10,1),%edx
    49d0:	45 29 d1             	sub    %r10d,%r9d
    49d3:	46 0f bf 54 3e 02    	movswl 0x2(%rsi,%r15,1),%r10d
    49d9:	d1 fa                	sar    %edx
    49db:	41 d1 f9             	sar    %r9d
    49de:	47 8d 1c 32          	lea    (%r10,%r14,1),%r11d
    49e2:	45 29 f2             	sub    %r14d,%r10d
    49e5:	41 d1 fb             	sar    %r11d
    49e8:	41 d1 fa             	sar    %r10d
    49eb:	46 8d 34 1a          	lea    (%rdx,%r11,1),%r14d
    49ef:	44 29 da             	sub    %r11d,%edx
    49f2:	41 d1 fe             	sar    %r14d
    49f5:	0f af da             	imul   %edx,%ebx
    49f8:	66 44 89 76 02       	mov    %r14w,0x2(%rsi)
    49fd:	44 8b 74 24 a8       	mov    -0x58(%rsp),%r14d
    4a02:	45 89 f3             	mov    %r14d,%r11d
    4a05:	41 0f af d6          	imul   %r14d,%edx
    4a09:	44 8b 74 24 c8       	mov    -0x38(%rsp),%r14d
    4a0e:	45 0f af d8          	imul   %r8d,%r11d
    4a12:	44 0f af 44 24 88    	imul   -0x78(%rsp),%r8d
    4a18:	41 01 db             	add    %ebx,%r11d
    4a1b:	8b 5c 24 b8          	mov    -0x48(%rsp),%ebx
    4a1f:	44 29 c2             	sub    %r8d,%edx
    4a22:	45 89 c8             	mov    %r9d,%r8d
    4a25:	41 c1 fb 10          	sar    $0x10,%r11d
    4a29:	c1 fa 10             	sar    $0x10,%edx
    4a2c:	41 29 c0             	sub    %eax,%r8d
    4a2f:	44 01 c8             	add    %r9d,%eax
    4a32:	41 89 d9             	mov    %ebx,%r9d
    4a35:	66 42 89 54 3e 02    	mov    %dx,0x2(%rsi,%r15,1)
    4a3b:	42 8d 14 11          	lea    (%rcx,%r10,1),%edx
    4a3f:	44 29 d1             	sub    %r10d,%ecx
    4a42:	45 89 f2             	mov    %r14d,%r10d
    4a45:	45 0f af d0          	imul   %r8d,%r10d
    4a49:	66 46 89 1c 3e       	mov    %r11w,(%rsi,%r15,1)
    4a4e:	44 0f af ca          	imul   %edx,%r9d
    4a52:	44 0f af c3          	imul   %ebx,%r8d
    4a56:	45 01 d1             	add    %r10d,%r9d
    4a59:	41 c1 f9 10          	sar    $0x10,%r9d
    4a5d:	41 0f af d6          	imul   %r14d,%edx
    4a61:	48 01 ee             	add    %rbp,%rsi
    4a64:	66 44 89 0f          	mov    %r9w,(%rdi)
    4a68:	41 29 d0             	sub    %edx,%r8d
    4a6b:	89 ca                	mov    %ecx,%edx
    4a6d:	41 c1 f8 10          	sar    $0x10,%r8d
    4a71:	41 0f af d4          	imul   %r12d,%edx
    4a75:	66 44 89 47 02       	mov    %r8w,0x2(%rdi)
    4a7a:	41 89 c0             	mov    %eax,%r8d
    4a7d:	41 0f af cd          	imul   %r13d,%ecx
    4a81:	45 0f af c5          	imul   %r13d,%r8d
    4a85:	41 0f af c4          	imul   %r12d,%eax
    4a89:	44 01 c2             	add    %r8d,%edx
    4a8c:	29 c8                	sub    %ecx,%eax
    4a8e:	c1 fa 10             	sar    $0x10,%edx
    4a91:	c1 f8 10             	sar    $0x10,%eax
    4a94:	66 42 89 14 3f       	mov    %dx,(%rdi,%r15,1)
    4a99:	66 42 89 44 3f 02    	mov    %ax,0x2(%rdi,%r15,1)
    4a9f:	48 01 ef             	add    %rbp,%rdi
    4aa2:	83 6c 24 98 01       	subl   $0x1,-0x68(%rsp)
    4aa7:	0f 85 db fe ff ff    	jne    4988 <riscv_dsp_cfft_rd4_q15+0x678>
    4aad:	48 83 44 24 d8 04    	addq   $0x4,-0x28(%rsp)
    4ab3:	48 8b 44 24 d8       	mov    -0x28(%rsp),%rax
    4ab8:	48 39 44 24 e8       	cmp    %rax,-0x18(%rsp)
    4abd:	0f 85 dd fd ff ff    	jne    48a0 <riscv_dsp_cfft_rd4_q15+0x590>
    4ac3:	c1 64 24 e4 02       	shll   $0x2,-0x1c(%rsp)
    4ac8:	83 6c 24 10 01       	subl   $0x1,0x10(%rsp)
    4acd:	0f 85 9d fc ff ff    	jne    4770 <riscv_dsp_cfft_rd4_q15+0x460>
    4ad3:	8b 44 24 18          	mov    0x18(%rsp),%eax
    4ad7:	48 8b 34 24          	mov    (%rsp),%rsi
    4adb:	01 c0                	add    %eax,%eax
    4add:	48 8d 2c 46          	lea    (%rsi,%rax,2),%rbp
    4ae1:	48 39 ee             	cmp    %rbp,%rsi
    4ae4:	0f 84 3f 08 00 00    	je     5329 <riscv_dsp_cfft_rd4_q15+0x1019>
    4aea:	48 89 ea             	mov    %rbp,%rdx
    4aed:	48 89 f0             	mov    %rsi,%rax
    4af0:	48 29 f2             	sub    %rsi,%rdx
    4af3:	48 83 ea 10          	sub    $0x10,%rdx
    4af7:	48 89 d1             	mov    %rdx,%rcx
    4afa:	48 c1 e9 04          	shr    $0x4,%rcx
    4afe:	48 83 c1 01          	add    $0x1,%rcx
    4b02:	48 83 fa 60          	cmp    $0x60,%rdx
    4b06:	0f 86 44 07 00 00    	jbe    5250 <riscv_dsp_cfft_rd4_q15+0xf40>
    4b0c:	48 89 ca             	mov    %rcx,%rdx
    4b0f:	66 45 0f ef e4       	pxor   %xmm12,%xmm12
    4b14:	48 c1 ea 03          	shr    $0x3,%rdx
    4b18:	48 c1 e2 07          	shl    $0x7,%rdx
    4b1c:	48 01 f2             	add    %rsi,%rdx
    4b1f:	f3 0f 6f 30          	movdqu (%rax),%xmm6
    4b23:	f3 0f 6f 78 10       	movdqu 0x10(%rax),%xmm7
    4b28:	66 45 0f 6f ec       	movdqa %xmm12,%xmm13
    4b2d:	48 83 e8 80          	sub    $0xffffffffffffff80,%rax
    4b31:	f3 0f 6f 58 a0       	movdqu -0x60(%rax),%xmm3
    4b36:	f3 0f 6f 68 b0       	movdqu -0x50(%rax),%xmm5
    4b3b:	66 0f 6f e6          	movdqa %xmm6,%xmm4
    4b3f:	66 0f 6f ce          	movdqa %xmm6,%xmm1
    4b43:	f3 0f 6f 50 c0       	movdqu -0x40(%rax),%xmm2
    4b48:	66 0f 61 f7          	punpcklwd %xmm7,%xmm6
    4b4c:	66 0f 61 e7          	punpcklwd %xmm7,%xmm4
    4b50:	66 0f 69 cf          	punpckhwd %xmm7,%xmm1
    4b54:	66 0f 6f fb          	movdqa %xmm3,%xmm7
    4b58:	f3 44 0f 6f 40 d0    	movdqu -0x30(%rax),%xmm8
    4b5e:	66 44 0f 6f d4       	movdqa %xmm4,%xmm10
    4b63:	66 0f 61 fd          	punpcklwd %xmm5,%xmm7
    4b67:	66 0f 61 e1          	punpcklwd %xmm1,%xmm4
    4b6b:	f3 0f 6f 40 e0       	movdqu -0x20(%rax),%xmm0
    4b70:	66 44 0f 69 d1       	punpckhwd %xmm1,%xmm10
    4b75:	66 0f 61 f1          	punpcklwd %xmm1,%xmm6
    4b79:	66 0f 6f cb          	movdqa %xmm3,%xmm1
    4b7d:	f3 44 0f 6f 48 f0    	movdqu -0x10(%rax),%xmm9
    4b83:	66 0f 69 cd          	punpckhwd %xmm5,%xmm1
    4b87:	66 41 0f 61 e2       	punpcklwd %xmm10,%xmm4
    4b8c:	66 41 0f 69 f2       	punpckhwd %xmm10,%xmm6
    4b91:	66 0f 61 dd          	punpcklwd %xmm5,%xmm3
    4b95:	66 44 0f 6f d7       	movdqa %xmm7,%xmm10
    4b9a:	66 0f 6f ea          	movdqa %xmm2,%xmm5
    4b9e:	66 44 0f 69 d1       	punpckhwd %xmm1,%xmm10
    4ba3:	66 41 0f 61 e8       	punpcklwd %xmm8,%xmm5
    4ba8:	66 0f 61 f9          	punpcklwd %xmm1,%xmm7
    4bac:	66 0f 61 d9          	punpcklwd %xmm1,%xmm3
    4bb0:	66 0f 6f ca          	movdqa %xmm2,%xmm1
    4bb4:	66 41 0f 61 fa       	punpcklwd %xmm10,%xmm7
    4bb9:	66 41 0f 69 da       	punpckhwd %xmm10,%xmm3
    4bbe:	66 41 0f 69 c8       	punpckhwd %xmm8,%xmm1
    4bc3:	66 44 0f 6f d5       	movdqa %xmm5,%xmm10
    4bc8:	66 41 0f 61 d0       	punpcklwd %xmm8,%xmm2
    4bcd:	66 44 0f 6f c0       	movdqa %xmm0,%xmm8
    4bd2:	66 44 0f 69 d1       	punpckhwd %xmm1,%xmm10
    4bd7:	66 45 0f 61 c1       	punpcklwd %xmm9,%xmm8
    4bdc:	66 0f 61 e9          	punpcklwd %xmm1,%xmm5
    4be0:	66 0f 61 d1          	punpcklwd %xmm1,%xmm2
    4be4:	66 0f 6f c8          	movdqa %xmm0,%xmm1
    4be8:	66 41 0f 61 ea       	punpcklwd %xmm10,%xmm5
    4bed:	66 41 0f 69 d2       	punpckhwd %xmm10,%xmm2
    4bf2:	66 41 0f 69 c9       	punpckhwd %xmm9,%xmm1
    4bf7:	66 45 0f 6f d0       	movdqa %xmm8,%xmm10
    4bfc:	66 41 0f 61 c1       	punpcklwd %xmm9,%xmm0
    4c01:	66 44 0f 69 d1       	punpckhwd %xmm1,%xmm10
    4c06:	66 44 0f 61 c1       	punpcklwd %xmm1,%xmm8
    4c0b:	66 0f 61 c1          	punpcklwd %xmm1,%xmm0
    4c0f:	66 0f 6f cc          	movdqa %xmm4,%xmm1
    4c13:	66 44 0f 6f cc       	movdqa %xmm4,%xmm9
    4c18:	66 45 0f 61 c2       	punpcklwd %xmm10,%xmm8
    4c1d:	66 0f 61 cf          	punpcklwd %xmm7,%xmm1
    4c21:	66 41 0f 69 c2       	punpckhwd %xmm10,%xmm0
    4c26:	66 44 0f 69 cf       	punpckhwd %xmm7,%xmm9
    4c2b:	66 44 0f 6f d1       	movdqa %xmm1,%xmm10
    4c30:	66 0f 61 e7          	punpcklwd %xmm7,%xmm4
    4c34:	66 0f 6f fd          	movdqa %xmm5,%xmm7
    4c38:	66 45 0f 69 d1       	punpckhwd %xmm9,%xmm10
    4c3d:	66 41 0f 61 f8       	punpcklwd %xmm8,%xmm7
    4c42:	66 41 0f 61 c9       	punpcklwd %xmm9,%xmm1
    4c47:	66 41 0f 61 e1       	punpcklwd %xmm9,%xmm4
    4c4c:	66 44 0f 6f cd       	movdqa %xmm5,%xmm9
    4c51:	66 41 0f 61 ca       	punpcklwd %xmm10,%xmm1
    4c56:	66 45 0f 69 c8       	punpckhwd %xmm8,%xmm9
    4c5b:	66 41 0f 69 e2       	punpckhwd %xmm10,%xmm4
    4c60:	66 41 0f 61 e8       	punpcklwd %xmm8,%xmm5
    4c65:	66 44 0f 6f d7       	movdqa %xmm7,%xmm10
    4c6a:	66 41 0f 61 e9       	punpcklwd %xmm9,%xmm5
    4c6f:	66 41 0f 61 f9       	punpcklwd %xmm9,%xmm7
    4c74:	66 45 0f 69 d1       	punpckhwd %xmm9,%xmm10
    4c79:	66 44 0f 6f c6       	movdqa %xmm6,%xmm8
    4c7e:	66 41 0f 61 fa       	punpcklwd %xmm10,%xmm7
    4c83:	66 41 0f 69 ea       	punpckhwd %xmm10,%xmm5
    4c88:	66 44 0f 6f d6       	movdqa %xmm6,%xmm10
    4c8d:	66 44 0f 61 d3       	punpcklwd %xmm3,%xmm10
    4c92:	66 44 0f 69 c3       	punpckhwd %xmm3,%xmm8
    4c97:	66 0f 61 f3          	punpcklwd %xmm3,%xmm6
    4c9b:	66 45 0f 6f ca       	movdqa %xmm10,%xmm9
    4ca0:	66 0f 6f da          	movdqa %xmm2,%xmm3
    4ca4:	66 45 0f 61 d0       	punpcklwd %xmm8,%xmm10
    4ca9:	66 45 0f 69 c8       	punpckhwd %xmm8,%xmm9
    4cae:	66 0f 61 d8          	punpcklwd %xmm0,%xmm3
    4cb2:	66 41 0f 61 f0       	punpcklwd %xmm8,%xmm6
    4cb7:	66 44 0f 6f c2       	movdqa %xmm2,%xmm8
    4cbc:	66 45 0f 61 d1       	punpcklwd %xmm9,%xmm10
    4cc1:	66 41 0f 69 f1       	punpckhwd %xmm9,%xmm6
    4cc6:	66 44 0f 69 c0       	punpckhwd %xmm0,%xmm8
    4ccb:	66 44 0f 6f cb       	movdqa %xmm3,%xmm9
    4cd0:	66 0f 61 d0          	punpcklwd %xmm0,%xmm2
    4cd4:	66 45 0f 69 c8       	punpckhwd %xmm8,%xmm9
    4cd9:	66 41 0f 61 d8       	punpcklwd %xmm8,%xmm3
    4cde:	66 0f 6f c1          	movdqa %xmm1,%xmm0
    4ce2:	66 41 0f 61 d9       	punpcklwd %xmm9,%xmm3
    4ce7:	66 0f 61 c7          	punpcklwd %xmm7,%xmm0
    4ceb:	66 41 0f 61 d0       	punpcklwd %xmm8,%xmm2
    4cf0:	66 45 0f 6f da       	movdqa %xmm10,%xmm11
    4cf5:	66 44 0f 6f c1       	movdqa %xmm1,%xmm8
    4cfa:	66 41 0f 69 d1       	punpckhwd %xmm9,%xmm2
    4cff:	66 44 0f 69 c7       	punpckhwd %xmm7,%xmm8
    4d04:	66 44 0f 61 db       	punpcklwd %xmm3,%xmm11
    4d09:	66 44 0f 6f c8       	movdqa %xmm0,%xmm9
    4d0e:	66 0f 61 cf          	punpcklwd %xmm7,%xmm1
    4d12:	66 41 0f 6f fa       	movdqa %xmm10,%xmm7
    4d17:	66 45 0f 69 c8       	punpckhwd %xmm8,%xmm9
    4d1c:	66 0f 69 fb          	punpckhwd %xmm3,%xmm7
    4d20:	66 41 0f 61 c0       	punpcklwd %xmm8,%xmm0
    4d25:	66 41 0f 61 c8       	punpcklwd %xmm8,%xmm1
    4d2a:	66 44 0f 61 d3       	punpcklwd %xmm3,%xmm10
    4d2f:	66 45 0f 6f c3       	movdqa %xmm11,%xmm8
    4d34:	66 44 0f 61 df       	punpcklwd %xmm7,%xmm11
    4d39:	66 44 0f 69 c7       	punpckhwd %xmm7,%xmm8
    4d3e:	66 44 0f 61 d7       	punpcklwd %xmm7,%xmm10
    4d43:	66 0f 6f dc          	movdqa %xmm4,%xmm3
    4d47:	66 45 0f 61 d8       	punpcklwd %xmm8,%xmm11
    4d4c:	66 45 0f 69 d0       	punpckhwd %xmm8,%xmm10
    4d51:	66 44 0f 6f c4       	movdqa %xmm4,%xmm8
    4d56:	66 44 0f 61 c5       	punpcklwd %xmm5,%xmm8
    4d5b:	66 0f 69 dd          	punpckhwd %xmm5,%xmm3
    4d5f:	66 0f 61 e5          	punpcklwd %xmm5,%xmm4
    4d63:	66 41 0f 6f f8       	movdqa %xmm8,%xmm7
    4d68:	66 0f 61 e3          	punpcklwd %xmm3,%xmm4
    4d6c:	66 44 0f 61 c3       	punpcklwd %xmm3,%xmm8
    4d71:	66 0f 69 fb          	punpckhwd %xmm3,%xmm7
    4d75:	66 0f 6f de          	movdqa %xmm6,%xmm3
    4d79:	66 41 0f 61 c1       	punpcklwd %xmm9,%xmm0
    4d7e:	66 44 0f 61 c7       	punpcklwd %xmm7,%xmm8
    4d83:	66 0f 69 e7          	punpckhwd %xmm7,%xmm4
    4d87:	66 0f 6f fe          	movdqa %xmm6,%xmm7
    4d8b:	66 0f 61 fa          	punpcklwd %xmm2,%xmm7
    4d8f:	66 0f 69 da          	punpckhwd %xmm2,%xmm3
    4d93:	66 0f 61 f2          	punpcklwd %xmm2,%xmm6
    4d97:	66 0f 6f ef          	movdqa %xmm7,%xmm5
    4d9b:	66 41 0f 6f d4       	movdqa %xmm12,%xmm2
    4da0:	66 41 0f 69 c9       	punpckhwd %xmm9,%xmm1
    4da5:	66 0f 69 eb          	punpckhwd %xmm3,%xmm5
    4da9:	66 0f 65 d0          	pcmpgtw %xmm0,%xmm2
    4dad:	66 0f 61 fb          	punpcklwd %xmm3,%xmm7
    4db1:	66 0f 61 f3          	punpcklwd %xmm3,%xmm6
    4db5:	66 41 0f 6f dc       	movdqa %xmm12,%xmm3
    4dba:	66 0f 61 fd          	punpcklwd %xmm5,%xmm7
    4dbe:	66 0f 65 d9          	pcmpgtw %xmm1,%xmm3
    4dc2:	66 44 0f 65 ec       	pcmpgtw %xmm4,%xmm13
    4dc7:	66 0f 69 f5          	punpckhwd %xmm5,%xmm6
    4dcb:	66 0f 6f e8          	movdqa %xmm0,%xmm5
    4dcf:	66 0f 69 c2          	punpckhwd %xmm2,%xmm0
    4dd3:	66 0f 61 ea          	punpcklwd %xmm2,%xmm5
    4dd7:	66 0f 6f d1          	movdqa %xmm1,%xmm2
    4ddb:	66 44 0f 6f c8       	movdqa %xmm0,%xmm9
    4de0:	66 0f 61 d3          	punpcklwd %xmm3,%xmm2
    4de4:	66 0f 69 cb          	punpckhwd %xmm3,%xmm1
    4de8:	66 0f 6f dd          	movdqa %xmm5,%xmm3
    4dec:	66 0f fe da          	paddd  %xmm2,%xmm3
    4df0:	66 0f fa ea          	psubd  %xmm2,%xmm5
    4df4:	66 41 0f 6f d4       	movdqa %xmm12,%xmm2
    4df9:	66 41 0f 65 d0       	pcmpgtw %xmm8,%xmm2
    4dfe:	66 44 0f fe c9       	paddd  %xmm1,%xmm9
    4e03:	66 0f fa c1          	psubd  %xmm1,%xmm0
    4e07:	66 0f 72 e3 01       	psrad  $0x1,%xmm3
    4e0c:	66 41 0f 72 e1 01    	psrad  $0x1,%xmm9
    4e12:	66 41 0f 6f c8       	movdqa %xmm8,%xmm1
    4e17:	66 0f 72 e0 01       	psrad  $0x1,%xmm0
    4e1c:	66 0f 72 e5 01       	psrad  $0x1,%xmm5
    4e21:	66 0f 61 ca          	punpcklwd %xmm2,%xmm1
    4e25:	66 44 0f 69 c2       	punpckhwd %xmm2,%xmm8
    4e2a:	66 0f 6f d4          	movdqa %xmm4,%xmm2
    4e2e:	66 41 0f 61 d5       	punpcklwd %xmm13,%xmm2
    4e33:	66 41 0f 69 e5       	punpckhwd %xmm13,%xmm4
    4e38:	66 44 0f 6f e9       	movdqa %xmm1,%xmm13
    4e3d:	66 44 0f fe ea       	paddd  %xmm2,%xmm13
    4e42:	66 0f fa ca          	psubd  %xmm2,%xmm1
    4e46:	66 45 0f 6f fd       	movdqa %xmm13,%xmm15
    4e4b:	66 0f 72 e1 01       	psrad  $0x1,%xmm1
    4e50:	66 45 0f 6f e8       	movdqa %xmm8,%xmm13
    4e55:	66 44 0f fe ec       	paddd  %xmm4,%xmm13
    4e5a:	66 41 0f 72 e7 01    	psrad  $0x1,%xmm15
    4e60:	0f 29 4c 24 98       	movaps %xmm1,-0x68(%rsp)
    4e65:	66 44 0f fa c4       	psubd  %xmm4,%xmm8
    4e6a:	66 45 0f 6f f5       	movdqa %xmm13,%xmm14
    4e6f:	66 41 0f 6f cf       	movdqa %xmm15,%xmm1
    4e74:	66 45 0f 6f ea       	movdqa %xmm10,%xmm13
    4e79:	44 0f 29 7c 24 c8    	movaps %xmm15,-0x38(%rsp)
    4e7f:	66 41 0f 72 e6 01    	psrad  $0x1,%xmm14
    4e85:	66 41 0f 72 e0 01    	psrad  $0x1,%xmm8
    4e8b:	66 0f fe cb          	paddd  %xmm3,%xmm1
    4e8f:	66 41 0f 6f d6       	movdqa %xmm14,%xmm2
    4e94:	66 0f 72 e1 01       	psrad  $0x1,%xmm1
    4e99:	44 0f 29 44 24 a8    	movaps %xmm8,-0x58(%rsp)
    4e9f:	66 0f fa 5c 24 c8    	psubd  -0x38(%rsp),%xmm3
    4ea5:	66 41 0f fe d1       	paddd  %xmm9,%xmm2
    4eaa:	66 0f 6f e1          	movdqa %xmm1,%xmm4
    4eae:	44 0f 29 74 24 b8    	movaps %xmm14,-0x48(%rsp)
    4eb4:	66 44 0f fa 4c 24 b8 	psubd  -0x48(%rsp),%xmm9
    4ebb:	66 0f 72 e2 01       	psrad  $0x1,%xmm2
    4ec0:	66 0f 72 e3 01       	psrad  $0x1,%xmm3
    4ec5:	66 0f 61 ca          	punpcklwd %xmm2,%xmm1
    4ec9:	66 41 0f 72 e1 01    	psrad  $0x1,%xmm9
    4ecf:	66 0f 69 e2          	punpckhwd %xmm2,%xmm4
    4ed3:	66 0f 6f d1          	movdqa %xmm1,%xmm2
    4ed7:	66 0f 61 cc          	punpcklwd %xmm4,%xmm1
    4edb:	66 0f 69 d4          	punpckhwd %xmm4,%xmm2
    4edf:	66 41 0f 6f e4       	movdqa %xmm12,%xmm4
    4ee4:	66 41 0f 65 e3       	pcmpgtw %xmm11,%xmm4
    4ee9:	66 0f 61 ca          	punpcklwd %xmm2,%xmm1
    4eed:	66 0f 6f d4          	movdqa %xmm4,%xmm2
    4ef1:	66 41 0f 6f e3       	movdqa %xmm11,%xmm4
    4ef6:	66 0f 61 e2          	punpcklwd %xmm2,%xmm4
    4efa:	66 44 0f 69 da       	punpckhwd %xmm2,%xmm11
    4eff:	66 41 0f 6f d4       	movdqa %xmm12,%xmm2
    4f04:	66 41 0f 65 d2       	pcmpgtw %xmm10,%xmm2
    4f09:	66 45 0f 6f c3       	movdqa %xmm11,%xmm8
    4f0e:	66 44 0f 69 d2       	punpckhwd %xmm2,%xmm10
    4f13:	66 44 0f 61 ea       	punpcklwd %xmm2,%xmm13
    4f18:	66 0f 6f d4          	movdqa %xmm4,%xmm2
    4f1c:	66 45 0f fa da       	psubd  %xmm10,%xmm11
    4f21:	66 45 0f fe c2       	paddd  %xmm10,%xmm8
    4f26:	66 44 0f 6f d7       	movdqa %xmm7,%xmm10
    4f2b:	66 41 0f 72 e3 01    	psrad  $0x1,%xmm11
    4f31:	66 41 0f fa e5       	psubd  %xmm13,%xmm4
    4f36:	66 41 0f fe d5       	paddd  %xmm13,%xmm2
    4f3b:	66 0f 72 e4 01       	psrad  $0x1,%xmm4
    4f40:	66 41 0f 72 e0 01    	psrad  $0x1,%xmm8
    4f46:	66 45 0f 6f fb       	movdqa %xmm11,%xmm15
    4f4b:	66 45 0f 6f dc       	movdqa %xmm12,%xmm11
    4f50:	0f 29 64 24 88       	movaps %xmm4,-0x78(%rsp)
    4f55:	66 0f 6f e6          	movdqa %xmm6,%xmm4
    4f59:	66 44 0f 65 df       	pcmpgtw %xmm7,%xmm11
    4f5e:	66 0f 72 e2 01       	psrad  $0x1,%xmm2
    4f63:	66 45 0f 61 d3       	punpcklwd %xmm11,%xmm10
    4f68:	66 41 0f 69 fb       	punpckhwd %xmm11,%xmm7
    4f6d:	66 45 0f 6f dc       	movdqa %xmm12,%xmm11
    4f72:	66 44 0f 65 de       	pcmpgtw %xmm6,%xmm11
    4f77:	66 41 0f 61 e3       	punpcklwd %xmm11,%xmm4
    4f7c:	66 41 0f 69 f3       	punpckhwd %xmm11,%xmm6
    4f81:	66 44 0f 6f df       	movdqa %xmm7,%xmm11
    4f86:	66 44 0f 6f f4       	movdqa %xmm4,%xmm14
    4f8b:	66 41 0f 6f e2       	movdqa %xmm10,%xmm4
    4f90:	66 44 0f fe de       	paddd  %xmm6,%xmm11
    4f95:	66 41 0f fe e6       	paddd  %xmm14,%xmm4
    4f9a:	66 41 0f 72 e3 01    	psrad  $0x1,%xmm11
    4fa0:	66 0f fa fe          	psubd  %xmm6,%xmm7
    4fa4:	66 44 0f 6f ec       	movdqa %xmm4,%xmm13
    4fa9:	66 41 0f 6f e3       	movdqa %xmm11,%xmm4
    4fae:	66 45 0f fa d6       	psubd  %xmm14,%xmm10
    4fb3:	66 41 0f 72 e5 01    	psrad  $0x1,%xmm13
    4fb9:	66 0f 72 e7 01       	psrad  $0x1,%xmm7
    4fbe:	66 41 0f fe e0       	paddd  %xmm8,%xmm4
    4fc3:	66 41 0f 6f f5       	movdqa %xmm13,%xmm6
    4fc8:	66 44 0f 6f f4       	movdqa %xmm4,%xmm14
    4fcd:	66 45 0f fa c3       	psubd  %xmm11,%xmm8
    4fd2:	66 41 0f 72 e6 01    	psrad  $0x1,%xmm14
    4fd8:	66 41 0f 72 e0 01    	psrad  $0x1,%xmm8
    4fde:	66 0f fe f2          	paddd  %xmm2,%xmm6
    4fe2:	66 0f 72 e6 01       	psrad  $0x1,%xmm6
    4fe7:	66 41 0f 72 e2 01    	psrad  $0x1,%xmm10
    4fed:	66 41 0f fa d5       	psubd  %xmm13,%xmm2
    4ff2:	66 0f 6f e6          	movdqa %xmm6,%xmm4
    4ff6:	66 0f 72 e2 01       	psrad  $0x1,%xmm2
    4ffb:	66 41 0f 61 f6       	punpcklwd %xmm14,%xmm6
    5000:	66 41 0f 69 e6       	punpckhwd %xmm14,%xmm4
    5005:	66 44 0f 6f f6       	movdqa %xmm6,%xmm14
    500a:	66 44 0f 69 f4       	punpckhwd %xmm4,%xmm14
    500f:	66 0f 61 f4          	punpcklwd %xmm4,%xmm6
    5013:	66 0f 6f e3          	movdqa %xmm3,%xmm4
    5017:	66 41 0f 61 d9       	punpcklwd %xmm9,%xmm3
    501c:	66 41 0f 69 e1       	punpckhwd %xmm9,%xmm4
    5021:	66 41 0f 61 f6       	punpcklwd %xmm14,%xmm6
    5026:	66 44 0f 6f 74 24 a8 	movdqa -0x58(%rsp),%xmm14
    502d:	66 44 0f 6f cb       	movdqa %xmm3,%xmm9
    5032:	66 0f 61 dc          	punpcklwd %xmm4,%xmm3
    5036:	66 44 0f 69 cc       	punpckhwd %xmm4,%xmm9
    503b:	66 41 0f 61 d9       	punpcklwd %xmm9,%xmm3
    5040:	66 44 0f 6f ca       	movdqa %xmm2,%xmm9
    5045:	66 41 0f 61 d0       	punpcklwd %xmm8,%xmm2
    504a:	66 45 0f 69 c8       	punpckhwd %xmm8,%xmm9
    504f:	66 0f 6f e2          	movdqa %xmm2,%xmm4
    5053:	66 41 0f 69 e1       	punpckhwd %xmm9,%xmm4
    5058:	66 41 0f 61 d1       	punpcklwd %xmm9,%xmm2
    505d:	66 45 0f 6f ca       	movdqa %xmm10,%xmm9
    5062:	66 0f 61 d4          	punpcklwd %xmm4,%xmm2
    5066:	66 0f 6f e7          	movdqa %xmm7,%xmm4
    506a:	66 44 0f fe cd       	paddd  %xmm5,%xmm9
    506f:	66 0f fe e0          	paddd  %xmm0,%xmm4
    5073:	66 41 0f 72 e1 01    	psrad  $0x1,%xmm9
    5079:	66 41 0f fa ea       	psubd  %xmm10,%xmm5
    507e:	66 44 0f 6f c4       	movdqa %xmm4,%xmm8
    5083:	66 45 0f 6f d9       	movdqa %xmm9,%xmm11
    5088:	66 0f fa c7          	psubd  %xmm7,%xmm0
    508c:	66 41 0f 72 e0 01    	psrad  $0x1,%xmm8
    5092:	66 0f 72 e0 01       	psrad  $0x1,%xmm0
    5097:	66 44 0f 6f d2       	movdqa %xmm2,%xmm10
    509c:	66 45 0f 61 c8       	punpcklwd %xmm8,%xmm9
    50a1:	66 0f 72 e5 01       	psrad  $0x1,%xmm5
    50a6:	66 45 0f 69 d8       	punpckhwd %xmm8,%xmm11
    50ab:	66 41 0f 6f e1       	movdqa %xmm9,%xmm4
    50b0:	66 45 0f 61 cb       	punpcklwd %xmm11,%xmm9
    50b5:	66 0f 6f fd          	movdqa %xmm5,%xmm7
    50b9:	66 41 0f 69 e3       	punpckhwd %xmm11,%xmm4
    50be:	66 45 0f 6f df       	movdqa %xmm15,%xmm11
    50c3:	66 0f 61 e8          	punpcklwd %xmm0,%xmm5
    50c7:	66 44 0f 61 cc       	punpcklwd %xmm4,%xmm9
    50cc:	66 0f 6f 64 24 88    	movdqa -0x78(%rsp),%xmm4
    50d2:	66 0f fa 64 24 98    	psubd  -0x68(%rsp),%xmm4
    50d8:	66 45 0f fa de       	psubd  %xmm14,%xmm11
    50dd:	66 41 0f 72 e3 01    	psrad  $0x1,%xmm11
    50e3:	66 0f 69 f8          	punpckhwd %xmm0,%xmm7
    50e7:	66 0f 6f c5          	movdqa %xmm5,%xmm0
    50eb:	66 44 0f 6f c4       	movdqa %xmm4,%xmm8
    50f0:	66 0f 69 c7          	punpckhwd %xmm7,%xmm0
    50f4:	66 0f 61 ef          	punpcklwd %xmm7,%xmm5
    50f8:	66 41 0f 72 e0 01    	psrad  $0x1,%xmm8
    50fe:	66 0f 61 e8          	punpcklwd %xmm0,%xmm5
    5102:	66 41 0f 6f c6       	movdqa %xmm14,%xmm0
    5107:	66 41 0f 6f e0       	movdqa %xmm8,%xmm4
    510c:	66 45 0f 61 c3       	punpcklwd %xmm11,%xmm8
    5111:	66 41 0f fe c7       	paddd  %xmm15,%xmm0
    5116:	66 41 0f 69 e3       	punpckhwd %xmm11,%xmm4
    511b:	66 0f 72 e0 01       	psrad  $0x1,%xmm0
    5120:	66 45 0f 6f d8       	movdqa %xmm8,%xmm11
    5125:	66 44 0f 69 dc       	punpckhwd %xmm4,%xmm11
    512a:	66 44 0f 61 c4       	punpcklwd %xmm4,%xmm8
    512f:	66 0f 6f 64 24 88    	movdqa -0x78(%rsp),%xmm4
    5135:	66 0f fe 64 24 98    	paddd  -0x68(%rsp),%xmm4
    513b:	66 45 0f 61 c3       	punpcklwd %xmm11,%xmm8
    5140:	66 0f 72 e4 01       	psrad  $0x1,%xmm4
    5145:	66 0f 6f fc          	movdqa %xmm4,%xmm7
    5149:	66 0f 61 e0          	punpcklwd %xmm0,%xmm4
    514d:	66 0f 69 f8          	punpckhwd %xmm0,%xmm7
    5151:	66 0f 6f c4          	movdqa %xmm4,%xmm0
    5155:	66 0f 69 c7          	punpckhwd %xmm7,%xmm0
    5159:	66 0f 61 e7          	punpcklwd %xmm7,%xmm4
    515d:	66 0f 6f f9          	movdqa %xmm1,%xmm7
    5161:	66 0f 61 e0          	punpcklwd %xmm0,%xmm4
    5165:	66 41 0f 61 f9       	punpcklwd %xmm9,%xmm7
    516a:	66 41 0f 69 c9       	punpckhwd %xmm9,%xmm1
    516f:	66 0f 6f c6          	movdqa %xmm6,%xmm0
    5173:	66 44 0f 6f cb       	movdqa %xmm3,%xmm9
    5178:	66 41 0f 69 f0       	punpckhwd %xmm8,%xmm6
    517d:	66 44 0f 61 cd       	punpcklwd %xmm5,%xmm9
    5182:	66 0f 69 dd          	punpckhwd %xmm5,%xmm3
    5186:	66 41 0f 61 c0       	punpcklwd %xmm8,%xmm0
    518b:	66 0f 6f ef          	movdqa %xmm7,%xmm5
    518f:	66 44 0f 6f c7       	movdqa %xmm7,%xmm8
    5194:	66 0f 69 d4          	punpckhwd %xmm4,%xmm2
    5198:	66 44 0f 61 d4       	punpcklwd %xmm4,%xmm10
    519d:	66 45 0f 61 c1       	punpcklwd %xmm9,%xmm8
    51a2:	66 41 0f 69 e9       	punpckhwd %xmm9,%xmm5
    51a7:	66 0f 6f fe          	movdqa %xmm6,%xmm7
    51ab:	66 44 0f 6f c8       	movdqa %xmm0,%xmm9
    51b0:	66 0f 69 f2          	punpckhwd %xmm2,%xmm6
    51b4:	66 0f 61 fa          	punpcklwd %xmm2,%xmm7
    51b8:	66 45 0f 61 ca       	punpcklwd %xmm10,%xmm9
    51bd:	66 41 0f 6f d0       	movdqa %xmm8,%xmm2
    51c2:	66 0f 6f e1          	movdqa %xmm1,%xmm4
    51c6:	66 41 0f 61 d1       	punpcklwd %xmm9,%xmm2
    51cb:	66 41 0f 69 c2       	punpckhwd %xmm10,%xmm0
    51d0:	66 0f 61 e3          	punpcklwd %xmm3,%xmm4
    51d4:	0f 11 50 80          	movups %xmm2,-0x80(%rax)
    51d8:	66 0f 6f d5          	movdqa %xmm5,%xmm2
    51dc:	66 0f 69 e8          	punpckhwd %xmm0,%xmm5
    51e0:	66 0f 61 d0          	punpcklwd %xmm0,%xmm2
    51e4:	66 0f 6f c4          	movdqa %xmm4,%xmm0
    51e8:	66 0f 69 cb          	punpckhwd %xmm3,%xmm1
    51ec:	0f 11 68 b0          	movups %xmm5,-0x50(%rax)
    51f0:	66 0f 61 c7          	punpcklwd %xmm7,%xmm0
    51f4:	66 41 0f 6f d8       	movdqa %xmm8,%xmm3
    51f9:	0f 11 50 a0          	movups %xmm2,-0x60(%rax)
    51fd:	0f 11 40 c0          	movups %xmm0,-0x40(%rax)
    5201:	66 0f 6f c4          	movdqa %xmm4,%xmm0
    5205:	66 41 0f 69 d9       	punpckhwd %xmm9,%xmm3
    520a:	66 0f 69 c7          	punpckhwd %xmm7,%xmm0
    520e:	0f 11 58 90          	movups %xmm3,-0x70(%rax)
    5212:	0f 11 40 d0          	movups %xmm0,-0x30(%rax)
    5216:	66 0f 6f c1          	movdqa %xmm1,%xmm0
    521a:	66 0f 69 ce          	punpckhwd %xmm6,%xmm1
    521e:	66 0f 61 c6          	punpcklwd %xmm6,%xmm0
    5222:	0f 11 48 f0          	movups %xmm1,-0x10(%rax)
    5226:	0f 11 40 e0          	movups %xmm0,-0x20(%rax)
    522a:	48 39 d0             	cmp    %rdx,%rax
    522d:	0f 85 ec f8 ff ff    	jne    4b1f <riscv_dsp_cfft_rd4_q15+0x80f>
    5233:	48 89 ca             	mov    %rcx,%rdx
    5236:	48 83 e2 f8          	and    $0xfffffffffffffff8,%rdx
    523a:	48 89 d0             	mov    %rdx,%rax
    523d:	48 c1 e0 04          	shl    $0x4,%rax
    5241:	48 03 04 24          	add    (%rsp),%rax
    5245:	48 39 ca             	cmp    %rcx,%rdx
    5248:	0f 84 db 00 00 00    	je     5329 <riscv_dsp_cfft_rd4_q15+0x1019>
    524e:	66 90                	xchg   %ax,%ax
    5250:	0f bf 70 08          	movswl 0x8(%rax),%esi
    5254:	0f bf 10             	movswl (%rax),%edx
    5257:	48 83 c0 10          	add    $0x10,%rax
    525b:	0f bf 78 fc          	movswl -0x4(%rax),%edi
    525f:	44 0f bf 48 fa       	movswl -0x6(%rax),%r9d
    5264:	8d 0c 32             	lea    (%rdx,%rsi,1),%ecx
    5267:	29 f2                	sub    %esi,%edx
    5269:	0f bf 70 f4          	movswl -0xc(%rax),%esi
    526d:	0f bf 58 fe          	movswl -0x2(%rax),%ebx
    5271:	d1 f9                	sar    %ecx
    5273:	d1 fa                	sar    %edx
    5275:	44 8d 1c 3e          	lea    (%rsi,%rdi,1),%r11d
    5279:	29 fe                	sub    %edi,%esi
    527b:	0f bf 78 f2          	movswl -0xe(%rax),%edi
    527f:	41 d1 fb             	sar    %r11d
    5282:	d1 fe                	sar    %esi
    5284:	46 8d 04 0f          	lea    (%rdi,%r9,1),%r8d
    5288:	44 29 cf             	sub    %r9d,%edi
    528b:	44 0f bf 48 f6       	movswl -0xa(%rax),%r9d
    5290:	41 d1 f8             	sar    %r8d
    5293:	d1 ff                	sar    %edi
    5295:	45 8d 14 19          	lea    (%r9,%rbx,1),%r10d
    5299:	41 29 d9             	sub    %ebx,%r9d
    529c:	42 8d 1c 19          	lea    (%rcx,%r11,1),%ebx
    52a0:	44 29 d9             	sub    %r11d,%ecx
    52a3:	41 d1 fa             	sar    %r10d
    52a6:	66 0f 6e c3          	movd   %ebx,%xmm0
    52aa:	66 0f 6e c9          	movd   %ecx,%xmm1
    52ae:	41 d1 f9             	sar    %r9d
    52b1:	43 8d 1c 02          	lea    (%r10,%r8,1),%ebx
    52b5:	45 29 d0             	sub    %r10d,%r8d
    52b8:	41 8d 0c 11          	lea    (%r9,%rdx,1),%ecx
    52bc:	44 29 ca             	sub    %r9d,%edx
    52bf:	66 41 0f 6e f0       	movd   %r8d,%xmm6
    52c4:	66 0f 6e d2          	movd   %edx,%xmm2
    52c8:	66 0f 62 ce          	punpckldq %xmm6,%xmm1
    52cc:	66 0f 6e f3          	movd   %ebx,%xmm6
    52d0:	66 0f 62 c6          	punpckldq %xmm6,%xmm0
    52d4:	66 0f 6c c1          	punpcklqdq %xmm1,%xmm0
    52d8:	66 0f 6e c9          	movd   %ecx,%xmm1
    52dc:	89 f9                	mov    %edi,%ecx
    52de:	29 f1                	sub    %esi,%ecx
    52e0:	66 0f 72 e0 01       	psrad  $0x1,%xmm0
    52e5:	01 fe                	add    %edi,%esi
    52e7:	66 0f 6e f6          	movd   %esi,%xmm6
    52eb:	66 0f 62 d6          	punpckldq %xmm6,%xmm2
    52ef:	66 0f 6e f1          	movd   %ecx,%xmm6
    52f3:	66 0f 62 ce          	punpckldq %xmm6,%xmm1
    52f7:	66 0f 6c ca          	punpcklqdq %xmm2,%xmm1
    52fb:	66 0f 6f d0          	movdqa %xmm0,%xmm2
    52ff:	66 0f 72 e1 01       	psrad  $0x1,%xmm1
    5304:	66 0f 61 c1          	punpcklwd %xmm1,%xmm0
    5308:	66 0f 69 d1          	punpckhwd %xmm1,%xmm2
    530c:	66 0f 6f c8          	movdqa %xmm0,%xmm1
    5310:	66 0f 61 c2          	punpcklwd %xmm2,%xmm0
    5314:	66 0f 69 ca          	punpckhwd %xmm2,%xmm1
    5318:	66 0f 61 c1          	punpcklwd %xmm1,%xmm0
    531c:	0f 11 40 f0          	movups %xmm0,-0x10(%rax)
    5320:	48 39 c5             	cmp    %rax,%rbp
    5323:	0f 85 27 ff ff ff    	jne    5250 <riscv_dsp_cfft_rd4_q15+0xf40>
    5329:	0f b6 4c 24 14       	movzbl 0x14(%rsp),%ecx
    532e:	b8 02 00 00 00       	mov    $0x2,%eax
    5333:	48 8b 34 24          	mov    (%rsp),%rsi
    5337:	44 8b 64 24 1c       	mov    0x1c(%rsp),%r12d
    533c:	d3 e0                	shl    %cl,%eax
    533e:	48 8b 4c 24 20       	mov    0x20(%rsp),%rcx
    5343:	48 8d 7c 46 fe       	lea    -0x2(%rsi,%rax,2),%rdi
    5348:	0f b7 46 04          	movzwl 0x4(%rsi),%eax
    534c:	44 89 e3             	mov    %r12d,%ebx
    534f:	0f b7 11             	movzwl (%rcx),%edx
    5352:	66 89 56 04          	mov    %dx,0x4(%rsi)
    5356:	66 89 01             	mov    %ax,(%rcx)
    5359:	43 8d 44 24 01       	lea    0x1(%r12,%r12,1),%eax
    535e:	0f b7 56 06          	movzwl 0x6(%rsi),%edx
    5362:	48 8d 04 46          	lea    (%rsi,%rax,2),%rax
    5366:	0f b7 08             	movzwl (%rax),%ecx
    5369:	66 89 4e 06          	mov    %cx,0x6(%rsi)
    536d:	8b 4c 24 18          	mov    0x18(%rsp),%ecx
    5371:	66 89 10             	mov    %dx,(%rax)
    5374:	44 89 e0             	mov    %r12d,%eax
    5377:	ba 04 00 00 00       	mov    $0x4,%edx
    537c:	41 89 c9             	mov    %ecx,%r9d
    537f:	c1 e9 03             	shr    $0x3,%ecx
    5382:	41 c1 e9 02          	shr    $0x2,%r9d
    5386:	41 89 ca             	mov    %ecx,%r10d
    5389:	44 31 cb             	xor    %r9d,%ebx
    538c:	41 89 db             	mov    %ebx,%r11d
    538f:	89 cb                	mov    %ecx,%ebx
    5391:	b9 04 00 00 00       	mov    $0x4,%ecx
    5396:	44 31 db             	xor    %r11d,%ebx
    5399:	89 5c 24 88          	mov    %ebx,-0x78(%rsp)
    539d:	0f 1f 00             	nopl   (%rax)
    53a0:	44 31 d8             	xor    %r11d,%eax
    53a3:	41 85 c1             	test   %eax,%r9d
    53a6:	75 13                	jne    53bb <riscv_dsp_cfft_rd4_q15+0x10ab>
    53a8:	45 89 c8             	mov    %r9d,%r8d
    53ab:	0f 1f 44 00 00       	nopl   0x0(%rax,%rax,1)
    53b0:	41 d1 e8             	shr    %r8d
    53b3:	44 31 c0             	xor    %r8d,%eax
    53b6:	41 85 c0             	test   %eax,%r8d
    53b9:	74 f5                	je     53b0 <riscv_dsp_cfft_rd4_q15+0x10a0>
    53bb:	44 8d 41 fe          	lea    -0x2(%rcx),%r8d
    53bf:	44 39 c0             	cmp    %r8d,%eax
    53c2:	0f 86 8f 00 00 00    	jbe    5457 <riscv_dsp_cfft_rd4_q15+0x1147>
    53c8:	41 89 d0             	mov    %edx,%r8d
    53cb:	8d 1c 00             	lea    (%rax,%rax,1),%ebx
    53ce:	4e 8d 2c 46          	lea    (%rsi,%r8,2),%r13
    53d2:	49 89 d8             	mov    %rbx,%r8
    53d5:	48 8d 1c 5e          	lea    (%rsi,%rbx,2),%rbx
    53d9:	45 0f b7 75 00       	movzwl 0x0(%r13),%r14d
    53de:	44 0f b7 3b          	movzwl (%rbx),%r15d
    53e2:	41 83 c0 01          	add    $0x1,%r8d
    53e6:	4e 8d 04 46          	lea    (%rsi,%r8,2),%r8
    53ea:	66 45 89 7d 00       	mov    %r15w,0x0(%r13)
    53ef:	66 44 89 33          	mov    %r14w,(%rbx)
    53f3:	8d 5a 01             	lea    0x1(%rdx),%ebx
    53f6:	45 0f b7 30          	movzwl (%r8),%r14d
    53fa:	48 8d 1c 5e          	lea    (%rsi,%rbx,2),%rbx
    53fe:	44 0f b7 2b          	movzwl (%rbx),%r13d
    5402:	66 44 89 33          	mov    %r14w,(%rbx)
    5406:	89 d3                	mov    %edx,%ebx
    5408:	f7 db                	neg    %ebx
    540a:	66 45 89 28          	mov    %r13w,(%r8)
    540e:	41 89 c0             	mov    %eax,%r8d
    5411:	48 63 db             	movslq %ebx,%rbx
    5414:	41 f7 d8             	neg    %r8d
    5417:	48 01 db             	add    %rbx,%rbx
    541a:	45 01 c0             	add    %r8d,%r8d
    541d:	4c 8d 34 1f          	lea    (%rdi,%rbx,1),%r14
    5421:	48 8d 5c 1f fe       	lea    -0x2(%rdi,%rbx,1),%rbx
    5426:	4d 63 c0             	movslq %r8d,%r8
    5429:	45 0f b7 3e          	movzwl (%r14),%r15d
    542d:	4d 01 c0             	add    %r8,%r8
    5430:	4e 8d 2c 07          	lea    (%rdi,%r8,1),%r13
    5434:	4e 8d 44 07 fe       	lea    -0x2(%rdi,%r8,1),%r8
    5439:	41 0f b7 6d 00       	movzwl 0x0(%r13),%ebp
    543e:	66 41 89 2e          	mov    %bp,(%r14)
    5442:	66 45 89 7d 00       	mov    %r15w,0x0(%r13)
    5447:	44 0f b7 2b          	movzwl (%rbx),%r13d
    544b:	45 0f b7 30          	movzwl (%r8),%r14d
    544f:	66 44 89 33          	mov    %r14w,(%rbx)
    5453:	66 45 89 28          	mov    %r13w,(%r8)
    5457:	44 01 e0             	add    %r12d,%eax
    545a:	44 8d 42 02          	lea    0x2(%rdx),%r8d
    545e:	8d 1c 00             	lea    (%rax,%rax,1),%ebx
    5461:	4e 8d 2c 46          	lea    (%rsi,%r8,2),%r13
    5465:	49 89 d8             	mov    %rbx,%r8
    5468:	48 8d 1c 5e          	lea    (%rsi,%rbx,2),%rbx
    546c:	45 0f b7 75 00       	movzwl 0x0(%r13),%r14d
    5471:	44 0f b7 3b          	movzwl (%rbx),%r15d
    5475:	41 83 c0 01          	add    $0x1,%r8d
    5479:	4e 8d 04 46          	lea    (%rsi,%r8,2),%r8
    547d:	66 45 89 7d 00       	mov    %r15w,0x0(%r13)
    5482:	66 44 89 33          	mov    %r14w,(%rbx)
    5486:	8d 5a 03             	lea    0x3(%rdx),%ebx
    5489:	45 0f b7 30          	movzwl (%r8),%r14d
    548d:	48 8d 1c 5e          	lea    (%rsi,%rbx,2),%rbx
    5491:	44 0f b7 2b          	movzwl (%rbx),%r13d
    5495:	66 44 89 33          	mov    %r14w,(%rbx)
    5499:	66 45 89 28          	mov    %r13w,(%r8)
    549d:	41 39 cc             	cmp    %ecx,%r12d
    54a0:	0f 86 71 02 00 00    	jbe    5717 <riscv_dsp_cfft_rd4_q15+0x1407>
    54a6:	33 44 24 88          	xor    -0x78(%rsp),%eax
    54aa:	41 85 c2             	test   %eax,%r10d
    54ad:	75 14                	jne    54c3 <riscv_dsp_cfft_rd4_q15+0x11b3>
    54af:	45 89 d0             	mov    %r10d,%r8d
    54b2:	66 0f 1f 44 00 00    	nopw   0x0(%rax,%rax,1)
    54b8:	41 d1 e8             	shr    %r8d
    54bb:	44 31 c0             	xor    %r8d,%eax
    54be:	41 85 c0             	test   %eax,%r8d
    54c1:	74 f5                	je     54b8 <riscv_dsp_cfft_rd4_q15+0x11a8>
    54c3:	39 c8                	cmp    %ecx,%eax
    54c5:	0f 86 93 00 00 00    	jbe    555e <riscv_dsp_cfft_rd4_q15+0x124e>
    54cb:	44 8d 42 04          	lea    0x4(%rdx),%r8d
    54cf:	8d 1c 00             	lea    (%rax,%rax,1),%ebx
    54d2:	4e 8d 2c 46          	lea    (%rsi,%r8,2),%r13
    54d6:	49 89 d8             	mov    %rbx,%r8
    54d9:	48 8d 1c 5e          	lea    (%rsi,%rbx,2),%rbx
    54dd:	45 0f b7 75 00       	movzwl 0x0(%r13),%r14d
    54e2:	44 0f b7 3b          	movzwl (%rbx),%r15d
    54e6:	41 83 c0 01          	add    $0x1,%r8d
    54ea:	4e 8d 04 46          	lea    (%rsi,%r8,2),%r8
    54ee:	66 45 89 7d 00       	mov    %r15w,0x0(%r13)
    54f3:	66 44 89 33          	mov    %r14w,(%rbx)
    54f7:	8d 5a 05             	lea    0x5(%rdx),%ebx
    54fa:	45 0f b7 30          	movzwl (%r8),%r14d
    54fe:	48 8d 1c 5e          	lea    (%rsi,%rbx,2),%rbx
    5502:	44 0f b7 2b          	movzwl (%rbx),%r13d
    5506:	66 44 89 33          	mov    %r14w,(%rbx)
    550a:	bb fc ff ff ff       	mov    $0xfffffffc,%ebx
    550f:	29 d3                	sub    %edx,%ebx
    5511:	66 45 89 28          	mov    %r13w,(%r8)
    5515:	41 89 c0             	mov    %eax,%r8d
    5518:	48 63 db             	movslq %ebx,%rbx
    551b:	41 f7 d8             	neg    %r8d
    551e:	48 01 db             	add    %rbx,%rbx
    5521:	45 01 c0             	add    %r8d,%r8d
    5524:	4c 8d 34 1f          	lea    (%rdi,%rbx,1),%r14
    5528:	48 8d 5c 1f fe       	lea    -0x2(%rdi,%rbx,1),%rbx
    552d:	4d 63 c0             	movslq %r8d,%r8
    5530:	45 0f b7 3e          	movzwl (%r14),%r15d
    5534:	4d 01 c0             	add    %r8,%r8
    5537:	4e 8d 2c 07          	lea    (%rdi,%r8,1),%r13
    553b:	4e 8d 44 07 fe       	lea    -0x2(%rdi,%r8,1),%r8
    5540:	41 0f b7 6d 00       	movzwl 0x0(%r13),%ebp
    5545:	66 41 89 2e          	mov    %bp,(%r14)
    5549:	66 45 89 7d 00       	mov    %r15w,0x0(%r13)
    554e:	44 0f b7 2b          	movzwl (%rbx),%r13d
    5552:	45 0f b7 30          	movzwl (%r8),%r14d
    5556:	66 44 89 33          	mov    %r14w,(%rbx)
    555a:	66 45 89 28          	mov    %r13w,(%r8)
    555e:	44 01 e0             	add    %r12d,%eax
    5561:	44 8d 42 06          	lea    0x6(%rdx),%r8d
    5565:	83 c1 04             	add    $0x4,%ecx
    5568:	8d 1c 00             	lea    (%rax,%rax,1),%ebx
    556b:	4e 8d 2c 46          	lea    (%rsi,%r8,2),%r13
    556f:	49 89 d8             	mov    %rbx,%r8
    5572:	48 8d 1c 5e          	lea    (%rsi,%rbx,2),%rbx
    5576:	45 0f b7 75 00       	movzwl 0x0(%r13),%r14d
    557b:	44 0f b7 3b          	movzwl (%rbx),%r15d
    557f:	41 83 c0 01          	add    $0x1,%r8d
    5583:	4e 8d 04 46          	lea    (%rsi,%r8,2),%r8
    5587:	66 45 89 7d 00       	mov    %r15w,0x0(%r13)
    558c:	66 44 89 33          	mov    %r14w,(%rbx)
    5590:	8d 5a 07             	lea    0x7(%rdx),%ebx
    5593:	45 0f b7 30          	movzwl (%r8),%r14d
    5597:	83 c2 08             	add    $0x8,%edx
    559a:	48 8d 1c 5e          	lea    (%rsi,%rbx,2),%rbx
    559e:	44 0f b7 2b          	movzwl (%rbx),%r13d
    55a2:	66 44 89 33          	mov    %r14w,(%rbx)
    55a6:	66 45 89 28          	mov    %r13w,(%r8)
    55aa:	e9 f1 fd ff ff       	jmp    53a0 <riscv_dsp_cfft_rd4_q15+0x1090>
    55af:	90                   	nop
    55b0:	8d b1 00 ff ff ff    	lea    -0x100(%rcx),%esi
    55b6:	bf 00 01 00 00       	mov    $0x100,%edi
    55bb:	29 f7                	sub    %esi,%edi
    55bd:	85 ff                	test   %edi,%edi
    55bf:	0f 8e 93 00 00 00    	jle    5658 <riscv_dsp_cfft_rd4_q15+0x1348>
    55c5:	48 8d 0d 18 20 00 00 	lea    0x2018(%rip),%rcx        # 75e4 <riscv_dsp_cos_table_q15_1024+0x4>
    55cc:	48 63 ff             	movslq %edi,%rdi
    55cf:	48 63 f6             	movslq %esi,%rsi
    55d2:	0f b7 3c 79          	movzwl (%rcx,%rdi,2),%edi
    55d6:	0f b7 34 71          	movzwl (%rcx,%rsi,2),%esi
    55da:	f7 df                	neg    %edi
    55dc:	e9 26 f3 ff ff       	jmp    4907 <riscv_dsp_cfft_rd4_q15+0x5f7>
    55e1:	0f 1f 80 00 00 00 00 	nopl   0x0(%rax)
    55e8:	44 8d 81 00 ff ff ff 	lea    -0x100(%rcx),%r8d
    55ef:	41 b9 00 01 00 00    	mov    $0x100,%r9d
    55f5:	45 29 c1             	sub    %r8d,%r9d
    55f8:	45 85 c9             	test   %r9d,%r9d
    55fb:	0f 8e 97 00 00 00    	jle    5698 <riscv_dsp_cfft_rd4_q15+0x1388>
    5601:	48 8d 0d dc 1f 00 00 	lea    0x1fdc(%rip),%rcx        # 75e4 <riscv_dsp_cos_table_q15_1024+0x4>
    5608:	4d 63 c9             	movslq %r9d,%r9
    560b:	4d 63 c0             	movslq %r8d,%r8
    560e:	46 0f b7 24 49       	movzwl (%rcx,%r9,2),%r12d
    5613:	46 0f b7 2c 41       	movzwl (%rcx,%r8,2),%r13d
    5618:	41 f7 dc             	neg    %r12d
    561b:	e9 20 f3 ff ff       	jmp    4940 <riscv_dsp_cfft_rd4_q15+0x630>
    5620:	8d 88 00 ff ff ff    	lea    -0x100(%rax),%ecx
    5626:	ba 00 01 00 00       	mov    $0x100,%edx
    562b:	29 ca                	sub    %ecx,%edx
    562d:	85 d2                	test   %edx,%edx
    562f:	0f 8e ab 00 00 00    	jle    56e0 <riscv_dsp_cfft_rd4_q15+0x13d0>
    5635:	48 8d 05 a8 1f 00 00 	lea    0x1fa8(%rip),%rax        # 75e4 <riscv_dsp_cos_table_q15_1024+0x4>
    563c:	48 63 d2             	movslq %edx,%rdx
    563f:	48 63 c9             	movslq %ecx,%rcx
    5642:	0f b7 14 50          	movzwl (%rax,%rdx,2),%edx
    5646:	0f b7 04 48          	movzwl (%rax,%rcx,2),%eax
    564a:	f7 da                	neg    %edx
    564c:	e9 85 f2 ff ff       	jmp    48d6 <riscv_dsp_cfft_rd4_q15+0x5c6>
    5651:	0f 1f 80 00 00 00 00 	nopl   0x0(%rax)
    5658:	81 e9 00 02 00 00    	sub    $0x200,%ecx
    565e:	41 b8 00 01 00 00    	mov    $0x100,%r8d
    5664:	48 8d 1d 79 1f 00 00 	lea    0x1f79(%rip),%rbx        # 75e4 <riscv_dsp_cos_table_q15_1024+0x4>
    566b:	41 29 c8             	sub    %ecx,%r8d
    566e:	48 63 c9             	movslq %ecx,%rcx
    5671:	49 63 f0             	movslq %r8d,%rsi
    5674:	0f b7 3c 73          	movzwl (%rbx,%rsi,2),%edi
    5678:	0f b7 34 4b          	movzwl (%rbx,%rcx,2),%esi
    567c:	f7 de                	neg    %esi
    567e:	45 85 c0             	test   %r8d,%r8d
    5681:	0f 8e 80 f2 ff ff    	jle    4907 <riscv_dsp_cfft_rd4_q15+0x5f7>
    5687:	f7 df                	neg    %edi
    5689:	89 f9                	mov    %edi,%ecx
    568b:	89 f7                	mov    %esi,%edi
    568d:	89 ce                	mov    %ecx,%esi
    568f:	e9 73 f2 ff ff       	jmp    4907 <riscv_dsp_cfft_rd4_q15+0x5f7>
    5694:	0f 1f 40 00          	nopl   0x0(%rax)
    5698:	81 e9 00 02 00 00    	sub    $0x200,%ecx
    569e:	41 b8 00 01 00 00    	mov    $0x100,%r8d
    56a4:	48 8d 1d 39 1f 00 00 	lea    0x1f39(%rip),%rbx        # 75e4 <riscv_dsp_cos_table_q15_1024+0x4>
    56ab:	41 29 c8             	sub    %ecx,%r8d
    56ae:	48 63 c9             	movslq %ecx,%rcx
    56b1:	44 0f b7 2c 4b       	movzwl (%rbx,%rcx,2),%r13d
    56b6:	4d 63 c8             	movslq %r8d,%r9
    56b9:	46 0f b7 24 4b       	movzwl (%rbx,%r9,2),%r12d
    56be:	41 f7 dd             	neg    %r13d
    56c1:	45 85 c0             	test   %r8d,%r8d
    56c4:	0f 8e 76 f2 ff ff    	jle    4940 <riscv_dsp_cfft_rd4_q15+0x630>
    56ca:	44 89 e1             	mov    %r12d,%ecx
    56cd:	45 89 ec             	mov    %r13d,%r12d
    56d0:	f7 d9                	neg    %ecx
    56d2:	41 89 cd             	mov    %ecx,%r13d
    56d5:	e9 66 f2 ff ff       	jmp    4940 <riscv_dsp_cfft_rd4_q15+0x630>
    56da:	66 0f 1f 44 00 00    	nopw   0x0(%rax,%rax,1)
    56e0:	2d 00 02 00 00       	sub    $0x200,%eax
    56e5:	b9 00 01 00 00       	mov    $0x100,%ecx
    56ea:	48 8d 35 f3 1e 00 00 	lea    0x1ef3(%rip),%rsi        # 75e4 <riscv_dsp_cos_table_q15_1024+0x4>
    56f1:	29 c1                	sub    %eax,%ecx
    56f3:	48 98                	cltq   
    56f5:	0f b7 04 46          	movzwl (%rsi,%rax,2),%eax
    56f9:	48 63 d1             	movslq %ecx,%rdx
    56fc:	0f b7 14 56          	movzwl (%rsi,%rdx,2),%edx
    5700:	f7 d8                	neg    %eax
    5702:	85 c9                	test   %ecx,%ecx
    5704:	0f 8e cc f1 ff ff    	jle    48d6 <riscv_dsp_cfft_rd4_q15+0x5c6>
    570a:	89 d1                	mov    %edx,%ecx
    570c:	89 c2                	mov    %eax,%edx
    570e:	f7 d9                	neg    %ecx
    5710:	89 c8                	mov    %ecx,%eax
    5712:	e9 bf f1 ff ff       	jmp    48d6 <riscv_dsp_cfft_rd4_q15+0x5c6>
    5717:	48 83 c4 30          	add    $0x30,%rsp
    571b:	31 c0                	xor    %eax,%eax
    571d:	5b                   	pop    %rbx
    571e:	5d                   	pop    %rbp
    571f:	41 5c                	pop    %r12
    5721:	41 5d                	pop    %r13
    5723:	41 5e                	pop    %r14
    5725:	41 5f                	pop    %r15
    5727:	c3                   	ret    
    5728:	0f 1f 84 00 00 00 00 	nopl   0x0(%rax,%rax,1)
    572f:	00 

0000000000005730 <riscv_dsp_cifft_rd4_q15>:
    5730:	f3 0f 1e fa          	endbr64 
    5734:	41 57                	push   %r15
    5736:	89 f1                	mov    %esi,%ecx
    5738:	b8 01 00 00 00       	mov    $0x1,%eax
    573d:	41 56                	push   %r14
    573f:	d3 e0                	shl    %cl,%eax
    5741:	49 89 fe             	mov    %rdi,%r14
    5744:	41 55                	push   %r13
    5746:	41 54                	push   %r12
    5748:	55                   	push   %rbp
    5749:	53                   	push   %rbx
    574a:	48 83 ec 30          	sub    $0x30,%rsp
    574e:	89 44 24 18          	mov    %eax,0x18(%rsp)
    5752:	d1 e8                	shr    %eax
    5754:	41 89 c2             	mov    %eax,%r10d
    5757:	48 89 3c 24          	mov    %rdi,(%rsp)
    575b:	4d 01 d2             	add    %r10,%r10
    575e:	89 44 24 1c          	mov    %eax,0x1c(%rsp)
    5762:	0f b7 07             	movzwl (%rdi),%eax
    5765:	4a 8d 1c 17          	lea    (%rdi,%r10,1),%rbx
    5769:	89 74 24 14          	mov    %esi,0x14(%rsp)
    576d:	41 0f b7 76 02       	movzwl 0x2(%r14),%esi
    5772:	4e 8d 2c 13          	lea    (%rbx,%r10,1),%r13
    5776:	49 89 df             	mov    %rbx,%r15
    5779:	48 89 5c 24 a8       	mov    %rbx,-0x58(%rsp)
    577e:	41 0f b7 7d 00       	movzwl 0x0(%r13),%edi
    5783:	4b 8d 4c 15 00       	lea    0x0(%r13,%r10,1),%rcx
    5788:	66 89 74 24 88       	mov    %si,-0x78(%rsp)
    578d:	44 0f b7 09          	movzwl (%rcx),%r9d
    5791:	4c 89 6c 24 20       	mov    %r13,0x20(%rsp)
    5796:	44 8d 04 38          	lea    (%rax,%rdi,1),%r8d
    579a:	29 f8                	sub    %edi,%eax
    579c:	89 c5                	mov    %eax,%ebp
    579e:	0f b7 03             	movzwl (%rbx),%eax
    57a1:	46 8d 1c 08          	lea    (%rax,%r9,1),%r11d
    57a5:	43 8d 14 18          	lea    (%r8,%r11,1),%edx
    57a9:	45 29 d8             	sub    %r11d,%r8d
    57ac:	66 41 89 16          	mov    %dx,(%r14)
    57b0:	41 0f b7 55 02       	movzwl 0x2(%r13),%edx
    57b5:	41 0f b7 7f 02       	movzwl 0x2(%r15),%edi
    57ba:	8d 1c 32             	lea    (%rdx,%rsi,1),%ebx
    57bd:	29 f2                	sub    %esi,%edx
    57bf:	0f b7 71 02          	movzwl 0x2(%rcx),%esi
    57c3:	41 89 d4             	mov    %edx,%r12d
    57c6:	8d 14 1e             	lea    (%rsi,%rbx,1),%edx
    57c9:	01 fa                	add    %edi,%edx
    57cb:	f7 da                	neg    %edx
    57cd:	66 41 89 56 02       	mov    %dx,0x2(%r14)
    57d2:	8d 14 3e             	lea    (%rsi,%rdi,1),%edx
    57d5:	29 da                	sub    %ebx,%edx
    57d7:	66 45 89 07          	mov    %r8w,(%r15)
    57db:	66 41 89 57 02       	mov    %dx,0x2(%r15)
    57e0:	8d 54 35 00          	lea    0x0(%rbp,%rsi,1),%edx
    57e4:	29 fa                	sub    %edi,%edx
    57e6:	66 41 89 55 00       	mov    %dx,0x0(%r13)
    57eb:	43 8d 14 21          	lea    (%r9,%r12,1),%edx
    57ef:	29 c2                	sub    %eax,%edx
    57f1:	44 01 e0             	add    %r12d,%eax
    57f4:	66 41 89 55 02       	mov    %dx,0x2(%r13)
    57f9:	44 29 c8             	sub    %r9d,%eax
    57fc:	8d 54 3d 00          	lea    0x0(%rbp,%rdi,1),%edx
    5800:	66 89 41 02          	mov    %ax,0x2(%rcx)
    5804:	29 f2                	sub    %esi,%edx
    5806:	49 8d 46 04          	lea    0x4(%r14),%rax
    580a:	66 89 11             	mov    %dx,(%rcx)
    580d:	48 89 44 24 08       	mov    %rax,0x8(%rsp)
    5812:	49 39 c7             	cmp    %rax,%r15
    5815:	0f 84 e1 02 00 00    	je     5afc <riscv_dsp_cifft_rd4_q15+0x3cc>
    581b:	48 89 c2             	mov    %rax,%rdx
    581e:	b8 0a 00 00 00       	mov    $0xa,%eax
    5823:	2b 44 24 14          	sub    0x14(%rsp),%eax
    5827:	45 31 ff             	xor    %r15d,%r15d
    582a:	89 c1                	mov    %eax,%ecx
    582c:	48 8b 04 24          	mov    (%rsp),%rax
    5830:	4c 8d 25 ad 1d 00 00 	lea    0x1dad(%rip),%r12        # 75e4 <riscv_dsp_cos_table_q15_1024+0x4>
    5837:	41 be 00 01 00 00    	mov    $0x100,%r14d
    583d:	4e 8d 44 50 04       	lea    0x4(%rax,%r10,2),%r8
    5842:	e9 15 01 00 00       	jmp    595c <riscv_dsp_cifft_rd4_q15+0x22c>
    5847:	48 98                	cltq   
    5849:	48 63 db             	movslq %ebx,%rbx
    584c:	41 0f b7 04 44       	movzwl (%r12,%rax,2),%eax
    5851:	41 0f b7 1c 5c       	movzwl (%r12,%rbx,2),%ebx
    5856:	98                   	cwtl   
    5857:	0f bf db             	movswl %bx,%ebx
    585a:	0f bf f6             	movswl %si,%esi
    585d:	45 0f bf c9          	movswl %r9w,%r9d
    5861:	89 c5                	mov    %eax,%ebp
    5863:	0f af c7             	imul   %edi,%eax
    5866:	41 89 dd             	mov    %ebx,%r13d
    5869:	41 0f af db          	imul   %r11d,%ebx
    586d:	41 0f af eb          	imul   %r11d,%ebp
    5871:	44 0f af ef          	imul   %edi,%r13d
    5875:	0f bf 7c 24 88       	movswl -0x78(%rsp),%edi
    587a:	29 d8                	sub    %ebx,%eax
    587c:	c1 f8 0f             	sar    $0xf,%eax
    587f:	46 8d 1c 0f          	lea    (%rdi,%r9,1),%r11d
    5883:	44 29 cf             	sub    %r9d,%edi
    5886:	45 89 f1             	mov    %r14d,%r9d
    5889:	44 01 ed             	add    %r13d,%ebp
    588c:	66 42 89 44 12 02    	mov    %ax,0x2(%rdx,%r10,1)
    5892:	0f bf 44 24 98       	movswl -0x68(%rsp),%eax
    5897:	c1 fd 0f             	sar    $0xf,%ebp
    589a:	66 42 89 2c 12       	mov    %bp,(%rdx,%r10,1)
    589f:	89 f5                	mov    %esi,%ebp
    58a1:	01 c6                	add    %eax,%esi
    58a3:	29 c5                	sub    %eax,%ebp
    58a5:	44 89 f8             	mov    %r15d,%eax
    58a8:	d3 e0                	shl    %cl,%eax
    58aa:	41 29 c1             	sub    %eax,%r9d
    58ad:	45 85 c9             	test   %r9d,%r9d
    58b0:	0f 8e 78 01 00 00    	jle    5a2e <riscv_dsp_cifft_rd4_q15+0x2fe>
    58b6:	48 98                	cltq   
    58b8:	4d 63 c9             	movslq %r9d,%r9
    58bb:	41 0f b7 04 44       	movzwl (%r12,%rax,2),%eax
    58c0:	47 0f b7 0c 4c       	movzwl (%r12,%r9,2),%r9d
    58c5:	98                   	cwtl   
    58c6:	45 0f bf c9          	movswl %r9w,%r9d
    58ca:	89 c3                	mov    %eax,%ebx
    58cc:	0f af c5             	imul   %ebp,%eax
    58cf:	45 89 cd             	mov    %r9d,%r13d
    58d2:	45 0f af cb          	imul   %r11d,%r9d
    58d6:	41 0f af db          	imul   %r11d,%ebx
    58da:	44 0f af ed          	imul   %ebp,%r13d
    58de:	44 29 c8             	sub    %r9d,%eax
    58e1:	45 89 f1             	mov    %r14d,%r9d
    58e4:	c1 f8 0f             	sar    $0xf,%eax
    58e7:	66 41 89 40 02       	mov    %ax,0x2(%r8)
    58ec:	43 8d 04 7f          	lea    (%r15,%r15,2),%eax
    58f0:	44 01 eb             	add    %r13d,%ebx
    58f3:	d3 e0                	shl    %cl,%eax
    58f5:	c1 fb 0f             	sar    $0xf,%ebx
    58f8:	41 29 c1             	sub    %eax,%r9d
    58fb:	66 41 89 18          	mov    %bx,(%r8)
    58ff:	45 85 c9             	test   %r9d,%r9d
    5902:	0f 8e fd 00 00 00    	jle    5a05 <riscv_dsp_cifft_rd4_q15+0x2d5>
    5908:	48 98                	cltq   
    590a:	4d 63 c9             	movslq %r9d,%r9
    590d:	41 0f b7 04 44       	movzwl (%r12,%rax,2),%eax
    5912:	47 0f b7 0c 4c       	movzwl (%r12,%r9,2),%r9d
    5917:	98                   	cwtl   
    5918:	45 0f bf c9          	movswl %r9w,%r9d
    591c:	48 83 c2 04          	add    $0x4,%rdx
    5920:	49 83 c0 04          	add    $0x4,%r8
    5924:	41 89 c3             	mov    %eax,%r11d
    5927:	0f af c6             	imul   %esi,%eax
    592a:	44 89 cb             	mov    %r9d,%ebx
    592d:	44 0f af df          	imul   %edi,%r11d
    5931:	0f af de             	imul   %esi,%ebx
    5934:	44 0f af cf          	imul   %edi,%r9d
    5938:	41 01 db             	add    %ebx,%r11d
    593b:	44 29 c8             	sub    %r9d,%eax
    593e:	41 c1 fb 0f          	sar    $0xf,%r11d
    5942:	c1 f8 0f             	sar    $0xf,%eax
    5945:	66 47 89 5c 10 fc    	mov    %r11w,-0x4(%r8,%r10,1)
    594b:	66 43 89 44 10 fe    	mov    %ax,-0x2(%r8,%r10,1)
    5951:	48 39 54 24 a8       	cmp    %rdx,-0x58(%rsp)
    5956:	0f 84 a0 01 00 00    	je     5afc <riscv_dsp_cifft_rd4_q15+0x3cc>
    595c:	0f b7 02             	movzwl (%rdx),%eax
    595f:	41 0f b7 30          	movzwl (%r8),%esi
    5963:	41 83 c7 01          	add    $0x1,%r15d
    5967:	42 0f b7 3c 12       	movzwl (%rdx,%r10,1),%edi
    596c:	01 c6                	add    %eax,%esi
    596e:	66 41 2b 00          	sub    (%r8),%ax
    5972:	66 89 44 24 88       	mov    %ax,-0x78(%rsp)
    5977:	43 0f b7 04 10       	movzwl (%r8,%r10,1),%eax
    597c:	44 0f bf de          	movswl %si,%r11d
    5980:	01 f8                	add    %edi,%eax
    5982:	66 43 2b 3c 10       	sub    (%r8,%r10,1),%di
    5987:	66 89 7c 24 98       	mov    %di,-0x68(%rsp)
    598c:	8d 3c 06             	lea    (%rsi,%rax,1),%edi
    598f:	98                   	cwtl   
    5990:	66 89 3a             	mov    %di,(%rdx)
    5993:	0f b7 7a 02          	movzwl 0x2(%rdx),%edi
    5997:	41 29 c3             	sub    %eax,%r11d
    599a:	41 0f b7 70 02       	movzwl 0x2(%r8),%esi
    599f:	47 0f b7 4c 10 02    	movzwl 0x2(%r8,%r10,1),%r9d
    59a5:	42 0f b7 44 12 02    	movzwl 0x2(%rdx,%r10,1),%eax
    59ab:	01 f7                	add    %esi,%edi
    59ad:	66 2b 72 02          	sub    0x2(%rdx),%si
    59b1:	f7 df                	neg    %edi
    59b3:	44 01 c8             	add    %r9d,%eax
    59b6:	66 46 2b 4c 12 02    	sub    0x2(%rdx,%r10,1),%r9w
    59bc:	89 fb                	mov    %edi,%ebx
    59be:	0f bf ff             	movswl %di,%edi
    59c1:	29 c3                	sub    %eax,%ebx
    59c3:	f7 d8                	neg    %eax
