
t_rfft_f32_4:     file format elf64-x86-64


Disassembly of section .init:

0000000000001000 <_init>:
    1000:	f3 0f 1e fa          	endbr64 
    1004:	48 83 ec 08          	sub    $0x8,%rsp
    1008:	48 8b 05 d9 7f 00 00 	mov    0x7fd9(%rip),%rax        # 8fe8 <__gmon_start__@Base>
    100f:	48 85 c0             	test   %rax,%rax
    1012:	74 02                	je     1016 <_init+0x16>
    1014:	ff d0                	call   *%rax
    1016:	48 83 c4 08          	add    $0x8,%rsp
    101a:	c3                   	ret    

Disassembly of section .plt:

0000000000001020 <.plt>:
    1020:	ff 35 5a 7f 00 00    	push   0x7f5a(%rip)        # 8f80 <_GLOBAL_OFFSET_TABLE_+0x8>
    1026:	f2 ff 25 5b 7f 00 00 	bnd jmp *0x7f5b(%rip)        # 8f88 <_GLOBAL_OFFSET_TABLE_+0x10>
    102d:	0f 1f 00             	nopl   (%rax)
    1030:	f3 0f 1e fa          	endbr64 
    1034:	68 00 00 00 00       	push   $0x0
    1039:	f2 e9 e1 ff ff ff    	bnd jmp 1020 <_init+0x20>
    103f:	90                   	nop
    1040:	f3 0f 1e fa          	endbr64 
    1044:	68 01 00 00 00       	push   $0x1
    1049:	f2 e9 d1 ff ff ff    	bnd jmp 1020 <_init+0x20>
    104f:	90                   	nop
    1050:	f3 0f 1e fa          	endbr64 
    1054:	68 02 00 00 00       	push   $0x2
    1059:	f2 e9 c1 ff ff ff    	bnd jmp 1020 <_init+0x20>
    105f:	90                   	nop
    1060:	f3 0f 1e fa          	endbr64 
    1064:	68 03 00 00 00       	push   $0x3
    1069:	f2 e9 b1 ff ff ff    	bnd jmp 1020 <_init+0x20>
    106f:	90                   	nop
    1070:	f3 0f 1e fa          	endbr64 
    1074:	68 04 00 00 00       	push   $0x4
    1079:	f2 e9 a1 ff ff ff    	bnd jmp 1020 <_init+0x20>
    107f:	90                   	nop
    1080:	f3 0f 1e fa          	endbr64 
    1084:	68 05 00 00 00       	push   $0x5
    1089:	f2 e9 91 ff ff ff    	bnd jmp 1020 <_init+0x20>
    108f:	90                   	nop
    1090:	f3 0f 1e fa          	endbr64 
    1094:	68 06 00 00 00       	push   $0x6
    1099:	f2 e9 81 ff ff ff    	bnd jmp 1020 <_init+0x20>
    109f:	90                   	nop
    10a0:	f3 0f 1e fa          	endbr64 
    10a4:	68 07 00 00 00       	push   $0x7
    10a9:	f2 e9 71 ff ff ff    	bnd jmp 1020 <_init+0x20>
    10af:	90                   	nop
    10b0:	f3 0f 1e fa          	endbr64 
    10b4:	68 08 00 00 00       	push   $0x8
    10b9:	f2 e9 61 ff ff ff    	bnd jmp 1020 <_init+0x20>
    10bf:	90                   	nop

Disassembly of section .plt.got:

00000000000010c0 <__cxa_finalize@plt>:
    10c0:	f3 0f 1e fa          	endbr64 
    10c4:	f2 ff 25 2d 7f 00 00 	bnd jmp *0x7f2d(%rip)        # 8ff8 <__cxa_finalize@GLIBC_2.2.5>
    10cb:	0f 1f 44 00 00       	nopl   0x0(%rax,%rax,1)

Disassembly of section .plt.sec:

00000000000010d0 <puts@plt>:
    10d0:	f3 0f 1e fa          	endbr64 
    10d4:	f2 ff 25 b5 7e 00 00 	bnd jmp *0x7eb5(%rip)        # 8f90 <puts@GLIBC_2.2.5>
    10db:	0f 1f 44 00 00       	nopl   0x0(%rax,%rax,1)

00000000000010e0 <fread@plt>:
    10e0:	f3 0f 1e fa          	endbr64 
    10e4:	f2 ff 25 ad 7e 00 00 	bnd jmp *0x7ead(%rip)        # 8f98 <fread@GLIBC_2.2.5>
    10eb:	0f 1f 44 00 00       	nopl   0x0(%rax,%rax,1)

00000000000010f0 <fclose@plt>:
    10f0:	f3 0f 1e fa          	endbr64 
    10f4:	f2 ff 25 a5 7e 00 00 	bnd jmp *0x7ea5(%rip)        # 8fa0 <fclose@GLIBC_2.2.5>
    10fb:	0f 1f 44 00 00       	nopl   0x0(%rax,%rax,1)

0000000000001100 <__stack_chk_fail@plt>:
    1100:	f3 0f 1e fa          	endbr64 
    1104:	f2 ff 25 9d 7e 00 00 	bnd jmp *0x7e9d(%rip)        # 8fa8 <__stack_chk_fail@GLIBC_2.4>
    110b:	0f 1f 44 00 00       	nopl   0x0(%rax,%rax,1)

0000000000001110 <log10f@plt>:
    1110:	f3 0f 1e fa          	endbr64 
    1114:	f2 ff 25 95 7e 00 00 	bnd jmp *0x7e95(%rip)        # 8fb0 <log10f@GLIBC_2.2.5>
    111b:	0f 1f 44 00 00       	nopl   0x0(%rax,%rax,1)

0000000000001120 <__printf_chk@plt>:
    1120:	f3 0f 1e fa          	endbr64 
    1124:	f2 ff 25 8d 7e 00 00 	bnd jmp *0x7e8d(%rip)        # 8fb8 <__printf_chk@GLIBC_2.3.4>
    112b:	0f 1f 44 00 00       	nopl   0x0(%rax,%rax,1)

0000000000001130 <fopen@plt>:
    1130:	f3 0f 1e fa          	endbr64 
    1134:	f2 ff 25 85 7e 00 00 	bnd jmp *0x7e85(%rip)        # 8fc0 <fopen@GLIBC_2.2.5>
    113b:	0f 1f 44 00 00       	nopl   0x0(%rax,%rax,1)

0000000000001140 <sqrt@plt>:
    1140:	f3 0f 1e fa          	endbr64 
    1144:	f2 ff 25 7d 7e 00 00 	bnd jmp *0x7e7d(%rip)        # 8fc8 <sqrt@GLIBC_2.2.5>
    114b:	0f 1f 44 00 00       	nopl   0x0(%rax,%rax,1)

0000000000001150 <__sprintf_chk@plt>:
    1150:	f3 0f 1e fa          	endbr64 
    1154:	f2 ff 25 75 7e 00 00 	bnd jmp *0x7e75(%rip)        # 8fd0 <__sprintf_chk@GLIBC_2.3.4>
    115b:	0f 1f 44 00 00       	nopl   0x0(%rax,%rax,1)

Disassembly of section .text:

0000000000001160 <main>:
    1160:	f3 0f 1e fa          	endbr64 
    1164:	55                   	push   %rbp
    1165:	ba 10 00 00 00       	mov    $0x10,%edx
    116a:	48 8d 3d d1 4f 00 00 	lea    0x4fd1(%rip),%rdi        # 6142 <_IO_stdin_used+0x142>
    1171:	48 8d 2d 08 7f 00 00 	lea    0x7f08(%rip),%rbp        # 9080 <golden>
    1178:	53                   	push   %rbx
    1179:	48 8d 1d 80 7f 00 00 	lea    0x7f80(%rip),%rbx        # 9100 <src>
    1180:	48 89 de             	mov    %rbx,%rsi
    1183:	48 83 ec 28          	sub    $0x28,%rsp
    1187:	e8 a4 05 00 00       	call   1730 <read_write_buffer.constprop.0>
    118c:	48 8d 3d bd 4e 00 00 	lea    0x4ebd(%rip),%rdi        # 6050 <_IO_stdin_used+0x50>
    1193:	e8 38 ff ff ff       	call   10d0 <puts@plt>
    1198:	ba 10 00 00 00       	mov    $0x10,%edx
    119d:	48 8d 35 ab 4f 00 00 	lea    0x4fab(%rip),%rsi        # 614f <_IO_stdin_used+0x14f>
    11a4:	31 c0                	xor    %eax,%eax
    11a6:	bf 01 00 00 00       	mov    $0x1,%edi
    11ab:	e8 70 ff ff ff       	call   1120 <__printf_chk@plt>
    11b0:	be 04 00 00 00       	mov    $0x4,%esi
    11b5:	48 89 df             	mov    %rbx,%rdi
    11b8:	e8 e3 05 00 00       	call   17a0 <riscv_dsp_rfft_f32>
    11bd:	ba 11 00 00 00       	mov    $0x11,%edx
    11c2:	48 89 ee             	mov    %rbp,%rsi
    11c5:	48 8d 3d 95 4f 00 00 	lea    0x4f95(%rip),%rdi        # 6161 <_IO_stdin_used+0x161>
    11cc:	e8 5f 05 00 00       	call   1730 <read_write_buffer.constprop.0>
    11d1:	f3 0f 10 0d 27 7f 00 	movss  0x7f27(%rip),%xmm1        # 9100 <src>
    11d8:	00 
    11d9:	f3 0f 5c 0d 9f 7e 00 	subss  0x7e9f(%rip),%xmm1        # 9080 <golden>
    11e0:	00 
    11e1:	f3 0f 10 25 c7 4f 00 	movss  0x4fc7(%rip),%xmm4        # 61b0 <_IO_stdin_used+0x1b0>
    11e8:	00 
    11e9:	66 0f ef ff          	pxor   %xmm7,%xmm7
    11ed:	f3 0f 10 15 cb 7e 00 	movss  0x7ecb(%rip),%xmm2        # 90c0 <golden+0x40>
    11f4:	00 
    11f5:	f3 0f 10 05 07 7f 00 	movss  0x7f07(%rip),%xmm0        # 9104 <src+0x4>
    11fc:	00 
    11fd:	48 8d 35 73 4f 00 00 	lea    0x4f73(%rip),%rsi        # 6177 <_IO_stdin_used+0x177>
    1204:	bf 01 00 00 00       	mov    $0x1,%edi
    1209:	b8 01 00 00 00       	mov    $0x1,%eax
    120e:	0f 54 cc             	andps  %xmm4,%xmm1
    1211:	f3 0f 5c c2          	subss  %xmm2,%xmm0
    1215:	f3 0f 11 15 67 7e 00 	movss  %xmm2,0x7e67(%rip)        # 9084 <golden+0x4>
    121c:	00 
    121d:	f3 0f 5f cf          	maxss  %xmm7,%xmm1
    1221:	0f 54 c4             	andps  %xmm4,%xmm0
    1224:	f3 0f 5f c1          	maxss  %xmm1,%xmm0
    1228:	f3 0f 10 0d d8 7e 00 	movss  0x7ed8(%rip),%xmm1        # 9108 <src+0x8>
    122f:	00 
    1230:	f3 0f 5c 0d 50 7e 00 	subss  0x7e50(%rip),%xmm1        # 9088 <golden+0x8>
    1237:	00 
    1238:	0f 54 cc             	andps  %xmm4,%xmm1
    123b:	f3 0f 5f c8          	maxss  %xmm0,%xmm1
    123f:	f3 0f 10 05 c5 7e 00 	movss  0x7ec5(%rip),%xmm0        # 910c <src+0xc>
    1246:	00 
    1247:	f3 0f 5c 05 3d 7e 00 	subss  0x7e3d(%rip),%xmm0        # 908c <golden+0xc>
    124e:	00 
    124f:	0f 54 c4             	andps  %xmm4,%xmm0
    1252:	f3 0f 5f c1          	maxss  %xmm1,%xmm0
    1256:	f3 0f 10 0d b2 7e 00 	movss  0x7eb2(%rip),%xmm1        # 9110 <src+0x10>
    125d:	00 
    125e:	f3 0f 5c 0d 2a 7e 00 	subss  0x7e2a(%rip),%xmm1        # 9090 <golden+0x10>
    1265:	00 
    1266:	0f 54 cc             	andps  %xmm4,%xmm1
    1269:	f3 0f 5f c8          	maxss  %xmm0,%xmm1
    126d:	f3 0f 10 05 9f 7e 00 	movss  0x7e9f(%rip),%xmm0        # 9114 <src+0x14>
    1274:	00 
    1275:	f3 0f 5c 05 17 7e 00 	subss  0x7e17(%rip),%xmm0        # 9094 <golden+0x14>
    127c:	00 
    127d:	0f 54 c4             	andps  %xmm4,%xmm0
    1280:	f3 0f 5f c1          	maxss  %xmm1,%xmm0
    1284:	f3 0f 10 0d 8c 7e 00 	movss  0x7e8c(%rip),%xmm1        # 9118 <src+0x18>
    128b:	00 
    128c:	f3 0f 5c 0d 04 7e 00 	subss  0x7e04(%rip),%xmm1        # 9098 <golden+0x18>
    1293:	00 
    1294:	0f 54 cc             	andps  %xmm4,%xmm1
    1297:	f3 0f 5f c8          	maxss  %xmm0,%xmm1
    129b:	f3 0f 10 05 79 7e 00 	movss  0x7e79(%rip),%xmm0        # 911c <src+0x1c>
    12a2:	00 
    12a3:	f3 0f 5c 05 f1 7d 00 	subss  0x7df1(%rip),%xmm0        # 909c <golden+0x1c>
    12aa:	00 
    12ab:	0f 54 c4             	andps  %xmm4,%xmm0
    12ae:	f3 0f 5f c1          	maxss  %xmm1,%xmm0
    12b2:	f3 0f 10 0d 66 7e 00 	movss  0x7e66(%rip),%xmm1        # 9120 <src+0x20>
    12b9:	00 
    12ba:	f3 0f 5c 0d de 7d 00 	subss  0x7dde(%rip),%xmm1        # 90a0 <golden+0x20>
    12c1:	00 
    12c2:	0f 54 cc             	andps  %xmm4,%xmm1
    12c5:	f3 0f 5f c8          	maxss  %xmm0,%xmm1
    12c9:	f3 0f 10 05 53 7e 00 	movss  0x7e53(%rip),%xmm0        # 9124 <src+0x24>
    12d0:	00 
    12d1:	f3 0f 5c 05 cb 7d 00 	subss  0x7dcb(%rip),%xmm0        # 90a4 <golden+0x24>
    12d8:	00 
    12d9:	0f 54 c4             	andps  %xmm4,%xmm0
    12dc:	f3 0f 5f c1          	maxss  %xmm1,%xmm0
    12e0:	f3 0f 10 0d 40 7e 00 	movss  0x7e40(%rip),%xmm1        # 9128 <src+0x28>
    12e7:	00 
    12e8:	f3 0f 5c 0d b8 7d 00 	subss  0x7db8(%rip),%xmm1        # 90a8 <golden+0x28>
    12ef:	00 
    12f0:	0f 54 cc             	andps  %xmm4,%xmm1
    12f3:	f3 0f 5f c8          	maxss  %xmm0,%xmm1
    12f7:	f3 0f 10 05 2d 7e 00 	movss  0x7e2d(%rip),%xmm0        # 912c <src+0x2c>
    12fe:	00 
    12ff:	f3 0f 5c 05 a5 7d 00 	subss  0x7da5(%rip),%xmm0        # 90ac <golden+0x2c>
    1306:	00 
    1307:	0f 54 c4             	andps  %xmm4,%xmm0
    130a:	f3 0f 5f c1          	maxss  %xmm1,%xmm0
    130e:	f3 0f 10 0d 1a 7e 00 	movss  0x7e1a(%rip),%xmm1        # 9130 <src+0x30>
    1315:	00 
    1316:	f3 0f 5c 0d 92 7d 00 	subss  0x7d92(%rip),%xmm1        # 90b0 <golden+0x30>
    131d:	00 
    131e:	0f 54 cc             	andps  %xmm4,%xmm1
    1321:	f3 0f 5f c8          	maxss  %xmm0,%xmm1
    1325:	f3 0f 10 05 07 7e 00 	movss  0x7e07(%rip),%xmm0        # 9134 <src+0x34>
    132c:	00 
    132d:	f3 0f 5c 05 7f 7d 00 	subss  0x7d7f(%rip),%xmm0        # 90b4 <golden+0x34>
    1334:	00 
    1335:	0f 54 c4             	andps  %xmm4,%xmm0
    1338:	f3 0f 5f c1          	maxss  %xmm1,%xmm0
    133c:	f3 0f 10 0d f4 7d 00 	movss  0x7df4(%rip),%xmm1        # 9138 <src+0x38>
    1343:	00 
    1344:	f3 0f 5c 0d 6c 7d 00 	subss  0x7d6c(%rip),%xmm1        # 90b8 <golden+0x38>
    134b:	00 
    134c:	0f 54 cc             	andps  %xmm4,%xmm1
    134f:	f3 0f 5f c8          	maxss  %xmm0,%xmm1
    1353:	f3 0f 10 05 e1 7d 00 	movss  0x7de1(%rip),%xmm0        # 913c <src+0x3c>
    135a:	00 
    135b:	f3 0f 5c 05 59 7d 00 	subss  0x7d59(%rip),%xmm0        # 90bc <golden+0x3c>
    1362:	00 
    1363:	0f 54 c4             	andps  %xmm4,%xmm0
    1366:	f3 0f 5f c1          	maxss  %xmm1,%xmm0
    136a:	f3 0f 5a c0          	cvtss2sd %xmm0,%xmm0
    136e:	e8 ad fd ff ff       	call   1120 <__printf_chk@plt>
    1373:	66 0f ef db          	pxor   %xmm3,%xmm3
    1377:	66 0f ef ff          	pxor   %xmm7,%xmm7
    137b:	66 0f 28 f7          	movapd %xmm7,%xmm6
    137f:	0f 28 c3             	movaps %xmm3,%xmm0
    1382:	44 0f 28 c3          	movaps %xmm3,%xmm8
    1386:	48 89 ea             	mov    %rbp,%rdx
    1389:	44 0f 28 cb          	movaps %xmm3,%xmm9
    138d:	48 89 d8             	mov    %rbx,%rax
    1390:	48 8d 4b 40          	lea    0x40(%rbx),%rcx
    1394:	f3 0f 10 25 14 4e 00 	movss  0x4e14(%rip),%xmm4        # 61b0 <_IO_stdin_used+0x1b0>
    139b:	00 
    139c:	0f 1f 40 00          	nopl   0x0(%rax)
    13a0:	f3 0f 10 08          	movss  (%rax),%xmm1
    13a4:	48 83 c0 04          	add    $0x4,%rax
    13a8:	48 83 c2 04          	add    $0x4,%rdx
    13ac:	f3 0f 10 52 fc       	movss  -0x4(%rdx),%xmm2
    13b1:	66 0f 7e cb          	movd   %xmm1,%ebx
    13b5:	81 fb 00 00 c0 7f    	cmp    $0x7fc00000,%ebx
    13bb:	0f 84 69 01 00 00    	je     152a <main+0x3ca>
    13c1:	0f 28 ea             	movaps %xmm2,%xmm5
    13c4:	f3 0f 5c ca          	subss  %xmm2,%xmm1
    13c8:	f3 41 0f 5f e9       	maxss  %xmm9,%xmm5
    13cd:	44 0f 28 cd          	movaps %xmm5,%xmm9
    13d1:	0f 28 ea             	movaps %xmm2,%xmm5
    13d4:	f3 41 0f 5d e8       	minss  %xmm8,%xmm5
    13d9:	f3 0f 59 d2          	mulss  %xmm2,%xmm2
    13dd:	44 0f 28 c5          	movaps %xmm5,%xmm8
    13e1:	0f 28 e9             	movaps %xmm1,%xmm5
    13e4:	f3 0f 59 c9          	mulss  %xmm1,%xmm1
    13e8:	0f 54 ec             	andps  %xmm4,%xmm5
    13eb:	f3 0f 58 c5          	addss  %xmm5,%xmm0
    13ef:	f3 0f 5f eb          	maxss  %xmm3,%xmm5
    13f3:	f3 0f 5a d2          	cvtss2sd %xmm2,%xmm2
    13f7:	f2 0f 58 fa          	addsd  %xmm2,%xmm7
    13fb:	0f 28 dd             	movaps %xmm5,%xmm3
    13fe:	f3 0f 5a c9          	cvtss2sd %xmm1,%xmm1
    1402:	f2 0f 58 f1          	addsd  %xmm1,%xmm6
    1406:	48 39 c8             	cmp    %rcx,%rax
    1409:	75 95                	jne    13a0 <main+0x240>
    140b:	66 48 0f 7e f0       	movq   %xmm6,%rax
    1410:	f3 0f 11 6c 24 14    	movss  %xmm5,0x14(%rsp)
    1416:	f3 44 0f 11 44 24 10 	movss  %xmm8,0x10(%rsp)
    141d:	f3 44 0f 11 4c 24 0c 	movss  %xmm9,0xc(%rsp)
    1424:	f2 0f 11 3c 24       	movsd  %xmm7,(%rsp)
    1429:	3d 00 00 c0 7f       	cmp    $0x7fc00000,%eax
    142e:	0f 84 f6 00 00 00    	je     152a <main+0x3ca>
    1434:	f3 0f 59 05 68 4d 00 	mulss  0x4d68(%rip),%xmm0        # 61a4 <_IO_stdin_used+0x1a4>
    143b:	00 
    143c:	f2 0f 11 74 24 18    	movsd  %xmm6,0x18(%rsp)
    1442:	66 0f 7e c3          	movd   %xmm0,%ebx
    1446:	66 0f 28 c6          	movapd %xmm6,%xmm0
    144a:	f2 0f 59 05 6e 4d 00 	mulsd  0x4d6e(%rip),%xmm0        # 61c0 <_IO_stdin_used+0x1c0>
    1451:	00 
    1452:	e8 e9 fc ff ff       	call   1140 <sqrt@plt>
    1457:	f3 44 0f 10 4c 24 0c 	movss  0xc(%rsp),%xmm9
    145e:	f3 44 0f 10 44 24 10 	movss  0x10(%rsp),%xmm8
    1465:	66 0f ef c9          	pxor   %xmm1,%xmm1
    1469:	f2 0f 5a c8          	cvtsd2ss %xmm0,%xmm1
    146d:	0f 28 f1             	movaps %xmm1,%xmm6
    1470:	66 0f ef ff          	pxor   %xmm7,%xmm7
    1474:	f3 0f 10 5c 24 14    	movss  0x14(%rsp),%xmm3
    147a:	41 0f 28 c1          	movaps %xmm9,%xmm0
    147e:	f3 41 0f 5c c0       	subss  %xmm8,%xmm0
    1483:	f3 0f 5e f0          	divss  %xmm0,%xmm6
    1487:	66 0f 7e f5          	movd   %xmm6,%ebp
    148b:	f2 0f 10 74 24 18    	movsd  0x18(%rsp),%xmm6
    1491:	66 0f 2e f7          	ucomisd %xmm7,%xmm6
    1495:	f2 0f 10 3c 24       	movsd  (%rsp),%xmm7
    149a:	0f 8a ab 00 00 00    	jp     154b <main+0x3eb>
    14a0:	f3 0f 10 25 f8 4c 00 	movss  0x4cf8(%rip),%xmm4        # 61a0 <_IO_stdin_used+0x1a0>
    14a7:	00 
    14a8:	0f 85 9d 00 00 00    	jne    154b <main+0x3eb>
    14ae:	48 8d 3d d5 4c 00 00 	lea    0x4cd5(%rip),%rdi        # 618a <_IO_stdin_used+0x18a>
    14b5:	f3 0f 11 5c 24 10    	movss  %xmm3,0x10(%rsp)
    14bb:	f3 0f 11 24 24       	movss  %xmm4,(%rsp)
    14c0:	f3 0f 11 4c 24 0c    	movss  %xmm1,0xc(%rsp)
    14c6:	e8 05 fc ff ff       	call   10d0 <puts@plt>
    14cb:	f3 0f 10 24 24       	movss  (%rsp),%xmm4
    14d0:	f3 0f 10 5c 24 10    	movss  0x10(%rsp),%xmm3
    14d6:	66 0f 6e f5          	movd   %ebp,%xmm6
    14da:	f3 0f 10 4c 24 0c    	movss  0xc(%rsp),%xmm1
    14e0:	66 0f ef d2          	pxor   %xmm2,%xmm2
    14e4:	66 0f ef c0          	pxor   %xmm0,%xmm0
    14e8:	48 8d 35 89 4b 00 00 	lea    0x4b89(%rip),%rsi        # 6078 <_IO_stdin_used+0x78>
    14ef:	f3 0f 5a d6          	cvtss2sd %xmm6,%xmm2
    14f3:	66 0f 6e f3          	movd   %ebx,%xmm6
    14f7:	f3 0f 5a e4          	cvtss2sd %xmm4,%xmm4
    14fb:	f3 0f 5a db          	cvtss2sd %xmm3,%xmm3
    14ff:	bf 01 00 00 00       	mov    $0x1,%edi
    1504:	b8 05 00 00 00       	mov    $0x5,%eax
    1509:	f3 0f 5a c6          	cvtss2sd %xmm6,%xmm0
    150d:	f3 0f 5a c9          	cvtss2sd %xmm1,%xmm1
    1511:	f2 0f 11 14 24       	movsd  %xmm2,(%rsp)
    1516:	e8 05 fc ff ff       	call   1120 <__printf_chk@plt>
    151b:	f2 0f 10 14 24       	movsd  (%rsp),%xmm2
    1520:	66 0f 2f 15 a0 4c 00 	comisd 0x4ca0(%rip),%xmm2        # 61c8 <_IO_stdin_used+0x1c8>
    1527:	00 
    1528:	77 59                	ja     1583 <main+0x423>
    152a:	ba 10 00 00 00       	mov    $0x10,%edx
    152f:	48 8d 35 c2 4b 00 00 	lea    0x4bc2(%rip),%rsi        # 60f8 <_IO_stdin_used+0xf8>
    1536:	bf 01 00 00 00       	mov    $0x1,%edi
    153b:	31 c0                	xor    %eax,%eax
    153d:	e8 de fb ff ff       	call   1120 <__printf_chk@plt>
    1542:	31 c0                	xor    %eax,%eax
    1544:	48 83 c4 28          	add    $0x28,%rsp
    1548:	5b                   	pop    %rbx
    1549:	5d                   	pop    %rbp
    154a:	c3                   	ret    
    154b:	f2 0f 5e fe          	divsd  %xmm6,%xmm7
    154f:	66 0f ef c0          	pxor   %xmm0,%xmm0
    1553:	f3 0f 11 5c 24 0c    	movss  %xmm3,0xc(%rsp)
    1559:	f3 0f 11 0c 24       	movss  %xmm1,(%rsp)
    155e:	f2 0f 5a c7          	cvtsd2ss %xmm7,%xmm0
    1562:	e8 a9 fb ff ff       	call   1110 <log10f@plt>
    1567:	f3 0f 10 5c 24 0c    	movss  0xc(%rsp),%xmm3
    156d:	f3 0f 10 25 33 4c 00 	movss  0x4c33(%rip),%xmm4        # 61a8 <_IO_stdin_used+0x1a8>
    1574:	00 
    1575:	f3 0f 10 0c 24       	movss  (%rsp),%xmm1
    157a:	f3 0f 59 e0          	mulss  %xmm0,%xmm4
    157e:	e9 2b ff ff ff       	jmp    14ae <main+0x34e>
    1583:	ba 10 00 00 00       	mov    $0x10,%edx
    1588:	48 8d 35 41 4b 00 00 	lea    0x4b41(%rip),%rsi        # 60d0 <_IO_stdin_used+0xd0>
    158f:	bf 01 00 00 00       	mov    $0x1,%edi
    1594:	31 c0                	xor    %eax,%eax
    1596:	e8 85 fb ff ff       	call   1120 <__printf_chk@plt>
    159b:	83 c8 ff             	or     $0xffffffff,%eax
    159e:	eb a4                	jmp    1544 <main+0x3e4>

00000000000015a0 <_start>:
    15a0:	f3 0f 1e fa          	endbr64 
    15a4:	31 ed                	xor    %ebp,%ebp
    15a6:	49 89 d1             	mov    %rdx,%r9
    15a9:	5e                   	pop    %rsi
    15aa:	48 89 e2             	mov    %rsp,%rdx
    15ad:	48 83 e4 f0          	and    $0xfffffffffffffff0,%rsp
    15b1:	50                   	push   %rax
    15b2:	54                   	push   %rsp
    15b3:	45 31 c0             	xor    %r8d,%r8d
    15b6:	31 c9                	xor    %ecx,%ecx
    15b8:	48 8d 3d a1 fb ff ff 	lea    -0x45f(%rip),%rdi        # 1160 <main>
    15bf:	ff 15 13 7a 00 00    	call   *0x7a13(%rip)        # 8fd8 <__libc_start_main@GLIBC_2.34>
    15c5:	f4                   	hlt    
    15c6:	66 2e 0f 1f 84 00 00 	cs nopw 0x0(%rax,%rax,1)
    15cd:	00 00 00 

00000000000015d0 <deregister_tm_clones>:
    15d0:	48 8d 3d 39 7a 00 00 	lea    0x7a39(%rip),%rdi        # 9010 <__TMC_END__>
    15d7:	48 8d 05 32 7a 00 00 	lea    0x7a32(%rip),%rax        # 9010 <__TMC_END__>
    15de:	48 39 f8             	cmp    %rdi,%rax
    15e1:	74 15                	je     15f8 <deregister_tm_clones+0x28>
    15e3:	48 8b 05 f6 79 00 00 	mov    0x79f6(%rip),%rax        # 8fe0 <_ITM_deregisterTMCloneTable@Base>
    15ea:	48 85 c0             	test   %rax,%rax
    15ed:	74 09                	je     15f8 <deregister_tm_clones+0x28>
    15ef:	ff e0                	jmp    *%rax
    15f1:	0f 1f 80 00 00 00 00 	nopl   0x0(%rax)
    15f8:	c3                   	ret    
    15f9:	0f 1f 80 00 00 00 00 	nopl   0x0(%rax)

0000000000001600 <register_tm_clones>:
    1600:	48 8d 3d 09 7a 00 00 	lea    0x7a09(%rip),%rdi        # 9010 <__TMC_END__>
    1607:	48 8d 35 02 7a 00 00 	lea    0x7a02(%rip),%rsi        # 9010 <__TMC_END__>
    160e:	48 29 fe             	sub    %rdi,%rsi
    1611:	48 89 f0             	mov    %rsi,%rax
    1614:	48 c1 ee 3f          	shr    $0x3f,%rsi
    1618:	48 c1 f8 03          	sar    $0x3,%rax
    161c:	48 01 c6             	add    %rax,%rsi
    161f:	48 d1 fe             	sar    %rsi
    1622:	74 14                	je     1638 <register_tm_clones+0x38>
    1624:	48 8b 05 c5 79 00 00 	mov    0x79c5(%rip),%rax        # 8ff0 <_ITM_registerTMCloneTable@Base>
    162b:	48 85 c0             	test   %rax,%rax
    162e:	74 08                	je     1638 <register_tm_clones+0x38>
    1630:	ff e0                	jmp    *%rax
    1632:	66 0f 1f 44 00 00    	nopw   0x0(%rax,%rax,1)
    1638:	c3                   	ret    
    1639:	0f 1f 80 00 00 00 00 	nopl   0x0(%rax)

0000000000001640 <__do_global_dtors_aux>:
    1640:	f3 0f 1e fa          	endbr64 
    1644:	80 3d f5 79 00 00 00 	cmpb   $0x0,0x79f5(%rip)        # 9040 <completed.0>
    164b:	75 2b                	jne    1678 <__do_global_dtors_aux+0x38>
    164d:	55                   	push   %rbp
    164e:	48 83 3d a2 79 00 00 	cmpq   $0x0,0x79a2(%rip)        # 8ff8 <__cxa_finalize@GLIBC_2.2.5>
    1655:	00 
    1656:	48 89 e5             	mov    %rsp,%rbp
    1659:	74 0c                	je     1667 <__do_global_dtors_aux+0x27>
    165b:	48 8b 3d a6 79 00 00 	mov    0x79a6(%rip),%rdi        # 9008 <__dso_handle>
    1662:	e8 59 fa ff ff       	call   10c0 <__cxa_finalize@plt>
    1667:	e8 64 ff ff ff       	call   15d0 <deregister_tm_clones>
    166c:	c6 05 cd 79 00 00 01 	movb   $0x1,0x79cd(%rip)        # 9040 <completed.0>
    1673:	5d                   	pop    %rbp
    1674:	c3                   	ret    
    1675:	0f 1f 00             	nopl   (%rax)
    1678:	c3                   	ret    
    1679:	0f 1f 80 00 00 00 00 	nopl   0x0(%rax)

0000000000001680 <frame_dummy>:
    1680:	f3 0f 1e fa          	endbr64 
    1684:	e9 77 ff ff ff       	jmp    1600 <register_tm_clones>
    1689:	0f 1f 80 00 00 00 00 	nopl   0x0(%rax)

0000000000001690 <test_Fopen.constprop.0.isra.0>:
    1690:	41 54                	push   %r12
    1692:	49 89 f9             	mov    %rdi,%r9
    1695:	49 89 fc             	mov    %rdi,%r12
    1698:	4c 8d 05 69 49 00 00 	lea    0x4969(%rip),%r8        # 6008 <_IO_stdin_used+0x8>
    169f:	55                   	push   %rbp
    16a0:	48 8d 0d 79 4a 00 00 	lea    0x4a79(%rip),%rcx        # 6120 <_IO_stdin_used+0x120>
    16a7:	ba 00 04 00 00       	mov    $0x400,%edx
    16ac:	53                   	push   %rbx
    16ad:	48 89 f3             	mov    %rsi,%rbx
    16b0:	be 01 00 00 00       	mov    $0x1,%esi
    16b5:	48 81 ec 10 04 00 00 	sub    $0x410,%rsp
    16bc:	64 48 8b 04 25 28 00 	mov    %fs:0x28,%rax
    16c3:	00 00 
    16c5:	48 89 84 24 08 04 00 	mov    %rax,0x408(%rsp)
    16cc:	00 
    16cd:	31 c0                	xor    %eax,%eax
    16cf:	48 89 e5             	mov    %rsp,%rbp
    16d2:	48 89 ef             	mov    %rbp,%rdi
    16d5:	e8 76 fa ff ff       	call   1150 <__sprintf_chk@plt>
    16da:	48 8d 35 45 4a 00 00 	lea    0x4a45(%rip),%rsi        # 6126 <_IO_stdin_used+0x126>
    16e1:	48 89 ef             	mov    %rbp,%rdi
    16e4:	e8 47 fa ff ff       	call   1130 <fopen@plt>
    16e9:	48 89 03             	mov    %rax,(%rbx)
    16ec:	48 85 c0             	test   %rax,%rax
    16ef:	74 1f                	je     1710 <test_Fopen.constprop.0.isra.0+0x80>
    16f1:	48 8b 84 24 08 04 00 	mov    0x408(%rsp),%rax
    16f8:	00 
    16f9:	64 48 2b 04 25 28 00 	sub    %fs:0x28,%rax
    1700:	00 00 
    1702:	75 22                	jne    1726 <test_Fopen.constprop.0.isra.0+0x96>
    1704:	48 81 c4 10 04 00 00 	add    $0x410,%rsp
    170b:	5b                   	pop    %rbx
    170c:	5d                   	pop    %rbp
    170d:	41 5c                	pop    %r12
    170f:	c3                   	ret    
    1710:	4c 89 e2             	mov    %r12,%rdx
    1713:	48 8d 35 0f 4a 00 00 	lea    0x4a0f(%rip),%rsi        # 6129 <_IO_stdin_used+0x129>
    171a:	bf 01 00 00 00       	mov    $0x1,%edi
    171f:	e8 fc f9 ff ff       	call   1120 <__printf_chk@plt>
    1724:	eb cb                	jmp    16f1 <test_Fopen.constprop.0.isra.0+0x61>
    1726:	e8 d5 f9 ff ff       	call   1100 <__stack_chk_fail@plt>
    172b:	0f 1f 44 00 00       	nopl   0x0(%rax,%rax,1)

0000000000001730 <read_write_buffer.constprop.0>:
    1730:	41 54                	push   %r12
    1732:	55                   	push   %rbp
    1733:	48 89 f5             	mov    %rsi,%rbp
    1736:	53                   	push   %rbx
    1737:	89 d3                	mov    %edx,%ebx
    1739:	48 83 ec 10          	sub    $0x10,%rsp
    173d:	64 48 8b 04 25 28 00 	mov    %fs:0x28,%rax
    1744:	00 00 
    1746:	48 89 44 24 08       	mov    %rax,0x8(%rsp)
    174b:	31 c0                	xor    %eax,%eax
    174d:	48 89 e6             	mov    %rsp,%rsi
    1750:	48 c7 04 24 00 00 00 	movq   $0x0,(%rsp)
    1757:	00 
    1758:	e8 33 ff ff ff       	call   1690 <test_Fopen.constprop.0.isra.0>
    175d:	4c 8b 24 24          	mov    (%rsp),%r12
    1761:	89 da                	mov    %ebx,%edx
    1763:	be 04 00 00 00       	mov    $0x4,%esi
    1768:	48 89 ef             	mov    %rbp,%rdi
    176b:	4c 89 e1             	mov    %r12,%rcx
    176e:	e8 6d f9 ff ff       	call   10e0 <fread@plt>
    1773:	48 8b 44 24 08       	mov    0x8(%rsp),%rax
    1778:	64 48 2b 04 25 28 00 	sub    %fs:0x28,%rax
    177f:	00 00 
    1781:	75 10                	jne    1793 <read_write_buffer.constprop.0+0x63>
    1783:	48 83 c4 10          	add    $0x10,%rsp
    1787:	4c 89 e7             	mov    %r12,%rdi
    178a:	5b                   	pop    %rbx
    178b:	5d                   	pop    %rbp
    178c:	41 5c                	pop    %r12
    178e:	e9 5d f9 ff ff       	jmp    10f0 <fclose@plt>
    1793:	e8 68 f9 ff ff       	call   1100 <__stack_chk_fail@plt>
    1798:	0f 1f 84 00 00 00 00 	nopl   0x0(%rax,%rax,1)
    179f:	00 

00000000000017a0 <riscv_dsp_rfft_f32>:
    17a0:	f3 0f 1e fa          	endbr64 
    17a4:	55                   	push   %rbp
    17a5:	89 f5                	mov    %esi,%ebp
    17a7:	83 ee 01             	sub    $0x1,%esi
    17aa:	53                   	push   %rbx
    17ab:	48 89 fb             	mov    %rdi,%rbx
    17ae:	48 83 ec 08          	sub    $0x8,%rsp
    17b2:	e8 b9 03 00 00       	call   1b70 <riscv_dsp_cfft_f32>
    17b7:	ba 01 00 00 00       	mov    $0x1,%edx
    17bc:	89 e9                	mov    %ebp,%ecx
    17be:	d3 e2                	shl    %cl,%edx
    17c0:	c1 ea 02             	shr    $0x2,%edx
    17c3:	0f 84 bf 01 00 00    	je     1988 <riscv_dsp_rfft_f32+0x1e8>
    17c9:	44 8d 1c 12          	lea    (%rdx,%rdx,1),%r11d
    17cd:	b9 0a 00 00 00       	mov    $0xa,%ecx
    17d2:	f3 44 0f 7e 0d 05 4a 	movq   0x4a05(%rip),%xmm9        # 61e0 <_IO_stdin_used+0x1e0>
    17d9:	00 00 
    17db:	f3 0f 10 25 fd 49 00 	movss  0x49fd(%rip),%xmm4        # 61e0 <_IO_stdin_used+0x1e0>
    17e2:	00 
    17e3:	29 e9                	sub    %ebp,%ecx
    17e5:	4c 89 de             	mov    %r11,%rsi
    17e8:	4a 8d 04 9b          	lea    (%rbx,%r11,4),%rax
    17ec:	41 b9 00 01 00 00    	mov    $0x100,%r9d
    17f2:	4c 8d 05 2f 52 00 00 	lea    0x522f(%rip),%r8        # 6a28 <riscv_dsp_cos_table_f32_1024+0x8>
    17f9:	f3 0f 10 2d cf 49 00 	movss  0x49cf(%rip),%xmm5        # 61d0 <_IO_stdin_used+0x1d0>
    1800:	00 
    1801:	e9 00 01 00 00       	jmp    1906 <riscv_dsp_rfft_f32+0x166>
    1806:	66 2e 0f 1f 84 00 00 	cs nopw 0x0(%rax,%rax,1)
    180d:	00 00 00 
    1810:	48 63 ff             	movslq %edi,%rdi
    1813:	4d 63 d2             	movslq %r10d,%r10
    1816:	f3 45 0f 10 04 b8    	movss  (%r8,%rdi,4),%xmm8
    181c:	f3 43 0f 10 3c 90    	movss  (%r8,%r10,4),%xmm7
    1822:	4a 8d 3c 9b          	lea    (%rbx,%r11,4),%rdi
    1826:	f3 0f 7e 00          	movq   (%rax),%xmm0
    182a:	44 8d 56 01          	lea    0x1(%rsi),%r10d
    182e:	0f 28 df             	movaps %xmm7,%xmm3
    1831:	f3 0f 7e 0f          	movq   (%rdi),%xmm1
    1835:	0f c6 db e0          	shufps $0xe0,%xmm3,%xmm3
    1839:	f3 44 0f 10 10       	movss  (%rax),%xmm10
    183e:	83 c6 02             	add    $0x2,%esi
    1841:	f3 44 0f 5c 17       	subss  (%rdi),%xmm10
    1846:	48 83 e8 08          	sub    $0x8,%rax
    184a:	0f 28 d1             	movaps %xmm1,%xmm2
    184d:	0f 58 d0             	addps  %xmm0,%xmm2
    1850:	0f 5c c1             	subps  %xmm1,%xmm0
    1853:	0f 28 ca             	movaps %xmm2,%xmm1
    1856:	f3 0f 10 c8          	movss  %xmm0,%xmm1
    185a:	f3 0f 10 c2          	movss  %xmm2,%xmm0
    185e:	41 0f 28 d2          	movaps %xmm10,%xmm2
    1862:	41 0f 59 c9          	mulps  %xmm9,%xmm1
    1866:	41 0f 59 c1          	mulps  %xmm9,%xmm0
    186a:	f3 0f 59 d4          	mulss  %xmm4,%xmm2
    186e:	0f 59 cb             	mulps  %xmm3,%xmm1
    1871:	f3 42 0f 10 1c 93    	movss  (%rbx,%r10,4),%xmm3
    1877:	f3 0f 58 58 0c       	addss  0xc(%rax),%xmm3
    187c:	0f 28 f3             	movaps %xmm3,%xmm6
    187f:	f3 0f 59 dc          	mulss  %xmm4,%xmm3
    1883:	41 0f 14 f2          	unpcklps %xmm10,%xmm6
    1887:	45 0f 28 d0          	movaps %xmm8,%xmm10
    188b:	41 0f 59 f1          	mulps  %xmm9,%xmm6
    188f:	45 0f c6 d2 e0       	shufps $0xe0,%xmm10,%xmm10
    1894:	41 0f 59 f2          	mulps  %xmm10,%xmm6
    1898:	44 0f 28 d6          	movaps %xmm6,%xmm10
    189c:	44 0f 5c d1          	subps  %xmm1,%xmm10
    18a0:	0f 58 ce             	addps  %xmm6,%xmm1
    18a3:	0f 28 f0             	movaps %xmm0,%xmm6
    18a6:	f3 41 0f 10 ca       	movss  %xmm10,%xmm1
    18ab:	44 0f 28 d1          	movaps %xmm1,%xmm10
    18af:	0f 5c f1             	subps  %xmm1,%xmm6
    18b2:	0f 28 c8             	movaps %xmm0,%xmm1
    18b5:	44 0f 58 d0          	addps  %xmm0,%xmm10
    18b9:	0f c6 c0 e5          	shufps $0xe5,%xmm0,%xmm0
    18bd:	f3 41 0f 10 f2       	movss  %xmm10,%xmm6
    18c2:	44 0f 28 d2          	movaps %xmm2,%xmm10
    18c6:	0f 13 70 08          	movlps %xmm6,0x8(%rax)
    18ca:	f3 41 0f 59 d0       	mulss  %xmm8,%xmm2
    18cf:	0f 28 f3             	movaps %xmm3,%xmm6
    18d2:	f3 0f 59 df          	mulss  %xmm7,%xmm3
    18d6:	f3 41 0f 59 f0       	mulss  %xmm8,%xmm6
    18db:	f3 44 0f 59 d7       	mulss  %xmm7,%xmm10
    18e0:	f3 0f 58 d3          	addss  %xmm3,%xmm2
    18e4:	f3 41 0f 5c f2       	subss  %xmm10,%xmm6
    18e9:	0f 57 d5             	xorps  %xmm5,%xmm2
    18ec:	f3 0f 5c d0          	subss  %xmm0,%xmm2
    18f0:	f3 0f 5c ce          	subss  %xmm6,%xmm1
    18f4:	0f 14 ca             	unpcklps %xmm2,%xmm1
    18f7:	0f 13 0f             	movlps %xmm1,(%rdi)
    18fa:	83 ea 01             	sub    $0x1,%edx
    18fd:	0f 84 85 00 00 00    	je     1988 <riscv_dsp_rfft_f32+0x1e8>
    1903:	41 89 f3             	mov    %esi,%r11d
    1906:	89 d7                	mov    %edx,%edi
    1908:	45 89 ca             	mov    %r9d,%r10d
    190b:	d3 e7                	shl    %cl,%edi
    190d:	41 29 fa             	sub    %edi,%r10d
    1910:	45 85 d2             	test   %r10d,%r10d
    1913:	0f 8f f7 fe ff ff    	jg     1810 <riscv_dsp_rfft_f32+0x70>
    1919:	44 8d 97 00 ff ff ff 	lea    -0x100(%rdi),%r10d
    1920:	44 89 cd             	mov    %r9d,%ebp
    1923:	44 29 d5             	sub    %r10d,%ebp
    1926:	85 ed                	test   %ebp,%ebp
    1928:	7e 1e                	jle    1948 <riscv_dsp_rfft_f32+0x1a8>
    192a:	48 63 ed             	movslq %ebp,%rbp
    192d:	4d 63 d2             	movslq %r10d,%r10
    1930:	f3 45 0f 10 04 a8    	movss  (%r8,%rbp,4),%xmm8
    1936:	f3 43 0f 10 3c 90    	movss  (%r8,%r10,4),%xmm7
    193c:	44 0f 57 c5          	xorps  %xmm5,%xmm8
    1940:	e9 dd fe ff ff       	jmp    1822 <riscv_dsp_rfft_f32+0x82>
    1945:	0f 1f 00             	nopl   (%rax)
    1948:	81 ef 00 02 00 00    	sub    $0x200,%edi
    194e:	45 89 ca             	mov    %r9d,%r10d
    1951:	41 29 fa             	sub    %edi,%r10d
    1954:	48 63 ff             	movslq %edi,%rdi
    1957:	f3 41 0f 10 3c b8    	movss  (%r8,%rdi,4),%xmm7
    195d:	49 63 ea             	movslq %r10d,%rbp
    1960:	f3 45 0f 10 04 a8    	movss  (%r8,%rbp,4),%xmm8
    1966:	0f 57 fd             	xorps  %xmm5,%xmm7
    1969:	45 85 d2             	test   %r10d,%r10d
    196c:	0f 8e b0 fe ff ff    	jle    1822 <riscv_dsp_rfft_f32+0x82>
    1972:	41 0f 28 c0          	movaps %xmm8,%xmm0
    1976:	44 0f 28 c7          	movaps %xmm7,%xmm8
    197a:	0f 57 c5             	xorps  %xmm5,%xmm0
    197d:	0f 28 f8             	movaps %xmm0,%xmm7
    1980:	e9 9d fe ff ff       	jmp    1822 <riscv_dsp_rfft_f32+0x82>
    1985:	0f 1f 00             	nopl   (%rax)
    1988:	f3 0f 7e 0b          	movq   (%rbx),%xmm1
    198c:	31 c0                	xor    %eax,%eax
    198e:	0f 28 c1             	movaps %xmm1,%xmm0
    1991:	0f c6 c0 e1          	shufps $0xe1,%xmm0,%xmm0
    1995:	0f 28 d0             	movaps %xmm0,%xmm2
    1998:	0f 5c c1             	subps  %xmm1,%xmm0
    199b:	0f 58 d1             	addps  %xmm1,%xmm2
    199e:	f3 0f 10 c2          	movss  %xmm2,%xmm0
    19a2:	0f 13 03             	movlps %xmm0,(%rbx)
    19a5:	48 83 c4 08          	add    $0x8,%rsp
    19a9:	5b                   	pop    %rbx
    19aa:	5d                   	pop    %rbp
    19ab:	c3                   	ret    
    19ac:	0f 1f 40 00          	nopl   0x0(%rax)

00000000000019b0 <riscv_dsp_rifft_f32>:
    19b0:	f3 0f 1e fa          	endbr64 
    19b4:	ba 01 00 00 00       	mov    $0x1,%edx
    19b9:	89 f1                	mov    %esi,%ecx
    19bb:	41 54                	push   %r12
    19bd:	49 89 f8             	mov    %rdi,%r8
    19c0:	f3 0f 7e 2d 18 48 00 	movq   0x4818(%rip),%xmm5        # 61e0 <_IO_stdin_used+0x1e0>
    19c7:	00 
    19c8:	d3 e2                	shl    %cl,%edx
    19ca:	55                   	push   %rbp
    19cb:	41 89 f3             	mov    %esi,%r11d
    19ce:	c1 ea 02             	shr    $0x2,%edx
    19d1:	53                   	push   %rbx
    19d2:	0f 84 60 01 00 00    	je     1b38 <riscv_dsp_rifft_f32+0x188>
    19d8:	8d 1c 12             	lea    (%rdx,%rdx,1),%ebx
    19db:	b9 0a 00 00 00       	mov    $0xa,%ecx
    19e0:	f3 0f 10 15 e8 47 00 	movss  0x47e8(%rip),%xmm2        # 61d0 <_IO_stdin_used+0x1d0>
    19e7:	00 
    19e8:	f3 0f 7e 2d f0 47 00 	movq   0x47f0(%rip),%xmm5        # 61e0 <_IO_stdin_used+0x1e0>
    19ef:	00 
    19f0:	29 f1                	sub    %esi,%ecx
    19f2:	48 8d 04 9f          	lea    (%rdi,%rbx,4),%rax
    19f6:	48 89 de             	mov    %rbx,%rsi
    19f9:	41 ba 00 01 00 00    	mov    $0x100,%r10d
    19ff:	4c 8d 0d 22 50 00 00 	lea    0x5022(%rip),%r9        # 6a28 <riscv_dsp_cos_table_f32_1024+0x8>
    1a06:	0f 28 da             	movaps %xmm2,%xmm3
    1a09:	e9 a8 00 00 00       	jmp    1ab6 <riscv_dsp_rifft_f32+0x106>
    1a0e:	66 90                	xchg   %ax,%ax
    1a10:	48 63 ff             	movslq %edi,%rdi
    1a13:	48 63 ed             	movslq %ebp,%rbp
    1a16:	f3 41 0f 10 34 b9    	movss  (%r9,%rdi,4),%xmm6
    1a1c:	f3 41 0f 10 3c a9    	movss  (%r9,%rbp,4),%xmm7
    1a22:	49 8d 3c 98          	lea    (%r8,%rbx,4),%rdi
    1a26:	f3 0f 7e 20          	movq   (%rax),%xmm4
    1a2a:	8d 5e 01             	lea    0x1(%rsi),%ebx
    1a2d:	0f c6 ff e0          	shufps $0xe0,%xmm7,%xmm7
    1a31:	f3 0f 7e 07          	movq   (%rdi),%xmm0
    1a35:	0f c6 f6 e0          	shufps $0xe0,%xmm6,%xmm6
    1a39:	48 83 e8 08          	sub    $0x8,%rax
    1a3d:	83 c6 02             	add    $0x2,%esi
    1a40:	0f 28 cc             	movaps %xmm4,%xmm1
    1a43:	0f 5c c8             	subps  %xmm0,%xmm1
    1a46:	0f 58 c4             	addps  %xmm4,%xmm0
    1a49:	0f 28 e1             	movaps %xmm1,%xmm4
    1a4c:	f3 0f 10 e0          	movss  %xmm0,%xmm4
    1a50:	f3 0f 10 c1          	movss  %xmm1,%xmm0
    1a54:	0f 59 e5             	mulps  %xmm5,%xmm4
    1a57:	0f 28 c8             	movaps %xmm0,%xmm1
    1a5a:	f3 41 0f 10 04 98    	movss  (%r8,%rbx,4),%xmm0
    1a60:	f3 0f 58 40 0c       	addss  0xc(%rax),%xmm0
    1a65:	0f 59 cd             	mulps  %xmm5,%xmm1
    1a68:	0f 59 cf             	mulps  %xmm7,%xmm1
    1a6b:	f3 0f 10 78 08       	movss  0x8(%rax),%xmm7
    1a70:	f3 0f 5c 3f          	subss  (%rdi),%xmm7
    1a74:	0f 14 c7             	unpcklps %xmm7,%xmm0
    1a77:	0f 28 fc             	movaps %xmm4,%xmm7
    1a7a:	0f 59 c5             	mulps  %xmm5,%xmm0
    1a7d:	0f 59 c6             	mulps  %xmm6,%xmm0
    1a80:	0f 28 f1             	movaps %xmm1,%xmm6
    1a83:	0f 58 f0             	addps  %xmm0,%xmm6
    1a86:	0f 5c c1             	subps  %xmm1,%xmm0
    1a89:	0f 28 cc             	movaps %xmm4,%xmm1
    1a8c:	f3 0f 10 c6          	movss  %xmm6,%xmm0
    1a90:	0f 58 c8             	addps  %xmm0,%xmm1
    1a93:	0f 5c f8             	subps  %xmm0,%xmm7
    1a96:	0f 5c c4             	subps  %xmm4,%xmm0
    1a99:	0f 28 f1             	movaps %xmm1,%xmm6
    1a9c:	f3 0f 10 f7          	movss  %xmm7,%xmm6
    1aa0:	f3 0f 10 c1          	movss  %xmm1,%xmm0
    1aa4:	0f 13 70 08          	movlps %xmm6,0x8(%rax)
    1aa8:	0f 13 07             	movlps %xmm0,(%rdi)
    1aab:	83 ea 01             	sub    $0x1,%edx
    1aae:	0f 84 84 00 00 00    	je     1b38 <riscv_dsp_rifft_f32+0x188>
    1ab4:	89 f3                	mov    %esi,%ebx
    1ab6:	89 d7                	mov    %edx,%edi
    1ab8:	44 89 d5             	mov    %r10d,%ebp
    1abb:	d3 e7                	shl    %cl,%edi
    1abd:	29 fd                	sub    %edi,%ebp
    1abf:	85 ed                	test   %ebp,%ebp
    1ac1:	0f 8f 49 ff ff ff    	jg     1a10 <riscv_dsp_rifft_f32+0x60>
    1ac7:	8d af 00 ff ff ff    	lea    -0x100(%rdi),%ebp
    1acd:	45 89 d4             	mov    %r10d,%r12d
    1ad0:	41 29 ec             	sub    %ebp,%r12d
    1ad3:	45 85 e4             	test   %r12d,%r12d
    1ad6:	7e 20                	jle    1af8 <riscv_dsp_rifft_f32+0x148>
    1ad8:	4d 63 e4             	movslq %r12d,%r12
    1adb:	48 63 ed             	movslq %ebp,%rbp
    1ade:	f3 43 0f 10 34 a1    	movss  (%r9,%r12,4),%xmm6
    1ae4:	f3 41 0f 10 3c a9    	movss  (%r9,%rbp,4),%xmm7
    1aea:	0f 57 f3             	xorps  %xmm3,%xmm6
    1aed:	e9 30 ff ff ff       	jmp    1a22 <riscv_dsp_rifft_f32+0x72>
    1af2:	66 0f 1f 44 00 00    	nopw   0x0(%rax,%rax,1)
    1af8:	81 ef 00 02 00 00    	sub    $0x200,%edi
    1afe:	44 89 d5             	mov    %r10d,%ebp
    1b01:	29 fd                	sub    %edi,%ebp
    1b03:	48 63 ff             	movslq %edi,%rdi
    1b06:	f3 41 0f 10 3c b9    	movss  (%r9,%rdi,4),%xmm7
    1b0c:	4c 63 e5             	movslq %ebp,%r12
    1b0f:	f3 43 0f 10 34 a1    	movss  (%r9,%r12,4),%xmm6
    1b15:	0f 57 fa             	xorps  %xmm2,%xmm7
    1b18:	85 ed                	test   %ebp,%ebp
    1b1a:	0f 8e 02 ff ff ff    	jle    1a22 <riscv_dsp_rifft_f32+0x72>
    1b20:	0f 57 f2             	xorps  %xmm2,%xmm6
    1b23:	0f 28 c6             	movaps %xmm6,%xmm0
    1b26:	0f 28 f7             	movaps %xmm7,%xmm6
    1b29:	0f 28 f8             	movaps %xmm0,%xmm7
    1b2c:	e9 f1 fe ff ff       	jmp    1a22 <riscv_dsp_rifft_f32+0x72>
    1b31:	0f 1f 80 00 00 00 00 	nopl   0x0(%rax)
    1b38:	f3 41 0f 7e 08       	movq   (%r8),%xmm1
    1b3d:	41 8d 73 ff          	lea    -0x1(%r11),%esi
    1b41:	4c 89 c7             	mov    %r8,%rdi
    1b44:	0f 28 c1             	movaps %xmm1,%xmm0
    1b47:	0f c6 c0 e1          	shufps $0xe1,%xmm0,%xmm0
    1b4b:	0f 28 d0             	movaps %xmm0,%xmm2
    1b4e:	0f 5c c1             	subps  %xmm1,%xmm0
    1b51:	0f 58 d1             	addps  %xmm1,%xmm2
    1b54:	f3 0f 10 c2          	movss  %xmm2,%xmm0
    1b58:	0f 59 c5             	mulps  %xmm5,%xmm0
    1b5b:	41 0f 13 00          	movlps %xmm0,(%r8)
    1b5f:	e8 3c 00 00 00       	call   1ba0 <riscv_dsp_cifft_f32>
    1b64:	5b                   	pop    %rbx
    1b65:	31 c0                	xor    %eax,%eax
    1b67:	5d                   	pop    %rbp
    1b68:	41 5c                	pop    %r12
    1b6a:	c3                   	ret    
    1b6b:	0f 1f 44 00 00       	nopl   0x0(%rax,%rax,1)

0000000000001b70 <riscv_dsp_cfft_f32>:
    1b70:	f3 0f 1e fa          	endbr64 
    1b74:	83 fe 0e             	cmp    $0xe,%esi
    1b77:	77 17                	ja     1b90 <riscv_dsp_cfft_f32+0x20>
    1b79:	b8 50 55 00 00       	mov    $0x5550,%eax
    1b7e:	48 0f a3 f0          	bt     %rsi,%rax
    1b82:	73 0c                	jae    1b90 <riscv_dsp_cfft_f32+0x20>
    1b84:	e9 57 11 00 00       	jmp    2ce0 <riscv_dsp_cfft_rd4_f32>
    1b89:	0f 1f 80 00 00 00 00 	nopl   0x0(%rax)
    1b90:	e9 3b 00 00 00       	jmp    1bd0 <riscv_dsp_cfft_rd2_f32>
    1b95:	66 2e 0f 1f 84 00 00 	cs nopw 0x0(%rax,%rax,1)
    1b9c:	00 00 00 
    1b9f:	90                   	nop

0000000000001ba0 <riscv_dsp_cifft_f32>:
    1ba0:	f3 0f 1e fa          	endbr64 
    1ba4:	83 fe 0e             	cmp    $0xe,%esi
    1ba7:	77 17                	ja     1bc0 <riscv_dsp_cifft_f32+0x20>
    1ba9:	b8 50 55 00 00       	mov    $0x5550,%eax
    1bae:	48 0f a3 f0          	bt     %rsi,%rax
    1bb2:	73 0c                	jae    1bc0 <riscv_dsp_cifft_f32+0x20>
    1bb4:	e9 77 28 00 00       	jmp    4430 <riscv_dsp_cifft_rd4_f32>
    1bb9:	0f 1f 80 00 00 00 00 	nopl   0x0(%rax)
    1bc0:	e9 ab 06 00 00       	jmp    2270 <riscv_dsp_cifft_rd2_f32>
    1bc5:	66 2e 0f 1f 84 00 00 	cs nopw 0x0(%rax,%rax,1)
    1bcc:	00 00 00 
    1bcf:	90                   	nop

0000000000001bd0 <riscv_dsp_cfft_rd2_f32>:
    1bd0:	f3 0f 1e fa          	endbr64 
    1bd4:	41 57                	push   %r15
    1bd6:	89 f1                	mov    %esi,%ecx
    1bd8:	b8 01 00 00 00       	mov    $0x1,%eax
    1bdd:	4c 8d 7f 08          	lea    0x8(%rdi),%r15
    1be1:	41 56                	push   %r14
    1be3:	d3 e0                	shl    %cl,%eax
    1be5:	41 55                	push   %r13
    1be7:	41 54                	push   %r12
    1be9:	55                   	push   %rbp
    1bea:	53                   	push   %rbx
    1beb:	f3 0f 7e 07          	movq   (%rdi),%xmm0
    1bef:	48 89 fb             	mov    %rdi,%rbx
    1bf2:	0f 28 d0             	movaps %xmm0,%xmm2
    1bf5:	89 74 24 f0          	mov    %esi,-0x10(%rsp)
    1bf9:	89 c6                	mov    %eax,%esi
    1bfb:	48 c1 e6 02          	shl    $0x2,%rsi
    1bff:	89 44 24 f4          	mov    %eax,-0xc(%rsp)
    1c03:	4c 8d 0c 37          	lea    (%rdi,%rsi,1),%r9
    1c07:	f3 41 0f 7e 09       	movq   (%r9),%xmm1
    1c0c:	0f 58 d1             	addps  %xmm1,%xmm2
    1c0f:	0f 5c c1             	subps  %xmm1,%xmm0
    1c12:	0f 13 17             	movlps %xmm2,(%rdi)
    1c15:	41 0f 13 01          	movlps %xmm0,(%r9)
    1c19:	4d 39 f9             	cmp    %r15,%r9
    1c1c:	0f 84 f4 00 00 00    	je     1d16 <riscv_dsp_cfft_rd2_f32+0x146>
    1c22:	b9 0a 00 00 00       	mov    $0xa,%ecx
    1c27:	4c 89 f8             	mov    %r15,%rax
    1c2a:	2b 4c 24 f0          	sub    -0x10(%rsp),%ecx
    1c2e:	31 d2                	xor    %edx,%edx
    1c30:	f3 0f 10 2d 98 45 00 	movss  0x4598(%rip),%xmm5        # 61d0 <_IO_stdin_used+0x1d0>
    1c37:	00 
    1c38:	48 8d 3d e9 4d 00 00 	lea    0x4de9(%rip),%rdi        # 6a28 <riscv_dsp_cos_table_f32_1024+0x8>
    1c3f:	41 b8 00 01 00 00    	mov    $0x100,%r8d
    1c45:	0f 28 f5             	movaps %xmm5,%xmm6
    1c48:	eb 56                	jmp    1ca0 <riscv_dsp_cfft_rd2_f32+0xd0>
    1c4a:	4d 63 d2             	movslq %r10d,%r10
    1c4d:	4d 63 db             	movslq %r11d,%r11
    1c50:	f3 42 0f 10 04 97    	movss  (%rdi,%r10,4),%xmm0
    1c56:	f3 42 0f 10 0c 9f    	movss  (%rdi,%r11,4),%xmm1
    1c5c:	f3 0f 7e 18          	movq   (%rax),%xmm3
    1c60:	0f c6 c0 e0          	shufps $0xe0,%xmm0,%xmm0
    1c64:	0f c6 c9 e0          	shufps $0xe0,%xmm1,%xmm1
    1c68:	48 83 c0 08          	add    $0x8,%rax
    1c6c:	f3 0f 7e 64 30 f8    	movq   -0x8(%rax,%rsi,1),%xmm4
    1c72:	0f 28 fb             	movaps %xmm3,%xmm7
    1c75:	0f 5c fc             	subps  %xmm4,%xmm7
    1c78:	0f 58 dc             	addps  %xmm4,%xmm3
    1c7b:	0f 59 c7             	mulps  %xmm7,%xmm0
    1c7e:	0f 13 58 f8          	movlps %xmm3,-0x8(%rax)
    1c82:	0f 59 cf             	mulps  %xmm7,%xmm1
    1c85:	0f 28 d0             	movaps %xmm0,%xmm2
    1c88:	0f c6 c9 e1          	shufps $0xe1,%xmm1,%xmm1
    1c8c:	0f 58 d1             	addps  %xmm1,%xmm2
    1c8f:	0f 5c c1             	subps  %xmm1,%xmm0
    1c92:	f3 0f 10 c2          	movss  %xmm2,%xmm0
    1c96:	0f 13 44 30 f8       	movlps %xmm0,-0x8(%rax,%rsi,1)
    1c9b:	49 39 c1             	cmp    %rax,%r9
    1c9e:	74 76                	je     1d16 <riscv_dsp_cfft_rd2_f32+0x146>
    1ca0:	83 c2 01             	add    $0x1,%edx
    1ca3:	45 89 c3             	mov    %r8d,%r11d
    1ca6:	41 89 d2             	mov    %edx,%r10d
    1ca9:	41 d3 e2             	shl    %cl,%r10d
    1cac:	45 29 d3             	sub    %r10d,%r11d
    1caf:	45 85 db             	test   %r11d,%r11d
    1cb2:	7f 96                	jg     1c4a <riscv_dsp_cfft_rd2_f32+0x7a>
    1cb4:	45 8d 9a 00 ff ff ff 	lea    -0x100(%r10),%r11d
    1cbb:	44 89 c5             	mov    %r8d,%ebp
    1cbe:	44 29 dd             	sub    %r11d,%ebp
    1cc1:	85 ed                	test   %ebp,%ebp
    1cc3:	7e 16                	jle    1cdb <riscv_dsp_cfft_rd2_f32+0x10b>
    1cc5:	48 63 ed             	movslq %ebp,%rbp
    1cc8:	4d 63 db             	movslq %r11d,%r11
    1ccb:	f3 0f 10 04 af       	movss  (%rdi,%rbp,4),%xmm0
    1cd0:	f3 42 0f 10 0c 9f    	movss  (%rdi,%r11,4),%xmm1
    1cd6:	0f 57 c6             	xorps  %xmm6,%xmm0
    1cd9:	eb 81                	jmp    1c5c <riscv_dsp_cfft_rd2_f32+0x8c>
    1cdb:	41 81 ea 00 02 00 00 	sub    $0x200,%r10d
    1ce2:	45 89 c3             	mov    %r8d,%r11d
    1ce5:	45 29 d3             	sub    %r10d,%r11d
    1ce8:	4d 63 d2             	movslq %r10d,%r10
    1ceb:	f3 42 0f 10 0c 97    	movss  (%rdi,%r10,4),%xmm1
    1cf1:	49 63 eb             	movslq %r11d,%rbp
    1cf4:	f3 0f 10 04 af       	movss  (%rdi,%rbp,4),%xmm0
    1cf9:	0f 57 cd             	xorps  %xmm5,%xmm1
    1cfc:	45 85 db             	test   %r11d,%r11d
    1cff:	0f 8e 57 ff ff ff    	jle    1c5c <riscv_dsp_cfft_rd2_f32+0x8c>
    1d05:	0f 28 d0             	movaps %xmm0,%xmm2
    1d08:	0f 28 c1             	movaps %xmm1,%xmm0
    1d0b:	0f 57 d5             	xorps  %xmm5,%xmm2
    1d0e:	0f 28 ca             	movaps %xmm2,%xmm1
    1d11:	e9 46 ff ff ff       	jmp    1c5c <riscv_dsp_cfft_rd2_f32+0x8c>
    1d16:	8b 44 24 f0          	mov    -0x10(%rsp),%eax
    1d1a:	44 8b 74 24 f4       	mov    -0xc(%rsp),%r14d
    1d1f:	41 b8 02 00 00 00    	mov    $0x2,%r8d
    1d25:	89 c1                	mov    %eax,%ecx
    1d27:	83 e9 02             	sub    $0x2,%ecx
    1d2a:	89 4c 24 ec          	mov    %ecx,-0x14(%rsp)
    1d2e:	0f 84 7a 01 00 00    	je     1eae <riscv_dsp_cfft_rd2_f32+0x2de>
    1d34:	b9 0a 00 00 00       	mov    $0xa,%ecx
    1d39:	f3 0f 10 35 8f 44 00 	movss  0x448f(%rip),%xmm6        # 61d0 <_IO_stdin_used+0x1d0>
    1d40:	00 
    1d41:	48 8d 2d e0 4c 00 00 	lea    0x4ce0(%rip),%rbp        # 6a28 <riscv_dsp_cos_table_f32_1024+0x8>
    1d48:	41 bc 00 01 00 00    	mov    $0x100,%r12d
    1d4e:	29 c1                	sub    %eax,%ecx
    1d50:	0f 28 fe             	movaps %xmm6,%xmm7
    1d53:	0f 1f 44 00 00       	nopl   0x0(%rax,%rax,1)
    1d58:	41 d1 ee             	shr    %r14d
    1d5b:	44 89 f7             	mov    %r14d,%edi
    1d5e:	48 8d 14 bd 00 00 00 	lea    0x0(,%rdi,4),%rdx
    1d65:	00 
    1d66:	4c 8d 2c 13          	lea    (%rbx,%rdx,1),%r13
    1d6a:	45 85 c0             	test   %r8d,%r8d
    1d6d:	0f 84 85 00 00 00    	je     1df8 <riscv_dsp_cfft_rd2_f32+0x228>
    1d73:	48 8d 44 12 04       	lea    0x4(%rdx,%rdx,1),%rax
    1d78:	48 8d 34 fd 00 00 00 	lea    0x0(,%rdi,8),%rsi
    1d7f:	00 
    1d80:	48 39 c2             	cmp    %rax,%rdx
    1d83:	0f 8e a0 04 00 00    	jle    2229 <riscv_dsp_cfft_rd2_f32+0x659>
    1d89:	48 83 fe 07          	cmp    $0x7,%rsi
    1d8d:	41 0f 97 c1          	seta   %r9b
    1d91:	48 85 d2             	test   %rdx,%rdx
    1d94:	0f 95 c0             	setne  %al
    1d97:	41 84 c1             	test   %al,%r9b
    1d9a:	0f 84 89 04 00 00    	je     2229 <riscv_dsp_cfft_rd2_f32+0x659>
    1da0:	45 89 c3             	mov    %r8d,%r11d
    1da3:	49 89 fa             	mov    %rdi,%r10
    1da6:	48 89 da             	mov    %rbx,%rdx
    1da9:	4c 89 e8             	mov    %r13,%rax
    1dac:	41 d1 eb             	shr    %r11d
    1daf:	49 c1 e2 04          	shl    $0x4,%r10
    1db3:	45 31 c9             	xor    %r9d,%r9d
    1db6:	66 2e 0f 1f 84 00 00 	cs nopw 0x0(%rax,%rax,1)
    1dbd:	00 00 00 
    1dc0:	f3 0f 7e 08          	movq   (%rax),%xmm1
    1dc4:	f3 0f 7e 02          	movq   (%rdx),%xmm0
    1dc8:	41 83 c1 01          	add    $0x1,%r9d
    1dcc:	0f 16 0c 30          	movhps (%rax,%rsi,1),%xmm1
    1dd0:	0f 16 04 32          	movhps (%rdx,%rsi,1),%xmm0
    1dd4:	0f 28 d1             	movaps %xmm1,%xmm2
    1dd7:	0f 58 d0             	addps  %xmm0,%xmm2
    1dda:	0f 5c c1             	subps  %xmm1,%xmm0
    1ddd:	66 0f d6 12          	movq   %xmm2,(%rdx)
    1de1:	0f 17 14 32          	movhps %xmm2,(%rdx,%rsi,1)
    1de5:	4c 01 d2             	add    %r10,%rdx
    1de8:	66 0f d6 00          	movq   %xmm0,(%rax)
    1dec:	0f 17 04 30          	movhps %xmm0,(%rax,%rsi,1)
    1df0:	4c 01 d0             	add    %r10,%rax
    1df3:	45 39 d9             	cmp    %r11d,%r9d
    1df6:	75 c8                	jne    1dc0 <riscv_dsp_cfft_rd2_f32+0x1f0>
    1df8:	4d 39 ef             	cmp    %r13,%r15
    1dfb:	0f 84 9f 00 00 00    	je     1ea0 <riscv_dsp_cfft_rd2_f32+0x2d0>
    1e01:	4c 8d 5c bb 08       	lea    0x8(%rbx,%rdi,4),%r11
    1e06:	4d 89 f9             	mov    %r15,%r9
    1e09:	48 c1 e7 03          	shl    $0x3,%rdi
    1e0d:	45 31 d2             	xor    %r10d,%r10d
    1e10:	45 01 c2             	add    %r8d,%r10d
    1e13:	44 89 e0             	mov    %r12d,%eax
    1e16:	44 89 d2             	mov    %r10d,%edx
    1e19:	d3 e2                	shl    %cl,%edx
    1e1b:	29 d0                	sub    %edx,%eax
    1e1d:	85 c0                	test   %eax,%eax
    1e1f:	0f 8e a3 03 00 00    	jle    21c8 <riscv_dsp_cfft_rd2_f32+0x5f8>
    1e25:	48 63 d2             	movslq %edx,%rdx
    1e28:	48 98                	cltq   
    1e2a:	f3 0f 10 64 95 00    	movss  0x0(%rbp,%rdx,4),%xmm4
    1e30:	f3 0f 10 6c 85 00    	movss  0x0(%rbp,%rax,4),%xmm5
    1e36:	45 85 c0             	test   %r8d,%r8d
    1e39:	74 54                	je     1e8f <riscv_dsp_cfft_rd2_f32+0x2bf>
    1e3b:	4c 89 ca             	mov    %r9,%rdx
    1e3e:	4c 89 d8             	mov    %r11,%rax
    1e41:	31 f6                	xor    %esi,%esi
    1e43:	0f c6 e4 e0          	shufps $0xe0,%xmm4,%xmm4
    1e47:	0f c6 ed e0          	shufps $0xe0,%xmm5,%xmm5
    1e4b:	0f 1f 44 00 00       	nopl   0x0(%rax,%rax,1)
    1e50:	f3 0f 7e 1a          	movq   (%rdx),%xmm3
    1e54:	f3 0f 7e 10          	movq   (%rax),%xmm2
    1e58:	0f 28 cc             	movaps %xmm4,%xmm1
    1e5b:	83 c6 01             	add    $0x1,%esi
    1e5e:	0f 28 c3             	movaps %xmm3,%xmm0
    1e61:	0f 5c c2             	subps  %xmm2,%xmm0
    1e64:	0f 58 d3             	addps  %xmm3,%xmm2
    1e67:	0f 59 c8             	mulps  %xmm0,%xmm1
    1e6a:	0f 13 12             	movlps %xmm2,(%rdx)
    1e6d:	48 01 fa             	add    %rdi,%rdx
    1e70:	0f 59 c5             	mulps  %xmm5,%xmm0
    1e73:	0f c6 c0 e1          	shufps $0xe1,%xmm0,%xmm0
    1e77:	0f 28 d0             	movaps %xmm0,%xmm2
    1e7a:	0f 58 d1             	addps  %xmm1,%xmm2
    1e7d:	0f 5c c8             	subps  %xmm0,%xmm1
    1e80:	f3 0f 10 ca          	movss  %xmm2,%xmm1
    1e84:	0f 13 08             	movlps %xmm1,(%rax)
    1e87:	48 01 f8             	add    %rdi,%rax
    1e8a:	44 39 c6             	cmp    %r8d,%esi
    1e8d:	75 c1                	jne    1e50 <riscv_dsp_cfft_rd2_f32+0x280>
    1e8f:	49 83 c1 08          	add    $0x8,%r9
    1e93:	49 83 c3 08          	add    $0x8,%r11
    1e97:	4d 39 cd             	cmp    %r9,%r13
    1e9a:	0f 85 70 ff ff ff    	jne    1e10 <riscv_dsp_cfft_rd2_f32+0x240>
    1ea0:	45 01 c0             	add    %r8d,%r8d
    1ea3:	83 6c 24 ec 01       	subl   $0x1,-0x14(%rsp)
    1ea8:	0f 85 aa fe ff ff    	jne    1d58 <riscv_dsp_cfft_rd2_f32+0x188>
    1eae:	0f b6 4c 24 f0       	movzbl -0x10(%rsp),%ecx
    1eb3:	b8 02 00 00 00       	mov    $0x2,%eax
    1eb8:	d3 e0                	shl    %cl,%eax
    1eba:	48 8d 34 85 00 00 00 	lea    0x0(,%rax,4),%rsi
    1ec1:	00 
    1ec2:	48 8d 14 33          	lea    (%rbx,%rsi,1),%rdx
    1ec6:	48 39 d3             	cmp    %rdx,%rbx
    1ec9:	74 5f                	je     1f2a <riscv_dsp_cfft_rd2_f32+0x35a>
    1ecb:	48 29 da             	sub    %rbx,%rdx
    1ece:	48 89 d8             	mov    %rbx,%rax
    1ed1:	48 8d 4a e0          	lea    -0x20(%rdx),%rcx
    1ed5:	31 d2                	xor    %edx,%edx
    1ed7:	48 c1 e9 05          	shr    $0x5,%rcx
    1edb:	48 83 c1 01          	add    $0x1,%rcx
    1edf:	90                   	nop
    1ee0:	0f 10 08             	movups (%rax),%xmm1
    1ee3:	0f 10 40 10          	movups 0x10(%rax),%xmm0
    1ee7:	48 83 c2 01          	add    $0x1,%rdx
    1eeb:	48 83 c0 20          	add    $0x20,%rax
    1eef:	0f 28 d9             	movaps %xmm1,%xmm3
    1ef2:	0f 28 d0             	movaps %xmm0,%xmm2
    1ef5:	0f 16 d9             	movlhps %xmm1,%xmm3
    1ef8:	0f c6 c9 ee          	shufps $0xee,%xmm1,%xmm1
    1efc:	0f 28 e1             	movaps %xmm1,%xmm4
    1eff:	0f 16 d0             	movlhps %xmm0,%xmm2
    1f02:	0f 58 e3             	addps  %xmm3,%xmm4
    1f05:	0f c6 c0 ee          	shufps $0xee,%xmm0,%xmm0
    1f09:	0f 5c d9             	subps  %xmm1,%xmm3
    1f0c:	0f 28 c8             	movaps %xmm0,%xmm1
    1f0f:	0f 58 ca             	addps  %xmm2,%xmm1
    1f12:	0f 5c d0             	subps  %xmm0,%xmm2
    1f15:	0f c6 e3 e4          	shufps $0xe4,%xmm3,%xmm4
    1f19:	0f 11 60 e0          	movups %xmm4,-0x20(%rax)
    1f1d:	0f c6 ca e4          	shufps $0xe4,%xmm2,%xmm1
    1f21:	0f 11 48 f0          	movups %xmm1,-0x10(%rax)
    1f25:	48 39 ca             	cmp    %rcx,%rdx
    1f28:	72 b6                	jb     1ee0 <riscv_dsp_cfft_rd2_f32+0x310>
    1f2a:	8b 44 24 f4          	mov    -0xc(%rsp),%eax
    1f2e:	f3 0f 10 43 08       	movss  0x8(%rbx),%xmm0
    1f33:	48 8d 7c 33 fc       	lea    -0x4(%rbx,%rsi,1),%rdi
    1f38:	41 bc fc ff ff ff    	mov    $0xfffffffc,%r12d
    1f3e:	be 04 00 00 00       	mov    $0x4,%esi
    1f43:	89 c1                	mov    %eax,%ecx
    1f45:	d1 e9                	shr    %ecx
    1f47:	41 89 c8             	mov    %ecx,%r8d
    1f4a:	89 c1                	mov    %eax,%ecx
    1f4c:	83 e0 fe             	and    $0xfffffffe,%eax
    1f4f:	89 c2                	mov    %eax,%edx
    1f51:	83 c0 01             	add    $0x1,%eax
    1f54:	45 89 c3             	mov    %r8d,%r11d
    1f57:	48 8d 14 93          	lea    (%rbx,%rdx,4),%rdx
    1f5b:	48 8d 04 83          	lea    (%rbx,%rax,4),%rax
    1f5f:	f3 0f 10 0a          	movss  (%rdx),%xmm1
    1f63:	f3 0f 11 4b 08       	movss  %xmm1,0x8(%rbx)
    1f68:	f3 0f 11 02          	movss  %xmm0,(%rdx)
    1f6c:	f3 0f 10 08          	movss  (%rax),%xmm1
    1f70:	f3 0f 10 43 0c       	movss  0xc(%rbx),%xmm0
    1f75:	f3 0f 11 4b 0c       	movss  %xmm1,0xc(%rbx)
    1f7a:	f3 0f 11 00          	movss  %xmm0,(%rax)
    1f7e:	89 c8                	mov    %ecx,%eax
    1f80:	c1 e9 02             	shr    $0x2,%ecx
    1f83:	41 31 cb             	xor    %ecx,%r11d
    1f86:	41 89 c9             	mov    %ecx,%r9d
    1f89:	89 c1                	mov    %eax,%ecx
    1f8b:	44 89 c0             	mov    %r8d,%eax
    1f8e:	c1 e9 03             	shr    $0x3,%ecx
    1f91:	44 89 dd             	mov    %r11d,%ebp
    1f94:	41 89 ca             	mov    %ecx,%r10d
    1f97:	31 cd                	xor    %ecx,%ebp
    1f99:	b9 04 00 00 00       	mov    $0x4,%ecx
    1f9e:	66 90                	xchg   %ax,%ax
    1fa0:	44 31 d8             	xor    %r11d,%eax
    1fa3:	41 85 c1             	test   %eax,%r9d
    1fa6:	75 10                	jne    1fb8 <riscv_dsp_cfft_rd2_f32+0x3e8>
    1fa8:	44 89 ca             	mov    %r9d,%edx
    1fab:	0f 1f 44 00 00       	nopl   0x0(%rax,%rax,1)
    1fb0:	d1 ea                	shr    %edx
    1fb2:	31 d0                	xor    %edx,%eax
    1fb4:	85 c2                	test   %eax,%edx
    1fb6:	74 f8                	je     1fb0 <riscv_dsp_cfft_rd2_f32+0x3e0>
    1fb8:	8d 56 fe             	lea    -0x2(%rsi),%edx
    1fbb:	39 c2                	cmp    %eax,%edx
    1fbd:	0f 83 9e 00 00 00    	jae    2061 <riscv_dsp_cfft_rd2_f32+0x491>
    1fc3:	89 ca                	mov    %ecx,%edx
    1fc5:	44 8d 2c 00          	lea    (%rax,%rax,1),%r13d
    1fc9:	4c 8d 34 93          	lea    (%rbx,%rdx,4),%r14
    1fcd:	4c 89 ea             	mov    %r13,%rdx
    1fd0:	4e 8d 2c ab          	lea    (%rbx,%r13,4),%r13
    1fd4:	f3 41 0f 10 06       	movss  (%r14),%xmm0
    1fd9:	f3 41 0f 10 4d 00    	movss  0x0(%r13),%xmm1
    1fdf:	83 c2 01             	add    $0x1,%edx
    1fe2:	48 8d 14 93          	lea    (%rbx,%rdx,4),%rdx
    1fe6:	f3 41 0f 11 0e       	movss  %xmm1,(%r14)
    1feb:	f3 41 0f 11 45 00    	movss  %xmm0,0x0(%r13)
    1ff1:	44 8d 69 01          	lea    0x1(%rcx),%r13d
    1ff5:	f3 0f 10 0a          	movss  (%rdx),%xmm1
    1ff9:	4e 8d 2c ab          	lea    (%rbx,%r13,4),%r13
    1ffd:	f3 41 0f 10 45 00    	movss  0x0(%r13),%xmm0
    2003:	f3 41 0f 11 4d 00    	movss  %xmm1,0x0(%r13)
    2009:	41 89 cd             	mov    %ecx,%r13d
    200c:	41 f7 dd             	neg    %r13d
    200f:	f3 0f 11 02          	movss  %xmm0,(%rdx)
    2013:	89 c2                	mov    %eax,%edx
    2015:	4d 63 ed             	movslq %r13d,%r13
    2018:	f7 da                	neg    %edx
    201a:	49 c1 e5 02          	shl    $0x2,%r13
    201e:	01 d2                	add    %edx,%edx
    2020:	4e 8d 34 2f          	lea    (%rdi,%r13,1),%r14
    2024:	4e 8d 6c 2f fc       	lea    -0x4(%rdi,%r13,1),%r13
    2029:	48 63 d2             	movslq %edx,%rdx
    202c:	f3 41 0f 10 06       	movss  (%r14),%xmm0
    2031:	48 c1 e2 02          	shl    $0x2,%rdx
    2035:	4c 8d 3c 17          	lea    (%rdi,%rdx,1),%r15
    2039:	48 8d 54 17 fc       	lea    -0x4(%rdi,%rdx,1),%rdx
    203e:	f3 41 0f 10 0f       	movss  (%r15),%xmm1
    2043:	f3 41 0f 11 0e       	movss  %xmm1,(%r14)
    2048:	f3 41 0f 11 07       	movss  %xmm0,(%r15)
    204d:	f3 41 0f 10 45 00    	movss  0x0(%r13),%xmm0
    2053:	f3 0f 10 0a          	movss  (%rdx),%xmm1
    2057:	f3 41 0f 11 4d 00    	movss  %xmm1,0x0(%r13)
    205d:	f3 0f 11 02          	movss  %xmm0,(%rdx)
    2061:	8d 51 02             	lea    0x2(%rcx),%edx
    2064:	44 01 c0             	add    %r8d,%eax
    2067:	4c 8d 2c 93          	lea    (%rbx,%rdx,4),%r13
    206b:	8d 14 00             	lea    (%rax,%rax,1),%edx
    206e:	49 89 d6             	mov    %rdx,%r14
    2071:	48 8d 14 93          	lea    (%rbx,%rdx,4),%rdx
    2075:	f3 41 0f 10 45 00    	movss  0x0(%r13),%xmm0
    207b:	f3 0f 10 0a          	movss  (%rdx),%xmm1
    207f:	f3 41 0f 11 4d 00    	movss  %xmm1,0x0(%r13)
    2085:	f3 0f 11 02          	movss  %xmm0,(%rdx)
    2089:	8d 51 03             	lea    0x3(%rcx),%edx
    208c:	4c 8d 2c 93          	lea    (%rbx,%rdx,4),%r13
    2090:	41 8d 56 01          	lea    0x1(%r14),%edx
    2094:	48 8d 14 93          	lea    (%rbx,%rdx,4),%rdx
    2098:	f3 41 0f 10 45 00    	movss  0x0(%r13),%xmm0
    209e:	f3 0f 10 0a          	movss  (%rdx),%xmm1
    20a2:	f3 41 0f 11 4d 00    	movss  %xmm1,0x0(%r13)
    20a8:	f3 0f 11 02          	movss  %xmm0,(%rdx)
    20ac:	44 39 c6             	cmp    %r8d,%esi
    20af:	0f 83 a2 01 00 00    	jae    2257 <riscv_dsp_cfft_rd2_f32+0x687>
    20b5:	31 e8                	xor    %ebp,%eax
    20b7:	41 85 c2             	test   %eax,%r10d
    20ba:	75 0c                	jne    20c8 <riscv_dsp_cfft_rd2_f32+0x4f8>
    20bc:	44 89 d2             	mov    %r10d,%edx
    20bf:	90                   	nop
    20c0:	d1 ea                	shr    %edx
    20c2:	31 d0                	xor    %edx,%eax
    20c4:	85 c2                	test   %eax,%edx
    20c6:	74 f8                	je     20c0 <riscv_dsp_cfft_rd2_f32+0x4f0>
    20c8:	39 c6                	cmp    %eax,%esi
    20ca:	0f 83 9f 00 00 00    	jae    216f <riscv_dsp_cfft_rd2_f32+0x59f>
    20d0:	8d 51 04             	lea    0x4(%rcx),%edx
    20d3:	44 8d 2c 00          	lea    (%rax,%rax,1),%r13d
    20d7:	4c 8d 34 93          	lea    (%rbx,%rdx,4),%r14
    20db:	4c 89 ea             	mov    %r13,%rdx
    20de:	4e 8d 2c ab          	lea    (%rbx,%r13,4),%r13
    20e2:	f3 41 0f 10 06       	movss  (%r14),%xmm0
    20e7:	f3 41 0f 10 4d 00    	movss  0x0(%r13),%xmm1
    20ed:	83 c2 01             	add    $0x1,%edx
    20f0:	48 8d 14 93          	lea    (%rbx,%rdx,4),%rdx
    20f4:	f3 41 0f 11 0e       	movss  %xmm1,(%r14)
    20f9:	f3 41 0f 11 45 00    	movss  %xmm0,0x0(%r13)
    20ff:	44 8d 69 05          	lea    0x5(%rcx),%r13d
    2103:	f3 0f 10 0a          	movss  (%rdx),%xmm1
    2107:	4e 8d 2c ab          	lea    (%rbx,%r13,4),%r13
    210b:	f3 41 0f 10 45 00    	movss  0x0(%r13),%xmm0
    2111:	f3 41 0f 11 4d 00    	movss  %xmm1,0x0(%r13)
    2117:	45 89 e5             	mov    %r12d,%r13d
    211a:	41 29 cd             	sub    %ecx,%r13d
    211d:	f3 0f 11 02          	movss  %xmm0,(%rdx)
    2121:	89 c2                	mov    %eax,%edx
    2123:	4d 63 ed             	movslq %r13d,%r13
    2126:	f7 da                	neg    %edx
    2128:	49 c1 e5 02          	shl    $0x2,%r13
    212c:	01 d2                	add    %edx,%edx
    212e:	4e 8d 34 2f          	lea    (%rdi,%r13,1),%r14
    2132:	4e 8d 6c 2f fc       	lea    -0x4(%rdi,%r13,1),%r13
    2137:	48 63 d2             	movslq %edx,%rdx
    213a:	f3 41 0f 10 06       	movss  (%r14),%xmm0
    213f:	48 c1 e2 02          	shl    $0x2,%rdx
    2143:	4c 8d 3c 17          	lea    (%rdi,%rdx,1),%r15
    2147:	48 8d 54 17 fc       	lea    -0x4(%rdi,%rdx,1),%rdx
    214c:	f3 41 0f 10 0f       	movss  (%r15),%xmm1
    2151:	f3 41 0f 11 0e       	movss  %xmm1,(%r14)
    2156:	f3 41 0f 11 07       	movss  %xmm0,(%r15)
    215b:	f3 41 0f 10 45 00    	movss  0x0(%r13),%xmm0
    2161:	f3 0f 10 0a          	movss  (%rdx),%xmm1
    2165:	f3 41 0f 11 4d 00    	movss  %xmm1,0x0(%r13)
    216b:	f3 0f 11 02          	movss  %xmm0,(%rdx)
    216f:	8d 51 06             	lea    0x6(%rcx),%edx
    2172:	44 01 c0             	add    %r8d,%eax
    2175:	83 c6 04             	add    $0x4,%esi
    2178:	4c 8d 2c 93          	lea    (%rbx,%rdx,4),%r13
    217c:	8d 14 00             	lea    (%rax,%rax,1),%edx
    217f:	49 89 d6             	mov    %rdx,%r14
    2182:	48 8d 14 93          	lea    (%rbx,%rdx,4),%rdx
    2186:	f3 41 0f 10 45 00    	movss  0x0(%r13),%xmm0
    218c:	f3 0f 10 0a          	movss  (%rdx),%xmm1
    2190:	f3 41 0f 11 4d 00    	movss  %xmm1,0x0(%r13)
    2196:	f3 0f 11 02          	movss  %xmm0,(%rdx)
    219a:	8d 51 07             	lea    0x7(%rcx),%edx
    219d:	83 c1 08             	add    $0x8,%ecx
    21a0:	4c 8d 2c 93          	lea    (%rbx,%rdx,4),%r13
    21a4:	41 8d 56 01          	lea    0x1(%r14),%edx
    21a8:	48 8d 14 93          	lea    (%rbx,%rdx,4),%rdx
    21ac:	f3 41 0f 10 45 00    	movss  0x0(%r13),%xmm0
    21b2:	f3 0f 10 0a          	movss  (%rdx),%xmm1
    21b6:	f3 41 0f 11 4d 00    	movss  %xmm1,0x0(%r13)
    21bc:	f3 0f 11 02          	movss  %xmm0,(%rdx)
    21c0:	e9 db fd ff ff       	jmp    1fa0 <riscv_dsp_cfft_rd2_f32+0x3d0>
    21c5:	0f 1f 00             	nopl   (%rax)
    21c8:	8d 82 00 ff ff ff    	lea    -0x100(%rdx),%eax
    21ce:	44 89 e6             	mov    %r12d,%esi
    21d1:	29 c6                	sub    %eax,%esi
    21d3:	85 f6                	test   %esi,%esi
    21d5:	7e 19                	jle    21f0 <riscv_dsp_cfft_rd2_f32+0x620>
    21d7:	48 63 f6             	movslq %esi,%rsi
    21da:	48 98                	cltq   
    21dc:	f3 0f 10 64 b5 00    	movss  0x0(%rbp,%rsi,4),%xmm4
    21e2:	f3 0f 10 6c 85 00    	movss  0x0(%rbp,%rax,4),%xmm5
    21e8:	0f 57 e7             	xorps  %xmm7,%xmm4
    21eb:	e9 46 fc ff ff       	jmp    1e36 <riscv_dsp_cfft_rd2_f32+0x266>
    21f0:	81 ea 00 02 00 00    	sub    $0x200,%edx
    21f6:	44 89 e0             	mov    %r12d,%eax
    21f9:	29 d0                	sub    %edx,%eax
    21fb:	48 63 d2             	movslq %edx,%rdx
    21fe:	f3 0f 10 6c 95 00    	movss  0x0(%rbp,%rdx,4),%xmm5
    2204:	48 63 f0             	movslq %eax,%rsi
    2207:	f3 0f 10 64 b5 00    	movss  0x0(%rbp,%rsi,4),%xmm4
    220d:	0f 57 ee             	xorps  %xmm6,%xmm5
    2210:	85 c0                	test   %eax,%eax
    2212:	0f 8e 1e fc ff ff    	jle    1e36 <riscv_dsp_cfft_rd2_f32+0x266>
    2218:	0f 57 e6             	xorps  %xmm6,%xmm4
    221b:	0f 28 c4             	movaps %xmm4,%xmm0
    221e:	0f 28 e5             	movaps %xmm5,%xmm4
    2221:	0f 28 e8             	movaps %xmm0,%xmm5
    2224:	e9 0d fc ff ff       	jmp    1e36 <riscv_dsp_cfft_rd2_f32+0x266>
    2229:	48 89 d8             	mov    %rbx,%rax
    222c:	45 89 c1             	mov    %r8d,%r9d
    222f:	90                   	nop
    2230:	f3 0f 7e 0c 10       	movq   (%rax,%rdx,1),%xmm1
    2235:	f3 0f 7e 00          	movq   (%rax),%xmm0
    2239:	0f 28 d1             	movaps %xmm1,%xmm2
    223c:	0f 58 d0             	addps  %xmm0,%xmm2
    223f:	0f 5c c1             	subps  %xmm1,%xmm0
    2242:	0f 13 10             	movlps %xmm2,(%rax)
    2245:	0f 13 04 10          	movlps %xmm0,(%rax,%rdx,1)
    2249:	48 01 f0             	add    %rsi,%rax
    224c:	41 83 e9 01          	sub    $0x1,%r9d
    2250:	75 de                	jne    2230 <riscv_dsp_cfft_rd2_f32+0x660>
    2252:	e9 a1 fb ff ff       	jmp    1df8 <riscv_dsp_cfft_rd2_f32+0x228>
    2257:	5b                   	pop    %rbx
    2258:	31 c0                	xor    %eax,%eax
    225a:	5d                   	pop    %rbp
    225b:	41 5c                	pop    %r12
    225d:	41 5d                	pop    %r13
    225f:	41 5e                	pop    %r14
    2261:	41 5f                	pop    %r15
    2263:	c3                   	ret    
    2264:	66 2e 0f 1f 84 00 00 	cs nopw 0x0(%rax,%rax,1)
    226b:	00 00 00 
    226e:	66 90                	xchg   %ax,%ax

0000000000002270 <riscv_dsp_cifft_rd2_f32>:
    2270:	f3 0f 1e fa          	endbr64 
    2274:	b8 01 00 00 00       	mov    $0x1,%eax
    2279:	89 f1                	mov    %esi,%ecx
    227b:	41 57                	push   %r15
    227d:	49 89 f9             	mov    %rdi,%r9
    2280:	d3 e0                	shl    %cl,%eax
    2282:	41 56                	push   %r14
    2284:	f3 0f 10 35 44 3f 00 	movss  0x3f44(%rip),%xmm6        # 61d0 <_IO_stdin_used+0x1d0>
    228b:	00 
    228c:	89 c2                	mov    %eax,%edx
    228e:	41 55                	push   %r13
    2290:	48 c1 e2 02          	shl    $0x2,%rdx
    2294:	41 54                	push   %r12
    2296:	4c 8d 14 17          	lea    (%rdi,%rdx,1),%r10
    229a:	55                   	push   %rbp
    229b:	53                   	push   %rbx
    229c:	f3 41 0f 10 52 04    	movss  0x4(%r10),%xmm2
    22a2:	f3 41 0f 10 1a       	movss  (%r10),%xmm3
    22a7:	f3 0f 7e 07          	movq   (%rdi),%xmm0
    22ab:	0f 28 e2             	movaps %xmm2,%xmm4
    22ae:	0f 57 e6             	xorps  %xmm6,%xmm4
    22b1:	0f 28 cb             	movaps %xmm3,%xmm1
    22b4:	89 44 24 f4          	mov    %eax,-0xc(%rsp)
    22b8:	48 8d 47 08          	lea    0x8(%rdi),%rax
    22bc:	0f 14 cc             	unpcklps %xmm4,%xmm1
    22bf:	0f 28 e0             	movaps %xmm0,%xmm4
    22c2:	89 74 24 f0          	mov    %esi,-0x10(%rsp)
    22c6:	0f 58 e1             	addps  %xmm1,%xmm4
    22c9:	0f 5c c8             	subps  %xmm0,%xmm1
    22cc:	48 89 44 24 e0       	mov    %rax,-0x20(%rsp)
    22d1:	f3 0f 10 cc          	movss  %xmm4,%xmm1
    22d5:	0f 13 0f             	movlps %xmm1,(%rdi)
    22d8:	0f 28 c8             	movaps %xmm0,%xmm1
    22db:	0f c6 c0 e5          	shufps $0xe5,%xmm0,%xmm0
    22df:	f3 0f 5c d0          	subss  %xmm0,%xmm2
    22e3:	f3 0f 5c cb          	subss  %xmm3,%xmm1
    22e7:	0f 14 ca             	unpcklps %xmm2,%xmm1
    22ea:	41 0f 13 0a          	movlps %xmm1,(%r10)
    22ee:	49 39 c2             	cmp    %rax,%r10
    22f1:	0f 84 1d 01 00 00    	je     2414 <riscv_dsp_cifft_rd2_f32+0x1a4>
    22f7:	b9 0a 00 00 00       	mov    $0xa,%ecx
    22fc:	31 f6                	xor    %esi,%esi
    22fe:	2b 4c 24 f0          	sub    -0x10(%rsp),%ecx
    2302:	41 b8 00 01 00 00    	mov    $0x100,%r8d
    2308:	48 8d 3d 19 47 00 00 	lea    0x4719(%rip),%rdi        # 6a28 <riscv_dsp_cos_table_f32_1024+0x8>
    230f:	e9 87 00 00 00       	jmp    239b <riscv_dsp_cifft_rd2_f32+0x12b>
    2314:	4d 63 db             	movslq %r11d,%r11
    2317:	48 63 db             	movslq %ebx,%rbx
    231a:	f3 42 0f 10 04 9f    	movss  (%rdi,%r11,4),%xmm0
    2320:	f3 0f 10 14 9f       	movss  (%rdi,%rbx,4),%xmm2
    2325:	f3 0f 7e 28          	movq   (%rax),%xmm5
    2329:	0f c6 d2 e0          	shufps $0xe0,%xmm2,%xmm2
    232d:	0f c6 c0 e0          	shufps $0xe0,%xmm0,%xmm0
    2331:	48 83 c0 08          	add    $0x8,%rax
    2335:	f3 0f 10 64 10 fc    	movss  -0x4(%rax,%rdx,1),%xmm4
    233b:	f3 0f 10 4c 10 f8    	movss  -0x8(%rax,%rdx,1),%xmm1
    2341:	0f 28 fd             	movaps %xmm5,%xmm7
    2344:	0f 28 dd             	movaps %xmm5,%xmm3
    2347:	0f c6 ff e5          	shufps $0xe5,%xmm7,%xmm7
    234b:	44 0f 28 c7          	movaps %xmm7,%xmm8
    234f:	0f 28 fc             	movaps %xmm4,%xmm7
    2352:	f3 0f 5c d9          	subss  %xmm1,%xmm3
    2356:	f3 41 0f 5c f8       	subss  %xmm8,%xmm7
    235b:	0f 57 e6             	xorps  %xmm6,%xmm4
    235e:	0f 14 cc             	unpcklps %xmm4,%xmm1
    2361:	44 0f 28 c7          	movaps %xmm7,%xmm8
    2365:	44 0f 14 c3          	unpcklps %xmm3,%xmm8
    2369:	0f 14 df             	unpcklps %xmm7,%xmm3
    236c:	0f 59 c3             	mulps  %xmm3,%xmm0
    236f:	0f 28 dd             	movaps %xmm5,%xmm3
    2372:	41 0f 59 d0          	mulps  %xmm8,%xmm2
    2376:	0f 58 d9             	addps  %xmm1,%xmm3
    2379:	0f 5c cd             	subps  %xmm5,%xmm1
    237c:	f3 0f 10 cb          	movss  %xmm3,%xmm1
    2380:	0f 13 48 f8          	movlps %xmm1,-0x8(%rax)
    2384:	0f 28 ca             	movaps %xmm2,%xmm1
    2387:	0f 58 c8             	addps  %xmm0,%xmm1
    238a:	0f 5c c2             	subps  %xmm2,%xmm0
    238d:	f3 0f 10 c1          	movss  %xmm1,%xmm0
    2391:	0f 13 44 10 f8       	movlps %xmm0,-0x8(%rax,%rdx,1)
    2396:	49 39 c2             	cmp    %rax,%r10
    2399:	74 79                	je     2414 <riscv_dsp_cifft_rd2_f32+0x1a4>
    239b:	83 c6 01             	add    $0x1,%esi
    239e:	44 89 c3             	mov    %r8d,%ebx
    23a1:	41 89 f3             	mov    %esi,%r11d
    23a4:	41 d3 e3             	shl    %cl,%r11d
    23a7:	44 29 db             	sub    %r11d,%ebx
    23aa:	85 db                	test   %ebx,%ebx
    23ac:	0f 8f 62 ff ff ff    	jg     2314 <riscv_dsp_cifft_rd2_f32+0xa4>
    23b2:	41 8d 9b 00 ff ff ff 	lea    -0x100(%r11),%ebx
    23b9:	44 89 c5             	mov    %r8d,%ebp
    23bc:	29 dd                	sub    %ebx,%ebp
    23be:	85 ed                	test   %ebp,%ebp
    23c0:	7e 18                	jle    23da <riscv_dsp_cifft_rd2_f32+0x16a>
    23c2:	48 63 ed             	movslq %ebp,%rbp
    23c5:	48 63 db             	movslq %ebx,%rbx
    23c8:	f3 0f 10 04 af       	movss  (%rdi,%rbp,4),%xmm0
    23cd:	f3 0f 10 14 9f       	movss  (%rdi,%rbx,4),%xmm2
    23d2:	0f 57 c6             	xorps  %xmm6,%xmm0
    23d5:	e9 4b ff ff ff       	jmp    2325 <riscv_dsp_cifft_rd2_f32+0xb5>
    23da:	41 81 eb 00 02 00 00 	sub    $0x200,%r11d
    23e1:	44 89 c3             	mov    %r8d,%ebx
    23e4:	44 29 db             	sub    %r11d,%ebx
    23e7:	4d 63 db             	movslq %r11d,%r11
    23ea:	f3 42 0f 10 14 9f    	movss  (%rdi,%r11,4),%xmm2
    23f0:	48 63 eb             	movslq %ebx,%rbp
    23f3:	f3 0f 10 04 af       	movss  (%rdi,%rbp,4),%xmm0
    23f8:	0f 57 d6             	xorps  %xmm6,%xmm2
    23fb:	85 db                	test   %ebx,%ebx
    23fd:	0f 8e 22 ff ff ff    	jle    2325 <riscv_dsp_cifft_rd2_f32+0xb5>
    2403:	0f 28 c8             	movaps %xmm0,%xmm1
    2406:	0f 28 c2             	movaps %xmm2,%xmm0
    2409:	0f 57 ce             	xorps  %xmm6,%xmm1
    240c:	0f 28 d1             	movaps %xmm1,%xmm2
    240f:	e9 11 ff ff ff       	jmp    2325 <riscv_dsp_cifft_rd2_f32+0xb5>
    2414:	8b 44 24 f0          	mov    -0x10(%rsp),%eax
    2418:	44 8b 74 24 f4       	mov    -0xc(%rsp),%r14d
    241d:	ba 02 00 00 00       	mov    $0x2,%edx
    2422:	89 c3                	mov    %eax,%ebx
    2424:	83 eb 02             	sub    $0x2,%ebx
    2427:	89 5c 24 ec          	mov    %ebx,-0x14(%rsp)
    242b:	0f 84 8c 08 00 00    	je     2cbd <riscv_dsp_cifft_rd2_f32+0xa4d>
    2431:	b9 0a 00 00 00       	mov    $0xa,%ecx
    2436:	4c 8d 15 eb 45 00 00 	lea    0x45eb(%rip),%r10        # 6a28 <riscv_dsp_cos_table_f32_1024+0x8>
    243d:	bb 00 01 00 00       	mov    $0x100,%ebx
    2442:	29 c1                	sub    %eax,%ecx
    2444:	0f 1f 40 00          	nopl   0x0(%rax)
    2448:	41 d1 ee             	shr    %r14d
    244b:	44 89 f0             	mov    %r14d,%eax
    244e:	4c 8d 2c 85 00 00 00 	lea    0x0(,%rax,4),%r13
    2455:	00 
    2456:	4b 8d 2c 29          	lea    (%r9,%r13,1),%rbp
    245a:	85 d2                	test   %edx,%edx
    245c:	0f 84 8a 00 00 00    	je     24ec <riscv_dsp_cifft_rd2_f32+0x27c>
    2462:	4b 8d 74 2d 04       	lea    0x4(%r13,%r13,1),%rsi
    2467:	4c 8d 04 c5 00 00 00 	lea    0x0(,%rax,8),%r8
    246e:	00 
    246f:	49 39 f5             	cmp    %rsi,%r13
    2472:	0f 8e 08 08 00 00    	jle    2c80 <riscv_dsp_cifft_rd2_f32+0xa10>
    2478:	49 83 f8 07          	cmp    $0x7,%r8
    247c:	40 0f 97 c7          	seta   %dil
    2480:	4d 85 ed             	test   %r13,%r13
    2483:	40 0f 95 c6          	setne  %sil
    2487:	40 84 f7             	test   %sil,%dil
    248a:	0f 84 f0 07 00 00    	je     2c80 <riscv_dsp_cifft_rd2_f32+0xa10>
    2490:	41 89 d7             	mov    %edx,%r15d
    2493:	49 89 c4             	mov    %rax,%r12
    2496:	4c 89 cf             	mov    %r9,%rdi
    2499:	48 89 ee             	mov    %rbp,%rsi
    249c:	41 d1 ef             	shr    %r15d
    249f:	49 c1 e4 04          	shl    $0x4,%r12
    24a3:	45 31 db             	xor    %r11d,%r11d
    24a6:	66 2e 0f 1f 84 00 00 	cs nopw 0x0(%rax,%rax,1)
    24ad:	00 00 00 
    24b0:	f3 0f 7e 0e          	movq   (%rsi),%xmm1
    24b4:	f3 0f 7e 07          	movq   (%rdi),%xmm0
    24b8:	41 83 c3 01          	add    $0x1,%r11d
    24bc:	42 0f 16 0c 06       	movhps (%rsi,%r8,1),%xmm1
    24c1:	42 0f 16 04 07       	movhps (%rdi,%r8,1),%xmm0
    24c6:	0f 28 d1             	movaps %xmm1,%xmm2
    24c9:	0f 58 d0             	addps  %xmm0,%xmm2
    24cc:	0f 5c c1             	subps  %xmm1,%xmm0
    24cf:	66 0f d6 17          	movq   %xmm2,(%rdi)
    24d3:	42 0f 17 14 07       	movhps %xmm2,(%rdi,%r8,1)
    24d8:	4c 01 e7             	add    %r12,%rdi
    24db:	66 0f d6 06          	movq   %xmm0,(%rsi)
    24df:	42 0f 17 04 06       	movhps %xmm0,(%rsi,%r8,1)
    24e4:	4c 01 e6             	add    %r12,%rsi
    24e7:	45 39 df             	cmp    %r11d,%r15d
    24ea:	75 c4                	jne    24b0 <riscv_dsp_cifft_rd2_f32+0x240>
    24ec:	48 39 6c 24 e0       	cmp    %rbp,-0x20(%rsp)
    24f1:	0f 84 aa 00 00 00    	je     25a1 <riscv_dsp_cifft_rd2_f32+0x331>
    24f7:	4c 8b 44 24 e0       	mov    -0x20(%rsp),%r8
    24fc:	4f 8d 5c 29 08       	lea    0x8(%r9,%r13,1),%r11
    2501:	48 c1 e0 03          	shl    $0x3,%rax
    2505:	45 31 e4             	xor    %r12d,%r12d
    2508:	0f 1f 84 00 00 00 00 	nopl   0x0(%rax,%rax,1)
    250f:	00 
    2510:	41 01 d4             	add    %edx,%r12d
    2513:	89 df                	mov    %ebx,%edi
    2515:	44 89 e6             	mov    %r12d,%esi
    2518:	d3 e6                	shl    %cl,%esi
    251a:	29 f7                	sub    %esi,%edi
    251c:	85 ff                	test   %edi,%edi
    251e:	0f 8e f4 06 00 00    	jle    2c18 <riscv_dsp_cifft_rd2_f32+0x9a8>
    2524:	48 63 f6             	movslq %esi,%rsi
    2527:	48 63 ff             	movslq %edi,%rdi
    252a:	f3 41 0f 10 24 b2    	movss  (%r10,%rsi,4),%xmm4
    2530:	f3 41 0f 10 2c ba    	movss  (%r10,%rdi,4),%xmm5
    2536:	85 d2                	test   %edx,%edx
    2538:	74 56                	je     2590 <riscv_dsp_cifft_rd2_f32+0x320>
    253a:	4c 89 c7             	mov    %r8,%rdi
    253d:	4c 89 de             	mov    %r11,%rsi
    2540:	45 31 ed             	xor    %r13d,%r13d
    2543:	0f c6 e4 e0          	shufps $0xe0,%xmm4,%xmm4
    2547:	0f c6 ed e0          	shufps $0xe0,%xmm5,%xmm5
    254b:	0f 1f 44 00 00       	nopl   0x0(%rax,%rax,1)
    2550:	f3 0f 7e 1f          	movq   (%rdi),%xmm3
    2554:	f3 0f 7e 16          	movq   (%rsi),%xmm2
    2558:	0f 28 cc             	movaps %xmm4,%xmm1
    255b:	41 83 c5 01          	add    $0x1,%r13d
    255f:	0f 28 c3             	movaps %xmm3,%xmm0
    2562:	0f 5c c2             	subps  %xmm2,%xmm0
    2565:	0f 58 d3             	addps  %xmm3,%xmm2
    2568:	0f 59 c8             	mulps  %xmm0,%xmm1
    256b:	0f 13 17             	movlps %xmm2,(%rdi)
    256e:	48 01 c7             	add    %rax,%rdi
    2571:	0f 59 c5             	mulps  %xmm5,%xmm0
    2574:	0f c6 c0 e1          	shufps $0xe1,%xmm0,%xmm0
    2578:	0f 28 d0             	movaps %xmm0,%xmm2
    257b:	0f 58 d1             	addps  %xmm1,%xmm2
    257e:	0f 5c c8             	subps  %xmm0,%xmm1
    2581:	f3 0f 10 ca          	movss  %xmm2,%xmm1
    2585:	0f 13 0e             	movlps %xmm1,(%rsi)
    2588:	48 01 c6             	add    %rax,%rsi
    258b:	41 39 d5             	cmp    %edx,%r13d
    258e:	75 c0                	jne    2550 <riscv_dsp_cifft_rd2_f32+0x2e0>
    2590:	49 83 c0 08          	add    $0x8,%r8
    2594:	49 83 c3 08          	add    $0x8,%r11
    2598:	4c 39 c5             	cmp    %r8,%rbp
    259b:	0f 85 6f ff ff ff    	jne    2510 <riscv_dsp_cifft_rd2_f32+0x2a0>
    25a1:	01 d2                	add    %edx,%edx
    25a3:	83 6c 24 ec 01       	subl   $0x1,-0x14(%rsp)
    25a8:	0f 85 9a fe ff ff    	jne    2448 <riscv_dsp_cifft_rd2_f32+0x1d8>
    25ae:	8b 5c 24 f0          	mov    -0x10(%rsp),%ebx
    25b2:	48 8d 05 a7 4a 00 00 	lea    0x4aa7(%rip),%rax        # 7060 <riscv_dsp_recip_table_f32>
    25b9:	8d 53 ff             	lea    -0x1(%rbx),%edx
    25bc:	89 d9                	mov    %ebx,%ecx
    25be:	f3 0f 10 24 90       	movss  (%rax,%rdx,4),%xmm4
    25c3:	b8 02 00 00 00       	mov    $0x2,%eax
    25c8:	d3 e0                	shl    %cl,%eax
    25ca:	48 8d 0c 85 00 00 00 	lea    0x0(,%rax,4),%rcx
    25d1:	00 
    25d2:	0f c6 e4 00          	shufps $0x0,%xmm4,%xmm4
    25d6:	49 8d 3c 09          	lea    (%r9,%rcx,1),%rdi
    25da:	49 39 f9             	cmp    %rdi,%r9
    25dd:	0f 84 88 03 00 00    	je     296b <riscv_dsp_cifft_rd2_f32+0x6fb>
    25e3:	48 8d 51 e0          	lea    -0x20(%rcx),%rdx
    25e7:	4c 89 c8             	mov    %r9,%rax
    25ea:	48 89 d6             	mov    %rdx,%rsi
    25ed:	48 c1 ee 05          	shr    $0x5,%rsi
    25f1:	48 83 c6 01          	add    $0x1,%rsi
    25f5:	48 83 fa 40          	cmp    $0x40,%rdx
    25f9:	0f 86 06 02 00 00    	jbe    2805 <riscv_dsp_cifft_rd2_f32+0x595>
    25ff:	48 89 f2             	mov    %rsi,%rdx
    2602:	0f 28 2d e7 3b 00 00 	movaps 0x3be7(%rip),%xmm5        # 61f0 <_IO_stdin_used+0x1f0>
    2609:	48 c1 ea 02          	shr    $0x2,%rdx
    260d:	48 c1 e2 07          	shl    $0x7,%rdx
    2611:	4c 01 ca             	add    %r9,%rdx
    2614:	0f 10 38             	movups (%rax),%xmm7
    2617:	0f 10 50 10          	movups 0x10(%rax),%xmm2
    261b:	48 83 e8 80          	sub    $0xffffffffffffff80,%rax
    261f:	0f 10 58 a0          	movups -0x60(%rax),%xmm3
    2623:	0f 10 48 c0          	movups -0x40(%rax),%xmm1
    2627:	44 0f 28 df          	movaps %xmm7,%xmm11
    262b:	0f c6 fa dd          	shufps $0xdd,%xmm2,%xmm7
    262f:	0f 10 40 e0          	movups -0x20(%rax),%xmm0
    2633:	44 0f c6 da 88       	shufps $0x88,%xmm2,%xmm11
    2638:	0f 10 50 b0          	movups -0x50(%rax),%xmm2
    263c:	44 0f 28 d3          	movaps %xmm3,%xmm10
    2640:	44 0f 28 c1          	movaps %xmm1,%xmm8
    2644:	44 0f 28 c8          	movaps %xmm0,%xmm9
    2648:	44 0f c6 d2 88       	shufps $0x88,%xmm2,%xmm10
    264d:	0f c6 da dd          	shufps $0xdd,%xmm2,%xmm3
    2651:	0f 10 50 d0          	movups -0x30(%rax),%xmm2
    2655:	44 0f c6 c2 88       	shufps $0x88,%xmm2,%xmm8
    265a:	0f c6 ca dd          	shufps $0xdd,%xmm2,%xmm1
    265e:	0f 10 50 f0          	movups -0x10(%rax),%xmm2
    2662:	45 0f 28 e0          	movaps %xmm8,%xmm12
    2666:	44 0f c6 ca 88       	shufps $0x88,%xmm2,%xmm9
    266b:	0f c6 c2 dd          	shufps $0xdd,%xmm2,%xmm0
    266f:	41 0f 28 d3          	movaps %xmm11,%xmm2
    2673:	45 0f c6 da dd       	shufps $0xdd,%xmm10,%xmm11
    2678:	41 0f c6 d2 88       	shufps $0x88,%xmm10,%xmm2
    267d:	44 0f 28 d7          	movaps %xmm7,%xmm10
    2681:	0f c6 fb dd          	shufps $0xdd,%xmm3,%xmm7
    2685:	45 0f 28 eb          	movaps %xmm11,%xmm13
    2689:	45 0f c6 e1 88       	shufps $0x88,%xmm9,%xmm12
    268e:	45 0f c6 c1 dd       	shufps $0xdd,%xmm9,%xmm8
    2693:	44 0f c6 d3 88       	shufps $0x88,%xmm3,%xmm10
    2698:	44 0f 28 c9          	movaps %xmm1,%xmm9
    269c:	0f 28 da             	movaps %xmm2,%xmm3
    269f:	44 0f c6 c8 88       	shufps $0x88,%xmm0,%xmm9
    26a4:	0f c6 c8 dd          	shufps $0xdd,%xmm0,%xmm1
    26a8:	41 0f c6 d4 dd       	shufps $0xdd,%xmm12,%xmm2
    26ad:	41 0f c6 dc 88       	shufps $0x88,%xmm12,%xmm3
    26b2:	0f 28 c7             	movaps %xmm7,%xmm0
    26b5:	45 0f 28 e2          	movaps %xmm10,%xmm12
    26b9:	45 0f c6 d1 dd       	shufps $0xdd,%xmm9,%xmm10
    26be:	45 0f c6 e1 88       	shufps $0x88,%xmm9,%xmm12
    26c3:	0f c6 c1 88          	shufps $0x88,%xmm1,%xmm0
    26c7:	44 0f 28 c8          	movaps %xmm0,%xmm9
    26cb:	45 0f c6 d8 dd       	shufps $0xdd,%xmm8,%xmm11
    26d0:	45 0f c6 e8 88       	shufps $0x88,%xmm8,%xmm13
    26d5:	44 0f 57 cd          	xorps  %xmm5,%xmm9
    26d9:	45 0f 28 c5          	movaps %xmm13,%xmm8
    26dd:	0f c6 f9 dd          	shufps $0xdd,%xmm1,%xmm7
    26e1:	44 0f 58 c3          	addps  %xmm3,%xmm8
    26e5:	45 0f 5c cc          	subps  %xmm12,%xmm9
    26e9:	41 0f 5c dd          	subps  %xmm13,%xmm3
    26ed:	41 0f 5c c4          	subps  %xmm12,%xmm0
    26f1:	45 0f 28 eb          	movaps %xmm11,%xmm13
    26f5:	44 0f 28 e7          	movaps %xmm7,%xmm12
    26f9:	44 0f 58 ea          	addps  %xmm2,%xmm13
    26fd:	41 0f 5c d3          	subps  %xmm11,%xmm2
    2701:	41 0f 5c fa          	subps  %xmm10,%xmm7
    2705:	44 0f 59 c4          	mulps  %xmm4,%xmm8
    2709:	44 0f 57 e5          	xorps  %xmm5,%xmm12
    270d:	45 0f 5c e2          	subps  %xmm10,%xmm12
    2711:	44 0f 59 cc          	mulps  %xmm4,%xmm9
    2715:	0f 59 d4             	mulps  %xmm4,%xmm2
    2718:	0f 59 dc             	mulps  %xmm4,%xmm3
    271b:	0f 28 cf             	movaps %xmm7,%xmm1
    271e:	44 0f 59 e4          	mulps  %xmm4,%xmm12
    2722:	44 0f 59 ec          	mulps  %xmm4,%xmm13
    2726:	0f 59 c4             	mulps  %xmm4,%xmm0
    2729:	41 0f 28 f9          	movaps %xmm9,%xmm7
    272d:	0f 59 cc             	mulps  %xmm4,%xmm1
    2730:	44 0f 28 da          	movaps %xmm2,%xmm11
    2734:	41 0f 28 d0          	movaps %xmm8,%xmm2
    2738:	41 0f 14 fc          	unpcklps %xmm12,%xmm7
    273c:	45 0f 15 cc          	unpckhps %xmm12,%xmm9
    2740:	44 0f 28 e3          	movaps %xmm3,%xmm12
    2744:	41 0f 14 d5          	unpcklps %xmm13,%xmm2
    2748:	45 0f 14 e3          	unpcklps %xmm11,%xmm12
    274c:	41 0f 15 db          	unpckhps %xmm11,%xmm3
    2750:	44 0f 28 d2          	movaps %xmm2,%xmm10
    2754:	44 0f 28 d8          	movaps %xmm0,%xmm11
    2758:	41 0f 15 d4          	unpckhps %xmm12,%xmm2
    275c:	44 0f 14 d9          	unpcklps %xmm1,%xmm11
    2760:	45 0f 14 d4          	unpcklps %xmm12,%xmm10
    2764:	44 0f 28 e7          	movaps %xmm7,%xmm12
    2768:	0f 15 c1             	unpckhps %xmm1,%xmm0
    276b:	45 0f 14 e3          	unpcklps %xmm11,%xmm12
    276f:	41 0f 15 fb          	unpckhps %xmm11,%xmm7
    2773:	45 0f 28 d9          	movaps %xmm9,%xmm11
    2777:	44 0f 15 c8          	unpckhps %xmm0,%xmm9
    277b:	45 0f 15 c5          	unpckhps %xmm13,%xmm8
    277f:	44 0f 14 d8          	unpcklps %xmm0,%xmm11
    2783:	41 0f 28 c2          	movaps %xmm10,%xmm0
    2787:	41 0f 28 c8          	movaps %xmm8,%xmm1
    278b:	41 0f 14 c4          	unpcklps %xmm12,%xmm0
    278f:	0f 14 cb             	unpcklps %xmm3,%xmm1
    2792:	44 0f 15 c3          	unpckhps %xmm3,%xmm8
    2796:	0f 11 40 80          	movups %xmm0,-0x80(%rax)
    279a:	0f 28 c2             	movaps %xmm2,%xmm0
    279d:	41 0f 28 da          	movaps %xmm10,%xmm3
    27a1:	0f 15 d7             	unpckhps %xmm7,%xmm2
    27a4:	0f 14 c7             	unpcklps %xmm7,%xmm0
    27a7:	41 0f 15 dc          	unpckhps %xmm12,%xmm3
    27ab:	0f 11 50 b0          	movups %xmm2,-0x50(%rax)
    27af:	0f 11 40 a0          	movups %xmm0,-0x60(%rax)
    27b3:	0f 28 c1             	movaps %xmm1,%xmm0
    27b6:	41 0f 15 cb          	unpckhps %xmm11,%xmm1
    27ba:	41 0f 14 c3          	unpcklps %xmm11,%xmm0
    27be:	0f 11 58 90          	movups %xmm3,-0x70(%rax)
    27c2:	0f 11 40 c0          	movups %xmm0,-0x40(%rax)
    27c6:	41 0f 28 c0          	movaps %xmm8,%xmm0
    27ca:	41 0f 14 c1          	unpcklps %xmm9,%xmm0
    27ce:	0f 11 48 d0          	movups %xmm1,-0x30(%rax)
    27d2:	0f 11 40 e0          	movups %xmm0,-0x20(%rax)
    27d6:	41 0f 28 c0          	movaps %xmm8,%xmm0
    27da:	41 0f 15 c1          	unpckhps %xmm9,%xmm0
    27de:	0f 11 40 f0          	movups %xmm0,-0x10(%rax)
    27e2:	48 39 c2             	cmp    %rax,%rdx
    27e5:	0f 85 29 fe ff ff    	jne    2614 <riscv_dsp_cifft_rd2_f32+0x3a4>
    27eb:	48 89 f2             	mov    %rsi,%rdx
    27ee:	48 83 e2 fc          	and    $0xfffffffffffffffc,%rdx
    27f2:	48 89 d0             	mov    %rdx,%rax
    27f5:	48 c1 e0 05          	shl    $0x5,%rax
    27f9:	4c 01 c8             	add    %r9,%rax
    27fc:	48 39 f2             	cmp    %rsi,%rdx
    27ff:	0f 84 66 01 00 00    	je     296b <riscv_dsp_cifft_rd2_f32+0x6fb>
    2805:	f3 0f 10 40 0c       	movss  0xc(%rax),%xmm0
    280a:	f3 0f 10 08          	movss  (%rax),%xmm1
    280e:	48 8d 50 20          	lea    0x20(%rax),%rdx
    2812:	0f 10 18             	movups (%rax),%xmm3
    2815:	0f 10 50 10          	movups 0x10(%rax),%xmm2
    2819:	0f 28 f8             	movaps %xmm0,%xmm7
    281c:	0f 28 e9             	movaps %xmm1,%xmm5
    281f:	0f 57 fe             	xorps  %xmm6,%xmm7
    2822:	0f 14 e8             	unpcklps %xmm0,%xmm5
    2825:	f3 0f 10 40 10       	movss  0x10(%rax),%xmm0
    282a:	0f c6 db 66          	shufps $0x66,%xmm3,%xmm3
    282e:	0f 14 cf             	unpcklps %xmm7,%xmm1
    2831:	0f c6 d2 66          	shufps $0x66,%xmm2,%xmm2
    2835:	0f 16 cd             	movlhps %xmm5,%xmm1
    2838:	f3 0f 10 68 1c       	movss  0x1c(%rax),%xmm5
    283d:	0f 28 f8             	movaps %xmm0,%xmm7
    2840:	44 0f 28 c5          	movaps %xmm5,%xmm8
    2844:	0f 14 fd             	unpcklps %xmm5,%xmm7
    2847:	0f 28 eb             	movaps %xmm3,%xmm5
    284a:	0f 58 e9             	addps  %xmm1,%xmm5
    284d:	0f 5c cb             	subps  %xmm3,%xmm1
    2850:	44 0f 57 c6          	xorps  %xmm6,%xmm8
    2854:	41 0f 14 c0          	unpcklps %xmm8,%xmm0
    2858:	0f 16 c7             	movlhps %xmm7,%xmm0
    285b:	f3 0f 10 cd          	movss  %xmm5,%xmm1
    285f:	0f 59 cc             	mulps  %xmm4,%xmm1
    2862:	0f 11 08             	movups %xmm1,(%rax)
    2865:	0f 28 ca             	movaps %xmm2,%xmm1
    2868:	0f 58 c8             	addps  %xmm0,%xmm1
    286b:	0f 5c c2             	subps  %xmm2,%xmm0
    286e:	f3 0f 10 c1          	movss  %xmm1,%xmm0
    2872:	0f 59 c4             	mulps  %xmm4,%xmm0
    2875:	0f 11 40 10          	movups %xmm0,0x10(%rax)
    2879:	48 39 d7             	cmp    %rdx,%rdi
    287c:	0f 84 e9 00 00 00    	je     296b <riscv_dsp_cifft_rd2_f32+0x6fb>
    2882:	f3 0f 10 40 2c       	movss  0x2c(%rax),%xmm0
    2887:	f3 0f 10 48 20       	movss  0x20(%rax),%xmm1
    288c:	48 8d 50 40          	lea    0x40(%rax),%rdx
    2890:	0f 10 58 20          	movups 0x20(%rax),%xmm3
    2894:	0f 10 50 30          	movups 0x30(%rax),%xmm2
    2898:	0f 28 f8             	movaps %xmm0,%xmm7
    289b:	0f 28 e9             	movaps %xmm1,%xmm5
    289e:	0f 57 fe             	xorps  %xmm6,%xmm7
    28a1:	0f 14 e8             	unpcklps %xmm0,%xmm5
    28a4:	f3 0f 10 40 30       	movss  0x30(%rax),%xmm0
    28a9:	0f c6 db 66          	shufps $0x66,%xmm3,%xmm3
    28ad:	0f 14 cf             	unpcklps %xmm7,%xmm1
    28b0:	0f c6 d2 66          	shufps $0x66,%xmm2,%xmm2
    28b4:	0f 16 cd             	movlhps %xmm5,%xmm1
    28b7:	f3 0f 10 68 3c       	movss  0x3c(%rax),%xmm5
    28bc:	0f 28 f8             	movaps %xmm0,%xmm7
    28bf:	44 0f 28 c5          	movaps %xmm5,%xmm8
    28c3:	0f 14 fd             	unpcklps %xmm5,%xmm7
    28c6:	0f 28 e9             	movaps %xmm1,%xmm5
    28c9:	0f 58 eb             	addps  %xmm3,%xmm5
    28cc:	0f 5c cb             	subps  %xmm3,%xmm1
    28cf:	44 0f 57 c6          	xorps  %xmm6,%xmm8
    28d3:	41 0f 14 c0          	unpcklps %xmm8,%xmm0
    28d7:	0f 16 c7             	movlhps %xmm7,%xmm0
    28da:	f3 0f 10 cd          	movss  %xmm5,%xmm1
    28de:	0f 59 cc             	mulps  %xmm4,%xmm1
    28e1:	0f 11 48 20          	movups %xmm1,0x20(%rax)
    28e5:	0f 28 c8             	movaps %xmm0,%xmm1
    28e8:	0f 5c c2             	subps  %xmm2,%xmm0
    28eb:	0f 58 ca             	addps  %xmm2,%xmm1
    28ee:	f3 0f 10 c1          	movss  %xmm1,%xmm0
    28f2:	0f 59 c4             	mulps  %xmm4,%xmm0
    28f5:	0f 11 40 30          	movups %xmm0,0x30(%rax)
    28f9:	48 39 d7             	cmp    %rdx,%rdi
    28fc:	74 6d                	je     296b <riscv_dsp_cifft_rd2_f32+0x6fb>
    28fe:	f3 0f 10 40 4c       	movss  0x4c(%rax),%xmm0
    2903:	f3 0f 10 48 40       	movss  0x40(%rax),%xmm1
    2908:	0f 10 58 40          	movups 0x40(%rax),%xmm3
    290c:	0f 10 50 50          	movups 0x50(%rax),%xmm2
    2910:	0f 28 f8             	movaps %xmm0,%xmm7
    2913:	0f 28 e9             	movaps %xmm1,%xmm5
    2916:	0f 57 fe             	xorps  %xmm6,%xmm7
    2919:	0f 14 e8             	unpcklps %xmm0,%xmm5
    291c:	f3 0f 10 40 50       	movss  0x50(%rax),%xmm0
    2921:	0f c6 db 66          	shufps $0x66,%xmm3,%xmm3
    2925:	0f 14 cf             	unpcklps %xmm7,%xmm1
    2928:	0f c6 d2 66          	shufps $0x66,%xmm2,%xmm2
    292c:	0f 16 cd             	movlhps %xmm5,%xmm1
    292f:	f3 0f 10 68 5c       	movss  0x5c(%rax),%xmm5
    2934:	0f 28 f8             	movaps %xmm0,%xmm7
    2937:	0f 57 f5             	xorps  %xmm5,%xmm6
    293a:	0f 14 fd             	unpcklps %xmm5,%xmm7
    293d:	0f 28 e9             	movaps %xmm1,%xmm5
    2940:	0f 58 eb             	addps  %xmm3,%xmm5
    2943:	0f 5c cb             	subps  %xmm3,%xmm1
    2946:	0f 14 c6             	unpcklps %xmm6,%xmm0
    2949:	0f 16 c7             	movlhps %xmm7,%xmm0
    294c:	f3 0f 10 cd          	movss  %xmm5,%xmm1
    2950:	0f 59 cc             	mulps  %xmm4,%xmm1
    2953:	0f 11 48 40          	movups %xmm1,0x40(%rax)
    2957:	0f 28 c8             	movaps %xmm0,%xmm1
    295a:	0f 5c c2             	subps  %xmm2,%xmm0
    295d:	0f 58 ca             	addps  %xmm2,%xmm1
    2960:	f3 0f 10 c1          	movss  %xmm1,%xmm0
    2964:	0f 59 c4             	mulps  %xmm4,%xmm0
    2967:	0f 11 40 50          	movups %xmm0,0x50(%rax)
    296b:	8b 44 24 f4          	mov    -0xc(%rsp),%eax
    296f:	f3 41 0f 10 41 08    	movss  0x8(%r9),%xmm0
    2975:	49 8d 7c 09 fc       	lea    -0x4(%r9,%rcx,1),%rdi
    297a:	be 04 00 00 00       	mov    $0x4,%esi
    297f:	b9 04 00 00 00       	mov    $0x4,%ecx
    2984:	41 bc fc ff ff ff    	mov    $0xfffffffc,%r12d
    298a:	89 c3                	mov    %eax,%ebx
    298c:	d1 eb                	shr    %ebx
    298e:	41 89 d8             	mov    %ebx,%r8d
    2991:	89 c3                	mov    %eax,%ebx
    2993:	83 e0 fe             	and    $0xfffffffe,%eax
    2996:	89 c2                	mov    %eax,%edx
    2998:	83 c0 01             	add    $0x1,%eax
    299b:	49 8d 14 91          	lea    (%r9,%rdx,4),%rdx
    299f:	49 8d 04 81          	lea    (%r9,%rax,4),%rax
    29a3:	f3 0f 10 0a          	movss  (%rdx),%xmm1
    29a7:	f3 41 0f 11 49 08    	movss  %xmm1,0x8(%r9)
    29ad:	f3 0f 11 02          	movss  %xmm0,(%rdx)
    29b1:	f3 0f 10 08          	movss  (%rax),%xmm1
    29b5:	f3 41 0f 10 41 0c    	movss  0xc(%r9),%xmm0
    29bb:	f3 41 0f 11 49 0c    	movss  %xmm1,0xc(%r9)
    29c1:	f3 0f 11 00          	movss  %xmm0,(%rax)
    29c5:	89 d8                	mov    %ebx,%eax
    29c7:	c1 eb 02             	shr    $0x2,%ebx
    29ca:	41 89 da             	mov    %ebx,%r10d
    29cd:	44 89 c3             	mov    %r8d,%ebx
    29d0:	41 89 c3             	mov    %eax,%r11d
    29d3:	44 89 c0             	mov    %r8d,%eax
    29d6:	44 31 d3             	xor    %r10d,%ebx
    29d9:	41 c1 eb 03          	shr    $0x3,%r11d
    29dd:	89 dd                	mov    %ebx,%ebp
    29df:	44 31 dd             	xor    %r11d,%ebp
    29e2:	66 0f 1f 44 00 00    	nopw   0x0(%rax,%rax,1)
    29e8:	31 d8                	xor    %ebx,%eax
    29ea:	41 85 c2             	test   %eax,%r10d
    29ed:	75 11                	jne    2a00 <riscv_dsp_cifft_rd2_f32+0x790>
    29ef:	44 89 d2             	mov    %r10d,%edx
    29f2:	66 0f 1f 44 00 00    	nopw   0x0(%rax,%rax,1)
    29f8:	d1 ea                	shr    %edx
    29fa:	31 d0                	xor    %edx,%eax
    29fc:	85 c2                	test   %eax,%edx
    29fe:	74 f8                	je     29f8 <riscv_dsp_cifft_rd2_f32+0x788>
    2a00:	8d 56 fe             	lea    -0x2(%rsi),%edx
    2a03:	39 d0                	cmp    %edx,%eax
    2a05:	0f 86 9e 00 00 00    	jbe    2aa9 <riscv_dsp_cifft_rd2_f32+0x839>
    2a0b:	89 ca                	mov    %ecx,%edx
    2a0d:	44 8d 2c 00          	lea    (%rax,%rax,1),%r13d
    2a11:	4d 8d 34 91          	lea    (%r9,%rdx,4),%r14
    2a15:	4c 89 ea             	mov    %r13,%rdx
    2a18:	4f 8d 2c a9          	lea    (%r9,%r13,4),%r13
    2a1c:	f3 41 0f 10 06       	movss  (%r14),%xmm0
    2a21:	f3 41 0f 10 4d 00    	movss  0x0(%r13),%xmm1
    2a27:	83 c2 01             	add    $0x1,%edx
    2a2a:	49 8d 14 91          	lea    (%r9,%rdx,4),%rdx
    2a2e:	f3 41 0f 11 0e       	movss  %xmm1,(%r14)
    2a33:	f3 41 0f 11 45 00    	movss  %xmm0,0x0(%r13)
    2a39:	44 8d 69 01          	lea    0x1(%rcx),%r13d
    2a3d:	f3 0f 10 0a          	movss  (%rdx),%xmm1
    2a41:	4f 8d 2c a9          	lea    (%r9,%r13,4),%r13
    2a45:	f3 41 0f 10 45 00    	movss  0x0(%r13),%xmm0
    2a4b:	f3 41 0f 11 4d 00    	movss  %xmm1,0x0(%r13)
    2a51:	41 89 cd             	mov    %ecx,%r13d
    2a54:	41 f7 dd             	neg    %r13d
    2a57:	f3 0f 11 02          	movss  %xmm0,(%rdx)
    2a5b:	89 c2                	mov    %eax,%edx
    2a5d:	4d 63 ed             	movslq %r13d,%r13
    2a60:	f7 da                	neg    %edx
    2a62:	49 c1 e5 02          	shl    $0x2,%r13
    2a66:	01 d2                	add    %edx,%edx
    2a68:	4e 8d 34 2f          	lea    (%rdi,%r13,1),%r14
    2a6c:	4e 8d 6c 2f fc       	lea    -0x4(%rdi,%r13,1),%r13
    2a71:	48 63 d2             	movslq %edx,%rdx
    2a74:	f3 41 0f 10 06       	movss  (%r14),%xmm0
    2a79:	48 c1 e2 02          	shl    $0x2,%rdx
    2a7d:	4c 8d 3c 17          	lea    (%rdi,%rdx,1),%r15
    2a81:	48 8d 54 17 fc       	lea    -0x4(%rdi,%rdx,1),%rdx
    2a86:	f3 41 0f 10 0f       	movss  (%r15),%xmm1
    2a8b:	f3 41 0f 11 0e       	movss  %xmm1,(%r14)
    2a90:	f3 41 0f 11 07       	movss  %xmm0,(%r15)
    2a95:	f3 41 0f 10 45 00    	movss  0x0(%r13),%xmm0
    2a9b:	f3 0f 10 0a          	movss  (%rdx),%xmm1
    2a9f:	f3 41 0f 11 4d 00    	movss  %xmm1,0x0(%r13)
    2aa5:	f3 0f 11 02          	movss  %xmm0,(%rdx)
    2aa9:	8d 51 02             	lea    0x2(%rcx),%edx
    2aac:	44 01 c0             	add    %r8d,%eax
    2aaf:	4d 8d 2c 91          	lea    (%r9,%rdx,4),%r13
    2ab3:	8d 14 00             	lea    (%rax,%rax,1),%edx
    2ab6:	49 89 d6             	mov    %rdx,%r14
    2ab9:	49 8d 14 91          	lea    (%r9,%rdx,4),%rdx
    2abd:	f3 41 0f 10 45 00    	movss  0x0(%r13),%xmm0
    2ac3:	f3 0f 10 0a          	movss  (%rdx),%xmm1
    2ac7:	f3 41 0f 11 4d 00    	movss  %xmm1,0x0(%r13)
    2acd:	f3 0f 11 02          	movss  %xmm0,(%rdx)
    2ad1:	8d 51 03             	lea    0x3(%rcx),%edx
    2ad4:	4d 8d 2c 91          	lea    (%r9,%rdx,4),%r13
    2ad8:	41 8d 56 01          	lea    0x1(%r14),%edx
    2adc:	49 8d 14 91          	lea    (%r9,%rdx,4),%rdx
    2ae0:	f3 41 0f 10 45 00    	movss  0x0(%r13),%xmm0
    2ae6:	f3 0f 10 0a          	movss  (%rdx),%xmm1
    2aea:	f3 41 0f 11 4d 00    	movss  %xmm1,0x0(%r13)
    2af0:	f3 0f 11 02          	movss  %xmm0,(%rdx)
    2af4:	41 39 f0             	cmp    %esi,%r8d
    2af7:	0f 86 b3 01 00 00    	jbe    2cb0 <riscv_dsp_cifft_rd2_f32+0xa40>
    2afd:	31 e8                	xor    %ebp,%eax
    2aff:	41 85 c3             	test   %eax,%r11d
    2b02:	75 14                	jne    2b18 <riscv_dsp_cifft_rd2_f32+0x8a8>
    2b04:	44 89 da             	mov    %r11d,%edx
    2b07:	66 0f 1f 84 00 00 00 	nopw   0x0(%rax,%rax,1)
    2b0e:	00 00 
    2b10:	d1 ea                	shr    %edx
    2b12:	31 d0                	xor    %edx,%eax
    2b14:	85 c2                	test   %eax,%edx
    2b16:	74 f8                	je     2b10 <riscv_dsp_cifft_rd2_f32+0x8a0>
    2b18:	39 c6                	cmp    %eax,%esi
    2b1a:	0f 83 9f 00 00 00    	jae    2bbf <riscv_dsp_cifft_rd2_f32+0x94f>
    2b20:	8d 51 04             	lea    0x4(%rcx),%edx
    2b23:	44 8d 2c 00          	lea    (%rax,%rax,1),%r13d
    2b27:	4d 8d 34 91          	lea    (%r9,%rdx,4),%r14
    2b2b:	4c 89 ea             	mov    %r13,%rdx
    2b2e:	4f 8d 2c a9          	lea    (%r9,%r13,4),%r13
    2b32:	f3 41 0f 10 06       	movss  (%r14),%xmm0
    2b37:	f3 41 0f 10 4d 00    	movss  0x0(%r13),%xmm1
    2b3d:	83 c2 01             	add    $0x1,%edx
    2b40:	49 8d 14 91          	lea    (%r9,%rdx,4),%rdx
    2b44:	f3 41 0f 11 0e       	movss  %xmm1,(%r14)
    2b49:	f3 41 0f 11 45 00    	movss  %xmm0,0x0(%r13)
    2b4f:	44 8d 69 05          	lea    0x5(%rcx),%r13d
    2b53:	f3 0f 10 0a          	movss  (%rdx),%xmm1
    2b57:	4f 8d 2c a9          	lea    (%r9,%r13,4),%r13
    2b5b:	f3 41 0f 10 45 00    	movss  0x0(%r13),%xmm0
    2b61:	f3 41 0f 11 4d 00    	movss  %xmm1,0x0(%r13)
    2b67:	45 89 e5             	mov    %r12d,%r13d
    2b6a:	41 29 cd             	sub    %ecx,%r13d
    2b6d:	f3 0f 11 02          	movss  %xmm0,(%rdx)
    2b71:	89 c2                	mov    %eax,%edx
    2b73:	4d 63 ed             	movslq %r13d,%r13
    2b76:	f7 da                	neg    %edx
    2b78:	49 c1 e5 02          	shl    $0x2,%r13
    2b7c:	01 d2                	add    %edx,%edx
    2b7e:	4e 8d 34 2f          	lea    (%rdi,%r13,1),%r14
    2b82:	4e 8d 6c 2f fc       	lea    -0x4(%rdi,%r13,1),%r13
    2b87:	48 63 d2             	movslq %edx,%rdx
    2b8a:	f3 41 0f 10 06       	movss  (%r14),%xmm0
    2b8f:	48 c1 e2 02          	shl    $0x2,%rdx
    2b93:	4c 8d 3c 17          	lea    (%rdi,%rdx,1),%r15
    2b97:	48 8d 54 17 fc       	lea    -0x4(%rdi,%rdx,1),%rdx
    2b9c:	f3 41 0f 10 0f       	movss  (%r15),%xmm1
    2ba1:	f3 41 0f 11 0e       	movss  %xmm1,(%r14)
    2ba6:	f3 41 0f 11 07       	movss  %xmm0,(%r15)
    2bab:	f3 41 0f 10 45 00    	movss  0x0(%r13),%xmm0
    2bb1:	f3 0f 10 0a          	movss  (%rdx),%xmm1
    2bb5:	f3 41 0f 11 4d 00    	movss  %xmm1,0x0(%r13)
    2bbb:	f3 0f 11 02          	movss  %xmm0,(%rdx)
    2bbf:	8d 51 06             	lea    0x6(%rcx),%edx
    2bc2:	44 01 c0             	add    %r8d,%eax
    2bc5:	83 c6 04             	add    $0x4,%esi
    2bc8:	4d 8d 2c 91          	lea    (%r9,%rdx,4),%r13
    2bcc:	8d 14 00             	lea    (%rax,%rax,1),%edx
    2bcf:	49 89 d6             	mov    %rdx,%r14
    2bd2:	49 8d 14 91          	lea    (%r9,%rdx,4),%rdx
    2bd6:	f3 41 0f 10 45 00    	movss  0x0(%r13),%xmm0
    2bdc:	f3 0f 10 0a          	movss  (%rdx),%xmm1
    2be0:	f3 41 0f 11 4d 00    	movss  %xmm1,0x0(%r13)
    2be6:	f3 0f 11 02          	movss  %xmm0,(%rdx)
    2bea:	8d 51 07             	lea    0x7(%rcx),%edx
    2bed:	83 c1 08             	add    $0x8,%ecx
    2bf0:	4d 8d 2c 91          	lea    (%r9,%rdx,4),%r13
    2bf4:	41 8d 56 01          	lea    0x1(%r14),%edx
    2bf8:	49 8d 14 91          	lea    (%r9,%rdx,4),%rdx
    2bfc:	f3 41 0f 10 45 00    	movss  0x0(%r13),%xmm0
    2c02:	f3 0f 10 0a          	movss  (%rdx),%xmm1
    2c06:	f3 41 0f 11 4d 00    	movss  %xmm1,0x0(%r13)
    2c0c:	f3 0f 11 02          	movss  %xmm0,(%rdx)
    2c10:	e9 d3 fd ff ff       	jmp    29e8 <riscv_dsp_cifft_rd2_f32+0x778>
    2c15:	0f 1f 00             	nopl   (%rax)
    2c18:	8d be 00 ff ff ff    	lea    -0x100(%rsi),%edi
    2c1e:	41 89 dd             	mov    %ebx,%r13d
    2c21:	41 29 fd             	sub    %edi,%r13d
    2c24:	45 85 ed             	test   %r13d,%r13d
    2c27:	7e 1f                	jle    2c48 <riscv_dsp_cifft_rd2_f32+0x9d8>
    2c29:	4d 63 ed             	movslq %r13d,%r13
    2c2c:	48 63 ff             	movslq %edi,%rdi
    2c2f:	f3 43 0f 10 24 aa    	movss  (%r10,%r13,4),%xmm4
    2c35:	f3 41 0f 10 2c ba    	movss  (%r10,%rdi,4),%xmm5
    2c3b:	0f 57 e6             	xorps  %xmm6,%xmm4
    2c3e:	e9 f3 f8 ff ff       	jmp    2536 <riscv_dsp_cifft_rd2_f32+0x2c6>
    2c43:	0f 1f 44 00 00       	nopl   0x0(%rax,%rax,1)
    2c48:	81 ee 00 02 00 00    	sub    $0x200,%esi
    2c4e:	89 df                	mov    %ebx,%edi
    2c50:	29 f7                	sub    %esi,%edi
    2c52:	48 63 f6             	movslq %esi,%rsi
    2c55:	f3 41 0f 10 2c b2    	movss  (%r10,%rsi,4),%xmm5
    2c5b:	4c 63 ef             	movslq %edi,%r13
    2c5e:	f3 43 0f 10 24 aa    	movss  (%r10,%r13,4),%xmm4
    2c64:	0f 57 ee             	xorps  %xmm6,%xmm5
    2c67:	85 ff                	test   %edi,%edi
    2c69:	0f 8e c7 f8 ff ff    	jle    2536 <riscv_dsp_cifft_rd2_f32+0x2c6>
    2c6f:	0f 57 e6             	xorps  %xmm6,%xmm4
    2c72:	0f 28 c4             	movaps %xmm4,%xmm0
    2c75:	0f 28 e5             	movaps %xmm5,%xmm4
    2c78:	0f 28 e8             	movaps %xmm0,%xmm5
    2c7b:	e9 b6 f8 ff ff       	jmp    2536 <riscv_dsp_cifft_rd2_f32+0x2c6>
    2c80:	4c 89 ce             	mov    %r9,%rsi
    2c83:	89 d7                	mov    %edx,%edi
    2c85:	0f 1f 00             	nopl   (%rax)
    2c88:	f3 42 0f 7e 0c 2e    	movq   (%rsi,%r13,1),%xmm1
    2c8e:	f3 0f 7e 06          	movq   (%rsi),%xmm0
    2c92:	0f 28 d1             	movaps %xmm1,%xmm2
    2c95:	0f 58 d0             	addps  %xmm0,%xmm2
    2c98:	0f 5c c1             	subps  %xmm1,%xmm0
    2c9b:	0f 13 16             	movlps %xmm2,(%rsi)
    2c9e:	42 0f 13 04 2e       	movlps %xmm0,(%rsi,%r13,1)
    2ca3:	4c 01 c6             	add    %r8,%rsi
    2ca6:	83 ef 01             	sub    $0x1,%edi
    2ca9:	75 dd                	jne    2c88 <riscv_dsp_cifft_rd2_f32+0xa18>
    2cab:	e9 3c f8 ff ff       	jmp    24ec <riscv_dsp_cifft_rd2_f32+0x27c>
    2cb0:	5b                   	pop    %rbx
    2cb1:	31 c0                	xor    %eax,%eax
    2cb3:	5d                   	pop    %rbp
    2cb4:	41 5c                	pop    %r12
    2cb6:	41 5d                	pop    %r13
    2cb8:	41 5e                	pop    %r14
    2cba:	41 5f                	pop    %r15
    2cbc:	c3                   	ret    
    2cbd:	f3 0f 10 25 9f 43 00 	movss  0x439f(%rip),%xmm4        # 7064 <riscv_dsp_recip_table_f32+0x4>
    2cc4:	00 
    2cc5:	49 8d 79 20          	lea    0x20(%r9),%rdi
    2cc9:	4c 89 c8             	mov    %r9,%rax
    2ccc:	b9 20 00 00 00       	mov    $0x20,%ecx
    2cd1:	0f c6 e4 00          	shufps $0x0,%xmm4,%xmm4
    2cd5:	e9 2b fb ff ff       	jmp    2805 <riscv_dsp_cifft_rd2_f32+0x595>
    2cda:	66 0f 1f 44 00 00    	nopw   0x0(%rax,%rax,1)

0000000000002ce0 <riscv_dsp_cfft_rd4_f32>:
    2ce0:	f3 0f 1e fa          	endbr64 
    2ce4:	41 57                	push   %r15
    2ce6:	89 f1                	mov    %esi,%ecx
    2ce8:	b8 01 00 00 00       	mov    $0x1,%eax
    2ced:	41 56                	push   %r14
    2cef:	d3 e0                	shl    %cl,%eax
    2cf1:	49 89 fe             	mov    %rdi,%r14
    2cf4:	41 55                	push   %r13
    2cf6:	41 54                	push   %r12
    2cf8:	55                   	push   %rbp
    2cf9:	53                   	push   %rbx
    2cfa:	f3 0f 10 07          	movss  (%rdi),%xmm0
    2cfe:	f3 0f 10 6f 04       	movss  0x4(%rdi),%xmm5
    2d03:	0f 28 d8             	movaps %xmm0,%xmm3
    2d06:	89 44 24 f0          	mov    %eax,-0x10(%rsp)
    2d0a:	d1 e8                	shr    %eax
    2d0c:	89 74 24 e8          	mov    %esi,-0x18(%rsp)
    2d10:	89 c6                	mov    %eax,%esi
    2d12:	48 c1 e6 02          	shl    $0x2,%rsi
    2d16:	89 44 24 f4          	mov    %eax,-0xc(%rsp)
    2d1a:	4c 8d 1c 37          	lea    (%rdi,%rsi,1),%r11
    2d1e:	49 8d 04 33          	lea    (%r11,%rsi,1),%rax
    2d22:	f3 0f 10 08          	movss  (%rax),%xmm1
    2d26:	48 8d 14 30          	lea    (%rax,%rsi,1),%rdx
    2d2a:	f3 0f 10 12          	movss  (%rdx),%xmm2
    2d2e:	f3 0f 58 d9          	addss  %xmm1,%xmm3
    2d32:	f3 0f 5c c1          	subss  %xmm1,%xmm0
    2d36:	f3 41 0f 10 0b       	movss  (%r11),%xmm1
    2d3b:	0f 28 f9             	movaps %xmm1,%xmm7
    2d3e:	0f 28 e1             	movaps %xmm1,%xmm4
    2d41:	f3 0f 58 fa          	addss  %xmm2,%xmm7
    2d45:	0f 28 cb             	movaps %xmm3,%xmm1
    2d48:	f3 0f 5c e2          	subss  %xmm2,%xmm4
    2d4c:	0f 28 d5             	movaps %xmm5,%xmm2
    2d4f:	f3 0f 58 cf          	addss  %xmm7,%xmm1
    2d53:	f3 0f 5c df          	subss  %xmm7,%xmm3
    2d57:	f3 0f 11 0f          	movss  %xmm1,(%rdi)
    2d5b:	f3 0f 10 48 04       	movss  0x4(%rax),%xmm1
    2d60:	f3 44 0f 10 42 04    	movss  0x4(%rdx),%xmm8
    2d66:	f3 0f 58 d1          	addss  %xmm1,%xmm2
    2d6a:	f3 0f 5c e9          	subss  %xmm1,%xmm5
    2d6e:	f3 41 0f 10 4b 04    	movss  0x4(%r11),%xmm1
    2d74:	0f 28 f1             	movaps %xmm1,%xmm6
    2d77:	f3 41 0f 5c c8       	subss  %xmm8,%xmm1
    2d7c:	f3 41 0f 58 f0       	addss  %xmm8,%xmm6
    2d81:	44 0f 28 c2          	movaps %xmm2,%xmm8
    2d85:	f3 44 0f 58 c6       	addss  %xmm6,%xmm8
    2d8a:	f3 0f 5c d6          	subss  %xmm6,%xmm2
    2d8e:	f3 44 0f 11 47 04    	movss  %xmm8,0x4(%rdi)
    2d94:	f3 41 0f 11 53 04    	movss  %xmm2,0x4(%r11)
    2d9a:	0f 28 d0             	movaps %xmm0,%xmm2
    2d9d:	f3 0f 5c c1          	subss  %xmm1,%xmm0
    2da1:	f3 0f 58 d1          	addss  %xmm1,%xmm2
    2da5:	f3 41 0f 11 1b       	movss  %xmm3,(%r11)
    2daa:	f3 0f 11 10          	movss  %xmm2,(%rax)
    2dae:	0f 28 d5             	movaps %xmm5,%xmm2
    2db1:	f3 0f 5c d4          	subss  %xmm4,%xmm2
    2db5:	f3 0f 58 e5          	addss  %xmm5,%xmm4
    2db9:	f3 0f 11 50 04       	movss  %xmm2,0x4(%rax)
    2dbe:	0f 14 c4             	unpcklps %xmm4,%xmm0
    2dc1:	48 8d 47 08          	lea    0x8(%rdi),%rax
    2dc5:	48 89 44 24 e0       	mov    %rax,-0x20(%rsp)
    2dca:	0f 13 02             	movlps %xmm0,(%rdx)
    2dcd:	49 39 c3             	cmp    %rax,%r11
    2dd0:	0f 84 34 03 00 00    	je     310a <riscv_dsp_cfft_rd4_f32+0x42a>
    2dd6:	f3 0f 10 15 f2 33 00 	movss  0x33f2(%rip),%xmm2        # 61d0 <_IO_stdin_used+0x1d0>
    2ddd:	00 
    2dde:	b9 0a 00 00 00       	mov    $0xa,%ecx
    2de3:	48 8d 54 77 08       	lea    0x8(%rdi,%rsi,2),%rdx
    2de8:	45 31 c9             	xor    %r9d,%r9d
    2deb:	2b 4c 24 e8          	sub    -0x18(%rsp),%ecx
    2def:	0f 28 fa             	movaps %xmm2,%xmm7
    2df2:	0f 28 f2             	movaps %xmm2,%xmm6
    2df5:	41 ba 00 01 00 00    	mov    $0x100,%r10d
    2dfb:	4c 8d 05 26 3c 00 00 	lea    0x3c26(%rip),%r8        # 6a28 <riscv_dsp_cos_table_f32_1024+0x8>
    2e02:	0f 28 ea             	movaps %xmm2,%xmm5
    2e05:	0f 28 e2             	movaps %xmm2,%xmm4
    2e08:	0f 28 da             	movaps %xmm2,%xmm3
    2e0b:	e9 1c 01 00 00       	jmp    2f2c <riscv_dsp_cfft_rd4_f32+0x24c>
    2e10:	48 63 ff             	movslq %edi,%rdi
    2e13:	48 63 db             	movslq %ebx,%rbx
    2e16:	f3 45 0f 10 34 b8    	movss  (%r8,%rdi,4),%xmm14
    2e1c:	f3 45 0f 10 2c 98    	movss  (%r8,%rbx,4),%xmm13
    2e22:	45 0f 28 e1          	movaps %xmm9,%xmm12
    2e26:	44 0f 28 f8          	movaps %xmm0,%xmm15
    2e2a:	44 89 cf             	mov    %r9d,%edi
    2e2d:	44 89 d3             	mov    %r10d,%ebx
    2e30:	f3 45 0f 59 cd       	mulss  %xmm13,%xmm9
    2e35:	d3 e7                	shl    %cl,%edi
    2e37:	f3 41 0f 59 c6       	mulss  %xmm14,%xmm0
    2e3c:	29 fb                	sub    %edi,%ebx
    2e3e:	f3 45 0f 59 e6       	mulss  %xmm14,%xmm12
    2e43:	f3 45 0f 59 fd       	mulss  %xmm13,%xmm15
    2e48:	f3 41 0f 5c c1       	subss  %xmm9,%xmm0
    2e4d:	f3 45 0f 58 e7       	addss  %xmm15,%xmm12
    2e52:	f3 0f 11 44 30 04    	movss  %xmm0,0x4(%rax,%rsi,1)
    2e58:	41 0f 28 c2          	movaps %xmm10,%xmm0
    2e5c:	f3 0f 5c c1          	subss  %xmm1,%xmm0
    2e60:	f3 41 0f 58 ca       	addss  %xmm10,%xmm1
    2e65:	f3 44 0f 11 24 30    	movss  %xmm12,(%rax,%rsi,1)
    2e6b:	45 0f 28 e0          	movaps %xmm8,%xmm12
    2e6f:	f3 45 0f 5c c3       	subss  %xmm11,%xmm8
    2e74:	f3 45 0f 58 e3       	addss  %xmm11,%xmm12
    2e79:	44 0f 28 c9          	movaps %xmm1,%xmm9
    2e7d:	45 0f 14 c8          	unpcklps %xmm8,%xmm9
    2e81:	44 0f 14 c1          	unpcklps %xmm1,%xmm8
    2e85:	85 db                	test   %ebx,%ebx
    2e87:	0f 8e 99 01 00 00    	jle    3026 <riscv_dsp_cfft_rd4_f32+0x346>
    2e8d:	48 63 ff             	movslq %edi,%rdi
    2e90:	48 63 db             	movslq %ebx,%rbx
    2e93:	f3 45 0f 10 14 b8    	movss  (%r8,%rdi,4),%xmm10
    2e99:	f3 45 0f 10 1c 98    	movss  (%r8,%rbx,4),%xmm11
    2e9f:	44 0f 28 e8          	movaps %xmm0,%xmm13
    2ea3:	41 0f 28 cc          	movaps %xmm12,%xmm1
    2ea7:	43 8d 3c 49          	lea    (%r9,%r9,2),%edi
    2eab:	44 89 d3             	mov    %r10d,%ebx
    2eae:	f3 41 0f 59 ca       	mulss  %xmm10,%xmm1
    2eb3:	d3 e7                	shl    %cl,%edi
    2eb5:	f3 45 0f 59 eb       	mulss  %xmm11,%xmm13
    2eba:	29 fb                	sub    %edi,%ebx
    2ebc:	f3 41 0f 59 c2       	mulss  %xmm10,%xmm0
    2ec1:	f3 41 0f 58 cd       	addss  %xmm13,%xmm1
    2ec6:	f3 0f 11 0a          	movss  %xmm1,(%rdx)
    2eca:	41 0f 28 cc          	movaps %xmm12,%xmm1
    2ece:	f3 41 0f 59 cb       	mulss  %xmm11,%xmm1
    2ed3:	f3 0f 5c c1          	subss  %xmm1,%xmm0
    2ed7:	f3 0f 11 42 04       	movss  %xmm0,0x4(%rdx)
    2edc:	85 db                	test   %ebx,%ebx
    2ede:	0f 8e 15 01 00 00    	jle    2ff9 <riscv_dsp_cfft_rd4_f32+0x319>
    2ee4:	48 63 ff             	movslq %edi,%rdi
    2ee7:	48 63 db             	movslq %ebx,%rbx
    2eea:	f3 41 0f 10 04 b8    	movss  (%r8,%rdi,4),%xmm0
    2ef0:	f3 41 0f 10 0c 98    	movss  (%r8,%rbx,4),%xmm1
    2ef6:	0f c6 c9 e0          	shufps $0xe0,%xmm1,%xmm1
    2efa:	41 0f 59 c9          	mulps  %xmm9,%xmm1
    2efe:	0f c6 c0 e0          	shufps $0xe0,%xmm0,%xmm0
    2f02:	48 83 c0 08          	add    $0x8,%rax
    2f06:	41 0f 59 c0          	mulps  %xmm8,%xmm0
    2f0a:	48 83 c2 08          	add    $0x8,%rdx
    2f0e:	44 0f 28 c1          	movaps %xmm1,%xmm8
    2f12:	44 0f 58 c0          	addps  %xmm0,%xmm8
    2f16:	0f 5c c1             	subps  %xmm1,%xmm0
    2f19:	f3 41 0f 10 c0       	movss  %xmm8,%xmm0
    2f1e:	0f 13 44 32 f8       	movlps %xmm0,-0x8(%rdx,%rsi,1)
    2f23:	49 39 c3             	cmp    %rax,%r11
    2f26:	0f 84 de 01 00 00    	je     310a <riscv_dsp_cfft_rd4_f32+0x42a>
    2f2c:	f3 44 0f 10 00       	movss  (%rax),%xmm8
    2f31:	f3 0f 10 02          	movss  (%rdx),%xmm0
    2f35:	41 83 c1 01          	add    $0x1,%r9d
    2f39:	44 89 d3             	mov    %r10d,%ebx
    2f3c:	f3 0f 10 0c 30       	movss  (%rax,%rsi,1),%xmm1
    2f41:	f3 44 0f 10 14 32    	movss  (%rdx,%rsi,1),%xmm10
    2f47:	43 8d 3c 09          	lea    (%r9,%r9,1),%edi
    2f4b:	45 0f 28 c8          	movaps %xmm8,%xmm9
    2f4f:	f3 44 0f 5c c0       	subss  %xmm0,%xmm8
    2f54:	d3 e7                	shl    %cl,%edi
    2f56:	f3 44 0f 58 c8       	addss  %xmm0,%xmm9
    2f5b:	0f 28 c1             	movaps %xmm1,%xmm0
    2f5e:	f3 41 0f 5c ca       	subss  %xmm10,%xmm1
    2f63:	29 fb                	sub    %edi,%ebx
    2f65:	f3 41 0f 58 c2       	addss  %xmm10,%xmm0
    2f6a:	45 0f 28 d1          	movaps %xmm9,%xmm10
    2f6e:	f3 44 0f 58 d0       	addss  %xmm0,%xmm10
    2f73:	f3 44 0f 5c c8       	subss  %xmm0,%xmm9
    2f78:	f3 44 0f 11 10       	movss  %xmm10,(%rax)
    2f7d:	f3 44 0f 10 50 04    	movss  0x4(%rax),%xmm10
    2f83:	f3 44 0f 10 5a 04    	movss  0x4(%rdx),%xmm11
    2f89:	f3 44 0f 10 6c 32 04 	movss  0x4(%rdx,%rsi,1),%xmm13
    2f90:	41 0f 28 c2          	movaps %xmm10,%xmm0
    2f94:	f3 45 0f 5c d3       	subss  %xmm11,%xmm10
    2f99:	f3 41 0f 58 c3       	addss  %xmm11,%xmm0
    2f9e:	f3 44 0f 10 5c 30 04 	movss  0x4(%rax,%rsi,1),%xmm11
    2fa5:	45 0f 28 e3          	movaps %xmm11,%xmm12
    2fa9:	f3 45 0f 5c dd       	subss  %xmm13,%xmm11
    2fae:	f3 45 0f 58 e5       	addss  %xmm13,%xmm12
    2fb3:	44 0f 28 e8          	movaps %xmm0,%xmm13
    2fb7:	f3 45 0f 58 ec       	addss  %xmm12,%xmm13
    2fbc:	f3 41 0f 5c c4       	subss  %xmm12,%xmm0
    2fc1:	f3 44 0f 11 68 04    	movss  %xmm13,0x4(%rax)
    2fc7:	85 db                	test   %ebx,%ebx
    2fc9:	0f 8f 41 fe ff ff    	jg     2e10 <riscv_dsp_cfft_rd4_f32+0x130>
    2fcf:	8d 9f 00 ff ff ff    	lea    -0x100(%rdi),%ebx
    2fd5:	44 89 d5             	mov    %r10d,%ebp
    2fd8:	29 dd                	sub    %ebx,%ebp
    2fda:	85 ed                	test   %ebp,%ebp
    2fdc:	7e 76                	jle    3054 <riscv_dsp_cfft_rd4_f32+0x374>
    2fde:	48 63 ed             	movslq %ebp,%rbp
    2fe1:	48 63 db             	movslq %ebx,%rbx
    2fe4:	f3 45 0f 10 34 a8    	movss  (%r8,%rbp,4),%xmm14
    2fea:	f3 45 0f 10 2c 98    	movss  (%r8,%rbx,4),%xmm13
    2ff0:	44 0f 57 f7          	xorps  %xmm7,%xmm14
    2ff4:	e9 29 fe ff ff       	jmp    2e22 <riscv_dsp_cfft_rd4_f32+0x142>
    2ff9:	8d 9f 00 ff ff ff    	lea    -0x100(%rdi),%ebx
    2fff:	44 89 d5             	mov    %r10d,%ebp
    3002:	29 dd                	sub    %ebx,%ebp
    3004:	85 ed                	test   %ebp,%ebp
    3006:	0f 8e 86 00 00 00    	jle    3092 <riscv_dsp_cfft_rd4_f32+0x3b2>
    300c:	48 63 ed             	movslq %ebp,%rbp
    300f:	48 63 db             	movslq %ebx,%rbx
    3012:	f3 41 0f 10 04 a8    	movss  (%r8,%rbp,4),%xmm0
    3018:	f3 41 0f 10 0c 98    	movss  (%r8,%rbx,4),%xmm1
    301e:	0f 57 c3             	xorps  %xmm3,%xmm0
    3021:	e9 d0 fe ff ff       	jmp    2ef6 <riscv_dsp_cfft_rd4_f32+0x216>
    3026:	8d 9f 00 ff ff ff    	lea    -0x100(%rdi),%ebx
    302c:	44 89 d5             	mov    %r10d,%ebp
    302f:	29 dd                	sub    %ebx,%ebp
    3031:	85 ed                	test   %ebp,%ebp
    3033:	0f 8e 94 00 00 00    	jle    30cd <riscv_dsp_cfft_rd4_f32+0x3ed>
    3039:	48 63 ed             	movslq %ebp,%rbp
    303c:	48 63 db             	movslq %ebx,%rbx
    303f:	f3 45 0f 10 14 a8    	movss  (%r8,%rbp,4),%xmm10
    3045:	f3 45 0f 10 1c 98    	movss  (%r8,%rbx,4),%xmm11
    304b:	44 0f 57 d5          	xorps  %xmm5,%xmm10
    304f:	e9 4b fe ff ff       	jmp    2e9f <riscv_dsp_cfft_rd4_f32+0x1bf>
    3054:	81 ef 00 02 00 00    	sub    $0x200,%edi
    305a:	44 89 d3             	mov    %r10d,%ebx
    305d:	29 fb                	sub    %edi,%ebx
    305f:	48 63 ff             	movslq %edi,%rdi
    3062:	f3 45 0f 10 2c b8    	movss  (%r8,%rdi,4),%xmm13
    3068:	48 63 eb             	movslq %ebx,%rbp
    306b:	f3 45 0f 10 34 a8    	movss  (%r8,%rbp,4),%xmm14
    3071:	44 0f 57 ea          	xorps  %xmm2,%xmm13
    3075:	85 db                	test   %ebx,%ebx
    3077:	0f 8e a5 fd ff ff    	jle    2e22 <riscv_dsp_cfft_rd4_f32+0x142>
    307d:	44 0f 57 f2          	xorps  %xmm2,%xmm14
    3081:	45 0f 28 e6          	movaps %xmm14,%xmm12
    3085:	45 0f 28 f5          	movaps %xmm13,%xmm14
    3089:	45 0f 28 ec          	movaps %xmm12,%xmm13
    308d:	e9 90 fd ff ff       	jmp    2e22 <riscv_dsp_cfft_rd4_f32+0x142>
    3092:	81 ef 00 02 00 00    	sub    $0x200,%edi
    3098:	44 89 d3             	mov    %r10d,%ebx
    309b:	29 fb                	sub    %edi,%ebx
    309d:	48 63 ff             	movslq %edi,%rdi
    30a0:	f3 41 0f 10 0c b8    	movss  (%r8,%rdi,4),%xmm1
    30a6:	48 63 eb             	movslq %ebx,%rbp
    30a9:	f3 41 0f 10 04 a8    	movss  (%r8,%rbp,4),%xmm0
    30af:	0f 57 cc             	xorps  %xmm4,%xmm1
    30b2:	85 db                	test   %ebx,%ebx
    30b4:	0f 8e 3c fe ff ff    	jle    2ef6 <riscv_dsp_cfft_rd4_f32+0x216>
    30ba:	0f 57 c4             	xorps  %xmm4,%xmm0
    30bd:	44 0f 28 d0          	movaps %xmm0,%xmm10
    30c1:	0f 28 c1             	movaps %xmm1,%xmm0
    30c4:	41 0f 28 ca          	movaps %xmm10,%xmm1
    30c8:	e9 29 fe ff ff       	jmp    2ef6 <riscv_dsp_cfft_rd4_f32+0x216>
    30cd:	81 ef 00 02 00 00    	sub    $0x200,%edi
    30d3:	44 89 d3             	mov    %r10d,%ebx
    30d6:	29 fb                	sub    %edi,%ebx
    30d8:	48 63 ff             	movslq %edi,%rdi
    30db:	f3 45 0f 10 1c b8    	movss  (%r8,%rdi,4),%xmm11
    30e1:	48 63 eb             	movslq %ebx,%rbp
    30e4:	f3 45 0f 10 14 a8    	movss  (%r8,%rbp,4),%xmm10
    30ea:	44 0f 57 de          	xorps  %xmm6,%xmm11
    30ee:	85 db                	test   %ebx,%ebx
    30f0:	0f 8e a9 fd ff ff    	jle    2e9f <riscv_dsp_cfft_rd4_f32+0x1bf>
    30f6:	41 0f 28 ca          	movaps %xmm10,%xmm1
    30fa:	45 0f 28 d3          	movaps %xmm11,%xmm10
    30fe:	0f 57 ce             	xorps  %xmm6,%xmm1
    3101:	44 0f 28 d9          	movaps %xmm1,%xmm11
    3105:	e9 95 fd ff ff       	jmp    2e9f <riscv_dsp_cfft_rd4_f32+0x1bf>
    310a:	8b 44 24 e8          	mov    -0x18(%rsp),%eax
    310e:	8b 4c 24 f4          	mov    -0xc(%rsp),%ecx
    3112:	c7 44 24 d0 04 00 00 	movl   $0x4,-0x30(%rsp)
    3119:	00 
    311a:	d1 e8                	shr    %eax
    311c:	89 4c 24 d4          	mov    %ecx,-0x2c(%rsp)
    3120:	83 e8 02             	sub    $0x2,%eax
    3123:	89 44 24 ec          	mov    %eax,-0x14(%rsp)
    3127:	0f 84 53 06 00 00    	je     3780 <riscv_dsp_cfft_rd4_f32+0xaa0>
    312d:	4c 89 74 24 d8       	mov    %r14,-0x28(%rsp)
    3132:	66 0f 1f 44 00 00    	nopw   0x0(%rax,%rax,1)
    3138:	48 8b 44 24 d8       	mov    -0x28(%rsp),%rax
    313d:	8b 74 24 d0          	mov    -0x30(%rsp),%esi
    3141:	c1 6c 24 d4 02       	shrl   $0x2,-0x2c(%rsp)
    3146:	8b 4c 24 d4          	mov    -0x2c(%rsp),%ecx
    314a:	48 8d 14 8d 00 00 00 	lea    0x0(,%rcx,4),%rdx
    3151:	00 
    3152:	4c 8d 34 10          	lea    (%rax,%rdx,1),%r14
    3156:	85 f6                	test   %esi,%esi
    3158:	0f 84 ba 00 00 00    	je     3218 <riscv_dsp_cfft_rd4_f32+0x538>
    315e:	48 89 c3             	mov    %rax,%rbx
    3161:	48 8d 40 04          	lea    0x4(%rax),%rax
    3165:	49 8d 3c 16          	lea    (%r14,%rdx,1),%rdi
    3169:	49 39 c6             	cmp    %rax,%r14
    316c:	48 8d 34 cd 00 00 00 	lea    0x0(,%rcx,8),%rsi
    3173:	00 
    3174:	4c 8d 04 17          	lea    (%rdi,%rdx,1),%r8
    3178:	41 0f 97 c2          	seta   %r10b
    317c:	48 39 f8             	cmp    %rdi,%rax
    317f:	41 0f 92 c1          	setb   %r9b
    3183:	45 84 ca             	test   %r9b,%r10b
    3186:	0f 84 55 0e 00 00    	je     3fe1 <riscv_dsp_cfft_rd4_f32+0x1301>
    318c:	4c 39 c0             	cmp    %r8,%rax
    318f:	0f 83 4c 0e 00 00    	jae    3fe1 <riscv_dsp_cfft_rd4_f32+0x1301>
    3195:	49 89 c9             	mov    %rcx,%r9
    3198:	44 8b 5c 24 d0       	mov    -0x30(%rsp),%r11d
    319d:	31 c0                	xor    %eax,%eax
    319f:	31 f6                	xor    %esi,%esi
    31a1:	49 c1 e1 04          	shl    $0x4,%r9
    31a5:	49 89 da             	mov    %rbx,%r10
    31a8:	0f 1f 84 00 00 00 00 	nopl   0x0(%rax,%rax,1)
    31af:	00 
    31b0:	f3 41 0f 7e 04 02    	movq   (%r10,%rax,1),%xmm0
    31b6:	f3 0f 7e 0c 07       	movq   (%rdi,%rax,1),%xmm1
    31bb:	83 c6 01             	add    $0x1,%esi
    31be:	f3 41 0f 7e 1c 00    	movq   (%r8,%rax,1),%xmm3
    31c4:	0f 28 d0             	movaps %xmm0,%xmm2
    31c7:	0f 58 c1             	addps  %xmm1,%xmm0
    31ca:	0f 5c d1             	subps  %xmm1,%xmm2
    31cd:	f3 41 0f 7e 0c 06    	movq   (%r14,%rax,1),%xmm1
    31d3:	0f 28 e1             	movaps %xmm1,%xmm4
    31d6:	0f 5c cb             	subps  %xmm3,%xmm1
    31d9:	0f 58 e3             	addps  %xmm3,%xmm4
    31dc:	0f 28 da             	movaps %xmm2,%xmm3
    31df:	0f c6 c9 e1          	shufps $0xe1,%xmm1,%xmm1
    31e3:	0f 58 d9             	addps  %xmm1,%xmm3
    31e6:	0f 5c d1             	subps  %xmm1,%xmm2
    31e9:	0f 28 c8             	movaps %xmm0,%xmm1
    31ec:	0f 58 cc             	addps  %xmm4,%xmm1
    31ef:	0f 5c c4             	subps  %xmm4,%xmm0
    31f2:	41 0f 13 0c 02       	movlps %xmm1,(%r10,%rax,1)
    31f7:	41 0f 13 04 06       	movlps %xmm0,(%r14,%rax,1)
    31fc:	0f 28 c2             	movaps %xmm2,%xmm0
    31ff:	f3 0f 10 c3          	movss  %xmm3,%xmm0
    3203:	f3 0f 10 da          	movss  %xmm2,%xmm3
    3207:	0f 13 04 07          	movlps %xmm0,(%rdi,%rax,1)
    320b:	41 0f 13 1c 00       	movlps %xmm3,(%r8,%rax,1)
    3210:	4c 01 c8             	add    %r9,%rax
    3213:	41 39 f3             	cmp    %esi,%r11d
    3216:	75 98                	jne    31b0 <riscv_dsp_cfft_rd4_f32+0x4d0>
    3218:	4c 39 74 24 e0       	cmp    %r14,-0x20(%rsp)
    321d:	0f 84 48 05 00 00    	je     376b <riscv_dsp_cfft_rd4_f32+0xa8b>
    3223:	48 8d 34 11          	lea    (%rcx,%rdx,1),%rsi
    3227:	48 8d 3c 49          	lea    (%rcx,%rcx,2),%rdi
    322b:	b8 0a 00 00 00       	mov    $0xa,%eax
    3230:	2b 44 24 e8          	sub    -0x18(%rsp),%eax
    3234:	48 8d 34 76          	lea    (%rsi,%rsi,2),%rsi
    3238:	4c 8d 0c bd 00 00 00 	lea    0x0(,%rdi,4),%r9
    323f:	00 
    3240:	41 89 c7             	mov    %eax,%r15d
    3243:	48 89 c8             	mov    %rcx,%rax
    3246:	48 8d 2c b5 04 00 00 	lea    0x4(,%rsi,4),%rbp
    324d:	00 
    324e:	8b 74 24 d0          	mov    -0x30(%rsp),%esi
    3252:	48 c1 e7 04          	shl    $0x4,%rdi
    3256:	48 c1 e0 04          	shl    $0x4,%rax
    325a:	4e 8d 54 09 01       	lea    0x1(%rcx,%r9,1),%r10
    325f:	4c 8d 5f 04          	lea    0x4(%rdi),%r11
    3263:	83 ee 01             	sub    $0x1,%esi
    3266:	49 c1 e2 02          	shl    $0x2,%r10
    326a:	4c 8d 2c cd 00 00 00 	lea    0x0(,%rcx,8),%r13
    3271:	00 
    3272:	83 fe 05             	cmp    $0x5,%esi
    3275:	49 8d 5c 3d 04       	lea    0x4(%r13,%rdi,1),%rbx
    327a:	41 0f 97 c0          	seta   %r8b
    327e:	48 85 d2             	test   %rdx,%rdx
    3281:	40 0f 95 c6          	setne  %sil
    3285:	44 21 c6             	and    %r8d,%esi
    3288:	48 83 f8 07          	cmp    $0x7,%rax
    328c:	41 0f 97 c0          	seta   %r8b
    3290:	41 21 f0             	and    %esi,%r8d
    3293:	49 39 d3             	cmp    %rdx,%r11
    3296:	40 0f 9c c6          	setl   %sil
    329a:	41 21 f0             	and    %esi,%r8d
    329d:	4c 39 ed             	cmp    %r13,%rbp
    32a0:	40 0f 9c c6          	setl   %sil
    32a4:	49 39 d9             	cmp    %rbx,%r9
    32a7:	41 0f 9f c4          	setg   %r12b
    32ab:	44 09 e6             	or     %r12d,%esi
    32ae:	44 21 c6             	and    %r8d,%esi
    32b1:	4d 39 eb             	cmp    %r13,%r11
    32b4:	41 0f 9c c0          	setl   %r8b
    32b8:	41 21 f0             	and    %esi,%r8d
    32bb:	4d 39 cb             	cmp    %r9,%r11
    32be:	40 0f 9c c6          	setl   %sil
    32c2:	41 21 f0             	and    %esi,%r8d
    32c5:	48 39 da             	cmp    %rbx,%rdx
    32c8:	40 0f 9f c6          	setg   %sil
    32cc:	4d 39 d5             	cmp    %r10,%r13
    32cf:	41 0f 9f c3          	setg   %r11b
    32d3:	44 09 de             	or     %r11d,%esi
    32d6:	41 84 f0             	test   %sil,%r8b
    32d9:	0f 84 d7 0d 00 00    	je     40b6 <riscv_dsp_cfft_rd4_f32+0x13d6>
    32df:	48 39 d5             	cmp    %rdx,%rbp
    32e2:	40 0f 9c c6          	setl   %sil
    32e6:	4d 39 d1             	cmp    %r10,%r9
    32e9:	41 0f 9f c0          	setg   %r8b
    32ed:	41 08 f0             	or     %sil,%r8b
    32f0:	0f 84 c0 0d 00 00    	je     40b6 <riscv_dsp_cfft_rd4_f32+0x13d6>
    32f6:	48 8b 5c 24 d8       	mov    -0x28(%rsp),%rbx
    32fb:	8b 6c 24 d0          	mov    -0x30(%rsp),%ebp
    32ff:	4c 89 74 24 c0       	mov    %r14,-0x40(%rsp)
    3304:	49 89 ca             	mov    %rcx,%r10
    3307:	4c 8b 64 24 e0       	mov    -0x20(%rsp),%r12
    330c:	48 c1 e1 05          	shl    $0x5,%rcx
    3310:	49 c1 e2 06          	shl    $0x6,%r10
    3314:	48 8d 54 13 08       	lea    0x8(%rbx,%rdx,1),%rdx
    3319:	4e 8d 5c 2b 08       	lea    0x8(%rbx,%r13,1),%r11
    331e:	48 89 4c 24 c8       	mov    %rcx,-0x38(%rsp)
    3323:	c1 ed 02             	shr    $0x2,%ebp
    3326:	48 89 54 24 a8       	mov    %rdx,-0x58(%rsp)
    332b:	4a 8d 5c 0b 08       	lea    0x8(%rbx,%r9,1),%rbx
    3330:	41 bd 00 01 00 00    	mov    $0x100,%r13d
    3336:	44 89 f9             	mov    %r15d,%ecx
    3339:	4c 89 5c 24 b0       	mov    %r11,-0x50(%rsp)
    333e:	4c 8d 1d e3 36 00 00 	lea    0x36e3(%rip),%r11        # 6a28 <riscv_dsp_cos_table_f32_1024+0x8>
    3345:	48 89 5c 24 b8       	mov    %rbx,-0x48(%rsp)
    334a:	31 db                	xor    %ebx,%ebx
    334c:	0f 1f 40 00          	nopl   0x0(%rax)
    3350:	03 5c 24 d0          	add    -0x30(%rsp),%ebx
    3354:	44 89 ee             	mov    %r13d,%esi
    3357:	89 da                	mov    %ebx,%edx
    3359:	d3 e2                	shl    %cl,%edx
    335b:	29 d6                	sub    %edx,%esi
    335d:	85 f6                	test   %esi,%esi
    335f:	0f 8e 73 0b 00 00    	jle    3ed8 <riscv_dsp_cfft_rd4_f32+0x11f8>
    3365:	48 63 d2             	movslq %edx,%rdx
    3368:	48 63 f6             	movslq %esi,%rsi
    336b:	f3 41 0f 10 24 93    	movss  (%r11,%rdx,4),%xmm4
    3371:	f3 41 0f 10 3c b3    	movss  (%r11,%rsi,4),%xmm7
    3377:	8d 14 1b             	lea    (%rbx,%rbx,1),%edx
    337a:	44 89 ee             	mov    %r13d,%esi
    337d:	d3 e2                	shl    %cl,%edx
    337f:	29 d6                	sub    %edx,%esi
    3381:	85 f6                	test   %esi,%esi
    3383:	0f 8e d7 0a 00 00    	jle    3e60 <riscv_dsp_cfft_rd4_f32+0x1180>
    3389:	48 63 d2             	movslq %edx,%rdx
    338c:	48 63 f6             	movslq %esi,%rsi
    338f:	f3 41 0f 10 2c 93    	movss  (%r11,%rdx,4),%xmm5
    3395:	f3 45 0f 10 04 b3    	movss  (%r11,%rsi,4),%xmm8
    339b:	8d 14 5b             	lea    (%rbx,%rbx,2),%edx
    339e:	44 89 ee             	mov    %r13d,%esi
    33a1:	d3 e2                	shl    %cl,%edx
    33a3:	29 d6                	sub    %edx,%esi
    33a5:	85 f6                	test   %esi,%esi
    33a7:	0f 8e f3 0a 00 00    	jle    3ea0 <riscv_dsp_cfft_rd4_f32+0x11c0>
    33ad:	48 63 d2             	movslq %edx,%rdx
    33b0:	48 63 f6             	movslq %esi,%rsi
    33b3:	f3 41 0f 10 1c 93    	movss  (%r11,%rdx,4),%xmm3
    33b9:	f3 41 0f 10 34 b3    	movss  (%r11,%rsi,4),%xmm6
    33bf:	8b 54 24 d0          	mov    -0x30(%rsp),%edx
    33c3:	85 d2                	test   %edx,%edx
    33c5:	0f 84 7f 03 00 00    	je     374a <riscv_dsp_cfft_rd4_f32+0xa6a>
    33cb:	48 8b 74 24 c8       	mov    -0x38(%rsp),%rsi
    33d0:	4c 8b 44 24 b0       	mov    -0x50(%rsp),%r8
    33d5:	4d 89 e1             	mov    %r12,%r9
    33d8:	45 31 ff             	xor    %r15d,%r15d
    33db:	0f c6 ed 00          	shufps $0x0,%xmm5,%xmm5
    33df:	0f c6 e4 00          	shufps $0x0,%xmm4,%xmm4
    33e3:	0f c6 ff 00          	shufps $0x0,%xmm7,%xmm7
    33e7:	0f c6 db 00          	shufps $0x0,%xmm3,%xmm3
    33eb:	4d 8d 34 34          	lea    (%r12,%rsi,1),%r14
    33ef:	48 8b 54 24 b8       	mov    -0x48(%rsp),%rdx
    33f4:	48 8b 74 24 a8       	mov    -0x58(%rsp),%rsi
    33f9:	0f c6 f6 00          	shufps $0x0,%xmm6,%xmm6
    33fd:	45 0f c6 c0 00       	shufps $0x0,%xmm8,%xmm8
    3402:	66 0f 1f 44 00 00    	nopw   0x0(%rax,%rax,1)
    3408:	f3 41 0f 10 0c 39    	movss  (%r9,%rdi,1),%xmm1
    340e:	f3 41 0f 10 06       	movss  (%r14),%xmm0
    3413:	41 83 c7 01          	add    $0x1,%r15d
    3417:	f3 41 0f 10 11       	movss  (%r9),%xmm2
    341c:	f3 45 0f 10 0c 00    	movss  (%r8,%rax,1),%xmm9
    3422:	0f 14 c1             	unpcklps %xmm1,%xmm0
    3425:	f3 41 0f 10 0c 01    	movss  (%r9,%rax,1),%xmm1
    342b:	f3 44 0f 10 14 02    	movss  (%rdx,%rax,1),%xmm10
    3431:	f3 45 0f 10 5c 00 04 	movss  0x4(%r8,%rax,1),%xmm11
    3438:	f3 44 0f 10 74 06 04 	movss  0x4(%rsi,%rax,1),%xmm14
    343f:	0f 14 d1             	unpcklps %xmm1,%xmm2
    3442:	f3 41 0f 10 0c 40    	movss  (%r8,%rax,2),%xmm1
    3448:	f3 44 0f 10 7c 02 04 	movss  0x4(%rdx,%rax,1),%xmm15
    344f:	0f 16 d0             	movlhps %xmm0,%xmm2
    3452:	f3 41 0f 10 04 38    	movss  (%r8,%rdi,1),%xmm0
    3458:	0f 14 c8             	unpcklps %xmm0,%xmm1
    345b:	f3 41 0f 10 00       	movss  (%r8),%xmm0
    3460:	41 0f 14 c1          	unpcklps %xmm9,%xmm0
    3464:	f3 44 0f 10 0c 06    	movss  (%rsi,%rax,1),%xmm9
    346a:	0f 16 c1             	movlhps %xmm1,%xmm0
    346d:	f3 0f 10 0c 46       	movss  (%rsi,%rax,2),%xmm1
    3472:	44 0f 28 e8          	movaps %xmm0,%xmm13
    3476:	44 0f 58 ea          	addps  %xmm2,%xmm13
    347a:	0f 5c d0             	subps  %xmm0,%xmm2
    347d:	f3 0f 10 04 3e       	movss  (%rsi,%rdi,1),%xmm0
    3482:	0f 14 c8             	unpcklps %xmm0,%xmm1
    3485:	f3 0f 10 06          	movss  (%rsi),%xmm0
    3489:	45 0f 28 e5          	movaps %xmm13,%xmm12
    348d:	41 0f 14 c1          	unpcklps %xmm9,%xmm0
    3491:	f3 44 0f 10 0c 42    	movss  (%rdx,%rax,2),%xmm9
    3497:	0f 16 c1             	movlhps %xmm1,%xmm0
    349a:	f3 0f 10 0c 3a       	movss  (%rdx,%rdi,1),%xmm1
    349f:	44 0f 14 c9          	unpcklps %xmm1,%xmm9
    34a3:	f3 0f 10 0a          	movss  (%rdx),%xmm1
    34a7:	41 0f 14 ca          	unpcklps %xmm10,%xmm1
    34ab:	41 0f 16 c9          	movlhps %xmm9,%xmm1
    34af:	44 0f 28 c8          	movaps %xmm0,%xmm9
    34b3:	0f 5c c1             	subps  %xmm1,%xmm0
    34b6:	44 0f 58 c9          	addps  %xmm1,%xmm9
    34ba:	f3 41 0f 10 4c 39 04 	movss  0x4(%r9,%rdi,1),%xmm1
    34c1:	44 0f 28 d0          	movaps %xmm0,%xmm10
    34c5:	f3 41 0f 10 46 04    	movss  0x4(%r14),%xmm0
    34cb:	45 0f 58 e1          	addps  %xmm9,%xmm12
    34cf:	45 0f 5c e9          	subps  %xmm9,%xmm13
    34d3:	f3 45 0f 10 49 04    	movss  0x4(%r9),%xmm9
    34d9:	0f 14 c1             	unpcklps %xmm1,%xmm0
    34dc:	f3 41 0f 10 4c 01 04 	movss  0x4(%r9,%rax,1),%xmm1
    34e3:	44 0f 14 c9          	unpcklps %xmm1,%xmm9
    34e7:	f3 41 0f 10 4c 38 04 	movss  0x4(%r8,%rdi,1),%xmm1
    34ee:	44 0f 16 c8          	movlhps %xmm0,%xmm9
    34f2:	f3 41 0f 10 44 40 04 	movss  0x4(%r8,%rax,2),%xmm0
    34f9:	0f 14 c1             	unpcklps %xmm1,%xmm0
    34fc:	f3 41 0f 10 48 04    	movss  0x4(%r8),%xmm1
    3502:	41 0f 14 cb          	unpcklps %xmm11,%xmm1
    3506:	f3 44 0f 10 5c 3e 04 	movss  0x4(%rsi,%rdi,1),%xmm11
    350d:	0f 16 c8             	movlhps %xmm0,%xmm1
    3510:	41 0f 28 c1          	movaps %xmm9,%xmm0
    3514:	0f 58 c1             	addps  %xmm1,%xmm0
    3517:	44 0f 5c c9          	subps  %xmm1,%xmm9
    351b:	f3 0f 10 4c 46 04    	movss  0x4(%rsi,%rax,2),%xmm1
    3521:	41 0f 14 cb          	unpcklps %xmm11,%xmm1
    3525:	f3 44 0f 10 5e 04    	movss  0x4(%rsi),%xmm11
    352b:	45 0f 14 de          	unpcklps %xmm14,%xmm11
    352f:	f3 44 0f 10 74 42 04 	movss  0x4(%rdx,%rax,2),%xmm14
    3536:	44 0f 16 d9          	movlhps %xmm1,%xmm11
    353a:	f3 0f 10 4c 3a 04    	movss  0x4(%rdx,%rdi,1),%xmm1
    3540:	44 0f 14 f1          	unpcklps %xmm1,%xmm14
    3544:	f3 0f 10 4a 04       	movss  0x4(%rdx),%xmm1
    3549:	f3 45 0f 11 21       	movss  %xmm12,(%r9)
    354e:	41 0f 14 cf          	unpcklps %xmm15,%xmm1
    3552:	45 0f 28 fc          	movaps %xmm12,%xmm15
    3556:	41 0f 16 ce          	movlhps %xmm14,%xmm1
    355a:	45 0f 28 f3          	movaps %xmm11,%xmm14
    355e:	45 0f c6 fc 55       	shufps $0x55,%xmm12,%xmm15
    3563:	f3 45 0f 11 3c 01    	movss  %xmm15,(%r9,%rax,1)
    3569:	44 0f 58 f1          	addps  %xmm1,%xmm14
    356d:	44 0f 5c d9          	subps  %xmm1,%xmm11
    3571:	0f 28 c8             	movaps %xmm0,%xmm1
    3574:	45 0f 28 fc          	movaps %xmm12,%xmm15
    3578:	45 0f 15 fc          	unpckhps %xmm12,%xmm15
    357c:	45 0f c6 e4 ff       	shufps $0xff,%xmm12,%xmm12
    3581:	41 0f 58 ce          	addps  %xmm14,%xmm1
    3585:	f3 45 0f 11 3e       	movss  %xmm15,(%r14)
    358a:	41 0f 5c c6          	subps  %xmm14,%xmm0
    358e:	f3 45 0f 11 24 39    	movss  %xmm12,(%r9,%rdi,1)
    3594:	44 0f 28 e1          	movaps %xmm1,%xmm12
    3598:	f3 41 0f 11 49 04    	movss  %xmm1,0x4(%r9)
    359e:	44 0f c6 e1 55       	shufps $0x55,%xmm1,%xmm12
    35a3:	f3 45 0f 11 64 01 04 	movss  %xmm12,0x4(%r9,%rax,1)
    35aa:	44 0f 28 e1          	movaps %xmm1,%xmm12
    35ae:	44 0f 15 e1          	unpckhps %xmm1,%xmm12
    35b2:	0f c6 c9 ff          	shufps $0xff,%xmm1,%xmm1
    35b6:	f3 45 0f 11 66 04    	movss  %xmm12,0x4(%r14)
    35bc:	44 0f 28 e0          	movaps %xmm0,%xmm12
    35c0:	4d 01 d6             	add    %r10,%r14
    35c3:	f3 41 0f 11 4c 39 04 	movss  %xmm1,0x4(%r9,%rdi,1)
    35ca:	45 0f 59 e0          	mulps  %xmm8,%xmm12
    35ce:	41 0f 28 cd          	movaps %xmm13,%xmm1
    35d2:	4d 01 d1             	add    %r10,%r9
    35d5:	0f 59 cd             	mulps  %xmm5,%xmm1
    35d8:	0f 59 c5             	mulps  %xmm5,%xmm0
    35db:	45 0f 59 e8          	mulps  %xmm8,%xmm13
    35df:	41 0f 58 cc          	addps  %xmm12,%xmm1
    35e3:	41 0f 5c c5          	subps  %xmm13,%xmm0
    35e7:	44 0f 28 e1          	movaps %xmm1,%xmm12
    35eb:	f3 0f 11 0e          	movss  %xmm1,(%rsi)
    35ef:	44 0f c6 e1 55       	shufps $0x55,%xmm1,%xmm12
    35f4:	f3 44 0f 11 24 06    	movss  %xmm12,(%rsi,%rax,1)
    35fa:	44 0f 28 e1          	movaps %xmm1,%xmm12
    35fe:	44 0f 15 e1          	unpckhps %xmm1,%xmm12
    3602:	0f c6 c9 ff          	shufps $0xff,%xmm1,%xmm1
    3606:	f3 44 0f 11 24 46    	movss  %xmm12,(%rsi,%rax,2)
    360c:	44 0f 28 e2          	movaps %xmm2,%xmm12
    3610:	41 0f 5c d3          	subps  %xmm11,%xmm2
    3614:	f3 0f 11 0c 3e       	movss  %xmm1,(%rsi,%rdi,1)
    3619:	0f 28 c8             	movaps %xmm0,%xmm1
    361c:	45 0f 58 e3          	addps  %xmm11,%xmm12
    3620:	f3 0f 11 46 04       	movss  %xmm0,0x4(%rsi)
    3625:	0f c6 c8 55          	shufps $0x55,%xmm0,%xmm1
    3629:	f3 0f 11 4c 06 04    	movss  %xmm1,0x4(%rsi,%rax,1)
    362f:	0f 28 c8             	movaps %xmm0,%xmm1
    3632:	0f 15 c8             	unpckhps %xmm0,%xmm1
    3635:	0f c6 c0 ff          	shufps $0xff,%xmm0,%xmm0
    3639:	f3 0f 11 4c 46 04    	movss  %xmm1,0x4(%rsi,%rax,2)
    363f:	41 0f 28 c9          	movaps %xmm9,%xmm1
    3643:	41 0f 5c ca          	subps  %xmm10,%xmm1
    3647:	f3 0f 11 44 3e 04    	movss  %xmm0,0x4(%rsi,%rdi,1)
    364d:	41 0f 28 c2          	movaps %xmm10,%xmm0
    3651:	4c 01 d6             	add    %r10,%rsi
    3654:	41 0f 58 c1          	addps  %xmm9,%xmm0
    3658:	45 0f 28 cc          	movaps %xmm12,%xmm9
    365c:	44 0f 59 cc          	mulps  %xmm4,%xmm9
    3660:	44 0f 59 e7          	mulps  %xmm7,%xmm12
    3664:	44 0f 28 d1          	movaps %xmm1,%xmm10
    3668:	44 0f 59 d7          	mulps  %xmm7,%xmm10
    366c:	0f 59 cc             	mulps  %xmm4,%xmm1
    366f:	45 0f 58 ca          	addps  %xmm10,%xmm9
    3673:	41 0f 5c cc          	subps  %xmm12,%xmm1
    3677:	45 0f 28 d1          	movaps %xmm9,%xmm10
    367b:	f3 45 0f 11 08       	movss  %xmm9,(%r8)
    3680:	45 0f c6 d1 55       	shufps $0x55,%xmm9,%xmm10
    3685:	f3 45 0f 11 14 00    	movss  %xmm10,(%r8,%rax,1)
    368b:	45 0f 28 d1          	movaps %xmm9,%xmm10
    368f:	45 0f 15 d1          	unpckhps %xmm9,%xmm10
    3693:	45 0f c6 c9 ff       	shufps $0xff,%xmm9,%xmm9
    3698:	f3 45 0f 11 14 40    	movss  %xmm10,(%r8,%rax,2)
    369e:	f3 45 0f 11 0c 38    	movss  %xmm9,(%r8,%rdi,1)
    36a4:	44 0f 28 c9          	movaps %xmm1,%xmm9
    36a8:	f3 41 0f 11 48 04    	movss  %xmm1,0x4(%r8)
    36ae:	44 0f c6 c9 55       	shufps $0x55,%xmm1,%xmm9
    36b3:	f3 45 0f 11 4c 00 04 	movss  %xmm9,0x4(%r8,%rax,1)
    36ba:	44 0f 28 c9          	movaps %xmm1,%xmm9
    36be:	44 0f 15 c9          	unpckhps %xmm1,%xmm9
    36c2:	0f c6 c9 ff          	shufps $0xff,%xmm1,%xmm1
    36c6:	f3 45 0f 11 4c 40 04 	movss  %xmm9,0x4(%r8,%rax,2)
    36cd:	44 0f 28 c8          	movaps %xmm0,%xmm9
    36d1:	f3 41 0f 11 4c 38 04 	movss  %xmm1,0x4(%r8,%rdi,1)
    36d8:	44 0f 59 ce          	mulps  %xmm6,%xmm9
    36dc:	0f 28 ca             	movaps %xmm2,%xmm1
    36df:	4d 01 d0             	add    %r10,%r8
    36e2:	0f 59 cb             	mulps  %xmm3,%xmm1
    36e5:	0f 59 d6             	mulps  %xmm6,%xmm2
    36e8:	0f 59 c3             	mulps  %xmm3,%xmm0
    36eb:	41 0f 58 c9          	addps  %xmm9,%xmm1
    36ef:	0f 5c c2             	subps  %xmm2,%xmm0
    36f2:	0f 28 d1             	movaps %xmm1,%xmm2
    36f5:	f3 0f 11 0a          	movss  %xmm1,(%rdx)
    36f9:	0f c6 d1 55          	shufps $0x55,%xmm1,%xmm2
    36fd:	f3 0f 11 14 02       	movss  %xmm2,(%rdx,%rax,1)
    3702:	0f 28 d1             	movaps %xmm1,%xmm2
    3705:	0f 15 d1             	unpckhps %xmm1,%xmm2
    3708:	0f c6 c9 ff          	shufps $0xff,%xmm1,%xmm1
    370c:	f3 0f 11 14 42       	movss  %xmm2,(%rdx,%rax,2)
    3711:	f3 0f 11 0c 3a       	movss  %xmm1,(%rdx,%rdi,1)
    3716:	0f 28 c8             	movaps %xmm0,%xmm1
    3719:	f3 0f 11 42 04       	movss  %xmm0,0x4(%rdx)
    371e:	0f c6 c8 55          	shufps $0x55,%xmm0,%xmm1
    3722:	f3 0f 11 4c 02 04    	movss  %xmm1,0x4(%rdx,%rax,1)
    3728:	0f 28 c8             	movaps %xmm0,%xmm1
    372b:	0f 15 c8             	unpckhps %xmm0,%xmm1
    372e:	0f c6 c0 ff          	shufps $0xff,%xmm0,%xmm0
    3732:	f3 0f 11 4c 42 04    	movss  %xmm1,0x4(%rdx,%rax,2)
    3738:	f3 0f 11 44 3a 04    	movss  %xmm0,0x4(%rdx,%rdi,1)
    373e:	4c 01 d2             	add    %r10,%rdx
    3741:	41 39 ef             	cmp    %ebp,%r15d
    3744:	0f 85 be fc ff ff    	jne    3408 <riscv_dsp_cfft_rd4_f32+0x728>
    374a:	48 83 44 24 b0 08    	addq   $0x8,-0x50(%rsp)
    3750:	49 83 c4 08          	add    $0x8,%r12
    3754:	48 83 44 24 a8 08    	addq   $0x8,-0x58(%rsp)
    375a:	48 83 44 24 b8 08    	addq   $0x8,-0x48(%rsp)
    3760:	4c 39 64 24 c0       	cmp    %r12,-0x40(%rsp)
    3765:	0f 85 e5 fb ff ff    	jne    3350 <riscv_dsp_cfft_rd4_f32+0x670>
    376b:	c1 64 24 d0 02       	shll   $0x2,-0x30(%rsp)
    3770:	83 6c 24 ec 01       	subl   $0x1,-0x14(%rsp)
    3775:	0f 85 bd f9 ff ff    	jne    3138 <riscv_dsp_cfft_rd4_f32+0x458>
    377b:	4c 8b 74 24 d8       	mov    -0x28(%rsp),%r14
    3780:	8b 44 24 f0          	mov    -0x10(%rsp),%eax
    3784:	8d 14 00             	lea    (%rax,%rax,1),%edx
    3787:	48 c1 e2 02          	shl    $0x2,%rdx
    378b:	49 8d 0c 16          	lea    (%r14,%rdx,1),%rcx
    378f:	49 39 ce             	cmp    %rcx,%r14
    3792:	0f 84 0c 04 00 00    	je     3ba4 <riscv_dsp_cfft_rd4_f32+0xec4>
    3798:	48 83 ea 20          	sub    $0x20,%rdx
    379c:	4c 89 f0             	mov    %r14,%rax
    379f:	48 89 d6             	mov    %rdx,%rsi
    37a2:	48 c1 ee 05          	shr    $0x5,%rsi
    37a6:	48 83 c6 01          	add    $0x1,%rsi
    37aa:	48 83 fa 40          	cmp    $0x40,%rdx
    37ae:	0f 86 e6 01 00 00    	jbe    399a <riscv_dsp_cfft_rd4_f32+0xcba>
    37b4:	48 89 f2             	mov    %rsi,%rdx
    37b7:	48 c1 ea 02          	shr    $0x2,%rdx
    37bb:	48 c1 e2 07          	shl    $0x7,%rdx
    37bf:	4c 01 f2             	add    %r14,%rdx
    37c2:	0f 10 00             	movups (%rax),%xmm0
    37c5:	0f 10 70 10          	movups 0x10(%rax),%xmm6
    37c9:	48 83 e8 80          	sub    $0xffffffffffffff80,%rax
    37cd:	0f 10 58 a0          	movups -0x60(%rax),%xmm3
    37d1:	0f 10 48 c0          	movups -0x40(%rax),%xmm1
    37d5:	0f 28 e0             	movaps %xmm0,%xmm4
    37d8:	0f c6 c6 dd          	shufps $0xdd,%xmm6,%xmm0
    37dc:	0f 10 50 e0          	movups -0x20(%rax),%xmm2
    37e0:	0f 10 68 f0          	movups -0x10(%rax),%xmm5
    37e4:	0f c6 e6 88          	shufps $0x88,%xmm6,%xmm4
    37e8:	0f 10 70 b0          	movups -0x50(%rax),%xmm6
    37ec:	0f 28 fb             	movaps %xmm3,%xmm7
    37ef:	44 0f 28 c1          	movaps %xmm1,%xmm8
    37f3:	0f c6 fe 88          	shufps $0x88,%xmm6,%xmm7
    37f7:	0f c6 de dd          	shufps $0xdd,%xmm6,%xmm3
    37fb:	0f 10 70 d0          	movups -0x30(%rax),%xmm6
    37ff:	44 0f c6 c6 88       	shufps $0x88,%xmm6,%xmm8
    3804:	0f c6 ce dd          	shufps $0xdd,%xmm6,%xmm1
    3808:	0f 28 f2             	movaps %xmm2,%xmm6
    380b:	0f c6 d5 dd          	shufps $0xdd,%xmm5,%xmm2
    380f:	0f c6 f5 88          	shufps $0x88,%xmm5,%xmm6
    3813:	0f 28 ec             	movaps %xmm4,%xmm5
    3816:	0f c6 e7 dd          	shufps $0xdd,%xmm7,%xmm4
    381a:	45 0f 28 c8          	movaps %xmm8,%xmm9
    381e:	0f c6 ef 88          	shufps $0x88,%xmm7,%xmm5
    3822:	0f 28 f8             	movaps %xmm0,%xmm7
    3825:	0f c6 c3 dd          	shufps $0xdd,%xmm3,%xmm0
    3829:	44 0f c6 ce 88       	shufps $0x88,%xmm6,%xmm9
    382e:	0f c6 fb 88          	shufps $0x88,%xmm3,%xmm7
    3832:	0f 28 d9             	movaps %xmm1,%xmm3
    3835:	0f c6 ca dd          	shufps $0xdd,%xmm2,%xmm1
    3839:	44 0f c6 c6 dd       	shufps $0xdd,%xmm6,%xmm8
    383e:	0f c6 da 88          	shufps $0x88,%xmm2,%xmm3
    3842:	0f 28 d7             	movaps %xmm7,%xmm2
    3845:	0f 28 f5             	movaps %xmm5,%xmm6
    3848:	0f c6 fb dd          	shufps $0xdd,%xmm3,%xmm7
    384c:	0f c6 d3 88          	shufps $0x88,%xmm3,%xmm2
    3850:	0f 28 d8             	movaps %xmm0,%xmm3
    3853:	41 0f c6 e9 dd       	shufps $0xdd,%xmm9,%xmm5
    3858:	0f c6 c1 dd          	shufps $0xdd,%xmm1,%xmm0
    385c:	41 0f c6 f1 88       	shufps $0x88,%xmm9,%xmm6
    3861:	0f c6 d9 88          	shufps $0x88,%xmm1,%xmm3
    3865:	44 0f 28 cc          	movaps %xmm4,%xmm9
    3869:	0f 28 cd             	movaps %xmm5,%xmm1
    386c:	41 0f c6 e0 dd       	shufps $0xdd,%xmm8,%xmm4
    3871:	44 0f 28 dc          	movaps %xmm4,%xmm11
    3875:	45 0f c6 c8 88       	shufps $0x88,%xmm8,%xmm9
    387a:	0f 58 ce             	addps  %xmm6,%xmm1
    387d:	45 0f 58 d9          	addps  %xmm9,%xmm11
    3881:	0f 5c f5             	subps  %xmm5,%xmm6
    3884:	41 0f 28 e9          	movaps %xmm9,%xmm5
    3888:	44 0f 28 c8          	movaps %xmm0,%xmm9
    388c:	0f 5c ec             	subps  %xmm4,%xmm5
    388f:	0f 28 e7             	movaps %xmm7,%xmm4
    3892:	44 0f 58 cb          	addps  %xmm3,%xmm9
    3896:	0f 5c d8             	subps  %xmm0,%xmm3
    3899:	0f 58 e2             	addps  %xmm2,%xmm4
    389c:	0f 5c d7             	subps  %xmm7,%xmm2
    389f:	45 0f 28 d3          	movaps %xmm11,%xmm10
    38a3:	44 0f 58 d1          	addps  %xmm1,%xmm10
    38a7:	41 0f 5c cb          	subps  %xmm11,%xmm1
    38ab:	0f 28 c3             	movaps %xmm3,%xmm0
    38ae:	45 0f 28 c1          	movaps %xmm9,%xmm8
    38b2:	0f 58 c6             	addps  %xmm6,%xmm0
    38b5:	0f 28 fc             	movaps %xmm4,%xmm7
    38b8:	0f 5c f3             	subps  %xmm3,%xmm6
    38bb:	41 0f 5c f9          	subps  %xmm9,%xmm7
    38bf:	44 0f 28 ca          	movaps %xmm2,%xmm9
    38c3:	0f 58 d5             	addps  %xmm5,%xmm2
    38c6:	44 0f 58 c4          	addps  %xmm4,%xmm8
    38ca:	44 0f 5c cd          	subps  %xmm5,%xmm9
    38ce:	41 0f 28 da          	movaps %xmm10,%xmm3
    38d2:	0f 28 e6             	movaps %xmm6,%xmm4
    38d5:	41 0f 28 f2          	movaps %xmm10,%xmm6
    38d9:	0f 28 e9             	movaps %xmm1,%xmm5
    38dc:	0f 14 f0             	unpcklps %xmm0,%xmm6
    38df:	44 0f 28 d7          	movaps %xmm7,%xmm10
    38e3:	0f 15 fa             	unpckhps %xmm2,%xmm7
    38e6:	0f 14 ec             	unpcklps %xmm4,%xmm5
    38e9:	0f 15 cc             	unpckhps %xmm4,%xmm1
    38ec:	0f 15 d8             	unpckhps %xmm0,%xmm3
    38ef:	0f 28 e7             	movaps %xmm7,%xmm4
    38f2:	41 0f 28 c0          	movaps %xmm8,%xmm0
    38f6:	0f 28 fe             	movaps %xmm6,%xmm7
    38f9:	45 0f 15 c1          	unpckhps %xmm9,%xmm8
    38fd:	0f 14 fd             	unpcklps %xmm5,%xmm7
    3900:	0f 15 f5             	unpckhps %xmm5,%xmm6
    3903:	41 0f 14 c1          	unpcklps %xmm9,%xmm0
    3907:	0f 28 eb             	movaps %xmm3,%xmm5
    390a:	0f 15 d9             	unpckhps %xmm1,%xmm3
    390d:	44 0f 14 d2          	unpcklps %xmm2,%xmm10
    3911:	0f 14 e9             	unpcklps %xmm1,%xmm5
    3914:	0f 28 d3             	movaps %xmm3,%xmm2
    3917:	44 0f 28 c8          	movaps %xmm0,%xmm9
    391b:	41 0f 28 d8          	movaps %xmm8,%xmm3
    391f:	41 0f 28 c8          	movaps %xmm8,%xmm1
    3923:	0f 14 dc             	unpcklps %xmm4,%xmm3
    3926:	0f 15 cc             	unpckhps %xmm4,%xmm1
    3929:	45 0f 14 ca          	unpcklps %xmm10,%xmm9
    392d:	0f 28 e7             	movaps %xmm7,%xmm4
    3930:	41 0f 15 c2          	unpckhps %xmm10,%xmm0
    3934:	41 0f 15 f9          	unpckhps %xmm9,%xmm7
    3938:	41 0f 14 e1          	unpcklps %xmm9,%xmm4
    393c:	0f 11 78 90          	movups %xmm7,-0x70(%rax)
    3940:	0f 11 60 80          	movups %xmm4,-0x80(%rax)
    3944:	0f 28 e6             	movaps %xmm6,%xmm4
    3947:	0f 15 f0             	unpckhps %xmm0,%xmm6
    394a:	0f 14 e0             	unpcklps %xmm0,%xmm4
    394d:	0f 28 c5             	movaps %xmm5,%xmm0
    3950:	0f 15 eb             	unpckhps %xmm3,%xmm5
    3953:	0f 11 70 b0          	movups %xmm6,-0x50(%rax)
    3957:	0f 14 c3             	unpcklps %xmm3,%xmm0
    395a:	0f 11 60 a0          	movups %xmm4,-0x60(%rax)
    395e:	0f 11 40 c0          	movups %xmm0,-0x40(%rax)
    3962:	0f 28 c2             	movaps %xmm2,%xmm0
    3965:	0f 15 d1             	unpckhps %xmm1,%xmm2
    3968:	0f 14 c1             	unpcklps %xmm1,%xmm0
    396b:	0f 11 68 d0          	movups %xmm5,-0x30(%rax)
    396f:	0f 11 40 e0          	movups %xmm0,-0x20(%rax)
    3973:	0f 11 50 f0          	movups %xmm2,-0x10(%rax)
    3977:	48 39 c2             	cmp    %rax,%rdx
    397a:	0f 85 42 fe ff ff    	jne    37c2 <riscv_dsp_cfft_rd4_f32+0xae2>
    3980:	48 89 f2             	mov    %rsi,%rdx
    3983:	48 83 e2 fc          	and    $0xfffffffffffffffc,%rdx
    3987:	48 89 d0             	mov    %rdx,%rax
    398a:	48 c1 e0 05          	shl    $0x5,%rax
    398e:	4c 01 f0             	add    %r14,%rax
    3991:	48 39 f2             	cmp    %rsi,%rdx
    3994:	0f 84 0a 02 00 00    	je     3ba4 <riscv_dsp_cfft_rd4_f32+0xec4>
    399a:	f3 0f 10 00          	movss  (%rax),%xmm0
    399e:	f3 0f 10 50 10       	movss  0x10(%rax),%xmm2
    39a3:	48 8d 50 20          	lea    0x20(%rax),%rdx
    39a7:	f3 0f 10 58 18       	movss  0x18(%rax),%xmm3
    39ac:	f3 0f 10 68 04       	movss  0x4(%rax),%xmm5
    39b1:	0f 28 c8             	movaps %xmm0,%xmm1
    39b4:	f3 0f 5c c2          	subss  %xmm2,%xmm0
    39b8:	f3 0f 10 70 0c       	movss  0xc(%rax),%xmm6
    39bd:	f3 0f 58 ca          	addss  %xmm2,%xmm1
    39c1:	f3 0f 10 50 08       	movss  0x8(%rax),%xmm2
    39c6:	0f 28 fd             	movaps %xmm5,%xmm7
    39c9:	44 0f 28 c2          	movaps %xmm2,%xmm8
    39cd:	0f 28 e2             	movaps %xmm2,%xmm4
    39d0:	f3 0f 10 50 14       	movss  0x14(%rax),%xmm2
    39d5:	f3 44 0f 58 c3       	addss  %xmm3,%xmm8
    39da:	f3 0f 5c e3          	subss  %xmm3,%xmm4
    39de:	0f 28 dd             	movaps %xmm5,%xmm3
    39e1:	f3 0f 58 da          	addss  %xmm2,%xmm3
    39e5:	f3 0f 5c fa          	subss  %xmm2,%xmm7
    39e9:	f3 0f 10 50 1c       	movss  0x1c(%rax),%xmm2
    39ee:	0f 28 ee             	movaps %xmm6,%xmm5
    39f1:	f3 0f 58 ea          	addss  %xmm2,%xmm5
    39f5:	f3 0f 5c f2          	subss  %xmm2,%xmm6
    39f9:	0f 28 d1             	movaps %xmm1,%xmm2
    39fc:	44 0f 28 cb          	movaps %xmm3,%xmm9
    3a00:	f3 41 0f 58 d0       	addss  %xmm8,%xmm2
    3a05:	f3 41 0f 5c c8       	subss  %xmm8,%xmm1
    3a0a:	f3 0f 5c dd          	subss  %xmm5,%xmm3
    3a0e:	f3 44 0f 58 cd       	addss  %xmm5,%xmm9
    3a13:	0f 14 cb             	unpcklps %xmm3,%xmm1
    3a16:	41 0f 14 d1          	unpcklps %xmm9,%xmm2
    3a1a:	0f 28 df             	movaps %xmm7,%xmm3
    3a1d:	0f 16 d1             	movlhps %xmm1,%xmm2
    3a20:	0f 28 c8             	movaps %xmm0,%xmm1
    3a23:	f3 0f 5c dc          	subss  %xmm4,%xmm3
    3a27:	f3 0f 58 ce          	addss  %xmm6,%xmm1
    3a2b:	f3 0f 5c c6          	subss  %xmm6,%xmm0
    3a2f:	0f 11 10             	movups %xmm2,(%rax)
    3a32:	f3 0f 58 e7          	addss  %xmm7,%xmm4
    3a36:	0f 14 cb             	unpcklps %xmm3,%xmm1
    3a39:	0f 14 c4             	unpcklps %xmm4,%xmm0
    3a3c:	0f 16 c8             	movlhps %xmm0,%xmm1
    3a3f:	0f 11 48 10          	movups %xmm1,0x10(%rax)
    3a43:	48 39 d1             	cmp    %rdx,%rcx
    3a46:	0f 84 58 01 00 00    	je     3ba4 <riscv_dsp_cfft_rd4_f32+0xec4>
    3a4c:	f3 0f 10 40 20       	movss  0x20(%rax),%xmm0
    3a51:	f3 0f 10 50 30       	movss  0x30(%rax),%xmm2
    3a56:	48 8d 50 40          	lea    0x40(%rax),%rdx
    3a5a:	f3 0f 10 68 28       	movss  0x28(%rax),%xmm5
    3a5f:	f3 0f 10 70 34       	movss  0x34(%rax),%xmm6
    3a64:	0f 28 c8             	movaps %xmm0,%xmm1
    3a67:	f3 0f 5c c2          	subss  %xmm2,%xmm0
    3a6b:	f3 0f 10 78 2c       	movss  0x2c(%rax),%xmm7
    3a70:	f3 0f 58 ca          	addss  %xmm2,%xmm1
    3a74:	f3 0f 10 50 38       	movss  0x38(%rax),%xmm2
    3a79:	44 0f 28 c2          	movaps %xmm2,%xmm8
    3a7d:	f3 44 0f 58 c5       	addss  %xmm5,%xmm8
    3a82:	f3 0f 5c ea          	subss  %xmm2,%xmm5
    3a86:	f3 0f 10 50 24       	movss  0x24(%rax),%xmm2
    3a8b:	0f 28 da             	movaps %xmm2,%xmm3
    3a8e:	0f 28 e2             	movaps %xmm2,%xmm4
    3a91:	f3 0f 10 50 3c       	movss  0x3c(%rax),%xmm2
    3a96:	f3 0f 58 de          	addss  %xmm6,%xmm3
    3a9a:	f3 0f 5c e6          	subss  %xmm6,%xmm4
    3a9e:	0f 28 f7             	movaps %xmm7,%xmm6
    3aa1:	f3 0f 58 f2          	addss  %xmm2,%xmm6
    3aa5:	f3 0f 5c fa          	subss  %xmm2,%xmm7
    3aa9:	0f 28 d1             	movaps %xmm1,%xmm2
    3aac:	f3 41 0f 58 d0       	addss  %xmm8,%xmm2
    3ab1:	f3 41 0f 5c c8       	subss  %xmm8,%xmm1
    3ab6:	44 0f 28 cb          	movaps %xmm3,%xmm9
    3aba:	f3 44 0f 58 ce       	addss  %xmm6,%xmm9
    3abf:	f3 0f 5c de          	subss  %xmm6,%xmm3
    3ac3:	41 0f 14 d1          	unpcklps %xmm9,%xmm2
    3ac7:	0f 14 cb             	unpcklps %xmm3,%xmm1
    3aca:	0f 28 dc             	movaps %xmm4,%xmm3
    3acd:	0f 16 d1             	movlhps %xmm1,%xmm2
    3ad0:	0f 28 cf             	movaps %xmm7,%xmm1
    3ad3:	f3 0f 5c dd          	subss  %xmm5,%xmm3
    3ad7:	f3 0f 58 c8          	addss  %xmm0,%xmm1
    3adb:	f3 0f 58 e5          	addss  %xmm5,%xmm4
    3adf:	0f 11 50 20          	movups %xmm2,0x20(%rax)
    3ae3:	f3 0f 5c c7          	subss  %xmm7,%xmm0
    3ae7:	0f 14 cb             	unpcklps %xmm3,%xmm1
    3aea:	0f 14 c4             	unpcklps %xmm4,%xmm0
    3aed:	0f 16 c8             	movlhps %xmm0,%xmm1
    3af0:	0f 11 48 30          	movups %xmm1,0x30(%rax)
    3af4:	48 39 d1             	cmp    %rdx,%rcx
    3af7:	0f 84 a7 00 00 00    	je     3ba4 <riscv_dsp_cfft_rd4_f32+0xec4>
    3afd:	f3 0f 10 40 40       	movss  0x40(%rax),%xmm0
    3b02:	f3 0f 10 50 50       	movss  0x50(%rax),%xmm2
    3b07:	f3 0f 10 58 58       	movss  0x58(%rax),%xmm3
    3b0c:	f3 0f 10 68 44       	movss  0x44(%rax),%xmm5
    3b11:	0f 28 c8             	movaps %xmm0,%xmm1
    3b14:	f3 0f 5c c2          	subss  %xmm2,%xmm0
    3b18:	f3 0f 10 70 4c       	movss  0x4c(%rax),%xmm6
    3b1d:	f3 0f 58 ca          	addss  %xmm2,%xmm1
    3b21:	f3 0f 10 50 48       	movss  0x48(%rax),%xmm2
    3b26:	0f 28 fd             	movaps %xmm5,%xmm7
    3b29:	44 0f 28 c2          	movaps %xmm2,%xmm8
    3b2d:	0f 28 e2             	movaps %xmm2,%xmm4
    3b30:	f3 0f 10 50 54       	movss  0x54(%rax),%xmm2
    3b35:	f3 44 0f 58 c3       	addss  %xmm3,%xmm8
    3b3a:	f3 0f 5c e3          	subss  %xmm3,%xmm4
    3b3e:	0f 28 dd             	movaps %xmm5,%xmm3
    3b41:	f3 0f 58 da          	addss  %xmm2,%xmm3
    3b45:	f3 0f 5c fa          	subss  %xmm2,%xmm7
    3b49:	f3 0f 10 50 5c       	movss  0x5c(%rax),%xmm2
    3b4e:	0f 28 ee             	movaps %xmm6,%xmm5
    3b51:	f3 0f 58 ea          	addss  %xmm2,%xmm5
    3b55:	f3 0f 5c f2          	subss  %xmm2,%xmm6
    3b59:	0f 28 d1             	movaps %xmm1,%xmm2
    3b5c:	44 0f 28 cb          	movaps %xmm3,%xmm9
    3b60:	f3 41 0f 58 d0       	addss  %xmm8,%xmm2
    3b65:	f3 41 0f 5c c8       	subss  %xmm8,%xmm1
    3b6a:	f3 0f 5c dd          	subss  %xmm5,%xmm3
    3b6e:	f3 44 0f 58 cd       	addss  %xmm5,%xmm9
    3b73:	0f 14 cb             	unpcklps %xmm3,%xmm1
    3b76:	41 0f 14 d1          	unpcklps %xmm9,%xmm2
    3b7a:	0f 28 df             	movaps %xmm7,%xmm3
    3b7d:	0f 16 d1             	movlhps %xmm1,%xmm2
    3b80:	0f 28 c8             	movaps %xmm0,%xmm1
    3b83:	f3 0f 5c dc          	subss  %xmm4,%xmm3
    3b87:	f3 0f 58 ce          	addss  %xmm6,%xmm1
    3b8b:	f3 0f 5c c6          	subss  %xmm6,%xmm0
    3b8f:	0f 11 50 40          	movups %xmm2,0x40(%rax)
    3b93:	f3 0f 58 e7          	addss  %xmm7,%xmm4
    3b97:	0f 14 cb             	unpcklps %xmm3,%xmm1
    3b9a:	0f 14 c4             	unpcklps %xmm4,%xmm0
    3b9d:	0f 16 c8             	movlhps %xmm0,%xmm1
    3ba0:	0f 11 48 50          	movups %xmm1,0x50(%rax)
    3ba4:	8b 6c 24 f4          	mov    -0xc(%rsp),%ebp
    3ba8:	0f b6 4c 24 e8       	movzbl -0x18(%rsp),%ecx
    3bad:	b8 02 00 00 00       	mov    $0x2,%eax
    3bb2:	be 04 00 00 00       	mov    $0x4,%esi
    3bb7:	8b 5c 24 f0          	mov    -0x10(%rsp),%ebx
    3bbb:	f3 41 0f 10 46 08    	movss  0x8(%r14),%xmm0
    3bc1:	d3 e0                	shl    %cl,%eax
    3bc3:	8d 54 2d 00          	lea    0x0(%rbp,%rbp,1),%edx
    3bc7:	89 e9                	mov    %ebp,%ecx
    3bc9:	49 8d 7c 86 fc       	lea    -0x4(%r14,%rax,4),%rdi
    3bce:	48 89 d0             	mov    %rdx,%rax
    3bd1:	49 8d 14 96          	lea    (%r14,%rdx,4),%rdx
    3bd5:	41 89 d8             	mov    %ebx,%r8d
    3bd8:	f3 0f 10 0a          	movss  (%rdx),%xmm1
    3bdc:	c1 eb 03             	shr    $0x3,%ebx
    3bdf:	83 c0 01             	add    $0x1,%eax
    3be2:	41 c1 e8 02          	shr    $0x2,%r8d
    3be6:	49 8d 04 86          	lea    (%r14,%rax,4),%rax
    3bea:	44 31 c1             	xor    %r8d,%ecx
    3bed:	41 89 db             	mov    %ebx,%r11d
    3bf0:	41 89 d9             	mov    %ebx,%r9d
    3bf3:	f3 41 0f 11 4e 08    	movss  %xmm1,0x8(%r14)
    3bf9:	41 89 ca             	mov    %ecx,%r10d
    3bfc:	41 31 cb             	xor    %ecx,%r11d
    3bff:	bb fc ff ff ff       	mov    $0xfffffffc,%ebx
    3c04:	f3 0f 11 02          	movss  %xmm0,(%rdx)
    3c08:	f3 0f 10 08          	movss  (%rax),%xmm1
    3c0c:	f3 41 0f 10 46 0c    	movss  0xc(%r14),%xmm0
    3c12:	b9 04 00 00 00       	mov    $0x4,%ecx
    3c17:	f3 41 0f 11 4e 0c    	movss  %xmm1,0xc(%r14)
    3c1d:	f3 0f 11 00          	movss  %xmm0,(%rax)
    3c21:	89 e8                	mov    %ebp,%eax
    3c23:	0f 1f 44 00 00       	nopl   0x0(%rax,%rax,1)
    3c28:	44 31 d0             	xor    %r10d,%eax
    3c2b:	41 85 c0             	test   %eax,%r8d
    3c2e:	75 10                	jne    3c40 <riscv_dsp_cfft_rd4_f32+0xf60>
    3c30:	44 89 c2             	mov    %r8d,%edx
    3c33:	0f 1f 44 00 00       	nopl   0x0(%rax,%rax,1)
    3c38:	d1 ea                	shr    %edx
    3c3a:	31 d0                	xor    %edx,%eax
    3c3c:	85 c2                	test   %eax,%edx
    3c3e:	74 f8                	je     3c38 <riscv_dsp_cfft_rd4_f32+0xf58>
    3c40:	8d 56 fe             	lea    -0x2(%rsi),%edx
    3c43:	39 c2                	cmp    %eax,%edx
    3c45:	0f 83 a2 00 00 00    	jae    3ced <riscv_dsp_cfft_rd4_f32+0x100d>
    3c4b:	89 ca                	mov    %ecx,%edx
    3c4d:	44 8d 24 00          	lea    (%rax,%rax,1),%r12d
    3c51:	4d 8d 2c 96          	lea    (%r14,%rdx,4),%r13
    3c55:	4c 89 e2             	mov    %r12,%rdx
    3c58:	4f 8d 24 a6          	lea    (%r14,%r12,4),%r12
    3c5c:	f3 41 0f 10 45 00    	movss  0x0(%r13),%xmm0
    3c62:	f3 41 0f 10 0c 24    	movss  (%r12),%xmm1
    3c68:	83 c2 01             	add    $0x1,%edx
    3c6b:	49 8d 14 96          	lea    (%r14,%rdx,4),%rdx
    3c6f:	f3 41 0f 11 4d 00    	movss  %xmm1,0x0(%r13)
    3c75:	f3 41 0f 11 04 24    	movss  %xmm0,(%r12)
    3c7b:	44 8d 61 01          	lea    0x1(%rcx),%r12d
    3c7f:	f3 0f 10 0a          	movss  (%rdx),%xmm1
    3c83:	4f 8d 24 a6          	lea    (%r14,%r12,4),%r12
    3c87:	f3 41 0f 10 04 24    	movss  (%r12),%xmm0
    3c8d:	f3 41 0f 11 0c 24    	movss  %xmm1,(%r12)
    3c93:	41 89 cc             	mov    %ecx,%r12d
    3c96:	41 f7 dc             	neg    %r12d
    3c99:	f3 0f 11 02          	movss  %xmm0,(%rdx)
    3c9d:	89 c2                	mov    %eax,%edx
    3c9f:	4d 63 e4             	movslq %r12d,%r12
    3ca2:	f7 da                	neg    %edx
    3ca4:	49 c1 e4 02          	shl    $0x2,%r12
    3ca8:	01 d2                	add    %edx,%edx
    3caa:	4e 8d 2c 27          	lea    (%rdi,%r12,1),%r13
    3cae:	4e 8d 64 27 fc       	lea    -0x4(%rdi,%r12,1),%r12
    3cb3:	48 63 d2             	movslq %edx,%rdx
    3cb6:	f3 41 0f 10 45 00    	movss  0x0(%r13),%xmm0
    3cbc:	48 c1 e2 02          	shl    $0x2,%rdx
    3cc0:	4c 8d 3c 17          	lea    (%rdi,%rdx,1),%r15
    3cc4:	48 8d 54 17 fc       	lea    -0x4(%rdi,%rdx,1),%rdx
    3cc9:	f3 41 0f 10 0f       	movss  (%r15),%xmm1
    3cce:	f3 41 0f 11 4d 00    	movss  %xmm1,0x0(%r13)
    3cd4:	f3 41 0f 11 07       	movss  %xmm0,(%r15)
    3cd9:	f3 41 0f 10 04 24    	movss  (%r12),%xmm0
    3cdf:	f3 0f 10 0a          	movss  (%rdx),%xmm1
    3ce3:	f3 41 0f 11 0c 24    	movss  %xmm1,(%r12)
    3ce9:	f3 0f 11 02          	movss  %xmm0,(%rdx)
    3ced:	8d 51 02             	lea    0x2(%rcx),%edx
    3cf0:	01 e8                	add    %ebp,%eax
    3cf2:	4d 8d 24 96          	lea    (%r14,%rdx,4),%r12
    3cf6:	8d 14 00             	lea    (%rax,%rax,1),%edx
    3cf9:	49 89 d5             	mov    %rdx,%r13
    3cfc:	49 8d 14 96          	lea    (%r14,%rdx,4),%rdx
    3d00:	f3 41 0f 10 04 24    	movss  (%r12),%xmm0
    3d06:	f3 0f 10 0a          	movss  (%rdx),%xmm1
    3d0a:	f3 41 0f 11 0c 24    	movss  %xmm1,(%r12)
    3d10:	f3 0f 11 02          	movss  %xmm0,(%rdx)
    3d14:	8d 51 03             	lea    0x3(%rcx),%edx
    3d17:	4d 8d 24 96          	lea    (%r14,%rdx,4),%r12
    3d1b:	41 8d 55 01          	lea    0x1(%r13),%edx
    3d1f:	49 8d 14 96          	lea    (%r14,%rdx,4),%rdx
    3d23:	f3 41 0f 10 04 24    	movss  (%r12),%xmm0
    3d29:	f3 0f 10 0a          	movss  (%rdx),%xmm1
    3d2d:	f3 41 0f 11 0c 24    	movss  %xmm1,(%r12)
    3d33:	f3 0f 11 02          	movss  %xmm0,(%rdx)
    3d37:	39 ee                	cmp    %ebp,%esi
    3d39:	0f 83 da 06 00 00    	jae    4419 <riscv_dsp_cfft_rd4_f32+0x1739>
    3d3f:	44 31 d8             	xor    %r11d,%eax
    3d42:	41 85 c1             	test   %eax,%r9d
    3d45:	75 11                	jne    3d58 <riscv_dsp_cfft_rd4_f32+0x1078>
    3d47:	44 89 ca             	mov    %r9d,%edx
    3d4a:	66 0f 1f 44 00 00    	nopw   0x0(%rax,%rax,1)
    3d50:	d1 ea                	shr    %edx
    3d52:	31 d0                	xor    %edx,%eax
    3d54:	85 c2                	test   %eax,%edx
    3d56:	74 f8                	je     3d50 <riscv_dsp_cfft_rd4_f32+0x1070>
    3d58:	39 c6                	cmp    %eax,%esi
    3d5a:	0f 83 a3 00 00 00    	jae    3e03 <riscv_dsp_cfft_rd4_f32+0x1123>
    3d60:	8d 51 04             	lea    0x4(%rcx),%edx
    3d63:	44 8d 24 00          	lea    (%rax,%rax,1),%r12d
    3d67:	4d 8d 2c 96          	lea    (%r14,%rdx,4),%r13
    3d6b:	4c 89 e2             	mov    %r12,%rdx
    3d6e:	4f 8d 24 a6          	lea    (%r14,%r12,4),%r12
    3d72:	f3 41 0f 10 45 00    	movss  0x0(%r13),%xmm0
    3d78:	f3 41 0f 10 0c 24    	movss  (%r12),%xmm1
    3d7e:	83 c2 01             	add    $0x1,%edx
    3d81:	49 8d 14 96          	lea    (%r14,%rdx,4),%rdx
    3d85:	f3 41 0f 11 4d 00    	movss  %xmm1,0x0(%r13)
    3d8b:	f3 41 0f 11 04 24    	movss  %xmm0,(%r12)
    3d91:	44 8d 61 05          	lea    0x5(%rcx),%r12d
    3d95:	f3 0f 10 0a          	movss  (%rdx),%xmm1
    3d99:	4f 8d 24 a6          	lea    (%r14,%r12,4),%r12
    3d9d:	f3 41 0f 10 04 24    	movss  (%r12),%xmm0
    3da3:	f3 41 0f 11 0c 24    	movss  %xmm1,(%r12)
    3da9:	41 89 dc             	mov    %ebx,%r12d
    3dac:	41 29 cc             	sub    %ecx,%r12d
    3daf:	f3 0f 11 02          	movss  %xmm0,(%rdx)
    3db3:	89 c2                	mov    %eax,%edx
    3db5:	4d 63 e4             	movslq %r12d,%r12
    3db8:	f7 da                	neg    %edx
    3dba:	49 c1 e4 02          	shl    $0x2,%r12
    3dbe:	01 d2                	add    %edx,%edx
    3dc0:	4e 8d 2c 27          	lea    (%rdi,%r12,1),%r13
    3dc4:	4e 8d 64 27 fc       	lea    -0x4(%rdi,%r12,1),%r12
    3dc9:	48 63 d2             	movslq %edx,%rdx
    3dcc:	f3 41 0f 10 45 00    	movss  0x0(%r13),%xmm0
    3dd2:	48 c1 e2 02          	shl    $0x2,%rdx
    3dd6:	4c 8d 3c 17          	lea    (%rdi,%rdx,1),%r15
    3dda:	48 8d 54 17 fc       	lea    -0x4(%rdi,%rdx,1),%rdx
    3ddf:	f3 41 0f 10 0f       	movss  (%r15),%xmm1
    3de4:	f3 41 0f 11 4d 00    	movss  %xmm1,0x0(%r13)
    3dea:	f3 41 0f 11 07       	movss  %xmm0,(%r15)
    3def:	f3 41 0f 10 04 24    	movss  (%r12),%xmm0
    3df5:	f3 0f 10 0a          	movss  (%rdx),%xmm1
    3df9:	f3 41 0f 11 0c 24    	movss  %xmm1,(%r12)
    3dff:	f3 0f 11 02          	movss  %xmm0,(%rdx)
    3e03:	8d 51 06             	lea    0x6(%rcx),%edx
    3e06:	01 e8                	add    %ebp,%eax
    3e08:	83 c6 04             	add    $0x4,%esi
    3e0b:	4d 8d 24 96          	lea    (%r14,%rdx,4),%r12
    3e0f:	8d 14 00             	lea    (%rax,%rax,1),%edx
    3e12:	49 89 d5             	mov    %rdx,%r13
    3e15:	49 8d 14 96          	lea    (%r14,%rdx,4),%rdx
    3e19:	f3 41 0f 10 04 24    	movss  (%r12),%xmm0
    3e1f:	f3 0f 10 0a          	movss  (%rdx),%xmm1
    3e23:	f3 41 0f 11 0c 24    	movss  %xmm1,(%r12)
    3e29:	f3 0f 11 02          	movss  %xmm0,(%rdx)
    3e2d:	8d 51 07             	lea    0x7(%rcx),%edx
    3e30:	83 c1 08             	add    $0x8,%ecx
    3e33:	4d 8d 24 96          	lea    (%r14,%rdx,4),%r12
    3e37:	41 8d 55 01          	lea    0x1(%r13),%edx
    3e3b:	49 8d 14 96          	lea    (%r14,%rdx,4),%rdx
    3e3f:	f3 41 0f 10 04 24    	movss  (%r12),%xmm0
    3e45:	f3 0f 10 0a          	movss  (%rdx),%xmm1
    3e49:	f3 41 0f 11 0c 24    	movss  %xmm1,(%r12)
    3e4f:	f3 0f 11 02          	movss  %xmm0,(%rdx)
    3e53:	e9 d0 fd ff ff       	jmp    3c28 <riscv_dsp_cfft_rd4_f32+0xf48>
    3e58:	0f 1f 84 00 00 00 00 	nopl   0x0(%rax,%rax,1)
    3e5f:	00 
    3e60:	8d b2 00 ff ff ff    	lea    -0x100(%rdx),%esi
    3e66:	45 89 e8             	mov    %r13d,%r8d
    3e69:	41 29 f0             	sub    %esi,%r8d
    3e6c:	45 85 c0             	test   %r8d,%r8d
    3e6f:	0f 8e 9b 00 00 00    	jle    3f10 <riscv_dsp_cfft_rd4_f32+0x1230>
    3e75:	48 63 f6             	movslq %esi,%rsi
    3e78:	8d 14 5b             	lea    (%rbx,%rbx,2),%edx
    3e7b:	4d 63 c0             	movslq %r8d,%r8
    3e7e:	f3 45 0f 10 04 b3    	movss  (%r11,%rsi,4),%xmm8
    3e84:	d3 e2                	shl    %cl,%edx
    3e86:	44 89 ee             	mov    %r13d,%esi
    3e89:	f3 43 0f 10 2c 83    	movss  (%r11,%r8,4),%xmm5
    3e8f:	29 d6                	sub    %edx,%esi
    3e91:	0f 57 2d 38 23 00 00 	xorps  0x2338(%rip),%xmm5        # 61d0 <_IO_stdin_used+0x1d0>
    3e98:	85 f6                	test   %esi,%esi
    3e9a:	0f 8f 0d f5 ff ff    	jg     33ad <riscv_dsp_cfft_rd4_f32+0x6cd>
    3ea0:	8d b2 00 ff ff ff    	lea    -0x100(%rdx),%esi
    3ea6:	45 89 e8             	mov    %r13d,%r8d
    3ea9:	41 29 f0             	sub    %esi,%r8d
    3eac:	45 85 c0             	test   %r8d,%r8d
    3eaf:	0f 8e eb 00 00 00    	jle    3fa0 <riscv_dsp_cfft_rd4_f32+0x12c0>
    3eb5:	4d 63 c0             	movslq %r8d,%r8
    3eb8:	48 63 f6             	movslq %esi,%rsi
    3ebb:	f3 43 0f 10 1c 83    	movss  (%r11,%r8,4),%xmm3
    3ec1:	f3 41 0f 10 34 b3    	movss  (%r11,%rsi,4),%xmm6
    3ec7:	0f 57 1d 02 23 00 00 	xorps  0x2302(%rip),%xmm3        # 61d0 <_IO_stdin_used+0x1d0>
    3ece:	e9 ec f4 ff ff       	jmp    33bf <riscv_dsp_cfft_rd4_f32+0x6df>
    3ed3:	0f 1f 44 00 00       	nopl   0x0(%rax,%rax,1)
    3ed8:	8d b2 00 ff ff ff    	lea    -0x100(%rdx),%esi
    3ede:	45 89 e8             	mov    %r13d,%r8d
    3ee1:	41 29 f0             	sub    %esi,%r8d
    3ee4:	45 85 c0             	test   %r8d,%r8d
    3ee7:	7e 6f                	jle    3f58 <riscv_dsp_cfft_rd4_f32+0x1278>
    3ee9:	4d 63 c0             	movslq %r8d,%r8
    3eec:	48 63 f6             	movslq %esi,%rsi
    3eef:	f3 43 0f 10 24 83    	movss  (%r11,%r8,4),%xmm4
    3ef5:	f3 41 0f 10 3c b3    	movss  (%r11,%rsi,4),%xmm7
    3efb:	0f 57 25 ce 22 00 00 	xorps  0x22ce(%rip),%xmm4        # 61d0 <_IO_stdin_used+0x1d0>
    3f02:	e9 70 f4 ff ff       	jmp    3377 <riscv_dsp_cfft_rd4_f32+0x697>
    3f07:	66 0f 1f 84 00 00 00 	nopw   0x0(%rax,%rax,1)
    3f0e:	00 00 
    3f10:	81 ea 00 02 00 00    	sub    $0x200,%edx
    3f16:	44 89 ee             	mov    %r13d,%esi
    3f19:	29 d6                	sub    %edx,%esi
    3f1b:	48 63 d2             	movslq %edx,%rdx
    3f1e:	4c 63 c6             	movslq %esi,%r8
    3f21:	f3 45 0f 10 04 93    	movss  (%r11,%rdx,4),%xmm8
    3f27:	44 0f 57 05 a1 22 00 	xorps  0x22a1(%rip),%xmm8        # 61d0 <_IO_stdin_used+0x1d0>
    3f2e:	00 
    3f2f:	f3 43 0f 10 2c 83    	movss  (%r11,%r8,4),%xmm5
    3f35:	85 f6                	test   %esi,%esi
    3f37:	0f 8e 5e f4 ff ff    	jle    339b <riscv_dsp_cfft_rd4_f32+0x6bb>
    3f3d:	0f 57 2d 8c 22 00 00 	xorps  0x228c(%rip),%xmm5        # 61d0 <_IO_stdin_used+0x1d0>
    3f44:	0f 28 c5             	movaps %xmm5,%xmm0
    3f47:	41 0f 28 e8          	movaps %xmm8,%xmm5
    3f4b:	44 0f 28 c0          	movaps %xmm0,%xmm8
    3f4f:	e9 47 f4 ff ff       	jmp    339b <riscv_dsp_cfft_rd4_f32+0x6bb>
    3f54:	0f 1f 40 00          	nopl   0x0(%rax)
    3f58:	81 ea 00 02 00 00    	sub    $0x200,%edx
    3f5e:	44 89 ee             	mov    %r13d,%esi
    3f61:	29 d6                	sub    %edx,%esi
    3f63:	48 63 d2             	movslq %edx,%rdx
    3f66:	4c 63 c6             	movslq %esi,%r8
    3f69:	f3 41 0f 10 3c 93    	movss  (%r11,%rdx,4),%xmm7
    3f6f:	0f 57 3d 5a 22 00 00 	xorps  0x225a(%rip),%xmm7        # 61d0 <_IO_stdin_used+0x1d0>
    3f76:	f3 43 0f 10 24 83    	movss  (%r11,%r8,4),%xmm4
    3f7c:	85 f6                	test   %esi,%esi
    3f7e:	0f 8e f3 f3 ff ff    	jle    3377 <riscv_dsp_cfft_rd4_f32+0x697>
    3f84:	0f 57 25 45 22 00 00 	xorps  0x2245(%rip),%xmm4        # 61d0 <_IO_stdin_used+0x1d0>
    3f8b:	0f 28 c4             	movaps %xmm4,%xmm0
    3f8e:	0f 28 e7             	movaps %xmm7,%xmm4
    3f91:	0f 28 f8             	movaps %xmm0,%xmm7
    3f94:	e9 de f3 ff ff       	jmp    3377 <riscv_dsp_cfft_rd4_f32+0x697>
    3f99:	0f 1f 80 00 00 00 00 	nopl   0x0(%rax)
    3fa0:	81 ea 00 02 00 00    	sub    $0x200,%edx
    3fa6:	44 89 ee             	mov    %r13d,%esi
    3fa9:	29 d6                	sub    %edx,%esi
    3fab:	48 63 d2             	movslq %edx,%rdx
    3fae:	4c 63 c6             	movslq %esi,%r8
    3fb1:	f3 41 0f 10 34 93    	movss  (%r11,%rdx,4),%xmm6
    3fb7:	0f 57 35 12 22 00 00 	xorps  0x2212(%rip),%xmm6        # 61d0 <_IO_stdin_used+0x1d0>
    3fbe:	f3 43 0f 10 1c 83    	movss  (%r11,%r8,4),%xmm3
    3fc4:	85 f6                	test   %esi,%esi
    3fc6:	0f 8e f3 f3 ff ff    	jle    33bf <riscv_dsp_cfft_rd4_f32+0x6df>
    3fcc:	0f 57 1d fd 21 00 00 	xorps  0x21fd(%rip),%xmm3        # 61d0 <_IO_stdin_used+0x1d0>
    3fd3:	0f 28 c3             	movaps %xmm3,%xmm0
    3fd6:	0f 28 de             	movaps %xmm6,%xmm3
    3fd9:	0f 28 f0             	movaps %xmm0,%xmm6
    3fdc:	e9 de f3 ff ff       	jmp    33bf <riscv_dsp_cfft_rd4_f32+0x6df>
    3fe1:	48 8b 44 24 d8       	mov    -0x28(%rsp),%rax
    3fe6:	49 89 c8             	mov    %rcx,%r8
    3fe9:	8b 7c 24 d0          	mov    -0x30(%rsp),%edi
    3fed:	49 c1 e0 04          	shl    $0x4,%r8
    3ff1:	48 01 c6             	add    %rax,%rsi
    3ff4:	0f 1f 40 00          	nopl   0x0(%rax)
    3ff8:	f3 0f 10 00          	movss  (%rax),%xmm0
    3ffc:	f3 0f 10 0e          	movss  (%rsi),%xmm1
    4000:	f3 0f 10 14 16       	movss  (%rsi,%rdx,1),%xmm2
    4005:	0f 28 e8             	movaps %xmm0,%xmm5
    4008:	f3 0f 5c c1          	subss  %xmm1,%xmm0
    400c:	f3 0f 58 e9          	addss  %xmm1,%xmm5
    4010:	f3 0f 10 0c 10       	movss  (%rax,%rdx,1),%xmm1
    4015:	0f 28 f9             	movaps %xmm1,%xmm7
    4018:	f3 0f 5c ca          	subss  %xmm2,%xmm1
    401c:	f3 0f 58 fa          	addss  %xmm2,%xmm7
    4020:	0f 28 d5             	movaps %xmm5,%xmm2
    4023:	f3 0f 58 d7          	addss  %xmm7,%xmm2
    4027:	f3 0f 5c ef          	subss  %xmm7,%xmm5
    402b:	f3 0f 11 10          	movss  %xmm2,(%rax)
    402f:	f3 0f 10 50 04       	movss  0x4(%rax),%xmm2
    4034:	f3 0f 10 5e 04       	movss  0x4(%rsi),%xmm3
    4039:	f3 44 0f 10 44 16 04 	movss  0x4(%rsi,%rdx,1),%xmm8
    4040:	0f 28 e2             	movaps %xmm2,%xmm4
    4043:	f3 0f 5c d3          	subss  %xmm3,%xmm2
    4047:	f3 0f 58 e3          	addss  %xmm3,%xmm4
    404b:	f3 0f 10 5c 10 04    	movss  0x4(%rax,%rdx,1),%xmm3
    4051:	0f 28 f3             	movaps %xmm3,%xmm6
    4054:	f3 41 0f 5c d8       	subss  %xmm8,%xmm3
    4059:	f3 41 0f 58 f0       	addss  %xmm8,%xmm6
    405e:	44 0f 28 c4          	movaps %xmm4,%xmm8
    4062:	f3 44 0f 58 c6       	addss  %xmm6,%xmm8
    4067:	f3 0f 5c e6          	subss  %xmm6,%xmm4
    406b:	f3 44 0f 11 40 04    	movss  %xmm8,0x4(%rax)
    4071:	f3 0f 11 64 10 04    	movss  %xmm4,0x4(%rax,%rdx,1)
    4077:	0f 28 e0             	movaps %xmm0,%xmm4
    407a:	f3 0f 5c c3          	subss  %xmm3,%xmm0
    407e:	f3 0f 58 e3          	addss  %xmm3,%xmm4
    4082:	f3 0f 11 2c 10       	movss  %xmm5,(%rax,%rdx,1)
    4087:	4c 01 c0             	add    %r8,%rax
    408a:	f3 0f 11 26          	movss  %xmm4,(%rsi)
    408e:	0f 28 e2             	movaps %xmm2,%xmm4
    4091:	f3 0f 5c e1          	subss  %xmm1,%xmm4
    4095:	f3 0f 58 ca          	addss  %xmm2,%xmm1
    4099:	0f 14 c1             	unpcklps %xmm1,%xmm0
    409c:	f3 0f 11 66 04       	movss  %xmm4,0x4(%rsi)
    40a1:	0f 13 04 16          	movlps %xmm0,(%rsi,%rdx,1)
    40a5:	4c 01 c6             	add    %r8,%rsi
    40a8:	83 ef 01             	sub    $0x1,%edi
    40ab:	0f 85 47 ff ff ff    	jne    3ff8 <riscv_dsp_cfft_rd4_f32+0x1318>
    40b1:	e9 62 f1 ff ff       	jmp    3218 <riscv_dsp_cfft_rd4_f32+0x538>
    40b6:	4c 8b 44 24 e0       	mov    -0x20(%rsp),%r8
    40bb:	8b 6c 24 d0          	mov    -0x30(%rsp),%ebp
    40bf:	31 ff                	xor    %edi,%edi
    40c1:	44 89 f9             	mov    %r15d,%ecx
    40c4:	4c 8d 1d 5d 29 00 00 	lea    0x295d(%rip),%r11        # 6a28 <riscv_dsp_cos_table_f32_1024+0x8>
    40cb:	41 b9 00 01 00 00    	mov    $0x100,%r9d
    40d1:	f3 44 0f 10 05 f6 20 	movss  0x20f6(%rip),%xmm8        # 61d0 <_IO_stdin_used+0x1d0>
    40d8:	00 00 
    40da:	66 0f 1f 44 00 00    	nopw   0x0(%rax,%rax,1)
    40e0:	01 ef                	add    %ebp,%edi
    40e2:	45 89 ca             	mov    %r9d,%r10d
    40e5:	89 fe                	mov    %edi,%esi
    40e7:	d3 e6                	shl    %cl,%esi
    40e9:	41 29 f2             	sub    %esi,%r10d
    40ec:	45 85 d2             	test   %r10d,%r10d
    40ef:	0f 8e 2f 02 00 00    	jle    4324 <riscv_dsp_cfft_rd4_f32+0x1644>
    40f5:	48 63 f6             	movslq %esi,%rsi
    40f8:	4d 63 d2             	movslq %r10d,%r10
    40fb:	f3 41 0f 10 1c b3    	movss  (%r11,%rsi,4),%xmm3
    4101:	f3 43 0f 10 2c 93    	movss  (%r11,%r10,4),%xmm5
    4107:	8d 34 3f             	lea    (%rdi,%rdi,1),%esi
    410a:	45 89 ca             	mov    %r9d,%r10d
    410d:	d3 e6                	shl    %cl,%esi
    410f:	41 29 f2             	sub    %esi,%r10d
    4112:	45 85 d2             	test   %r10d,%r10d
    4115:	0f 8e d6 01 00 00    	jle    42f1 <riscv_dsp_cfft_rd4_f32+0x1611>
    411b:	48 63 f6             	movslq %esi,%rsi
    411e:	4d 63 d2             	movslq %r10d,%r10
    4121:	f3 41 0f 10 14 b3    	movss  (%r11,%rsi,4),%xmm2
    4127:	f3 43 0f 10 24 93    	movss  (%r11,%r10,4),%xmm4
    412d:	8d 34 7f             	lea    (%rdi,%rdi,2),%esi
    4130:	45 89 ca             	mov    %r9d,%r10d
    4133:	d3 e6                	shl    %cl,%esi
    4135:	41 29 f2             	sub    %esi,%r10d
    4138:	45 85 d2             	test   %r10d,%r10d
    413b:	0f 8e 81 01 00 00    	jle    42c2 <riscv_dsp_cfft_rd4_f32+0x15e2>
    4141:	48 63 f6             	movslq %esi,%rsi
    4144:	4d 63 d2             	movslq %r10d,%r10
    4147:	f3 41 0f 10 34 b3    	movss  (%r11,%rsi,4),%xmm6
    414d:	f3 43 0f 10 3c 93    	movss  (%r11,%r10,4),%xmm7
    4153:	0f c6 ff e0          	shufps $0xe0,%xmm7,%xmm7
    4157:	0f c6 f6 e0          	shufps $0xe0,%xmm6,%xmm6
    415b:	85 ed                	test   %ebp,%ebp
    415d:	0f 84 4d 01 00 00    	je     42b0 <riscv_dsp_cfft_rd4_f32+0x15d0>
    4163:	4f 8d 14 28          	lea    (%r8,%r13,1),%r10
    4167:	4c 89 c6             	mov    %r8,%rsi
    416a:	89 eb                	mov    %ebp,%ebx
    416c:	0f 1f 40 00          	nopl   0x0(%rax)
    4170:	f3 0f 10 06          	movss  (%rsi),%xmm0
    4174:	f3 41 0f 10 0a       	movss  (%r10),%xmm1
    4179:	f3 44 0f 10 0c 16    	movss  (%rsi,%rdx,1),%xmm9
    417f:	f3 45 0f 10 14 12    	movss  (%r10,%rdx,1),%xmm10
    4185:	44 0f 28 e0          	movaps %xmm0,%xmm12
    4189:	f3 0f 5c c1          	subss  %xmm1,%xmm0
    418d:	f3 44 0f 58 e1       	addss  %xmm1,%xmm12
    4192:	41 0f 28 c9          	movaps %xmm9,%xmm1
    4196:	f3 45 0f 5c ca       	subss  %xmm10,%xmm9
    419b:	f3 41 0f 58 ca       	addss  %xmm10,%xmm1
    41a0:	44 0f 28 d1          	movaps %xmm1,%xmm10
    41a4:	f3 45 0f 58 d4       	addss  %xmm12,%xmm10
    41a9:	f3 44 0f 5c e1       	subss  %xmm1,%xmm12
    41ae:	f3 44 0f 11 16       	movss  %xmm10,(%rsi)
    41b3:	f3 44 0f 10 56 04    	movss  0x4(%rsi),%xmm10
    41b9:	f3 45 0f 10 5a 04    	movss  0x4(%r10),%xmm11
    41bf:	f3 45 0f 10 74 12 04 	movss  0x4(%r10,%rdx,1),%xmm14
    41c6:	41 0f 28 ca          	movaps %xmm10,%xmm1
    41ca:	f3 45 0f 5c d3       	subss  %xmm11,%xmm10
    41cf:	f3 41 0f 58 cb       	addss  %xmm11,%xmm1
    41d4:	f3 44 0f 10 5c 16 04 	movss  0x4(%rsi,%rdx,1),%xmm11
    41db:	45 0f 28 eb          	movaps %xmm11,%xmm13
    41df:	f3 45 0f 5c de       	subss  %xmm14,%xmm11
    41e4:	f3 45 0f 58 ee       	addss  %xmm14,%xmm13
    41e9:	45 0f 28 f5          	movaps %xmm13,%xmm14
    41ed:	f3 44 0f 58 f1       	addss  %xmm1,%xmm14
    41f2:	f3 41 0f 5c cd       	subss  %xmm13,%xmm1
    41f7:	45 0f 28 ec          	movaps %xmm12,%xmm13
    41fb:	f3 44 0f 59 e4       	mulss  %xmm4,%xmm12
    4200:	f3 44 0f 59 ea       	mulss  %xmm2,%xmm13
    4205:	f3 44 0f 11 76 04    	movss  %xmm14,0x4(%rsi)
    420b:	44 0f 28 f1          	movaps %xmm1,%xmm14
    420f:	f3 0f 59 ca          	mulss  %xmm2,%xmm1
    4213:	f3 44 0f 59 f4       	mulss  %xmm4,%xmm14
    4218:	f3 41 0f 5c cc       	subss  %xmm12,%xmm1
    421d:	45 0f 28 e3          	movaps %xmm11,%xmm12
    4221:	f3 44 0f 58 e0       	addss  %xmm0,%xmm12
    4226:	f3 41 0f 5c c3       	subss  %xmm11,%xmm0
    422b:	f3 45 0f 58 ee       	addss  %xmm14,%xmm13
    4230:	f3 0f 11 4c 16 04    	movss  %xmm1,0x4(%rsi,%rdx,1)
    4236:	41 0f 28 ca          	movaps %xmm10,%xmm1
    423a:	f3 41 0f 5c c9       	subss  %xmm9,%xmm1
    423f:	f3 45 0f 58 ca       	addss  %xmm10,%xmm9
    4244:	f3 44 0f 11 2c 16    	movss  %xmm13,(%rsi,%rdx,1)
    424a:	48 01 c6             	add    %rax,%rsi
    424d:	45 0f 28 d1          	movaps %xmm9,%xmm10
    4251:	44 0f 28 d9          	movaps %xmm1,%xmm11
    4255:	f3 0f 59 cb          	mulss  %xmm3,%xmm1
    4259:	44 0f 14 d0          	unpcklps %xmm0,%xmm10
    425d:	41 0f 14 c1          	unpcklps %xmm9,%xmm0
    4261:	0f 59 c6             	mulps  %xmm6,%xmm0
    4264:	45 0f 28 cc          	movaps %xmm12,%xmm9
    4268:	f3 44 0f 59 e5       	mulss  %xmm5,%xmm12
    426d:	44 0f 59 d7          	mulps  %xmm7,%xmm10
    4271:	f3 44 0f 59 cb       	mulss  %xmm3,%xmm9
    4276:	f3 44 0f 59 dd       	mulss  %xmm5,%xmm11
    427b:	f3 41 0f 5c cc       	subss  %xmm12,%xmm1
    4280:	f3 41 0f 11 4a 04    	movss  %xmm1,0x4(%r10)
    4286:	0f 28 c8             	movaps %xmm0,%xmm1
    4289:	41 0f 5c c2          	subps  %xmm10,%xmm0
    428d:	f3 45 0f 58 cb       	addss  %xmm11,%xmm9
    4292:	41 0f 58 ca          	addps  %xmm10,%xmm1
    4296:	f3 45 0f 11 0a       	movss  %xmm9,(%r10)
    429b:	f3 0f 10 c1          	movss  %xmm1,%xmm0
    429f:	41 0f 13 04 12       	movlps %xmm0,(%r10,%rdx,1)
    42a4:	49 01 c2             	add    %rax,%r10
    42a7:	83 eb 01             	sub    $0x1,%ebx
    42aa:	0f 85 c0 fe ff ff    	jne    4170 <riscv_dsp_cfft_rd4_f32+0x1490>
    42b0:	49 83 c0 08          	add    $0x8,%r8
    42b4:	4d 39 c6             	cmp    %r8,%r14
    42b7:	0f 85 23 fe ff ff    	jne    40e0 <riscv_dsp_cfft_rd4_f32+0x1400>
    42bd:	e9 a9 f4 ff ff       	jmp    376b <riscv_dsp_cfft_rd4_f32+0xa8b>
    42c2:	44 8d 96 00 ff ff ff 	lea    -0x100(%rsi),%r10d
    42c9:	44 89 cb             	mov    %r9d,%ebx
    42cc:	44 29 d3             	sub    %r10d,%ebx
    42cf:	85 db                	test   %ebx,%ebx
    42d1:	7e 7d                	jle    4350 <riscv_dsp_cfft_rd4_f32+0x1670>
    42d3:	48 63 db             	movslq %ebx,%rbx
    42d6:	4d 63 d2             	movslq %r10d,%r10
    42d9:	f3 41 0f 10 34 9b    	movss  (%r11,%rbx,4),%xmm6
    42df:	f3 43 0f 10 3c 93    	movss  (%r11,%r10,4),%xmm7
    42e5:	0f 57 35 e4 1e 00 00 	xorps  0x1ee4(%rip),%xmm6        # 61d0 <_IO_stdin_used+0x1d0>
    42ec:	e9 62 fe ff ff       	jmp    4153 <riscv_dsp_cfft_rd4_f32+0x1473>
    42f1:	44 8d 96 00 ff ff ff 	lea    -0x100(%rsi),%r10d
    42f8:	44 89 cb             	mov    %r9d,%ebx
    42fb:	44 29 d3             	sub    %r10d,%ebx
    42fe:	85 db                	test   %ebx,%ebx
    4300:	0f 8e d0 00 00 00    	jle    43d6 <riscv_dsp_cfft_rd4_f32+0x16f6>
    4306:	48 63 db             	movslq %ebx,%rbx
    4309:	4d 63 d2             	movslq %r10d,%r10
    430c:	f3 41 0f 10 14 9b    	movss  (%r11,%rbx,4),%xmm2
    4312:	f3 43 0f 10 24 93    	movss  (%r11,%r10,4),%xmm4
    4318:	0f 57 15 b1 1e 00 00 	xorps  0x1eb1(%rip),%xmm2        # 61d0 <_IO_stdin_used+0x1d0>
    431f:	e9 09 fe ff ff       	jmp    412d <riscv_dsp_cfft_rd4_f32+0x144d>
    4324:	44 8d 96 00 ff ff ff 	lea    -0x100(%rsi),%r10d
    432b:	44 89 cb             	mov    %r9d,%ebx
    432e:	44 29 d3             	sub    %r10d,%ebx
    4331:	85 db                	test   %ebx,%ebx
    4333:	7e 5e                	jle    4393 <riscv_dsp_cfft_rd4_f32+0x16b3>
    4335:	48 63 db             	movslq %ebx,%rbx
    4338:	4d 63 d2             	movslq %r10d,%r10
    433b:	f3 41 0f 10 1c 9b    	movss  (%r11,%rbx,4),%xmm3
    4341:	f3 43 0f 10 2c 93    	movss  (%r11,%r10,4),%xmm5
    4347:	41 0f 57 d8          	xorps  %xmm8,%xmm3
    434b:	e9 b7 fd ff ff       	jmp    4107 <riscv_dsp_cfft_rd4_f32+0x1427>
    4350:	81 ee 00 02 00 00    	sub    $0x200,%esi
    4356:	45 89 ca             	mov    %r9d,%r10d
    4359:	41 29 f2             	sub    %esi,%r10d
    435c:	48 63 f6             	movslq %esi,%rsi
    435f:	49 63 da             	movslq %r10d,%rbx
    4362:	f3 41 0f 10 3c b3    	movss  (%r11,%rsi,4),%xmm7
    4368:	0f 57 3d 61 1e 00 00 	xorps  0x1e61(%rip),%xmm7        # 61d0 <_IO_stdin_used+0x1d0>
    436f:	f3 41 0f 10 34 9b    	movss  (%r11,%rbx,4),%xmm6
    4375:	45 85 d2             	test   %r10d,%r10d
    4378:	0f 8e d5 fd ff ff    	jle    4153 <riscv_dsp_cfft_rd4_f32+0x1473>
    437e:	0f 57 35 4b 1e 00 00 	xorps  0x1e4b(%rip),%xmm6        # 61d0 <_IO_stdin_used+0x1d0>
    4385:	0f 28 c6             	movaps %xmm6,%xmm0
    4388:	0f 28 f7             	movaps %xmm7,%xmm6
    438b:	0f 28 f8             	movaps %xmm0,%xmm7
    438e:	e9 c0 fd ff ff       	jmp    4153 <riscv_dsp_cfft_rd4_f32+0x1473>
    4393:	81 ee 00 02 00 00    	sub    $0x200,%esi
    4399:	45 89 ca             	mov    %r9d,%r10d
    439c:	41 29 f2             	sub    %esi,%r10d
    439f:	48 63 f6             	movslq %esi,%rsi
    43a2:	49 63 da             	movslq %r10d,%rbx
    43a5:	f3 41 0f 10 2c b3    	movss  (%r11,%rsi,4),%xmm5
    43ab:	0f 57 2d 1e 1e 00 00 	xorps  0x1e1e(%rip),%xmm5        # 61d0 <_IO_stdin_used+0x1d0>
    43b2:	f3 41 0f 10 1c 9b    	movss  (%r11,%rbx,4),%xmm3
    43b8:	45 85 d2             	test   %r10d,%r10d
    43bb:	0f 8e 46 fd ff ff    	jle    4107 <riscv_dsp_cfft_rd4_f32+0x1427>
    43c1:	0f 57 1d 08 1e 00 00 	xorps  0x1e08(%rip),%xmm3        # 61d0 <_IO_stdin_used+0x1d0>
    43c8:	0f 28 c3             	movaps %xmm3,%xmm0
    43cb:	0f 28 dd             	movaps %xmm5,%xmm3
    43ce:	0f 28 e8             	movaps %xmm0,%xmm5
    43d1:	e9 31 fd ff ff       	jmp    4107 <riscv_dsp_cfft_rd4_f32+0x1427>
    43d6:	81 ee 00 02 00 00    	sub    $0x200,%esi
    43dc:	45 89 ca             	mov    %r9d,%r10d
    43df:	41 29 f2             	sub    %esi,%r10d
    43e2:	48 63 f6             	movslq %esi,%rsi
    43e5:	49 63 da             	movslq %r10d,%rbx
    43e8:	f3 41 0f 10 24 b3    	movss  (%r11,%rsi,4),%xmm4
    43ee:	0f 57 25 db 1d 00 00 	xorps  0x1ddb(%rip),%xmm4        # 61d0 <_IO_stdin_used+0x1d0>
    43f5:	f3 41 0f 10 14 9b    	movss  (%r11,%rbx,4),%xmm2
    43fb:	45 85 d2             	test   %r10d,%r10d
    43fe:	0f 8e 29 fd ff ff    	jle    412d <riscv_dsp_cfft_rd4_f32+0x144d>
    4404:	0f 57 15 c5 1d 00 00 	xorps  0x1dc5(%rip),%xmm2        # 61d0 <_IO_stdin_used+0x1d0>
    440b:	0f 28 c2             	movaps %xmm2,%xmm0
    440e:	0f 28 d4             	movaps %xmm4,%xmm2
    4411:	0f 28 e0             	movaps %xmm0,%xmm4
    4414:	e9 14 fd ff ff       	jmp    412d <riscv_dsp_cfft_rd4_f32+0x144d>
    4419:	5b                   	pop    %rbx
    441a:	31 c0                	xor    %eax,%eax
    441c:	5d                   	pop    %rbp
    441d:	41 5c                	pop    %r12
    441f:	41 5d                	pop    %r13
    4421:	41 5e                	pop    %r14
    4423:	41 5f                	pop    %r15
    4425:	c3                   	ret    
    4426:	66 2e 0f 1f 84 00 00 	cs nopw 0x0(%rax,%rax,1)
    442d:	00 00 00 

0000000000004430 <riscv_dsp_cifft_rd4_f32>:
    4430:	f3 0f 1e fa          	endbr64 
    4434:	41 57                	push   %r15
    4436:	89 f1                	mov    %esi,%ecx
    4438:	b8 01 00 00 00       	mov    $0x1,%eax
    443d:	41 56                	push   %r14
    443f:	d3 e0                	shl    %cl,%eax
    4441:	49 89 fe             	mov    %rdi,%r14
    4444:	41 55                	push   %r13
    4446:	41 54                	push   %r12
    4448:	55                   	push   %rbp
    4449:	53                   	push   %rbx
    444a:	f3 0f 10 07          	movss  (%rdi),%xmm0
    444e:	f3 0f 10 67 04       	movss  0x4(%rdi),%xmm4
    4453:	0f 28 f0             	movaps %xmm0,%xmm6
    4456:	89 44 24 f0          	mov    %eax,-0x10(%rsp)
    445a:	d1 e8                	shr    %eax
    445c:	89 74 24 ec          	mov    %esi,-0x14(%rsp)
    4460:	89 c6                	mov    %eax,%esi
    4462:	48 c1 e6 02          	shl    $0x2,%rsi
    4466:	89 44 24 f4          	mov    %eax,-0xc(%rsp)
    446a:	4c 8d 1c 37          	lea    (%rdi,%rsi,1),%r11
    446e:	49 8d 14 33          	lea    (%r11,%rsi,1),%rdx
    4472:	f3 0f 10 0a          	movss  (%rdx),%xmm1
    4476:	48 8d 04 32          	lea    (%rdx,%rsi,1),%rax
    447a:	f3 0f 10 10          	movss  (%rax),%xmm2
    447e:	f3 0f 58 f1          	addss  %xmm1,%xmm6
    4482:	f3 0f 5c c1          	subss  %xmm1,%xmm0
    4486:	f3 41 0f 10 0b       	movss  (%r11),%xmm1
    448b:	44 0f 28 c1          	movaps %xmm1,%xmm8
    448f:	f3 0f 5c ca          	subss  %xmm2,%xmm1
    4493:	f3 44 0f 58 c2       	addss  %xmm2,%xmm8
    4498:	0f 28 d6             	movaps %xmm6,%xmm2
    449b:	f3 41 0f 58 d0       	addss  %xmm8,%xmm2
    44a0:	f3 41 0f 5c f0       	subss  %xmm8,%xmm6
    44a5:	f3 0f 11 17          	movss  %xmm2,(%rdi)
    44a9:	f3 0f 10 5a 04       	movss  0x4(%rdx),%xmm3
    44ae:	f3 41 0f 10 7b 04    	movss  0x4(%r11),%xmm7
    44b4:	0f 28 d3             	movaps %xmm3,%xmm2
    44b7:	0f 57 15 12 1d 00 00 	xorps  0x1d12(%rip),%xmm2        # 61d0 <_IO_stdin_used+0x1d0>
    44be:	f3 0f 5c dc          	subss  %xmm4,%xmm3
    44c2:	f3 0f 5c d4          	subss  %xmm4,%xmm2
    44c6:	f3 0f 10 60 04       	movss  0x4(%rax),%xmm4
    44cb:	0f 28 ec             	movaps %xmm4,%xmm5
    44ce:	0f 57 2d fb 1c 00 00 	xorps  0x1cfb(%rip),%xmm5        # 61d0 <_IO_stdin_used+0x1d0>
    44d5:	f3 0f 5c e7          	subss  %xmm7,%xmm4
    44d9:	f3 0f 5c ef          	subss  %xmm7,%xmm5
    44dd:	0f 28 fa             	movaps %xmm2,%xmm7
    44e0:	f3 0f 58 fd          	addss  %xmm5,%xmm7
    44e4:	f3 0f 5c d5          	subss  %xmm5,%xmm2
    44e8:	0f 28 eb             	movaps %xmm3,%xmm5
    44eb:	f3 0f 5c e9          	subss  %xmm1,%xmm5
    44ef:	f3 0f 58 cb          	addss  %xmm3,%xmm1
    44f3:	f3 0f 11 7f 04       	movss  %xmm7,0x4(%rdi)
    44f8:	f3 41 0f 11 53 04    	movss  %xmm2,0x4(%r11)
    44fe:	0f 28 d0             	movaps %xmm0,%xmm2
    4501:	f3 0f 5c c4          	subss  %xmm4,%xmm0
    4505:	f3 0f 58 d4          	addss  %xmm4,%xmm2
    4509:	f3 41 0f 11 33       	movss  %xmm6,(%r11)
    450e:	0f 14 c1             	unpcklps %xmm1,%xmm0
    4511:	0f 14 d5             	unpcklps %xmm5,%xmm2
    4514:	0f 13 12             	movlps %xmm2,(%rdx)
    4517:	0f 13 00             	movlps %xmm0,(%rax)
    451a:	48 8d 47 08          	lea    0x8(%rdi),%rax
    451e:	48 89 44 24 d0       	mov    %rax,-0x30(%rsp)
    4523:	49 39 c3             	cmp    %rax,%r11
    4526:	0f 84 16 03 00 00    	je     4842 <riscv_dsp_cifft_rd4_f32+0x412>
    452c:	b9 0a 00 00 00       	mov    $0xa,%ecx
    4531:	48 8d 54 77 08       	lea    0x8(%rdi,%rsi,2),%rdx
    4536:	45 31 c9             	xor    %r9d,%r9d
    4539:	2b 4c 24 ec          	sub    -0x14(%rsp),%ecx
    453d:	4c 8d 05 e4 24 00 00 	lea    0x24e4(%rip),%r8        # 6a28 <riscv_dsp_cos_table_f32_1024+0x8>
    4544:	41 ba 00 01 00 00    	mov    $0x100,%r10d
    454a:	e9 02 01 00 00       	jmp    4651 <riscv_dsp_cifft_rd4_f32+0x221>
    454f:	48 63 ff             	movslq %edi,%rdi
    4552:	48 63 db             	movslq %ebx,%rbx
    4555:	f3 41 0f 10 3c b8    	movss  (%r8,%rdi,4),%xmm7
    455b:	f3 45 0f 10 04 98    	movss  (%r8,%rbx,4),%xmm8
    4561:	0f 28 f3             	movaps %xmm3,%xmm6
    4564:	44 0f 28 c8          	movaps %xmm0,%xmm9
    4568:	44 89 cf             	mov    %r9d,%edi
    456b:	44 89 d3             	mov    %r10d,%ebx
    456e:	f3 41 0f 59 d8       	mulss  %xmm8,%xmm3
    4573:	d3 e7                	shl    %cl,%edi
    4575:	f3 0f 59 c7          	mulss  %xmm7,%xmm0
    4579:	29 fb                	sub    %edi,%ebx
    457b:	f3 0f 59 f7          	mulss  %xmm7,%xmm6
    457f:	f3 45 0f 59 c8       	mulss  %xmm8,%xmm9
    4584:	f3 0f 5c c3          	subss  %xmm3,%xmm0
    4588:	0f 28 da             	movaps %xmm2,%xmm3
    458b:	f3 0f 5c d5          	subss  %xmm5,%xmm2
    458f:	f3 0f 58 dd          	addss  %xmm5,%xmm3
    4593:	f3 41 0f 58 f1       	addss  %xmm9,%xmm6
    4598:	f3 0f 11 44 30 04    	movss  %xmm0,0x4(%rax,%rsi,1)
    459e:	0f 28 c4             	movaps %xmm4,%xmm0
    45a1:	f3 0f 5c c1          	subss  %xmm1,%xmm0
    45a5:	f3 0f 58 cc          	addss  %xmm4,%xmm1
    45a9:	0f 28 eb             	movaps %xmm3,%xmm5
    45ac:	f3 0f 11 34 30       	movss  %xmm6,(%rax,%rsi,1)
    45b1:	0f 28 f0             	movaps %xmm0,%xmm6
    45b4:	0f 14 e8             	unpcklps %xmm0,%xmm5
    45b7:	0f 14 f3             	unpcklps %xmm3,%xmm6
    45ba:	0f 28 d9             	movaps %xmm1,%xmm3
    45bd:	0f 14 da             	unpcklps %xmm2,%xmm3
    45c0:	0f 14 d1             	unpcklps %xmm1,%xmm2
    45c3:	85 db                	test   %ebx,%ebx
    45c5:	0f 8e 80 01 00 00    	jle    474b <riscv_dsp_cifft_rd4_f32+0x31b>
    45cb:	48 63 ff             	movslq %edi,%rdi
    45ce:	f3 41 0f 10 04 b8    	movss  (%r8,%rdi,4),%xmm0
    45d4:	48 63 fb             	movslq %ebx,%rdi
    45d7:	f3 41 0f 10 0c b8    	movss  (%r8,%rdi,4),%xmm1
    45dd:	0f c6 c0 e0          	shufps $0xe0,%xmm0,%xmm0
    45e1:	0f 59 c5             	mulps  %xmm5,%xmm0
    45e4:	0f c6 c9 e0          	shufps $0xe0,%xmm1,%xmm1
    45e8:	43 8d 3c 49          	lea    (%r9,%r9,2),%edi
    45ec:	0f 59 ce             	mulps  %xmm6,%xmm1
    45ef:	d3 e7                	shl    %cl,%edi
    45f1:	44 89 d3             	mov    %r10d,%ebx
    45f4:	29 fb                	sub    %edi,%ebx
    45f6:	0f 28 e0             	movaps %xmm0,%xmm4
    45f9:	0f 58 e1             	addps  %xmm1,%xmm4
    45fc:	0f 5c c1             	subps  %xmm1,%xmm0
    45ff:	f3 0f 10 c4          	movss  %xmm4,%xmm0
    4603:	0f 13 02             	movlps %xmm0,(%rdx)
    4606:	85 db                	test   %ebx,%ebx
    4608:	0f 8e 0c 01 00 00    	jle    471a <riscv_dsp_cifft_rd4_f32+0x2ea>
    460e:	48 63 ff             	movslq %edi,%rdi
    4611:	48 63 db             	movslq %ebx,%rbx
    4614:	f3 41 0f 10 04 b8    	movss  (%r8,%rdi,4),%xmm0
    461a:	f3 41 0f 10 0c 98    	movss  (%r8,%rbx,4),%xmm1
    4620:	0f c6 c0 e0          	shufps $0xe0,%xmm0,%xmm0
    4624:	0f 59 c2             	mulps  %xmm2,%xmm0
    4627:	0f c6 c9 e0          	shufps $0xe0,%xmm1,%xmm1
    462b:	48 83 c0 08          	add    $0x8,%rax
    462f:	0f 59 cb             	mulps  %xmm3,%xmm1
    4632:	48 83 c2 08          	add    $0x8,%rdx
    4636:	0f 28 d0             	movaps %xmm0,%xmm2
    4639:	0f 58 d1             	addps  %xmm1,%xmm2
    463c:	0f 5c c1             	subps  %xmm1,%xmm0
    463f:	f3 0f 10 c2          	movss  %xmm2,%xmm0
    4643:	0f 13 44 32 f8       	movlps %xmm0,-0x8(%rdx,%rsi,1)
    4648:	49 39 c3             	cmp    %rax,%r11
    464b:	0f 84 f1 01 00 00    	je     4842 <riscv_dsp_cifft_rd4_f32+0x412>
    4651:	f3 0f 10 10          	movss  (%rax),%xmm2
    4655:	f3 0f 10 02          	movss  (%rdx),%xmm0
    4659:	41 83 c1 01          	add    $0x1,%r9d
    465d:	44 89 d3             	mov    %r10d,%ebx
    4660:	f3 0f 10 0c 30       	movss  (%rax,%rsi,1),%xmm1
    4665:	f3 0f 10 24 32       	movss  (%rdx,%rsi,1),%xmm4
    466a:	43 8d 3c 09          	lea    (%r9,%r9,1),%edi
    466e:	0f 28 da             	movaps %xmm2,%xmm3
    4671:	f3 0f 5c d0          	subss  %xmm0,%xmm2
    4675:	f3 0f 10 68 04       	movss  0x4(%rax),%xmm5
    467a:	d3 e7                	shl    %cl,%edi
    467c:	f3 0f 58 d8          	addss  %xmm0,%xmm3
    4680:	0f 28 c1             	movaps %xmm1,%xmm0
    4683:	f3 0f 5c cc          	subss  %xmm4,%xmm1
    4687:	29 fb                	sub    %edi,%ebx
    4689:	f3 0f 58 c4          	addss  %xmm4,%xmm0
    468d:	0f 28 e3             	movaps %xmm3,%xmm4
    4690:	f3 0f 58 e0          	addss  %xmm0,%xmm4
    4694:	f3 0f 5c d8          	subss  %xmm0,%xmm3
    4698:	f3 0f 11 20          	movss  %xmm4,(%rax)
    469c:	f3 0f 10 62 04       	movss  0x4(%rdx),%xmm4
    46a1:	f3 0f 10 7c 30 04    	movss  0x4(%rax,%rsi,1),%xmm7
    46a7:	0f 28 c4             	movaps %xmm4,%xmm0
    46aa:	0f 57 05 1f 1b 00 00 	xorps  0x1b1f(%rip),%xmm0        # 61d0 <_IO_stdin_used+0x1d0>
    46b1:	f3 0f 5c e5          	subss  %xmm5,%xmm4
    46b5:	f3 0f 5c c5          	subss  %xmm5,%xmm0
    46b9:	f3 0f 10 6c 32 04    	movss  0x4(%rdx,%rsi,1),%xmm5
    46bf:	0f 28 f5             	movaps %xmm5,%xmm6
    46c2:	0f 57 35 07 1b 00 00 	xorps  0x1b07(%rip),%xmm6        # 61d0 <_IO_stdin_used+0x1d0>
    46c9:	f3 0f 5c ef          	subss  %xmm7,%xmm5
    46cd:	f3 0f 5c f7          	subss  %xmm7,%xmm6
    46d1:	0f 28 f8             	movaps %xmm0,%xmm7
    46d4:	f3 0f 58 fe          	addss  %xmm6,%xmm7
    46d8:	f3 0f 5c c6          	subss  %xmm6,%xmm0
    46dc:	f3 0f 11 78 04       	movss  %xmm7,0x4(%rax)
    46e1:	85 db                	test   %ebx,%ebx
    46e3:	0f 8f 66 fe ff ff    	jg     454f <riscv_dsp_cifft_rd4_f32+0x11f>
    46e9:	8d 9f 00 ff ff ff    	lea    -0x100(%rdi),%ebx
    46ef:	44 89 d5             	mov    %r10d,%ebp
    46f2:	29 dd                	sub    %ebx,%ebp
    46f4:	85 ed                	test   %ebp,%ebp
    46f6:	0f 8e 80 00 00 00    	jle    477c <riscv_dsp_cifft_rd4_f32+0x34c>
    46fc:	48 63 ed             	movslq %ebp,%rbp
    46ff:	48 63 db             	movslq %ebx,%rbx
    4702:	f3 41 0f 10 3c a8    	movss  (%r8,%rbp,4),%xmm7
    4708:	f3 45 0f 10 04 98    	movss  (%r8,%rbx,4),%xmm8
    470e:	0f 57 3d bb 1a 00 00 	xorps  0x1abb(%rip),%xmm7        # 61d0 <_IO_stdin_used+0x1d0>
    4715:	e9 47 fe ff ff       	jmp    4561 <riscv_dsp_cifft_rd4_f32+0x131>
    471a:	8d 9f 00 ff ff ff    	lea    -0x100(%rdi),%ebx
    4720:	44 89 d5             	mov    %r10d,%ebp
    4723:	29 dd                	sub    %ebx,%ebp
    4725:	85 ed                	test   %ebp,%ebp
    4727:	0f 8e 93 00 00 00    	jle    47c0 <riscv_dsp_cifft_rd4_f32+0x390>
    472d:	48 63 ed             	movslq %ebp,%rbp
    4730:	48 63 db             	movslq %ebx,%rbx
    4733:	f3 41 0f 10 04 a8    	movss  (%r8,%rbp,4),%xmm0
    4739:	f3 41 0f 10 0c 98    	movss  (%r8,%rbx,4),%xmm1
    473f:	0f 57 05 8a 1a 00 00 	xorps  0x1a8a(%rip),%xmm0        # 61d0 <_IO_stdin_used+0x1d0>
    4746:	e9 d5 fe ff ff       	jmp    4620 <riscv_dsp_cifft_rd4_f32+0x1f0>
    474b:	8d 9f 00 ff ff ff    	lea    -0x100(%rdi),%ebx
    4751:	44 89 d5             	mov    %r10d,%ebp
    4754:	29 dd                	sub    %ebx,%ebp
    4756:	85 ed                	test   %ebp,%ebp
    4758:	0f 8e a3 00 00 00    	jle    4801 <riscv_dsp_cifft_rd4_f32+0x3d1>
    475e:	48 63 ed             	movslq %ebp,%rbp
    4761:	48 63 db             	movslq %ebx,%rbx
    4764:	f3 41 0f 10 04 a8    	movss  (%r8,%rbp,4),%xmm0
    476a:	f3 41 0f 10 0c 98    	movss  (%r8,%rbx,4),%xmm1
    4770:	0f 57 05 59 1a 00 00 	xorps  0x1a59(%rip),%xmm0        # 61d0 <_IO_stdin_used+0x1d0>
    4777:	e9 61 fe ff ff       	jmp    45dd <riscv_dsp_cifft_rd4_f32+0x1ad>
    477c:	81 ef 00 02 00 00    	sub    $0x200,%edi
    4782:	44 89 d3             	mov    %r10d,%ebx
    4785:	29 fb                	sub    %edi,%ebx
    4787:	48 63 ff             	movslq %edi,%rdi
    478a:	48 63 eb             	movslq %ebx,%rbp
    478d:	f3 45 0f 10 04 b8    	movss  (%r8,%rdi,4),%xmm8
    4793:	44 0f 57 05 35 1a 00 	xorps  0x1a35(%rip),%xmm8        # 61d0 <_IO_stdin_used+0x1d0>
    479a:	00 
    479b:	f3 41 0f 10 3c a8    	movss  (%r8,%rbp,4),%xmm7
    47a1:	85 db                	test   %ebx,%ebx
    47a3:	0f 8e b8 fd ff ff    	jle    4561 <riscv_dsp_cifft_rd4_f32+0x131>
    47a9:	0f 57 3d 20 1a 00 00 	xorps  0x1a20(%rip),%xmm7        # 61d0 <_IO_stdin_used+0x1d0>
    47b0:	0f 28 f7             	movaps %xmm7,%xmm6
    47b3:	41 0f 28 f8          	movaps %xmm8,%xmm7
    47b7:	44 0f 28 c6          	movaps %xmm6,%xmm8
    47bb:	e9 a1 fd ff ff       	jmp    4561 <riscv_dsp_cifft_rd4_f32+0x131>
    47c0:	81 ef 00 02 00 00    	sub    $0x200,%edi
    47c6:	44 89 d3             	mov    %r10d,%ebx
    47c9:	29 fb                	sub    %edi,%ebx
    47cb:	48 63 ff             	movslq %edi,%rdi
    47ce:	48 63 eb             	movslq %ebx,%rbp
    47d1:	f3 41 0f 10 0c b8    	movss  (%r8,%rdi,4),%xmm1
    47d7:	0f 57 0d f2 19 00 00 	xorps  0x19f2(%rip),%xmm1        # 61d0 <_IO_stdin_used+0x1d0>
    47de:	f3 41 0f 10 04 a8    	movss  (%r8,%rbp,4),%xmm0
    47e4:	85 db                	test   %ebx,%ebx
    47e6:	0f 8e 34 fe ff ff    	jle    4620 <riscv_dsp_cifft_rd4_f32+0x1f0>
    47ec:	0f 28 e0             	movaps %xmm0,%xmm4
    47ef:	0f 57 25 da 19 00 00 	xorps  0x19da(%rip),%xmm4        # 61d0 <_IO_stdin_used+0x1d0>
    47f6:	0f 28 c1             	movaps %xmm1,%xmm0
    47f9:	0f 28 cc             	movaps %xmm4,%xmm1
    47fc:	e9 1f fe ff ff       	jmp    4620 <riscv_dsp_cifft_rd4_f32+0x1f0>
    4801:	81 ef 00 02 00 00    	sub    $0x200,%edi
    4807:	44 89 d3             	mov    %r10d,%ebx
    480a:	29 fb                	sub    %edi,%ebx
    480c:	48 63 ff             	movslq %edi,%rdi
    480f:	48 63 eb             	movslq %ebx,%rbp
    4812:	f3 41 0f 10 0c b8    	movss  (%r8,%rdi,4),%xmm1
    4818:	0f 57 0d b1 19 00 00 	xorps  0x19b1(%rip),%xmm1        # 61d0 <_IO_stdin_used+0x1d0>
    481f:	f3 41 0f 10 04 a8    	movss  (%r8,%rbp,4),%xmm0
    4825:	85 db                	test   %ebx,%ebx
    4827:	0f 8e b0 fd ff ff    	jle    45dd <riscv_dsp_cifft_rd4_f32+0x1ad>
    482d:	0f 28 e0             	movaps %xmm0,%xmm4
    4830:	0f 57 25 99 19 00 00 	xorps  0x1999(%rip),%xmm4        # 61d0 <_IO_stdin_used+0x1d0>
    4837:	0f 28 c1             	movaps %xmm1,%xmm0
    483a:	0f 28 cc             	movaps %xmm4,%xmm1
    483d:	e9 9b fd ff ff       	jmp    45dd <riscv_dsp_cifft_rd4_f32+0x1ad>
    4842:	8b 4c 24 ec          	mov    -0x14(%rsp),%ecx
    4846:	8b 5c 24 f4          	mov    -0xc(%rsp),%ebx
    484a:	c7 44 24 9c 04 00 00 	movl   $0x4,-0x64(%rsp)
    4851:	00 
    4852:	89 c8                	mov    %ecx,%eax
    4854:	89 5c 24 d8          	mov    %ebx,-0x28(%rsp)
    4858:	d1 e8                	shr    %eax
    485a:	83 e8 02             	sub    $0x2,%eax
    485d:	89 44 24 dc          	mov    %eax,-0x24(%rsp)
    4861:	0f 84 61 06 00 00    	je     4ec8 <riscv_dsp_cifft_rd4_f32+0xa98>
    4867:	49 8d 46 04          	lea    0x4(%r14),%rax
    486b:	4c 89 74 24 c8       	mov    %r14,-0x38(%rsp)
    4870:	4c 8d 25 b1 21 00 00 	lea    0x21b1(%rip),%r12        # 6a28 <riscv_dsp_cos_table_f32_1024+0x8>
    4877:	41 bd 00 01 00 00    	mov    $0x100,%r13d
    487d:	48 89 44 24 e0       	mov    %rax,-0x20(%rsp)
    4882:	b8 0a 00 00 00       	mov    $0xa,%eax
    4887:	29 c8                	sub    %ecx,%eax
    4889:	89 44 24 e8          	mov    %eax,-0x18(%rsp)
    488d:	0f 1f 00             	nopl   (%rax)
    4890:	48 8b 44 24 c8       	mov    -0x38(%rsp),%rax
    4895:	8b 74 24 9c          	mov    -0x64(%rsp),%esi
    4899:	c1 6c 24 d8 02       	shrl   $0x2,-0x28(%rsp)
    489e:	8b 4c 24 d8          	mov    -0x28(%rsp),%ecx
    48a2:	48 8d 14 8d 00 00 00 	lea    0x0(,%rcx,4),%rdx
    48a9:	00 
    48aa:	48 8d 2c 10          	lea    (%rax,%rdx,1),%rbp
    48ae:	85 f6                	test   %esi,%esi
    48b0:	0f 84 ba 00 00 00    	je     4970 <riscv_dsp_cifft_rd4_f32+0x540>
    48b6:	48 8b 5c 24 e0       	mov    -0x20(%rsp),%rbx
    48bb:	48 8d 7c 15 00       	lea    0x0(%rbp,%rdx,1),%rdi
    48c0:	48 8d 04 cd 00 00 00 	lea    0x0(,%rcx,8),%rax
    48c7:	00 
    48c8:	4c 8d 04 17          	lea    (%rdi,%rdx,1),%r8
    48cc:	48 39 dd             	cmp    %rbx,%rbp
    48cf:	41 0f 97 c1          	seta   %r9b
    48d3:	48 39 fb             	cmp    %rdi,%rbx
    48d6:	40 0f 92 c6          	setb   %sil
    48da:	41 84 f1             	test   %sil,%r9b
    48dd:	0f 84 7e 0f 00 00    	je     5861 <riscv_dsp_cifft_rd4_f32+0x1431>
    48e3:	4c 39 c3             	cmp    %r8,%rbx
    48e6:	0f 83 75 0f 00 00    	jae    5861 <riscv_dsp_cifft_rd4_f32+0x1431>
    48ec:	49 89 c9             	mov    %rcx,%r9
    48ef:	44 8b 5c 24 9c       	mov    -0x64(%rsp),%r11d
    48f4:	4c 8b 54 24 c8       	mov    -0x38(%rsp),%r10
    48f9:	31 c0                	xor    %eax,%eax
    48fb:	49 c1 e1 04          	shl    $0x4,%r9
    48ff:	31 f6                	xor    %esi,%esi
    4901:	0f 1f 80 00 00 00 00 	nopl   0x0(%rax)
    4908:	f3 41 0f 7e 04 02    	movq   (%r10,%rax,1),%xmm0
    490e:	f3 0f 7e 0c 07       	movq   (%rdi,%rax,1),%xmm1
    4913:	83 c6 01             	add    $0x1,%esi
    4916:	f3 41 0f 7e 1c 00    	movq   (%r8,%rax,1),%xmm3
    491c:	0f 28 d0             	movaps %xmm0,%xmm2
    491f:	0f 58 c1             	addps  %xmm1,%xmm0
    4922:	0f 5c d1             	subps  %xmm1,%xmm2
    4925:	f3 0f 7e 4c 05 00    	movq   0x0(%rbp,%rax,1),%xmm1
    492b:	0f 28 e1             	movaps %xmm1,%xmm4
    492e:	0f 5c cb             	subps  %xmm3,%xmm1
    4931:	0f 58 e3             	addps  %xmm3,%xmm4
    4934:	0f 28 da             	movaps %xmm2,%xmm3
    4937:	0f c6 c9 e1          	shufps $0xe1,%xmm1,%xmm1
    493b:	0f 58 d9             	addps  %xmm1,%xmm3
    493e:	0f 5c d1             	subps  %xmm1,%xmm2
    4941:	0f 28 c8             	movaps %xmm0,%xmm1
    4944:	0f 58 cc             	addps  %xmm4,%xmm1
    4947:	0f 5c c4             	subps  %xmm4,%xmm0
    494a:	41 0f 13 0c 02       	movlps %xmm1,(%r10,%rax,1)
    494f:	0f 13 44 05 00       	movlps %xmm0,0x0(%rbp,%rax,1)
    4954:	0f 28 c2             	movaps %xmm2,%xmm0
    4957:	f3 0f 10 c3          	movss  %xmm3,%xmm0
    495b:	f3 0f 10 da          	movss  %xmm2,%xmm3
    495f:	0f 13 04 07          	movlps %xmm0,(%rdi,%rax,1)
    4963:	41 0f 13 1c 00       	movlps %xmm3,(%r8,%rax,1)
    4968:	4c 01 c8             	add    %r9,%rax
    496b:	41 39 f3             	cmp    %esi,%r11d
    496e:	75 98                	jne    4908 <riscv_dsp_cifft_rd4_f32+0x4d8>
    4970:	48 39 6c 24 d0       	cmp    %rbp,-0x30(%rsp)
    4975:	0f 84 38 05 00 00    	je     4eb3 <riscv_dsp_cifft_rd4_f32+0xa83>
    497b:	48 8d 34 11          	lea    (%rcx,%rdx,1),%rsi
    497f:	48 8d 3c 49          	lea    (%rcx,%rcx,2),%rdi
    4983:	48 89 c8             	mov    %rcx,%rax
    4986:	48 8d 34 76          	lea    (%rsi,%rsi,2),%rsi
    498a:	4c 8d 0c bd 00 00 00 	lea    0x0(,%rdi,4),%r9
    4991:	00 
    4992:	48 c1 e0 04          	shl    $0x4,%rax
    4996:	48 c1 e7 04          	shl    $0x4,%rdi
    499a:	4c 8d 34 b5 04 00 00 	lea    0x4(,%rsi,4),%r14
    49a1:	00 
    49a2:	8b 74 24 9c          	mov    -0x64(%rsp),%esi
    49a6:	4e 8d 54 09 01       	lea    0x1(%rcx,%r9,1),%r10
    49ab:	49 c1 e2 02          	shl    $0x2,%r10
    49af:	4c 8d 5f 04          	lea    0x4(%rdi),%r11
    49b3:	4c 8d 3c cd 00 00 00 	lea    0x0(,%rcx,8),%r15
    49ba:	00 
    49bb:	83 ee 01             	sub    $0x1,%esi
    49be:	49 8d 5c 3f 04       	lea    0x4(%r15,%rdi,1),%rbx
    49c3:	83 fe 05             	cmp    $0x5,%esi
    49c6:	41 0f 97 c0          	seta   %r8b
    49ca:	48 85 d2             	test   %rdx,%rdx
    49cd:	40 0f 95 c6          	setne  %sil
    49d1:	44 21 c6             	and    %r8d,%esi
    49d4:	48 83 f8 07          	cmp    $0x7,%rax
    49d8:	41 0f 97 c0          	seta   %r8b
    49dc:	41 21 f0             	and    %esi,%r8d
    49df:	49 39 d3             	cmp    %rdx,%r11
    49e2:	40 0f 9c c6          	setl   %sil
    49e6:	41 21 f0             	and    %esi,%r8d
    49e9:	4d 39 fe             	cmp    %r15,%r14
    49ec:	40 0f 9c c6          	setl   %sil
    49f0:	49 39 d9             	cmp    %rbx,%r9
    49f3:	0f 9f 44 24 a0       	setg   -0x60(%rsp)
    49f8:	40 0a 74 24 a0       	or     -0x60(%rsp),%sil
    49fd:	44 21 c6             	and    %r8d,%esi
    4a00:	4d 39 fb             	cmp    %r15,%r11
    4a03:	41 0f 9c c0          	setl   %r8b
    4a07:	41 21 f0             	and    %esi,%r8d
    4a0a:	4d 39 cb             	cmp    %r9,%r11
    4a0d:	40 0f 9c c6          	setl   %sil
    4a11:	41 21 f0             	and    %esi,%r8d
    4a14:	48 39 da             	cmp    %rbx,%rdx
    4a17:	40 0f 9f c6          	setg   %sil
    4a1b:	4d 39 d7             	cmp    %r10,%r15
    4a1e:	41 0f 9f c3          	setg   %r11b
    4a22:	44 09 de             	or     %r11d,%esi
    4a25:	41 84 f0             	test   %sil,%r8b
    4a28:	0f 84 09 0f 00 00    	je     5937 <riscv_dsp_cifft_rd4_f32+0x1507>
    4a2e:	49 39 d6             	cmp    %rdx,%r14
    4a31:	40 0f 9c c6          	setl   %sil
    4a35:	4d 39 d1             	cmp    %r10,%r9
    4a38:	41 0f 9f c0          	setg   %r8b
    4a3c:	41 08 f0             	or     %sil,%r8b
    4a3f:	0f 84 f2 0e 00 00    	je     5937 <riscv_dsp_cifft_rd4_f32+0x1507>
    4a45:	4c 8b 74 24 c8       	mov    -0x38(%rsp),%r14
    4a4a:	49 89 ca             	mov    %rcx,%r10
    4a4d:	8b 5c 24 9c          	mov    -0x64(%rsp),%ebx
    4a51:	48 c1 e1 05          	shl    $0x5,%rcx
    4a55:	48 89 6c 24 b8       	mov    %rbp,-0x48(%rsp)
    4a5a:	49 c1 e2 06          	shl    $0x6,%r10
    4a5e:	49 8d 54 16 08       	lea    0x8(%r14,%rdx,1),%rdx
    4a63:	4f 8d 5c 3e 08       	lea    0x8(%r14,%r15,1),%r11
    4a68:	48 89 4c 24 c0       	mov    %rcx,-0x40(%rsp)
    4a6d:	c1 eb 02             	shr    $0x2,%ebx
    4a70:	48 89 54 24 a8       	mov    %rdx,-0x58(%rsp)
    4a75:	4b 8d 54 0e 08       	lea    0x8(%r14,%r9,1),%rdx
    4a7a:	8b 4c 24 e8          	mov    -0x18(%rsp),%ecx
    4a7e:	48 89 54 24 b0       	mov    %rdx,-0x50(%rsp)
    4a83:	4c 8b 74 24 d0       	mov    -0x30(%rsp),%r14
    4a88:	4c 89 5c 24 a0       	mov    %r11,-0x60(%rsp)
    4a8d:	45 31 db             	xor    %r11d,%r11d
    4a90:	44 03 5c 24 9c       	add    -0x64(%rsp),%r11d
    4a95:	44 89 ee             	mov    %r13d,%esi
    4a98:	44 89 da             	mov    %r11d,%edx
    4a9b:	d3 e2                	shl    %cl,%edx
    4a9d:	29 d6                	sub    %edx,%esi
    4a9f:	85 f6                	test   %esi,%esi
    4aa1:	0f 8e b1 0c 00 00    	jle    5758 <riscv_dsp_cifft_rd4_f32+0x1328>
    4aa7:	48 63 d2             	movslq %edx,%rdx
    4aaa:	48 63 f6             	movslq %esi,%rsi
    4aad:	f3 41 0f 10 24 94    	movss  (%r12,%rdx,4),%xmm4
    4ab3:	f3 41 0f 10 3c b4    	movss  (%r12,%rsi,4),%xmm7
    4ab9:	43 8d 14 1b          	lea    (%r11,%r11,1),%edx
    4abd:	44 89 ee             	mov    %r13d,%esi
    4ac0:	d3 e2                	shl    %cl,%edx
    4ac2:	29 d6                	sub    %edx,%esi
    4ac4:	85 f6                	test   %esi,%esi
    4ac6:	0f 8e 14 0c 00 00    	jle    56e0 <riscv_dsp_cifft_rd4_f32+0x12b0>
    4acc:	48 63 d2             	movslq %edx,%rdx
    4acf:	48 63 f6             	movslq %esi,%rsi
    4ad2:	f3 41 0f 10 2c 94    	movss  (%r12,%rdx,4),%xmm5
    4ad8:	f3 45 0f 10 04 b4    	movss  (%r12,%rsi,4),%xmm8
    4ade:	43 8d 14 5b          	lea    (%r11,%r11,2),%edx
    4ae2:	44 89 ee             	mov    %r13d,%esi
    4ae5:	d3 e2                	shl    %cl,%edx
    4ae7:	29 d6                	sub    %edx,%esi
    4ae9:	85 f6                	test   %esi,%esi
    4aeb:	0f 8e 30 0c 00 00    	jle    5721 <riscv_dsp_cifft_rd4_f32+0x12f1>
    4af1:	48 63 d2             	movslq %edx,%rdx
    4af4:	48 63 f6             	movslq %esi,%rsi
    4af7:	f3 41 0f 10 1c 94    	movss  (%r12,%rdx,4),%xmm3
    4afd:	f3 41 0f 10 34 b4    	movss  (%r12,%rsi,4),%xmm6
    4b03:	8b 54 24 9c          	mov    -0x64(%rsp),%edx
    4b07:	85 d2                	test   %edx,%edx
    4b09:	0f 84 83 03 00 00    	je     4e92 <riscv_dsp_cifft_rd4_f32+0xa62>
    4b0f:	48 8b 74 24 c0       	mov    -0x40(%rsp),%rsi
    4b14:	4c 8b 44 24 a0       	mov    -0x60(%rsp),%r8
    4b19:	4d 89 f1             	mov    %r14,%r9
    4b1c:	45 31 ff             	xor    %r15d,%r15d
    4b1f:	0f c6 ed 00          	shufps $0x0,%xmm5,%xmm5
    4b23:	0f c6 e4 00          	shufps $0x0,%xmm4,%xmm4
    4b27:	0f c6 ff 00          	shufps $0x0,%xmm7,%xmm7
    4b2b:	0f c6 db 00          	shufps $0x0,%xmm3,%xmm3
    4b2f:	49 8d 2c 36          	lea    (%r14,%rsi,1),%rbp
    4b33:	48 8b 54 24 b0       	mov    -0x50(%rsp),%rdx
    4b38:	48 8b 74 24 a8       	mov    -0x58(%rsp),%rsi
    4b3d:	0f c6 f6 00          	shufps $0x0,%xmm6,%xmm6
    4b41:	45 0f c6 c0 00       	shufps $0x0,%xmm8,%xmm8
    4b46:	66 2e 0f 1f 84 00 00 	cs nopw 0x0(%rax,%rax,1)
    4b4d:	00 00 00 
    4b50:	f3 41 0f 10 0c 39    	movss  (%r9,%rdi,1),%xmm1
    4b56:	f3 0f 10 45 00       	movss  0x0(%rbp),%xmm0
    4b5b:	41 83 c7 01          	add    $0x1,%r15d
    4b5f:	f3 41 0f 10 11       	movss  (%r9),%xmm2
    4b64:	f3 45 0f 10 0c 00    	movss  (%r8,%rax,1),%xmm9
    4b6a:	0f 14 c1             	unpcklps %xmm1,%xmm0
    4b6d:	f3 41 0f 10 0c 01    	movss  (%r9,%rax,1),%xmm1
    4b73:	f3 44 0f 10 14 02    	movss  (%rdx,%rax,1),%xmm10
    4b79:	f3 45 0f 10 5c 00 04 	movss  0x4(%r8,%rax,1),%xmm11
    4b80:	f3 44 0f 10 74 06 04 	movss  0x4(%rsi,%rax,1),%xmm14
    4b87:	0f 14 d1             	unpcklps %xmm1,%xmm2
    4b8a:	f3 41 0f 10 0c 40    	movss  (%r8,%rax,2),%xmm1
    4b90:	f3 44 0f 10 7c 02 04 	movss  0x4(%rdx,%rax,1),%xmm15
    4b97:	0f 16 d0             	movlhps %xmm0,%xmm2
    4b9a:	f3 41 0f 10 04 38    	movss  (%r8,%rdi,1),%xmm0
    4ba0:	0f 14 c8             	unpcklps %xmm0,%xmm1
    4ba3:	f3 41 0f 10 00       	movss  (%r8),%xmm0
    4ba8:	41 0f 14 c1          	unpcklps %xmm9,%xmm0
    4bac:	f3 44 0f 10 0c 06    	movss  (%rsi,%rax,1),%xmm9
    4bb2:	0f 16 c1             	movlhps %xmm1,%xmm0
    4bb5:	f3 0f 10 0c 46       	movss  (%rsi,%rax,2),%xmm1
    4bba:	44 0f 28 e8          	movaps %xmm0,%xmm13
    4bbe:	44 0f 58 ea          	addps  %xmm2,%xmm13
    4bc2:	0f 5c d0             	subps  %xmm0,%xmm2
    4bc5:	f3 0f 10 04 3e       	movss  (%rsi,%rdi,1),%xmm0
    4bca:	0f 14 c8             	unpcklps %xmm0,%xmm1
    4bcd:	f3 0f 10 06          	movss  (%rsi),%xmm0
    4bd1:	45 0f 28 e5          	movaps %xmm13,%xmm12
    4bd5:	41 0f 14 c1          	unpcklps %xmm9,%xmm0
    4bd9:	f3 44 0f 10 0c 42    	movss  (%rdx,%rax,2),%xmm9
    4bdf:	0f 16 c1             	movlhps %xmm1,%xmm0
    4be2:	f3 0f 10 0c 3a       	movss  (%rdx,%rdi,1),%xmm1
    4be7:	44 0f 14 c9          	unpcklps %xmm1,%xmm9
    4beb:	f3 0f 10 0a          	movss  (%rdx),%xmm1
    4bef:	41 0f 14 ca          	unpcklps %xmm10,%xmm1
    4bf3:	41 0f 16 c9          	movlhps %xmm9,%xmm1
    4bf7:	44 0f 28 c8          	movaps %xmm0,%xmm9
    4bfb:	0f 5c c1             	subps  %xmm1,%xmm0
    4bfe:	44 0f 58 c9          	addps  %xmm1,%xmm9
    4c02:	f3 41 0f 10 4c 39 04 	movss  0x4(%r9,%rdi,1),%xmm1
    4c09:	44 0f 28 d0          	movaps %xmm0,%xmm10
    4c0d:	f3 0f 10 45 04       	movss  0x4(%rbp),%xmm0
    4c12:	45 0f 58 e1          	addps  %xmm9,%xmm12
    4c16:	45 0f 5c e9          	subps  %xmm9,%xmm13
    4c1a:	f3 45 0f 10 49 04    	movss  0x4(%r9),%xmm9
    4c20:	0f 14 c1             	unpcklps %xmm1,%xmm0
    4c23:	f3 41 0f 10 4c 01 04 	movss  0x4(%r9,%rax,1),%xmm1
    4c2a:	44 0f 14 c9          	unpcklps %xmm1,%xmm9
    4c2e:	f3 41 0f 10 4c 38 04 	movss  0x4(%r8,%rdi,1),%xmm1
    4c35:	44 0f 16 c8          	movlhps %xmm0,%xmm9
    4c39:	f3 41 0f 10 44 40 04 	movss  0x4(%r8,%rax,2),%xmm0
    4c40:	0f 14 c1             	unpcklps %xmm1,%xmm0
    4c43:	f3 41 0f 10 48 04    	movss  0x4(%r8),%xmm1
    4c49:	41 0f 14 cb          	unpcklps %xmm11,%xmm1
    4c4d:	f3 44 0f 10 5c 3e 04 	movss  0x4(%rsi,%rdi,1),%xmm11
    4c54:	0f 16 c8             	movlhps %xmm0,%xmm1
    4c57:	41 0f 28 c1          	movaps %xmm9,%xmm0
    4c5b:	0f 58 c1             	addps  %xmm1,%xmm0
    4c5e:	44 0f 5c c9          	subps  %xmm1,%xmm9
    4c62:	f3 0f 10 4c 46 04    	movss  0x4(%rsi,%rax,2),%xmm1
    4c68:	41 0f 14 cb          	unpcklps %xmm11,%xmm1
    4c6c:	f3 44 0f 10 5e 04    	movss  0x4(%rsi),%xmm11
    4c72:	45 0f 14 de          	unpcklps %xmm14,%xmm11
    4c76:	f3 44 0f 10 74 42 04 	movss  0x4(%rdx,%rax,2),%xmm14
    4c7d:	44 0f 16 d9          	movlhps %xmm1,%xmm11
    4c81:	f3 0f 10 4c 3a 04    	movss  0x4(%rdx,%rdi,1),%xmm1
    4c87:	44 0f 14 f1          	unpcklps %xmm1,%xmm14
    4c8b:	f3 0f 10 4a 04       	movss  0x4(%rdx),%xmm1
    4c90:	f3 45 0f 11 21       	movss  %xmm12,(%r9)
    4c95:	41 0f 14 cf          	unpcklps %xmm15,%xmm1
    4c99:	45 0f 28 fc          	movaps %xmm12,%xmm15
    4c9d:	41 0f 16 ce          	movlhps %xmm14,%xmm1
    4ca1:	45 0f 28 f3          	movaps %xmm11,%xmm14
    4ca5:	45 0f c6 fc 55       	shufps $0x55,%xmm12,%xmm15
    4caa:	f3 45 0f 11 3c 01    	movss  %xmm15,(%r9,%rax,1)
    4cb0:	44 0f 58 f1          	addps  %xmm1,%xmm14
    4cb4:	44 0f 5c d9          	subps  %xmm1,%xmm11
    4cb8:	0f 28 c8             	movaps %xmm0,%xmm1
    4cbb:	45 0f 28 fc          	movaps %xmm12,%xmm15
    4cbf:	45 0f 15 fc          	unpckhps %xmm12,%xmm15
    4cc3:	45 0f c6 e4 ff       	shufps $0xff,%xmm12,%xmm12
    4cc8:	41 0f 58 ce          	addps  %xmm14,%xmm1
    4ccc:	f3 44 0f 11 7d 00    	movss  %xmm15,0x0(%rbp)
    4cd2:	41 0f 5c c6          	subps  %xmm14,%xmm0
    4cd6:	f3 45 0f 11 24 39    	movss  %xmm12,(%r9,%rdi,1)
    4cdc:	44 0f 28 e1          	movaps %xmm1,%xmm12
    4ce0:	f3 41 0f 11 49 04    	movss  %xmm1,0x4(%r9)
    4ce6:	44 0f c6 e1 55       	shufps $0x55,%xmm1,%xmm12
    4ceb:	f3 45 0f 11 64 01 04 	movss  %xmm12,0x4(%r9,%rax,1)
    4cf2:	44 0f 28 e1          	movaps %xmm1,%xmm12
    4cf6:	44 0f 15 e1          	unpckhps %xmm1,%xmm12
    4cfa:	0f c6 c9 ff          	shufps $0xff,%xmm1,%xmm1
    4cfe:	f3 44 0f 11 65 04    	movss  %xmm12,0x4(%rbp)
    4d04:	44 0f 28 e0          	movaps %xmm0,%xmm12
    4d08:	4c 01 d5             	add    %r10,%rbp
    4d0b:	f3 41 0f 11 4c 39 04 	movss  %xmm1,0x4(%r9,%rdi,1)
    4d12:	45 0f 59 e0          	mulps  %xmm8,%xmm12
    4d16:	41 0f 28 cd          	movaps %xmm13,%xmm1
    4d1a:	4d 01 d1             	add    %r10,%r9
    4d1d:	0f 59 cd             	mulps  %xmm5,%xmm1
    4d20:	0f 59 c5             	mulps  %xmm5,%xmm0
    4d23:	45 0f 59 e8          	mulps  %xmm8,%xmm13
    4d27:	41 0f 58 cc          	addps  %xmm12,%xmm1
    4d2b:	41 0f 5c c5          	subps  %xmm13,%xmm0
    4d2f:	44 0f 28 e1          	movaps %xmm1,%xmm12
    4d33:	f3 0f 11 0e          	movss  %xmm1,(%rsi)
    4d37:	44 0f c6 e1 55       	shufps $0x55,%xmm1,%xmm12
    4d3c:	f3 44 0f 11 24 06    	movss  %xmm12,(%rsi,%rax,1)
    4d42:	44 0f 28 e1          	movaps %xmm1,%xmm12
    4d46:	44 0f 15 e1          	unpckhps %xmm1,%xmm12
    4d4a:	0f c6 c9 ff          	shufps $0xff,%xmm1,%xmm1
    4d4e:	f3 44 0f 11 24 46    	movss  %xmm12,(%rsi,%rax,2)
    4d54:	44 0f 28 e2          	movaps %xmm2,%xmm12
    4d58:	41 0f 5c d3          	subps  %xmm11,%xmm2
    4d5c:	f3 0f 11 0c 3e       	movss  %xmm1,(%rsi,%rdi,1)
    4d61:	0f 28 c8             	movaps %xmm0,%xmm1
    4d64:	45 0f 58 e3          	addps  %xmm11,%xmm12
    4d68:	f3 0f 11 46 04       	movss  %xmm0,0x4(%rsi)
    4d6d:	0f c6 c8 55          	shufps $0x55,%xmm0,%xmm1
    4d71:	f3 0f 11 4c 06 04    	movss  %xmm1,0x4(%rsi,%rax,1)
    4d77:	0f 28 c8             	movaps %xmm0,%xmm1
    4d7a:	0f 15 c8             	unpckhps %xmm0,%xmm1
    4d7d:	0f c6 c0 ff          	shufps $0xff,%xmm0,%xmm0
    4d81:	f3 0f 11 4c 46 04    	movss  %xmm1,0x4(%rsi,%rax,2)
    4d87:	41 0f 28 c9          	movaps %xmm9,%xmm1
    4d8b:	41 0f 5c ca          	subps  %xmm10,%xmm1
    4d8f:	f3 0f 11 44 3e 04    	movss  %xmm0,0x4(%rsi,%rdi,1)
    4d95:	41 0f 28 c2          	movaps %xmm10,%xmm0
    4d99:	4c 01 d6             	add    %r10,%rsi
    4d9c:	41 0f 58 c1          	addps  %xmm9,%xmm0
    4da0:	45 0f 28 cc          	movaps %xmm12,%xmm9
    4da4:	44 0f 59 cc          	mulps  %xmm4,%xmm9
    4da8:	44 0f 59 e7          	mulps  %xmm7,%xmm12
    4dac:	44 0f 28 d1          	movaps %xmm1,%xmm10
    4db0:	44 0f 59 d7          	mulps  %xmm7,%xmm10
    4db4:	0f 59 cc             	mulps  %xmm4,%xmm1
    4db7:	45 0f 58 ca          	addps  %xmm10,%xmm9
    4dbb:	41 0f 5c cc          	subps  %xmm12,%xmm1
    4dbf:	45 0f 28 d1          	movaps %xmm9,%xmm10
    4dc3:	f3 45 0f 11 08       	movss  %xmm9,(%r8)
    4dc8:	45 0f c6 d1 55       	shufps $0x55,%xmm9,%xmm10
    4dcd:	f3 45 0f 11 14 00    	movss  %xmm10,(%r8,%rax,1)
    4dd3:	45 0f 28 d1          	movaps %xmm9,%xmm10
    4dd7:	45 0f 15 d1          	unpckhps %xmm9,%xmm10
    4ddb:	45 0f c6 c9 ff       	shufps $0xff,%xmm9,%xmm9
    4de0:	f3 45 0f 11 14 40    	movss  %xmm10,(%r8,%rax,2)
    4de6:	f3 45 0f 11 0c 38    	movss  %xmm9,(%r8,%rdi,1)
    4dec:	44 0f 28 c9          	movaps %xmm1,%xmm9
    4df0:	f3 41 0f 11 48 04    	movss  %xmm1,0x4(%r8)
    4df6:	44 0f c6 c9 55       	shufps $0x55,%xmm1,%xmm9
    4dfb:	f3 45 0f 11 4c 00 04 	movss  %xmm9,0x4(%r8,%rax,1)
    4e02:	44 0f 28 c9          	movaps %xmm1,%xmm9
    4e06:	44 0f 15 c9          	unpckhps %xmm1,%xmm9
    4e0a:	0f c6 c9 ff          	shufps $0xff,%xmm1,%xmm1
    4e0e:	f3 45 0f 11 4c 40 04 	movss  %xmm9,0x4(%r8,%rax,2)
    4e15:	44 0f 28 c8          	movaps %xmm0,%xmm9
    4e19:	f3 41 0f 11 4c 38 04 	movss  %xmm1,0x4(%r8,%rdi,1)
    4e20:	44 0f 59 ce          	mulps  %xmm6,%xmm9
    4e24:	0f 28 ca             	movaps %xmm2,%xmm1
    4e27:	4d 01 d0             	add    %r10,%r8
    4e2a:	0f 59 cb             	mulps  %xmm3,%xmm1
    4e2d:	0f 59 d6             	mulps  %xmm6,%xmm2
    4e30:	0f 59 c3             	mulps  %xmm3,%xmm0
    4e33:	41 0f 58 c9          	addps  %xmm9,%xmm1
    4e37:	0f 5c c2             	subps  %xmm2,%xmm0
    4e3a:	0f 28 d1             	movaps %xmm1,%xmm2
    4e3d:	f3 0f 11 0a          	movss  %xmm1,(%rdx)
    4e41:	0f c6 d1 55          	shufps $0x55,%xmm1,%xmm2
    4e45:	f3 0f 11 14 02       	movss  %xmm2,(%rdx,%rax,1)
    4e4a:	0f 28 d1             	movaps %xmm1,%xmm2
    4e4d:	0f 15 d1             	unpckhps %xmm1,%xmm2
    4e50:	0f c6 c9 ff          	shufps $0xff,%xmm1,%xmm1
    4e54:	f3 0f 11 14 42       	movss  %xmm2,(%rdx,%rax,2)
    4e59:	f3 0f 11 0c 3a       	movss  %xmm1,(%rdx,%rdi,1)
    4e5e:	0f 28 c8             	movaps %xmm0,%xmm1
    4e61:	f3 0f 11 42 04       	movss  %xmm0,0x4(%rdx)
    4e66:	0f c6 c8 55          	shufps $0x55,%xmm0,%xmm1
    4e6a:	f3 0f 11 4c 02 04    	movss  %xmm1,0x4(%rdx,%rax,1)
    4e70:	0f 28 c8             	movaps %xmm0,%xmm1
    4e73:	0f 15 c8             	unpckhps %xmm0,%xmm1
    4e76:	0f c6 c0 ff          	shufps $0xff,%xmm0,%xmm0
    4e7a:	f3 0f 11 4c 42 04    	movss  %xmm1,0x4(%rdx,%rax,2)
    4e80:	f3 0f 11 44 3a 04    	movss  %xmm0,0x4(%rdx,%rdi,1)
    4e86:	4c 01 d2             	add    %r10,%rdx
    4e89:	41 39 df             	cmp    %ebx,%r15d
    4e8c:	0f 85 be fc ff ff    	jne    4b50 <riscv_dsp_cifft_rd4_f32+0x720>
    4e92:	48 83 44 24 a0 08    	addq   $0x8,-0x60(%rsp)
    4e98:	49 83 c6 08          	add    $0x8,%r14
    4e9c:	48 83 44 24 a8 08    	addq   $0x8,-0x58(%rsp)
    4ea2:	48 83 44 24 b0 08    	addq   $0x8,-0x50(%rsp)
    4ea8:	4c 39 74 24 b8       	cmp    %r14,-0x48(%rsp)
    4ead:	0f 85 dd fb ff ff    	jne    4a90 <riscv_dsp_cifft_rd4_f32+0x660>
    4eb3:	c1 64 24 9c 02       	shll   $0x2,-0x64(%rsp)
    4eb8:	83 6c 24 dc 01       	subl   $0x1,-0x24(%rsp)
    4ebd:	0f 85 cd f9 ff ff    	jne    4890 <riscv_dsp_cifft_rd4_f32+0x460>
    4ec3:	4c 8b 74 24 c8       	mov    -0x38(%rsp),%r14
    4ec8:	8b 44 24 ec          	mov    -0x14(%rsp),%eax
    4ecc:	48 8d 15 8d 21 00 00 	lea    0x218d(%rip),%rdx        # 7060 <riscv_dsp_recip_table_f32>
    4ed3:	83 e8 01             	sub    $0x1,%eax
    4ed6:	f3 44 0f 10 04 82    	movss  (%rdx,%rax,4),%xmm8
    4edc:	8b 44 24 f0          	mov    -0x10(%rsp),%eax
    4ee0:	8d 14 00             	lea    (%rax,%rax,1),%edx
    4ee3:	48 c1 e2 02          	shl    $0x2,%rdx
    4ee7:	49 8d 0c 16          	lea    (%r14,%rdx,1),%rcx
    4eeb:	49 39 ce             	cmp    %rcx,%r14
    4eee:	0f 84 33 05 00 00    	je     5427 <riscv_dsp_cifft_rd4_f32+0xff7>
    4ef4:	48 83 ea 20          	sub    $0x20,%rdx
    4ef8:	4c 89 f0             	mov    %r14,%rax
    4efb:	48 89 d6             	mov    %rdx,%rsi
    4efe:	48 c1 ee 05          	shr    $0x5,%rsi
    4f02:	48 83 c6 01          	add    $0x1,%rsi
    4f06:	48 83 fa 40          	cmp    $0x40,%rdx
    4f0a:	0f 86 29 02 00 00    	jbe    5139 <riscv_dsp_cifft_rd4_f32+0xd09>
    4f10:	48 89 f2             	mov    %rsi,%rdx
    4f13:	0f 28 3d d6 12 00 00 	movaps 0x12d6(%rip),%xmm7        # 61f0 <_IO_stdin_used+0x1f0>
    4f1a:	41 0f 28 f0          	movaps %xmm8,%xmm6
    4f1e:	48 c1 ea 02          	shr    $0x2,%rdx
    4f22:	0f c6 f6 00          	shufps $0x0,%xmm6,%xmm6
    4f26:	48 c1 e2 07          	shl    $0x7,%rdx
    4f2a:	4c 01 f2             	add    %r14,%rdx
    4f2d:	0f 10 08             	movups (%rax),%xmm1
    4f30:	0f 10 68 10          	movups 0x10(%rax),%xmm5
    4f34:	48 83 e8 80          	sub    $0xffffffffffffff80,%rax
    4f38:	0f 10 60 a0          	movups -0x60(%rax),%xmm4
    4f3c:	0f 10 40 c0          	movups -0x40(%rax),%xmm0
    4f40:	0f 28 d1             	movaps %xmm1,%xmm2
    4f43:	0f c6 cd dd          	shufps $0xdd,%xmm5,%xmm1
    4f47:	0f 10 58 e0          	movups -0x20(%rax),%xmm3
    4f4b:	44 0f 10 78 f0       	movups -0x10(%rax),%xmm15
    4f50:	0f c6 d5 88          	shufps $0x88,%xmm5,%xmm2
    4f54:	0f 10 68 b0          	movups -0x50(%rax),%xmm5
    4f58:	44 0f 28 cc          	movaps %xmm4,%xmm9
    4f5c:	44 0f 28 d9          	movaps %xmm1,%xmm11
    4f60:	44 0f 28 d0          	movaps %xmm0,%xmm10
    4f64:	44 0f 28 e2          	movaps %xmm2,%xmm12
    4f68:	44 0f c6 cd 88       	shufps $0x88,%xmm5,%xmm9
    4f6d:	0f c6 e5 dd          	shufps $0xdd,%xmm5,%xmm4
    4f71:	0f 10 68 d0          	movups -0x30(%rax),%xmm5
    4f75:	44 0f c6 dc 88       	shufps $0x88,%xmm4,%xmm11
    4f7a:	0f c6 cc dd          	shufps $0xdd,%xmm4,%xmm1
    4f7e:	45 0f c6 e1 88       	shufps $0x88,%xmm9,%xmm12
    4f83:	41 0f c6 d1 dd       	shufps $0xdd,%xmm9,%xmm2
    4f88:	0f c6 c5 dd          	shufps $0xdd,%xmm5,%xmm0
    4f8c:	0f 28 e0             	movaps %xmm0,%xmm4
    4f8f:	44 0f c6 d5 88       	shufps $0x88,%xmm5,%xmm10
    4f94:	0f 28 eb             	movaps %xmm3,%xmm5
    4f97:	45 0f 28 ca          	movaps %xmm10,%xmm9
    4f9b:	41 0f c6 df dd       	shufps $0xdd,%xmm15,%xmm3
    4fa0:	0f c6 e3 88          	shufps $0x88,%xmm3,%xmm4
    4fa4:	0f c6 c3 dd          	shufps $0xdd,%xmm3,%xmm0
    4fa8:	41 0f 28 db          	movaps %xmm11,%xmm3
    4fac:	41 0f c6 ef 88       	shufps $0x88,%xmm15,%xmm5
    4fb1:	44 0f c6 dc dd       	shufps $0xdd,%xmm4,%xmm11
    4fb6:	44 0f c6 cd 88       	shufps $0x88,%xmm5,%xmm9
    4fbb:	44 0f c6 d5 dd       	shufps $0xdd,%xmm5,%xmm10
    4fc0:	0f c6 dc 88          	shufps $0x88,%xmm4,%xmm3
    4fc4:	41 0f 28 ec          	movaps %xmm12,%xmm5
    4fc8:	45 0f c6 e1 dd       	shufps $0xdd,%xmm9,%xmm12
    4fcd:	41 0f 28 e4          	movaps %xmm12,%xmm4
    4fd1:	41 0f c6 e9 88       	shufps $0x88,%xmm9,%xmm5
    4fd6:	44 0f 28 ca          	movaps %xmm2,%xmm9
    4fda:	41 0f c6 d2 dd       	shufps $0xdd,%xmm10,%xmm2
    4fdf:	0f 58 e5             	addps  %xmm5,%xmm4
    4fe2:	41 0f 5c ec          	subps  %xmm12,%xmm5
    4fe6:	44 0f 28 e2          	movaps %xmm2,%xmm12
    4fea:	45 0f c6 ca 88       	shufps $0x88,%xmm10,%xmm9
    4fef:	45 0f 58 e1          	addps  %xmm9,%xmm12
    4ff3:	44 0f 5c ca          	subps  %xmm2,%xmm9
    4ff7:	41 0f 28 d3          	movaps %xmm11,%xmm2
    4ffb:	0f 58 d3             	addps  %xmm3,%xmm2
    4ffe:	44 0f 28 d1          	movaps %xmm1,%xmm10
    5002:	41 0f 5c db          	subps  %xmm11,%xmm3
    5006:	0f c6 c8 dd          	shufps $0xdd,%xmm0,%xmm1
    500a:	44 0f 28 d9          	movaps %xmm1,%xmm11
    500e:	44 0f c6 d0 88       	shufps $0x88,%xmm0,%xmm10
    5013:	45 0f 58 da          	addps  %xmm10,%xmm11
    5017:	44 0f 5c d1          	subps  %xmm1,%xmm10
    501b:	41 0f 28 c4          	movaps %xmm12,%xmm0
    501f:	0f 58 c4             	addps  %xmm4,%xmm0
    5022:	41 0f 5c e4          	subps  %xmm12,%xmm4
    5026:	41 0f 28 cb          	movaps %xmm11,%xmm1
    502a:	45 0f 28 e2          	movaps %xmm10,%xmm12
    502e:	0f 58 ca             	addps  %xmm2,%xmm1
    5031:	41 0f 5c d3          	subps  %xmm11,%xmm2
    5035:	44 0f 28 db          	movaps %xmm3,%xmm11
    5039:	44 0f 58 e5          	addps  %xmm5,%xmm12
    503d:	45 0f 5c d9          	subps  %xmm9,%xmm11
    5041:	0f 59 c6             	mulps  %xmm6,%xmm0
    5044:	41 0f 58 d9          	addps  %xmm9,%xmm3
    5048:	41 0f 5c ea          	subps  %xmm10,%xmm5
    504c:	0f 59 e6             	mulps  %xmm6,%xmm4
    504f:	0f 59 ce             	mulps  %xmm6,%xmm1
    5052:	0f 59 d6             	mulps  %xmm6,%xmm2
    5055:	44 0f 59 e6          	mulps  %xmm6,%xmm12
    5059:	44 0f 59 de          	mulps  %xmm6,%xmm11
    505d:	44 0f 28 c8          	movaps %xmm0,%xmm9
    5061:	0f 59 de             	mulps  %xmm6,%xmm3
    5064:	44 0f 28 ec          	movaps %xmm4,%xmm13
    5068:	0f 59 ee             	mulps  %xmm6,%xmm5
    506b:	0f 57 cf             	xorps  %xmm7,%xmm1
    506e:	0f 57 d7             	xorps  %xmm7,%xmm2
    5071:	44 0f 28 d1          	movaps %xmm1,%xmm10
    5075:	45 0f 14 cc          	unpcklps %xmm12,%xmm9
    5079:	41 0f 15 c4          	unpckhps %xmm12,%xmm0
    507d:	44 0f 28 e2          	movaps %xmm2,%xmm12
    5081:	44 0f 57 df          	xorps  %xmm7,%xmm11
    5085:	0f 57 df             	xorps  %xmm7,%xmm3
    5088:	45 0f 14 d3          	unpcklps %xmm11,%xmm10
    508c:	41 0f 15 cb          	unpckhps %xmm11,%xmm1
    5090:	0f 15 e5             	unpckhps %xmm5,%xmm4
    5093:	0f 15 d3             	unpckhps %xmm3,%xmm2
    5096:	44 0f 14 ed          	unpcklps %xmm5,%xmm13
    509a:	44 0f 14 e3          	unpcklps %xmm3,%xmm12
    509e:	45 0f 28 d9          	movaps %xmm9,%xmm11
    50a2:	0f 28 d8             	movaps %xmm0,%xmm3
    50a5:	0f 14 dc             	unpcklps %xmm4,%xmm3
    50a8:	0f 15 c4             	unpckhps %xmm4,%xmm0
    50ab:	45 0f 14 dd          	unpcklps %xmm13,%xmm11
    50af:	41 0f 28 e9          	movaps %xmm9,%xmm5
    50b3:	0f 28 e1             	movaps %xmm1,%xmm4
    50b6:	45 0f 28 ca          	movaps %xmm10,%xmm9
    50ba:	0f 14 e2             	unpcklps %xmm2,%xmm4
    50bd:	0f 15 ca             	unpckhps %xmm2,%xmm1
    50c0:	45 0f 14 cc          	unpcklps %xmm12,%xmm9
    50c4:	41 0f 28 d3          	movaps %xmm11,%xmm2
    50c8:	41 0f 15 ed          	unpckhps %xmm13,%xmm5
    50cc:	45 0f 15 d4          	unpckhps %xmm12,%xmm10
    50d0:	41 0f 14 d1          	unpcklps %xmm9,%xmm2
    50d4:	45 0f 15 d9          	unpckhps %xmm9,%xmm11
    50d8:	0f 11 50 80          	movups %xmm2,-0x80(%rax)
    50dc:	0f 28 d5             	movaps %xmm5,%xmm2
    50df:	41 0f 15 ea          	unpckhps %xmm10,%xmm5
    50e3:	41 0f 14 d2          	unpcklps %xmm10,%xmm2
    50e7:	44 0f 11 58 90       	movups %xmm11,-0x70(%rax)
    50ec:	0f 11 50 a0          	movups %xmm2,-0x60(%rax)
    50f0:	0f 28 d3             	movaps %xmm3,%xmm2
    50f3:	0f 15 dc             	unpckhps %xmm4,%xmm3
    50f6:	0f 14 d4             	unpcklps %xmm4,%xmm2
    50f9:	0f 11 68 b0          	movups %xmm5,-0x50(%rax)
    50fd:	0f 11 50 c0          	movups %xmm2,-0x40(%rax)
    5101:	0f 28 d0             	movaps %xmm0,%xmm2
    5104:	0f 15 c1             	unpckhps %xmm1,%xmm0
    5107:	0f 14 d1             	unpcklps %xmm1,%xmm2
    510a:	0f 11 58 d0          	movups %xmm3,-0x30(%rax)
    510e:	0f 11 50 e0          	movups %xmm2,-0x20(%rax)
    5112:	0f 11 40 f0          	movups %xmm0,-0x10(%rax)
    5116:	48 39 d0             	cmp    %rdx,%rax
    5119:	0f 85 0e fe ff ff    	jne    4f2d <riscv_dsp_cifft_rd4_f32+0xafd>
    511f:	48 89 f2             	mov    %rsi,%rdx
    5122:	48 83 e2 fc          	and    $0xfffffffffffffffc,%rdx
    5126:	48 89 d0             	mov    %rdx,%rax
    5129:	48 c1 e0 05          	shl    $0x5,%rax
    512d:	4c 01 f0             	add    %r14,%rax
    5130:	48 39 f2             	cmp    %rsi,%rdx
    5133:	0f 84 ee 02 00 00    	je     5427 <riscv_dsp_cifft_rd4_f32+0xff7>
    5139:	f3 0f 10 00          	movss  (%rax),%xmm0
    513d:	f3 0f 10 48 10       	movss  0x10(%rax),%xmm1
    5142:	48 8d 50 20          	lea    0x20(%rax),%rdx
    5146:	f3 0f 10 58 18       	movss  0x18(%rax),%xmm3
    514b:	f3 0f 10 60 04       	movss  0x4(%rax),%xmm4
    5150:	0f 28 d0             	movaps %xmm0,%xmm2
    5153:	f3 0f 5c c1          	subss  %xmm1,%xmm0
    5157:	f3 0f 10 68 0c       	movss  0xc(%rax),%xmm5
    515c:	f3 0f 58 d1          	addss  %xmm1,%xmm2
    5160:	f3 0f 10 48 08       	movss  0x8(%rax),%xmm1
    5165:	0f 28 fc             	movaps %xmm4,%xmm7
    5168:	44 0f 28 d5          	movaps %xmm5,%xmm10
    516c:	44 0f 28 d9          	movaps %xmm1,%xmm11
    5170:	f3 0f 5c cb          	subss  %xmm3,%xmm1
    5174:	f3 44 0f 58 db       	addss  %xmm3,%xmm11
    5179:	f3 0f 10 58 14       	movss  0x14(%rax),%xmm3
    517e:	0f 28 f2             	movaps %xmm2,%xmm6
    5181:	f3 0f 58 fb          	addss  %xmm3,%xmm7
    5185:	f3 0f 5c e3          	subss  %xmm3,%xmm4
    5189:	f3 0f 10 58 1c       	movss  0x1c(%rax),%xmm3
    518e:	f3 41 0f 58 f3       	addss  %xmm11,%xmm6
    5193:	f3 41 0f 5c d3       	subss  %xmm11,%xmm2
    5198:	f3 44 0f 58 d3       	addss  %xmm3,%xmm10
    519d:	f3 0f 5c eb          	subss  %xmm3,%xmm5
    51a1:	44 0f 28 cf          	movaps %xmm7,%xmm9
    51a5:	f3 41 0f 59 f0       	mulss  %xmm8,%xmm6
    51aa:	f3 41 0f 5c fa       	subss  %xmm10,%xmm7
    51af:	f3 41 0f 59 d0       	mulss  %xmm8,%xmm2
    51b4:	f3 45 0f 58 ca       	addss  %xmm10,%xmm9
    51b9:	f3 45 0f 59 c8       	mulss  %xmm8,%xmm9
    51be:	0f 28 df             	movaps %xmm7,%xmm3
    51c1:	f3 41 0f 59 d8       	mulss  %xmm8,%xmm3
    51c6:	44 0f 57 0d 02 10 00 	xorps  0x1002(%rip),%xmm9        # 61d0 <_IO_stdin_used+0x1d0>
    51cd:	00 
    51ce:	0f 57 1d fb 0f 00 00 	xorps  0xffb(%rip),%xmm3        # 61d0 <_IO_stdin_used+0x1d0>
    51d5:	0f 14 d3             	unpcklps %xmm3,%xmm2
    51d8:	0f 28 de             	movaps %xmm6,%xmm3
    51db:	41 0f 14 d9          	unpcklps %xmm9,%xmm3
    51df:	0f 16 da             	movlhps %xmm2,%xmm3
    51e2:	0f 28 d0             	movaps %xmm0,%xmm2
    51e5:	f3 0f 5c c5          	subss  %xmm5,%xmm0
    51e9:	f3 0f 58 d5          	addss  %xmm5,%xmm2
    51ed:	0f 11 18             	movups %xmm3,(%rax)
    51f0:	0f 28 dc             	movaps %xmm4,%xmm3
    51f3:	f3 0f 5c d9          	subss  %xmm1,%xmm3
    51f7:	f3 0f 58 cc          	addss  %xmm4,%xmm1
    51fb:	f3 41 0f 59 c0       	mulss  %xmm8,%xmm0
    5200:	f3 41 0f 59 d0       	mulss  %xmm8,%xmm2
    5205:	f3 41 0f 59 c8       	mulss  %xmm8,%xmm1
    520a:	f3 41 0f 59 d8       	mulss  %xmm8,%xmm3
    520f:	0f 57 0d ba 0f 00 00 	xorps  0xfba(%rip),%xmm1        # 61d0 <_IO_stdin_used+0x1d0>
    5216:	0f 57 1d b3 0f 00 00 	xorps  0xfb3(%rip),%xmm3        # 61d0 <_IO_stdin_used+0x1d0>
    521d:	0f 14 c1             	unpcklps %xmm1,%xmm0
    5220:	0f 28 ca             	movaps %xmm2,%xmm1
    5223:	0f 14 cb             	unpcklps %xmm3,%xmm1
    5226:	0f 16 c8             	movlhps %xmm0,%xmm1
    5229:	0f 11 48 10          	movups %xmm1,0x10(%rax)
    522d:	48 39 d1             	cmp    %rdx,%rcx
    5230:	0f 84 f1 01 00 00    	je     5427 <riscv_dsp_cifft_rd4_f32+0xff7>
    5236:	f3 0f 10 40 20       	movss  0x20(%rax),%xmm0
    523b:	f3 0f 10 48 30       	movss  0x30(%rax),%xmm1
    5240:	48 8d 50 40          	lea    0x40(%rax),%rdx
    5244:	f3 0f 10 60 28       	movss  0x28(%rax),%xmm4
    5249:	f3 0f 10 58 34       	movss  0x34(%rax),%xmm3
    524e:	0f 28 d0             	movaps %xmm0,%xmm2
    5251:	f3 0f 5c c1          	subss  %xmm1,%xmm0
    5255:	f3 0f 10 68 2c       	movss  0x2c(%rax),%xmm5
    525a:	f3 0f 58 d1          	addss  %xmm1,%xmm2
    525e:	f3 0f 10 48 38       	movss  0x38(%rax),%xmm1
    5263:	44 0f 28 d5          	movaps %xmm5,%xmm10
    5267:	44 0f 28 d9          	movaps %xmm1,%xmm11
    526b:	f3 44 0f 58 dc       	addss  %xmm4,%xmm11
    5270:	f3 0f 5c e1          	subss  %xmm1,%xmm4
    5274:	f3 0f 10 48 24       	movss  0x24(%rax),%xmm1
    5279:	0f 28 f2             	movaps %xmm2,%xmm6
    527c:	0f 28 f9             	movaps %xmm1,%xmm7
    527f:	f3 0f 5c cb          	subss  %xmm3,%xmm1
    5283:	f3 0f 58 fb          	addss  %xmm3,%xmm7
    5287:	f3 0f 10 58 3c       	movss  0x3c(%rax),%xmm3
    528c:	f3 41 0f 58 f3       	addss  %xmm11,%xmm6
    5291:	f3 41 0f 5c d3       	subss  %xmm11,%xmm2
    5296:	f3 44 0f 58 d3       	addss  %xmm3,%xmm10
    529b:	f3 0f 5c eb          	subss  %xmm3,%xmm5
    529f:	f3 41 0f 59 f0       	mulss  %xmm8,%xmm6
    52a4:	44 0f 28 cf          	movaps %xmm7,%xmm9
    52a8:	f3 41 0f 59 d0       	mulss  %xmm8,%xmm2
    52ad:	f3 41 0f 5c fa       	subss  %xmm10,%xmm7
    52b2:	f3 45 0f 58 ca       	addss  %xmm10,%xmm9
    52b7:	f3 45 0f 59 c8       	mulss  %xmm8,%xmm9
    52bc:	0f 28 df             	movaps %xmm7,%xmm3
    52bf:	f3 41 0f 59 d8       	mulss  %xmm8,%xmm3
    52c4:	44 0f 57 0d 04 0f 00 	xorps  0xf04(%rip),%xmm9        # 61d0 <_IO_stdin_used+0x1d0>
    52cb:	00 
    52cc:	0f 57 1d fd 0e 00 00 	xorps  0xefd(%rip),%xmm3        # 61d0 <_IO_stdin_used+0x1d0>
    52d3:	0f 14 d3             	unpcklps %xmm3,%xmm2
    52d6:	0f 28 de             	movaps %xmm6,%xmm3
    52d9:	41 0f 14 d9          	unpcklps %xmm9,%xmm3
    52dd:	0f 16 da             	movlhps %xmm2,%xmm3
    52e0:	0f 28 d0             	movaps %xmm0,%xmm2
    52e3:	f3 0f 5c c5          	subss  %xmm5,%xmm0
    52e7:	f3 0f 58 d5          	addss  %xmm5,%xmm2
    52eb:	0f 11 58 20          	movups %xmm3,0x20(%rax)
    52ef:	0f 28 d9             	movaps %xmm1,%xmm3
    52f2:	f3 0f 58 cc          	addss  %xmm4,%xmm1
    52f6:	f3 0f 5c dc          	subss  %xmm4,%xmm3
    52fa:	f3 41 0f 59 c0       	mulss  %xmm8,%xmm0
    52ff:	f3 41 0f 59 d0       	mulss  %xmm8,%xmm2
    5304:	f3 41 0f 59 c8       	mulss  %xmm8,%xmm1
    5309:	f3 41 0f 59 d8       	mulss  %xmm8,%xmm3
    530e:	0f 57 0d bb 0e 00 00 	xorps  0xebb(%rip),%xmm1        # 61d0 <_IO_stdin_used+0x1d0>
    5315:	0f 57 1d b4 0e 00 00 	xorps  0xeb4(%rip),%xmm3        # 61d0 <_IO_stdin_used+0x1d0>
    531c:	0f 14 c1             	unpcklps %xmm1,%xmm0
    531f:	0f 28 ca             	movaps %xmm2,%xmm1
    5322:	0f 14 cb             	unpcklps %xmm3,%xmm1
    5325:	0f 16 c8             	movlhps %xmm0,%xmm1
    5328:	0f 11 48 30          	movups %xmm1,0x30(%rax)
    532c:	48 39 d1             	cmp    %rdx,%rcx
    532f:	0f 84 f2 00 00 00    	je     5427 <riscv_dsp_cifft_rd4_f32+0xff7>
    5335:	f3 0f 10 40 40       	movss  0x40(%rax),%xmm0
    533a:	f3 0f 10 48 50       	movss  0x50(%rax),%xmm1
    533f:	f3 0f 10 58 58       	movss  0x58(%rax),%xmm3
    5344:	f3 0f 10 60 44       	movss  0x44(%rax),%xmm4
    5349:	0f 28 d0             	movaps %xmm0,%xmm2
    534c:	f3 0f 5c c1          	subss  %xmm1,%xmm0
    5350:	f3 0f 10 68 4c       	movss  0x4c(%rax),%xmm5
    5355:	f3 0f 58 d1          	addss  %xmm1,%xmm2
    5359:	f3 0f 10 48 48       	movss  0x48(%rax),%xmm1
    535e:	0f 28 fc             	movaps %xmm4,%xmm7
    5361:	44 0f 28 d5          	movaps %xmm5,%xmm10
    5365:	44 0f 28 d9          	movaps %xmm1,%xmm11
    5369:	f3 0f 5c cb          	subss  %xmm3,%xmm1
    536d:	f3 44 0f 58 db       	addss  %xmm3,%xmm11
    5372:	f3 0f 10 58 54       	movss  0x54(%rax),%xmm3
    5377:	0f 28 f2             	movaps %xmm2,%xmm6
    537a:	f3 0f 58 fb          	addss  %xmm3,%xmm7
    537e:	f3 0f 5c e3          	subss  %xmm3,%xmm4
    5382:	f3 0f 10 58 5c       	movss  0x5c(%rax),%xmm3
    5387:	f3 41 0f 58 f3       	addss  %xmm11,%xmm6
    538c:	f3 41 0f 5c d3       	subss  %xmm11,%xmm2
    5391:	f3 44 0f 58 d3       	addss  %xmm3,%xmm10
    5396:	f3 0f 5c eb          	subss  %xmm3,%xmm5
    539a:	44 0f 28 cf          	movaps %xmm7,%xmm9
    539e:	f3 41 0f 59 f0       	mulss  %xmm8,%xmm6
    53a3:	f3 41 0f 5c fa       	subss  %xmm10,%xmm7
    53a8:	f3 41 0f 59 d0       	mulss  %xmm8,%xmm2
    53ad:	f3 45 0f 58 ca       	addss  %xmm10,%xmm9
    53b2:	f3 45 0f 59 c8       	mulss  %xmm8,%xmm9
    53b7:	0f 28 df             	movaps %xmm7,%xmm3
    53ba:	f3 41 0f 59 d8       	mulss  %xmm8,%xmm3
    53bf:	44 0f 57 0d 09 0e 00 	xorps  0xe09(%rip),%xmm9        # 61d0 <_IO_stdin_used+0x1d0>
    53c6:	00 
    53c7:	0f 57 1d 02 0e 00 00 	xorps  0xe02(%rip),%xmm3        # 61d0 <_IO_stdin_used+0x1d0>
    53ce:	0f 14 d3             	unpcklps %xmm3,%xmm2
    53d1:	0f 28 de             	movaps %xmm6,%xmm3
    53d4:	41 0f 14 d9          	unpcklps %xmm9,%xmm3
    53d8:	0f 16 da             	movlhps %xmm2,%xmm3
    53db:	0f 28 d0             	movaps %xmm0,%xmm2
    53de:	f3 0f 5c c5          	subss  %xmm5,%xmm0
    53e2:	f3 0f 58 d5          	addss  %xmm5,%xmm2
    53e6:	0f 11 58 40          	movups %xmm3,0x40(%rax)
    53ea:	0f 28 dc             	movaps %xmm4,%xmm3
    53ed:	f3 0f 5c d9          	subss  %xmm1,%xmm3
    53f1:	f3 0f 58 cc          	addss  %xmm4,%xmm1
    53f5:	f3 41 0f 59 c0       	mulss  %xmm8,%xmm0
    53fa:	f3 41 0f 59 d0       	mulss  %xmm8,%xmm2
    53ff:	f3 41 0f 59 c8       	mulss  %xmm8,%xmm1
    5404:	f3 41 0f 59 d8       	mulss  %xmm8,%xmm3
    5409:	0f 57 0d c0 0d 00 00 	xorps  0xdc0(%rip),%xmm1        # 61d0 <_IO_stdin_used+0x1d0>
    5410:	0f 57 1d b9 0d 00 00 	xorps  0xdb9(%rip),%xmm3        # 61d0 <_IO_stdin_used+0x1d0>
    5417:	0f 14 c1             	unpcklps %xmm1,%xmm0
    541a:	0f 28 ca             	movaps %xmm2,%xmm1
    541d:	0f 14 cb             	unpcklps %xmm3,%xmm1
    5420:	0f 16 c8             	movlhps %xmm0,%xmm1
    5423:	0f 11 48 50          	movups %xmm1,0x50(%rax)
    5427:	8b 6c 24 f4          	mov    -0xc(%rsp),%ebp
    542b:	0f b6 4c 24 ec       	movzbl -0x14(%rsp),%ecx
    5430:	b8 02 00 00 00       	mov    $0x2,%eax
    5435:	be 04 00 00 00       	mov    $0x4,%esi
    543a:	8b 5c 24 f0          	mov    -0x10(%rsp),%ebx
    543e:	f3 41 0f 10 46 08    	movss  0x8(%r14),%xmm0
    5444:	d3 e0                	shl    %cl,%eax
    5446:	8d 54 2d 00          	lea    0x0(%rbp,%rbp,1),%edx
    544a:	89 e9                	mov    %ebp,%ecx
    544c:	49 8d 7c 86 fc       	lea    -0x4(%r14,%rax,4),%rdi
    5451:	48 89 d0             	mov    %rdx,%rax
    5454:	49 8d 14 96          	lea    (%r14,%rdx,4),%rdx
    5458:	41 89 d8             	mov    %ebx,%r8d
    545b:	f3 0f 10 0a          	movss  (%rdx),%xmm1
    545f:	c1 eb 03             	shr    $0x3,%ebx
    5462:	83 c0 01             	add    $0x1,%eax
    5465:	41 c1 e8 02          	shr    $0x2,%r8d
    5469:	49 8d 04 86          	lea    (%r14,%rax,4),%rax
    546d:	44 31 c1             	xor    %r8d,%ecx
    5470:	41 89 db             	mov    %ebx,%r11d
    5473:	41 89 d9             	mov    %ebx,%r9d
    5476:	f3 41 0f 11 4e 08    	movss  %xmm1,0x8(%r14)
    547c:	41 89 ca             	mov    %ecx,%r10d
    547f:	41 31 cb             	xor    %ecx,%r11d
    5482:	bb fc ff ff ff       	mov    $0xfffffffc,%ebx
    5487:	f3 0f 11 02          	movss  %xmm0,(%rdx)
    548b:	f3 0f 10 08          	movss  (%rax),%xmm1
    548f:	f3 41 0f 10 46 0c    	movss  0xc(%r14),%xmm0
    5495:	b9 04 00 00 00       	mov    $0x4,%ecx
    549a:	f3 41 0f 11 4e 0c    	movss  %xmm1,0xc(%r14)
    54a0:	f3 0f 11 00          	movss  %xmm0,(%rax)
    54a4:	89 e8                	mov    %ebp,%eax
    54a6:	66 2e 0f 1f 84 00 00 	cs nopw 0x0(%rax,%rax,1)
    54ad:	00 00 00 
    54b0:	44 31 d0             	xor    %r10d,%eax
    54b3:	41 85 c0             	test   %eax,%r8d
    54b6:	75 10                	jne    54c8 <riscv_dsp_cifft_rd4_f32+0x1098>
    54b8:	44 89 c2             	mov    %r8d,%edx
    54bb:	0f 1f 44 00 00       	nopl   0x0(%rax,%rax,1)
    54c0:	d1 ea                	shr    %edx
    54c2:	31 d0                	xor    %edx,%eax
    54c4:	85 c2                	test   %eax,%edx
    54c6:	74 f8                	je     54c0 <riscv_dsp_cifft_rd4_f32+0x1090>
    54c8:	8d 56 fe             	lea    -0x2(%rsi),%edx
    54cb:	39 d0                	cmp    %edx,%eax
    54cd:	0f 86 a2 00 00 00    	jbe    5575 <riscv_dsp_cifft_rd4_f32+0x1145>
    54d3:	89 ca                	mov    %ecx,%edx
    54d5:	44 8d 24 00          	lea    (%rax,%rax,1),%r12d
    54d9:	4d 8d 2c 96          	lea    (%r14,%rdx,4),%r13
    54dd:	4c 89 e2             	mov    %r12,%rdx
    54e0:	4f 8d 24 a6          	lea    (%r14,%r12,4),%r12
    54e4:	f3 41 0f 10 45 00    	movss  0x0(%r13),%xmm0
    54ea:	f3 41 0f 10 0c 24    	movss  (%r12),%xmm1
    54f0:	83 c2 01             	add    $0x1,%edx
    54f3:	49 8d 14 96          	lea    (%r14,%rdx,4),%rdx
    54f7:	f3 41 0f 11 4d 00    	movss  %xmm1,0x0(%r13)
    54fd:	f3 41 0f 11 04 24    	movss  %xmm0,(%r12)
    5503:	44 8d 61 01          	lea    0x1(%rcx),%r12d
    5507:	f3 0f 10 0a          	movss  (%rdx),%xmm1
    550b:	4f 8d 24 a6          	lea    (%r14,%r12,4),%r12
    550f:	f3 41 0f 10 04 24    	movss  (%r12),%xmm0
    5515:	f3 41 0f 11 0c 24    	movss  %xmm1,(%r12)
    551b:	41 89 cc             	mov    %ecx,%r12d
    551e:	41 f7 dc             	neg    %r12d
    5521:	f3 0f 11 02          	movss  %xmm0,(%rdx)
    5525:	89 c2                	mov    %eax,%edx
    5527:	4d 63 e4             	movslq %r12d,%r12
    552a:	f7 da                	neg    %edx
    552c:	49 c1 e4 02          	shl    $0x2,%r12
    5530:	01 d2                	add    %edx,%edx
    5532:	4e 8d 2c 27          	lea    (%rdi,%r12,1),%r13
    5536:	4e 8d 64 27 fc       	lea    -0x4(%rdi,%r12,1),%r12
    553b:	48 63 d2             	movslq %edx,%rdx
    553e:	f3 41 0f 10 45 00    	movss  0x0(%r13),%xmm0
    5544:	48 c1 e2 02          	shl    $0x2,%rdx
    5548:	4c 8d 3c 17          	lea    (%rdi,%rdx,1),%r15
    554c:	48 8d 54 17 fc       	lea    -0x4(%rdi,%rdx,1),%rdx
    5551:	f3 41 0f 10 0f       	movss  (%r15),%xmm1
    5556:	f3 41 0f 11 4d 00    	movss  %xmm1,0x0(%r13)
    555c:	f3 41 0f 11 07       	movss  %xmm0,(%r15)
    5561:	f3 41 0f 10 04 24    	movss  (%r12),%xmm0
    5567:	f3 0f 10 0a          	movss  (%rdx),%xmm1
    556b:	f3 41 0f 11 0c 24    	movss  %xmm1,(%r12)
    5571:	f3 0f 11 02          	movss  %xmm0,(%rdx)
    5575:	8d 51 02             	lea    0x2(%rcx),%edx
    5578:	01 e8                	add    %ebp,%eax
    557a:	4d 8d 24 96          	lea    (%r14,%rdx,4),%r12
    557e:	8d 14 00             	lea    (%rax,%rax,1),%edx
    5581:	49 89 d5             	mov    %rdx,%r13
    5584:	49 8d 14 96          	lea    (%r14,%rdx,4),%rdx
    5588:	f3 41 0f 10 04 24    	movss  (%r12),%xmm0
    558e:	f3 0f 10 0a          	movss  (%rdx),%xmm1
    5592:	f3 41 0f 11 0c 24    	movss  %xmm1,(%r12)
    5598:	f3 0f 11 02          	movss  %xmm0,(%rdx)
    559c:	8d 51 03             	lea    0x3(%rcx),%edx
    559f:	4d 8d 24 96          	lea    (%r14,%rdx,4),%r12
    55a3:	41 8d 55 01          	lea    0x1(%r13),%edx
    55a7:	49 8d 14 96          	lea    (%r14,%rdx,4),%rdx
    55ab:	f3 41 0f 10 04 24    	movss  (%r12),%xmm0
    55b1:	f3 0f 10 0a          	movss  (%rdx),%xmm1
    55b5:	f3 41 0f 11 0c 24    	movss  %xmm1,(%r12)
    55bb:	f3 0f 11 02          	movss  %xmm0,(%rdx)
    55bf:	39 ee                	cmp    %ebp,%esi
    55c1:	0f 83 c9 06 00 00    	jae    5c90 <riscv_dsp_cifft_rd4_f32+0x1860>
    55c7:	44 31 d8             	xor    %r11d,%eax
    55ca:	41 85 c1             	test   %eax,%r9d
    55cd:	75 11                	jne    55e0 <riscv_dsp_cifft_rd4_f32+0x11b0>
    55cf:	44 89 ca             	mov    %r9d,%edx
    55d2:	66 0f 1f 44 00 00    	nopw   0x0(%rax,%rax,1)
    55d8:	d1 ea                	shr    %edx
    55da:	31 d0                	xor    %edx,%eax
    55dc:	85 c2                	test   %eax,%edx
    55de:	74 f8                	je     55d8 <riscv_dsp_cifft_rd4_f32+0x11a8>
    55e0:	39 c6                	cmp    %eax,%esi
    55e2:	0f 83 a3 00 00 00    	jae    568b <riscv_dsp_cifft_rd4_f32+0x125b>
    55e8:	8d 51 04             	lea    0x4(%rcx),%edx
    55eb:	44 8d 24 00          	lea    (%rax,%rax,1),%r12d
    55ef:	4d 8d 2c 96          	lea    (%r14,%rdx,4),%r13
    55f3:	4c 89 e2             	mov    %r12,%rdx
    55f6:	4f 8d 24 a6          	lea    (%r14,%r12,4),%r12
    55fa:	f3 41 0f 10 45 00    	movss  0x0(%r13),%xmm0
    5600:	f3 41 0f 10 0c 24    	movss  (%r12),%xmm1
    5606:	83 c2 01             	add    $0x1,%edx
    5609:	49 8d 14 96          	lea    (%r14,%rdx,4),%rdx
    560d:	f3 41 0f 11 4d 00    	movss  %xmm1,0x0(%r13)
    5613:	f3 41 0f 11 04 24    	movss  %xmm0,(%r12)
    5619:	44 8d 61 05          	lea    0x5(%rcx),%r12d
    561d:	f3 0f 10 0a          	movss  (%rdx),%xmm1
    5621:	4f 8d 24 a6          	lea    (%r14,%r12,4),%r12
    5625:	f3 41 0f 10 04 24    	movss  (%r12),%xmm0
    562b:	f3 41 0f 11 0c 24    	movss  %xmm1,(%r12)
    5631:	41 89 dc             	mov    %ebx,%r12d
    5634:	41 29 cc             	sub    %ecx,%r12d
    5637:	f3 0f 11 02          	movss  %xmm0,(%rdx)
    563b:	89 c2                	mov    %eax,%edx
    563d:	4d 63 e4             	movslq %r12d,%r12
    5640:	f7 da                	neg    %edx
    5642:	49 c1 e4 02          	shl    $0x2,%r12
    5646:	01 d2                	add    %edx,%edx
    5648:	4e 8d 2c 27          	lea    (%rdi,%r12,1),%r13
    564c:	4e 8d 64 27 fc       	lea    -0x4(%rdi,%r12,1),%r12
    5651:	48 63 d2             	movslq %edx,%rdx
    5654:	f3 41 0f 10 45 00    	movss  0x0(%r13),%xmm0
    565a:	48 c1 e2 02          	shl    $0x2,%rdx
    565e:	4c 8d 3c 17          	lea    (%rdi,%rdx,1),%r15
    5662:	48 8d 54 17 fc       	lea    -0x4(%rdi,%rdx,1),%rdx
    5667:	f3 41 0f 10 0f       	movss  (%r15),%xmm1
    566c:	f3 41 0f 11 4d 00    	movss  %xmm1,0x0(%r13)
    5672:	f3 41 0f 11 07       	movss  %xmm0,(%r15)
    5677:	f3 41 0f 10 04 24    	movss  (%r12),%xmm0
    567d:	f3 0f 10 0a          	movss  (%rdx),%xmm1
    5681:	f3 41 0f 11 0c 24    	movss  %xmm1,(%r12)
    5687:	f3 0f 11 02          	movss  %xmm0,(%rdx)
    568b:	8d 51 06             	lea    0x6(%rcx),%edx
    568e:	01 e8                	add    %ebp,%eax
    5690:	83 c6 04             	add    $0x4,%esi
    5693:	4d 8d 24 96          	lea    (%r14,%rdx,4),%r12
    5697:	8d 14 00             	lea    (%rax,%rax,1),%edx
    569a:	49 89 d5             	mov    %rdx,%r13
    569d:	49 8d 14 96          	lea    (%r14,%rdx,4),%rdx
    56a1:	f3 41 0f 10 04 24    	movss  (%r12),%xmm0
    56a7:	f3 0f 10 0a          	movss  (%rdx),%xmm1
    56ab:	f3 41 0f 11 0c 24    	movss  %xmm1,(%r12)
    56b1:	f3 0f 11 02          	movss  %xmm0,(%rdx)
    56b5:	8d 51 07             	lea    0x7(%rcx),%edx
    56b8:	83 c1 08             	add    $0x8,%ecx
    56bb:	4d 8d 24 96          	lea    (%r14,%rdx,4),%r12
    56bf:	41 8d 55 01          	lea    0x1(%r13),%edx
    56c3:	49 8d 14 96          	lea    (%r14,%rdx,4),%rdx
    56c7:	f3 41 0f 10 04 24    	movss  (%r12),%xmm0
    56cd:	f3 0f 10 0a          	movss  (%rdx),%xmm1
    56d1:	f3 41 0f 11 0c 24    	movss  %xmm1,(%r12)
    56d7:	f3 0f 11 02          	movss  %xmm0,(%rdx)
    56db:	e9 d0 fd ff ff       	jmp    54b0 <riscv_dsp_cifft_rd4_f32+0x1080>
    56e0:	8d b2 00 ff ff ff    	lea    -0x100(%rdx),%esi
    56e6:	45 89 e8             	mov    %r13d,%r8d
    56e9:	41 29 f0             	sub    %esi,%r8d
    56ec:	45 85 c0             	test   %r8d,%r8d
    56ef:	0f 8e 9b 00 00 00    	jle    5790 <riscv_dsp_cifft_rd4_f32+0x1360>
    56f5:	48 63 f6             	movslq %esi,%rsi
    56f8:	43 8d 14 5b          	lea    (%r11,%r11,2),%edx
    56fc:	4d 63 c0             	movslq %r8d,%r8
    56ff:	f3 45 0f 10 04 b4    	movss  (%r12,%rsi,4),%xmm8
    5705:	d3 e2                	shl    %cl,%edx
    5707:	44 89 ee             	mov    %r13d,%esi
    570a:	f3 43 0f 10 2c 84    	movss  (%r12,%r8,4),%xmm5
    5710:	29 d6                	sub    %edx,%esi
    5712:	0f 57 2d b7 0a 00 00 	xorps  0xab7(%rip),%xmm5        # 61d0 <_IO_stdin_used+0x1d0>
    5719:	85 f6                	test   %esi,%esi
    571b:	0f 8f d0 f3 ff ff    	jg     4af1 <riscv_dsp_cifft_rd4_f32+0x6c1>
    5721:	8d b2 00 ff ff ff    	lea    -0x100(%rdx),%esi
    5727:	45 89 e8             	mov    %r13d,%r8d
    572a:	41 29 f0             	sub    %esi,%r8d
    572d:	45 85 c0             	test   %r8d,%r8d
    5730:	0f 8e ea 00 00 00    	jle    5820 <riscv_dsp_cifft_rd4_f32+0x13f0>
    5736:	4d 63 c0             	movslq %r8d,%r8
    5739:	48 63 f6             	movslq %esi,%rsi
    573c:	f3 43 0f 10 1c 84    	movss  (%r12,%r8,4),%xmm3
    5742:	f3 41 0f 10 34 b4    	movss  (%r12,%rsi,4),%xmm6
    5748:	0f 57 1d 81 0a 00 00 	xorps  0xa81(%rip),%xmm3        # 61d0 <_IO_stdin_used+0x1d0>
    574f:	e9 af f3 ff ff       	jmp    4b03 <riscv_dsp_cifft_rd4_f32+0x6d3>
    5754:	0f 1f 40 00          	nopl   0x0(%rax)
    5758:	8d b2 00 ff ff ff    	lea    -0x100(%rdx),%esi
    575e:	45 89 e8             	mov    %r13d,%r8d
    5761:	41 29 f0             	sub    %esi,%r8d
    5764:	45 85 c0             	test   %r8d,%r8d
    5767:	7e 6f                	jle    57d8 <riscv_dsp_cifft_rd4_f32+0x13a8>
    5769:	4d 63 c0             	movslq %r8d,%r8
    576c:	48 63 f6             	movslq %esi,%rsi
    576f:	f3 43 0f 10 24 84    	movss  (%r12,%r8,4),%xmm4
    5775:	f3 41 0f 10 3c b4    	movss  (%r12,%rsi,4),%xmm7
    577b:	0f 57 25 4e 0a 00 00 	xorps  0xa4e(%rip),%xmm4        # 61d0 <_IO_stdin_used+0x1d0>
    5782:	e9 32 f3 ff ff       	jmp    4ab9 <riscv_dsp_cifft_rd4_f32+0x689>
    5787:	66 0f 1f 84 00 00 00 	nopw   0x0(%rax,%rax,1)
    578e:	00 00 
    5790:	81 ea 00 02 00 00    	sub    $0x200,%edx
    5796:	44 89 ee             	mov    %r13d,%esi
    5799:	29 d6                	sub    %edx,%esi
    579b:	48 63 d2             	movslq %edx,%rdx
    579e:	4c 63 c6             	movslq %esi,%r8
    57a1:	f3 45 0f 10 04 94    	movss  (%r12,%rdx,4),%xmm8
    57a7:	44 0f 57 05 21 0a 00 	xorps  0xa21(%rip),%xmm8        # 61d0 <_IO_stdin_used+0x1d0>
    57ae:	00 
    57af:	f3 43 0f 10 2c 84    	movss  (%r12,%r8,4),%xmm5
    57b5:	85 f6                	test   %esi,%esi
    57b7:	0f 8e 21 f3 ff ff    	jle    4ade <riscv_dsp_cifft_rd4_f32+0x6ae>
    57bd:	0f 57 2d 0c 0a 00 00 	xorps  0xa0c(%rip),%xmm5        # 61d0 <_IO_stdin_used+0x1d0>
    57c4:	0f 28 c5             	movaps %xmm5,%xmm0
    57c7:	41 0f 28 e8          	movaps %xmm8,%xmm5
    57cb:	44 0f 28 c0          	movaps %xmm0,%xmm8
    57cf:	e9 0a f3 ff ff       	jmp    4ade <riscv_dsp_cifft_rd4_f32+0x6ae>
    57d4:	0f 1f 40 00          	nopl   0x0(%rax)
    57d8:	81 ea 00 02 00 00    	sub    $0x200,%edx
    57de:	44 89 ee             	mov    %r13d,%esi
    57e1:	29 d6                	sub    %edx,%esi
    57e3:	48 63 d2             	movslq %edx,%rdx
    57e6:	4c 63 c6             	movslq %esi,%r8
