
t_rfft_q15:     file format elf64-x86-64


Disassembly of section .init:

0000000000001000 <_init>:
    1000:	f3 0f 1e fa          	endbr64 
    1004:	48 83 ec 08          	sub    $0x8,%rsp
    1008:	48 8b 05 d9 af 01 00 	mov    0x1afd9(%rip),%rax        # 1bfe8 <__gmon_start__@Base>
    100f:	48 85 c0             	test   %rax,%rax
    1012:	74 02                	je     1016 <_init+0x16>
    1014:	ff d0                	call   *%rax
    1016:	48 83 c4 08          	add    $0x8,%rsp
    101a:	c3                   	ret    

Disassembly of section .plt:

0000000000001020 <.plt>:
    1020:	ff 35 62 af 01 00    	push   0x1af62(%rip)        # 1bf88 <_GLOBAL_OFFSET_TABLE_+0x8>
    1026:	f2 ff 25 63 af 01 00 	bnd jmp *0x1af63(%rip)        # 1bf90 <_GLOBAL_OFFSET_TABLE_+0x10>
    102d:	0f 1f 00             	nopl   (%rax)
    1030:	f3 0f 1e fa          	endbr64 
    1034:	68 00 00 00 00       	push   $0x0
    1039:	f2 e9 e1 ff ff ff    	bnd jmp 1020 <_init+0x20>
    103f:	90                   	nop
    1040:	f3 0f 1e fa          	endbr64 
    1044:	68 01 00 00 00       	push   $0x1
    1049:	f2 e9 d1 ff ff ff    	bnd jmp 1020 <_init+0x20>
    104f:	90                   	nop
    1050:	f3 0f 1e fa          	endbr64 
    1054:	68 02 00 00 00       	push   $0x2
    1059:	f2 e9 c1 ff ff ff    	bnd jmp 1020 <_init+0x20>
    105f:	90                   	nop
    1060:	f3 0f 1e fa          	endbr64 
    1064:	68 03 00 00 00       	push   $0x3
    1069:	f2 e9 b1 ff ff ff    	bnd jmp 1020 <_init+0x20>
    106f:	90                   	nop
    1070:	f3 0f 1e fa          	endbr64 
    1074:	68 04 00 00 00       	push   $0x4
    1079:	f2 e9 a1 ff ff ff    	bnd jmp 1020 <_init+0x20>
    107f:	90                   	nop
    1080:	f3 0f 1e fa          	endbr64 
    1084:	68 05 00 00 00       	push   $0x5
    1089:	f2 e9 91 ff ff ff    	bnd jmp 1020 <_init+0x20>
    108f:	90                   	nop
    1090:	f3 0f 1e fa          	endbr64 
    1094:	68 06 00 00 00       	push   $0x6
    1099:	f2 e9 81 ff ff ff    	bnd jmp 1020 <_init+0x20>
    109f:	90                   	nop
    10a0:	f3 0f 1e fa          	endbr64 
    10a4:	68 07 00 00 00       	push   $0x7
    10a9:	f2 e9 71 ff ff ff    	bnd jmp 1020 <_init+0x20>
    10af:	90                   	nop

Disassembly of section .plt.got:

00000000000010b0 <__cxa_finalize@plt>:
    10b0:	f3 0f 1e fa          	endbr64 
    10b4:	f2 ff 25 3d af 01 00 	bnd jmp *0x1af3d(%rip)        # 1bff8 <__cxa_finalize@GLIBC_2.2.5>
    10bb:	0f 1f 44 00 00       	nopl   0x0(%rax,%rax,1)

Disassembly of section .plt.sec:

00000000000010c0 <puts@plt>:
    10c0:	f3 0f 1e fa          	endbr64 
    10c4:	f2 ff 25 cd ae 01 00 	bnd jmp *0x1aecd(%rip)        # 1bf98 <puts@GLIBC_2.2.5>
    10cb:	0f 1f 44 00 00       	nopl   0x0(%rax,%rax,1)

00000000000010d0 <fread@plt>:
    10d0:	f3 0f 1e fa          	endbr64 
    10d4:	f2 ff 25 c5 ae 01 00 	bnd jmp *0x1aec5(%rip)        # 1bfa0 <fread@GLIBC_2.2.5>
    10db:	0f 1f 44 00 00       	nopl   0x0(%rax,%rax,1)

00000000000010e0 <fclose@plt>:
    10e0:	f3 0f 1e fa          	endbr64 
    10e4:	f2 ff 25 bd ae 01 00 	bnd jmp *0x1aebd(%rip)        # 1bfa8 <fclose@GLIBC_2.2.5>
    10eb:	0f 1f 44 00 00       	nopl   0x0(%rax,%rax,1)

00000000000010f0 <__stack_chk_fail@plt>:
    10f0:	f3 0f 1e fa          	endbr64 
    10f4:	f2 ff 25 b5 ae 01 00 	bnd jmp *0x1aeb5(%rip)        # 1bfb0 <__stack_chk_fail@GLIBC_2.4>
    10fb:	0f 1f 44 00 00       	nopl   0x0(%rax,%rax,1)

0000000000001100 <log10f@plt>:
    1100:	f3 0f 1e fa          	endbr64 
    1104:	f2 ff 25 ad ae 01 00 	bnd jmp *0x1aead(%rip)        # 1bfb8 <log10f@GLIBC_2.2.5>
    110b:	0f 1f 44 00 00       	nopl   0x0(%rax,%rax,1)

0000000000001110 <__printf_chk@plt>:
    1110:	f3 0f 1e fa          	endbr64 
    1114:	f2 ff 25 a5 ae 01 00 	bnd jmp *0x1aea5(%rip)        # 1bfc0 <__printf_chk@GLIBC_2.3.4>
    111b:	0f 1f 44 00 00       	nopl   0x0(%rax,%rax,1)

0000000000001120 <fopen@plt>:
    1120:	f3 0f 1e fa          	endbr64 
    1124:	f2 ff 25 9d ae 01 00 	bnd jmp *0x1ae9d(%rip)        # 1bfc8 <fopen@GLIBC_2.2.5>
    112b:	0f 1f 44 00 00       	nopl   0x0(%rax,%rax,1)

0000000000001130 <sqrt@plt>:
    1130:	f3 0f 1e fa          	endbr64 
    1134:	f2 ff 25 95 ae 01 00 	bnd jmp *0x1ae95(%rip)        # 1bfd0 <sqrt@GLIBC_2.2.5>
    113b:	0f 1f 44 00 00       	nopl   0x0(%rax,%rax,1)

Disassembly of section .text:

0000000000001140 <main>:
    1140:	f3 0f 1e fa          	endbr64 
    1144:	41 57                	push   %r15
    1146:	41 56                	push   %r14
    1148:	41 55                	push   %r13
    114a:	41 54                	push   %r12
    114c:	55                   	push   %rbp
    114d:	53                   	push   %rbx
    114e:	4c 8d 9c 24 00 a0 ff 	lea    -0x6000(%rsp),%r11
    1155:	ff 
    1156:	48 81 ec 00 10 00 00 	sub    $0x1000,%rsp
    115d:	48 83 0c 24 00       	orq    $0x0,(%rsp)
    1162:	4c 39 dc             	cmp    %r11,%rsp
    1165:	75 ef                	jne    1156 <main+0x16>
    1167:	48 81 ec 58 08 00 00 	sub    $0x858,%rsp
    116e:	48 8d 2d d8 5e 00 00 	lea    0x5ed8(%rip),%rbp        # 704d <_IO_stdin_used+0x4d>
    1175:	48 8d 3d d3 5e 00 00 	lea    0x5ed3(%rip),%rdi        # 704f <_IO_stdin_used+0x4f>
    117c:	48 89 ee             	mov    %rbp,%rsi
    117f:	64 48 8b 04 25 28 00 	mov    %fs:0x28,%rax
    1186:	00 00 
    1188:	48 89 84 24 48 68 00 	mov    %rax,0x6848(%rsp)
    118f:	00 
    1190:	31 c0                	xor    %eax,%eax
    1192:	4c 8d b4 24 40 18 00 	lea    0x1840(%rsp),%r14
    1199:	00 
    119a:	e8 81 ff ff ff       	call   1120 <fopen@plt>
    119f:	48 89 ee             	mov    %rbp,%rsi
    11a2:	48 8d 3d ba 5e 00 00 	lea    0x5eba(%rip),%rdi        # 7063 <_IO_stdin_used+0x63>
    11a9:	49 89 c4             	mov    %rax,%r12
    11ac:	48 89 44 24 20       	mov    %rax,0x20(%rsp)
    11b1:	e8 6a ff ff ff       	call   1120 <fopen@plt>
    11b6:	48 89 ee             	mov    %rbp,%rsi
    11b9:	48 8d 3d b8 5e 00 00 	lea    0x5eb8(%rip),%rdi        # 7078 <_IO_stdin_used+0x78>
    11c0:	48 89 44 24 18       	mov    %rax,0x18(%rsp)
    11c5:	e8 56 ff ff ff       	call   1120 <fopen@plt>
    11ca:	48 89 ee             	mov    %rbp,%rsi
    11cd:	48 8d 3d bc 5e 00 00 	lea    0x5ebc(%rip),%rdi        # 7090 <_IO_stdin_used+0x90>
    11d4:	49 89 c5             	mov    %rax,%r13
    11d7:	48 89 44 24 28       	mov    %rax,0x28(%rsp)
    11dc:	e8 3f ff ff ff       	call   1120 <fopen@plt>
    11e1:	48 89 ee             	mov    %rbp,%rsi
    11e4:	48 8d 3d be 5e 00 00 	lea    0x5ebe(%rip),%rdi        # 70a9 <_IO_stdin_used+0xa9>
    11eb:	48 8d ac 24 40 48 00 	lea    0x4840(%rsp),%rbp
    11f2:	00 
    11f3:	49 89 c7             	mov    %rax,%r15
    11f6:	48 89 44 24 30       	mov    %rax,0x30(%rsp)
    11fb:	e8 20 ff ff ff       	call   1120 <fopen@plt>
    1200:	4c 89 e6             	mov    %r12,%rsi
    1203:	4c 89 f7             	mov    %r14,%rdi
    1206:	4c 8d a4 24 40 28 00 	lea    0x2840(%rsp),%r12
    120d:	00 
    120e:	48 89 c3             	mov    %rax,%rbx
    1211:	48 89 44 24 38       	mov    %rax,0x38(%rsp)
    1216:	e8 15 0e 00 00       	call   2030 <test_Fread.constprop.0.isra.0>
    121b:	48 8b 74 24 18       	mov    0x18(%rsp),%rsi
    1220:	4c 89 e7             	mov    %r12,%rdi
    1223:	e8 08 0e 00 00       	call   2030 <test_Fread.constprop.0.isra.0>
    1228:	48 8d 94 24 40 38 00 	lea    0x3840(%rsp),%rdx
    122f:	00 
    1230:	4c 89 ee             	mov    %r13,%rsi
    1233:	4c 8d ac 24 40 10 00 	lea    0x1040(%rsp),%r13
    123a:	00 
    123b:	48 89 d7             	mov    %rdx,%rdi
    123e:	48 89 14 24          	mov    %rdx,(%rsp)
    1242:	e8 e9 0d 00 00       	call   2030 <test_Fread.constprop.0.isra.0>
    1247:	4c 89 fe             	mov    %r15,%rsi
    124a:	48 89 ef             	mov    %rbp,%rdi
    124d:	4c 8d bc 24 40 58 00 	lea    0x5840(%rsp),%r15
    1254:	00 
    1255:	e8 d6 0d 00 00       	call   2030 <test_Fread.constprop.0.isra.0>
    125a:	48 89 de             	mov    %rbx,%rsi
    125d:	4c 89 ff             	mov    %r15,%rdi
    1260:	48 8d 5c 24 40       	lea    0x40(%rsp),%rbx
    1265:	e8 c6 0d 00 00       	call   2030 <test_Fread.constprop.0.isra.0>
    126a:	66 0f 6f 3d 6e 80 01 	movdqa 0x1806e(%rip),%xmm7        # 192e0 <test_fft_Input_f64_1024+0x2080>
    1271:	00 
    1272:	31 c0                	xor    %eax,%eax
    1274:	66 44 0f 6f 05 73 80 	movdqa 0x18073(%rip),%xmm8        # 192f0 <test_fft_Input_f64_1024+0x2090>
    127b:	01 00 
    127d:	48 8d 35 dc af 00 00 	lea    0xafdc(%rip),%rsi        # c260 <test_fft_Input_1024>
    1284:	44 0f 28 0d f4 7f 01 	movaps 0x17ff4(%rip),%xmm9        # 19280 <test_fft_Input_f64_1024+0x2020>
    128b:	00 
    128c:	44 0f 28 3d fc 7f 01 	movaps 0x17ffc(%rip),%xmm15        # 19290 <test_fft_Input_f64_1024+0x2030>
    1293:	00 
    1294:	66 45 0f ef db       	pxor   %xmm11,%xmm11
    1299:	66 0f 6f 15 0f 80 01 	movdqa 0x1800f(%rip),%xmm2        # 192b0 <test_fft_Input_f64_1024+0x2050>
    12a0:	00 
    12a1:	48 8b 14 24          	mov    (%rsp),%rdx
    12a5:	48 8d 4e 10          	lea    0x10(%rsi),%rcx
    12a9:	66 0f ef f6          	pxor   %xmm6,%xmm6
    12ad:	66 0f 6f 25 0b 80 01 	movdqa 0x1800b(%rip),%xmm4        # 192c0 <test_fft_Input_f64_1024+0x2060>
    12b4:	00 
    12b5:	66 41 0f fa f8       	psubd  %xmm8,%xmm7
    12ba:	66 44 0f 6f 15 0d 80 	movdqa 0x1800d(%rip),%xmm10        # 192d0 <test_fft_Input_f64_1024+0x2070>
    12c1:	01 00 
    12c3:	0f 1f 44 00 00       	nopl   0x0(%rax,%rax,1)
    12c8:	0f 28 0c 46          	movaps (%rsi,%rax,2),%xmm1
    12cc:	0f 28 04 41          	movaps (%rcx,%rax,2),%xmm0
    12d0:	41 0f 28 ef          	movaps %xmm15,%xmm5
    12d4:	45 0f 28 e7          	movaps %xmm15,%xmm12
    12d8:	66 44 0f 6f f4       	movdqa %xmm4,%xmm14
    12dd:	41 0f 59 c9          	mulps  %xmm9,%xmm1
    12e1:	41 0f 59 c1          	mulps  %xmm9,%xmm0
    12e5:	0f 28 d9             	movaps %xmm1,%xmm3
    12e8:	41 0f c2 db 01       	cmpltps %xmm11,%xmm3
    12ed:	0f 54 eb             	andps  %xmm3,%xmm5
    12f0:	0f 55 1d a9 7f 01 00 	andnps 0x17fa9(%rip),%xmm3        # 192a0 <test_fft_Input_f64_1024+0x2040>
    12f7:	0f 56 eb             	orps   %xmm3,%xmm5
    12fa:	0f 28 d8             	movaps %xmm0,%xmm3
    12fd:	41 0f c2 db 01       	cmpltps %xmm11,%xmm3
    1302:	0f 58 cd             	addps  %xmm5,%xmm1
    1305:	44 0f 54 e3          	andps  %xmm3,%xmm12
    1309:	0f 55 1d 90 7f 01 00 	andnps 0x17f90(%rip),%xmm3        # 192a0 <test_fft_Input_f64_1024+0x2040>
    1310:	f3 0f 5b c9          	cvttps2dq %xmm1,%xmm1
    1314:	66 0f 6f e9          	movdqa %xmm1,%xmm5
    1318:	41 0f 56 dc          	orps   %xmm12,%xmm3
    131c:	0f 58 c3             	addps  %xmm3,%xmm0
    131f:	66 0f 6f d9          	movdqa %xmm1,%xmm3
    1323:	f3 0f 5b c0          	cvttps2dq %xmm0,%xmm0
    1327:	66 0f 61 e8          	punpcklwd %xmm0,%xmm5
    132b:	66 0f 69 d8          	punpckhwd %xmm0,%xmm3
    132f:	66 44 0f 6f e8       	movdqa %xmm0,%xmm13
    1334:	66 44 0f 6f e5       	movdqa %xmm5,%xmm12
    1339:	66 44 0f 66 ea       	pcmpgtd %xmm2,%xmm13
    133e:	66 0f 61 eb          	punpcklwd %xmm3,%xmm5
    1342:	66 44 0f 69 e3       	punpckhwd %xmm3,%xmm12
    1347:	66 0f 6f da          	movdqa %xmm2,%xmm3
    134b:	66 41 0f 61 ec       	punpcklwd %xmm12,%xmm5
    1350:	66 44 0f 6f e1       	movdqa %xmm1,%xmm12
    1355:	66 44 0f 66 e2       	pcmpgtd %xmm2,%xmm12
    135a:	66 41 0f db dc       	pand   %xmm12,%xmm3
    135f:	66 44 0f df e4       	pandn  %xmm4,%xmm12
    1364:	66 44 0f eb e3       	por    %xmm3,%xmm12
    1369:	66 0f 6f da          	movdqa %xmm2,%xmm3
    136d:	66 41 0f db dd       	pand   %xmm13,%xmm3
    1372:	66 44 0f df ec       	pandn  %xmm4,%xmm13
    1377:	66 44 0f eb eb       	por    %xmm3,%xmm13
    137c:	66 41 0f 6f da       	movdqa %xmm10,%xmm3
    1381:	66 0f 66 d9          	pcmpgtd %xmm1,%xmm3
    1385:	66 0f fe ca          	paddd  %xmm2,%xmm1
    1389:	66 41 0f fa c8       	psubd  %xmm8,%xmm1
    138e:	66 0f 66 cf          	pcmpgtd %xmm7,%xmm1
    1392:	66 44 0f db f3       	pand   %xmm3,%xmm14
    1397:	66 41 0f df dc       	pandn  %xmm12,%xmm3
    139c:	66 45 0f 6f e2       	movdqa %xmm10,%xmm12
    13a1:	66 44 0f 66 e0       	pcmpgtd %xmm0,%xmm12
    13a6:	66 0f fe c2          	paddd  %xmm2,%xmm0
    13aa:	66 41 0f eb de       	por    %xmm14,%xmm3
    13af:	66 41 0f fa c0       	psubd  %xmm8,%xmm0
    13b4:	66 0f 76 ce          	pcmpeqd %xmm6,%xmm1
    13b8:	66 44 0f 6f f4       	movdqa %xmm4,%xmm14
    13bd:	66 0f 66 c7          	pcmpgtd %xmm7,%xmm0
    13c1:	66 45 0f db f4       	pand   %xmm12,%xmm14
    13c6:	66 45 0f df e5       	pandn  %xmm13,%xmm12
    13cb:	66 44 0f 6f e9       	movdqa %xmm1,%xmm13
    13d0:	66 45 0f eb e6       	por    %xmm14,%xmm12
    13d5:	66 44 0f 6f f4       	movdqa %xmm4,%xmm14
    13da:	66 0f 76 c6          	pcmpeqd %xmm6,%xmm0
    13de:	66 0f 61 c8          	punpcklwd %xmm0,%xmm1
    13e2:	66 44 0f 69 e8       	punpckhwd %xmm0,%xmm13
    13e7:	66 0f 6f c1          	movdqa %xmm1,%xmm0
    13eb:	66 41 0f 61 cd       	punpcklwd %xmm13,%xmm1
    13f0:	66 41 0f 69 c5       	punpckhwd %xmm13,%xmm0
    13f5:	66 0f 61 c8          	punpcklwd %xmm0,%xmm1
    13f9:	66 0f 6f c3          	movdqa %xmm3,%xmm0
    13fd:	66 41 0f 61 dc       	punpcklwd %xmm12,%xmm3
    1402:	66 41 0f 69 c4       	punpckhwd %xmm12,%xmm0
    1407:	66 44 0f 6f e3       	movdqa %xmm3,%xmm12
    140c:	66 0f db e9          	pand   %xmm1,%xmm5
    1410:	66 44 0f 69 e0       	punpckhwd %xmm0,%xmm12
    1415:	66 0f 61 d8          	punpcklwd %xmm0,%xmm3
    1419:	0f 28 44 42 10       	movaps 0x10(%rdx,%rax,2),%xmm0
    141e:	66 41 0f 61 dc       	punpcklwd %xmm12,%xmm3
    1423:	45 0f 28 e7          	movaps %xmm15,%xmm12
    1427:	41 0f 59 c1          	mulps  %xmm9,%xmm0
    142b:	66 0f df cb          	pandn  %xmm3,%xmm1
    142f:	66 0f eb cd          	por    %xmm5,%xmm1
    1433:	41 0f 28 ef          	movaps %xmm15,%xmm5
    1437:	0f 29 0c 03          	movaps %xmm1,(%rbx,%rax,1)
    143b:	0f 28 0c 42          	movaps (%rdx,%rax,2),%xmm1
    143f:	48 83 c0 10          	add    $0x10,%rax
    1443:	41 0f 59 c9          	mulps  %xmm9,%xmm1
    1447:	0f 28 d9             	movaps %xmm1,%xmm3
    144a:	41 0f c2 db 01       	cmpltps %xmm11,%xmm3
    144f:	0f 54 eb             	andps  %xmm3,%xmm5
    1452:	0f 55 1d 47 7e 01 00 	andnps 0x17e47(%rip),%xmm3        # 192a0 <test_fft_Input_f64_1024+0x2040>
    1459:	0f 56 eb             	orps   %xmm3,%xmm5
    145c:	0f 28 d8             	movaps %xmm0,%xmm3
    145f:	41 0f c2 db 01       	cmpltps %xmm11,%xmm3
    1464:	0f 58 cd             	addps  %xmm5,%xmm1
    1467:	44 0f 54 e3          	andps  %xmm3,%xmm12
    146b:	0f 55 1d 2e 7e 01 00 	andnps 0x17e2e(%rip),%xmm3        # 192a0 <test_fft_Input_f64_1024+0x2040>
    1472:	f3 0f 5b c9          	cvttps2dq %xmm1,%xmm1
    1476:	66 0f 6f e9          	movdqa %xmm1,%xmm5
    147a:	41 0f 56 dc          	orps   %xmm12,%xmm3
    147e:	0f 58 c3             	addps  %xmm3,%xmm0
    1481:	66 0f 6f d9          	movdqa %xmm1,%xmm3
    1485:	f3 0f 5b c0          	cvttps2dq %xmm0,%xmm0
    1489:	66 0f 61 e8          	punpcklwd %xmm0,%xmm5
    148d:	66 0f 69 d8          	punpckhwd %xmm0,%xmm3
    1491:	66 44 0f 6f e8       	movdqa %xmm0,%xmm13
    1496:	66 44 0f 6f e5       	movdqa %xmm5,%xmm12
    149b:	66 44 0f 66 ea       	pcmpgtd %xmm2,%xmm13
    14a0:	66 0f 61 eb          	punpcklwd %xmm3,%xmm5
    14a4:	66 44 0f 69 e3       	punpckhwd %xmm3,%xmm12
    14a9:	66 0f 6f da          	movdqa %xmm2,%xmm3
    14ad:	66 41 0f 61 ec       	punpcklwd %xmm12,%xmm5
    14b2:	66 44 0f 6f e1       	movdqa %xmm1,%xmm12
    14b7:	66 44 0f 66 e2       	pcmpgtd %xmm2,%xmm12
    14bc:	66 41 0f db dc       	pand   %xmm12,%xmm3
    14c1:	66 44 0f df e4       	pandn  %xmm4,%xmm12
    14c6:	66 44 0f eb e3       	por    %xmm3,%xmm12
    14cb:	66 0f 6f da          	movdqa %xmm2,%xmm3
    14cf:	66 41 0f db dd       	pand   %xmm13,%xmm3
    14d4:	66 44 0f df ec       	pandn  %xmm4,%xmm13
    14d9:	66 44 0f eb eb       	por    %xmm3,%xmm13
    14de:	66 41 0f 6f da       	movdqa %xmm10,%xmm3
    14e3:	66 0f 66 d9          	pcmpgtd %xmm1,%xmm3
    14e7:	66 0f fe ca          	paddd  %xmm2,%xmm1
    14eb:	66 41 0f fa c8       	psubd  %xmm8,%xmm1
    14f0:	66 0f 66 cf          	pcmpgtd %xmm7,%xmm1
    14f4:	66 44 0f db f3       	pand   %xmm3,%xmm14
    14f9:	66 41 0f df dc       	pandn  %xmm12,%xmm3
    14fe:	66 45 0f 6f e2       	movdqa %xmm10,%xmm12
    1503:	66 44 0f 66 e0       	pcmpgtd %xmm0,%xmm12
    1508:	66 0f fe c2          	paddd  %xmm2,%xmm0
    150c:	66 41 0f eb de       	por    %xmm14,%xmm3
    1511:	66 41 0f fa c0       	psubd  %xmm8,%xmm0
    1516:	66 0f 76 ce          	pcmpeqd %xmm6,%xmm1
    151a:	66 44 0f 6f f4       	movdqa %xmm4,%xmm14
    151f:	66 0f 66 c7          	pcmpgtd %xmm7,%xmm0
    1523:	66 45 0f db f4       	pand   %xmm12,%xmm14
    1528:	66 45 0f df e5       	pandn  %xmm13,%xmm12
    152d:	66 44 0f 6f e9       	movdqa %xmm1,%xmm13
    1532:	66 45 0f eb e6       	por    %xmm14,%xmm12
    1537:	66 0f 76 c6          	pcmpeqd %xmm6,%xmm0
    153b:	66 0f 61 c8          	punpcklwd %xmm0,%xmm1
    153f:	66 44 0f 69 e8       	punpckhwd %xmm0,%xmm13
    1544:	66 0f 6f c1          	movdqa %xmm1,%xmm0
    1548:	66 41 0f 61 cd       	punpcklwd %xmm13,%xmm1
    154d:	66 41 0f 69 c5       	punpckhwd %xmm13,%xmm0
    1552:	66 0f 61 c8          	punpcklwd %xmm0,%xmm1
    1556:	66 0f 6f c3          	movdqa %xmm3,%xmm0
    155a:	66 41 0f 61 dc       	punpcklwd %xmm12,%xmm3
    155f:	66 41 0f 69 c4       	punpckhwd %xmm12,%xmm0
    1564:	66 44 0f 6f e3       	movdqa %xmm3,%xmm12
    1569:	66 0f db e9          	pand   %xmm1,%xmm5
    156d:	66 44 0f 69 e0       	punpckhwd %xmm0,%xmm12
    1572:	66 0f 61 d8          	punpcklwd %xmm0,%xmm3
    1576:	66 41 0f 61 dc       	punpcklwd %xmm12,%xmm3
    157b:	66 0f df cb          	pandn  %xmm3,%xmm1
    157f:	66 0f eb cd          	por    %xmm5,%xmm1
    1583:	42 0f 29 4c 28 f0    	movaps %xmm1,-0x10(%rax,%r13,1)
    1589:	48 3d 00 08 00 00    	cmp    $0x800,%rax
    158f:	0f 85 33 fd ff ff    	jne    12c8 <main+0x188>
    1595:	be 0a 00 00 00       	mov    $0xa,%esi
    159a:	48 89 df             	mov    %rbx,%rdi
    159d:	e8 ae 0a 00 00       	call   2050 <riscv_dsp_rfft_q15>
    15a2:	48 8d 3d 61 5a 00 00 	lea    0x5a61(%rip),%rdi        # 700a <_IO_stdin_used+0xa>
    15a9:	e8 12 fb ff ff       	call   10c0 <puts@plt>
    15ae:	48 8d 35 0e 5b 00 00 	lea    0x5b0e(%rip),%rsi        # 70c3 <_IO_stdin_used+0xc3>
    15b5:	bf 01 00 00 00       	mov    $0x1,%edi
    15ba:	31 c0                	xor    %eax,%eax
    15bc:	e8 4f fb ff ff       	call   1110 <__printf_chk@plt>
    15c1:	48 89 de             	mov    %rbx,%rsi
    15c4:	4c 89 f7             	mov    %r14,%rdi
    15c7:	e8 64 07 00 00       	call   1d30 <dump2_goldendiff2_q15.constprop.0>
    15cc:	31 c0                	xor    %eax,%eax
    15ce:	ba 00 10 00 00       	mov    $0x1000,%edx
    15d3:	48 8d 35 00 5b 00 00 	lea    0x5b00(%rip),%rsi        # 70da <_IO_stdin_used+0xda>
    15da:	bf 01 00 00 00       	mov    $0x1,%edi
    15df:	f3 0f 11 04 24       	movss  %xmm0,(%rsp)
    15e4:	e8 27 fb ff ff       	call   1110 <__printf_chk@plt>
    15e9:	f3 0f 10 04 24       	movss  (%rsp),%xmm0
    15ee:	f3 0f 5a c0          	cvtss2sd %xmm0,%xmm0
    15f2:	66 0f 2f 05 36 7d 01 	comisd 0x17d36(%rip),%xmm0        # 19330 <test_fft_Input_f64_1024+0x20d0>
    15f9:	00 
    15fa:	0f 87 9c 03 00 00    	ja     199c <main+0x85c>
    1600:	be 0a 00 00 00       	mov    $0xa,%esi
    1605:	4c 89 ef             	mov    %r13,%rdi
    1608:	e8 43 0a 00 00       	call   2050 <riscv_dsp_rfft_q15>
    160d:	4c 89 ee             	mov    %r13,%rsi
    1610:	48 89 ef             	mov    %rbp,%rdi
    1613:	e8 18 07 00 00       	call   1d30 <dump2_goldendiff2_q15.constprop.0>
    1618:	44 0f 28 0d 60 7c 01 	movaps 0x17c60(%rip),%xmm9        # 19280 <test_fft_Input_f64_1024+0x2020>
    161f:	00 
    1620:	44 0f 28 3d 68 7c 01 	movaps 0x17c68(%rip),%xmm15        # 19290 <test_fft_Input_f64_1024+0x2030>
    1627:	00 
    1628:	f3 0f 5a c0          	cvtss2sd %xmm0,%xmm0
    162c:	66 0f 2f 05 fc 7c 01 	comisd 0x17cfc(%rip),%xmm0        # 19330 <test_fft_Input_f64_1024+0x20d0>
    1633:	00 
    1634:	66 0f 6f 15 74 7c 01 	movdqa 0x17c74(%rip),%xmm2        # 192b0 <test_fft_Input_f64_1024+0x2050>
    163b:	00 
    163c:	66 0f 6f 25 7c 7c 01 	movdqa 0x17c7c(%rip),%xmm4        # 192c0 <test_fft_Input_f64_1024+0x2060>
    1643:	00 
    1644:	66 44 0f 6f 15 83 7c 	movdqa 0x17c83(%rip),%xmm10        # 192d0 <test_fft_Input_f64_1024+0x2070>
    164b:	01 00 
    164d:	66 44 0f 6f 05 9a 7c 	movdqa 0x17c9a(%rip),%xmm8        # 192f0 <test_fft_Input_f64_1024+0x2090>
    1654:	01 00 
    1656:	0f 87 2a 03 00 00    	ja     1986 <main+0x846>
    165c:	b9 00 01 00 00       	mov    $0x100,%ecx
    1661:	48 89 de             	mov    %rbx,%rsi
    1664:	4c 89 f0             	mov    %r14,%rax
    1667:	48 89 da             	mov    %rbx,%rdx
    166a:	48 8d ac 24 40 08 00 	lea    0x840(%rsp),%rbp
    1671:	00 
    1672:	66 45 0f ef ed       	pxor   %xmm13,%xmm13
    1677:	66 45 0f ef e4       	pxor   %xmm12,%xmm12
    167c:	66 0f 6f 3d 5c 7c 01 	movdqa 0x17c5c(%rip),%xmm7        # 192e0 <test_fft_Input_f64_1024+0x2080>
    1683:	00 
    1684:	48 89 ef             	mov    %rbp,%rdi
    1687:	44 0f 28 35 71 7c 01 	movaps 0x17c71(%rip),%xmm14        # 19300 <test_fft_Input_f64_1024+0x20a0>
    168e:	00 
    168f:	f3 48 a5             	rep movsq %ds:(%rsi),%es:(%rdi)
    1692:	66 41 0f fa f8       	psubd  %xmm8,%xmm7
    1697:	0f 29 3c 24          	movaps %xmm7,(%rsp)
    169b:	0f 1f 44 00 00       	nopl   0x0(%rax,%rax,1)
    16a0:	0f 28 08             	movaps (%rax),%xmm1
    16a3:	0f 28 40 10          	movaps 0x10(%rax),%xmm0
    16a7:	41 0f 28 ef          	movaps %xmm15,%xmm5
    16ab:	41 0f 28 f7          	movaps %xmm15,%xmm6
    16af:	66 44 0f 6f dc       	movdqa %xmm4,%xmm11
    16b4:	48 83 c0 20          	add    $0x20,%rax
    16b8:	48 83 c2 10          	add    $0x10,%rdx
    16bc:	41 0f 59 ce          	mulps  %xmm14,%xmm1
    16c0:	41 0f 59 c6          	mulps  %xmm14,%xmm0
    16c4:	41 0f 59 c9          	mulps  %xmm9,%xmm1
    16c8:	41 0f 59 c1          	mulps  %xmm9,%xmm0
    16cc:	0f 28 d9             	movaps %xmm1,%xmm3
    16cf:	41 0f c2 dd 01       	cmpltps %xmm13,%xmm3
    16d4:	0f 54 eb             	andps  %xmm3,%xmm5
    16d7:	0f 55 1d c2 7b 01 00 	andnps 0x17bc2(%rip),%xmm3        # 192a0 <test_fft_Input_f64_1024+0x2040>
    16de:	0f 56 eb             	orps   %xmm3,%xmm5
    16e1:	0f 28 d8             	movaps %xmm0,%xmm3
    16e4:	41 0f c2 dd 01       	cmpltps %xmm13,%xmm3
    16e9:	0f 58 cd             	addps  %xmm5,%xmm1
    16ec:	0f 54 f3             	andps  %xmm3,%xmm6
    16ef:	0f 55 1d aa 7b 01 00 	andnps 0x17baa(%rip),%xmm3        # 192a0 <test_fft_Input_f64_1024+0x2040>
    16f6:	f3 0f 5b c9          	cvttps2dq %xmm1,%xmm1
    16fa:	66 0f 6f e9          	movdqa %xmm1,%xmm5
    16fe:	0f 56 de             	orps   %xmm6,%xmm3
    1701:	0f 58 c3             	addps  %xmm3,%xmm0
    1704:	66 0f 6f d9          	movdqa %xmm1,%xmm3
    1708:	f3 0f 5b c0          	cvttps2dq %xmm0,%xmm0
    170c:	66 0f 61 e8          	punpcklwd %xmm0,%xmm5
    1710:	66 0f 69 d8          	punpckhwd %xmm0,%xmm3
    1714:	66 0f 6f f8          	movdqa %xmm0,%xmm7
    1718:	66 0f 6f f5          	movdqa %xmm5,%xmm6
    171c:	66 0f 66 fa          	pcmpgtd %xmm2,%xmm7
    1720:	66 0f 61 eb          	punpcklwd %xmm3,%xmm5
    1724:	66 0f 69 f3          	punpckhwd %xmm3,%xmm6
    1728:	66 0f 6f da          	movdqa %xmm2,%xmm3
    172c:	66 0f 61 ee          	punpcklwd %xmm6,%xmm5
    1730:	66 0f 6f f1          	movdqa %xmm1,%xmm6
    1734:	66 0f 66 f2          	pcmpgtd %xmm2,%xmm6
    1738:	66 0f db de          	pand   %xmm6,%xmm3
    173c:	66 0f df f4          	pandn  %xmm4,%xmm6
    1740:	66 0f eb f3          	por    %xmm3,%xmm6
    1744:	66 0f 6f da          	movdqa %xmm2,%xmm3
    1748:	66 0f db df          	pand   %xmm7,%xmm3
    174c:	66 0f df fc          	pandn  %xmm4,%xmm7
    1750:	66 0f eb fb          	por    %xmm3,%xmm7
    1754:	66 41 0f 6f da       	movdqa %xmm10,%xmm3
    1759:	66 0f 66 d9          	pcmpgtd %xmm1,%xmm3
    175d:	66 0f fe ca          	paddd  %xmm2,%xmm1
    1761:	66 41 0f fa c8       	psubd  %xmm8,%xmm1
    1766:	66 44 0f db db       	pand   %xmm3,%xmm11
    176b:	66 0f df de          	pandn  %xmm6,%xmm3
    176f:	66 41 0f 6f f2       	movdqa %xmm10,%xmm6
    1774:	66 0f 66 f0          	pcmpgtd %xmm0,%xmm6
    1778:	66 41 0f eb db       	por    %xmm11,%xmm3
    177d:	66 44 0f 6f dc       	movdqa %xmm4,%xmm11
    1782:	66 0f fe c2          	paddd  %xmm2,%xmm0
    1786:	66 41 0f fa c0       	psubd  %xmm8,%xmm0
    178b:	66 44 0f db de       	pand   %xmm6,%xmm11
    1790:	66 0f df f7          	pandn  %xmm7,%xmm6
    1794:	66 0f 6f 3c 24       	movdqa (%rsp),%xmm7
    1799:	66 41 0f eb f3       	por    %xmm11,%xmm6
    179e:	66 0f 66 cf          	pcmpgtd %xmm7,%xmm1
    17a2:	66 0f 66 c7          	pcmpgtd %xmm7,%xmm0
    17a6:	66 41 0f 76 cc       	pcmpeqd %xmm12,%xmm1
    17ab:	66 41 0f 76 c4       	pcmpeqd %xmm12,%xmm0
    17b0:	66 0f 6f f9          	movdqa %xmm1,%xmm7
    17b4:	66 0f 61 c8          	punpcklwd %xmm0,%xmm1
    17b8:	66 0f 69 f8          	punpckhwd %xmm0,%xmm7
    17bc:	66 0f 6f c1          	movdqa %xmm1,%xmm0
    17c0:	66 0f 69 c7          	punpckhwd %xmm7,%xmm0
    17c4:	66 0f 61 cf          	punpcklwd %xmm7,%xmm1
    17c8:	66 0f 61 c8          	punpcklwd %xmm0,%xmm1
    17cc:	66 0f 6f c3          	movdqa %xmm3,%xmm0
    17d0:	66 0f 61 de          	punpcklwd %xmm6,%xmm3
    17d4:	66 0f 69 c6          	punpckhwd %xmm6,%xmm0
    17d8:	66 0f 6f f3          	movdqa %xmm3,%xmm6
    17dc:	66 0f db e9          	pand   %xmm1,%xmm5
    17e0:	66 0f 69 f0          	punpckhwd %xmm0,%xmm6
    17e4:	66 0f 61 d8          	punpcklwd %xmm0,%xmm3
    17e8:	66 0f 61 de          	punpcklwd %xmm6,%xmm3
    17ec:	66 0f df cb          	pandn  %xmm3,%xmm1
    17f0:	66 0f eb cd          	por    %xmm5,%xmm1
    17f4:	0f 29 4a f0          	movaps %xmm1,-0x10(%rdx)
    17f8:	4c 39 e0             	cmp    %r12,%rax
    17fb:	0f 85 9f fe ff ff    	jne    16a0 <main+0x560>
    1801:	48 89 df             	mov    %rbx,%rdi
    1804:	be 0a 00 00 00       	mov    $0xa,%esi
    1809:	e8 f2 09 00 00       	call   2200 <riscv_dsp_rifft_q15>
    180e:	48 8d 35 eb 58 00 00 	lea    0x58eb(%rip),%rsi        # 7100 <_IO_stdin_used+0x100>
    1815:	bf 01 00 00 00       	mov    $0x1,%edi
    181a:	31 c0                	xor    %eax,%eax
    181c:	e8 ef f8 ff ff       	call   1110 <__printf_chk@plt>
    1821:	48 89 de             	mov    %rbx,%rsi
    1824:	4c 89 e7             	mov    %r12,%rdi
    1827:	48 8d 1d ea 58 00 00 	lea    0x58ea(%rip),%rbx        # 7118 <_IO_stdin_used+0x118>
    182e:	e8 7d 06 00 00       	call   1eb0 <dump2_inv_goldendiff_q15.constprop.0>
    1833:	31 c0                	xor    %eax,%eax
    1835:	ba 02 00 00 00       	mov    $0x2,%edx
    183a:	48 89 de             	mov    %rbx,%rsi
    183d:	bf 01 00 00 00       	mov    $0x1,%edi
    1842:	f3 0f 11 04 24       	movss  %xmm0,(%rsp)
    1847:	e8 c4 f8 ff ff       	call   1110 <__printf_chk@plt>
    184c:	f3 0f 10 04 24       	movss  (%rsp),%xmm0
    1851:	f3 0f 5a c0          	cvtss2sd %xmm0,%xmm0
    1855:	66 0f 2f 05 db 7a 01 	comisd 0x17adb(%rip),%xmm0        # 19338 <test_fft_Input_f64_1024+0x20d8>
    185c:	00 
    185d:	0f 87 a3 01 00 00    	ja     1a06 <main+0x8c6>
    1863:	4c 89 e8             	mov    %r13,%rax
    1866:	66 2e 0f 1f 84 00 00 	cs nopw 0x0(%rax,%rax,1)
    186d:	00 00 00 
    1870:	66 0f 6f 00          	movdqa (%rax),%xmm0
    1874:	48 83 c0 10          	add    $0x10,%rax
    1878:	66 0f 71 e0 01       	psraw  $0x1,%xmm0
    187d:	0f 29 40 f0          	movaps %xmm0,-0x10(%rax)
    1881:	4c 39 f0             	cmp    %r14,%rax
    1884:	75 ea                	jne    1870 <main+0x730>
    1886:	be 0a 00 00 00       	mov    $0xa,%esi
    188b:	4c 89 ef             	mov    %r13,%rdi
    188e:	e8 6d 09 00 00       	call   2200 <riscv_dsp_rifft_q15>
    1893:	4c 89 ee             	mov    %r13,%rsi
    1896:	4c 89 ff             	mov    %r15,%rdi
    1899:	e8 12 06 00 00       	call   1eb0 <dump2_inv_goldendiff_q15.constprop.0>
    189e:	f3 0f 5a c0          	cvtss2sd %xmm0,%xmm0
    18a2:	66 0f 2f 05 96 7a 01 	comisd 0x17a96(%rip),%xmm0        # 19340 <test_fft_Input_f64_1024+0x20e0>
    18a9:	00 
    18aa:	0f 87 22 01 00 00    	ja     19d2 <main+0x892>
    18b0:	48 89 e8             	mov    %rbp,%rax
    18b3:	0f 1f 44 00 00       	nopl   0x0(%rax,%rax,1)
    18b8:	66 0f 6f 00          	movdqa (%rax),%xmm0
    18bc:	48 83 c0 10          	add    $0x10,%rax
    18c0:	66 0f 71 e0 01       	psraw  $0x1,%xmm0
    18c5:	0f 29 40 f0          	movaps %xmm0,-0x10(%rax)
    18c9:	49 39 c5             	cmp    %rax,%r13
    18cc:	75 ea                	jne    18b8 <main+0x778>
    18ce:	be 0a 00 00 00       	mov    $0xa,%esi
    18d3:	48 89 ef             	mov    %rbp,%rdi
    18d6:	e8 25 09 00 00       	call   2200 <riscv_dsp_rifft_q15>
    18db:	48 8d 35 2e 59 00 00 	lea    0x592e(%rip),%rsi        # 7210 <_IO_stdin_used+0x210>
    18e2:	bf 01 00 00 00       	mov    $0x1,%edi
    18e7:	31 c0                	xor    %eax,%eax
    18e9:	e8 22 f8 ff ff       	call   1110 <__printf_chk@plt>
    18ee:	48 89 ee             	mov    %rbp,%rsi
    18f1:	4c 89 e7             	mov    %r12,%rdi
    18f4:	e8 b7 05 00 00       	call   1eb0 <dump2_inv_goldendiff_q15.constprop.0>
    18f9:	ba 02 00 00 00       	mov    $0x2,%edx
    18fe:	48 89 de             	mov    %rbx,%rsi
    1901:	31 c0                	xor    %eax,%eax
    1903:	bf 01 00 00 00       	mov    $0x1,%edi
    1908:	f3 0f 11 04 24       	movss  %xmm0,(%rsp)
    190d:	e8 fe f7 ff ff       	call   1110 <__printf_chk@plt>
    1912:	48 8b 7c 24 20       	mov    0x20(%rsp),%rdi
    1917:	e8 c4 f7 ff ff       	call   10e0 <fclose@plt>
    191c:	48 8b 7c 24 18       	mov    0x18(%rsp),%rdi
    1921:	e8 ba f7 ff ff       	call   10e0 <fclose@plt>
    1926:	48 8b 7c 24 28       	mov    0x28(%rsp),%rdi
    192b:	e8 b0 f7 ff ff       	call   10e0 <fclose@plt>
    1930:	48 8b 7c 24 30       	mov    0x30(%rsp),%rdi
    1935:	e8 a6 f7 ff ff       	call   10e0 <fclose@plt>
    193a:	48 8b 7c 24 38       	mov    0x38(%rsp),%rdi
    193f:	e8 9c f7 ff ff       	call   10e0 <fclose@plt>
    1944:	f3 0f 10 04 24       	movss  (%rsp),%xmm0
    1949:	f2 0f 10 0d f7 79 01 	movsd  0x179f7(%rip),%xmm1        # 19348 <test_fft_Input_f64_1024+0x20e8>
    1950:	00 
    1951:	f3 0f 5a c0          	cvtss2sd %xmm0,%xmm0
    1955:	66 0f 2f c8          	comisd %xmm0,%xmm1
    1959:	76 5c                	jbe    19b7 <main+0x877>
    195b:	31 c0                	xor    %eax,%eax
    195d:	48 8b 94 24 48 68 00 	mov    0x6848(%rsp),%rdx
    1964:	00 
    1965:	64 48 2b 14 25 28 00 	sub    %fs:0x28,%rdx
    196c:	00 00 
    196e:	0f 85 b0 00 00 00    	jne    1a24 <main+0x8e4>
    1974:	48 81 c4 58 68 00 00 	add    $0x6858,%rsp
    197b:	5b                   	pop    %rbx
    197c:	5d                   	pop    %rbp
    197d:	41 5c                	pop    %r12
    197f:	41 5d                	pop    %r13
    1981:	41 5e                	pop    %r14
    1983:	41 5f                	pop    %r15
    1985:	c3                   	ret    
    1986:	48 8d 3d 65 57 00 00 	lea    0x5765(%rip),%rdi        # 70f2 <_IO_stdin_used+0xf2>
    198d:	f2 0f 11 04 24       	movsd  %xmm0,(%rsp)
    1992:	e8 29 f7 ff ff       	call   10c0 <puts@plt>
    1997:	f2 0f 10 04 24       	movsd  (%rsp),%xmm0
    199c:	48 8d 35 f5 57 00 00 	lea    0x57f5(%rip),%rsi        # 7198 <_IO_stdin_used+0x198>
    19a3:	bf 01 00 00 00       	mov    $0x1,%edi
    19a8:	b8 01 00 00 00       	mov    $0x1,%eax
    19ad:	e8 5e f7 ff ff       	call   1110 <__printf_chk@plt>
    19b2:	83 c8 ff             	or     $0xffffffff,%eax
    19b5:	eb a6                	jmp    195d <main+0x81d>
    19b7:	48 8d 35 7a 58 00 00 	lea    0x587a(%rip),%rsi        # 7238 <_IO_stdin_used+0x238>
    19be:	bf 01 00 00 00       	mov    $0x1,%edi
    19c3:	b8 01 00 00 00       	mov    $0x1,%eax
    19c8:	e8 43 f7 ff ff       	call   1110 <__printf_chk@plt>
    19cd:	83 c8 ff             	or     $0xffffffff,%eax
    19d0:	eb 8b                	jmp    195d <main+0x81d>
    19d2:	48 8d 3d 58 57 00 00 	lea    0x5758(%rip),%rdi        # 7131 <_IO_stdin_used+0x131>
    19d9:	f2 0f 11 04 24       	movsd  %xmm0,(%rsp)
    19de:	e8 dd f6 ff ff       	call   10c0 <puts@plt>
    19e3:	f2 0f 10 04 24       	movsd  (%rsp),%xmm0
    19e8:	bf 01 00 00 00       	mov    $0x1,%edi
    19ed:	48 8d 35 f4 57 00 00 	lea    0x57f4(%rip),%rsi        # 71e8 <_IO_stdin_used+0x1e8>
    19f4:	b8 01 00 00 00       	mov    $0x1,%eax
    19f9:	e8 12 f7 ff ff       	call   1110 <__printf_chk@plt>
    19fe:	83 c8 ff             	or     $0xffffffff,%eax
    1a01:	e9 57 ff ff ff       	jmp    195d <main+0x81d>
    1a06:	48 8d 35 b3 57 00 00 	lea    0x57b3(%rip),%rsi        # 71c0 <_IO_stdin_used+0x1c0>
    1a0d:	bf 01 00 00 00       	mov    $0x1,%edi
    1a12:	b8 01 00 00 00       	mov    $0x1,%eax
    1a17:	e8 f4 f6 ff ff       	call   1110 <__printf_chk@plt>
    1a1c:	83 c8 ff             	or     $0xffffffff,%eax
    1a1f:	e9 39 ff ff ff       	jmp    195d <main+0x81d>
    1a24:	e8 c7 f6 ff ff       	call   10f0 <__stack_chk_fail@plt>
    1a29:	0f 1f 80 00 00 00 00 	nopl   0x0(%rax)

0000000000001a30 <_start>:
    1a30:	f3 0f 1e fa          	endbr64 
    1a34:	31 ed                	xor    %ebp,%ebp
    1a36:	49 89 d1             	mov    %rdx,%r9
    1a39:	5e                   	pop    %rsi
    1a3a:	48 89 e2             	mov    %rsp,%rdx
    1a3d:	48 83 e4 f0          	and    $0xfffffffffffffff0,%rsp
    1a41:	50                   	push   %rax
    1a42:	54                   	push   %rsp
    1a43:	45 31 c0             	xor    %r8d,%r8d
    1a46:	31 c9                	xor    %ecx,%ecx
    1a48:	48 8d 3d f1 f6 ff ff 	lea    -0x90f(%rip),%rdi        # 1140 <main>
    1a4f:	ff 15 83 a5 01 00    	call   *0x1a583(%rip)        # 1bfd8 <__libc_start_main@GLIBC_2.34>
    1a55:	f4                   	hlt    
    1a56:	66 2e 0f 1f 84 00 00 	cs nopw 0x0(%rax,%rax,1)
    1a5d:	00 00 00 

0000000000001a60 <deregister_tm_clones>:
    1a60:	48 8d 3d a9 a5 01 00 	lea    0x1a5a9(%rip),%rdi        # 1c010 <__TMC_END__>
    1a67:	48 8d 05 a2 a5 01 00 	lea    0x1a5a2(%rip),%rax        # 1c010 <__TMC_END__>
    1a6e:	48 39 f8             	cmp    %rdi,%rax
    1a71:	74 15                	je     1a88 <deregister_tm_clones+0x28>
    1a73:	48 8b 05 66 a5 01 00 	mov    0x1a566(%rip),%rax        # 1bfe0 <_ITM_deregisterTMCloneTable@Base>
    1a7a:	48 85 c0             	test   %rax,%rax
    1a7d:	74 09                	je     1a88 <deregister_tm_clones+0x28>
    1a7f:	ff e0                	jmp    *%rax
    1a81:	0f 1f 80 00 00 00 00 	nopl   0x0(%rax)
    1a88:	c3                   	ret    
    1a89:	0f 1f 80 00 00 00 00 	nopl   0x0(%rax)

0000000000001a90 <register_tm_clones>:
    1a90:	48 8d 3d 79 a5 01 00 	lea    0x1a579(%rip),%rdi        # 1c010 <__TMC_END__>
    1a97:	48 8d 35 72 a5 01 00 	lea    0x1a572(%rip),%rsi        # 1c010 <__TMC_END__>
    1a9e:	48 29 fe             	sub    %rdi,%rsi
    1aa1:	48 89 f0             	mov    %rsi,%rax
    1aa4:	48 c1 ee 3f          	shr    $0x3f,%rsi
    1aa8:	48 c1 f8 03          	sar    $0x3,%rax
    1aac:	48 01 c6             	add    %rax,%rsi
    1aaf:	48 d1 fe             	sar    %rsi
    1ab2:	74 14                	je     1ac8 <register_tm_clones+0x38>
    1ab4:	48 8b 05 35 a5 01 00 	mov    0x1a535(%rip),%rax        # 1bff0 <_ITM_registerTMCloneTable@Base>
    1abb:	48 85 c0             	test   %rax,%rax
    1abe:	74 08                	je     1ac8 <register_tm_clones+0x38>
    1ac0:	ff e0                	jmp    *%rax
    1ac2:	66 0f 1f 44 00 00    	nopw   0x0(%rax,%rax,1)
    1ac8:	c3                   	ret    
    1ac9:	0f 1f 80 00 00 00 00 	nopl   0x0(%rax)

0000000000001ad0 <__do_global_dtors_aux>:
    1ad0:	f3 0f 1e fa          	endbr64 
    1ad4:	80 3d 35 a5 01 00 00 	cmpb   $0x0,0x1a535(%rip)        # 1c010 <__TMC_END__>
    1adb:	75 2b                	jne    1b08 <__do_global_dtors_aux+0x38>
    1add:	55                   	push   %rbp
    1ade:	48 83 3d 12 a5 01 00 	cmpq   $0x0,0x1a512(%rip)        # 1bff8 <__cxa_finalize@GLIBC_2.2.5>
    1ae5:	00 
    1ae6:	48 89 e5             	mov    %rsp,%rbp
    1ae9:	74 0c                	je     1af7 <__do_global_dtors_aux+0x27>
    1aeb:	48 8b 3d 16 a5 01 00 	mov    0x1a516(%rip),%rdi        # 1c008 <__dso_handle>
    1af2:	e8 b9 f5 ff ff       	call   10b0 <__cxa_finalize@plt>
    1af7:	e8 64 ff ff ff       	call   1a60 <deregister_tm_clones>
    1afc:	c6 05 0d a5 01 00 01 	movb   $0x1,0x1a50d(%rip)        # 1c010 <__TMC_END__>
    1b03:	5d                   	pop    %rbp
    1b04:	c3                   	ret    
    1b05:	0f 1f 00             	nopl   (%rax)
    1b08:	c3                   	ret    
    1b09:	0f 1f 80 00 00 00 00 	nopl   0x0(%rax)

0000000000001b10 <frame_dummy>:
    1b10:	f3 0f 1e fa          	endbr64 
    1b14:	e9 77 ff ff ff       	jmp    1a90 <register_tm_clones>
    1b19:	0f 1f 80 00 00 00 00 	nopl   0x0(%rax)

0000000000001b20 <dump_rmsd2.constprop.0>:
    1b20:	66 0f ef db          	pxor   %xmm3,%xmm3
    1b24:	66 0f ef ff          	pxor   %xmm7,%xmm7
    1b28:	31 c0                	xor    %eax,%eax
    1b2a:	66 0f 28 ef          	movapd %xmm7,%xmm5
    1b2e:	0f 28 c3             	movaps %xmm3,%xmm0
    1b31:	44 0f 28 c3          	movaps %xmm3,%xmm8
    1b35:	f3 44 0f 10 0d 32 77 	movss  0x17732(%rip),%xmm9        # 19270 <test_fft_Input_f64_1024+0x2010>
    1b3c:	01 00 
    1b3e:	0f 28 f3             	movaps %xmm3,%xmm6
    1b41:	0f 1f 80 00 00 00 00 	nopl   0x0(%rax)
    1b48:	f3 0f 10 0c 06       	movss  (%rsi,%rax,1),%xmm1
    1b4d:	f3 0f 10 14 07       	movss  (%rdi,%rax,1),%xmm2
    1b52:	66 0f 7e ca          	movd   %xmm1,%edx
    1b56:	81 fa 00 00 c0 7f    	cmp    $0x7fc00000,%edx
    1b5c:	0f 84 74 01 00 00    	je     1cd6 <dump_rmsd2.constprop.0+0x1b6>
    1b62:	0f 28 e2             	movaps %xmm2,%xmm4
    1b65:	f3 0f 5c ca          	subss  %xmm2,%xmm1
    1b69:	48 83 c0 04          	add    $0x4,%rax
    1b6d:	f3 0f 5f e6          	maxss  %xmm6,%xmm4
    1b71:	0f 28 f4             	movaps %xmm4,%xmm6
    1b74:	0f 28 e2             	movaps %xmm2,%xmm4
    1b77:	f3 41 0f 5d e0       	minss  %xmm8,%xmm4
    1b7c:	f3 0f 59 d2          	mulss  %xmm2,%xmm2
    1b80:	44 0f 28 c4          	movaps %xmm4,%xmm8
    1b84:	0f 28 e1             	movaps %xmm1,%xmm4
    1b87:	f3 0f 59 c9          	mulss  %xmm1,%xmm1
    1b8b:	41 0f 54 e1          	andps  %xmm9,%xmm4
    1b8f:	f3 0f 58 c4          	addss  %xmm4,%xmm0
    1b93:	f3 0f 5f e3          	maxss  %xmm3,%xmm4
    1b97:	f3 0f 5a d2          	cvtss2sd %xmm2,%xmm2
    1b9b:	f2 0f 58 fa          	addsd  %xmm2,%xmm7
    1b9f:	0f 28 dc             	movaps %xmm4,%xmm3
    1ba2:	f3 0f 5a c9          	cvtss2sd %xmm1,%xmm1
    1ba6:	f2 0f 58 e9          	addsd  %xmm1,%xmm5
    1baa:	48 3d 00 10 00 00    	cmp    $0x1000,%rax
    1bb0:	75 96                	jne    1b48 <dump_rmsd2.constprop.0+0x28>
    1bb2:	53                   	push   %rbx
    1bb3:	66 48 0f 7e e8       	movq   %xmm5,%rax
    1bb8:	48 83 ec 20          	sub    $0x20,%rsp
    1bbc:	f3 0f 11 64 24 14    	movss  %xmm4,0x14(%rsp)
    1bc2:	f3 44 0f 11 44 24 10 	movss  %xmm8,0x10(%rsp)
    1bc9:	f3 0f 11 74 24 0c    	movss  %xmm6,0xc(%rsp)
    1bcf:	f2 0f 11 3c 24       	movsd  %xmm7,(%rsp)
    1bd4:	3d 00 00 c0 7f       	cmp    $0x7fc00000,%eax
    1bd9:	0f 84 03 01 00 00    	je     1ce2 <dump_rmsd2.constprop.0+0x1c2>
    1bdf:	f3 0f 59 05 7d 76 01 	mulss  0x1767d(%rip),%xmm0        # 19264 <test_fft_Input_f64_1024+0x2004>
    1be6:	00 
    1be7:	f2 0f 11 6c 24 18    	movsd  %xmm5,0x18(%rsp)
    1bed:	66 0f 7e c3          	movd   %xmm0,%ebx
    1bf1:	66 0f 28 c5          	movapd %xmm5,%xmm0
    1bf5:	f2 0f 59 05 13 77 01 	mulsd  0x17713(%rip),%xmm0        # 19310 <test_fft_Input_f64_1024+0x20b0>
    1bfc:	00 
    1bfd:	e8 2e f5 ff ff       	call   1130 <sqrt@plt>
    1c02:	f3 0f 10 74 24 0c    	movss  0xc(%rsp),%xmm6
    1c08:	f3 44 0f 10 44 24 10 	movss  0x10(%rsp),%xmm8
    1c0f:	66 0f ef c9          	pxor   %xmm1,%xmm1
    1c13:	f2 0f 10 6c 24 18    	movsd  0x18(%rsp),%xmm5
    1c19:	66 0f ef ff          	pxor   %xmm7,%xmm7
    1c1d:	f2 0f 5a c8          	cvtsd2ss %xmm0,%xmm1
    1c21:	f3 0f 10 5c 24 14    	movss  0x14(%rsp),%xmm3
    1c27:	0f 28 c6             	movaps %xmm6,%xmm0
    1c2a:	0f 28 f1             	movaps %xmm1,%xmm6
    1c2d:	f3 41 0f 5c c0       	subss  %xmm8,%xmm0
    1c32:	66 0f 2e ef          	ucomisd %xmm7,%xmm5
    1c36:	f2 0f 10 3c 24       	movsd  (%rsp),%xmm7
    1c3b:	f3 0f 5e f0          	divss  %xmm0,%xmm6
    1c3f:	0f 8a a7 00 00 00    	jp     1cec <dump_rmsd2.constprop.0+0x1cc>
    1c45:	f3 0f 10 25 13 76 01 	movss  0x17613(%rip),%xmm4        # 19260 <test_fft_Input_f64_1024+0x2000>
    1c4c:	00 
    1c4d:	0f 85 99 00 00 00    	jne    1cec <dump_rmsd2.constprop.0+0x1cc>
    1c53:	48 8d 3d aa 53 00 00 	lea    0x53aa(%rip),%rdi        # 7004 <_IO_stdin_used+0x4>
    1c5a:	f3 0f 11 74 24 14    	movss  %xmm6,0x14(%rsp)
    1c60:	f3 0f 11 5c 24 10    	movss  %xmm3,0x10(%rsp)
    1c66:	f3 0f 11 24 24       	movss  %xmm4,(%rsp)
    1c6b:	f3 0f 11 4c 24 0c    	movss  %xmm1,0xc(%rsp)
    1c71:	e8 4a f4 ff ff       	call   10c0 <puts@plt>
    1c76:	f3 0f 10 74 24 14    	movss  0x14(%rsp),%xmm6
    1c7c:	f3 0f 10 24 24       	movss  (%rsp),%xmm4
    1c81:	66 0f 6e fb          	movd   %ebx,%xmm7
    1c85:	f3 0f 10 5c 24 10    	movss  0x10(%rsp),%xmm3
    1c8b:	f3 0f 10 4c 24 0c    	movss  0xc(%rsp),%xmm1
    1c91:	66 0f ef c0          	pxor   %xmm0,%xmm0
    1c95:	66 0f ef d2          	pxor   %xmm2,%xmm2
    1c99:	48 8d 35 a0 54 00 00 	lea    0x54a0(%rip),%rsi        # 7140 <_IO_stdin_used+0x140>
    1ca0:	bf 01 00 00 00       	mov    $0x1,%edi
    1ca5:	b8 05 00 00 00       	mov    $0x5,%eax
    1caa:	f3 0f 11 34 24       	movss  %xmm6,(%rsp)
    1caf:	f3 0f 5a d6          	cvtss2sd %xmm6,%xmm2
    1cb3:	f3 0f 5a c7          	cvtss2sd %xmm7,%xmm0
    1cb7:	f3 0f 5a e4          	cvtss2sd %xmm4,%xmm4
    1cbb:	f3 0f 5a db          	cvtss2sd %xmm3,%xmm3
    1cbf:	f3 0f 5a c9          	cvtss2sd %xmm1,%xmm1
    1cc3:	e8 48 f4 ff ff       	call   1110 <__printf_chk@plt>
    1cc8:	f3 0f 10 34 24       	movss  (%rsp),%xmm6
    1ccd:	48 83 c4 20          	add    $0x20,%rsp
    1cd1:	0f 28 c6             	movaps %xmm6,%xmm0
    1cd4:	5b                   	pop    %rbx
    1cd5:	c3                   	ret    
    1cd6:	f3 0f 10 35 82 75 01 	movss  0x17582(%rip),%xmm6        # 19260 <test_fft_Input_f64_1024+0x2000>
    1cdd:	00 
    1cde:	0f 28 c6             	movaps %xmm6,%xmm0
    1ce1:	c3                   	ret    
    1ce2:	f3 0f 10 35 76 75 01 	movss  0x17576(%rip),%xmm6        # 19260 <test_fft_Input_f64_1024+0x2000>
    1ce9:	00 
    1cea:	eb e1                	jmp    1ccd <dump_rmsd2.constprop.0+0x1ad>
    1cec:	f2 0f 5e fd          	divsd  %xmm5,%xmm7
    1cf0:	66 0f ef c0          	pxor   %xmm0,%xmm0
    1cf4:	f3 0f 11 0c 24       	movss  %xmm1,(%rsp)
    1cf9:	f3 0f 11 74 24 10    	movss  %xmm6,0x10(%rsp)
    1cff:	f3 0f 11 5c 24 0c    	movss  %xmm3,0xc(%rsp)
    1d05:	f2 0f 5a c7          	cvtsd2ss %xmm7,%xmm0
    1d09:	e8 f2 f3 ff ff       	call   1100 <log10f@plt>
    1d0e:	f3 0f 10 74 24 10    	movss  0x10(%rsp),%xmm6
    1d14:	f3 0f 59 05 4c 75 01 	mulss  0x1754c(%rip),%xmm0        # 19268 <test_fft_Input_f64_1024+0x2008>
    1d1b:	00 
    1d1c:	f3 0f 10 5c 24 0c    	movss  0xc(%rsp),%xmm3
    1d22:	f3 0f 10 0c 24       	movss  (%rsp),%xmm1
    1d27:	0f 28 e0             	movaps %xmm0,%xmm4
    1d2a:	e9 24 ff ff ff       	jmp    1c53 <dump_rmsd2.constprop.0+0x133>
    1d2f:	90                   	nop

0000000000001d30 <dump2_goldendiff2_q15.constprop.0>:
    1d30:	55                   	push   %rbp
    1d31:	49 89 f8             	mov    %rdi,%r8
    1d34:	49 89 f1             	mov    %rsi,%r9
    1d37:	48 89 e5             	mov    %rsp,%rbp
    1d3a:	41 55                	push   %r13
    1d3c:	41 54                	push   %r12
    1d3e:	48 83 ec 10          	sub    $0x10,%rsp
    1d42:	64 48 8b 04 25 28 00 	mov    %fs:0x28,%rax
    1d49:	00 00 
    1d4b:	48 89 45 e8          	mov    %rax,-0x18(%rbp)
    1d4f:	31 c0                	xor    %eax,%eax
    1d51:	48 8d 84 24 00 f0 ff 	lea    -0x1000(%rsp),%rax
    1d58:	ff 
    1d59:	48 39 c4             	cmp    %rax,%rsp
    1d5c:	74 15                	je     1d73 <dump2_goldendiff2_q15.constprop.0+0x43>
    1d5e:	48 81 ec 00 10 00 00 	sub    $0x1000,%rsp
    1d65:	48 83 8c 24 f8 0f 00 	orq    $0x0,0xff8(%rsp)
    1d6c:	00 00 
    1d6e:	48 39 c4             	cmp    %rax,%rsp
    1d71:	75 eb                	jne    1d5e <dump2_goldendiff2_q15.constprop.0+0x2e>
    1d73:	49 89 e5             	mov    %rsp,%r13
    1d76:	48 8d 84 24 00 f0 ff 	lea    -0x1000(%rsp),%rax
    1d7d:	ff 
    1d7e:	48 39 c4             	cmp    %rax,%rsp
    1d81:	74 12                	je     1d95 <dump2_goldendiff2_q15.constprop.0+0x65>
    1d83:	48 81 ec 00 10 00 00 	sub    $0x1000,%rsp
    1d8a:	48 83 8c 24 f8 0f 00 	orq    $0x0,0xff8(%rsp)
    1d91:	00 00 
    1d93:	eb e9                	jmp    1d7e <dump2_goldendiff2_q15.constprop.0+0x4e>
    1d95:	f2 0f 10 2d 7b 75 01 	movsd  0x1757b(%rip),%xmm5        # 19318 <test_fft_Input_f64_1024+0x20b8>
    1d9c:	00 
    1d9d:	66 0f ef c0          	pxor   %xmm0,%xmm0
    1da1:	f2 0f 10 25 77 75 01 	movsd  0x17577(%rip),%xmm4        # 19320 <test_fft_Input_f64_1024+0x20c0>
    1da8:	00 
    1da9:	f3 0f 10 1d bf 74 01 	movss  0x174bf(%rip),%xmm3        # 19270 <test_fft_Input_f64_1024+0x2010>
    1db0:	00 
    1db1:	49 8b 10             	mov    (%r8),%rdx
    1db4:	4c 8d 64 24 03       	lea    0x3(%rsp),%r12
    1db9:	4c 89 c6             	mov    %r8,%rsi
    1dbc:	4c 89 e0             	mov    %r12,%rax
    1dbf:	49 83 e4 fc          	and    $0xfffffffffffffffc,%r12
    1dc3:	48 c1 e8 02          	shr    $0x2,%rax
    1dc7:	49 8d 7c 24 08       	lea    0x8(%r12),%rdi
    1dcc:	48 89 14 85 00 00 00 	mov    %rdx,0x0(,%rax,4)
    1dd3:	00 
    1dd4:	49 8b 80 f8 0f 00 00 	mov    0xff8(%r8),%rax
    1ddb:	48 83 e7 f8          	and    $0xfffffffffffffff8,%rdi
    1ddf:	49 89 84 24 f8 0f 00 	mov    %rax,0xff8(%r12)
    1de6:	00 
    1de7:	4c 89 e0             	mov    %r12,%rax
    1dea:	48 29 f8             	sub    %rdi,%rax
    1ded:	48 29 c6             	sub    %rax,%rsi
    1df0:	05 00 10 00 00       	add    $0x1000,%eax
    1df5:	c1 e8 03             	shr    $0x3,%eax
    1df8:	89 c1                	mov    %eax,%ecx
    1dfa:	31 c0                	xor    %eax,%eax
    1dfc:	f3 48 a5             	rep movsq %ds:(%rsi),%es:(%rdi)
    1dff:	90                   	nop
    1e00:	41 0f bf 14 01       	movswl (%r9,%rax,1),%edx
    1e05:	66 0f ef c9          	pxor   %xmm1,%xmm1
    1e09:	f3 41 0f 10 14 40    	movss  (%r8,%rax,2),%xmm2
    1e0f:	f2 0f 2a ca          	cvtsi2sd %edx,%xmm1
    1e13:	f2 0f 59 cd          	mulsd  %xmm5,%xmm1
    1e17:	f2 0f 59 cc          	mulsd  %xmm4,%xmm1
    1e1b:	f2 0f 5a c9          	cvtsd2ss %xmm1,%xmm1
    1e1f:	f3 0f 5c d1          	subss  %xmm1,%xmm2
    1e23:	f3 41 0f 11 4c 45 00 	movss  %xmm1,0x0(%r13,%rax,2)
    1e2a:	48 83 c0 02          	add    $0x2,%rax
    1e2e:	0f 54 d3             	andps  %xmm3,%xmm2
    1e31:	f3 0f 5f d0          	maxss  %xmm0,%xmm2
    1e35:	0f 28 c2             	movaps %xmm2,%xmm0
    1e38:	48 3d 00 08 00 00    	cmp    $0x800,%rax
    1e3e:	75 c0                	jne    1e00 <dump2_goldendiff2_q15.constprop.0+0xd0>
    1e40:	66 0f ef c0          	pxor   %xmm0,%xmm0
    1e44:	f2 0f 10 0d dc 74 01 	movsd  0x174dc(%rip),%xmm1        # 19328 <test_fft_Input_f64_1024+0x20c8>
    1e4b:	00 
    1e4c:	48 8d 15 c6 51 00 00 	lea    0x51c6(%rip),%rdx        # 7019 <_IO_stdin_used+0x19>
    1e53:	48 8d 35 ca 51 00 00 	lea    0x51ca(%rip),%rsi        # 7024 <_IO_stdin_used+0x24>
    1e5a:	f3 0f 5a c2          	cvtss2sd %xmm2,%xmm0
    1e5e:	bf 01 00 00 00       	mov    $0x1,%edi
    1e63:	b8 01 00 00 00       	mov    $0x1,%eax
    1e68:	f2 0f 59 c8          	mulsd  %xmm0,%xmm1
    1e6c:	f2 0f 2c c9          	cvttsd2si %xmm1,%ecx
    1e70:	0f bf c9             	movswl %cx,%ecx
    1e73:	e8 98 f2 ff ff       	call   1110 <__printf_chk@plt>
    1e78:	31 c9                	xor    %ecx,%ecx
    1e7a:	ba 00 04 00 00       	mov    $0x400,%edx
    1e7f:	4c 89 ee             	mov    %r13,%rsi
    1e82:	4c 89 e7             	mov    %r12,%rdi
    1e85:	e8 96 fc ff ff       	call   1b20 <dump_rmsd2.constprop.0>
    1e8a:	48 8b 45 e8          	mov    -0x18(%rbp),%rax
    1e8e:	64 48 2b 04 25 28 00 	sub    %fs:0x28,%rax
    1e95:	00 00 
    1e97:	75 0a                	jne    1ea3 <dump2_goldendiff2_q15.constprop.0+0x173>
    1e99:	48 8d 65 f0          	lea    -0x10(%rbp),%rsp
    1e9d:	41 5c                	pop    %r12
    1e9f:	41 5d                	pop    %r13
    1ea1:	5d                   	pop    %rbp
    1ea2:	c3                   	ret    
    1ea3:	e8 48 f2 ff ff       	call   10f0 <__stack_chk_fail@plt>
    1ea8:	0f 1f 84 00 00 00 00 	nopl   0x0(%rax,%rax,1)
    1eaf:	00 

0000000000001eb0 <dump2_inv_goldendiff_q15.constprop.0>:
    1eb0:	55                   	push   %rbp
    1eb1:	49 89 f8             	mov    %rdi,%r8
    1eb4:	49 89 f1             	mov    %rsi,%r9
    1eb7:	48 89 e5             	mov    %rsp,%rbp
    1eba:	41 55                	push   %r13
    1ebc:	41 54                	push   %r12
    1ebe:	48 83 ec 10          	sub    $0x10,%rsp
    1ec2:	64 48 8b 04 25 28 00 	mov    %fs:0x28,%rax
    1ec9:	00 00 
    1ecb:	48 89 45 e8          	mov    %rax,-0x18(%rbp)
    1ecf:	31 c0                	xor    %eax,%eax
    1ed1:	48 8d 84 24 00 f0 ff 	lea    -0x1000(%rsp),%rax
    1ed8:	ff 
    1ed9:	48 39 c4             	cmp    %rax,%rsp
    1edc:	74 15                	je     1ef3 <dump2_inv_goldendiff_q15.constprop.0+0x43>
    1ede:	48 81 ec 00 10 00 00 	sub    $0x1000,%rsp
    1ee5:	48 83 8c 24 f8 0f 00 	orq    $0x0,0xff8(%rsp)
    1eec:	00 00 
    1eee:	48 39 c4             	cmp    %rax,%rsp
    1ef1:	75 eb                	jne    1ede <dump2_inv_goldendiff_q15.constprop.0+0x2e>
    1ef3:	49 89 e5             	mov    %rsp,%r13
    1ef6:	48 8d 84 24 00 f0 ff 	lea    -0x1000(%rsp),%rax
    1efd:	ff 
    1efe:	48 39 c4             	cmp    %rax,%rsp
    1f01:	74 12                	je     1f15 <dump2_inv_goldendiff_q15.constprop.0+0x65>
    1f03:	48 81 ec 00 10 00 00 	sub    $0x1000,%rsp
    1f0a:	48 83 8c 24 f8 0f 00 	orq    $0x0,0xff8(%rsp)
    1f11:	00 00 
    1f13:	eb e9                	jmp    1efe <dump2_inv_goldendiff_q15.constprop.0+0x4e>
    1f15:	f2 0f 10 25 fb 73 01 	movsd  0x173fb(%rip),%xmm4        # 19318 <test_fft_Input_f64_1024+0x20b8>
    1f1c:	00 
    1f1d:	66 0f ef c0          	pxor   %xmm0,%xmm0
    1f21:	f3 0f 10 1d 47 73 01 	movss  0x17347(%rip),%xmm3        # 19270 <test_fft_Input_f64_1024+0x2010>
    1f28:	00 
    1f29:	49 8b 10             	mov    (%r8),%rdx
    1f2c:	4c 8d 64 24 03       	lea    0x3(%rsp),%r12
    1f31:	4c 89 c6             	mov    %r8,%rsi
    1f34:	4c 89 e0             	mov    %r12,%rax
    1f37:	49 83 e4 fc          	and    $0xfffffffffffffffc,%r12
    1f3b:	48 c1 e8 02          	shr    $0x2,%rax
    1f3f:	49 8d 7c 24 08       	lea    0x8(%r12),%rdi
    1f44:	48 89 14 85 00 00 00 	mov    %rdx,0x0(,%rax,4)
    1f4b:	00 
    1f4c:	49 8b 80 f8 0f 00 00 	mov    0xff8(%r8),%rax
    1f53:	48 83 e7 f8          	and    $0xfffffffffffffff8,%rdi
    1f57:	49 89 84 24 f8 0f 00 	mov    %rax,0xff8(%r12)
    1f5e:	00 
    1f5f:	4c 89 e0             	mov    %r12,%rax
    1f62:	48 29 f8             	sub    %rdi,%rax
    1f65:	48 29 c6             	sub    %rax,%rsi
    1f68:	05 00 10 00 00       	add    $0x1000,%eax
    1f6d:	c1 e8 03             	shr    $0x3,%eax
    1f70:	89 c1                	mov    %eax,%ecx
    1f72:	31 c0                	xor    %eax,%eax
    1f74:	f3 48 a5             	rep movsq %ds:(%rsi),%es:(%rdi)
    1f77:	66 0f 1f 84 00 00 00 	nopw   0x0(%rax,%rax,1)
    1f7e:	00 00 
    1f80:	41 0f bf 14 01       	movswl (%r9,%rax,1),%edx
    1f85:	66 0f ef c9          	pxor   %xmm1,%xmm1
    1f89:	f3 41 0f 10 14 40    	movss  (%r8,%rax,2),%xmm2
    1f8f:	f2 0f 2a ca          	cvtsi2sd %edx,%xmm1
    1f93:	f2 0f 59 cc          	mulsd  %xmm4,%xmm1
    1f97:	f2 0f 58 c9          	addsd  %xmm1,%xmm1
    1f9b:	f2 0f 5a c9          	cvtsd2ss %xmm1,%xmm1
    1f9f:	f3 0f 5c d1          	subss  %xmm1,%xmm2
    1fa3:	f3 41 0f 11 4c 45 00 	movss  %xmm1,0x0(%r13,%rax,2)
    1faa:	48 83 c0 02          	add    $0x2,%rax
    1fae:	0f 54 d3             	andps  %xmm3,%xmm2
    1fb1:	f3 0f 5f d0          	maxss  %xmm0,%xmm2
    1fb5:	0f 28 c2             	movaps %xmm2,%xmm0
    1fb8:	48 3d 00 08 00 00    	cmp    $0x800,%rax
    1fbe:	75 c0                	jne    1f80 <dump2_inv_goldendiff_q15.constprop.0+0xd0>
    1fc0:	66 0f ef c0          	pxor   %xmm0,%xmm0
    1fc4:	f2 0f 10 0d 5c 73 01 	movsd  0x1735c(%rip),%xmm1        # 19328 <test_fft_Input_f64_1024+0x20c8>
    1fcb:	00 
    1fcc:	48 8d 15 6e 50 00 00 	lea    0x506e(%rip),%rdx        # 7041 <_IO_stdin_used+0x41>
    1fd3:	48 8d 35 4a 50 00 00 	lea    0x504a(%rip),%rsi        # 7024 <_IO_stdin_used+0x24>
    1fda:	f3 0f 5a c2          	cvtss2sd %xmm2,%xmm0
    1fde:	bf 01 00 00 00       	mov    $0x1,%edi
    1fe3:	b8 01 00 00 00       	mov    $0x1,%eax
    1fe8:	f2 0f 59 c8          	mulsd  %xmm0,%xmm1
    1fec:	f2 0f 2c c9          	cvttsd2si %xmm1,%ecx
    1ff0:	0f bf c9             	movswl %cx,%ecx
    1ff3:	e8 18 f1 ff ff       	call   1110 <__printf_chk@plt>
    1ff8:	31 c9                	xor    %ecx,%ecx
    1ffa:	ba 00 04 00 00       	mov    $0x400,%edx
    1fff:	4c 89 ee             	mov    %r13,%rsi
    2002:	4c 89 e7             	mov    %r12,%rdi
    2005:	e8 16 fb ff ff       	call   1b20 <dump_rmsd2.constprop.0>
    200a:	48 8b 45 e8          	mov    -0x18(%rbp),%rax
    200e:	64 48 2b 04 25 28 00 	sub    %fs:0x28,%rax
    2015:	00 00 
    2017:	75 0a                	jne    2023 <dump2_inv_goldendiff_q15.constprop.0+0x173>
    2019:	48 8d 65 f0          	lea    -0x10(%rbp),%rsp
    201d:	41 5c                	pop    %r12
    201f:	41 5d                	pop    %r13
    2021:	5d                   	pop    %rbp
    2022:	c3                   	ret    
    2023:	e8 c8 f0 ff ff       	call   10f0 <__stack_chk_fail@plt>
    2028:	0f 1f 84 00 00 00 00 	nopl   0x0(%rax,%rax,1)
    202f:	00 

0000000000002030 <test_Fread.constprop.0.isra.0>:
    2030:	48 89 f1             	mov    %rsi,%rcx
    2033:	ba 00 04 00 00       	mov    $0x400,%edx
    2038:	be 04 00 00 00       	mov    $0x4,%esi
    203d:	e9 8e f0 ff ff       	jmp    10d0 <fread@plt>
    2042:	66 2e 0f 1f 84 00 00 	cs nopw 0x0(%rax,%rax,1)
    2049:	00 00 00 
    204c:	0f 1f 40 00          	nopl   0x0(%rax)

0000000000002050 <riscv_dsp_rfft_q15>:
    2050:	f3 0f 1e fa          	endbr64 
    2054:	41 57                	push   %r15
    2056:	41 56                	push   %r14
    2058:	41 55                	push   %r13
    205a:	41 54                	push   %r12
    205c:	55                   	push   %rbp
    205d:	89 f5                	mov    %esi,%ebp
    205f:	83 ee 01             	sub    $0x1,%esi
    2062:	53                   	push   %rbx
    2063:	48 89 fb             	mov    %rdi,%rbx
    2066:	48 83 ec 18          	sub    $0x18,%rsp
    206a:	e8 41 03 00 00       	call   23b0 <riscv_dsp_cfft_q15>
    206f:	41 b9 01 00 00 00    	mov    $0x1,%r9d
    2075:	89 e9                	mov    %ebp,%ecx
    2077:	41 d3 e1             	shl    %cl,%r9d
    207a:	41 c1 e9 02          	shr    $0x2,%r9d
    207e:	0f 84 4f 01 00 00    	je     21d3 <riscv_dsp_rfft_q15+0x183>
    2084:	b8 0a 00 00 00       	mov    $0xa,%eax
    2089:	43 8d 34 09          	lea    (%r9,%r9,1),%esi
    208d:	49 89 de             	mov    %rbx,%r14
    2090:	29 e8                	sub    %ebp,%eax
    2092:	49 89 f2             	mov    %rsi,%r10
    2095:	4c 8d 04 73          	lea    (%rbx,%rsi,2),%r8
    2099:	89 44 24 0c          	mov    %eax,0xc(%rsp)
    209d:	e9 a0 00 00 00       	jmp    2142 <riscv_dsp_rfft_q15+0xf2>
    20a2:	66 0f 1f 44 00 00    	nopw   0x0(%rax,%rax,1)
    20a8:	48 8d 1d d5 76 01 00 	lea    0x176d5(%rip),%rbx        # 19784 <riscv_dsp_cos_table_q15_1024+0x4>
    20af:	48 98                	cltq   
    20b1:	48 63 d2             	movslq %edx,%rdx
    20b4:	0f b7 04 43          	movzwl (%rbx,%rax,2),%eax
    20b8:	0f b7 3c 53          	movzwl (%rbx,%rdx,2),%edi
    20bc:	41 8d 52 01          	lea    0x1(%r10),%edx
    20c0:	41 0f bf 08          	movswl (%r8),%ecx
    20c4:	49 8d 1c 76          	lea    (%r14,%rsi,2),%rbx
    20c8:	98                   	cwtl   
    20c9:	4d 8d 1c 56          	lea    (%r14,%rdx,2),%r11
    20cd:	44 0f bf 2b          	movswl (%rbx),%r13d
    20d1:	41 0f bf 70 02       	movswl 0x2(%r8),%esi
    20d6:	0f bf ff             	movswl %di,%edi
    20d9:	41 0f bf 13          	movswl (%r11),%edx
    20dd:	89 cd                	mov    %ecx,%ebp
    20df:	41 89 ff             	mov    %edi,%r15d
    20e2:	49 83 e8 04          	sub    $0x4,%r8
    20e6:	44 29 ed             	sub    %r13d,%ebp
    20e9:	44 01 e9             	add    %r13d,%ecx
    20ec:	41 83 c2 02          	add    $0x2,%r10d
    20f0:	0f af fd             	imul   %ebp,%edi
    20f3:	44 8d 24 16          	lea    (%rsi,%rdx,1),%r12d
    20f7:	29 d6                	sub    %edx,%esi
    20f9:	89 c2                	mov    %eax,%edx
    20fb:	41 0f af c4          	imul   %r12d,%eax
    20ff:	c1 f9 02             	sar    $0x2,%ecx
    2102:	c1 fe 02             	sar    $0x2,%esi
    2105:	0f af d5             	imul   %ebp,%edx
    2108:	45 0f af fc          	imul   %r12d,%r15d
    210c:	29 f8                	sub    %edi,%eax
    210e:	c1 f8 11             	sar    $0x11,%eax
    2111:	8d 3c 08             	lea    (%rax,%rcx,1),%edi
    2114:	44 01 fa             	add    %r15d,%edx
    2117:	29 c1                	sub    %eax,%ecx
    2119:	66 41 89 78 04       	mov    %di,0x4(%r8)
    211e:	c1 fa 11             	sar    $0x11,%edx
    2121:	89 f7                	mov    %esi,%edi
    2123:	29 d7                	sub    %edx,%edi
    2125:	f7 da                	neg    %edx
    2127:	29 f2                	sub    %esi,%edx
    2129:	66 41 89 78 06       	mov    %di,0x6(%r8)
    212e:	66 89 0b             	mov    %cx,(%rbx)
    2131:	66 41 89 13          	mov    %dx,(%r11)
    2135:	41 83 e9 01          	sub    $0x1,%r9d
    2139:	0f 84 91 00 00 00    	je     21d0 <riscv_dsp_rfft_q15+0x180>
    213f:	44 89 d6             	mov    %r10d,%esi
    2142:	0f b6 4c 24 0c       	movzbl 0xc(%rsp),%ecx
    2147:	44 89 c8             	mov    %r9d,%eax
    214a:	ba 00 01 00 00       	mov    $0x100,%edx
    214f:	d3 e0                	shl    %cl,%eax
    2151:	29 c2                	sub    %eax,%edx
    2153:	85 d2                	test   %edx,%edx
    2155:	0f 8f 4d ff ff ff    	jg     20a8 <riscv_dsp_rfft_q15+0x58>
    215b:	8d 90 00 ff ff ff    	lea    -0x100(%rax),%edx
    2161:	b9 00 01 00 00       	mov    $0x100,%ecx
    2166:	29 d1                	sub    %edx,%ecx
    2168:	85 c9                	test   %ecx,%ecx
    216a:	7e 24                	jle    2190 <riscv_dsp_rfft_q15+0x140>
    216c:	48 8d 1d 11 76 01 00 	lea    0x17611(%rip),%rbx        # 19784 <riscv_dsp_cos_table_q15_1024+0x4>
    2173:	48 63 c9             	movslq %ecx,%rcx
    2176:	48 63 d2             	movslq %edx,%rdx
    2179:	0f b7 04 4b          	movzwl (%rbx,%rcx,2),%eax
    217d:	0f b7 3c 53          	movzwl (%rbx,%rdx,2),%edi
    2181:	f7 d8                	neg    %eax
    2183:	e9 34 ff ff ff       	jmp    20bc <riscv_dsp_rfft_q15+0x6c>
    2188:	0f 1f 84 00 00 00 00 	nopl   0x0(%rax,%rax,1)
    218f:	00 
    2190:	8d 90 00 fe ff ff    	lea    -0x200(%rax),%edx
    2196:	b9 00 01 00 00       	mov    $0x100,%ecx
    219b:	48 8d 1d e2 75 01 00 	lea    0x175e2(%rip),%rbx        # 19784 <riscv_dsp_cos_table_q15_1024+0x4>
    21a2:	29 d1                	sub    %edx,%ecx
    21a4:	48 63 d2             	movslq %edx,%rdx
    21a7:	0f b7 3c 53          	movzwl (%rbx,%rdx,2),%edi
    21ab:	48 63 c1             	movslq %ecx,%rax
    21ae:	0f b7 04 43          	movzwl (%rbx,%rax,2),%eax
    21b2:	f7 df                	neg    %edi
    21b4:	85 c9                	test   %ecx,%ecx
    21b6:	0f 8e 00 ff ff ff    	jle    20bc <riscv_dsp_rfft_q15+0x6c>
    21bc:	f7 d8                	neg    %eax
    21be:	89 c2                	mov    %eax,%edx
    21c0:	89 f8                	mov    %edi,%eax
    21c2:	89 d7                	mov    %edx,%edi
    21c4:	e9 f3 fe ff ff       	jmp    20bc <riscv_dsp_rfft_q15+0x6c>
    21c9:	0f 1f 80 00 00 00 00 	nopl   0x0(%rax)
    21d0:	4c 89 f3             	mov    %r14,%rbx
    21d3:	0f bf 03             	movswl (%rbx),%eax
    21d6:	0f bf 4b 02          	movswl 0x2(%rbx),%ecx
    21da:	8d 14 01             	lea    (%rcx,%rax,1),%edx
    21dd:	29 c8                	sub    %ecx,%eax
    21df:	d1 f8                	sar    %eax
    21e1:	d1 fa                	sar    %edx
    21e3:	66 89 43 02          	mov    %ax,0x2(%rbx)
    21e7:	31 c0                	xor    %eax,%eax
    21e9:	66 89 13             	mov    %dx,(%rbx)
    21ec:	48 83 c4 18          	add    $0x18,%rsp
    21f0:	5b                   	pop    %rbx
    21f1:	5d                   	pop    %rbp
    21f2:	41 5c                	pop    %r12
    21f4:	41 5d                	pop    %r13
    21f6:	41 5e                	pop    %r14
    21f8:	41 5f                	pop    %r15
    21fa:	c3                   	ret    
    21fb:	0f 1f 44 00 00       	nopl   0x0(%rax,%rax,1)

0000000000002200 <riscv_dsp_rifft_q15>:
    2200:	f3 0f 1e fa          	endbr64 
    2204:	41 57                	push   %r15
    2206:	41 b9 01 00 00 00    	mov    $0x1,%r9d
    220c:	89 f1                	mov    %esi,%ecx
    220e:	49 89 fb             	mov    %rdi,%r11
    2211:	41 56                	push   %r14
    2213:	41 d3 e1             	shl    %cl,%r9d
    2216:	41 55                	push   %r13
    2218:	41 54                	push   %r12
    221a:	55                   	push   %rbp
    221b:	53                   	push   %rbx
    221c:	48 83 ec 18          	sub    $0x18,%rsp
    2220:	41 c1 e9 02          	shr    $0x2,%r9d
    2224:	89 74 24 0c          	mov    %esi,0xc(%rsp)
    2228:	0f 84 42 01 00 00    	je     2370 <riscv_dsp_rifft_q15+0x170>
    222e:	b8 0a 00 00 00       	mov    $0xa,%eax
    2233:	43 8d 14 09          	lea    (%r9,%r9,1),%edx
    2237:	29 f0                	sub    %esi,%eax
    2239:	49 89 d2             	mov    %rdx,%r10
    223c:	48 8d 34 57          	lea    (%rdi,%rdx,2),%rsi
    2240:	89 44 24 08          	mov    %eax,0x8(%rsp)
    2244:	e9 9e 00 00 00       	jmp    22e7 <riscv_dsp_rifft_q15+0xe7>
    2249:	0f 1f 80 00 00 00 00 	nopl   0x0(%rax)
    2250:	48 8d 1d 2d 75 01 00 	lea    0x1752d(%rip),%rbx        # 19784 <riscv_dsp_cos_table_q15_1024+0x4>
    2257:	48 98                	cltq   
    2259:	48 63 c9             	movslq %ecx,%rcx
    225c:	0f b7 04 43          	movzwl (%rbx,%rax,2),%eax
    2260:	0f b7 0c 4b          	movzwl (%rbx,%rcx,2),%ecx
    2264:	41 8d 5a 01          	lea    0x1(%r10),%ebx
    2268:	44 0f bf 06          	movswl (%rsi),%r8d
    226c:	49 8d 2c 53          	lea    (%r11,%rdx,2),%rbp
    2270:	0f bf 7e 02          	movswl 0x2(%rsi),%edi
    2274:	49 8d 1c 5b          	lea    (%r11,%rbx,2),%rbx
    2278:	0f bf 55 00          	movswl 0x0(%rbp),%edx
    227c:	98                   	cwtl   
    227d:	0f bf c9             	movswl %cx,%ecx
    2280:	44 0f bf 23          	movswl (%rbx),%r12d
    2284:	45 89 c6             	mov    %r8d,%r14d
    2287:	41 89 cf             	mov    %ecx,%r15d
    228a:	48 83 ee 04          	sub    $0x4,%rsi
    228e:	41 29 d6             	sub    %edx,%r14d
    2291:	41 01 d0             	add    %edx,%r8d
    2294:	89 c2                	mov    %eax,%edx
    2296:	41 83 c2 02          	add    $0x2,%r10d
    229a:	45 0f af fe          	imul   %r14d,%r15d
    229e:	46 8d 2c 27          	lea    (%rdi,%r12,1),%r13d
    22a2:	44 29 e7             	sub    %r12d,%edi
    22a5:	41 0f af cd          	imul   %r13d,%ecx
    22a9:	41 0f af d5          	imul   %r13d,%edx
    22ad:	41 0f af c6          	imul   %r14d,%eax
    22b1:	44 01 fa             	add    %r15d,%edx
    22b4:	45 89 c7             	mov    %r8d,%r15d
    22b7:	29 c8                	sub    %ecx,%eax
    22b9:	c1 fa 0f             	sar    $0xf,%edx
    22bc:	c1 f8 0f             	sar    $0xf,%eax
    22bf:	41 29 d7             	sub    %edx,%r15d
    22c2:	44 01 c2             	add    %r8d,%edx
    22c5:	8d 0c 07             	lea    (%rdi,%rax,1),%ecx
    22c8:	29 f8                	sub    %edi,%eax
    22ca:	66 44 89 7e 04       	mov    %r15w,0x4(%rsi)
    22cf:	66 89 4e 06          	mov    %cx,0x6(%rsi)
    22d3:	66 89 55 00          	mov    %dx,0x0(%rbp)
    22d7:	66 89 03             	mov    %ax,(%rbx)
    22da:	41 83 e9 01          	sub    $0x1,%r9d
    22de:	0f 84 8c 00 00 00    	je     2370 <riscv_dsp_rifft_q15+0x170>
    22e4:	44 89 d2             	mov    %r10d,%edx
    22e7:	0f b6 4c 24 08       	movzbl 0x8(%rsp),%ecx
    22ec:	44 89 c8             	mov    %r9d,%eax
    22ef:	d3 e0                	shl    %cl,%eax
    22f1:	b9 00 01 00 00       	mov    $0x100,%ecx
    22f6:	29 c1                	sub    %eax,%ecx
    22f8:	85 c9                	test   %ecx,%ecx
    22fa:	0f 8f 50 ff ff ff    	jg     2250 <riscv_dsp_rifft_q15+0x50>
    2300:	8d 88 00 ff ff ff    	lea    -0x100(%rax),%ecx
    2306:	bf 00 01 00 00       	mov    $0x100,%edi
    230b:	29 cf                	sub    %ecx,%edi
    230d:	85 ff                	test   %edi,%edi
    230f:	7e 1f                	jle    2330 <riscv_dsp_rifft_q15+0x130>
    2311:	48 8d 1d 6c 74 01 00 	lea    0x1746c(%rip),%rbx        # 19784 <riscv_dsp_cos_table_q15_1024+0x4>
    2318:	48 63 ff             	movslq %edi,%rdi
    231b:	48 63 c9             	movslq %ecx,%rcx
    231e:	0f b7 04 7b          	movzwl (%rbx,%rdi,2),%eax
    2322:	0f b7 0c 4b          	movzwl (%rbx,%rcx,2),%ecx
    2326:	f7 d8                	neg    %eax
    2328:	e9 37 ff ff ff       	jmp    2264 <riscv_dsp_rifft_q15+0x64>
    232d:	0f 1f 00             	nopl   (%rax)
    2330:	8d 88 00 fe ff ff    	lea    -0x200(%rax),%ecx
    2336:	bf 00 01 00 00       	mov    $0x100,%edi
    233b:	48 8d 1d 42 74 01 00 	lea    0x17442(%rip),%rbx        # 19784 <riscv_dsp_cos_table_q15_1024+0x4>
    2342:	29 cf                	sub    %ecx,%edi
    2344:	48 63 c9             	movslq %ecx,%rcx
    2347:	0f b7 0c 4b          	movzwl (%rbx,%rcx,2),%ecx
    234b:	48 63 c7             	movslq %edi,%rax
    234e:	0f b7 04 43          	movzwl (%rbx,%rax,2),%eax
    2352:	f7 d9                	neg    %ecx
    2354:	85 ff                	test   %edi,%edi
    2356:	0f 8e 08 ff ff ff    	jle    2264 <riscv_dsp_rifft_q15+0x64>
    235c:	f7 d8                	neg    %eax
    235e:	89 c7                	mov    %eax,%edi
    2360:	89 c8                	mov    %ecx,%eax
    2362:	89 f9                	mov    %edi,%ecx
    2364:	e9 fb fe ff ff       	jmp    2264 <riscv_dsp_rifft_q15+0x64>
    2369:	0f 1f 80 00 00 00 00 	nopl   0x0(%rax)
    2370:	41 0f b7 03          	movzwl (%r11),%eax
    2374:	41 0f b7 53 02       	movzwl 0x2(%r11),%edx
    2379:	4c 89 df             	mov    %r11,%rdi
    237c:	8b 74 24 0c          	mov    0xc(%rsp),%esi
    2380:	01 c2                	add    %eax,%edx
    2382:	66 41 2b 43 02       	sub    0x2(%r11),%ax
    2387:	66 41 89 13          	mov    %dx,(%r11)
    238b:	83 ee 01             	sub    $0x1,%esi
    238e:	66 41 89 43 02       	mov    %ax,0x2(%r11)
    2393:	e8 48 00 00 00       	call   23e0 <riscv_dsp_cifft_q15>
    2398:	48 83 c4 18          	add    $0x18,%rsp
    239c:	31 c0                	xor    %eax,%eax
    239e:	5b                   	pop    %rbx
    239f:	5d                   	pop    %rbp
    23a0:	41 5c                	pop    %r12
    23a2:	41 5d                	pop    %r13
    23a4:	41 5e                	pop    %r14
    23a6:	41 5f                	pop    %r15
    23a8:	c3                   	ret    
    23a9:	0f 1f 80 00 00 00 00 	nopl   0x0(%rax)

00000000000023b0 <riscv_dsp_cfft_q15>:
    23b0:	f3 0f 1e fa          	endbr64 
    23b4:	83 fe 0e             	cmp    $0xe,%esi
    23b7:	77 17                	ja     23d0 <riscv_dsp_cfft_q15+0x20>
    23b9:	b8 50 55 00 00       	mov    $0x5550,%eax
    23be:	48 0f a3 f0          	bt     %rsi,%rax
    23c2:	73 0c                	jae    23d0 <riscv_dsp_cfft_q15+0x20>
    23c4:	e9 d7 1d 00 00       	jmp    41a0 <riscv_dsp_cfft_rd4_q15>
    23c9:	0f 1f 80 00 00 00 00 	nopl   0x0(%rax)
    23d0:	e9 3b 00 00 00       	jmp    2410 <riscv_dsp_cfft_rd2_q15>
    23d5:	66 2e 0f 1f 84 00 00 	cs nopw 0x0(%rax,%rax,1)
    23dc:	00 00 00 
    23df:	90                   	nop

00000000000023e0 <riscv_dsp_cifft_q15>:
    23e0:	f3 0f 1e fa          	endbr64 
    23e4:	83 fe 0e             	cmp    $0xe,%esi
    23e7:	77 17                	ja     2400 <riscv_dsp_cifft_q15+0x20>
    23e9:	b8 50 55 00 00       	mov    $0x5550,%eax
    23ee:	48 0f a3 f0          	bt     %rsi,%rax
    23f2:	73 0c                	jae    2400 <riscv_dsp_cifft_q15+0x20>
    23f4:	e9 c7 31 00 00       	jmp    55c0 <riscv_dsp_cifft_rd4_q15>
    23f9:	0f 1f 80 00 00 00 00 	nopl   0x0(%rax)
    2400:	e9 ab 09 00 00       	jmp    2db0 <riscv_dsp_cifft_rd2_q15>
    2405:	66 2e 0f 1f 84 00 00 	cs nopw 0x0(%rax,%rax,1)
    240c:	00 00 00 
    240f:	90                   	nop

0000000000002410 <riscv_dsp_cfft_rd2_q15>:
    2410:	f3 0f 1e fa          	endbr64 
    2414:	89 f1                	mov    %esi,%ecx
    2416:	b8 01 00 00 00       	mov    $0x1,%eax
    241b:	41 57                	push   %r15
    241d:	d3 e0                	shl    %cl,%eax
    241f:	41 56                	push   %r14
    2421:	41 55                	push   %r13
    2423:	41 89 c3             	mov    %eax,%r11d
    2426:	41 54                	push   %r12
    2428:	4d 01 db             	add    %r11,%r11
    242b:	55                   	push   %rbp
    242c:	4e 8d 34 1f          	lea    (%rdi,%r11,1),%r14
    2430:	53                   	push   %rbx
    2431:	48 89 fb             	mov    %rdi,%rbx
    2434:	41 0f b7 4e 02       	movzwl 0x2(%r14),%ecx
    2439:	66 d1 f9             	sar    %cx
    243c:	48 89 7c 24 d8       	mov    %rdi,-0x28(%rsp)
    2441:	0f bf c9             	movswl %cx,%ecx
    2444:	89 44 24 f4          	mov    %eax,-0xc(%rsp)
    2448:	0f b7 47 02          	movzwl 0x2(%rdi),%eax
    244c:	0f b7 3f             	movzwl (%rdi),%edi
    244f:	89 74 24 f0          	mov    %esi,-0x10(%rsp)
    2453:	41 0f b7 36          	movzwl (%r14),%esi
    2457:	66 d1 f8             	sar    %ax
    245a:	89 fa                	mov    %edi,%edx
    245c:	66 89 7c 24 c8       	mov    %di,-0x38(%rsp)
    2461:	98                   	cwtl   
    2462:	66 d1 fa             	sar    %dx
    2465:	66 d1 fe             	sar    %si
    2468:	0f bf d2             	movswl %dx,%edx
    246b:	0f bf f6             	movswl %si,%esi
    246e:	8d 3c 32             	lea    (%rdx,%rsi,1),%edi
    2471:	29 f2                	sub    %esi,%edx
    2473:	d1 ff                	sar    %edi
    2475:	d1 fa                	sar    %edx
    2477:	66 89 3b             	mov    %di,(%rbx)
    247a:	8d 3c 08             	lea    (%rax,%rcx,1),%edi
    247d:	29 c8                	sub    %ecx,%eax
    247f:	d1 f8                	sar    %eax
    2481:	d1 ff                	sar    %edi
    2483:	66 89 7b 02          	mov    %di,0x2(%rbx)
    2487:	66 41 89 46 02       	mov    %ax,0x2(%r14)
    248c:	48 8d 43 04          	lea    0x4(%rbx),%rax
    2490:	66 41 89 16          	mov    %dx,(%r14)
    2494:	48 89 44 24 e0       	mov    %rax,-0x20(%rsp)
    2499:	49 39 c6             	cmp    %rax,%r14
    249c:	0f 84 20 01 00 00    	je     25c2 <riscv_dsp_cfft_rd2_q15+0x1b2>
    24a2:	b9 0a 00 00 00       	mov    $0xa,%ecx
    24a7:	48 89 c2             	mov    %rax,%rdx
    24aa:	2b 4c 24 f0          	sub    -0x10(%rsp),%ecx
    24ae:	31 db                	xor    %ebx,%ebx
    24b0:	4c 8d 25 cd 72 01 00 	lea    0x172cd(%rip),%r12        # 19784 <riscv_dsp_cos_table_q15_1024+0x4>
    24b7:	41 bd 00 01 00 00    	mov    $0x100,%r13d
    24bd:	e9 91 00 00 00       	jmp    2553 <riscv_dsp_cfft_rd2_q15+0x143>
    24c2:	48 98                	cltq   
    24c4:	48 63 f6             	movslq %esi,%rsi
    24c7:	41 0f b7 04 44       	movzwl (%r12,%rax,2),%eax
    24cc:	45 0f b7 04 74       	movzwl (%r12,%rsi,2),%r8d
    24d1:	0f b7 3a             	movzwl (%rdx),%edi
    24d4:	42 0f b7 2c 1a       	movzwl (%rdx,%r11,1),%ebp
    24d9:	98                   	cwtl   
    24da:	45 0f bf c0          	movswl %r8w,%r8d
    24de:	0f b7 72 02          	movzwl 0x2(%rdx),%esi
    24e2:	46 0f b7 4c 1a 02    	movzwl 0x2(%rdx,%r11,1),%r9d
    24e8:	48 83 c2 04          	add    $0x4,%rdx
    24ec:	66 d1 ff             	sar    %di
    24ef:	66 d1 fd             	sar    %bp
    24f2:	66 d1 fe             	sar    %si
    24f5:	0f bf ff             	movswl %di,%edi
    24f8:	0f bf ed             	movswl %bp,%ebp
    24fb:	66 41 d1 f9          	sar    %r9w
    24ff:	41 89 fa             	mov    %edi,%r10d
    2502:	01 ef                	add    %ebp,%edi
    2504:	45 0f bf c9          	movswl %r9w,%r9d
    2508:	0f bf f6             	movswl %si,%esi
    250b:	d1 ff                	sar    %edi
    250d:	41 29 ea             	sub    %ebp,%r10d
    2510:	66 89 7a fc          	mov    %di,-0x4(%rdx)
    2514:	89 f7                	mov    %esi,%edi
    2516:	44 01 ce             	add    %r9d,%esi
    2519:	d1 fe                	sar    %esi
    251b:	44 29 cf             	sub    %r9d,%edi
    251e:	45 89 c1             	mov    %r8d,%r9d
    2521:	66 89 72 fe          	mov    %si,-0x2(%rdx)
    2525:	89 c6                	mov    %eax,%esi
    2527:	44 0f af cf          	imul   %edi,%r9d
    252b:	41 0f af f2          	imul   %r10d,%esi
    252f:	0f af c7             	imul   %edi,%eax
    2532:	45 0f af c2          	imul   %r10d,%r8d
    2536:	44 01 ce             	add    %r9d,%esi
    2539:	c1 fe 10             	sar    $0x10,%esi
    253c:	44 29 c0             	sub    %r8d,%eax
    253f:	66 42 89 74 1a fc    	mov    %si,-0x4(%rdx,%r11,1)
    2545:	c1 f8 10             	sar    $0x10,%eax
    2548:	66 42 89 44 1a fe    	mov    %ax,-0x2(%rdx,%r11,1)
    254e:	49 39 d6             	cmp    %rdx,%r14
    2551:	74 6f                	je     25c2 <riscv_dsp_cfft_rd2_q15+0x1b2>
    2553:	83 c3 01             	add    $0x1,%ebx
    2556:	44 89 ee             	mov    %r13d,%esi
    2559:	89 d8                	mov    %ebx,%eax
    255b:	d3 e0                	shl    %cl,%eax
    255d:	29 c6                	sub    %eax,%esi
    255f:	85 f6                	test   %esi,%esi
    2561:	0f 8f 5b ff ff ff    	jg     24c2 <riscv_dsp_cfft_rd2_q15+0xb2>
    2567:	8d b0 00 ff ff ff    	lea    -0x100(%rax),%esi
    256d:	44 89 ef             	mov    %r13d,%edi
    2570:	29 f7                	sub    %esi,%edi
    2572:	85 ff                	test   %edi,%edi
    2574:	7e 17                	jle    258d <riscv_dsp_cfft_rd2_q15+0x17d>
    2576:	48 63 ff             	movslq %edi,%rdi
    2579:	48 63 f6             	movslq %esi,%rsi
    257c:	41 0f b7 04 7c       	movzwl (%r12,%rdi,2),%eax
    2581:	45 0f b7 04 74       	movzwl (%r12,%rsi,2),%r8d
    2586:	f7 d8                	neg    %eax
    2588:	e9 44 ff ff ff       	jmp    24d1 <riscv_dsp_cfft_rd2_q15+0xc1>
    258d:	8d b0 00 fe ff ff    	lea    -0x200(%rax),%esi
    2593:	44 89 ef             	mov    %r13d,%edi
    2596:	29 f7                	sub    %esi,%edi
    2598:	48 63 f6             	movslq %esi,%rsi
    259b:	45 0f b7 04 74       	movzwl (%r12,%rsi,2),%r8d
    25a0:	48 63 c7             	movslq %edi,%rax
    25a3:	41 0f b7 04 44       	movzwl (%r12,%rax,2),%eax
    25a8:	41 f7 d8             	neg    %r8d
    25ab:	85 ff                	test   %edi,%edi
    25ad:	0f 8e 1e ff ff ff    	jle    24d1 <riscv_dsp_cfft_rd2_q15+0xc1>
    25b3:	f7 d8                	neg    %eax
    25b5:	89 c6                	mov    %eax,%esi
    25b7:	44 89 c0             	mov    %r8d,%eax
    25ba:	41 89 f0             	mov    %esi,%r8d
    25bd:	e9 0f ff ff ff       	jmp    24d1 <riscv_dsp_cfft_rd2_q15+0xc1>
    25c2:	8b 44 24 f4          	mov    -0xc(%rsp),%eax
    25c6:	8b 7c 24 f0          	mov    -0x10(%rsp),%edi
    25ca:	bb 02 00 00 00       	mov    $0x2,%ebx
    25cf:	89 44 24 e8          	mov    %eax,-0x18(%rsp)
    25d3:	89 f8                	mov    %edi,%eax
    25d5:	83 e8 02             	sub    $0x2,%eax
    25d8:	89 44 24 ec          	mov    %eax,-0x14(%rsp)
    25dc:	0f 84 86 03 00 00    	je     2968 <riscv_dsp_cfft_rd2_q15+0x558>
    25e2:	b8 0a 00 00 00       	mov    $0xa,%eax
    25e7:	66 0f ef ed          	pxor   %xmm5,%xmm5
    25eb:	4c 8d 25 92 71 01 00 	lea    0x17192(%rip),%r12        # 19784 <riscv_dsp_cos_table_q15_1024+0x4>
    25f2:	41 bd 00 01 00 00    	mov    $0x100,%r13d
    25f8:	29 f8                	sub    %edi,%eax
    25fa:	89 44 24 d4          	mov    %eax,-0x2c(%rsp)
    25fe:	66 90                	xchg   %ax,%ax
    2600:	d1 6c 24 e8          	shrl   -0x18(%rsp)
    2604:	44 8b 54 24 e8       	mov    -0x18(%rsp),%r10d
    2609:	48 8b 44 24 d8       	mov    -0x28(%rsp),%rax
    260e:	4b 8d 3c 12          	lea    (%r10,%r10,1),%rdi
    2612:	48 01 f8             	add    %rdi,%rax
    2615:	48 89 44 24 c8       	mov    %rax,-0x38(%rsp)
    261a:	85 db                	test   %ebx,%ebx
    261c:	0f 84 6d 02 00 00    	je     288f <riscv_dsp_cfft_rd2_q15+0x47f>
    2622:	4a 8d 34 17          	lea    (%rdi,%r10,1),%rsi
    2626:	44 8d 73 ff          	lea    -0x1(%rbx),%r14d
    262a:	48 c1 e6 02          	shl    $0x2,%rsi
    262e:	48 85 ff             	test   %rdi,%rdi
    2631:	4a 8d 04 95 00 00 00 	lea    0x0(,%r10,4),%rax
    2638:	00 
    2639:	0f 95 c1             	setne  %cl
    263c:	41 83 fe 02          	cmp    $0x2,%r14d
    2640:	0f 97 c2             	seta   %dl
    2643:	21 ca                	and    %ecx,%edx
    2645:	48 83 f8 03          	cmp    $0x3,%rax
    2649:	0f 97 c1             	seta   %cl
    264c:	84 ca                	test   %cl,%dl
    264e:	0f 84 f0 06 00 00    	je     2d44 <riscv_dsp_cfft_rd2_q15+0x934>
    2654:	48 8d 56 02          	lea    0x2(%rsi),%rdx
    2658:	48 39 d7             	cmp    %rdx,%rdi
    265b:	0f 8e e3 06 00 00    	jle    2d44 <riscv_dsp_cfft_rd2_q15+0x934>
    2661:	41 89 db             	mov    %ebx,%r11d
    2664:	4d 89 d1             	mov    %r10,%r9
    2667:	48 8b 4c 24 d8       	mov    -0x28(%rsp),%rcx
    266c:	48 8b 54 24 c8       	mov    -0x38(%rsp),%rdx
    2671:	41 c1 eb 02          	shr    $0x2,%r11d
    2675:	49 c1 e1 04          	shl    $0x4,%r9
    2679:	45 31 c0             	xor    %r8d,%r8d
    267c:	0f 1f 40 00          	nopl   0x0(%rax)
    2680:	66 0f 6e 3c 31       	movd   (%rcx,%rsi,1),%xmm7
    2685:	66 0f 6e 11          	movd   (%rcx),%xmm2
    2689:	66 0f 6f cd          	movdqa %xmm5,%xmm1
    268d:	41 83 c0 01          	add    $0x1,%r8d
    2691:	66 0f 6e 34 01       	movd   (%rcx,%rax,1),%xmm6
    2696:	66 0f 6e 04 41       	movd   (%rcx,%rax,2),%xmm0
    269b:	66 0f 6e 24 42       	movd   (%rdx,%rax,2),%xmm4
    26a0:	66 0f 62 c7          	punpckldq %xmm7,%xmm0
    26a4:	66 0f 62 d6          	punpckldq %xmm6,%xmm2
    26a8:	66 0f 6e 3c 32       	movd   (%rdx,%rsi,1),%xmm7
    26ad:	66 0f 6e 34 02       	movd   (%rdx,%rax,1),%xmm6
    26b2:	66 0f 6c d0          	punpcklqdq %xmm0,%xmm2
    26b6:	66 0f 65 ca          	pcmpgtw %xmm2,%xmm1
    26ba:	66 0f 6f c2          	movdqa %xmm2,%xmm0
    26be:	66 0f 6f da          	movdqa %xmm2,%xmm3
    26c2:	66 0f 62 e7          	punpckldq %xmm7,%xmm4
    26c6:	66 0f 61 c1          	punpcklwd %xmm1,%xmm0
    26ca:	66 0f 69 d9          	punpckhwd %xmm1,%xmm3
    26ce:	66 0f 6e 0a          	movd   (%rdx),%xmm1
    26d2:	66 0f 62 ce          	punpckldq %xmm6,%xmm1
    26d6:	66 0f 6c cc          	punpcklqdq %xmm4,%xmm1
    26da:	66 0f 6f e5          	movdqa %xmm5,%xmm4
    26de:	66 0f 65 e1          	pcmpgtw %xmm1,%xmm4
    26e2:	66 0f 6f f1          	movdqa %xmm1,%xmm6
    26e6:	66 0f 6f d1          	movdqa %xmm1,%xmm2
    26ea:	66 0f 6f c8          	movdqa %xmm0,%xmm1
    26ee:	66 0f 69 d4          	punpckhwd %xmm4,%xmm2
    26f2:	66 0f 61 f4          	punpcklwd %xmm4,%xmm6
    26f6:	66 0f 6f e3          	movdqa %xmm3,%xmm4
    26fa:	66 0f fe e2          	paddd  %xmm2,%xmm4
    26fe:	66 0f fa da          	psubd  %xmm2,%xmm3
    2702:	66 0f fe ce          	paddd  %xmm6,%xmm1
    2706:	66 0f 72 e4 01       	psrad  $0x1,%xmm4
    270b:	66 0f fa c6          	psubd  %xmm6,%xmm0
    270f:	66 0f 72 e1 01       	psrad  $0x1,%xmm1
    2714:	66 0f 72 e3 01       	psrad  $0x1,%xmm3
    2719:	66 0f 6f d3          	movdqa %xmm3,%xmm2
    271d:	66 0f 72 e0 01       	psrad  $0x1,%xmm0
    2722:	66 0f 6f f9          	movdqa %xmm1,%xmm7
    2726:	66 0f 61 cc          	punpcklwd %xmm4,%xmm1
    272a:	66 0f 69 fc          	punpckhwd %xmm4,%xmm7
    272e:	66 0f 6f d8          	movdqa %xmm0,%xmm3
    2732:	66 0f 6f e1          	movdqa %xmm1,%xmm4
    2736:	66 0f 61 c2          	punpcklwd %xmm2,%xmm0
    273a:	66 0f 69 da          	punpckhwd %xmm2,%xmm3
    273e:	66 0f 69 e7          	punpckhwd %xmm7,%xmm4
    2742:	66 0f 6f d0          	movdqa %xmm0,%xmm2
    2746:	66 0f 61 cf          	punpcklwd %xmm7,%xmm1
    274a:	66 0f 61 cc          	punpcklwd %xmm4,%xmm1
    274e:	66 0f 69 d3          	punpckhwd %xmm3,%xmm2
    2752:	66 0f 61 c3          	punpcklwd %xmm3,%xmm0
    2756:	66 0f 61 c2          	punpcklwd %xmm2,%xmm0
    275a:	66 0f 70 d1 55       	pshufd $0x55,%xmm1,%xmm2
    275f:	66 0f 7e 09          	movd   %xmm1,(%rcx)
    2763:	66 0f 7e 14 01       	movd   %xmm2,(%rcx,%rax,1)
    2768:	66 0f 6f d1          	movdqa %xmm1,%xmm2
    276c:	66 0f 6a d1          	punpckhdq %xmm1,%xmm2
    2770:	66 0f 70 c9 ff       	pshufd $0xff,%xmm1,%xmm1
    2775:	66 0f 7e 14 41       	movd   %xmm2,(%rcx,%rax,2)
    277a:	66 0f 7e 0c 31       	movd   %xmm1,(%rcx,%rsi,1)
    277f:	66 0f 70 c8 55       	pshufd $0x55,%xmm0,%xmm1
    2784:	4c 01 c9             	add    %r9,%rcx
    2787:	66 0f 7e 02          	movd   %xmm0,(%rdx)
    278b:	66 0f 7e 0c 02       	movd   %xmm1,(%rdx,%rax,1)
    2790:	66 0f 6f c8          	movdqa %xmm0,%xmm1
    2794:	66 0f 6a c8          	punpckhdq %xmm0,%xmm1
    2798:	66 0f 70 c0 ff       	pshufd $0xff,%xmm0,%xmm0
    279d:	66 0f 7e 0c 42       	movd   %xmm1,(%rdx,%rax,2)
    27a2:	66 0f 7e 04 32       	movd   %xmm0,(%rdx,%rsi,1)
    27a7:	4c 01 ca             	add    %r9,%rdx
    27aa:	45 39 d8             	cmp    %r11d,%r8d
    27ad:	0f 85 cd fe ff ff    	jne    2680 <riscv_dsp_cfft_rd2_q15+0x270>
    27b3:	41 89 d8             	mov    %ebx,%r8d
    27b6:	48 8b 74 24 d8       	mov    -0x28(%rsp),%rsi
    27bb:	41 83 e0 fc          	and    $0xfffffffc,%r8d
    27bf:	44 89 c0             	mov    %r8d,%eax
    27c2:	48 0f af c7          	imul   %rdi,%rax
    27c6:	48 8d 14 46          	lea    (%rsi,%rax,2),%rdx
    27ca:	44 39 c3             	cmp    %r8d,%ebx
    27cd:	0f 84 bc 00 00 00    	je     288f <riscv_dsp_cfft_rd2_q15+0x47f>
    27d3:	48 8d 04 3a          	lea    (%rdx,%rdi,1),%rax
    27d7:	0f bf 32             	movswl (%rdx),%esi
    27da:	0f bf 28             	movswl (%rax),%ebp
    27dd:	44 0f bf 48 02       	movswl 0x2(%rax),%r9d
    27e2:	8d 0c 2e             	lea    (%rsi,%rbp,1),%ecx
    27e5:	29 ee                	sub    %ebp,%esi
    27e7:	d1 f9                	sar    %ecx
    27e9:	d1 fe                	sar    %esi
    27eb:	66 89 0a             	mov    %cx,(%rdx)
    27ee:	0f bf 4a 02          	movswl 0x2(%rdx),%ecx
    27f2:	46 8d 1c 09          	lea    (%rcx,%r9,1),%r11d
    27f6:	44 29 c9             	sub    %r9d,%ecx
    27f9:	41 d1 fb             	sar    %r11d
    27fc:	d1 f9                	sar    %ecx
    27fe:	66 44 89 5a 02       	mov    %r11w,0x2(%rdx)
    2803:	45 89 f3             	mov    %r14d,%r11d
    2806:	66 89 30             	mov    %si,(%rax)
    2809:	66 89 48 02          	mov    %cx,0x2(%rax)
    280d:	48 01 f8             	add    %rdi,%rax
    2810:	45 29 c3             	sub    %r8d,%r11d
    2813:	74 7a                	je     288f <riscv_dsp_cfft_rd2_q15+0x47f>
    2815:	48 8d 14 38          	lea    (%rax,%rdi,1),%rdx
    2819:	0f bf 30             	movswl (%rax),%esi
    281c:	0f bf 2a             	movswl (%rdx),%ebp
    281f:	44 0f bf 42 02       	movswl 0x2(%rdx),%r8d
    2824:	8d 0c 2e             	lea    (%rsi,%rbp,1),%ecx
    2827:	29 ee                	sub    %ebp,%esi
    2829:	d1 f9                	sar    %ecx
    282b:	d1 fe                	sar    %esi
    282d:	66 89 08             	mov    %cx,(%rax)
    2830:	0f bf 48 02          	movswl 0x2(%rax),%ecx
    2834:	46 8d 0c 01          	lea    (%rcx,%r8,1),%r9d
    2838:	44 29 c1             	sub    %r8d,%ecx
    283b:	41 d1 f9             	sar    %r9d
    283e:	d1 f9                	sar    %ecx
    2840:	66 44 89 48 02       	mov    %r9w,0x2(%rax)
    2845:	66 89 32             	mov    %si,(%rdx)
    2848:	66 89 4a 02          	mov    %cx,0x2(%rdx)
    284c:	48 01 fa             	add    %rdi,%rdx
    284f:	41 83 fb 01          	cmp    $0x1,%r11d
    2853:	74 3a                	je     288f <riscv_dsp_cfft_rd2_q15+0x47f>
    2855:	48 8d 34 3a          	lea    (%rdx,%rdi,1),%rsi
    2859:	0f bf 0a             	movswl (%rdx),%ecx
    285c:	44 0f bf 1e          	movswl (%rsi),%r11d
    2860:	44 0f bf 46 02       	movswl 0x2(%rsi),%r8d
    2865:	41 8d 04 0b          	lea    (%r11,%rcx,1),%eax
    2869:	44 29 d9             	sub    %r11d,%ecx
    286c:	d1 f8                	sar    %eax
    286e:	d1 f9                	sar    %ecx
    2870:	66 89 02             	mov    %ax,(%rdx)
    2873:	0f bf 42 02          	movswl 0x2(%rdx),%eax
    2877:	45 8d 0c 00          	lea    (%r8,%rax,1),%r9d
    287b:	44 29 c0             	sub    %r8d,%eax
    287e:	41 d1 f9             	sar    %r9d
    2881:	d1 f8                	sar    %eax
    2883:	66 44 89 4a 02       	mov    %r9w,0x2(%rdx)
    2888:	66 89 0e             	mov    %cx,(%rsi)
    288b:	66 89 46 02          	mov    %ax,0x2(%rsi)
    288f:	48 8b 44 24 e0       	mov    -0x20(%rsp),%rax
    2894:	48 8b 74 24 c8       	mov    -0x38(%rsp),%rsi
    2899:	49 c1 e2 02          	shl    $0x2,%r10
    289d:	31 ed                	xor    %ebp,%ebp
    289f:	49 89 c3             	mov    %rax,%r11
    28a2:	48 39 f0             	cmp    %rsi,%rax
    28a5:	0f 84 b0 00 00 00    	je     295b <riscv_dsp_cfft_rd2_q15+0x54b>
    28ab:	0f 1f 44 00 00       	nopl   0x0(%rax,%rax,1)
    28b0:	0f b6 4c 24 d4       	movzbl -0x2c(%rsp),%ecx
    28b5:	01 dd                	add    %ebx,%ebp
    28b7:	44 89 ea             	mov    %r13d,%edx
    28ba:	89 e8                	mov    %ebp,%eax
    28bc:	d3 e0                	shl    %cl,%eax
    28be:	29 c2                	sub    %eax,%edx
    28c0:	85 d2                	test   %edx,%edx
    28c2:	0f 8e 20 04 00 00    	jle    2ce8 <riscv_dsp_cfft_rd2_q15+0x8d8>
    28c8:	48 98                	cltq   
    28ca:	48 63 d2             	movslq %edx,%rdx
    28cd:	45 0f b7 0c 44       	movzwl (%r12,%rax,2),%r9d
    28d2:	45 0f b7 34 54       	movzwl (%r12,%rdx,2),%r14d
    28d7:	85 db                	test   %ebx,%ebx
    28d9:	74 71                	je     294c <riscv_dsp_cfft_rd2_q15+0x53c>
    28db:	45 0f bf c9          	movswl %r9w,%r9d
    28df:	45 0f bf f6          	movswl %r14w,%r14d
    28e3:	4c 89 d8             	mov    %r11,%rax
    28e6:	41 89 d8             	mov    %ebx,%r8d
    28e9:	0f 1f 80 00 00 00 00 	nopl   0x0(%rax)
    28f0:	0f bf 10             	movswl (%rax),%edx
    28f3:	0f bf 0c 38          	movswl (%rax,%rdi,1),%ecx
    28f7:	44 0f bf 7c 38 02    	movswl 0x2(%rax,%rdi,1),%r15d
    28fd:	89 d6                	mov    %edx,%esi
    28ff:	01 ca                	add    %ecx,%edx
    2901:	29 ce                	sub    %ecx,%esi
    2903:	0f bf 48 02          	movswl 0x2(%rax),%ecx
    2907:	d1 fa                	sar    %edx
    2909:	66 89 10             	mov    %dx,(%rax)
    290c:	89 ca                	mov    %ecx,%edx
    290e:	44 01 f9             	add    %r15d,%ecx
    2911:	44 29 fa             	sub    %r15d,%edx
    2914:	d1 f9                	sar    %ecx
    2916:	66 89 48 02          	mov    %cx,0x2(%rax)
    291a:	41 89 d7             	mov    %edx,%r15d
    291d:	41 0f af d1          	imul   %r9d,%edx
    2921:	89 f1                	mov    %esi,%ecx
    2923:	41 0f af c9          	imul   %r9d,%ecx
    2927:	45 0f af fe          	imul   %r14d,%r15d
    292b:	41 0f af f6          	imul   %r14d,%esi
    292f:	44 01 f9             	add    %r15d,%ecx
    2932:	29 f2                	sub    %esi,%edx
    2934:	c1 f9 10             	sar    $0x10,%ecx
    2937:	c1 fa 10             	sar    $0x10,%edx
    293a:	66 89 0c 38          	mov    %cx,(%rax,%rdi,1)
    293e:	66 89 54 38 02       	mov    %dx,0x2(%rax,%rdi,1)
    2943:	4c 01 d0             	add    %r10,%rax
    2946:	41 83 e8 01          	sub    $0x1,%r8d
    294a:	75 a4                	jne    28f0 <riscv_dsp_cfft_rd2_q15+0x4e0>
    294c:	49 83 c3 04          	add    $0x4,%r11
    2950:	4c 39 5c 24 c8       	cmp    %r11,-0x38(%rsp)
    2955:	0f 85 55 ff ff ff    	jne    28b0 <riscv_dsp_cfft_rd2_q15+0x4a0>
    295b:	01 db                	add    %ebx,%ebx
    295d:	83 6c 24 ec 01       	subl   $0x1,-0x14(%rsp)
    2962:	0f 85 98 fc ff ff    	jne    2600 <riscv_dsp_cfft_rd2_q15+0x1f0>
    2968:	0f b6 4c 24 f0       	movzbl -0x10(%rsp),%ecx
    296d:	b8 02 00 00 00       	mov    $0x2,%eax
    2972:	d3 e0                	shl    %cl,%eax
    2974:	48 8d 34 00          	lea    (%rax,%rax,1),%rsi
    2978:	48 8b 44 24 d8       	mov    -0x28(%rsp),%rax
    297d:	48 8d 14 30          	lea    (%rax,%rsi,1),%rdx
    2981:	48 39 d0             	cmp    %rdx,%rax
    2984:	0f 84 b3 00 00 00    	je     2a3d <riscv_dsp_cfft_rd2_q15+0x62d>
    298a:	48 29 c2             	sub    %rax,%rdx
    298d:	66 0f ef e4          	pxor   %xmm4,%xmm4
    2991:	48 8d 4a f0          	lea    -0x10(%rdx),%rcx
    2995:	31 d2                	xor    %edx,%edx
    2997:	48 c1 e9 04          	shr    $0x4,%rcx
    299b:	48 83 c1 01          	add    $0x1,%rcx
    299f:	90                   	nop
    29a0:	f3 0f 6f 28          	movdqu (%rax),%xmm5
    29a4:	66 0f 6f cc          	movdqa %xmm4,%xmm1
    29a8:	66 0f 6f f4          	movdqa %xmm4,%xmm6
    29ac:	48 83 c2 01          	add    $0x1,%rdx
    29b0:	48 83 c0 10          	add    $0x10,%rax
    29b4:	66 0f 70 c5 a0       	pshufd $0xa0,%xmm5,%xmm0
    29b9:	66 0f 65 c8          	pcmpgtw %xmm0,%xmm1
    29bd:	66 0f 6f d8          	movdqa %xmm0,%xmm3
    29c1:	66 0f 6f d0          	movdqa %xmm0,%xmm2
    29c5:	66 0f 70 c5 f5       	pshufd $0xf5,%xmm5,%xmm0
    29ca:	66 0f 65 f0          	pcmpgtw %xmm0,%xmm6
    29ce:	66 0f 6f e8          	movdqa %xmm0,%xmm5
    29d2:	66 0f 61 d9          	punpcklwd %xmm1,%xmm3
    29d6:	66 0f 69 d1          	punpckhwd %xmm1,%xmm2
    29da:	66 0f 6f c8          	movdqa %xmm0,%xmm1
    29de:	66 0f 6f c3          	movdqa %xmm3,%xmm0
    29e2:	66 0f 61 ee          	punpcklwd %xmm6,%xmm5
    29e6:	66 0f 69 ce          	punpckhwd %xmm6,%xmm1
    29ea:	66 0f fa dd          	psubd  %xmm5,%xmm3
    29ee:	66 0f fe c5          	paddd  %xmm5,%xmm0
    29f2:	0f c6 c3 e4          	shufps $0xe4,%xmm3,%xmm0
    29f6:	66 0f 6f da          	movdqa %xmm2,%xmm3
    29fa:	66 0f fa d1          	psubd  %xmm1,%xmm2
    29fe:	66 0f fe d9          	paddd  %xmm1,%xmm3
    2a02:	66 0f 72 e0 01       	psrad  $0x1,%xmm0
    2a07:	0f c6 da e4          	shufps $0xe4,%xmm2,%xmm3
    2a0b:	66 0f 6f cb          	movdqa %xmm3,%xmm1
    2a0f:	66 0f 6f d0          	movdqa %xmm0,%xmm2
    2a13:	66 0f 72 e1 01       	psrad  $0x1,%xmm1
    2a18:	66 0f 61 c1          	punpcklwd %xmm1,%xmm0
    2a1c:	66 0f 69 d1          	punpckhwd %xmm1,%xmm2
    2a20:	66 0f 6f c8          	movdqa %xmm0,%xmm1
    2a24:	66 0f 61 c2          	punpcklwd %xmm2,%xmm0
    2a28:	66 0f 69 ca          	punpckhwd %xmm2,%xmm1
    2a2c:	66 0f 61 c1          	punpcklwd %xmm1,%xmm0
    2a30:	0f 11 40 f0          	movups %xmm0,-0x10(%rax)
    2a34:	48 39 ca             	cmp    %rcx,%rdx
    2a37:	0f 82 63 ff ff ff    	jb     29a0 <riscv_dsp_cfft_rd2_q15+0x590>
    2a3d:	48 8b 44 24 d8       	mov    -0x28(%rsp),%rax
    2a42:	8b 5c 24 f4          	mov    -0xc(%rsp),%ebx
    2a46:	0f b7 48 04          	movzwl 0x4(%rax),%ecx
    2a4a:	48 8d 7c 30 fe       	lea    -0x2(%rax,%rsi,1),%rdi
    2a4f:	48 89 c6             	mov    %rax,%rsi
    2a52:	89 d8                	mov    %ebx,%eax
    2a54:	83 e0 fe             	and    $0xfffffffe,%eax
    2a57:	41 89 db             	mov    %ebx,%r11d
    2a5a:	89 c2                	mov    %eax,%edx
    2a5c:	41 d1 eb             	shr    %r11d
    2a5f:	83 c0 01             	add    $0x1,%eax
    2a62:	48 8d 14 56          	lea    (%rsi,%rdx,2),%rdx
    2a66:	45 89 d9             	mov    %r11d,%r9d
    2a69:	41 89 db             	mov    %ebx,%r11d
    2a6c:	48 89 f3             	mov    %rsi,%rbx
    2a6f:	0f b7 32             	movzwl (%rdx),%esi
    2a72:	48 8d 04 43          	lea    (%rbx,%rax,2),%rax
    2a76:	66 89 73 04          	mov    %si,0x4(%rbx)
    2a7a:	48 89 de             	mov    %rbx,%rsi
    2a7d:	66 89 0a             	mov    %cx,(%rdx)
    2a80:	0f b7 53 06          	movzwl 0x6(%rbx),%edx
    2a84:	0f b7 08             	movzwl (%rax),%ecx
    2a87:	66 89 4b 06          	mov    %cx,0x6(%rbx)
    2a8b:	44 89 cb             	mov    %r9d,%ebx
    2a8e:	b9 04 00 00 00       	mov    $0x4,%ecx
    2a93:	66 89 10             	mov    %dx,(%rax)
    2a96:	44 89 d8             	mov    %r11d,%eax
    2a99:	41 c1 eb 02          	shr    $0x2,%r11d
    2a9d:	ba 04 00 00 00       	mov    $0x4,%edx
    2aa2:	44 31 db             	xor    %r11d,%ebx
    2aa5:	45 89 da             	mov    %r11d,%r10d
    2aa8:	41 89 c3             	mov    %eax,%r11d
    2aab:	44 89 c8             	mov    %r9d,%eax
    2aae:	41 c1 eb 03          	shr    $0x3,%r11d
    2ab2:	44 89 dd             	mov    %r11d,%ebp
    2ab5:	31 dd                	xor    %ebx,%ebp
    2ab7:	89 6c 24 c8          	mov    %ebp,-0x38(%rsp)
    2abb:	0f 1f 44 00 00       	nopl   0x0(%rax,%rax,1)
    2ac0:	31 d8                	xor    %ebx,%eax
    2ac2:	41 85 c2             	test   %eax,%r10d
    2ac5:	75 14                	jne    2adb <riscv_dsp_cfft_rd2_q15+0x6cb>
    2ac7:	45 89 d0             	mov    %r10d,%r8d
    2aca:	66 0f 1f 44 00 00    	nopw   0x0(%rax,%rax,1)
    2ad0:	41 d1 e8             	shr    %r8d
    2ad3:	44 31 c0             	xor    %r8d,%eax
    2ad6:	41 85 c0             	test   %eax,%r8d
    2ad9:	74 f5                	je     2ad0 <riscv_dsp_cfft_rd2_q15+0x6c0>
    2adb:	44 8d 41 fe          	lea    -0x2(%rcx),%r8d
    2adf:	44 39 c0             	cmp    %r8d,%eax
    2ae2:	0f 86 97 00 00 00    	jbe    2b7f <riscv_dsp_cfft_rd2_q15+0x76f>
    2ae8:	41 89 d0             	mov    %edx,%r8d
    2aeb:	8d 2c 00             	lea    (%rax,%rax,1),%ebp
    2aee:	4e 8d 24 46          	lea    (%rsi,%r8,2),%r12
    2af2:	49 89 e8             	mov    %rbp,%r8
    2af5:	48 8d 2c 6e          	lea    (%rsi,%rbp,2),%rbp
    2af9:	45 0f b7 2c 24       	movzwl (%r12),%r13d
    2afe:	44 0f b7 75 00       	movzwl 0x0(%rbp),%r14d
    2b03:	41 83 c0 01          	add    $0x1,%r8d
    2b07:	4e 8d 04 46          	lea    (%rsi,%r8,2),%r8
    2b0b:	66 45 89 34 24       	mov    %r14w,(%r12)
    2b10:	66 44 89 6d 00       	mov    %r13w,0x0(%rbp)
    2b15:	8d 6a 01             	lea    0x1(%rdx),%ebp
    2b18:	45 0f b7 28          	movzwl (%r8),%r13d
    2b1c:	48 8d 2c 6e          	lea    (%rsi,%rbp,2),%rbp
    2b20:	44 0f b7 65 00       	movzwl 0x0(%rbp),%r12d
    2b25:	66 44 89 6d 00       	mov    %r13w,0x0(%rbp)
    2b2a:	89 d5                	mov    %edx,%ebp
    2b2c:	f7 dd                	neg    %ebp
    2b2e:	66 45 89 20          	mov    %r12w,(%r8)
    2b32:	41 89 c0             	mov    %eax,%r8d
    2b35:	48 63 ed             	movslq %ebp,%rbp
    2b38:	41 f7 d8             	neg    %r8d
    2b3b:	48 01 ed             	add    %rbp,%rbp
    2b3e:	45 01 c0             	add    %r8d,%r8d
    2b41:	4c 8d 2c 2f          	lea    (%rdi,%rbp,1),%r13
    2b45:	48 8d 6c 2f fe       	lea    -0x2(%rdi,%rbp,1),%rbp
    2b4a:	4d 63 c0             	movslq %r8d,%r8
    2b4d:	45 0f b7 75 00       	movzwl 0x0(%r13),%r14d
    2b52:	4d 01 c0             	add    %r8,%r8
    2b55:	4e 8d 24 07          	lea    (%rdi,%r8,1),%r12
    2b59:	4e 8d 44 07 fe       	lea    -0x2(%rdi,%r8,1),%r8
    2b5e:	45 0f b7 3c 24       	movzwl (%r12),%r15d
    2b63:	66 45 89 7d 00       	mov    %r15w,0x0(%r13)
    2b68:	66 45 89 34 24       	mov    %r14w,(%r12)
    2b6d:	44 0f b7 65 00       	movzwl 0x0(%rbp),%r12d
    2b72:	45 0f b7 28          	movzwl (%r8),%r13d
    2b76:	66 44 89 6d 00       	mov    %r13w,0x0(%rbp)
    2b7b:	66 45 89 20          	mov    %r12w,(%r8)
    2b7f:	44 01 c8             	add    %r9d,%eax
    2b82:	44 8d 42 02          	lea    0x2(%rdx),%r8d
    2b86:	8d 2c 00             	lea    (%rax,%rax,1),%ebp
    2b89:	4e 8d 24 46          	lea    (%rsi,%r8,2),%r12
    2b8d:	49 89 e8             	mov    %rbp,%r8
    2b90:	48 8d 2c 6e          	lea    (%rsi,%rbp,2),%rbp
    2b94:	45 0f b7 2c 24       	movzwl (%r12),%r13d
    2b99:	44 0f b7 75 00       	movzwl 0x0(%rbp),%r14d
    2b9e:	41 83 c0 01          	add    $0x1,%r8d
    2ba2:	4e 8d 04 46          	lea    (%rsi,%r8,2),%r8
    2ba6:	66 45 89 34 24       	mov    %r14w,(%r12)
    2bab:	66 44 89 6d 00       	mov    %r13w,0x0(%rbp)
    2bb0:	8d 6a 03             	lea    0x3(%rdx),%ebp
    2bb3:	45 0f b7 28          	movzwl (%r8),%r13d
    2bb7:	48 8d 2c 6e          	lea    (%rsi,%rbp,2),%rbp
    2bbb:	44 0f b7 65 00       	movzwl 0x0(%rbp),%r12d
    2bc0:	66 44 89 6d 00       	mov    %r13w,0x0(%rbp)
    2bc5:	66 45 89 20          	mov    %r12w,(%r8)
    2bc9:	41 39 c9             	cmp    %ecx,%r9d
    2bcc:	0f 86 c4 01 00 00    	jbe    2d96 <riscv_dsp_cfft_rd2_q15+0x986>
    2bd2:	33 44 24 c8          	xor    -0x38(%rsp),%eax
    2bd6:	41 85 c3             	test   %eax,%r11d
    2bd9:	75 10                	jne    2beb <riscv_dsp_cfft_rd2_q15+0x7db>
    2bdb:	45 89 d8             	mov    %r11d,%r8d
    2bde:	66 90                	xchg   %ax,%ax
    2be0:	41 d1 e8             	shr    %r8d
    2be3:	44 31 c0             	xor    %r8d,%eax
    2be6:	41 85 c0             	test   %eax,%r8d
    2be9:	74 f5                	je     2be0 <riscv_dsp_cfft_rd2_q15+0x7d0>
    2beb:	39 c8                	cmp    %ecx,%eax
    2bed:	0f 86 9b 00 00 00    	jbe    2c8e <riscv_dsp_cfft_rd2_q15+0x87e>
    2bf3:	44 8d 42 04          	lea    0x4(%rdx),%r8d
    2bf7:	8d 2c 00             	lea    (%rax,%rax,1),%ebp
    2bfa:	4e 8d 24 46          	lea    (%rsi,%r8,2),%r12
    2bfe:	49 89 e8             	mov    %rbp,%r8
    2c01:	48 8d 2c 6e          	lea    (%rsi,%rbp,2),%rbp
    2c05:	45 0f b7 2c 24       	movzwl (%r12),%r13d
    2c0a:	44 0f b7 75 00       	movzwl 0x0(%rbp),%r14d
    2c0f:	41 83 c0 01          	add    $0x1,%r8d
    2c13:	4e 8d 04 46          	lea    (%rsi,%r8,2),%r8
    2c17:	66 45 89 34 24       	mov    %r14w,(%r12)
    2c1c:	66 44 89 6d 00       	mov    %r13w,0x0(%rbp)
    2c21:	8d 6a 05             	lea    0x5(%rdx),%ebp
    2c24:	45 0f b7 28          	movzwl (%r8),%r13d
    2c28:	48 8d 2c 6e          	lea    (%rsi,%rbp,2),%rbp
    2c2c:	44 0f b7 65 00       	movzwl 0x0(%rbp),%r12d
    2c31:	66 44 89 6d 00       	mov    %r13w,0x0(%rbp)
    2c36:	bd fc ff ff ff       	mov    $0xfffffffc,%ebp
    2c3b:	29 d5                	sub    %edx,%ebp
    2c3d:	66 45 89 20          	mov    %r12w,(%r8)
    2c41:	41 89 c0             	mov    %eax,%r8d
    2c44:	48 63 ed             	movslq %ebp,%rbp
    2c47:	41 f7 d8             	neg    %r8d
    2c4a:	48 01 ed             	add    %rbp,%rbp
    2c4d:	45 01 c0             	add    %r8d,%r8d
    2c50:	4c 8d 2c 2f          	lea    (%rdi,%rbp,1),%r13
    2c54:	48 8d 6c 2f fe       	lea    -0x2(%rdi,%rbp,1),%rbp
    2c59:	4d 63 c0             	movslq %r8d,%r8
    2c5c:	45 0f b7 75 00       	movzwl 0x0(%r13),%r14d
    2c61:	4d 01 c0             	add    %r8,%r8
    2c64:	4e 8d 24 07          	lea    (%rdi,%r8,1),%r12
    2c68:	4e 8d 44 07 fe       	lea    -0x2(%rdi,%r8,1),%r8
    2c6d:	45 0f b7 3c 24       	movzwl (%r12),%r15d
    2c72:	66 45 89 7d 00       	mov    %r15w,0x0(%r13)
    2c77:	66 45 89 34 24       	mov    %r14w,(%r12)
    2c7c:	44 0f b7 65 00       	movzwl 0x0(%rbp),%r12d
    2c81:	45 0f b7 28          	movzwl (%r8),%r13d
    2c85:	66 44 89 6d 00       	mov    %r13w,0x0(%rbp)
    2c8a:	66 45 89 20          	mov    %r12w,(%r8)
    2c8e:	44 01 c8             	add    %r9d,%eax
    2c91:	44 8d 42 06          	lea    0x6(%rdx),%r8d
    2c95:	83 c1 04             	add    $0x4,%ecx
    2c98:	8d 2c 00             	lea    (%rax,%rax,1),%ebp
    2c9b:	4e 8d 24 46          	lea    (%rsi,%r8,2),%r12
    2c9f:	49 89 e8             	mov    %rbp,%r8
    2ca2:	48 8d 2c 6e          	lea    (%rsi,%rbp,2),%rbp
    2ca6:	45 0f b7 2c 24       	movzwl (%r12),%r13d
    2cab:	44 0f b7 75 00       	movzwl 0x0(%rbp),%r14d
    2cb0:	41 83 c0 01          	add    $0x1,%r8d
    2cb4:	4e 8d 04 46          	lea    (%rsi,%r8,2),%r8
    2cb8:	66 45 89 34 24       	mov    %r14w,(%r12)
    2cbd:	66 44 89 6d 00       	mov    %r13w,0x0(%rbp)
    2cc2:	8d 6a 07             	lea    0x7(%rdx),%ebp
    2cc5:	45 0f b7 28          	movzwl (%r8),%r13d
    2cc9:	83 c2 08             	add    $0x8,%edx
    2ccc:	48 8d 2c 6e          	lea    (%rsi,%rbp,2),%rbp
    2cd0:	44 0f b7 65 00       	movzwl 0x0(%rbp),%r12d
    2cd5:	66 44 89 6d 00       	mov    %r13w,0x0(%rbp)
    2cda:	66 45 89 20          	mov    %r12w,(%r8)
    2cde:	e9 dd fd ff ff       	jmp    2ac0 <riscv_dsp_cfft_rd2_q15+0x6b0>
    2ce3:	0f 1f 44 00 00       	nopl   0x0(%rax,%rax,1)
    2ce8:	8d 90 00 ff ff ff    	lea    -0x100(%rax),%edx
    2cee:	44 89 e9             	mov    %r13d,%ecx
    2cf1:	29 d1                	sub    %edx,%ecx
    2cf3:	85 c9                	test   %ecx,%ecx
    2cf5:	7e 19                	jle    2d10 <riscv_dsp_cfft_rd2_q15+0x900>
    2cf7:	48 63 c9             	movslq %ecx,%rcx
    2cfa:	48 63 d2             	movslq %edx,%rdx
    2cfd:	45 0f b7 0c 4c       	movzwl (%r12,%rcx,2),%r9d
    2d02:	45 0f b7 34 54       	movzwl (%r12,%rdx,2),%r14d
    2d07:	41 f7 d9             	neg    %r9d
    2d0a:	e9 c8 fb ff ff       	jmp    28d7 <riscv_dsp_cfft_rd2_q15+0x4c7>
    2d0f:	90                   	nop
    2d10:	2d 00 02 00 00       	sub    $0x200,%eax
    2d15:	44 89 ea             	mov    %r13d,%edx
    2d18:	29 c2                	sub    %eax,%edx
    2d1a:	48 98                	cltq   
    2d1c:	45 0f b7 34 44       	movzwl (%r12,%rax,2),%r14d
    2d21:	48 63 ca             	movslq %edx,%rcx
    2d24:	45 0f b7 0c 4c       	movzwl (%r12,%rcx,2),%r9d
    2d29:	41 f7 de             	neg    %r14d
    2d2c:	85 d2                	test   %edx,%edx
    2d2e:	0f 8e a3 fb ff ff    	jle    28d7 <riscv_dsp_cfft_rd2_q15+0x4c7>
    2d34:	44 89 c8             	mov    %r9d,%eax
    2d37:	45 89 f1             	mov    %r14d,%r9d
    2d3a:	f7 d8                	neg    %eax
    2d3c:	41 89 c6             	mov    %eax,%r14d
    2d3f:	e9 93 fb ff ff       	jmp    28d7 <riscv_dsp_cfft_rd2_q15+0x4c7>
    2d44:	48 8b 54 24 d8       	mov    -0x28(%rsp),%rdx
    2d49:	41 89 db             	mov    %ebx,%r11d
    2d4c:	0f 1f 40 00          	nopl   0x0(%rax)
    2d50:	0f bf 32             	movswl (%rdx),%esi
    2d53:	0f bf 2c 3a          	movswl (%rdx,%rdi,1),%ebp
    2d57:	44 0f bf 44 3a 02    	movswl 0x2(%rdx,%rdi,1),%r8d
    2d5d:	8d 4c 35 00          	lea    0x0(%rbp,%rsi,1),%ecx
    2d61:	29 ee                	sub    %ebp,%esi
    2d63:	d1 f9                	sar    %ecx
    2d65:	d1 fe                	sar    %esi
    2d67:	66 89 0a             	mov    %cx,(%rdx)
    2d6a:	0f bf 4a 02          	movswl 0x2(%rdx),%ecx
    2d6e:	45 8d 0c 08          	lea    (%r8,%rcx,1),%r9d
    2d72:	44 29 c1             	sub    %r8d,%ecx
    2d75:	41 d1 f9             	sar    %r9d
    2d78:	d1 f9                	sar    %ecx
    2d7a:	66 44 89 4a 02       	mov    %r9w,0x2(%rdx)
    2d7f:	66 89 34 3a          	mov    %si,(%rdx,%rdi,1)
    2d83:	66 89 4c 3a 02       	mov    %cx,0x2(%rdx,%rdi,1)
    2d88:	48 01 c2             	add    %rax,%rdx
    2d8b:	41 83 eb 01          	sub    $0x1,%r11d
    2d8f:	75 bf                	jne    2d50 <riscv_dsp_cfft_rd2_q15+0x940>
    2d91:	e9 f9 fa ff ff       	jmp    288f <riscv_dsp_cfft_rd2_q15+0x47f>
    2d96:	5b                   	pop    %rbx
    2d97:	31 c0                	xor    %eax,%eax
    2d99:	5d                   	pop    %rbp
    2d9a:	41 5c                	pop    %r12
    2d9c:	41 5d                	pop    %r13
    2d9e:	41 5e                	pop    %r14
    2da0:	41 5f                	pop    %r15
    2da2:	c3                   	ret    
    2da3:	66 2e 0f 1f 84 00 00 	cs nopw 0x0(%rax,%rax,1)
    2daa:	00 00 00 
    2dad:	0f 1f 00             	nopl   (%rax)

0000000000002db0 <riscv_dsp_cifft_rd2_q15>:
    2db0:	f3 0f 1e fa          	endbr64 
    2db4:	89 f1                	mov    %esi,%ecx
    2db6:	b8 01 00 00 00       	mov    $0x1,%eax
    2dbb:	41 57                	push   %r15
    2dbd:	d3 e0                	shl    %cl,%eax
    2dbf:	41 56                	push   %r14
    2dc1:	41 89 c1             	mov    %eax,%r9d
    2dc4:	41 55                	push   %r13
    2dc6:	41 54                	push   %r12
    2dc8:	4d 01 c9             	add    %r9,%r9
    2dcb:	55                   	push   %rbp
    2dcc:	4e 8d 2c 0f          	lea    (%rdi,%r9,1),%r13
    2dd0:	53                   	push   %rbx
    2dd1:	48 89 fb             	mov    %rdi,%rbx
    2dd4:	0f b7 17             	movzwl (%rdi),%edx
    2dd7:	48 89 7c 24 d8       	mov    %rdi,-0x28(%rsp)
    2ddc:	89 74 24 f0          	mov    %esi,-0x10(%rsp)
    2de0:	0f b7 77 02          	movzwl 0x2(%rdi),%esi
    2de4:	41 0f b7 7d 00       	movzwl 0x0(%r13),%edi
    2de9:	89 44 24 f4          	mov    %eax,-0xc(%rsp)
    2ded:	41 0f b7 45 02       	movzwl 0x2(%r13),%eax
    2df2:	8d 0c 3a             	lea    (%rdx,%rdi,1),%ecx
    2df5:	29 fa                	sub    %edi,%edx
    2df7:	66 89 0b             	mov    %cx,(%rbx)
    2dfa:	8d 0c 30             	lea    (%rax,%rsi,1),%ecx
    2dfd:	29 f0                	sub    %esi,%eax
    2dff:	f7 d9                	neg    %ecx
    2e01:	66 89 4b 02          	mov    %cx,0x2(%rbx)
    2e05:	66 41 89 45 02       	mov    %ax,0x2(%r13)
    2e0a:	48 8d 43 04          	lea    0x4(%rbx),%rax
    2e0e:	66 41 89 55 00       	mov    %dx,0x0(%r13)
    2e13:	48 89 44 24 e0       	mov    %rax,-0x20(%rsp)
    2e18:	49 39 c5             	cmp    %rax,%r13
    2e1b:	0f 84 11 01 00 00    	je     2f32 <riscv_dsp_cifft_rd2_q15+0x182>
    2e21:	48 89 c2             	mov    %rax,%rdx
    2e24:	b8 0a 00 00 00       	mov    $0xa,%eax
    2e29:	2b 44 24 f0          	sub    -0x10(%rsp),%eax
    2e2d:	45 31 d2             	xor    %r10d,%r10d
    2e30:	48 8d 2d 4d 69 01 00 	lea    0x1694d(%rip),%rbp        # 19784 <riscv_dsp_cos_table_q15_1024+0x4>
    2e37:	41 bc 00 01 00 00    	mov    $0x100,%r12d
    2e3d:	89 c1                	mov    %eax,%ecx
    2e3f:	eb 7e                	jmp    2ebf <riscv_dsp_cifft_rd2_q15+0x10f>
    2e41:	48 98                	cltq   
    2e43:	48 63 ff             	movslq %edi,%rdi
    2e46:	0f b7 74 45 00       	movzwl 0x0(%rbp,%rax,2),%esi
    2e4b:	44 0f b7 5c 7d 00    	movzwl 0x0(%rbp,%rdi,2),%r11d
    2e51:	0f bf 3a             	movswl (%rdx),%edi
    2e54:	46 0f bf 3c 0a       	movswl (%rdx,%r9,1),%r15d
    2e59:	45 0f bf db          	movswl %r11w,%r11d
    2e5d:	48 83 c2 04          	add    $0x4,%rdx
    2e61:	0f b7 5a fe          	movzwl -0x2(%rdx),%ebx
    2e65:	42 0f b7 44 0a fe    	movzwl -0x2(%rdx,%r9,1),%eax
    2e6b:	41 89 f8             	mov    %edi,%r8d
    2e6e:	44 29 ff             	sub    %r15d,%edi
    2e71:	45 01 f8             	add    %r15d,%r8d
    2e74:	44 0f bf f3          	movswl %bx,%r14d
    2e78:	66 44 89 42 fc       	mov    %r8w,-0x4(%rdx)
    2e7d:	44 0f bf c0          	movswl %ax,%r8d
    2e81:	01 d8                	add    %ebx,%eax
    2e83:	44 89 db             	mov    %r11d,%ebx
    2e86:	f7 d8                	neg    %eax
    2e88:	44 0f af df          	imul   %edi,%r11d
    2e8c:	45 29 f0             	sub    %r14d,%r8d
    2e8f:	66 89 42 fe          	mov    %ax,-0x2(%rdx)
    2e93:	0f bf c6             	movswl %si,%eax
    2e96:	41 0f af d8          	imul   %r8d,%ebx
    2e9a:	89 c6                	mov    %eax,%esi
    2e9c:	41 0f af c0          	imul   %r8d,%eax
    2ea0:	0f af f7             	imul   %edi,%esi
    2ea3:	44 29 d8             	sub    %r11d,%eax
    2ea6:	01 de                	add    %ebx,%esi
    2ea8:	c1 f8 0f             	sar    $0xf,%eax
    2eab:	c1 fe 0f             	sar    $0xf,%esi
    2eae:	66 42 89 44 0a fe    	mov    %ax,-0x2(%rdx,%r9,1)
    2eb4:	66 42 89 74 0a fc    	mov    %si,-0x4(%rdx,%r9,1)
    2eba:	49 39 d5             	cmp    %rdx,%r13
    2ebd:	74 73                	je     2f32 <riscv_dsp_cifft_rd2_q15+0x182>
    2ebf:	41 83 c2 01          	add    $0x1,%r10d
    2ec3:	44 89 e7             	mov    %r12d,%edi
    2ec6:	44 89 d0             	mov    %r10d,%eax
    2ec9:	d3 e0                	shl    %cl,%eax
    2ecb:	29 c7                	sub    %eax,%edi
    2ecd:	85 ff                	test   %edi,%edi
    2ecf:	0f 8f 6c ff ff ff    	jg     2e41 <riscv_dsp_cifft_rd2_q15+0x91>
    2ed5:	8d b8 00 ff ff ff    	lea    -0x100(%rax),%edi
    2edb:	44 89 e6             	mov    %r12d,%esi
    2ede:	29 fe                	sub    %edi,%esi
    2ee0:	85 f6                	test   %esi,%esi
    2ee2:	7e 1a                	jle    2efe <riscv_dsp_cifft_rd2_q15+0x14e>
    2ee4:	48 63 f6             	movslq %esi,%rsi
    2ee7:	48 63 ff             	movslq %edi,%rdi
    2eea:	0f b7 44 75 00       	movzwl 0x0(%rbp,%rsi,2),%eax
    2eef:	44 0f b7 5c 7d 00    	movzwl 0x0(%rbp,%rdi,2),%r11d
    2ef5:	f7 d8                	neg    %eax
    2ef7:	89 c6                	mov    %eax,%esi
    2ef9:	e9 53 ff ff ff       	jmp    2e51 <riscv_dsp_cifft_rd2_q15+0xa1>
    2efe:	2d 00 02 00 00       	sub    $0x200,%eax
    2f03:	44 89 e7             	mov    %r12d,%edi
    2f06:	29 c7                	sub    %eax,%edi
    2f08:	48 98                	cltq   
    2f0a:	44 0f b7 5c 45 00    	movzwl 0x0(%rbp,%rax,2),%r11d
    2f10:	48 63 f7             	movslq %edi,%rsi
    2f13:	0f b7 74 75 00       	movzwl 0x0(%rbp,%rsi,2),%esi
    2f18:	41 f7 db             	neg    %r11d
    2f1b:	85 ff                	test   %edi,%edi
    2f1d:	0f 8e 2e ff ff ff    	jle    2e51 <riscv_dsp_cifft_rd2_q15+0xa1>
    2f23:	89 f0                	mov    %esi,%eax
    2f25:	44 89 de             	mov    %r11d,%esi
    2f28:	f7 d8                	neg    %eax
    2f2a:	41 89 c3             	mov    %eax,%r11d
    2f2d:	e9 1f ff ff ff       	jmp    2e51 <riscv_dsp_cifft_rd2_q15+0xa1>
    2f32:	8b 44 24 f4          	mov    -0xc(%rsp),%eax
    2f36:	8b 5c 24 f0          	mov    -0x10(%rsp),%ebx
    2f3a:	41 be 02 00 00 00    	mov    $0x2,%r14d
    2f40:	89 44 24 c8          	mov    %eax,-0x38(%rsp)
    2f44:	89 d8                	mov    %ebx,%eax
    2f46:	83 e8 02             	sub    $0x2,%eax
    2f49:	89 44 24 ec          	mov    %eax,-0x14(%rsp)
    2f4d:	0f 84 e9 02 00 00    	je     323c <riscv_dsp_cifft_rd2_q15+0x48c>
    2f53:	b8 0a 00 00 00       	mov    $0xa,%eax
    2f58:	29 d8                	sub    %ebx,%eax
    2f5a:	89 44 24 b8          	mov    %eax,-0x48(%rsp)
    2f5e:	66 90                	xchg   %ax,%ax
    2f60:	d1 6c 24 c8          	shrl   -0x38(%rsp)
    2f64:	8b 6c 24 c8          	mov    -0x38(%rsp),%ebp
    2f68:	48 8b 44 24 d8       	mov    -0x28(%rsp),%rax
    2f6d:	48 8d 7c 2d 00       	lea    0x0(%rbp,%rbp,1),%rdi
    2f72:	48 01 f8             	add    %rdi,%rax
    2f75:	48 89 44 24 a8       	mov    %rax,-0x58(%rsp)
    2f7a:	45 85 f6             	test   %r14d,%r14d
    2f7d:	0f 84 d5 01 00 00    	je     3158 <riscv_dsp_cifft_rd2_q15+0x3a8>
    2f83:	48 8d 04 ad 00 00 00 	lea    0x0(,%rbp,4),%rax
    2f8a:	00 
    2f8b:	48 8d 34 2f          	lea    (%rdi,%rbp,1),%rsi
    2f8f:	48 c1 e6 02          	shl    $0x2,%rsi
    2f93:	48 83 f8 03          	cmp    $0x3,%rax
    2f97:	0f 97 c1             	seta   %cl
    2f9a:	48 85 ff             	test   %rdi,%rdi
    2f9d:	0f 95 c2             	setne  %dl
    2fa0:	84 d1                	test   %dl,%cl
    2fa2:	0f 84 82 11 00 00    	je     412a <riscv_dsp_cifft_rd2_q15+0x137a>
    2fa8:	48 8d 56 02          	lea    0x2(%rsi),%rdx
    2fac:	48 39 d7             	cmp    %rdx,%rdi
    2faf:	0f 8e 75 11 00 00    	jle    412a <riscv_dsp_cifft_rd2_q15+0x137a>
    2fb5:	41 8d 56 ff          	lea    -0x1(%r14),%edx
    2fb9:	83 fa 02             	cmp    $0x2,%edx
    2fbc:	0f 86 c3 11 00 00    	jbe    4185 <riscv_dsp_cifft_rd2_q15+0x13d5>
    2fc2:	45 89 f2             	mov    %r14d,%r10d
    2fc5:	49 89 e9             	mov    %rbp,%r9
    2fc8:	48 8b 4c 24 d8       	mov    -0x28(%rsp),%rcx
    2fcd:	48 8b 54 24 a8       	mov    -0x58(%rsp),%rdx
    2fd2:	41 c1 ea 02          	shr    $0x2,%r10d
    2fd6:	49 c1 e1 04          	shl    $0x4,%r9
    2fda:	45 31 c0             	xor    %r8d,%r8d
    2fdd:	0f 1f 00             	nopl   (%rax)
    2fe0:	66 0f 6e 3c 31       	movd   (%rcx,%rsi,1),%xmm7
    2fe5:	66 0f 6e 0c 41       	movd   (%rcx,%rax,2),%xmm1
    2fea:	41 83 c0 01          	add    $0x1,%r8d
    2fee:	66 0f 6e 01          	movd   (%rcx),%xmm0
    2ff2:	66 0f 6e 1c 01       	movd   (%rcx,%rax,1),%xmm3
    2ff7:	66 0f 62 cf          	punpckldq %xmm7,%xmm1
    2ffb:	66 0f 6e 24 32       	movd   (%rdx,%rsi,1),%xmm4
    3000:	66 0f 6e 12          	movd   (%rdx),%xmm2
    3004:	66 0f 62 c3          	punpckldq %xmm3,%xmm0
    3008:	66 0f 6e 3c 02       	movd   (%rdx,%rax,1),%xmm7
    300d:	66 0f 6c c1          	punpcklqdq %xmm1,%xmm0
    3011:	66 0f 6e 0c 42       	movd   (%rdx,%rax,2),%xmm1
    3016:	66 0f 62 d7          	punpckldq %xmm7,%xmm2
    301a:	66 0f 62 cc          	punpckldq %xmm4,%xmm1
    301e:	66 0f 6c d1          	punpcklqdq %xmm1,%xmm2
    3022:	66 0f 6f c8          	movdqa %xmm0,%xmm1
    3026:	66 0f fd ca          	paddw  %xmm2,%xmm1
    302a:	66 0f f9 c2          	psubw  %xmm2,%xmm0
    302e:	66 0f 70 d1 55       	pshufd $0x55,%xmm1,%xmm2
    3033:	66 0f 7e 09          	movd   %xmm1,(%rcx)
    3037:	66 0f 7e 14 01       	movd   %xmm2,(%rcx,%rax,1)
    303c:	66 0f 6f d1          	movdqa %xmm1,%xmm2
    3040:	66 0f 6a d1          	punpckhdq %xmm1,%xmm2
    3044:	66 0f 70 c9 ff       	pshufd $0xff,%xmm1,%xmm1
    3049:	66 0f 7e 14 41       	movd   %xmm2,(%rcx,%rax,2)
    304e:	66 0f 7e 0c 31       	movd   %xmm1,(%rcx,%rsi,1)
    3053:	66 0f 70 c8 55       	pshufd $0x55,%xmm0,%xmm1
    3058:	4c 01 c9             	add    %r9,%rcx
    305b:	66 0f 7e 02          	movd   %xmm0,(%rdx)
    305f:	66 0f 7e 0c 02       	movd   %xmm1,(%rdx,%rax,1)
    3064:	66 0f 6f c8          	movdqa %xmm0,%xmm1
    3068:	66 0f 6a c8          	punpckhdq %xmm0,%xmm1
    306c:	66 0f 70 c0 ff       	pshufd $0xff,%xmm0,%xmm0
    3071:	66 0f 7e 0c 42       	movd   %xmm1,(%rdx,%rax,2)
    3076:	66 0f 7e 04 32       	movd   %xmm0,(%rdx,%rsi,1)
    307b:	4c 01 ca             	add    %r9,%rdx
    307e:	45 39 d0             	cmp    %r10d,%r8d
    3081:	0f 85 59 ff ff ff    	jne    2fe0 <riscv_dsp_cifft_rd2_q15+0x230>
    3087:	44 89 f6             	mov    %r14d,%esi
    308a:	48 8b 5c 24 d8       	mov    -0x28(%rsp),%rbx
    308f:	83 e6 fc             	and    $0xfffffffc,%esi
    3092:	89 f1                	mov    %esi,%ecx
    3094:	48 89 ca             	mov    %rcx,%rdx
    3097:	48 0f af d7          	imul   %rdi,%rdx
    309b:	48 8d 14 53          	lea    (%rbx,%rdx,2),%rdx
    309f:	41 39 f6             	cmp    %esi,%r14d
    30a2:	0f 84 b0 00 00 00    	je     3158 <riscv_dsp_cifft_rd2_q15+0x3a8>
    30a8:	45 89 f0             	mov    %r14d,%r8d
    30ab:	41 29 f0             	sub    %esi,%r8d
    30ae:	41 83 f8 01          	cmp    $0x1,%r8d
    30b2:	74 72                	je     3126 <riscv_dsp_cifft_rd2_q15+0x376>
    30b4:	48 0f af cf          	imul   %rdi,%rcx
    30b8:	48 8b 5c 24 d8       	mov    -0x28(%rsp),%rbx
    30bd:	48 8d 34 4b          	lea    (%rbx,%rcx,2),%rsi
    30c1:	48 01 e9             	add    %rbp,%rcx
    30c4:	48 8d 0c 4b          	lea    (%rbx,%rcx,2),%rcx
    30c8:	4c 8d 14 06          	lea    (%rsi,%rax,1),%r10
    30cc:	66 0f 6e 06          	movd   (%rsi),%xmm0
    30d0:	66 41 0f 6e 1a       	movd   (%r10),%xmm3
    30d5:	4c 8d 0c 01          	lea    (%rcx,%rax,1),%r9
    30d9:	66 0f 6e 09          	movd   (%rcx),%xmm1
    30dd:	66 41 0f 6e 21       	movd   (%r9),%xmm4
    30e2:	66 0f 62 c3          	punpckldq %xmm3,%xmm0
    30e6:	66 0f 62 cc          	punpckldq %xmm4,%xmm1
    30ea:	66 0f 6f d0          	movdqa %xmm0,%xmm2
    30ee:	66 0f fd d1          	paddw  %xmm1,%xmm2
    30f2:	66 0f f9 c1          	psubw  %xmm1,%xmm0
    30f6:	66 0f 7e 16          	movd   %xmm2,(%rsi)
    30fa:	44 89 c6             	mov    %r8d,%esi
    30fd:	66 0f 70 da e5       	pshufd $0xe5,%xmm2,%xmm3
    3102:	66 0f 70 e0 e5       	pshufd $0xe5,%xmm0,%xmm4
    3107:	83 e6 fe             	and    $0xfffffffe,%esi
    310a:	66 41 0f 7e 1a       	movd   %xmm3,(%r10)
    310f:	66 0f 7e 01          	movd   %xmm0,(%rcx)
    3113:	89 f1                	mov    %esi,%ecx
    3115:	48 0f af c1          	imul   %rcx,%rax
    3119:	66 41 0f 7e 21       	movd   %xmm4,(%r9)
    311e:	48 01 c2             	add    %rax,%rdx
    3121:	44 39 c6             	cmp    %r8d,%esi
    3124:	74 32                	je     3158 <riscv_dsp_cifft_rd2_q15+0x3a8>
    3126:	48 8d 04 3a          	lea    (%rdx,%rdi,1),%rax
    312a:	0f b7 32             	movzwl (%rdx),%esi
    312d:	0f b7 4a 02          	movzwl 0x2(%rdx),%ecx
    3131:	44 0f b7 08          	movzwl (%rax),%r9d
    3135:	44 0f b7 40 02       	movzwl 0x2(%rax),%r8d
    313a:	45 8d 14 31          	lea    (%r9,%rsi,1),%r10d
    313e:	44 29 ce             	sub    %r9d,%esi
    3141:	66 44 89 12          	mov    %r10w,(%rdx)
    3145:	45 8d 14 08          	lea    (%r8,%rcx,1),%r10d
    3149:	44 29 c1             	sub    %r8d,%ecx
    314c:	66 44 89 52 02       	mov    %r10w,0x2(%rdx)
    3151:	66 89 30             	mov    %si,(%rax)
    3154:	66 89 48 02          	mov    %cx,0x2(%rax)
    3158:	48 8b 44 24 e0       	mov    -0x20(%rsp),%rax
    315d:	48 8b 5c 24 a8       	mov    -0x58(%rsp),%rbx
    3162:	48 c1 e5 02          	shl    $0x2,%rbp
    3166:	45 31 ed             	xor    %r13d,%r13d
    3169:	49 89 c4             	mov    %rax,%r12
    316c:	48 39 d8             	cmp    %rbx,%rax
    316f:	0f 84 b9 00 00 00    	je     322e <riscv_dsp_cifft_rd2_q15+0x47e>
    3175:	0f 1f 00             	nopl   (%rax)
    3178:	0f b6 4c 24 b8       	movzbl -0x48(%rsp),%ecx
    317d:	45 01 f5             	add    %r14d,%r13d
    3180:	ba 00 01 00 00       	mov    $0x100,%edx
    3185:	44 89 e8             	mov    %r13d,%eax
    3188:	d3 e0                	shl    %cl,%eax
    318a:	29 c2                	sub    %eax,%edx
    318c:	85 d2                	test   %edx,%edx
    318e:	0f 8e 24 0f 00 00    	jle    40b8 <riscv_dsp_cifft_rd2_q15+0x1308>
    3194:	48 8d 1d e9 65 01 00 	lea    0x165e9(%rip),%rbx        # 19784 <riscv_dsp_cos_table_q15_1024+0x4>
    319b:	48 98                	cltq   
    319d:	48 63 d2             	movslq %edx,%rdx
    31a0:	44 0f b7 1c 43       	movzwl (%rbx,%rax,2),%r11d
    31a5:	0f b7 1c 53          	movzwl (%rbx,%rdx,2),%ebx
    31a9:	45 85 f6             	test   %r14d,%r14d
    31ac:	74 71                	je     321f <riscv_dsp_cifft_rd2_q15+0x46f>
    31ae:	45 0f bf db          	movswl %r11w,%r11d
    31b2:	0f bf db             	movswl %bx,%ebx
    31b5:	4c 89 e0             	mov    %r12,%rax
    31b8:	45 89 f0             	mov    %r14d,%r8d
    31bb:	0f 1f 44 00 00       	nopl   0x0(%rax,%rax,1)
    31c0:	0f bf 08             	movswl (%rax),%ecx
    31c3:	44 0f bf 3c 38       	movswl (%rax,%rdi,1),%r15d
    31c8:	44 0f b7 4c 38 02    	movzwl 0x2(%rax,%rdi,1),%r9d
    31ce:	0f b7 70 02          	movzwl 0x2(%rax),%esi
    31d2:	89 ca                	mov    %ecx,%edx
    31d4:	44 29 f9             	sub    %r15d,%ecx
    31d7:	44 01 fa             	add    %r15d,%edx
    31da:	45 0f bf d1          	movswl %r9w,%r10d
    31de:	66 89 10             	mov    %dx,(%rax)
    31e1:	0f bf d6             	movswl %si,%edx
    31e4:	44 01 ce             	add    %r9d,%esi
    31e7:	44 29 d2             	sub    %r10d,%edx
    31ea:	66 89 70 02          	mov    %si,0x2(%rax)
    31ee:	89 ce                	mov    %ecx,%esi
    31f0:	41 89 d1             	mov    %edx,%r9d
    31f3:	41 0f af f3          	imul   %r11d,%esi
    31f7:	44 0f af cb          	imul   %ebx,%r9d
    31fb:	41 0f af d3          	imul   %r11d,%edx
    31ff:	0f af cb             	imul   %ebx,%ecx
    3202:	44 01 ce             	add    %r9d,%esi
    3205:	c1 fe 0f             	sar    $0xf,%esi
    3208:	29 ca                	sub    %ecx,%edx
    320a:	66 89 34 38          	mov    %si,(%rax,%rdi,1)
    320e:	c1 fa 0f             	sar    $0xf,%edx
    3211:	66 89 54 38 02       	mov    %dx,0x2(%rax,%rdi,1)
    3216:	48 01 e8             	add    %rbp,%rax
    3219:	41 83 e8 01          	sub    $0x1,%r8d
    321d:	75 a1                	jne    31c0 <riscv_dsp_cifft_rd2_q15+0x410>
    321f:	49 83 c4 04          	add    $0x4,%r12
    3223:	4c 39 64 24 a8       	cmp    %r12,-0x58(%rsp)
    3228:	0f 85 4a ff ff ff    	jne    3178 <riscv_dsp_cifft_rd2_q15+0x3c8>
    322e:	45 01 f6             	add    %r14d,%r14d
    3231:	83 6c 24 ec 01       	subl   $0x1,-0x14(%rsp)
    3236:	0f 85 24 fd ff ff    	jne    2f60 <riscv_dsp_cifft_rd2_q15+0x1b0>
    323c:	0f b6 4c 24 f0       	movzbl -0x10(%rsp),%ecx
    3241:	b8 02 00 00 00       	mov    $0x2,%eax
    3246:	d3 e0                	shl    %cl,%eax
    3248:	4c 8d 34 00          	lea    (%rax,%rax,1),%r14
    324c:	48 8b 44 24 d8       	mov    -0x28(%rsp),%rax
    3251:	4e 8d 24 30          	lea    (%rax,%r14,1),%r12
    3255:	4c 39 e0             	cmp    %r12,%rax
    3258:	0f 84 b9 0b 00 00    	je     3e17 <riscv_dsp_cifft_rd2_q15+0x1067>
    325e:	4c 89 e2             	mov    %r12,%rdx
    3261:	48 29 c2             	sub    %rax,%rdx
    3264:	48 83 ea 10          	sub    $0x10,%rdx
    3268:	48 89 d1             	mov    %rdx,%rcx
    326b:	48 c1 e9 04          	shr    $0x4,%rcx
    326f:	48 83 c1 01          	add    $0x1,%rcx
    3273:	48 83 fa 60          	cmp    $0x60,%rdx
    3277:	0f 86 17 0f 00 00    	jbe    4194 <riscv_dsp_cifft_rd2_q15+0x13e4>
    327d:	66 44 0f 6f 2d 3a 60 	movdqa 0x1603a(%rip),%xmm13        # 192c0 <test_fft_Input_f64_1024+0x2060>
    3284:	01 00 
    3286:	48 89 ca             	mov    %rcx,%rdx
    3289:	48 c1 ea 03          	shr    $0x3,%rdx
    328d:	48 c1 e2 07          	shl    $0x7,%rdx
    3291:	48 01 c2             	add    %rax,%rdx
    3294:	f3 0f 6f 00          	movdqu (%rax),%xmm0
    3298:	f3 44 0f 6f 40 10    	movdqu 0x10(%rax),%xmm8
    329e:	48 83 e8 80          	sub    $0xffffffffffffff80,%rax
    32a2:	f3 0f 6f 60 a0       	movdqu -0x60(%rax),%xmm4
    32a7:	f3 0f 6f 68 b0       	movdqu -0x50(%rax),%xmm5
    32ac:	66 0f 6f f8          	movdqa %xmm0,%xmm7
    32b0:	66 0f 6f c8          	movdqa %xmm0,%xmm1
    32b4:	f3 0f 6f 50 c0       	movdqu -0x40(%rax),%xmm2
    32b9:	66 41 0f 61 c0       	punpcklwd %xmm8,%xmm0
    32be:	66 41 0f 61 f8       	punpcklwd %xmm8,%xmm7
    32c3:	66 41 0f 69 c8       	punpckhwd %xmm8,%xmm1
    32c8:	66 44 0f 6f c4       	movdqa %xmm4,%xmm8
    32cd:	f3 0f 6f 70 d0       	movdqu -0x30(%rax),%xmm6
    32d2:	66 44 0f 6f d7       	movdqa %xmm7,%xmm10
    32d7:	66 44 0f 61 c5       	punpcklwd %xmm5,%xmm8
    32dc:	66 0f 61 f9          	punpcklwd %xmm1,%xmm7
    32e0:	f3 0f 6f 58 e0       	movdqu -0x20(%rax),%xmm3
    32e5:	66 44 0f 69 d1       	punpckhwd %xmm1,%xmm10
    32ea:	66 0f 61 c1          	punpcklwd %xmm1,%xmm0
    32ee:	66 0f 6f cc          	movdqa %xmm4,%xmm1
    32f2:	f3 44 0f 6f 48 f0    	movdqu -0x10(%rax),%xmm9
    32f8:	66 0f 69 cd          	punpckhwd %xmm5,%xmm1
    32fc:	66 41 0f 61 fa       	punpcklwd %xmm10,%xmm7
    3301:	66 41 0f 69 c2       	punpckhwd %xmm10,%xmm0
    3306:	66 0f 61 e5          	punpcklwd %xmm5,%xmm4
    330a:	66 45 0f 6f d0       	movdqa %xmm8,%xmm10
    330f:	66 0f 6f ea          	movdqa %xmm2,%xmm5
    3313:	66 44 0f 69 d1       	punpckhwd %xmm1,%xmm10
    3318:	66 0f 61 ee          	punpcklwd %xmm6,%xmm5
    331c:	66 44 0f 61 c1       	punpcklwd %xmm1,%xmm8
    3321:	66 0f 61 e1          	punpcklwd %xmm1,%xmm4
    3325:	66 0f 6f ca          	movdqa %xmm2,%xmm1
    3329:	66 45 0f 61 c2       	punpcklwd %xmm10,%xmm8
    332e:	66 41 0f 69 e2       	punpckhwd %xmm10,%xmm4
    3333:	66 0f 69 ce          	punpckhwd %xmm6,%xmm1
    3337:	66 44 0f 6f d5       	movdqa %xmm5,%xmm10
    333c:	66 0f 61 d6          	punpcklwd %xmm6,%xmm2
    3340:	66 0f 6f f3          	movdqa %xmm3,%xmm6
    3344:	66 44 0f 69 d1       	punpckhwd %xmm1,%xmm10
    3349:	66 41 0f 61 f1       	punpcklwd %xmm9,%xmm6
    334e:	66 0f 61 e9          	punpcklwd %xmm1,%xmm5
    3352:	66 0f 61 d1          	punpcklwd %xmm1,%xmm2
    3356:	66 0f 6f cb          	movdqa %xmm3,%xmm1
    335a:	66 41 0f 61 ea       	punpcklwd %xmm10,%xmm5
    335f:	66 41 0f 69 d2       	punpckhwd %xmm10,%xmm2
    3364:	66 41 0f 69 c9       	punpckhwd %xmm9,%xmm1
    3369:	66 44 0f 6f d6       	movdqa %xmm6,%xmm10
    336e:	66 41 0f 61 d9       	punpcklwd %xmm9,%xmm3
    3373:	66 44 0f 69 d1       	punpckhwd %xmm1,%xmm10
    3378:	66 0f 61 f1          	punpcklwd %xmm1,%xmm6
    337c:	66 0f 61 d9          	punpcklwd %xmm1,%xmm3
    3380:	66 0f 6f cf          	movdqa %xmm7,%xmm1
    3384:	66 44 0f 6f cf       	movdqa %xmm7,%xmm9
    3389:	66 41 0f 61 f2       	punpcklwd %xmm10,%xmm6
    338e:	66 41 0f 61 c8       	punpcklwd %xmm8,%xmm1
    3393:	66 41 0f 69 da       	punpckhwd %xmm10,%xmm3
    3398:	66 45 0f 69 c8       	punpckhwd %xmm8,%xmm9
    339d:	66 44 0f 6f d1       	movdqa %xmm1,%xmm10
    33a2:	66 41 0f 61 f8       	punpcklwd %xmm8,%xmm7
    33a7:	66 41 0f 61 c9       	punpcklwd %xmm9,%xmm1
    33ac:	66 45 0f 69 d1       	punpckhwd %xmm9,%xmm10
    33b1:	66 41 0f 61 f9       	punpcklwd %xmm9,%xmm7
    33b6:	66 44 0f 6f cd       	movdqa %xmm5,%xmm9
    33bb:	66 44 0f 61 ce       	punpcklwd %xmm6,%xmm9
    33c0:	66 44 0f 6f c5       	movdqa %xmm5,%xmm8
    33c5:	66 41 0f 61 ca       	punpcklwd %xmm10,%xmm1
    33ca:	66 44 0f 69 c6       	punpckhwd %xmm6,%xmm8
    33cf:	66 41 0f 69 fa       	punpckhwd %xmm10,%xmm7
    33d4:	66 0f 61 ee          	punpcklwd %xmm6,%xmm5
    33d8:	66 45 0f 6f d1       	movdqa %xmm9,%xmm10
    33dd:	66 41 0f 61 e8       	punpcklwd %xmm8,%xmm5
    33e2:	66 45 0f 61 c8       	punpcklwd %xmm8,%xmm9
    33e7:	66 45 0f 69 d0       	punpckhwd %xmm8,%xmm10
    33ec:	66 44 0f 6f c0       	movdqa %xmm0,%xmm8
    33f1:	66 0f 6f f0          	movdqa %xmm0,%xmm6
    33f5:	66 44 0f 61 c4       	punpcklwd %xmm4,%xmm8
    33fa:	66 45 0f 61 ca       	punpcklwd %xmm10,%xmm9
    33ff:	66 41 0f 69 ea       	punpckhwd %xmm10,%xmm5
    3404:	66 0f 69 f4          	punpckhwd %xmm4,%xmm6
    3408:	66 45 0f 6f d0       	movdqa %xmm8,%xmm10
    340d:	66 0f 61 c4          	punpcklwd %xmm4,%xmm0
    3411:	66 0f 6f e2          	movdqa %xmm2,%xmm4
    3415:	66 44 0f 69 d6       	punpckhwd %xmm6,%xmm10
    341a:	66 44 0f 61 c6       	punpcklwd %xmm6,%xmm8
    341f:	66 0f 61 e3          	punpcklwd %xmm3,%xmm4
    3423:	66 0f 61 c6          	punpcklwd %xmm6,%xmm0
    3427:	66 0f 6f f2          	movdqa %xmm2,%xmm6
    342b:	66 0f 69 f3          	punpckhwd %xmm3,%xmm6
    342f:	66 45 0f 61 c2       	punpcklwd %xmm10,%xmm8
    3434:	66 41 0f 69 c2       	punpckhwd %xmm10,%xmm0
    3439:	66 0f 61 d3          	punpcklwd %xmm3,%xmm2
    343d:	66 44 0f 6f d4       	movdqa %xmm4,%xmm10
    3442:	66 0f 61 e6          	punpcklwd %xmm6,%xmm4
    3446:	66 44 0f 69 d6       	punpckhwd %xmm6,%xmm10
    344b:	66 0f 61 d6          	punpcklwd %xmm6,%xmm2
    344f:	66 0f 6f f1          	movdqa %xmm1,%xmm6
    3453:	66 41 0f 61 f1       	punpcklwd %xmm9,%xmm6
    3458:	66 0f 6f d9          	movdqa %xmm1,%xmm3
    345c:	66 41 0f 61 e2       	punpcklwd %xmm10,%xmm4
    3461:	66 41 0f 69 d2       	punpckhwd %xmm10,%xmm2
    3466:	66 41 0f 69 d9       	punpckhwd %xmm9,%xmm3
    346b:	66 44 0f 6f d6       	movdqa %xmm6,%xmm10
    3470:	66 41 0f 61 c9       	punpcklwd %xmm9,%xmm1
    3475:	66 44 0f 69 d3       	punpckhwd %xmm3,%xmm10
    347a:	66 0f 61 f3          	punpcklwd %xmm3,%xmm6
    347e:	66 0f 61 cb          	punpcklwd %xmm3,%xmm1
    3482:	66 41 0f 6f d8       	movdqa %xmm8,%xmm3
    3487:	66 45 0f 6f c8       	movdqa %xmm8,%xmm9
    348c:	66 0f 61 dc          	punpcklwd %xmm4,%xmm3
    3490:	66 44 0f 69 cc       	punpckhwd %xmm4,%xmm9
    3495:	66 41 0f 61 f2       	punpcklwd %xmm10,%xmm6
    349a:	66 41 0f 69 ca       	punpckhwd %xmm10,%xmm1
    349f:	66 44 0f 61 c4       	punpcklwd %xmm4,%xmm8
    34a4:	66 44 0f 6f d3       	movdqa %xmm3,%xmm10
    34a9:	66 45 0f 69 d1       	punpckhwd %xmm9,%xmm10
    34ae:	66 41 0f 61 d9       	punpcklwd %xmm9,%xmm3
    34b3:	66 45 0f 61 c1       	punpcklwd %xmm9,%xmm8
    34b8:	66 44 0f 6f cf       	movdqa %xmm7,%xmm9
    34bd:	66 0f 6f e7          	movdqa %xmm7,%xmm4
    34c1:	66 45 0f 69 c2       	punpckhwd %xmm10,%xmm8
    34c6:	66 44 0f 61 cd       	punpcklwd %xmm5,%xmm9
    34cb:	66 0f 69 e5          	punpckhwd %xmm5,%xmm4
    34cf:	66 41 0f 61 da       	punpcklwd %xmm10,%xmm3
    34d4:	66 0f 61 fd          	punpcklwd %xmm5,%xmm7
    34d8:	66 45 0f 6f d1       	movdqa %xmm9,%xmm10
    34dd:	66 0f 6f e8          	movdqa %xmm0,%xmm5
    34e1:	66 44 0f 69 d4       	punpckhwd %xmm4,%xmm10
    34e6:	66 44 0f 61 cc       	punpcklwd %xmm4,%xmm9
    34eb:	66 0f 61 fc          	punpcklwd %xmm4,%xmm7
    34ef:	66 0f 6f e0          	movdqa %xmm0,%xmm4
    34f3:	66 0f 61 ea          	punpcklwd %xmm2,%xmm5
    34f7:	66 0f 61 c2          	punpcklwd %xmm2,%xmm0
    34fb:	66 0f 69 e2          	punpckhwd %xmm2,%xmm4
    34ff:	66 0f ef d2          	pxor   %xmm2,%xmm2
    3503:	66 45 0f 61 ca       	punpcklwd %xmm10,%xmm9
    3508:	66 0f 65 d6          	pcmpgtw %xmm6,%xmm2
    350c:	66 41 0f 69 fa       	punpckhwd %xmm10,%xmm7
    3511:	66 44 0f 6f d5       	movdqa %xmm5,%xmm10
    3516:	66 44 0f 69 d4       	punpckhwd %xmm4,%xmm10
    351b:	66 0f 61 ec          	punpcklwd %xmm4,%xmm5
    351f:	66 0f 61 c4          	punpcklwd %xmm4,%xmm0
    3523:	66 0f 6f e6          	movdqa %xmm6,%xmm4
    3527:	66 45 0f 6f f1       	movdqa %xmm9,%xmm14
    352c:	66 44 0f 6f db       	movdqa %xmm3,%xmm11
    3531:	66 0f 61 e2          	punpcklwd %xmm2,%xmm4
    3535:	66 0f 69 f2          	punpckhwd %xmm2,%xmm6
    3539:	66 0f ef d2          	pxor   %xmm2,%xmm2
    353d:	66 41 0f 65 d1       	pcmpgtw %xmm9,%xmm2
    3542:	66 41 0f 61 ea       	punpcklwd %xmm10,%xmm5
    3547:	66 41 0f 69 c2       	punpckhwd %xmm10,%xmm0
    354c:	66 44 0f 6f d4       	movdqa %xmm4,%xmm10
    3551:	44 0f 29 54 24 a8    	movaps %xmm10,-0x58(%rsp)
    3557:	66 44 0f 61 f2       	punpcklwd %xmm2,%xmm14
    355c:	66 44 0f 69 ca       	punpckhwd %xmm2,%xmm9
    3561:	66 0f ef d2          	pxor   %xmm2,%xmm2
    3565:	66 0f 65 d3          	pcmpgtw %xmm3,%xmm2
    3569:	66 41 0f 6f e1       	movdqa %xmm9,%xmm4
    356e:	0f 29 64 24 b8       	movaps %xmm4,-0x48(%rsp)
    3573:	66 44 0f 61 da       	punpcklwd %xmm2,%xmm11
    3578:	66 0f 69 da          	punpckhwd %xmm2,%xmm3
    357c:	66 0f ef d2          	pxor   %xmm2,%xmm2
    3580:	66 0f 65 d5          	pcmpgtw %xmm5,%xmm2
    3584:	66 44 0f 6f fb       	movdqa %xmm3,%xmm15
    3589:	66 0f 6f dd          	movdqa %xmm5,%xmm3
    358d:	44 0f 29 5c 24 c8    	movaps %xmm11,-0x38(%rsp)
    3593:	66 45 0f 6f e3       	movdqa %xmm11,%xmm12
    3598:	66 0f 61 da          	punpcklwd %xmm2,%xmm3
    359c:	66 0f 69 ea          	punpckhwd %xmm2,%xmm5
    35a0:	66 41 0f 6f d7       	movdqa %xmm15,%xmm2
    35a5:	66 0f fe d5          	paddd  %xmm5,%xmm2
    35a9:	66 44 0f fe e3       	paddd  %xmm3,%xmm12
    35ae:	66 44 0f 6f da       	movdqa %xmm2,%xmm11
    35b3:	66 41 0f 6f d2       	movdqa %xmm10,%xmm2
    35b8:	66 0f fa 5c 24 c8    	psubd  -0x38(%rsp),%xmm3
    35be:	66 44 0f 6f 15 e9 5c 	movdqa 0x15ce9(%rip),%xmm10        # 192b0 <test_fft_Input_f64_1024+0x2050>
    35c5:	01 00 
    35c7:	66 41 0f fe d6       	paddd  %xmm14,%xmm2
    35cc:	66 41 0f 72 f4 01    	pslld  $0x1,%xmm12
    35d2:	66 41 0f fa ef       	psubd  %xmm15,%xmm5
    35d7:	66 0f 72 f2 01       	pslld  $0x1,%xmm2
    35dc:	66 41 0f 72 f3 01    	pslld  $0x1,%xmm11
    35e2:	66 45 0f 6f f8       	movdqa %xmm8,%xmm15
    35e7:	66 0f 72 f3 01       	pslld  $0x1,%xmm3
    35ec:	66 0f 72 f5 01       	pslld  $0x1,%xmm5
    35f1:	66 44 0f 6f ca       	movdqa %xmm2,%xmm9
    35f6:	66 45 0f 66 cd       	pcmpgtd %xmm13,%xmm9
    35fb:	66 41 0f db d1       	pand   %xmm9,%xmm2
    3600:	66 45 0f df cd       	pandn  %xmm13,%xmm9
    3605:	66 44 0f eb ca       	por    %xmm2,%xmm9
    360a:	66 41 0f 6f d1       	movdqa %xmm9,%xmm2
    360f:	66 0f 66 15 99 5c 01 	pcmpgtd 0x15c99(%rip),%xmm2        # 192b0 <test_fft_Input_f64_1024+0x2050>
    3616:	00 
    3617:	66 44 0f db d2       	pand   %xmm2,%xmm10
    361c:	66 41 0f df d1       	pandn  %xmm9,%xmm2
    3621:	66 44 0f 6f cc       	movdqa %xmm4,%xmm9
    3626:	66 0f 6f 25 82 5c 01 	movdqa 0x15c82(%rip),%xmm4        # 192b0 <test_fft_Input_f64_1024+0x2050>
    362d:	00 
    362e:	66 44 0f fe ce       	paddd  %xmm6,%xmm9
    3633:	66 41 0f eb d2       	por    %xmm10,%xmm2
    3638:	66 0f fa 74 24 b8    	psubd  -0x48(%rsp),%xmm6
    363e:	66 41 0f 72 f1 01    	pslld  $0x1,%xmm9
    3644:	66 45 0f 6f d1       	movdqa %xmm9,%xmm10
    3649:	66 0f 72 f6 01       	pslld  $0x1,%xmm6
    364e:	66 45 0f 66 d5       	pcmpgtd %xmm13,%xmm10
    3653:	66 45 0f db ca       	pand   %xmm10,%xmm9
    3658:	66 45 0f df d5       	pandn  %xmm13,%xmm10
    365d:	66 45 0f eb d1       	por    %xmm9,%xmm10
    3662:	66 45 0f 6f ca       	movdqa %xmm10,%xmm9
    3667:	66 44 0f 66 0d 40 5c 	pcmpgtd 0x15c40(%rip),%xmm9        # 192b0 <test_fft_Input_f64_1024+0x2050>
    366e:	01 00 
    3670:	66 41 0f db e1       	pand   %xmm9,%xmm4
    3675:	66 45 0f df ca       	pandn  %xmm10,%xmm9
    367a:	66 44 0f 6f d2       	movdqa %xmm2,%xmm10
    367f:	66 44 0f eb cc       	por    %xmm4,%xmm9
    3684:	66 0f 6f 25 24 5c 01 	movdqa 0x15c24(%rip),%xmm4        # 192b0 <test_fft_Input_f64_1024+0x2050>
    368b:	00 
    368c:	66 41 0f 61 d1       	punpcklwd %xmm9,%xmm2
    3691:	66 45 0f 69 d1       	punpckhwd %xmm9,%xmm10
    3696:	66 44 0f 6f ca       	movdqa %xmm2,%xmm9
    369b:	66 41 0f 61 d2       	punpcklwd %xmm10,%xmm2
    36a0:	66 45 0f 69 ca       	punpckhwd %xmm10,%xmm9
    36a5:	66 41 0f 61 d1       	punpcklwd %xmm9,%xmm2
    36aa:	66 45 0f ef c9       	pxor   %xmm9,%xmm9
    36af:	66 45 0f fa cc       	psubd  %xmm12,%xmm9
    36b4:	66 45 0f 6f d1       	movdqa %xmm9,%xmm10
    36b9:	66 45 0f 66 d5       	pcmpgtd %xmm13,%xmm10
    36be:	66 45 0f db ca       	pand   %xmm10,%xmm9
    36c3:	66 45 0f df d5       	pandn  %xmm13,%xmm10
    36c8:	66 45 0f eb d1       	por    %xmm9,%xmm10
    36cd:	66 44 0f 6f 0d fa 5b 	movdqa 0x15bfa(%rip),%xmm9        # 192d0 <test_fft_Input_f64_1024+0x2070>
    36d4:	01 00 
    36d6:	66 45 0f 66 cc       	pcmpgtd %xmm12,%xmm9
    36db:	66 44 0f 6f 25 cc 5b 	movdqa 0x15bcc(%rip),%xmm12        # 192b0 <test_fft_Input_f64_1024+0x2050>
    36e2:	01 00 
    36e4:	66 45 0f db e1       	pand   %xmm9,%xmm12
    36e9:	66 45 0f df ca       	pandn  %xmm10,%xmm9
    36ee:	66 45 0f ef d2       	pxor   %xmm10,%xmm10
    36f3:	66 45 0f fa d3       	psubd  %xmm11,%xmm10
    36f8:	66 45 0f eb cc       	por    %xmm12,%xmm9
    36fd:	66 45 0f 6f e2       	movdqa %xmm10,%xmm12
    3702:	66 45 0f 66 e5       	pcmpgtd %xmm13,%xmm12
    3707:	66 45 0f db d4       	pand   %xmm12,%xmm10
    370c:	66 45 0f df e5       	pandn  %xmm13,%xmm12
    3711:	66 45 0f eb e2       	por    %xmm10,%xmm12
    3716:	66 44 0f 6f 15 b1 5b 	movdqa 0x15bb1(%rip),%xmm10        # 192d0 <test_fft_Input_f64_1024+0x2070>
    371d:	01 00 
    371f:	66 45 0f 66 d3       	pcmpgtd %xmm11,%xmm10
    3724:	66 44 0f 6f 1d 83 5b 	movdqa 0x15b83(%rip),%xmm11        # 192b0 <test_fft_Input_f64_1024+0x2050>
    372b:	01 00 
    372d:	66 41 0f db e2       	pand   %xmm10,%xmm4
    3732:	66 45 0f df d4       	pandn  %xmm12,%xmm10
    3737:	66 44 0f eb d4       	por    %xmm4,%xmm10
    373c:	66 41 0f 6f e1       	movdqa %xmm9,%xmm4
    3741:	66 45 0f 61 ca       	punpcklwd %xmm10,%xmm9
    3746:	66 41 0f 69 e2       	punpckhwd %xmm10,%xmm4
    374b:	66 45 0f 6f d1       	movdqa %xmm9,%xmm10
    3750:	66 44 0f 61 cc       	punpcklwd %xmm4,%xmm9
    3755:	66 44 0f 69 d4       	punpckhwd %xmm4,%xmm10
    375a:	66 0f 6f 64 24 a8    	movdqa -0x58(%rsp),%xmm4
    3760:	66 45 0f 61 ca       	punpcklwd %xmm10,%xmm9
    3765:	66 41 0f fa e6       	psubd  %xmm14,%xmm4
    376a:	66 44 0f 6f 35 3d 5b 	movdqa 0x15b3d(%rip),%xmm14        # 192b0 <test_fft_Input_f64_1024+0x2050>
    3771:	01 00 
    3773:	66 0f 72 f4 01       	pslld  $0x1,%xmm4
    3778:	66 44 0f 6f d4       	movdqa %xmm4,%xmm10
    377d:	66 45 0f 66 d5       	pcmpgtd %xmm13,%xmm10
    3782:	66 41 0f db e2       	pand   %xmm10,%xmm4
    3787:	66 45 0f df d5       	pandn  %xmm13,%xmm10
    378c:	66 44 0f eb d4       	por    %xmm4,%xmm10
    3791:	66 41 0f 6f e2       	movdqa %xmm10,%xmm4
    3796:	66 0f 66 25 12 5b 01 	pcmpgtd 0x15b12(%rip),%xmm4        # 192b0 <test_fft_Input_f64_1024+0x2050>
    379d:	00 
    379e:	66 44 0f db f4       	pand   %xmm4,%xmm14
    37a3:	66 41 0f df e2       	pandn  %xmm10,%xmm4
    37a8:	66 44 0f 6f d6       	movdqa %xmm6,%xmm10
    37ad:	66 45 0f 66 d5       	pcmpgtd %xmm13,%xmm10
    37b2:	66 41 0f eb e6       	por    %xmm14,%xmm4
    37b7:	66 45 0f 6f f0       	movdqa %xmm8,%xmm14
    37bc:	66 41 0f db f2       	pand   %xmm10,%xmm6
    37c1:	66 45 0f df d5       	pandn  %xmm13,%xmm10
    37c6:	66 44 0f eb d6       	por    %xmm6,%xmm10
    37cb:	66 41 0f 6f f2       	movdqa %xmm10,%xmm6
    37d0:	66 0f 66 35 d8 5a 01 	pcmpgtd 0x15ad8(%rip),%xmm6        # 192b0 <test_fft_Input_f64_1024+0x2050>
    37d7:	00 
    37d8:	66 44 0f db de       	pand   %xmm6,%xmm11
    37dd:	66 41 0f df f2       	pandn  %xmm10,%xmm6
    37e2:	66 44 0f 6f d4       	movdqa %xmm4,%xmm10
    37e7:	66 41 0f eb f3       	por    %xmm11,%xmm6
    37ec:	66 44 0f 6f df       	movdqa %xmm7,%xmm11
    37f1:	66 0f 61 e6          	punpcklwd %xmm6,%xmm4
    37f5:	66 44 0f 69 d6       	punpckhwd %xmm6,%xmm10
    37fa:	66 0f 6f f4          	movdqa %xmm4,%xmm6
    37fe:	66 41 0f 61 e2       	punpcklwd %xmm10,%xmm4
    3803:	66 41 0f 69 f2       	punpckhwd %xmm10,%xmm6
    3808:	66 44 0f 6f 15 9f 5a 	movdqa 0x15a9f(%rip),%xmm10        # 192b0 <test_fft_Input_f64_1024+0x2050>
    380f:	01 00 
    3811:	66 0f 61 e6          	punpcklwd %xmm6,%xmm4
    3815:	66 0f 6f f3          	movdqa %xmm3,%xmm6
    3819:	66 41 0f 66 f5       	pcmpgtd %xmm13,%xmm6
    381e:	66 0f db de          	pand   %xmm6,%xmm3
    3822:	66 41 0f df f5       	pandn  %xmm13,%xmm6
    3827:	66 0f eb f3          	por    %xmm3,%xmm6
    382b:	66 0f 6f de          	movdqa %xmm6,%xmm3
    382f:	66 0f 66 1d 79 5a 01 	pcmpgtd 0x15a79(%rip),%xmm3        # 192b0 <test_fft_Input_f64_1024+0x2050>
    3836:	00 
    3837:	66 44 0f db d3       	pand   %xmm3,%xmm10
    383c:	66 0f df de          	pandn  %xmm6,%xmm3
    3840:	66 0f 6f f5          	movdqa %xmm5,%xmm6
    3844:	66 41 0f 66 f5       	pcmpgtd %xmm13,%xmm6
    3849:	66 41 0f eb da       	por    %xmm10,%xmm3
    384e:	66 44 0f 6f 15 59 5a 	movdqa 0x15a59(%rip),%xmm10        # 192b0 <test_fft_Input_f64_1024+0x2050>
    3855:	01 00 
    3857:	66 0f db ee          	pand   %xmm6,%xmm5
    385b:	66 41 0f df f5       	pandn  %xmm13,%xmm6
    3860:	66 0f eb f5          	por    %xmm5,%xmm6
    3864:	66 0f 6f ee          	movdqa %xmm6,%xmm5
    3868:	66 0f 66 2d 40 5a 01 	pcmpgtd 0x15a40(%rip),%xmm5        # 192b0 <test_fft_Input_f64_1024+0x2050>
    386f:	00 
    3870:	66 44 0f db d5       	pand   %xmm5,%xmm10
    3875:	66 0f df ee          	pandn  %xmm6,%xmm5
    3879:	66 0f 6f f3          	movdqa %xmm3,%xmm6
    387d:	66 41 0f eb ea       	por    %xmm10,%xmm5
    3882:	66 0f 61 dd          	punpcklwd %xmm5,%xmm3
    3886:	66 0f 69 f5          	punpckhwd %xmm5,%xmm6
    388a:	66 0f 6f eb          	movdqa %xmm3,%xmm5
    388e:	66 0f 61 de          	punpcklwd %xmm6,%xmm3
    3892:	66 0f 69 ee          	punpckhwd %xmm6,%xmm5
    3896:	66 0f 6f f1          	movdqa %xmm1,%xmm6
    389a:	66 0f 61 dd          	punpcklwd %xmm5,%xmm3
    389e:	66 0f ef ed          	pxor   %xmm5,%xmm5
    38a2:	66 0f 65 e9          	pcmpgtw %xmm1,%xmm5
    38a6:	66 0f 61 f5          	punpcklwd %xmm5,%xmm6
    38aa:	66 0f 69 cd          	punpckhwd %xmm5,%xmm1
    38ae:	66 0f ef ed          	pxor   %xmm5,%xmm5
    38b2:	66 0f 65 ef          	pcmpgtw %xmm7,%xmm5
    38b6:	0f 29 4c 24 a8       	movaps %xmm1,-0x58(%rsp)
    38bb:	66 44 0f 61 dd       	punpcklwd %xmm5,%xmm11
    38c0:	66 0f 69 fd          	punpckhwd %xmm5,%xmm7
    38c4:	66 0f ef ed          	pxor   %xmm5,%xmm5
    38c8:	66 41 0f 65 e8       	pcmpgtw %xmm8,%xmm5
    38cd:	66 0f 6f cf          	movdqa %xmm7,%xmm1
    38d1:	66 0f ef ff          	pxor   %xmm7,%xmm7
    38d5:	66 0f 65 f8          	pcmpgtw %xmm0,%xmm7
    38d9:	66 44 0f 61 f5       	punpcklwd %xmm5,%xmm14
    38de:	66 44 0f 69 fd       	punpckhwd %xmm5,%xmm15
    38e3:	66 0f 6f e8          	movdqa %xmm0,%xmm5
    38e7:	66 0f 61 ef          	punpcklwd %xmm7,%xmm5
    38eb:	66 0f 69 c7          	punpckhwd %xmm7,%xmm0
    38ef:	66 0f 6f fe          	movdqa %xmm6,%xmm7
    38f3:	44 0f 29 74 24 c8    	movaps %xmm14,-0x38(%rsp)
    38f9:	66 41 0f fe fb       	paddd  %xmm11,%xmm7
    38fe:	66 44 0f fe f5       	paddd  %xmm5,%xmm14
    3903:	66 45 0f 6f e7       	movdqa %xmm15,%xmm12
    3908:	66 0f 72 f7 01       	pslld  $0x1,%xmm7
    390d:	66 41 0f 72 f6 01    	pslld  $0x1,%xmm14
    3913:	66 44 0f fe e0       	paddd  %xmm0,%xmm12
    3918:	66 44 0f 6f c7       	movdqa %xmm7,%xmm8
    391d:	66 41 0f 72 f4 01    	pslld  $0x1,%xmm12
    3923:	66 41 0f fa f3       	psubd  %xmm11,%xmm6
    3928:	66 45 0f 66 c5       	pcmpgtd %xmm13,%xmm8
    392d:	66 0f 72 f6 01       	pslld  $0x1,%xmm6
    3932:	66 41 0f fa c7       	psubd  %xmm15,%xmm0
    3937:	66 0f 72 f0 01       	pslld  $0x1,%xmm0
    393c:	66 41 0f db f8       	pand   %xmm8,%xmm7
    3941:	66 45 0f df c5       	pandn  %xmm13,%xmm8
    3946:	66 44 0f eb c7       	por    %xmm7,%xmm8
    394b:	66 41 0f 6f f8       	movdqa %xmm8,%xmm7
    3950:	66 0f 66 3d 58 59 01 	pcmpgtd 0x15958(%rip),%xmm7        # 192b0 <test_fft_Input_f64_1024+0x2050>
    3957:	00 
    3958:	0f 29 4c 24 b8       	movaps %xmm1,-0x48(%rsp)
    395d:	66 44 0f 6f 15 4a 59 	movdqa 0x1594a(%rip),%xmm10        # 192b0 <test_fft_Input_f64_1024+0x2050>
    3964:	01 00 
    3966:	66 44 0f 6f 1d 41 59 	movdqa 0x15941(%rip),%xmm11        # 192b0 <test_fft_Input_f64_1024+0x2050>
    396d:	01 00 
    396f:	66 0f fa 6c 24 c8    	psubd  -0x38(%rsp),%xmm5
    3975:	66 44 0f db d7       	pand   %xmm7,%xmm10
    397a:	66 0f 72 f5 01       	pslld  $0x1,%xmm5
    397f:	66 41 0f df f8       	pandn  %xmm8,%xmm7
    3984:	66 44 0f 6f 44 24 a8 	movdqa -0x58(%rsp),%xmm8
    398b:	66 41 0f eb fa       	por    %xmm10,%xmm7
    3990:	66 44 0f fe c1       	paddd  %xmm1,%xmm8
    3995:	66 0f 6f 0d 13 59 01 	movdqa 0x15913(%rip),%xmm1        # 192b0 <test_fft_Input_f64_1024+0x2050>
    399c:	00 
    399d:	66 41 0f 72 f0 01    	pslld  $0x1,%xmm8
    39a3:	66 45 0f 6f d0       	movdqa %xmm8,%xmm10
    39a8:	66 45 0f 66 d5       	pcmpgtd %xmm13,%xmm10
    39ad:	66 45 0f db c2       	pand   %xmm10,%xmm8
    39b2:	66 45 0f df d5       	pandn  %xmm13,%xmm10
    39b7:	66 45 0f eb d0       	por    %xmm8,%xmm10
    39bc:	66 45 0f 6f c2       	movdqa %xmm10,%xmm8
    39c1:	66 44 0f 66 05 e6 58 	pcmpgtd 0x158e6(%rip),%xmm8        # 192b0 <test_fft_Input_f64_1024+0x2050>
    39c8:	01 00 
    39ca:	66 41 0f db c8       	pand   %xmm8,%xmm1
    39cf:	66 45 0f df c2       	pandn  %xmm10,%xmm8
    39d4:	66 44 0f 6f d7       	movdqa %xmm7,%xmm10
    39d9:	66 44 0f eb c1       	por    %xmm1,%xmm8
    39de:	66 0f 6f 0d ca 58 01 	movdqa 0x158ca(%rip),%xmm1        # 192b0 <test_fft_Input_f64_1024+0x2050>
    39e5:	00 
    39e6:	66 41 0f 61 f8       	punpcklwd %xmm8,%xmm7
    39eb:	66 45 0f 69 d0       	punpckhwd %xmm8,%xmm10
    39f0:	66 44 0f 6f c7       	movdqa %xmm7,%xmm8
    39f5:	66 41 0f 61 fa       	punpcklwd %xmm10,%xmm7
    39fa:	66 45 0f 69 c2       	punpckhwd %xmm10,%xmm8
    39ff:	66 41 0f 61 f8       	punpcklwd %xmm8,%xmm7
    3a04:	66 45 0f ef c0       	pxor   %xmm8,%xmm8
    3a09:	66 45 0f fa c6       	psubd  %xmm14,%xmm8
    3a0e:	66 45 0f 6f d0       	movdqa %xmm8,%xmm10
    3a13:	66 45 0f 66 d5       	pcmpgtd %xmm13,%xmm10
    3a18:	66 45 0f db c2       	pand   %xmm10,%xmm8
    3a1d:	66 45 0f df d5       	pandn  %xmm13,%xmm10
    3a22:	66 45 0f eb d0       	por    %xmm8,%xmm10
    3a27:	66 44 0f 6f 05 a0 58 	movdqa 0x158a0(%rip),%xmm8        # 192d0 <test_fft_Input_f64_1024+0x2070>
    3a2e:	01 00 
    3a30:	66 45 0f 66 c6       	pcmpgtd %xmm14,%xmm8
    3a35:	66 41 0f db c8       	pand   %xmm8,%xmm1
    3a3a:	66 45 0f df c2       	pandn  %xmm10,%xmm8
    3a3f:	66 45 0f ef d2       	pxor   %xmm10,%xmm10
    3a44:	66 45 0f fa d4       	psubd  %xmm12,%xmm10
    3a49:	66 44 0f eb c1       	por    %xmm1,%xmm8
    3a4e:	66 41 0f 6f ca       	movdqa %xmm10,%xmm1
    3a53:	66 41 0f 66 cd       	pcmpgtd %xmm13,%xmm1
    3a58:	66 44 0f 6f f1       	movdqa %xmm1,%xmm14
    3a5d:	66 44 0f db d1       	pand   %xmm1,%xmm10
    3a62:	66 0f 6f 4c 24 a8    	movdqa -0x58(%rsp),%xmm1
    3a68:	66 0f fa 4c 24 b8    	psubd  -0x48(%rsp),%xmm1
    3a6e:	66 45 0f df f5       	pandn  %xmm13,%xmm14
    3a73:	66 45 0f eb f2       	por    %xmm10,%xmm14
    3a78:	66 0f 72 f1 01       	pslld  $0x1,%xmm1
    3a7d:	66 44 0f 6f 15 4a 58 	movdqa 0x1584a(%rip),%xmm10        # 192d0 <test_fft_Input_f64_1024+0x2070>
    3a84:	01 00 
    3a86:	66 45 0f 66 d4       	pcmpgtd %xmm12,%xmm10
    3a8b:	66 44 0f 6f 25 1c 58 	movdqa 0x1581c(%rip),%xmm12        # 192b0 <test_fft_Input_f64_1024+0x2050>
    3a92:	01 00 
    3a94:	66 45 0f db e2       	pand   %xmm10,%xmm12
    3a99:	66 45 0f df d6       	pandn  %xmm14,%xmm10
    3a9e:	66 45 0f eb d4       	por    %xmm12,%xmm10
    3aa3:	66 45 0f 6f e0       	movdqa %xmm8,%xmm12
    3aa8:	66 45 0f 61 c2       	punpcklwd %xmm10,%xmm8
    3aad:	66 45 0f 69 e2       	punpckhwd %xmm10,%xmm12
    3ab2:	66 45 0f 6f d0       	movdqa %xmm8,%xmm10
    3ab7:	66 45 0f 61 c4       	punpcklwd %xmm12,%xmm8
    3abc:	66 45 0f 69 d4       	punpckhwd %xmm12,%xmm10
    3ac1:	66 45 0f 61 c2       	punpcklwd %xmm10,%xmm8
    3ac6:	66 44 0f 6f d6       	movdqa %xmm6,%xmm10
    3acb:	66 45 0f 66 d5       	pcmpgtd %xmm13,%xmm10
    3ad0:	66 41 0f db f2       	pand   %xmm10,%xmm6
    3ad5:	66 45 0f df d5       	pandn  %xmm13,%xmm10
    3ada:	66 44 0f eb d6       	por    %xmm6,%xmm10
    3adf:	66 41 0f 6f f2       	movdqa %xmm10,%xmm6
    3ae4:	66 0f 66 35 c4 57 01 	pcmpgtd 0x157c4(%rip),%xmm6        # 192b0 <test_fft_Input_f64_1024+0x2050>
    3aeb:	00 
    3aec:	66 44 0f db de       	pand   %xmm6,%xmm11
    3af1:	66 41 0f df f2       	pandn  %xmm10,%xmm6
    3af6:	66 44 0f 6f d1       	movdqa %xmm1,%xmm10
    3afb:	66 45 0f 66 d5       	pcmpgtd %xmm13,%xmm10
    3b00:	66 41 0f eb f3       	por    %xmm11,%xmm6
    3b05:	66 44 0f 6f 1d a2 57 	movdqa 0x157a2(%rip),%xmm11        # 192b0 <test_fft_Input_f64_1024+0x2050>
    3b0c:	01 00 
    3b0e:	66 41 0f db ca       	pand   %xmm10,%xmm1
    3b13:	66 45 0f df d5       	pandn  %xmm13,%xmm10
    3b18:	66 44 0f eb d1       	por    %xmm1,%xmm10
    3b1d:	66 41 0f 6f ca       	movdqa %xmm10,%xmm1
    3b22:	66 0f 66 0d 86 57 01 	pcmpgtd 0x15786(%rip),%xmm1        # 192b0 <test_fft_Input_f64_1024+0x2050>
    3b29:	00 
    3b2a:	66 44 0f db d9       	pand   %xmm1,%xmm11
    3b2f:	66 41 0f df ca       	pandn  %xmm10,%xmm1
    3b34:	66 44 0f 6f d6       	movdqa %xmm6,%xmm10
    3b39:	66 41 0f eb cb       	por    %xmm11,%xmm1
    3b3e:	66 0f 61 f1          	punpcklwd %xmm1,%xmm6
    3b42:	66 44 0f 69 d1       	punpckhwd %xmm1,%xmm10
    3b47:	66 0f 6f ce          	movdqa %xmm6,%xmm1
    3b4b:	66 41 0f 61 f2       	punpcklwd %xmm10,%xmm6
    3b50:	66 41 0f 69 ca       	punpckhwd %xmm10,%xmm1
    3b55:	66 44 0f 6f 15 52 57 	movdqa 0x15752(%rip),%xmm10        # 192b0 <test_fft_Input_f64_1024+0x2050>
    3b5c:	01 00 
    3b5e:	66 0f 61 f1          	punpcklwd %xmm1,%xmm6
    3b62:	66 0f 6f cd          	movdqa %xmm5,%xmm1
    3b66:	66 41 0f 66 cd       	pcmpgtd %xmm13,%xmm1
    3b6b:	66 0f db e9          	pand   %xmm1,%xmm5
    3b6f:	66 41 0f df cd       	pandn  %xmm13,%xmm1
    3b74:	66 0f eb cd          	por    %xmm5,%xmm1
    3b78:	66 0f 6f e9          	movdqa %xmm1,%xmm5
    3b7c:	66 0f 66 2d 2c 57 01 	pcmpgtd 0x1572c(%rip),%xmm5        # 192b0 <test_fft_Input_f64_1024+0x2050>
    3b83:	00 
    3b84:	66 44 0f db d5       	pand   %xmm5,%xmm10
    3b89:	66 0f df e9          	pandn  %xmm1,%xmm5
    3b8d:	66 0f 6f c8          	movdqa %xmm0,%xmm1
    3b91:	66 41 0f 66 cd       	pcmpgtd %xmm13,%xmm1
    3b96:	66 41 0f eb ea       	por    %xmm10,%xmm5
    3b9b:	66 44 0f 6f 15 0c 57 	movdqa 0x1570c(%rip),%xmm10        # 192b0 <test_fft_Input_f64_1024+0x2050>
    3ba2:	01 00 
    3ba4:	66 0f db c1          	pand   %xmm1,%xmm0
    3ba8:	66 41 0f df cd       	pandn  %xmm13,%xmm1
    3bad:	66 0f eb c8          	por    %xmm0,%xmm1
    3bb1:	66 0f 6f c1          	movdqa %xmm1,%xmm0
    3bb5:	66 0f 66 05 f3 56 01 	pcmpgtd 0x156f3(%rip),%xmm0        # 192b0 <test_fft_Input_f64_1024+0x2050>
    3bbc:	00 
    3bbd:	66 44 0f db d0       	pand   %xmm0,%xmm10
    3bc2:	66 0f df c1          	pandn  %xmm1,%xmm0
    3bc6:	66 0f 6f cd          	movdqa %xmm5,%xmm1
    3bca:	66 41 0f eb c2       	por    %xmm10,%xmm0
    3bcf:	66 0f 61 e8          	punpcklwd %xmm0,%xmm5
    3bd3:	66 0f 69 c8          	punpckhwd %xmm0,%xmm1
    3bd7:	66 0f 6f c5          	movdqa %xmm5,%xmm0
    3bdb:	66 0f 61 e9          	punpcklwd %xmm1,%xmm5
    3bdf:	66 0f 69 c1          	punpckhwd %xmm1,%xmm0
    3be3:	66 0f 6f ca          	movdqa %xmm2,%xmm1
    3be7:	66 0f 69 d7          	punpckhwd %xmm7,%xmm2
    3beb:	66 0f 61 e8          	punpcklwd %xmm0,%xmm5
    3bef:	66 41 0f 6f c1       	movdqa %xmm9,%xmm0
    3bf4:	66 0f 61 cf          	punpcklwd %xmm7,%xmm1
    3bf8:	66 41 0f 61 c0       	punpcklwd %xmm8,%xmm0
    3bfd:	66 45 0f 69 c8       	punpckhwd %xmm8,%xmm9
    3c02:	66 0f 6f fc          	movdqa %xmm4,%xmm7
    3c06:	66 44 0f 6f c3       	movdqa %xmm3,%xmm8
    3c0b:	66 0f 61 fe          	punpcklwd %xmm6,%xmm7
    3c0f:	66 0f 69 e6          	punpckhwd %xmm6,%xmm4
    3c13:	66 0f 69 dd          	punpckhwd %xmm5,%xmm3
    3c17:	66 44 0f 61 c5       	punpcklwd %xmm5,%xmm8
    3c1c:	66 0f 6f f1          	movdqa %xmm1,%xmm6
    3c20:	66 0f 6f e9          	movdqa %xmm1,%xmm5
    3c24:	66 0f 6f ca          	movdqa %xmm2,%xmm1
    3c28:	66 0f 61 f7          	punpcklwd %xmm7,%xmm6
    3c2c:	66 0f 69 ef          	punpckhwd %xmm7,%xmm5
    3c30:	66 0f 61 cc          	punpcklwd %xmm4,%xmm1
    3c34:	66 0f 69 d4          	punpckhwd %xmm4,%xmm2
    3c38:	66 0f 6f f8          	movdqa %xmm0,%xmm7
    3c3c:	66 41 0f 6f e1       	movdqa %xmm9,%xmm4
    3c41:	66 44 0f 69 cb       	punpckhwd %xmm3,%xmm9
    3c46:	66 0f 61 e3          	punpcklwd %xmm3,%xmm4
    3c4a:	66 41 0f 61 f8       	punpcklwd %xmm8,%xmm7
    3c4f:	66 0f 6f de          	movdqa %xmm6,%xmm3
    3c53:	66 0f 61 df          	punpcklwd %xmm7,%xmm3
    3c57:	66 41 0f 69 c0       	punpckhwd %xmm8,%xmm0
    3c5c:	66 0f 69 f7          	punpckhwd %xmm7,%xmm6
    3c60:	0f 11 58 80          	movups %xmm3,-0x80(%rax)
    3c64:	66 0f 6f dd          	movdqa %xmm5,%xmm3
    3c68:	66 0f 69 e8          	punpckhwd %xmm0,%xmm5
    3c6c:	66 0f 61 d8          	punpcklwd %xmm0,%xmm3
    3c70:	66 0f 6f c1          	movdqa %xmm1,%xmm0
    3c74:	66 0f 69 cc          	punpckhwd %xmm4,%xmm1
    3c78:	0f 11 70 90          	movups %xmm6,-0x70(%rax)
    3c7c:	66 0f 61 c4          	punpcklwd %xmm4,%xmm0
    3c80:	0f 11 58 a0          	movups %xmm3,-0x60(%rax)
    3c84:	0f 11 40 c0          	movups %xmm0,-0x40(%rax)
    3c88:	66 0f 6f c2          	movdqa %xmm2,%xmm0
    3c8c:	66 41 0f 69 d1       	punpckhwd %xmm9,%xmm2
    3c91:	66 41 0f 61 c1       	punpcklwd %xmm9,%xmm0
    3c96:	0f 11 68 b0          	movups %xmm5,-0x50(%rax)
    3c9a:	0f 11 48 d0          	movups %xmm1,-0x30(%rax)
    3c9e:	0f 11 40 e0          	movups %xmm0,-0x20(%rax)
    3ca2:	0f 11 50 f0          	movups %xmm2,-0x10(%rax)
    3ca6:	48 39 d0             	cmp    %rdx,%rax
    3ca9:	0f 85 e5 f5 ff ff    	jne    3294 <riscv_dsp_cifft_rd2_q15+0x4e4>
    3caf:	48 89 c8             	mov    %rcx,%rax
    3cb2:	48 83 e0 f8          	and    $0xfffffffffffffff8,%rax
    3cb6:	48 89 c2             	mov    %rax,%rdx
    3cb9:	48 c1 e2 04          	shl    $0x4,%rdx
    3cbd:	48 03 54 24 d8       	add    -0x28(%rsp),%rdx
    3cc2:	48 39 c8             	cmp    %rcx,%rax
    3cc5:	0f 84 4c 01 00 00    	je     3e17 <riscv_dsp_cifft_rd2_q15+0x1067>
    3ccb:	bd ff 7f 00 00       	mov    $0x7fff,%ebp
    3cd0:	0f bf 32             	movswl (%rdx),%esi
    3cd3:	44 0f bf 7a 04       	movswl 0x4(%rdx),%r15d
    3cd8:	41 b9 00 80 ff ff    	mov    $0xffff8000,%r9d
    3cde:	0f bf 7a 02          	movswl 0x2(%rdx),%edi
    3ce2:	0f bf 4a 06          	movswl 0x6(%rdx),%ecx
    3ce6:	41 8d 04 37          	lea    (%r15,%rsi,1),%eax
    3cea:	44 0f bf 52 0a       	movswl 0xa(%rdx),%r10d
    3cef:	0f bf 5a 0c          	movswl 0xc(%rdx),%ebx
    3cf3:	44 8d 04 39          	lea    (%rcx,%rdi,1),%r8d
    3cf7:	01 c0                	add    %eax,%eax
    3cf9:	45 01 c0             	add    %r8d,%r8d
    3cfc:	44 39 c8             	cmp    %r9d,%eax
    3cff:	41 0f 4c c1          	cmovl  %r9d,%eax
    3d03:	41 b9 ff 7f 00 00    	mov    $0x7fff,%r9d
    3d09:	45 89 c3             	mov    %r8d,%r11d
    3d0c:	44 39 c8             	cmp    %r9d,%eax
    3d0f:	41 0f 4f c1          	cmovg  %r9d,%eax
    3d13:	41 f7 db             	neg    %r11d
    3d16:	44 0f bf 4a 08       	movswl 0x8(%rdx),%r9d
    3d1b:	66 89 02             	mov    %ax,(%rdx)
    3d1e:	b8 00 80 ff ff       	mov    $0xffff8000,%eax
    3d23:	41 39 c3             	cmp    %eax,%r11d
    3d26:	44 0f 4c d8          	cmovl  %eax,%r11d
    3d2a:	41 81 f8 01 80 ff ff 	cmp    $0xffff8001,%r8d
    3d31:	44 0f bf 42 0e       	movswl 0xe(%rdx),%r8d
    3d36:	44 0f 4c dd          	cmovl  %ebp,%r11d
    3d3a:	44 29 fe             	sub    %r15d,%esi
    3d3d:	47 8d 2c 10          	lea    (%r8,%r10,1),%r13d
    3d41:	01 f6                	add    %esi,%esi
    3d43:	45 01 ed             	add    %r13d,%r13d
    3d46:	39 c6                	cmp    %eax,%esi
    3d48:	45 0f b7 db          	movzwl %r11w,%r11d
    3d4c:	0f 4c f0             	cmovl  %eax,%esi
    3d4f:	b8 ff 7f 00 00       	mov    $0x7fff,%eax
    3d54:	39 c6                	cmp    %eax,%esi
    3d56:	0f 4f f0             	cmovg  %eax,%esi
    3d59:	29 f9                	sub    %edi,%ecx
    3d5b:	b8 00 80 ff ff       	mov    $0xffff8000,%eax
    3d60:	01 c9                	add    %ecx,%ecx
    3d62:	39 c1                	cmp    %eax,%ecx
    3d64:	0f b7 f6             	movzwl %si,%esi
    3d67:	0f 4c c8             	cmovl  %eax,%ecx
    3d6a:	b8 ff 7f 00 00       	mov    $0x7fff,%eax
    3d6f:	39 c1                	cmp    %eax,%ecx
    3d71:	0f 4f c8             	cmovg  %eax,%ecx
    3d74:	42 8d 04 0b          	lea    (%rbx,%r9,1),%eax
    3d78:	8d 3c 00             	lea    (%rax,%rax,1),%edi
    3d7b:	b8 00 80 ff ff       	mov    $0xffff8000,%eax
    3d80:	39 c7                	cmp    %eax,%edi
    3d82:	0f 4c f8             	cmovl  %eax,%edi
    3d85:	b8 ff 7f 00 00       	mov    $0x7fff,%eax
    3d8a:	39 c7                	cmp    %eax,%edi
    3d8c:	0f 4f f8             	cmovg  %eax,%edi
    3d8f:	0f b7 c7             	movzwl %di,%eax
    3d92:	0f b7 f9             	movzwl %cx,%edi
    3d95:	b9 00 80 ff ff       	mov    $0xffff8000,%ecx
    3d9a:	48 c1 e0 10          	shl    $0x10,%rax
    3d9e:	48 09 f8             	or     %rdi,%rax
    3da1:	48 c1 e0 10          	shl    $0x10,%rax
    3da5:	48 09 f0             	or     %rsi,%rax
    3da8:	48 c1 e0 10          	shl    $0x10,%rax
    3dac:	4c 09 d8             	or     %r11,%rax
    3daf:	48 89 42 02          	mov    %rax,0x2(%rdx)
    3db3:	44 89 e8             	mov    %r13d,%eax
    3db6:	f7 d8                	neg    %eax
    3db8:	39 c8                	cmp    %ecx,%eax
    3dba:	0f 4c c1             	cmovl  %ecx,%eax
    3dbd:	41 81 fd 00 80 ff ff 	cmp    $0xffff8000,%r13d
    3dc4:	44 89 c9             	mov    %r9d,%ecx
    3dc7:	0f 4e c5             	cmovle %ebp,%eax
    3dca:	29 d9                	sub    %ebx,%ecx
    3dcc:	01 c9                	add    %ecx,%ecx
    3dce:	66 89 42 0a          	mov    %ax,0xa(%rdx)
    3dd2:	b8 00 80 ff ff       	mov    $0xffff8000,%eax
    3dd7:	39 c1                	cmp    %eax,%ecx
    3dd9:	0f 4c c8             	cmovl  %eax,%ecx
    3ddc:	b8 ff 7f 00 00       	mov    $0x7fff,%eax
    3de1:	39 c1                	cmp    %eax,%ecx
    3de3:	0f 4f c8             	cmovg  %eax,%ecx
    3de6:	44 89 c0             	mov    %r8d,%eax
    3de9:	44 29 d0             	sub    %r10d,%eax
    3dec:	66 89 4a 0c          	mov    %cx,0xc(%rdx)
    3df0:	01 c0                	add    %eax,%eax
    3df2:	b9 00 80 ff ff       	mov    $0xffff8000,%ecx
    3df7:	39 c8                	cmp    %ecx,%eax
    3df9:	0f 4c c1             	cmovl  %ecx,%eax
    3dfc:	b9 ff 7f 00 00       	mov    $0x7fff,%ecx
    3e01:	39 c8                	cmp    %ecx,%eax
    3e03:	0f 4f c1             	cmovg  %ecx,%eax
    3e06:	48 83 c2 10          	add    $0x10,%rdx
    3e0a:	66 89 42 fe          	mov    %ax,-0x2(%rdx)
    3e0e:	49 39 d4             	cmp    %rdx,%r12
    3e11:	0f 85 b9 fe ff ff    	jne    3cd0 <riscv_dsp_cifft_rd2_q15+0xf20>
    3e17:	48 8b 5c 24 d8       	mov    -0x28(%rsp),%rbx
    3e1c:	8b 44 24 f4          	mov    -0xc(%rsp),%eax
    3e20:	4a 8d 7c 33 fe       	lea    -0x2(%rbx,%r14,1),%rdi
    3e25:	41 89 c6             	mov    %eax,%r14d
    3e28:	0f b7 4b 04          	movzwl 0x4(%rbx),%ecx
    3e2c:	41 d1 ee             	shr    %r14d
    3e2f:	45 89 f1             	mov    %r14d,%r9d
    3e32:	41 89 c6             	mov    %eax,%r14d
    3e35:	83 e0 fe             	and    $0xfffffffe,%eax
    3e38:	89 c2                	mov    %eax,%edx
    3e3a:	83 c0 01             	add    $0x1,%eax
    3e3d:	48 8d 14 53          	lea    (%rbx,%rdx,2),%rdx
    3e41:	48 8d 04 43          	lea    (%rbx,%rax,2),%rax
    3e45:	0f b7 32             	movzwl (%rdx),%esi
    3e48:	66 89 73 04          	mov    %si,0x4(%rbx)
    3e4c:	48 89 de             	mov    %rbx,%rsi
    3e4f:	66 89 0a             	mov    %cx,(%rdx)
    3e52:	0f b7 53 06          	movzwl 0x6(%rbx),%edx
    3e56:	0f b7 08             	movzwl (%rax),%ecx
    3e59:	66 89 4b 06          	mov    %cx,0x6(%rbx)
    3e5d:	44 89 cb             	mov    %r9d,%ebx
    3e60:	b9 04 00 00 00       	mov    $0x4,%ecx
    3e65:	66 89 10             	mov    %dx,(%rax)
    3e68:	44 89 f0             	mov    %r14d,%eax
    3e6b:	41 c1 ee 02          	shr    $0x2,%r14d
    3e6f:	ba 04 00 00 00       	mov    $0x4,%edx
    3e74:	44 31 f3             	xor    %r14d,%ebx
    3e77:	45 89 f2             	mov    %r14d,%r10d
    3e7a:	41 89 c6             	mov    %eax,%r14d
    3e7d:	44 89 c8             	mov    %r9d,%eax
    3e80:	41 c1 ee 03          	shr    $0x3,%r14d
    3e84:	44 89 f5             	mov    %r14d,%ebp
    3e87:	45 89 f3             	mov    %r14d,%r11d
    3e8a:	31 dd                	xor    %ebx,%ebp
    3e8c:	89 6c 24 a8          	mov    %ebp,-0x58(%rsp)
    3e90:	31 d8                	xor    %ebx,%eax
    3e92:	41 85 c2             	test   %eax,%r10d
    3e95:	75 14                	jne    3eab <riscv_dsp_cifft_rd2_q15+0x10fb>
    3e97:	45 89 d0             	mov    %r10d,%r8d
    3e9a:	66 0f 1f 44 00 00    	nopw   0x0(%rax,%rax,1)
    3ea0:	41 d1 e8             	shr    %r8d
    3ea3:	44 31 c0             	xor    %r8d,%eax
    3ea6:	41 85 c0             	test   %eax,%r8d
    3ea9:	74 f5                	je     3ea0 <riscv_dsp_cifft_rd2_q15+0x10f0>
    3eab:	44 8d 41 fe          	lea    -0x2(%rcx),%r8d
    3eaf:	41 39 c0             	cmp    %eax,%r8d
    3eb2:	0f 83 97 00 00 00    	jae    3f4f <riscv_dsp_cifft_rd2_q15+0x119f>
    3eb8:	41 89 d0             	mov    %edx,%r8d
    3ebb:	8d 2c 00             	lea    (%rax,%rax,1),%ebp
    3ebe:	4e 8d 24 46          	lea    (%rsi,%r8,2),%r12
    3ec2:	49 89 e8             	mov    %rbp,%r8
    3ec5:	48 8d 2c 6e          	lea    (%rsi,%rbp,2),%rbp
    3ec9:	45 0f b7 2c 24       	movzwl (%r12),%r13d
    3ece:	44 0f b7 75 00       	movzwl 0x0(%rbp),%r14d
    3ed3:	41 83 c0 01          	add    $0x1,%r8d
    3ed7:	4e 8d 04 46          	lea    (%rsi,%r8,2),%r8
    3edb:	66 45 89 34 24       	mov    %r14w,(%r12)
    3ee0:	66 44 89 6d 00       	mov    %r13w,0x0(%rbp)
    3ee5:	8d 6a 01             	lea    0x1(%rdx),%ebp
    3ee8:	45 0f b7 28          	movzwl (%r8),%r13d
    3eec:	48 8d 2c 6e          	lea    (%rsi,%rbp,2),%rbp
    3ef0:	44 0f b7 65 00       	movzwl 0x0(%rbp),%r12d
    3ef5:	66 44 89 6d 00       	mov    %r13w,0x0(%rbp)
    3efa:	89 d5                	mov    %edx,%ebp
    3efc:	f7 dd                	neg    %ebp
    3efe:	66 45 89 20          	mov    %r12w,(%r8)
    3f02:	41 89 c0             	mov    %eax,%r8d
    3f05:	48 63 ed             	movslq %ebp,%rbp
    3f08:	41 f7 d8             	neg    %r8d
    3f0b:	48 01 ed             	add    %rbp,%rbp
    3f0e:	45 01 c0             	add    %r8d,%r8d
    3f11:	4c 8d 2c 2f          	lea    (%rdi,%rbp,1),%r13
    3f15:	48 8d 6c 2f fe       	lea    -0x2(%rdi,%rbp,1),%rbp
    3f1a:	4d 63 c0             	movslq %r8d,%r8
    3f1d:	45 0f b7 75 00       	movzwl 0x0(%r13),%r14d
    3f22:	4d 01 c0             	add    %r8,%r8
    3f25:	4e 8d 24 07          	lea    (%rdi,%r8,1),%r12
    3f29:	4e 8d 44 07 fe       	lea    -0x2(%rdi,%r8,1),%r8
    3f2e:	45 0f b7 3c 24       	movzwl (%r12),%r15d
    3f33:	66 45 89 7d 00       	mov    %r15w,0x0(%r13)
    3f38:	66 45 89 34 24       	mov    %r14w,(%r12)
    3f3d:	44 0f b7 65 00       	movzwl 0x0(%rbp),%r12d
    3f42:	45 0f b7 28          	movzwl (%r8),%r13d
    3f46:	66 44 89 6d 00       	mov    %r13w,0x0(%rbp)
    3f4b:	66 45 89 20          	mov    %r12w,(%r8)
    3f4f:	44 01 c8             	add    %r9d,%eax
    3f52:	44 8d 42 02          	lea    0x2(%rdx),%r8d
    3f56:	8d 2c 00             	lea    (%rax,%rax,1),%ebp
    3f59:	4e 8d 24 46          	lea    (%rsi,%r8,2),%r12
    3f5d:	49 89 e8             	mov    %rbp,%r8
    3f60:	48 8d 2c 6e          	lea    (%rsi,%rbp,2),%rbp
    3f64:	45 0f b7 2c 24       	movzwl (%r12),%r13d
    3f69:	44 0f b7 75 00       	movzwl 0x0(%rbp),%r14d
    3f6e:	41 83 c0 01          	add    $0x1,%r8d
    3f72:	4e 8d 04 46          	lea    (%rsi,%r8,2),%r8
    3f76:	66 45 89 34 24       	mov    %r14w,(%r12)
    3f7b:	66 44 89 6d 00       	mov    %r13w,0x0(%rbp)
    3f80:	8d 6a 03             	lea    0x3(%rdx),%ebp
    3f83:	45 0f b7 28          	movzwl (%r8),%r13d
    3f87:	48 8d 2c 6e          	lea    (%rsi,%rbp,2),%rbp
    3f8b:	44 0f b7 65 00       	movzwl 0x0(%rbp),%r12d
    3f90:	66 44 89 6d 00       	mov    %r13w,0x0(%rbp)
    3f95:	66 45 89 20          	mov    %r12w,(%r8)
    3f99:	44 39 c9             	cmp    %r9d,%ecx
    3f9c:	0f 83 d6 01 00 00    	jae    4178 <riscv_dsp_cifft_rd2_q15+0x13c8>
    3fa2:	33 44 24 a8          	xor    -0x58(%rsp),%eax
    3fa6:	41 85 c3             	test   %eax,%r11d
    3fa9:	75 10                	jne    3fbb <riscv_dsp_cifft_rd2_q15+0x120b>
    3fab:	45 89 d8             	mov    %r11d,%r8d
    3fae:	66 90                	xchg   %ax,%ax
    3fb0:	41 d1 e8             	shr    %r8d
    3fb3:	44 31 c0             	xor    %r8d,%eax
    3fb6:	41 85 c0             	test   %eax,%r8d
    3fb9:	74 f5                	je     3fb0 <riscv_dsp_cifft_rd2_q15+0x1200>
    3fbb:	39 c8                	cmp    %ecx,%eax
    3fbd:	0f 86 9b 00 00 00    	jbe    405e <riscv_dsp_cifft_rd2_q15+0x12ae>
    3fc3:	44 8d 42 04          	lea    0x4(%rdx),%r8d
    3fc7:	8d 2c 00             	lea    (%rax,%rax,1),%ebp
    3fca:	4e 8d 24 46          	lea    (%rsi,%r8,2),%r12
    3fce:	49 89 e8             	mov    %rbp,%r8
    3fd1:	48 8d 2c 6e          	lea    (%rsi,%rbp,2),%rbp
    3fd5:	45 0f b7 2c 24       	movzwl (%r12),%r13d
    3fda:	44 0f b7 75 00       	movzwl 0x0(%rbp),%r14d
    3fdf:	41 83 c0 01          	add    $0x1,%r8d
    3fe3:	4e 8d 04 46          	lea    (%rsi,%r8,2),%r8
    3fe7:	66 45 89 34 24       	mov    %r14w,(%r12)
    3fec:	66 44 89 6d 00       	mov    %r13w,0x0(%rbp)
    3ff1:	8d 6a 05             	lea    0x5(%rdx),%ebp
    3ff4:	45 0f b7 28          	movzwl (%r8),%r13d
    3ff8:	48 8d 2c 6e          	lea    (%rsi,%rbp,2),%rbp
    3ffc:	44 0f b7 65 00       	movzwl 0x0(%rbp),%r12d
    4001:	66 44 89 6d 00       	mov    %r13w,0x0(%rbp)
    4006:	bd fc ff ff ff       	mov    $0xfffffffc,%ebp
    400b:	29 d5                	sub    %edx,%ebp
    400d:	66 45 89 20          	mov    %r12w,(%r8)
    4011:	41 89 c0             	mov    %eax,%r8d
    4014:	48 63 ed             	movslq %ebp,%rbp
    4017:	41 f7 d8             	neg    %r8d
    401a:	48 01 ed             	add    %rbp,%rbp
    401d:	45 01 c0             	add    %r8d,%r8d
    4020:	4c 8d 2c 2f          	lea    (%rdi,%rbp,1),%r13
    4024:	48 8d 6c 2f fe       	lea    -0x2(%rdi,%rbp,1),%rbp
    4029:	4d 63 c0             	movslq %r8d,%r8
    402c:	45 0f b7 75 00       	movzwl 0x0(%r13),%r14d
    4031:	4d 01 c0             	add    %r8,%r8
    4034:	4e 8d 24 07          	lea    (%rdi,%r8,1),%r12
    4038:	4e 8d 44 07 fe       	lea    -0x2(%rdi,%r8,1),%r8
    403d:	45 0f b7 3c 24       	movzwl (%r12),%r15d
    4042:	66 45 89 7d 00       	mov    %r15w,0x0(%r13)
    4047:	66 45 89 34 24       	mov    %r14w,(%r12)
    404c:	44 0f b7 65 00       	movzwl 0x0(%rbp),%r12d
    4051:	45 0f b7 28          	movzwl (%r8),%r13d
    4055:	66 44 89 6d 00       	mov    %r13w,0x0(%rbp)
    405a:	66 45 89 20          	mov    %r12w,(%r8)
    405e:	44 01 c8             	add    %r9d,%eax
    4061:	44 8d 42 06          	lea    0x6(%rdx),%r8d
    4065:	83 c1 04             	add    $0x4,%ecx
    4068:	8d 2c 00             	lea    (%rax,%rax,1),%ebp
    406b:	4e 8d 24 46          	lea    (%rsi,%r8,2),%r12
    406f:	49 89 e8             	mov    %rbp,%r8
    4072:	48 8d 2c 6e          	lea    (%rsi,%rbp,2),%rbp
    4076:	45 0f b7 2c 24       	movzwl (%r12),%r13d
    407b:	44 0f b7 75 00       	movzwl 0x0(%rbp),%r14d
    4080:	41 83 c0 01          	add    $0x1,%r8d
    4084:	4e 8d 04 46          	lea    (%rsi,%r8,2),%r8
    4088:	66 45 89 34 24       	mov    %r14w,(%r12)
    408d:	66 44 89 6d 00       	mov    %r13w,0x0(%rbp)
    4092:	8d 6a 07             	lea    0x7(%rdx),%ebp
    4095:	45 0f b7 28          	movzwl (%r8),%r13d
    4099:	83 c2 08             	add    $0x8,%edx
    409c:	48 8d 2c 6e          	lea    (%rsi,%rbp,2),%rbp
    40a0:	44 0f b7 65 00       	movzwl 0x0(%rbp),%r12d
    40a5:	66 44 89 6d 00       	mov    %r13w,0x0(%rbp)
    40aa:	66 45 89 20          	mov    %r12w,(%r8)
    40ae:	e9 dd fd ff ff       	jmp    3e90 <riscv_dsp_cifft_rd2_q15+0x10e0>
    40b3:	0f 1f 44 00 00       	nopl   0x0(%rax,%rax,1)
    40b8:	8d 90 00 ff ff ff    	lea    -0x100(%rax),%edx
    40be:	b9 00 01 00 00       	mov    $0x100,%ecx
    40c3:	29 d1                	sub    %edx,%ecx
    40c5:	85 c9                	test   %ecx,%ecx
    40c7:	7e 27                	jle    40f0 <riscv_dsp_cifft_rd2_q15+0x1340>
    40c9:	48 8d 05 b4 56 01 00 	lea    0x156b4(%rip),%rax        # 19784 <riscv_dsp_cos_table_q15_1024+0x4>
    40d0:	48 63 c9             	movslq %ecx,%rcx
    40d3:	48 63 d2             	movslq %edx,%rdx
    40d6:	44 0f b7 1c 48       	movzwl (%rax,%rcx,2),%r11d
    40db:	0f b7 1c 50          	movzwl (%rax,%rdx,2),%ebx
    40df:	41 f7 db             	neg    %r11d
    40e2:	e9 c2 f0 ff ff       	jmp    31a9 <riscv_dsp_cifft_rd2_q15+0x3f9>
    40e7:	66 0f 1f 84 00 00 00 	nopw   0x0(%rax,%rax,1)
    40ee:	00 00 
    40f0:	2d 00 02 00 00       	sub    $0x200,%eax
    40f5:	ba 00 01 00 00       	mov    $0x100,%edx
    40fa:	48 8d 1d 83 56 01 00 	lea    0x15683(%rip),%rbx        # 19784 <riscv_dsp_cos_table_q15_1024+0x4>
    4101:	29 c2                	sub    %eax,%edx
    4103:	48 98                	cltq   
    4105:	48 63 ca             	movslq %edx,%rcx
    4108:	44 0f b7 1c 4b       	movzwl (%rbx,%rcx,2),%r11d
    410d:	0f b7 1c 43          	movzwl (%rbx,%rax,2),%ebx
    4111:	f7 db                	neg    %ebx
    4113:	85 d2                	test   %edx,%edx
    4115:	0f 8e 8e f0 ff ff    	jle    31a9 <riscv_dsp_cifft_rd2_q15+0x3f9>
    411b:	44 89 d8             	mov    %r11d,%eax
    411e:	41 89 db             	mov    %ebx,%r11d
    4121:	f7 d8                	neg    %eax
    4123:	89 c3                	mov    %eax,%ebx
    4125:	e9 7f f0 ff ff       	jmp    31a9 <riscv_dsp_cifft_rd2_q15+0x3f9>
    412a:	48 8b 54 24 d8       	mov    -0x28(%rsp),%rdx
    412f:	45 89 f0             	mov    %r14d,%r8d
    4132:	66 0f 1f 44 00 00    	nopw   0x0(%rax,%rax,1)
    4138:	0f b7 32             	movzwl (%rdx),%esi
    413b:	44 0f b7 14 3a       	movzwl (%rdx,%rdi,1),%r10d
    4140:	0f b7 4a 02          	movzwl 0x2(%rdx),%ecx
    4144:	44 0f b7 4c 3a 02    	movzwl 0x2(%rdx,%rdi,1),%r9d
    414a:	45 8d 1c 32          	lea    (%r10,%rsi,1),%r11d
    414e:	44 29 d6             	sub    %r10d,%esi
    4151:	66 44 89 1a          	mov    %r11w,(%rdx)
    4155:	45 8d 1c 09          	lea    (%r9,%rcx,1),%r11d
    4159:	44 29 c9             	sub    %r9d,%ecx
    415c:	66 44 89 5a 02       	mov    %r11w,0x2(%rdx)
    4161:	66 89 34 3a          	mov    %si,(%rdx,%rdi,1)
    4165:	66 89 4c 3a 02       	mov    %cx,0x2(%rdx,%rdi,1)
    416a:	48 01 c2             	add    %rax,%rdx
    416d:	41 83 e8 01          	sub    $0x1,%r8d
    4171:	75 c5                	jne    4138 <riscv_dsp_cifft_rd2_q15+0x1388>
    4173:	e9 e0 ef ff ff       	jmp    3158 <riscv_dsp_cifft_rd2_q15+0x3a8>
    4178:	5b                   	pop    %rbx
    4179:	31 c0                	xor    %eax,%eax
    417b:	5d                   	pop    %rbp
    417c:	41 5c                	pop    %r12
    417e:	41 5d                	pop    %r13
    4180:	41 5e                	pop    %r14
    4182:	41 5f                	pop    %r15
    4184:	c3                   	ret    
    4185:	48 8b 54 24 d8       	mov    -0x28(%rsp),%rdx
    418a:	45 89 f0             	mov    %r14d,%r8d
    418d:	31 c9                	xor    %ecx,%ecx
    418f:	e9 20 ef ff ff       	jmp    30b4 <riscv_dsp_cifft_rd2_q15+0x304>
    4194:	48 89 c2             	mov    %rax,%rdx
    4197:	e9 2f fb ff ff       	jmp    3ccb <riscv_dsp_cifft_rd2_q15+0xf1b>
    419c:	0f 1f 40 00          	nopl   0x0(%rax)

00000000000041a0 <riscv_dsp_cfft_rd4_q15>:
    41a0:	f3 0f 1e fa          	endbr64 
    41a4:	41 57                	push   %r15
    41a6:	89 f1                	mov    %esi,%ecx
    41a8:	b8 01 00 00 00       	mov    $0x1,%eax
    41ad:	41 56                	push   %r14
    41af:	d3 e0                	shl    %cl,%eax
    41b1:	49 89 fe             	mov    %rdi,%r14
    41b4:	41 55                	push   %r13
    41b6:	41 54                	push   %r12
    41b8:	55                   	push   %rbp
    41b9:	53                   	push   %rbx
    41ba:	48 83 ec 30          	sub    $0x30,%rsp
    41be:	89 44 24 18          	mov    %eax,0x18(%rsp)
    41c2:	d1 e8                	shr    %eax
    41c4:	41 89 c2             	mov    %eax,%r10d
    41c7:	89 44 24 1c          	mov    %eax,0x1c(%rsp)
    41cb:	41 0f b7 06          	movzwl (%r14),%eax
    41cf:	4d 01 d2             	add    %r10,%r10
    41d2:	48 89 3c 24          	mov    %rdi,(%rsp)
    41d6:	4e 8d 3c 17          	lea    (%rdi,%r10,1),%r15
    41da:	66 d1 f8             	sar    %ax
    41dd:	89 74 24 14          	mov    %esi,0x14(%rsp)
    41e1:	4f 8d 24 17          	lea    (%r15,%r10,1),%r12
    41e5:	98                   	cwtl   
    41e6:	4c 89 7c 24 a8       	mov    %r15,-0x58(%rsp)
    41eb:	41 0f b7 14 24       	movzwl (%r12),%edx
    41f0:	4b 8d 3c 14          	lea    (%r12,%r10,1),%rdi
    41f4:	4c 89 64 24 20       	mov    %r12,0x20(%rsp)
    41f9:	0f b7 0f             	movzwl (%rdi),%ecx
    41fc:	66 d1 fa             	sar    %dx
    41ff:	0f bf d2             	movswl %dx,%edx
    4202:	66 d1 f9             	sar    %cx
    4205:	8d 34 10             	lea    (%rax,%rdx,1),%esi
    4208:	29 d0                	sub    %edx,%eax
    420a:	41 0f b7 17          	movzwl (%r15),%edx
    420e:	0f bf c9             	movswl %cx,%ecx
    4211:	d1 fe                	sar    %esi
    4213:	d1 f8                	sar    %eax
    4215:	66 d1 fa             	sar    %dx
    4218:	0f bf d2             	movswl %dx,%edx
    421b:	44 8d 0c 0a          	lea    (%rdx,%rcx,1),%r9d
    421f:	29 ca                	sub    %ecx,%edx
    4221:	41 d1 f9             	sar    %r9d
    4224:	89 d3                	mov    %edx,%ebx
    4226:	42 8d 14 0e          	lea    (%rsi,%r9,1),%edx
    422a:	44 29 ce             	sub    %r9d,%esi
    422d:	d1 fb                	sar    %ebx
    422f:	d1 fa                	sar    %edx
    4231:	d1 fe                	sar    %esi
    4233:	66 41 89 16          	mov    %dx,(%r14)
    4237:	41 0f b7 56 02       	movzwl 0x2(%r14),%edx
    423c:	45 0f b7 44 24 02    	movzwl 0x2(%r12),%r8d
    4242:	44 0f b7 5f 02       	movzwl 0x2(%rdi),%r11d
    4247:	66 d1 fa             	sar    %dx
    424a:	66 41 d1 f8          	sar    %r8w
    424e:	0f bf d2             	movswl %dx,%edx
    4251:	66 41 d1 fb          	sar    %r11w
    4255:	45 0f bf c0          	movswl %r8w,%r8d
    4259:	45 0f bf db          	movswl %r11w,%r11d
    425d:	42 8d 0c 02          	lea    (%rdx,%r8,1),%ecx
    4261:	44 29 c2             	sub    %r8d,%edx
    4264:	d1 fa                	sar    %edx
    4266:	d1 f9                	sar    %ecx
    4268:	89 d5                	mov    %edx,%ebp
    426a:	41 0f b7 57 02       	movzwl 0x2(%r15),%edx
    426f:	66 89 54 24 88       	mov    %dx,-0x78(%rsp)
    4274:	66 d1 fa             	sar    %dx
    4277:	0f bf d2             	movswl %dx,%edx
    427a:	46 8d 04 1a          	lea    (%rdx,%r11,1),%r8d
    427e:	44 29 da             	sub    %r11d,%edx
    4281:	41 d1 f8             	sar    %r8d
    4284:	d1 fa                	sar    %edx
    4286:	46 8d 1c 01          	lea    (%rcx,%r8,1),%r11d
    428a:	44 29 c1             	sub    %r8d,%ecx
    428d:	d1 f9                	sar    %ecx
    428f:	41 d1 fb             	sar    %r11d
    4292:	66 45 89 5e 02       	mov    %r11w,0x2(%r14)
    4297:	66 41 89 4f 02       	mov    %cx,0x2(%r15)
    429c:	8d 0c 10             	lea    (%rax,%rdx,1),%ecx
    429f:	d1 f9                	sar    %ecx
    42a1:	66 41 89 37          	mov    %si,(%r15)
    42a5:	66 41 89 0c 24       	mov    %cx,(%r12)
    42aa:	89 e9                	mov    %ebp,%ecx
    42ac:	29 d9                	sub    %ebx,%ecx
    42ae:	d1 f9                	sar    %ecx
    42b0:	29 d0                	sub    %edx,%eax
    42b2:	d1 f8                	sar    %eax
    42b4:	66 41 89 4c 24 02    	mov    %cx,0x2(%r12)
    42ba:	66 89 07             	mov    %ax,(%rdi)
    42bd:	8d 04 2b             	lea    (%rbx,%rbp,1),%eax
    42c0:	d1 f8                	sar    %eax
    42c2:	66 89 47 02          	mov    %ax,0x2(%rdi)
    42c6:	49 8d 46 04          	lea    0x4(%r14),%rax
    42ca:	48 89 44 24 08       	mov    %rax,0x8(%rsp)
    42cf:	49 39 c7             	cmp    %rax,%r15
    42d2:	0f 84 f7 02 00 00    	je     45cf <riscv_dsp_cfft_rd4_q15+0x42f>
    42d8:	49 89 c0             	mov    %rax,%r8
    42db:	b8 0a 00 00 00       	mov    $0xa,%eax
    42e0:	2b 44 24 14          	sub    0x14(%rsp),%eax
    42e4:	45 31 ff             	xor    %r15d,%r15d
    42e7:	89 44 24 88          	mov    %eax,-0x78(%rsp)
    42eb:	48 8b 04 24          	mov    (%rsp),%rax
    42ef:	4c 8d 25 8e 54 01 00 	lea    0x1548e(%rip),%r12        # 19784 <riscv_dsp_cos_table_q15_1024+0x4>
    42f6:	41 be 00 01 00 00    	mov    $0x100,%r14d
    42fc:	4e 8d 4c 50 04       	lea    0x4(%rax,%r10,2),%r9
    4301:	e9 0a 01 00 00       	jmp    4410 <riscv_dsp_cfft_rd4_q15+0x270>
    4306:	48 63 db             	movslq %ebx,%rbx
    4309:	41 0f b7 0c 4c       	movzwl (%r12,%rcx,2),%ecx
    430e:	41 0f b7 1c 5c       	movzwl (%r12,%rbx,2),%ebx
    4313:	0f bf c9             	movswl %cx,%ecx
    4316:	0f bf db             	movswl %bx,%ebx
    4319:	89 cd                	mov    %ecx,%ebp
    431b:	41 0f af cb          	imul   %r11d,%ecx
    431f:	41 0f af ed          	imul   %r13d,%ebp
    4323:	89 6c 24 98          	mov    %ebp,-0x68(%rsp)
    4327:	89 dd                	mov    %ebx,%ebp
    4329:	41 0f af dd          	imul   %r13d,%ebx
    432d:	41 0f af eb          	imul   %r11d,%ebp
    4331:	44 8d 1c 38          	lea    (%rax,%rdi,1),%r11d
    4335:	29 f8                	sub    %edi,%eax
    4337:	89 d7                	mov    %edx,%edi
    4339:	29 f7                	sub    %esi,%edi
    433b:	01 f2                	add    %esi,%edx
    433d:	44 89 fe             	mov    %r15d,%esi
    4340:	03 6c 24 98          	add    -0x68(%rsp),%ebp
    4344:	29 d9                	sub    %ebx,%ecx
    4346:	c1 fd 10             	sar    $0x10,%ebp
    4349:	c1 f9 10             	sar    $0x10,%ecx
    434c:	66 43 89 2c 10       	mov    %bp,(%r8,%r10,1)
    4351:	66 43 89 4c 10 02    	mov    %cx,0x2(%r8,%r10,1)
    4357:	0f b6 4c 24 88       	movzbl -0x78(%rsp),%ecx
    435c:	d3 e6                	shl    %cl,%esi
    435e:	48 63 ce             	movslq %esi,%rcx
    4361:	44 89 f6             	mov    %r14d,%esi
    4364:	29 ce                	sub    %ecx,%esi
    4366:	85 f6                	test   %esi,%esi
    4368:	0f 8e a5 01 00 00    	jle    4513 <riscv_dsp_cfft_rd4_q15+0x373>
    436e:	48 63 f6             	movslq %esi,%rsi
    4371:	41 0f b7 0c 4c       	movzwl (%r12,%rcx,2),%ecx
    4376:	41 0f b7 34 74       	movzwl (%r12,%rsi,2),%esi
    437b:	0f bf c9             	movswl %cx,%ecx
    437e:	0f bf f6             	movswl %si,%esi
    4381:	89 cb                	mov    %ecx,%ebx
    4383:	0f af cf             	imul   %edi,%ecx
    4386:	89 f5                	mov    %esi,%ebp
    4388:	41 0f af f3          	imul   %r11d,%esi
    438c:	41 0f af db          	imul   %r11d,%ebx
    4390:	0f af ef             	imul   %edi,%ebp
    4393:	29 f1                	sub    %esi,%ecx
    4395:	43 8d 34 7f          	lea    (%r15,%r15,2),%esi
    4399:	c1 f9 10             	sar    $0x10,%ecx
    439c:	66 41 89 49 02       	mov    %cx,0x2(%r9)
    43a1:	0f b6 4c 24 88       	movzbl -0x78(%rsp),%ecx
    43a6:	01 eb                	add    %ebp,%ebx
    43a8:	c1 fb 10             	sar    $0x10,%ebx
    43ab:	d3 e6                	shl    %cl,%esi
    43ad:	66 41 89 19          	mov    %bx,(%r9)
    43b1:	48 63 ce             	movslq %esi,%rcx
    43b4:	44 89 f6             	mov    %r14d,%esi
    43b7:	29 ce                	sub    %ecx,%esi
    43b9:	85 f6                	test   %esi,%esi
    43bb:	0f 8e 2c 01 00 00    	jle    44ed <riscv_dsp_cfft_rd4_q15+0x34d>
    43c1:	48 63 f6             	movslq %esi,%rsi
    43c4:	41 0f b7 0c 4c       	movzwl (%r12,%rcx,2),%ecx
    43c9:	41 0f b7 34 74       	movzwl (%r12,%rsi,2),%esi
    43ce:	0f bf c9             	movswl %cx,%ecx
    43d1:	0f bf f6             	movswl %si,%esi
    43d4:	49 83 c0 04          	add    $0x4,%r8
    43d8:	49 83 c1 04          	add    $0x4,%r9
    43dc:	89 cf                	mov    %ecx,%edi
    43de:	0f af ca             	imul   %edx,%ecx
    43e1:	41 89 f3             	mov    %esi,%r11d
    43e4:	0f af f8             	imul   %eax,%edi
    43e7:	44 0f af da          	imul   %edx,%r11d
    43eb:	0f af f0             	imul   %eax,%esi
    43ee:	44 01 df             	add    %r11d,%edi
    43f1:	29 f1                	sub    %esi,%ecx
    43f3:	c1 ff 10             	sar    $0x10,%edi
    43f6:	c1 f9 10             	sar    $0x10,%ecx
    43f9:	66 43 89 7c 11 fc    	mov    %di,-0x4(%r9,%r10,1)
    43ff:	66 43 89 4c 11 fe    	mov    %cx,-0x2(%r9,%r10,1)
    4405:	4c 39 44 24 a8       	cmp    %r8,-0x58(%rsp)
    440a:	0f 84 bf 01 00 00    	je     45cf <riscv_dsp_cfft_rd4_q15+0x42f>
    4410:	41 0f b7 09          	movzwl (%r9),%ecx
    4414:	43 0f b7 34 10       	movzwl (%r8,%r10,1),%esi
    4419:	41 83 c7 01          	add    $0x1,%r15d
    441d:	43 0f b7 3c 11       	movzwl (%r9,%r10,1),%edi
    4422:	41 0f b7 00          	movzwl (%r8),%eax
    4426:	66 d1 f9             	sar    %cx
    4429:	66 d1 fe             	sar    %si
    442c:	66 d1 f8             	sar    %ax
    442f:	66 d1 ff             	sar    %di
    4432:	0f bf c9             	movswl %cx,%ecx
    4435:	0f bf f6             	movswl %si,%esi
    4438:	0f bf ff             	movswl %di,%edi
    443b:	98                   	cwtl   
    443c:	8d 14 08             	lea    (%rax,%rcx,1),%edx
    443f:	29 c8                	sub    %ecx,%eax
    4441:	8d 0c 3e             	lea    (%rsi,%rdi,1),%ecx
    4444:	29 fe                	sub    %edi,%esi
    4446:	d1 f9                	sar    %ecx
    4448:	d1 fa                	sar    %edx
    444a:	8d 3c 0a             	lea    (%rdx,%rcx,1),%edi
    444d:	d1 f8                	sar    %eax
    444f:	29 ca                	sub    %ecx,%edx
    4451:	d1 fe                	sar    %esi
    4453:	d1 ff                	sar    %edi
    4455:	41 89 d5             	mov    %edx,%r13d
    4458:	41 0f b7 50 02       	movzwl 0x2(%r8),%edx
    445d:	66 41 89 38          	mov    %di,(%r8)
    4461:	41 0f b7 49 02       	movzwl 0x2(%r9),%ecx
    4466:	43 0f b7 7c 10 02    	movzwl 0x2(%r8,%r10,1),%edi
    446c:	43 0f b7 5c 11 02    	movzwl 0x2(%r9,%r10,1),%ebx
    4472:	66 d1 fa             	sar    %dx
    4475:	66 d1 f9             	sar    %cx
    4478:	0f bf d2             	movswl %dx,%edx
    447b:	66 d1 ff             	sar    %di
    447e:	66 d1 fb             	sar    %bx
    4481:	0f bf c9             	movswl %cx,%ecx
    4484:	0f bf db             	movswl %bx,%ebx
    4487:	0f bf ff             	movswl %di,%edi
    448a:	44 8d 1c 0a          	lea    (%rdx,%rcx,1),%r11d
    448e:	29 ca                	sub    %ecx,%edx
    4490:	8d 0c 1f             	lea    (%rdi,%rbx,1),%ecx
    4493:	41 d1 fb             	sar    %r11d
    4496:	29 df                	sub    %ebx,%edi
    4498:	d1 fa                	sar    %edx
    449a:	d1 f9                	sar    %ecx
    449c:	d1 ff                	sar    %edi
    449e:	41 8d 1c 0b          	lea    (%r11,%rcx,1),%ebx
    44a2:	41 29 cb             	sub    %ecx,%r11d
    44a5:	0f b6 4c 24 88       	movzbl -0x78(%rsp),%ecx
    44aa:	d1 fb                	sar    %ebx
    44ac:	66 41 89 58 02       	mov    %bx,0x2(%r8)
    44b1:	43 8d 1c 3f          	lea    (%r15,%r15,1),%ebx
    44b5:	d3 e3                	shl    %cl,%ebx
    44b7:	48 63 cb             	movslq %ebx,%rcx
    44ba:	44 89 f3             	mov    %r14d,%ebx
    44bd:	29 cb                	sub    %ecx,%ebx
    44bf:	85 db                	test   %ebx,%ebx
    44c1:	0f 8f 3f fe ff ff    	jg     4306 <riscv_dsp_cfft_rd4_q15+0x166>
    44c7:	8d 99 00 ff ff ff    	lea    -0x100(%rcx),%ebx
    44cd:	44 89 f5             	mov    %r14d,%ebp
    44d0:	29 dd                	sub    %ebx,%ebp
    44d2:	85 ed                	test   %ebp,%ebp
    44d4:	7e 63                	jle    4539 <riscv_dsp_cfft_rd4_q15+0x399>
    44d6:	48 63 ed             	movslq %ebp,%rbp
    44d9:	48 63 db             	movslq %ebx,%rbx
    44dc:	41 0f b7 0c 6c       	movzwl (%r12,%rbp,2),%ecx
    44e1:	41 0f b7 1c 5c       	movzwl (%r12,%rbx,2),%ebx
    44e6:	f7 d9                	neg    %ecx
    44e8:	e9 26 fe ff ff       	jmp    4313 <riscv_dsp_cfft_rd4_q15+0x173>
    44ed:	8d b1 00 ff ff ff    	lea    -0x100(%rcx),%esi
    44f3:	44 89 f7             	mov    %r14d,%edi
    44f6:	29 f7                	sub    %esi,%edi
    44f8:	85 ff                	test   %edi,%edi
    44fa:	7e 6f                	jle    456b <riscv_dsp_cfft_rd4_q15+0x3cb>
    44fc:	48 63 ff             	movslq %edi,%rdi
    44ff:	48 63 f6             	movslq %esi,%rsi
    4502:	41 0f b7 0c 7c       	movzwl (%r12,%rdi,2),%ecx
    4507:	41 0f b7 34 74       	movzwl (%r12,%rsi,2),%esi
    450c:	f7 d9                	neg    %ecx
    450e:	e9 bb fe ff ff       	jmp    43ce <riscv_dsp_cfft_rd4_q15+0x22e>
    4513:	8d b1 00 ff ff ff    	lea    -0x100(%rcx),%esi
    4519:	44 89 f3             	mov    %r14d,%ebx
    451c:	29 f3                	sub    %esi,%ebx
    451e:	85 db                	test   %ebx,%ebx
    4520:	7e 7b                	jle    459d <riscv_dsp_cfft_rd4_q15+0x3fd>
    4522:	48 63 db             	movslq %ebx,%rbx
    4525:	48 63 f6             	movslq %esi,%rsi
    4528:	41 0f b7 0c 5c       	movzwl (%r12,%rbx,2),%ecx
    452d:	41 0f b7 34 74       	movzwl (%r12,%rsi,2),%esi
    4532:	f7 d9                	neg    %ecx
    4534:	e9 42 fe ff ff       	jmp    437b <riscv_dsp_cfft_rd4_q15+0x1db>
    4539:	8d 99 00 fe ff ff    	lea    -0x200(%rcx),%ebx
    453f:	44 89 f5             	mov    %r14d,%ebp
    4542:	29 dd                	sub    %ebx,%ebp
    4544:	48 63 db             	movslq %ebx,%rbx
    4547:	41 0f b7 1c 5c       	movzwl (%r12,%rbx,2),%ebx
    454c:	48 63 cd             	movslq %ebp,%rcx
    454f:	41 0f b7 0c 4c       	movzwl (%r12,%rcx,2),%ecx
    4554:	f7 db                	neg    %ebx
    4556:	85 ed                	test   %ebp,%ebp
    4558:	0f 8e b5 fd ff ff    	jle    4313 <riscv_dsp_cfft_rd4_q15+0x173>
    455e:	f7 d9                	neg    %ecx
    4560:	89 cd                	mov    %ecx,%ebp
    4562:	89 d9                	mov    %ebx,%ecx
    4564:	89 eb                	mov    %ebp,%ebx
    4566:	e9 a8 fd ff ff       	jmp    4313 <riscv_dsp_cfft_rd4_q15+0x173>
    456b:	8d b1 00 fe ff ff    	lea    -0x200(%rcx),%esi
    4571:	44 89 f7             	mov    %r14d,%edi
    4574:	29 f7                	sub    %esi,%edi
    4576:	48 63 f6             	movslq %esi,%rsi
    4579:	41 0f b7 34 74       	movzwl (%r12,%rsi,2),%esi
    457e:	48 63 cf             	movslq %edi,%rcx
    4581:	41 0f b7 0c 4c       	movzwl (%r12,%rcx,2),%ecx
    4586:	f7 de                	neg    %esi
    4588:	85 ff                	test   %edi,%edi
    458a:	0f 8e 3e fe ff ff    	jle    43ce <riscv_dsp_cfft_rd4_q15+0x22e>
    4590:	89 cf                	mov    %ecx,%edi
    4592:	89 f1                	mov    %esi,%ecx
    4594:	f7 df                	neg    %edi
    4596:	89 fe                	mov    %edi,%esi
    4598:	e9 31 fe ff ff       	jmp    43ce <riscv_dsp_cfft_rd4_q15+0x22e>
    459d:	8d b1 00 fe ff ff    	lea    -0x200(%rcx),%esi
    45a3:	44 89 f3             	mov    %r14d,%ebx
    45a6:	29 f3                	sub    %esi,%ebx
    45a8:	48 63 f6             	movslq %esi,%rsi
    45ab:	41 0f b7 34 74       	movzwl (%r12,%rsi,2),%esi
    45b0:	48 63 cb             	movslq %ebx,%rcx
    45b3:	41 0f b7 0c 4c       	movzwl (%r12,%rcx,2),%ecx
    45b8:	f7 de                	neg    %esi
    45ba:	85 db                	test   %ebx,%ebx
    45bc:	0f 8e b9 fd ff ff    	jle    437b <riscv_dsp_cfft_rd4_q15+0x1db>
    45c2:	f7 d9                	neg    %ecx
    45c4:	89 cb                	mov    %ecx,%ebx
    45c6:	89 f1                	mov    %esi,%ecx
    45c8:	89 de                	mov    %ebx,%esi
    45ca:	e9 ac fd ff ff       	jmp    437b <riscv_dsp_cfft_rd4_q15+0x1db>
    45cf:	8b 74 24 14          	mov    0x14(%rsp),%esi
    45d3:	8b 7c 24 1c          	mov    0x1c(%rsp),%edi
    45d7:	c7 44 24 e4 04 00 00 	movl   $0x4,-0x1c(%rsp)
    45de:	00 
    45df:	89 f0                	mov    %esi,%eax
    45e1:	89 7c 24 fc          	mov    %edi,-0x4(%rsp)
    45e5:	d1 e8                	shr    %eax
    45e7:	83 e8 02             	sub    $0x2,%eax
    45ea:	89 44 24 10          	mov    %eax,0x10(%rsp)
    45ee:	0f 84 6f 03 00 00    	je     4963 <riscv_dsp_cfft_rd4_q15+0x7c3>
    45f4:	b8 0a 00 00 00       	mov    $0xa,%eax
    45f9:	29 f0                	sub    %esi,%eax
    45fb:	89 44 24 f8          	mov    %eax,-0x8(%rsp)
    45ff:	90                   	nop
    4600:	48 8b 04 24          	mov    (%rsp),%rax
    4604:	8b 74 24 e4          	mov    -0x1c(%rsp),%esi
    4608:	c1 6c 24 fc 02       	shrl   $0x2,-0x4(%rsp)
    460d:	44 8b 74 24 fc       	mov    -0x4(%rsp),%r14d
    4612:	4f 8d 3c 36          	lea    (%r14,%r14,1),%r15
    4616:	4c 01 f8             	add    %r15,%rax
    4619:	48 89 44 24 e8       	mov    %rax,-0x18(%rsp)
    461e:	85 f6                	test   %esi,%esi
    4620:	0f 84 d0 00 00 00    	je     46f6 <riscv_dsp_cfft_rd4_q15+0x556>
    4626:	48 8b 0c 24          	mov    (%rsp),%rcx
    462a:	8b 6c 24 e4          	mov    -0x1c(%rsp),%ebp
    462e:	4e 8d 24 f5 00 00 00 	lea    0x0(,%r14,8),%r12
    4635:	00 
    4636:	4a 8d 34 38          	lea    (%rax,%r15,1),%rsi
    463a:	66 0f 1f 44 00 00    	nopw   0x0(%rax,%rax,1)
    4640:	0f bf 06             	movswl (%rsi),%eax
    4643:	0f bf 11             	movswl (%rcx),%edx
    4646:	42 0f bf 3c 3e       	movswl (%rsi,%r15,1),%edi
    464b:	44 0f bf 49 02       	movswl 0x2(%rcx),%r9d
    4650:	44 8d 04 02          	lea    (%rdx,%rax,1),%r8d
    4654:	29 c2                	sub    %eax,%edx
    4656:	42 0f bf 04 39       	movswl (%rcx,%r15,1),%eax
    465b:	41 d1 f8             	sar    %r8d
    465e:	d1 fa                	sar    %edx
    4660:	8d 1c 38             	lea    (%rax,%rdi,1),%ebx
    4663:	29 f8                	sub    %edi,%eax
    4665:	d1 fb                	sar    %ebx
    4667:	d1 f8                	sar    %eax
    4669:	41 8d 3c 18          	lea    (%r8,%rbx,1),%edi
    466d:	41 29 d8             	sub    %ebx,%r8d
    4670:	d1 ff                	sar    %edi
    4672:	41 d1 f8             	sar    %r8d
    4675:	66 89 39             	mov    %di,(%rcx)
    4678:	44 0f bf 56 02       	movswl 0x2(%rsi),%r10d
    467d:	46 0f bf 6c 3e 02    	movswl 0x2(%rsi,%r15,1),%r13d
    4683:	43 8d 3c 11          	lea    (%r9,%r10,1),%edi
    4687:	45 29 d1             	sub    %r10d,%r9d
    468a:	46 0f bf 54 39 02    	movswl 0x2(%rcx,%r15,1),%r10d
    4690:	d1 ff                	sar    %edi
    4692:	41 d1 f9             	sar    %r9d
    4695:	47 8d 1c 2a          	lea    (%r10,%r13,1),%r11d
    4699:	45 29 ea             	sub    %r13d,%r10d
    469c:	41 d1 fb             	sar    %r11d
    469f:	41 d1 fa             	sar    %r10d
    46a2:	46 8d 2c 1f          	lea    (%rdi,%r11,1),%r13d
    46a6:	44 29 df             	sub    %r11d,%edi
    46a9:	d1 ff                	sar    %edi
    46ab:	41 d1 fd             	sar    %r13d
    46ae:	66 44 89 69 02       	mov    %r13w,0x2(%rcx)
    46b3:	66 42 89 7c 39 02    	mov    %di,0x2(%rcx,%r15,1)
    46b9:	42 8d 3c 12          	lea    (%rdx,%r10,1),%edi
    46bd:	44 29 d2             	sub    %r10d,%edx
    46c0:	d1 ff                	sar    %edi
    46c2:	66 46 89 04 39       	mov    %r8w,(%rcx,%r15,1)
    46c7:	d1 fa                	sar    %edx
    46c9:	4c 01 e1             	add    %r12,%rcx
    46cc:	66 89 3e             	mov    %di,(%rsi)
    46cf:	44 89 cf             	mov    %r9d,%edi
    46d2:	29 c7                	sub    %eax,%edi
    46d4:	44 01 c8             	add    %r9d,%eax
    46d7:	d1 ff                	sar    %edi
    46d9:	d1 f8                	sar    %eax
    46db:	66 89 7e 02          	mov    %di,0x2(%rsi)
    46df:	66 42 89 14 3e       	mov    %dx,(%rsi,%r15,1)
    46e4:	66 42 89 44 3e 02    	mov    %ax,0x2(%rsi,%r15,1)
    46ea:	4c 01 e6             	add    %r12,%rsi
    46ed:	83 ed 01             	sub    $0x1,%ebp
    46f0:	0f 85 4a ff ff ff    	jne    4640 <riscv_dsp_cfft_rd4_q15+0x4a0>
    46f6:	48 8b 74 24 e8       	mov    -0x18(%rsp),%rsi
    46fb:	48 39 74 24 08       	cmp    %rsi,0x8(%rsp)
    4700:	0f 84 4d 02 00 00    	je     4953 <riscv_dsp_cfft_rd4_q15+0x7b3>
    4706:	4a 8d 04 b5 00 00 00 	lea    0x0(,%r14,4),%rax
    470d:	00 
    470e:	c7 44 24 e0 00 00 00 	movl   $0x0,-0x20(%rsp)
    4715:	00 
    4716:	4a 8d 2c f5 00 00 00 	lea    0x0(,%r14,8),%rbp
    471d:	00 
    471e:	48 89 44 24 f0       	mov    %rax,-0x10(%rsp)
    4723:	48 8b 44 24 08       	mov    0x8(%rsp),%rax
    4728:	48 89 44 24 d8       	mov    %rax,-0x28(%rsp)
    472d:	0f 1f 00             	nopl   (%rax)
    4730:	0f b6 4c 24 f8       	movzbl -0x8(%rsp),%ecx
    4735:	8b 74 24 e4          	mov    -0x1c(%rsp),%esi
    4739:	01 74 24 e0          	add    %esi,-0x20(%rsp)
    473d:	8b 44 24 e0          	mov    -0x20(%rsp),%eax
    4741:	d3 e0                	shl    %cl,%eax
    4743:	b9 00 01 00 00       	mov    $0x100,%ecx
    4748:	29 c1                	sub    %eax,%ecx
    474a:	85 c9                	test   %ecx,%ecx
    474c:	0f 8e 5e 0d 00 00    	jle    54b0 <riscv_dsp_cfft_rd4_q15+0x1310>
    4752:	48 98                	cltq   
    4754:	48 8d 3d 29 50 01 00 	lea    0x15029(%rip),%rdi        # 19784 <riscv_dsp_cos_table_q15_1024+0x4>
    475b:	48 63 c9             	movslq %ecx,%rcx
    475e:	0f b7 14 47          	movzwl (%rdi,%rax,2),%edx
    4762:	0f b7 04 4f          	movzwl (%rdi,%rcx,2),%eax
    4766:	8b 74 24 e0          	mov    -0x20(%rsp),%esi
    476a:	0f b6 4c 24 f8       	movzbl -0x8(%rsp),%ecx
    476f:	01 f6                	add    %esi,%esi
    4771:	d3 e6                	shl    %cl,%esi
    4773:	48 63 ce             	movslq %esi,%rcx
    4776:	be 00 01 00 00       	mov    $0x100,%esi
    477b:	29 ce                	sub    %ecx,%esi
    477d:	85 f6                	test   %esi,%esi
    477f:	0f 8e bb 0c 00 00    	jle    5440 <riscv_dsp_cfft_rd4_q15+0x12a0>
    4785:	48 8d 1d f8 4f 01 00 	lea    0x14ff8(%rip),%rbx        # 19784 <riscv_dsp_cos_table_q15_1024+0x4>
    478c:	48 63 f6             	movslq %esi,%rsi
    478f:	0f b7 3c 4b          	movzwl (%rbx,%rcx,2),%edi
    4793:	0f b7 34 73          	movzwl (%rbx,%rsi,2),%esi
    4797:	8b 4c 24 e0          	mov    -0x20(%rsp),%ecx
    479b:	44 8d 04 49          	lea    (%rcx,%rcx,2),%r8d
    479f:	0f b6 4c 24 f8       	movzbl -0x8(%rsp),%ecx
    47a4:	41 d3 e0             	shl    %cl,%r8d
    47a7:	49 63 c8             	movslq %r8d,%rcx
    47aa:	41 b8 00 01 00 00    	mov    $0x100,%r8d
    47b0:	41 29 c8             	sub    %ecx,%r8d
    47b3:	45 85 c0             	test   %r8d,%r8d
    47b6:	0f 8e bc 0c 00 00    	jle    5478 <riscv_dsp_cfft_rd4_q15+0x12d8>
    47bc:	48 8d 1d c1 4f 01 00 	lea    0x14fc1(%rip),%rbx        # 19784 <riscv_dsp_cos_table_q15_1024+0x4>
    47c3:	4d 63 c0             	movslq %r8d,%r8
    47c6:	44 0f b7 24 4b       	movzwl (%rbx,%rcx,2),%r12d
    47cb:	46 0f b7 2c 43       	movzwl (%rbx,%r8,2),%r13d
    47d0:	8b 4c 24 e4          	mov    -0x1c(%rsp),%ecx
    47d4:	85 c9                	test   %ecx,%ecx
    47d6:	0f 84 61 01 00 00    	je     493d <riscv_dsp_cfft_rd4_q15+0x79d>
    47dc:	98                   	cwtl   
    47dd:	0f bf f6             	movswl %si,%esi
    47e0:	0f bf ff             	movswl %di,%edi
    47e3:	45 0f bf e4          	movswl %r12w,%r12d
    47e7:	89 44 24 c8          	mov    %eax,-0x38(%rsp)
    47eb:	8b 44 24 e4          	mov    -0x1c(%rsp),%eax
    47ef:	45 0f bf ed          	movswl %r13w,%r13d
    47f3:	89 74 24 88          	mov    %esi,-0x78(%rsp)
    47f7:	0f bf f2             	movswl %dx,%esi
    47fa:	89 7c 24 a8          	mov    %edi,-0x58(%rsp)
    47fe:	48 8b 7c 24 f0       	mov    -0x10(%rsp),%rdi
    4803:	89 74 24 b8          	mov    %esi,-0x48(%rsp)
    4807:	48 8b 74 24 d8       	mov    -0x28(%rsp),%rsi
    480c:	89 44 24 98          	mov    %eax,-0x68(%rsp)
    4810:	48 01 f7             	add    %rsi,%rdi
    4813:	0f 1f 44 00 00       	nopl   0x0(%rax,%rax,1)
    4818:	0f bf 07             	movswl (%rdi),%eax
    481b:	0f bf 0e             	movswl (%rsi),%ecx
    481e:	42 0f bf 14 3f       	movswl (%rdi,%r15,1),%edx
    4823:	44 0f bf 4e 02       	movswl 0x2(%rsi),%r9d
    4828:	44 8d 04 01          	lea    (%rcx,%rax,1),%r8d
    482c:	29 c1                	sub    %eax,%ecx
    482e:	42 0f bf 04 3e       	movswl (%rsi,%r15,1),%eax
    4833:	41 d1 f8             	sar    %r8d
    4836:	d1 f9                	sar    %ecx
    4838:	8d 1c 10             	lea    (%rax,%rdx,1),%ebx
    483b:	29 d0                	sub    %edx,%eax
    483d:	d1 fb                	sar    %ebx
    483f:	d1 f8                	sar    %eax
    4841:	41 8d 14 18          	lea    (%r8,%rbx,1),%edx
    4845:	41 29 d8             	sub    %ebx,%r8d
    4848:	8b 5c 24 88          	mov    -0x78(%rsp),%ebx
    484c:	d1 fa                	sar    %edx
    484e:	66 89 16             	mov    %dx,(%rsi)
    4851:	44 0f bf 57 02       	movswl 0x2(%rdi),%r10d
    4856:	46 0f bf 74 3f 02    	movswl 0x2(%rdi,%r15,1),%r14d
    485c:	43 8d 14 11          	lea    (%r9,%r10,1),%edx
    4860:	45 29 d1             	sub    %r10d,%r9d
    4863:	46 0f bf 54 3e 02    	movswl 0x2(%rsi,%r15,1),%r10d
    4869:	d1 fa                	sar    %edx
    486b:	41 d1 f9             	sar    %r9d
    486e:	47 8d 1c 32          	lea    (%r10,%r14,1),%r11d
    4872:	45 29 f2             	sub    %r14d,%r10d
    4875:	41 d1 fb             	sar    %r11d
    4878:	41 d1 fa             	sar    %r10d
    487b:	46 8d 34 1a          	lea    (%rdx,%r11,1),%r14d
    487f:	44 29 da             	sub    %r11d,%edx
    4882:	41 d1 fe             	sar    %r14d
    4885:	0f af da             	imul   %edx,%ebx
    4888:	66 44 89 76 02       	mov    %r14w,0x2(%rsi)
    488d:	44 8b 74 24 a8       	mov    -0x58(%rsp),%r14d
    4892:	45 89 f3             	mov    %r14d,%r11d
    4895:	41 0f af d6          	imul   %r14d,%edx
    4899:	44 8b 74 24 c8       	mov    -0x38(%rsp),%r14d
    489e:	45 0f af d8          	imul   %r8d,%r11d
    48a2:	44 0f af 44 24 88    	imul   -0x78(%rsp),%r8d
    48a8:	41 01 db             	add    %ebx,%r11d
    48ab:	8b 5c 24 b8          	mov    -0x48(%rsp),%ebx
    48af:	44 29 c2             	sub    %r8d,%edx
    48b2:	45 89 c8             	mov    %r9d,%r8d
    48b5:	41 c1 fb 10          	sar    $0x10,%r11d
    48b9:	c1 fa 10             	sar    $0x10,%edx
    48bc:	41 29 c0             	sub    %eax,%r8d
    48bf:	44 01 c8             	add    %r9d,%eax
    48c2:	41 89 d9             	mov    %ebx,%r9d
    48c5:	66 42 89 54 3e 02    	mov    %dx,0x2(%rsi,%r15,1)
    48cb:	42 8d 14 11          	lea    (%rcx,%r10,1),%edx
    48cf:	44 29 d1             	sub    %r10d,%ecx
    48d2:	45 89 f2             	mov    %r14d,%r10d
    48d5:	45 0f af d0          	imul   %r8d,%r10d
    48d9:	66 46 89 1c 3e       	mov    %r11w,(%rsi,%r15,1)
    48de:	44 0f af ca          	imul   %edx,%r9d
    48e2:	44 0f af c3          	imul   %ebx,%r8d
    48e6:	45 01 d1             	add    %r10d,%r9d
    48e9:	41 c1 f9 10          	sar    $0x10,%r9d
    48ed:	41 0f af d6          	imul   %r14d,%edx
    48f1:	48 01 ee             	add    %rbp,%rsi
    48f4:	66 44 89 0f          	mov    %r9w,(%rdi)
    48f8:	41 29 d0             	sub    %edx,%r8d
    48fb:	89 ca                	mov    %ecx,%edx
    48fd:	41 c1 f8 10          	sar    $0x10,%r8d
    4901:	41 0f af d4          	imul   %r12d,%edx
    4905:	66 44 89 47 02       	mov    %r8w,0x2(%rdi)
    490a:	41 89 c0             	mov    %eax,%r8d
    490d:	41 0f af cd          	imul   %r13d,%ecx
    4911:	45 0f af c5          	imul   %r13d,%r8d
    4915:	41 0f af c4          	imul   %r12d,%eax
    4919:	44 01 c2             	add    %r8d,%edx
    491c:	29 c8                	sub    %ecx,%eax
    491e:	c1 fa 10             	sar    $0x10,%edx
    4921:	c1 f8 10             	sar    $0x10,%eax
    4924:	66 42 89 14 3f       	mov    %dx,(%rdi,%r15,1)
    4929:	66 42 89 44 3f 02    	mov    %ax,0x2(%rdi,%r15,1)
    492f:	48 01 ef             	add    %rbp,%rdi
    4932:	83 6c 24 98 01       	subl   $0x1,-0x68(%rsp)
    4937:	0f 85 db fe ff ff    	jne    4818 <riscv_dsp_cfft_rd4_q15+0x678>
    493d:	48 83 44 24 d8 04    	addq   $0x4,-0x28(%rsp)
    4943:	48 8b 44 24 d8       	mov    -0x28(%rsp),%rax
    4948:	48 39 44 24 e8       	cmp    %rax,-0x18(%rsp)
    494d:	0f 85 dd fd ff ff    	jne    4730 <riscv_dsp_cfft_rd4_q15+0x590>
    4953:	c1 64 24 e4 02       	shll   $0x2,-0x1c(%rsp)
    4958:	83 6c 24 10 01       	subl   $0x1,0x10(%rsp)
    495d:	0f 85 9d fc ff ff    	jne    4600 <riscv_dsp_cfft_rd4_q15+0x460>
    4963:	8b 44 24 18          	mov    0x18(%rsp),%eax
    4967:	48 8b 34 24          	mov    (%rsp),%rsi
    496b:	01 c0                	add    %eax,%eax
    496d:	48 8d 2c 46          	lea    (%rsi,%rax,2),%rbp
    4971:	48 39 ee             	cmp    %rbp,%rsi
    4974:	0f 84 3f 08 00 00    	je     51b9 <riscv_dsp_cfft_rd4_q15+0x1019>
    497a:	48 89 ea             	mov    %rbp,%rdx
    497d:	48 89 f0             	mov    %rsi,%rax
    4980:	48 29 f2             	sub    %rsi,%rdx
    4983:	48 83 ea 10          	sub    $0x10,%rdx
    4987:	48 89 d1             	mov    %rdx,%rcx
    498a:	48 c1 e9 04          	shr    $0x4,%rcx
    498e:	48 83 c1 01          	add    $0x1,%rcx
    4992:	48 83 fa 60          	cmp    $0x60,%rdx
    4996:	0f 86 44 07 00 00    	jbe    50e0 <riscv_dsp_cfft_rd4_q15+0xf40>
    499c:	48 89 ca             	mov    %rcx,%rdx
    499f:	66 45 0f ef e4       	pxor   %xmm12,%xmm12
    49a4:	48 c1 ea 03          	shr    $0x3,%rdx
    49a8:	48 c1 e2 07          	shl    $0x7,%rdx
    49ac:	48 01 f2             	add    %rsi,%rdx
    49af:	f3 0f 6f 30          	movdqu (%rax),%xmm6
    49b3:	f3 0f 6f 78 10       	movdqu 0x10(%rax),%xmm7
    49b8:	66 45 0f 6f ec       	movdqa %xmm12,%xmm13
    49bd:	48 83 e8 80          	sub    $0xffffffffffffff80,%rax
    49c1:	f3 0f 6f 58 a0       	movdqu -0x60(%rax),%xmm3
    49c6:	f3 0f 6f 68 b0       	movdqu -0x50(%rax),%xmm5
    49cb:	66 0f 6f e6          	movdqa %xmm6,%xmm4
    49cf:	66 0f 6f ce          	movdqa %xmm6,%xmm1
    49d3:	f3 0f 6f 50 c0       	movdqu -0x40(%rax),%xmm2
    49d8:	66 0f 61 f7          	punpcklwd %xmm7,%xmm6
    49dc:	66 0f 61 e7          	punpcklwd %xmm7,%xmm4
    49e0:	66 0f 69 cf          	punpckhwd %xmm7,%xmm1
    49e4:	66 0f 6f fb          	movdqa %xmm3,%xmm7
    49e8:	f3 44 0f 6f 40 d0    	movdqu -0x30(%rax),%xmm8
    49ee:	66 44 0f 6f d4       	movdqa %xmm4,%xmm10
    49f3:	66 0f 61 fd          	punpcklwd %xmm5,%xmm7
    49f7:	66 0f 61 e1          	punpcklwd %xmm1,%xmm4
    49fb:	f3 0f 6f 40 e0       	movdqu -0x20(%rax),%xmm0
    4a00:	66 44 0f 69 d1       	punpckhwd %xmm1,%xmm10
    4a05:	66 0f 61 f1          	punpcklwd %xmm1,%xmm6
    4a09:	66 0f 6f cb          	movdqa %xmm3,%xmm1
    4a0d:	f3 44 0f 6f 48 f0    	movdqu -0x10(%rax),%xmm9
    4a13:	66 0f 69 cd          	punpckhwd %xmm5,%xmm1
    4a17:	66 41 0f 61 e2       	punpcklwd %xmm10,%xmm4
    4a1c:	66 41 0f 69 f2       	punpckhwd %xmm10,%xmm6
    4a21:	66 0f 61 dd          	punpcklwd %xmm5,%xmm3
    4a25:	66 44 0f 6f d7       	movdqa %xmm7,%xmm10
    4a2a:	66 0f 6f ea          	movdqa %xmm2,%xmm5
    4a2e:	66 44 0f 69 d1       	punpckhwd %xmm1,%xmm10
    4a33:	66 41 0f 61 e8       	punpcklwd %xmm8,%xmm5
    4a38:	66 0f 61 f9          	punpcklwd %xmm1,%xmm7
    4a3c:	66 0f 61 d9          	punpcklwd %xmm1,%xmm3
    4a40:	66 0f 6f ca          	movdqa %xmm2,%xmm1
    4a44:	66 41 0f 61 fa       	punpcklwd %xmm10,%xmm7
    4a49:	66 41 0f 69 da       	punpckhwd %xmm10,%xmm3
    4a4e:	66 41 0f 69 c8       	punpckhwd %xmm8,%xmm1
    4a53:	66 44 0f 6f d5       	movdqa %xmm5,%xmm10
    4a58:	66 41 0f 61 d0       	punpcklwd %xmm8,%xmm2
    4a5d:	66 44 0f 6f c0       	movdqa %xmm0,%xmm8
    4a62:	66 44 0f 69 d1       	punpckhwd %xmm1,%xmm10
    4a67:	66 45 0f 61 c1       	punpcklwd %xmm9,%xmm8
    4a6c:	66 0f 61 e9          	punpcklwd %xmm1,%xmm5
    4a70:	66 0f 61 d1          	punpcklwd %xmm1,%xmm2
    4a74:	66 0f 6f c8          	movdqa %xmm0,%xmm1
    4a78:	66 41 0f 61 ea       	punpcklwd %xmm10,%xmm5
    4a7d:	66 41 0f 69 d2       	punpckhwd %xmm10,%xmm2
    4a82:	66 41 0f 69 c9       	punpckhwd %xmm9,%xmm1
    4a87:	66 45 0f 6f d0       	movdqa %xmm8,%xmm10
    4a8c:	66 41 0f 61 c1       	punpcklwd %xmm9,%xmm0
    4a91:	66 44 0f 69 d1       	punpckhwd %xmm1,%xmm10
    4a96:	66 44 0f 61 c1       	punpcklwd %xmm1,%xmm8
    4a9b:	66 0f 61 c1          	punpcklwd %xmm1,%xmm0
    4a9f:	66 0f 6f cc          	movdqa %xmm4,%xmm1
    4aa3:	66 44 0f 6f cc       	movdqa %xmm4,%xmm9
    4aa8:	66 45 0f 61 c2       	punpcklwd %xmm10,%xmm8
    4aad:	66 0f 61 cf          	punpcklwd %xmm7,%xmm1
    4ab1:	66 41 0f 69 c2       	punpckhwd %xmm10,%xmm0
    4ab6:	66 44 0f 69 cf       	punpckhwd %xmm7,%xmm9
    4abb:	66 44 0f 6f d1       	movdqa %xmm1,%xmm10
    4ac0:	66 0f 61 e7          	punpcklwd %xmm7,%xmm4
    4ac4:	66 0f 6f fd          	movdqa %xmm5,%xmm7
    4ac8:	66 45 0f 69 d1       	punpckhwd %xmm9,%xmm10
    4acd:	66 41 0f 61 f8       	punpcklwd %xmm8,%xmm7
    4ad2:	66 41 0f 61 c9       	punpcklwd %xmm9,%xmm1
    4ad7:	66 41 0f 61 e1       	punpcklwd %xmm9,%xmm4
    4adc:	66 44 0f 6f cd       	movdqa %xmm5,%xmm9
    4ae1:	66 41 0f 61 ca       	punpcklwd %xmm10,%xmm1
    4ae6:	66 45 0f 69 c8       	punpckhwd %xmm8,%xmm9
    4aeb:	66 41 0f 69 e2       	punpckhwd %xmm10,%xmm4
    4af0:	66 41 0f 61 e8       	punpcklwd %xmm8,%xmm5
    4af5:	66 44 0f 6f d7       	movdqa %xmm7,%xmm10
    4afa:	66 41 0f 61 e9       	punpcklwd %xmm9,%xmm5
    4aff:	66 41 0f 61 f9       	punpcklwd %xmm9,%xmm7
    4b04:	66 45 0f 69 d1       	punpckhwd %xmm9,%xmm10
    4b09:	66 44 0f 6f c6       	movdqa %xmm6,%xmm8
    4b0e:	66 41 0f 61 fa       	punpcklwd %xmm10,%xmm7
    4b13:	66 41 0f 69 ea       	punpckhwd %xmm10,%xmm5
    4b18:	66 44 0f 6f d6       	movdqa %xmm6,%xmm10
    4b1d:	66 44 0f 61 d3       	punpcklwd %xmm3,%xmm10
    4b22:	66 44 0f 69 c3       	punpckhwd %xmm3,%xmm8
    4b27:	66 0f 61 f3          	punpcklwd %xmm3,%xmm6
    4b2b:	66 45 0f 6f ca       	movdqa %xmm10,%xmm9
    4b30:	66 0f 6f da          	movdqa %xmm2,%xmm3
    4b34:	66 45 0f 61 d0       	punpcklwd %xmm8,%xmm10
    4b39:	66 45 0f 69 c8       	punpckhwd %xmm8,%xmm9
    4b3e:	66 0f 61 d8          	punpcklwd %xmm0,%xmm3
    4b42:	66 41 0f 61 f0       	punpcklwd %xmm8,%xmm6
    4b47:	66 44 0f 6f c2       	movdqa %xmm2,%xmm8
    4b4c:	66 45 0f 61 d1       	punpcklwd %xmm9,%xmm10
    4b51:	66 41 0f 69 f1       	punpckhwd %xmm9,%xmm6
    4b56:	66 44 0f 69 c0       	punpckhwd %xmm0,%xmm8
    4b5b:	66 44 0f 6f cb       	movdqa %xmm3,%xmm9
    4b60:	66 0f 61 d0          	punpcklwd %xmm0,%xmm2
    4b64:	66 45 0f 69 c8       	punpckhwd %xmm8,%xmm9
    4b69:	66 41 0f 61 d8       	punpcklwd %xmm8,%xmm3
    4b6e:	66 0f 6f c1          	movdqa %xmm1,%xmm0
    4b72:	66 41 0f 61 d9       	punpcklwd %xmm9,%xmm3
    4b77:	66 0f 61 c7          	punpcklwd %xmm7,%xmm0
    4b7b:	66 41 0f 61 d0       	punpcklwd %xmm8,%xmm2
    4b80:	66 45 0f 6f da       	movdqa %xmm10,%xmm11
    4b85:	66 44 0f 6f c1       	movdqa %xmm1,%xmm8
    4b8a:	66 41 0f 69 d1       	punpckhwd %xmm9,%xmm2
    4b8f:	66 44 0f 69 c7       	punpckhwd %xmm7,%xmm8
    4b94:	66 44 0f 61 db       	punpcklwd %xmm3,%xmm11
    4b99:	66 44 0f 6f c8       	movdqa %xmm0,%xmm9
    4b9e:	66 0f 61 cf          	punpcklwd %xmm7,%xmm1
    4ba2:	66 41 0f 6f fa       	movdqa %xmm10,%xmm7
    4ba7:	66 45 0f 69 c8       	punpckhwd %xmm8,%xmm9
    4bac:	66 0f 69 fb          	punpckhwd %xmm3,%xmm7
    4bb0:	66 41 0f 61 c0       	punpcklwd %xmm8,%xmm0
    4bb5:	66 41 0f 61 c8       	punpcklwd %xmm8,%xmm1
    4bba:	66 44 0f 61 d3       	punpcklwd %xmm3,%xmm10
    4bbf:	66 45 0f 6f c3       	movdqa %xmm11,%xmm8
    4bc4:	66 44 0f 61 df       	punpcklwd %xmm7,%xmm11
    4bc9:	66 44 0f 69 c7       	punpckhwd %xmm7,%xmm8
    4bce:	66 44 0f 61 d7       	punpcklwd %xmm7,%xmm10
    4bd3:	66 0f 6f dc          	movdqa %xmm4,%xmm3
    4bd7:	66 45 0f 61 d8       	punpcklwd %xmm8,%xmm11
    4bdc:	66 45 0f 69 d0       	punpckhwd %xmm8,%xmm10
    4be1:	66 44 0f 6f c4       	movdqa %xmm4,%xmm8
    4be6:	66 44 0f 61 c5       	punpcklwd %xmm5,%xmm8
    4beb:	66 0f 69 dd          	punpckhwd %xmm5,%xmm3
    4bef:	66 0f 61 e5          	punpcklwd %xmm5,%xmm4
    4bf3:	66 41 0f 6f f8       	movdqa %xmm8,%xmm7
    4bf8:	66 0f 61 e3          	punpcklwd %xmm3,%xmm4
    4bfc:	66 44 0f 61 c3       	punpcklwd %xmm3,%xmm8
    4c01:	66 0f 69 fb          	punpckhwd %xmm3,%xmm7
    4c05:	66 0f 6f de          	movdqa %xmm6,%xmm3
    4c09:	66 41 0f 61 c1       	punpcklwd %xmm9,%xmm0
    4c0e:	66 44 0f 61 c7       	punpcklwd %xmm7,%xmm8
    4c13:	66 0f 69 e7          	punpckhwd %xmm7,%xmm4
    4c17:	66 0f 6f fe          	movdqa %xmm6,%xmm7
    4c1b:	66 0f 61 fa          	punpcklwd %xmm2,%xmm7
    4c1f:	66 0f 69 da          	punpckhwd %xmm2,%xmm3
    4c23:	66 0f 61 f2          	punpcklwd %xmm2,%xmm6
    4c27:	66 0f 6f ef          	movdqa %xmm7,%xmm5
    4c2b:	66 41 0f 6f d4       	movdqa %xmm12,%xmm2
    4c30:	66 41 0f 69 c9       	punpckhwd %xmm9,%xmm1
    4c35:	66 0f 69 eb          	punpckhwd %xmm3,%xmm5
    4c39:	66 0f 65 d0          	pcmpgtw %xmm0,%xmm2
    4c3d:	66 0f 61 fb          	punpcklwd %xmm3,%xmm7
    4c41:	66 0f 61 f3          	punpcklwd %xmm3,%xmm6
    4c45:	66 41 0f 6f dc       	movdqa %xmm12,%xmm3
    4c4a:	66 0f 61 fd          	punpcklwd %xmm5,%xmm7
    4c4e:	66 0f 65 d9          	pcmpgtw %xmm1,%xmm3
    4c52:	66 44 0f 65 ec       	pcmpgtw %xmm4,%xmm13
    4c57:	66 0f 69 f5          	punpckhwd %xmm5,%xmm6
    4c5b:	66 0f 6f e8          	movdqa %xmm0,%xmm5
    4c5f:	66 0f 69 c2          	punpckhwd %xmm2,%xmm0
    4c63:	66 0f 61 ea          	punpcklwd %xmm2,%xmm5
    4c67:	66 0f 6f d1          	movdqa %xmm1,%xmm2
    4c6b:	66 44 0f 6f c8       	movdqa %xmm0,%xmm9
    4c70:	66 0f 61 d3          	punpcklwd %xmm3,%xmm2
    4c74:	66 0f 69 cb          	punpckhwd %xmm3,%xmm1
    4c78:	66 0f 6f dd          	movdqa %xmm5,%xmm3
    4c7c:	66 0f fe da          	paddd  %xmm2,%xmm3
    4c80:	66 0f fa ea          	psubd  %xmm2,%xmm5
    4c84:	66 41 0f 6f d4       	movdqa %xmm12,%xmm2
    4c89:	66 41 0f 65 d0       	pcmpgtw %xmm8,%xmm2
    4c8e:	66 44 0f fe c9       	paddd  %xmm1,%xmm9
    4c93:	66 0f fa c1          	psubd  %xmm1,%xmm0
    4c97:	66 0f 72 e3 01       	psrad  $0x1,%xmm3
    4c9c:	66 41 0f 72 e1 01    	psrad  $0x1,%xmm9
    4ca2:	66 41 0f 6f c8       	movdqa %xmm8,%xmm1
    4ca7:	66 0f 72 e0 01       	psrad  $0x1,%xmm0
    4cac:	66 0f 72 e5 01       	psrad  $0x1,%xmm5
    4cb1:	66 0f 61 ca          	punpcklwd %xmm2,%xmm1
    4cb5:	66 44 0f 69 c2       	punpckhwd %xmm2,%xmm8
    4cba:	66 0f 6f d4          	movdqa %xmm4,%xmm2
    4cbe:	66 41 0f 61 d5       	punpcklwd %xmm13,%xmm2
    4cc3:	66 41 0f 69 e5       	punpckhwd %xmm13,%xmm4
    4cc8:	66 44 0f 6f e9       	movdqa %xmm1,%xmm13
    4ccd:	66 44 0f fe ea       	paddd  %xmm2,%xmm13
    4cd2:	66 0f fa ca          	psubd  %xmm2,%xmm1
    4cd6:	66 45 0f 6f fd       	movdqa %xmm13,%xmm15
    4cdb:	66 0f 72 e1 01       	psrad  $0x1,%xmm1
    4ce0:	66 45 0f 6f e8       	movdqa %xmm8,%xmm13
    4ce5:	66 44 0f fe ec       	paddd  %xmm4,%xmm13
    4cea:	66 41 0f 72 e7 01    	psrad  $0x1,%xmm15
    4cf0:	0f 29 4c 24 98       	movaps %xmm1,-0x68(%rsp)
    4cf5:	66 44 0f fa c4       	psubd  %xmm4,%xmm8
    4cfa:	66 45 0f 6f f5       	movdqa %xmm13,%xmm14
    4cff:	66 41 0f 6f cf       	movdqa %xmm15,%xmm1
    4d04:	66 45 0f 6f ea       	movdqa %xmm10,%xmm13
    4d09:	44 0f 29 7c 24 c8    	movaps %xmm15,-0x38(%rsp)
    4d0f:	66 41 0f 72 e6 01    	psrad  $0x1,%xmm14
    4d15:	66 41 0f 72 e0 01    	psrad  $0x1,%xmm8
    4d1b:	66 0f fe cb          	paddd  %xmm3,%xmm1
    4d1f:	66 41 0f 6f d6       	movdqa %xmm14,%xmm2
    4d24:	66 0f 72 e1 01       	psrad  $0x1,%xmm1
    4d29:	44 0f 29 44 24 a8    	movaps %xmm8,-0x58(%rsp)
    4d2f:	66 0f fa 5c 24 c8    	psubd  -0x38(%rsp),%xmm3
    4d35:	66 41 0f fe d1       	paddd  %xmm9,%xmm2
    4d3a:	66 0f 6f e1          	movdqa %xmm1,%xmm4
    4d3e:	44 0f 29 74 24 b8    	movaps %xmm14,-0x48(%rsp)
    4d44:	66 44 0f fa 4c 24 b8 	psubd  -0x48(%rsp),%xmm9
    4d4b:	66 0f 72 e2 01       	psrad  $0x1,%xmm2
    4d50:	66 0f 72 e3 01       	psrad  $0x1,%xmm3
    4d55:	66 0f 61 ca          	punpcklwd %xmm2,%xmm1
    4d59:	66 41 0f 72 e1 01    	psrad  $0x1,%xmm9
    4d5f:	66 0f 69 e2          	punpckhwd %xmm2,%xmm4
    4d63:	66 0f 6f d1          	movdqa %xmm1,%xmm2
    4d67:	66 0f 61 cc          	punpcklwd %xmm4,%xmm1
    4d6b:	66 0f 69 d4          	punpckhwd %xmm4,%xmm2
    4d6f:	66 41 0f 6f e4       	movdqa %xmm12,%xmm4
    4d74:	66 41 0f 65 e3       	pcmpgtw %xmm11,%xmm4
    4d79:	66 0f 61 ca          	punpcklwd %xmm2,%xmm1
    4d7d:	66 0f 6f d4          	movdqa %xmm4,%xmm2
    4d81:	66 41 0f 6f e3       	movdqa %xmm11,%xmm4
    4d86:	66 0f 61 e2          	punpcklwd %xmm2,%xmm4
    4d8a:	66 44 0f 69 da       	punpckhwd %xmm2,%xmm11
    4d8f:	66 41 0f 6f d4       	movdqa %xmm12,%xmm2
    4d94:	66 41 0f 65 d2       	pcmpgtw %xmm10,%xmm2
    4d99:	66 45 0f 6f c3       	movdqa %xmm11,%xmm8
    4d9e:	66 44 0f 69 d2       	punpckhwd %xmm2,%xmm10
    4da3:	66 44 0f 61 ea       	punpcklwd %xmm2,%xmm13
    4da8:	66 0f 6f d4          	movdqa %xmm4,%xmm2
    4dac:	66 45 0f fa da       	psubd  %xmm10,%xmm11
    4db1:	66 45 0f fe c2       	paddd  %xmm10,%xmm8
    4db6:	66 44 0f 6f d7       	movdqa %xmm7,%xmm10
    4dbb:	66 41 0f 72 e3 01    	psrad  $0x1,%xmm11
    4dc1:	66 41 0f fa e5       	psubd  %xmm13,%xmm4
    4dc6:	66 41 0f fe d5       	paddd  %xmm13,%xmm2
    4dcb:	66 0f 72 e4 01       	psrad  $0x1,%xmm4
    4dd0:	66 41 0f 72 e0 01    	psrad  $0x1,%xmm8
    4dd6:	66 45 0f 6f fb       	movdqa %xmm11,%xmm15
    4ddb:	66 45 0f 6f dc       	movdqa %xmm12,%xmm11
    4de0:	0f 29 64 24 88       	movaps %xmm4,-0x78(%rsp)
    4de5:	66 0f 6f e6          	movdqa %xmm6,%xmm4
    4de9:	66 44 0f 65 df       	pcmpgtw %xmm7,%xmm11
    4dee:	66 0f 72 e2 01       	psrad  $0x1,%xmm2
    4df3:	66 45 0f 61 d3       	punpcklwd %xmm11,%xmm10
    4df8:	66 41 0f 69 fb       	punpckhwd %xmm11,%xmm7
    4dfd:	66 45 0f 6f dc       	movdqa %xmm12,%xmm11
    4e02:	66 44 0f 65 de       	pcmpgtw %xmm6,%xmm11
    4e07:	66 41 0f 61 e3       	punpcklwd %xmm11,%xmm4
    4e0c:	66 41 0f 69 f3       	punpckhwd %xmm11,%xmm6
    4e11:	66 44 0f 6f df       	movdqa %xmm7,%xmm11
    4e16:	66 44 0f 6f f4       	movdqa %xmm4,%xmm14
    4e1b:	66 41 0f 6f e2       	movdqa %xmm10,%xmm4
    4e20:	66 44 0f fe de       	paddd  %xmm6,%xmm11
    4e25:	66 41 0f fe e6       	paddd  %xmm14,%xmm4
    4e2a:	66 41 0f 72 e3 01    	psrad  $0x1,%xmm11
    4e30:	66 0f fa fe          	psubd  %xmm6,%xmm7
    4e34:	66 44 0f 6f ec       	movdqa %xmm4,%xmm13
    4e39:	66 41 0f 6f e3       	movdqa %xmm11,%xmm4
    4e3e:	66 45 0f fa d6       	psubd  %xmm14,%xmm10
    4e43:	66 41 0f 72 e5 01    	psrad  $0x1,%xmm13
    4e49:	66 0f 72 e7 01       	psrad  $0x1,%xmm7
    4e4e:	66 41 0f fe e0       	paddd  %xmm8,%xmm4
    4e53:	66 41 0f 6f f5       	movdqa %xmm13,%xmm6
    4e58:	66 44 0f 6f f4       	movdqa %xmm4,%xmm14
    4e5d:	66 45 0f fa c3       	psubd  %xmm11,%xmm8
    4e62:	66 41 0f 72 e6 01    	psrad  $0x1,%xmm14
    4e68:	66 41 0f 72 e0 01    	psrad  $0x1,%xmm8
    4e6e:	66 0f fe f2          	paddd  %xmm2,%xmm6
    4e72:	66 0f 72 e6 01       	psrad  $0x1,%xmm6
    4e77:	66 41 0f 72 e2 01    	psrad  $0x1,%xmm10
    4e7d:	66 41 0f fa d5       	psubd  %xmm13,%xmm2
    4e82:	66 0f 6f e6          	movdqa %xmm6,%xmm4
    4e86:	66 0f 72 e2 01       	psrad  $0x1,%xmm2
    4e8b:	66 41 0f 61 f6       	punpcklwd %xmm14,%xmm6
    4e90:	66 41 0f 69 e6       	punpckhwd %xmm14,%xmm4
    4e95:	66 44 0f 6f f6       	movdqa %xmm6,%xmm14
    4e9a:	66 44 0f 69 f4       	punpckhwd %xmm4,%xmm14
    4e9f:	66 0f 61 f4          	punpcklwd %xmm4,%xmm6
    4ea3:	66 0f 6f e3          	movdqa %xmm3,%xmm4
    4ea7:	66 41 0f 61 d9       	punpcklwd %xmm9,%xmm3
    4eac:	66 41 0f 69 e1       	punpckhwd %xmm9,%xmm4
    4eb1:	66 41 0f 61 f6       	punpcklwd %xmm14,%xmm6
    4eb6:	66 44 0f 6f 74 24 a8 	movdqa -0x58(%rsp),%xmm14
    4ebd:	66 44 0f 6f cb       	movdqa %xmm3,%xmm9
    4ec2:	66 0f 61 dc          	punpcklwd %xmm4,%xmm3
    4ec6:	66 44 0f 69 cc       	punpckhwd %xmm4,%xmm9
    4ecb:	66 41 0f 61 d9       	punpcklwd %xmm9,%xmm3
    4ed0:	66 44 0f 6f ca       	movdqa %xmm2,%xmm9
    4ed5:	66 41 0f 61 d0       	punpcklwd %xmm8,%xmm2
    4eda:	66 45 0f 69 c8       	punpckhwd %xmm8,%xmm9
    4edf:	66 0f 6f e2          	movdqa %xmm2,%xmm4
    4ee3:	66 41 0f 69 e1       	punpckhwd %xmm9,%xmm4
    4ee8:	66 41 0f 61 d1       	punpcklwd %xmm9,%xmm2
    4eed:	66 45 0f 6f ca       	movdqa %xmm10,%xmm9
    4ef2:	66 0f 61 d4          	punpcklwd %xmm4,%xmm2
    4ef6:	66 0f 6f e7          	movdqa %xmm7,%xmm4
    4efa:	66 44 0f fe cd       	paddd  %xmm5,%xmm9
    4eff:	66 0f fe e0          	paddd  %xmm0,%xmm4
    4f03:	66 41 0f 72 e1 01    	psrad  $0x1,%xmm9
    4f09:	66 41 0f fa ea       	psubd  %xmm10,%xmm5
    4f0e:	66 44 0f 6f c4       	movdqa %xmm4,%xmm8
    4f13:	66 45 0f 6f d9       	movdqa %xmm9,%xmm11
    4f18:	66 0f fa c7          	psubd  %xmm7,%xmm0
    4f1c:	66 41 0f 72 e0 01    	psrad  $0x1,%xmm8
    4f22:	66 0f 72 e0 01       	psrad  $0x1,%xmm0
    4f27:	66 44 0f 6f d2       	movdqa %xmm2,%xmm10
    4f2c:	66 45 0f 61 c8       	punpcklwd %xmm8,%xmm9
    4f31:	66 0f 72 e5 01       	psrad  $0x1,%xmm5
    4f36:	66 45 0f 69 d8       	punpckhwd %xmm8,%xmm11
    4f3b:	66 41 0f 6f e1       	movdqa %xmm9,%xmm4
    4f40:	66 45 0f 61 cb       	punpcklwd %xmm11,%xmm9
    4f45:	66 0f 6f fd          	movdqa %xmm5,%xmm7
    4f49:	66 41 0f 69 e3       	punpckhwd %xmm11,%xmm4
    4f4e:	66 45 0f 6f df       	movdqa %xmm15,%xmm11
    4f53:	66 0f 61 e8          	punpcklwd %xmm0,%xmm5
    4f57:	66 44 0f 61 cc       	punpcklwd %xmm4,%xmm9
    4f5c:	66 0f 6f 64 24 88    	movdqa -0x78(%rsp),%xmm4
    4f62:	66 0f fa 64 24 98    	psubd  -0x68(%rsp),%xmm4
    4f68:	66 45 0f fa de       	psubd  %xmm14,%xmm11
    4f6d:	66 41 0f 72 e3 01    	psrad  $0x1,%xmm11
    4f73:	66 0f 69 f8          	punpckhwd %xmm0,%xmm7
    4f77:	66 0f 6f c5          	movdqa %xmm5,%xmm0
    4f7b:	66 44 0f 6f c4       	movdqa %xmm4,%xmm8
    4f80:	66 0f 69 c7          	punpckhwd %xmm7,%xmm0
    4f84:	66 0f 61 ef          	punpcklwd %xmm7,%xmm5
    4f88:	66 41 0f 72 e0 01    	psrad  $0x1,%xmm8
    4f8e:	66 0f 61 e8          	punpcklwd %xmm0,%xmm5
    4f92:	66 41 0f 6f c6       	movdqa %xmm14,%xmm0
    4f97:	66 41 0f 6f e0       	movdqa %xmm8,%xmm4
    4f9c:	66 45 0f 61 c3       	punpcklwd %xmm11,%xmm8
    4fa1:	66 41 0f fe c7       	paddd  %xmm15,%xmm0
    4fa6:	66 41 0f 69 e3       	punpckhwd %xmm11,%xmm4
    4fab:	66 0f 72 e0 01       	psrad  $0x1,%xmm0
    4fb0:	66 45 0f 6f d8       	movdqa %xmm8,%xmm11
    4fb5:	66 44 0f 69 dc       	punpckhwd %xmm4,%xmm11
    4fba:	66 44 0f 61 c4       	punpcklwd %xmm4,%xmm8
    4fbf:	66 0f 6f 64 24 88    	movdqa -0x78(%rsp),%xmm4
    4fc5:	66 0f fe 64 24 98    	paddd  -0x68(%rsp),%xmm4
    4fcb:	66 45 0f 61 c3       	punpcklwd %xmm11,%xmm8
    4fd0:	66 0f 72 e4 01       	psrad  $0x1,%xmm4
    4fd5:	66 0f 6f fc          	movdqa %xmm4,%xmm7
    4fd9:	66 0f 61 e0          	punpcklwd %xmm0,%xmm4
    4fdd:	66 0f 69 f8          	punpckhwd %xmm0,%xmm7
    4fe1:	66 0f 6f c4          	movdqa %xmm4,%xmm0
    4fe5:	66 0f 69 c7          	punpckhwd %xmm7,%xmm0
    4fe9:	66 0f 61 e7          	punpcklwd %xmm7,%xmm4
    4fed:	66 0f 6f f9          	movdqa %xmm1,%xmm7
    4ff1:	66 0f 61 e0          	punpcklwd %xmm0,%xmm4
    4ff5:	66 41 0f 61 f9       	punpcklwd %xmm9,%xmm7
    4ffa:	66 41 0f 69 c9       	punpckhwd %xmm9,%xmm1
    4fff:	66 0f 6f c6          	movdqa %xmm6,%xmm0
    5003:	66 44 0f 6f cb       	movdqa %xmm3,%xmm9
    5008:	66 41 0f 69 f0       	punpckhwd %xmm8,%xmm6
    500d:	66 44 0f 61 cd       	punpcklwd %xmm5,%xmm9
    5012:	66 0f 69 dd          	punpckhwd %xmm5,%xmm3
    5016:	66 41 0f 61 c0       	punpcklwd %xmm8,%xmm0
    501b:	66 0f 6f ef          	movdqa %xmm7,%xmm5
    501f:	66 44 0f 6f c7       	movdqa %xmm7,%xmm8
    5024:	66 0f 69 d4          	punpckhwd %xmm4,%xmm2
    5028:	66 44 0f 61 d4       	punpcklwd %xmm4,%xmm10
    502d:	66 45 0f 61 c1       	punpcklwd %xmm9,%xmm8
    5032:	66 41 0f 69 e9       	punpckhwd %xmm9,%xmm5
    5037:	66 0f 6f fe          	movdqa %xmm6,%xmm7
    503b:	66 44 0f 6f c8       	movdqa %xmm0,%xmm9
    5040:	66 0f 69 f2          	punpckhwd %xmm2,%xmm6
    5044:	66 0f 61 fa          	punpcklwd %xmm2,%xmm7
    5048:	66 45 0f 61 ca       	punpcklwd %xmm10,%xmm9
    504d:	66 41 0f 6f d0       	movdqa %xmm8,%xmm2
    5052:	66 0f 6f e1          	movdqa %xmm1,%xmm4
    5056:	66 41 0f 61 d1       	punpcklwd %xmm9,%xmm2
    505b:	66 41 0f 69 c2       	punpckhwd %xmm10,%xmm0
    5060:	66 0f 61 e3          	punpcklwd %xmm3,%xmm4
    5064:	0f 11 50 80          	movups %xmm2,-0x80(%rax)
    5068:	66 0f 6f d5          	movdqa %xmm5,%xmm2
    506c:	66 0f 69 e8          	punpckhwd %xmm0,%xmm5
    5070:	66 0f 61 d0          	punpcklwd %xmm0,%xmm2
    5074:	66 0f 6f c4          	movdqa %xmm4,%xmm0
    5078:	66 0f 69 cb          	punpckhwd %xmm3,%xmm1
    507c:	0f 11 68 b0          	movups %xmm5,-0x50(%rax)
    5080:	66 0f 61 c7          	punpcklwd %xmm7,%xmm0
    5084:	66 41 0f 6f d8       	movdqa %xmm8,%xmm3
    5089:	0f 11 50 a0          	movups %xmm2,-0x60(%rax)
    508d:	0f 11 40 c0          	movups %xmm0,-0x40(%rax)
    5091:	66 0f 6f c4          	movdqa %xmm4,%xmm0
    5095:	66 41 0f 69 d9       	punpckhwd %xmm9,%xmm3
    509a:	66 0f 69 c7          	punpckhwd %xmm7,%xmm0
    509e:	0f 11 58 90          	movups %xmm3,-0x70(%rax)
    50a2:	0f 11 40 d0          	movups %xmm0,-0x30(%rax)
    50a6:	66 0f 6f c1          	movdqa %xmm1,%xmm0
    50aa:	66 0f 69 ce          	punpckhwd %xmm6,%xmm1
    50ae:	66 0f 61 c6          	punpcklwd %xmm6,%xmm0
    50b2:	0f 11 48 f0          	movups %xmm1,-0x10(%rax)
    50b6:	0f 11 40 e0          	movups %xmm0,-0x20(%rax)
    50ba:	48 39 d0             	cmp    %rdx,%rax
    50bd:	0f 85 ec f8 ff ff    	jne    49af <riscv_dsp_cfft_rd4_q15+0x80f>
    50c3:	48 89 ca             	mov    %rcx,%rdx
    50c6:	48 83 e2 f8          	and    $0xfffffffffffffff8,%rdx
    50ca:	48 89 d0             	mov    %rdx,%rax
    50cd:	48 c1 e0 04          	shl    $0x4,%rax
    50d1:	48 03 04 24          	add    (%rsp),%rax
    50d5:	48 39 ca             	cmp    %rcx,%rdx
    50d8:	0f 84 db 00 00 00    	je     51b9 <riscv_dsp_cfft_rd4_q15+0x1019>
    50de:	66 90                	xchg   %ax,%ax
    50e0:	0f bf 70 08          	movswl 0x8(%rax),%esi
    50e4:	0f bf 10             	movswl (%rax),%edx
    50e7:	48 83 c0 10          	add    $0x10,%rax
    50eb:	0f bf 78 fc          	movswl -0x4(%rax),%edi
    50ef:	44 0f bf 48 fa       	movswl -0x6(%rax),%r9d
    50f4:	8d 0c 32             	lea    (%rdx,%rsi,1),%ecx
    50f7:	29 f2                	sub    %esi,%edx
    50f9:	0f bf 70 f4          	movswl -0xc(%rax),%esi
    50fd:	0f bf 58 fe          	movswl -0x2(%rax),%ebx
    5101:	d1 f9                	sar    %ecx
    5103:	d1 fa                	sar    %edx
    5105:	44 8d 1c 3e          	lea    (%rsi,%rdi,1),%r11d
    5109:	29 fe                	sub    %edi,%esi
    510b:	0f bf 78 f2          	movswl -0xe(%rax),%edi
    510f:	41 d1 fb             	sar    %r11d
    5112:	d1 fe                	sar    %esi
    5114:	46 8d 04 0f          	lea    (%rdi,%r9,1),%r8d
    5118:	44 29 cf             	sub    %r9d,%edi
    511b:	44 0f bf 48 f6       	movswl -0xa(%rax),%r9d
    5120:	41 d1 f8             	sar    %r8d
    5123:	d1 ff                	sar    %edi
    5125:	45 8d 14 19          	lea    (%r9,%rbx,1),%r10d
    5129:	41 29 d9             	sub    %ebx,%r9d
    512c:	42 8d 1c 19          	lea    (%rcx,%r11,1),%ebx
    5130:	44 29 d9             	sub    %r11d,%ecx
    5133:	41 d1 fa             	sar    %r10d
    5136:	66 0f 6e c3          	movd   %ebx,%xmm0
    513a:	66 0f 6e c9          	movd   %ecx,%xmm1
    513e:	41 d1 f9             	sar    %r9d
    5141:	43 8d 1c 02          	lea    (%r10,%r8,1),%ebx
    5145:	45 29 d0             	sub    %r10d,%r8d
    5148:	41 8d 0c 11          	lea    (%r9,%rdx,1),%ecx
    514c:	44 29 ca             	sub    %r9d,%edx
    514f:	66 41 0f 6e f0       	movd   %r8d,%xmm6
    5154:	66 0f 6e d2          	movd   %edx,%xmm2
    5158:	66 0f 62 ce          	punpckldq %xmm6,%xmm1
    515c:	66 0f 6e f3          	movd   %ebx,%xmm6
    5160:	66 0f 62 c6          	punpckldq %xmm6,%xmm0
    5164:	66 0f 6c c1          	punpcklqdq %xmm1,%xmm0
    5168:	66 0f 6e c9          	movd   %ecx,%xmm1
    516c:	89 f9                	mov    %edi,%ecx
    516e:	29 f1                	sub    %esi,%ecx
    5170:	66 0f 72 e0 01       	psrad  $0x1,%xmm0
    5175:	01 fe                	add    %edi,%esi
    5177:	66 0f 6e f6          	movd   %esi,%xmm6
    517b:	66 0f 62 d6          	punpckldq %xmm6,%xmm2
    517f:	66 0f 6e f1          	movd   %ecx,%xmm6
    5183:	66 0f 62 ce          	punpckldq %xmm6,%xmm1
    5187:	66 0f 6c ca          	punpcklqdq %xmm2,%xmm1
    518b:	66 0f 6f d0          	movdqa %xmm0,%xmm2
    518f:	66 0f 72 e1 01       	psrad  $0x1,%xmm1
    5194:	66 0f 61 c1          	punpcklwd %xmm1,%xmm0
    5198:	66 0f 69 d1          	punpckhwd %xmm1,%xmm2
    519c:	66 0f 6f c8          	movdqa %xmm0,%xmm1
    51a0:	66 0f 61 c2          	punpcklwd %xmm2,%xmm0
    51a4:	66 0f 69 ca          	punpckhwd %xmm2,%xmm1
    51a8:	66 0f 61 c1          	punpcklwd %xmm1,%xmm0
    51ac:	0f 11 40 f0          	movups %xmm0,-0x10(%rax)
    51b0:	48 39 c5             	cmp    %rax,%rbp
    51b3:	0f 85 27 ff ff ff    	jne    50e0 <riscv_dsp_cfft_rd4_q15+0xf40>
    51b9:	0f b6 4c 24 14       	movzbl 0x14(%rsp),%ecx
    51be:	b8 02 00 00 00       	mov    $0x2,%eax
    51c3:	48 8b 34 24          	mov    (%rsp),%rsi
    51c7:	44 8b 64 24 1c       	mov    0x1c(%rsp),%r12d
    51cc:	d3 e0                	shl    %cl,%eax
    51ce:	48 8b 4c 24 20       	mov    0x20(%rsp),%rcx
    51d3:	48 8d 7c 46 fe       	lea    -0x2(%rsi,%rax,2),%rdi
    51d8:	0f b7 46 04          	movzwl 0x4(%rsi),%eax
    51dc:	44 89 e3             	mov    %r12d,%ebx
    51df:	0f b7 11             	movzwl (%rcx),%edx
    51e2:	66 89 56 04          	mov    %dx,0x4(%rsi)
    51e6:	66 89 01             	mov    %ax,(%rcx)
    51e9:	43 8d 44 24 01       	lea    0x1(%r12,%r12,1),%eax
    51ee:	0f b7 56 06          	movzwl 0x6(%rsi),%edx
    51f2:	48 8d 04 46          	lea    (%rsi,%rax,2),%rax
    51f6:	0f b7 08             	movzwl (%rax),%ecx
    51f9:	66 89 4e 06          	mov    %cx,0x6(%rsi)
    51fd:	8b 4c 24 18          	mov    0x18(%rsp),%ecx
    5201:	66 89 10             	mov    %dx,(%rax)
    5204:	44 89 e0             	mov    %r12d,%eax
    5207:	ba 04 00 00 00       	mov    $0x4,%edx
    520c:	41 89 c9             	mov    %ecx,%r9d
    520f:	c1 e9 03             	shr    $0x3,%ecx
    5212:	41 c1 e9 02          	shr    $0x2,%r9d
    5216:	41 89 ca             	mov    %ecx,%r10d
    5219:	44 31 cb             	xor    %r9d,%ebx
    521c:	41 89 db             	mov    %ebx,%r11d
    521f:	89 cb                	mov    %ecx,%ebx
    5221:	b9 04 00 00 00       	mov    $0x4,%ecx
    5226:	44 31 db             	xor    %r11d,%ebx
    5229:	89 5c 24 88          	mov    %ebx,-0x78(%rsp)
    522d:	0f 1f 00             	nopl   (%rax)
    5230:	44 31 d8             	xor    %r11d,%eax
    5233:	41 85 c1             	test   %eax,%r9d
    5236:	75 13                	jne    524b <riscv_dsp_cfft_rd4_q15+0x10ab>
    5238:	45 89 c8             	mov    %r9d,%r8d
    523b:	0f 1f 44 00 00       	nopl   0x0(%rax,%rax,1)
    5240:	41 d1 e8             	shr    %r8d
    5243:	44 31 c0             	xor    %r8d,%eax
    5246:	41 85 c0             	test   %eax,%r8d
    5249:	74 f5                	je     5240 <riscv_dsp_cfft_rd4_q15+0x10a0>
    524b:	44 8d 41 fe          	lea    -0x2(%rcx),%r8d
    524f:	44 39 c0             	cmp    %r8d,%eax
    5252:	0f 86 8f 00 00 00    	jbe    52e7 <riscv_dsp_cfft_rd4_q15+0x1147>
    5258:	41 89 d0             	mov    %edx,%r8d
    525b:	8d 1c 00             	lea    (%rax,%rax,1),%ebx
    525e:	4e 8d 2c 46          	lea    (%rsi,%r8,2),%r13
    5262:	49 89 d8             	mov    %rbx,%r8
    5265:	48 8d 1c 5e          	lea    (%rsi,%rbx,2),%rbx
    5269:	45 0f b7 75 00       	movzwl 0x0(%r13),%r14d
    526e:	44 0f b7 3b          	movzwl (%rbx),%r15d
    5272:	41 83 c0 01          	add    $0x1,%r8d
    5276:	4e 8d 04 46          	lea    (%rsi,%r8,2),%r8
    527a:	66 45 89 7d 00       	mov    %r15w,0x0(%r13)
    527f:	66 44 89 33          	mov    %r14w,(%rbx)
    5283:	8d 5a 01             	lea    0x1(%rdx),%ebx
    5286:	45 0f b7 30          	movzwl (%r8),%r14d
    528a:	48 8d 1c 5e          	lea    (%rsi,%rbx,2),%rbx
    528e:	44 0f b7 2b          	movzwl (%rbx),%r13d
    5292:	66 44 89 33          	mov    %r14w,(%rbx)
    5296:	89 d3                	mov    %edx,%ebx
    5298:	f7 db                	neg    %ebx
    529a:	66 45 89 28          	mov    %r13w,(%r8)
    529e:	41 89 c0             	mov    %eax,%r8d
    52a1:	48 63 db             	movslq %ebx,%rbx
    52a4:	41 f7 d8             	neg    %r8d
    52a7:	48 01 db             	add    %rbx,%rbx
    52aa:	45 01 c0             	add    %r8d,%r8d
    52ad:	4c 8d 34 1f          	lea    (%rdi,%rbx,1),%r14
    52b1:	48 8d 5c 1f fe       	lea    -0x2(%rdi,%rbx,1),%rbx
    52b6:	4d 63 c0             	movslq %r8d,%r8
    52b9:	45 0f b7 3e          	movzwl (%r14),%r15d
    52bd:	4d 01 c0             	add    %r8,%r8
    52c0:	4e 8d 2c 07          	lea    (%rdi,%r8,1),%r13
    52c4:	4e 8d 44 07 fe       	lea    -0x2(%rdi,%r8,1),%r8
    52c9:	41 0f b7 6d 00       	movzwl 0x0(%r13),%ebp
    52ce:	66 41 89 2e          	mov    %bp,(%r14)
    52d2:	66 45 89 7d 00       	mov    %r15w,0x0(%r13)
    52d7:	44 0f b7 2b          	movzwl (%rbx),%r13d
    52db:	45 0f b7 30          	movzwl (%r8),%r14d
    52df:	66 44 89 33          	mov    %r14w,(%rbx)
    52e3:	66 45 89 28          	mov    %r13w,(%r8)
    52e7:	44 01 e0             	add    %r12d,%eax
    52ea:	44 8d 42 02          	lea    0x2(%rdx),%r8d
    52ee:	8d 1c 00             	lea    (%rax,%rax,1),%ebx
    52f1:	4e 8d 2c 46          	lea    (%rsi,%r8,2),%r13
    52f5:	49 89 d8             	mov    %rbx,%r8
    52f8:	48 8d 1c 5e          	lea    (%rsi,%rbx,2),%rbx
    52fc:	45 0f b7 75 00       	movzwl 0x0(%r13),%r14d
    5301:	44 0f b7 3b          	movzwl (%rbx),%r15d
    5305:	41 83 c0 01          	add    $0x1,%r8d
    5309:	4e 8d 04 46          	lea    (%rsi,%r8,2),%r8
    530d:	66 45 89 7d 00       	mov    %r15w,0x0(%r13)
    5312:	66 44 89 33          	mov    %r14w,(%rbx)
    5316:	8d 5a 03             	lea    0x3(%rdx),%ebx
    5319:	45 0f b7 30          	movzwl (%r8),%r14d
    531d:	48 8d 1c 5e          	lea    (%rsi,%rbx,2),%rbx
    5321:	44 0f b7 2b          	movzwl (%rbx),%r13d
    5325:	66 44 89 33          	mov    %r14w,(%rbx)
    5329:	66 45 89 28          	mov    %r13w,(%r8)
    532d:	41 39 cc             	cmp    %ecx,%r12d
    5330:	0f 86 71 02 00 00    	jbe    55a7 <riscv_dsp_cfft_rd4_q15+0x1407>
    5336:	33 44 24 88          	xor    -0x78(%rsp),%eax
    533a:	41 85 c2             	test   %eax,%r10d
    533d:	75 14                	jne    5353 <riscv_dsp_cfft_rd4_q15+0x11b3>
    533f:	45 89 d0             	mov    %r10d,%r8d
    5342:	66 0f 1f 44 00 00    	nopw   0x0(%rax,%rax,1)
    5348:	41 d1 e8             	shr    %r8d
    534b:	44 31 c0             	xor    %r8d,%eax
    534e:	41 85 c0             	test   %eax,%r8d
    5351:	74 f5                	je     5348 <riscv_dsp_cfft_rd4_q15+0x11a8>
    5353:	39 c8                	cmp    %ecx,%eax
    5355:	0f 86 93 00 00 00    	jbe    53ee <riscv_dsp_cfft_rd4_q15+0x124e>
    535b:	44 8d 42 04          	lea    0x4(%rdx),%r8d
    535f:	8d 1c 00             	lea    (%rax,%rax,1),%ebx
    5362:	4e 8d 2c 46          	lea    (%rsi,%r8,2),%r13
    5366:	49 89 d8             	mov    %rbx,%r8
    5369:	48 8d 1c 5e          	lea    (%rsi,%rbx,2),%rbx
    536d:	45 0f b7 75 00       	movzwl 0x0(%r13),%r14d
    5372:	44 0f b7 3b          	movzwl (%rbx),%r15d
    5376:	41 83 c0 01          	add    $0x1,%r8d
    537a:	4e 8d 04 46          	lea    (%rsi,%r8,2),%r8
    537e:	66 45 89 7d 00       	mov    %r15w,0x0(%r13)
    5383:	66 44 89 33          	mov    %r14w,(%rbx)
    5387:	8d 5a 05             	lea    0x5(%rdx),%ebx
    538a:	45 0f b7 30          	movzwl (%r8),%r14d
    538e:	48 8d 1c 5e          	lea    (%rsi,%rbx,2),%rbx
    5392:	44 0f b7 2b          	movzwl (%rbx),%r13d
    5396:	66 44 89 33          	mov    %r14w,(%rbx)
    539a:	bb fc ff ff ff       	mov    $0xfffffffc,%ebx
    539f:	29 d3                	sub    %edx,%ebx
    53a1:	66 45 89 28          	mov    %r13w,(%r8)
    53a5:	41 89 c0             	mov    %eax,%r8d
    53a8:	48 63 db             	movslq %ebx,%rbx
    53ab:	41 f7 d8             	neg    %r8d
    53ae:	48 01 db             	add    %rbx,%rbx
    53b1:	45 01 c0             	add    %r8d,%r8d
    53b4:	4c 8d 34 1f          	lea    (%rdi,%rbx,1),%r14
    53b8:	48 8d 5c 1f fe       	lea    -0x2(%rdi,%rbx,1),%rbx
    53bd:	4d 63 c0             	movslq %r8d,%r8
    53c0:	45 0f b7 3e          	movzwl (%r14),%r15d
    53c4:	4d 01 c0             	add    %r8,%r8
    53c7:	4e 8d 2c 07          	lea    (%rdi,%r8,1),%r13
    53cb:	4e 8d 44 07 fe       	lea    -0x2(%rdi,%r8,1),%r8
    53d0:	41 0f b7 6d 00       	movzwl 0x0(%r13),%ebp
    53d5:	66 41 89 2e          	mov    %bp,(%r14)
    53d9:	66 45 89 7d 00       	mov    %r15w,0x0(%r13)
    53de:	44 0f b7 2b          	movzwl (%rbx),%r13d
    53e2:	45 0f b7 30          	movzwl (%r8),%r14d
    53e6:	66 44 89 33          	mov    %r14w,(%rbx)
    53ea:	66 45 89 28          	mov    %r13w,(%r8)
    53ee:	44 01 e0             	add    %r12d,%eax
    53f1:	44 8d 42 06          	lea    0x6(%rdx),%r8d
    53f5:	83 c1 04             	add    $0x4,%ecx
    53f8:	8d 1c 00             	lea    (%rax,%rax,1),%ebx
    53fb:	4e 8d 2c 46          	lea    (%rsi,%r8,2),%r13
    53ff:	49 89 d8             	mov    %rbx,%r8
    5402:	48 8d 1c 5e          	lea    (%rsi,%rbx,2),%rbx
    5406:	45 0f b7 75 00       	movzwl 0x0(%r13),%r14d
    540b:	44 0f b7 3b          	movzwl (%rbx),%r15d
    540f:	41 83 c0 01          	add    $0x1,%r8d
    5413:	4e 8d 04 46          	lea    (%rsi,%r8,2),%r8
    5417:	66 45 89 7d 00       	mov    %r15w,0x0(%r13)
    541c:	66 44 89 33          	mov    %r14w,(%rbx)
    5420:	8d 5a 07             	lea    0x7(%rdx),%ebx
    5423:	45 0f b7 30          	movzwl (%r8),%r14d
    5427:	83 c2 08             	add    $0x8,%edx
    542a:	48 8d 1c 5e          	lea    (%rsi,%rbx,2),%rbx
    542e:	44 0f b7 2b          	movzwl (%rbx),%r13d
    5432:	66 44 89 33          	mov    %r14w,(%rbx)
    5436:	66 45 89 28          	mov    %r13w,(%r8)
    543a:	e9 f1 fd ff ff       	jmp    5230 <riscv_dsp_cfft_rd4_q15+0x1090>
    543f:	90                   	nop
    5440:	8d b1 00 ff ff ff    	lea    -0x100(%rcx),%esi
    5446:	bf 00 01 00 00       	mov    $0x100,%edi
    544b:	29 f7                	sub    %esi,%edi
    544d:	85 ff                	test   %edi,%edi
    544f:	0f 8e 93 00 00 00    	jle    54e8 <riscv_dsp_cfft_rd4_q15+0x1348>
    5455:	48 8d 0d 28 43 01 00 	lea    0x14328(%rip),%rcx        # 19784 <riscv_dsp_cos_table_q15_1024+0x4>
    545c:	48 63 ff             	movslq %edi,%rdi
    545f:	48 63 f6             	movslq %esi,%rsi
    5462:	0f b7 3c 79          	movzwl (%rcx,%rdi,2),%edi
    5466:	0f b7 34 71          	movzwl (%rcx,%rsi,2),%esi
    546a:	f7 df                	neg    %edi
    546c:	e9 26 f3 ff ff       	jmp    4797 <riscv_dsp_cfft_rd4_q15+0x5f7>
    5471:	0f 1f 80 00 00 00 00 	nopl   0x0(%rax)
    5478:	44 8d 81 00 ff ff ff 	lea    -0x100(%rcx),%r8d
    547f:	41 b9 00 01 00 00    	mov    $0x100,%r9d
    5485:	45 29 c1             	sub    %r8d,%r9d
    5488:	45 85 c9             	test   %r9d,%r9d
    548b:	0f 8e 97 00 00 00    	jle    5528 <riscv_dsp_cfft_rd4_q15+0x1388>
    5491:	48 8d 0d ec 42 01 00 	lea    0x142ec(%rip),%rcx        # 19784 <riscv_dsp_cos_table_q15_1024+0x4>
    5498:	4d 63 c9             	movslq %r9d,%r9
    549b:	4d 63 c0             	movslq %r8d,%r8
    549e:	46 0f b7 24 49       	movzwl (%rcx,%r9,2),%r12d
    54a3:	46 0f b7 2c 41       	movzwl (%rcx,%r8,2),%r13d
    54a8:	41 f7 dc             	neg    %r12d
    54ab:	e9 20 f3 ff ff       	jmp    47d0 <riscv_dsp_cfft_rd4_q15+0x630>
    54b0:	8d 88 00 ff ff ff    	lea    -0x100(%rax),%ecx
    54b6:	ba 00 01 00 00       	mov    $0x100,%edx
    54bb:	29 ca                	sub    %ecx,%edx
    54bd:	85 d2                	test   %edx,%edx
    54bf:	0f 8e ab 00 00 00    	jle    5570 <riscv_dsp_cfft_rd4_q15+0x13d0>
    54c5:	48 8d 05 b8 42 01 00 	lea    0x142b8(%rip),%rax        # 19784 <riscv_dsp_cos_table_q15_1024+0x4>
    54cc:	48 63 d2             	movslq %edx,%rdx
    54cf:	48 63 c9             	movslq %ecx,%rcx
    54d2:	0f b7 14 50          	movzwl (%rax,%rdx,2),%edx
    54d6:	0f b7 04 48          	movzwl (%rax,%rcx,2),%eax
    54da:	f7 da                	neg    %edx
    54dc:	e9 85 f2 ff ff       	jmp    4766 <riscv_dsp_cfft_rd4_q15+0x5c6>
    54e1:	0f 1f 80 00 00 00 00 	nopl   0x0(%rax)
    54e8:	81 e9 00 02 00 00    	sub    $0x200,%ecx
    54ee:	41 b8 00 01 00 00    	mov    $0x100,%r8d
    54f4:	48 8d 1d 89 42 01 00 	lea    0x14289(%rip),%rbx        # 19784 <riscv_dsp_cos_table_q15_1024+0x4>
    54fb:	41 29 c8             	sub    %ecx,%r8d
    54fe:	48 63 c9             	movslq %ecx,%rcx
    5501:	49 63 f0             	movslq %r8d,%rsi
    5504:	0f b7 3c 73          	movzwl (%rbx,%rsi,2),%edi
    5508:	0f b7 34 4b          	movzwl (%rbx,%rcx,2),%esi
    550c:	f7 de                	neg    %esi
    550e:	45 85 c0             	test   %r8d,%r8d
    5511:	0f 8e 80 f2 ff ff    	jle    4797 <riscv_dsp_cfft_rd4_q15+0x5f7>
    5517:	f7 df                	neg    %edi
    5519:	89 f9                	mov    %edi,%ecx
    551b:	89 f7                	mov    %esi,%edi
    551d:	89 ce                	mov    %ecx,%esi
    551f:	e9 73 f2 ff ff       	jmp    4797 <riscv_dsp_cfft_rd4_q15+0x5f7>
    5524:	0f 1f 40 00          	nopl   0x0(%rax)
    5528:	81 e9 00 02 00 00    	sub    $0x200,%ecx
    552e:	41 b8 00 01 00 00    	mov    $0x100,%r8d
    5534:	48 8d 1d 49 42 01 00 	lea    0x14249(%rip),%rbx        # 19784 <riscv_dsp_cos_table_q15_1024+0x4>
    553b:	41 29 c8             	sub    %ecx,%r8d
    553e:	48 63 c9             	movslq %ecx,%rcx
    5541:	44 0f b7 2c 4b       	movzwl (%rbx,%rcx,2),%r13d
    5546:	4d 63 c8             	movslq %r8d,%r9
    5549:	46 0f b7 24 4b       	movzwl (%rbx,%r9,2),%r12d
    554e:	41 f7 dd             	neg    %r13d
    5551:	45 85 c0             	test   %r8d,%r8d
    5554:	0f 8e 76 f2 ff ff    	jle    47d0 <riscv_dsp_cfft_rd4_q15+0x630>
    555a:	44 89 e1             	mov    %r12d,%ecx
    555d:	45 89 ec             	mov    %r13d,%r12d
    5560:	f7 d9                	neg    %ecx
    5562:	41 89 cd             	mov    %ecx,%r13d
    5565:	e9 66 f2 ff ff       	jmp    47d0 <riscv_dsp_cfft_rd4_q15+0x630>
    556a:	66 0f 1f 44 00 00    	nopw   0x0(%rax,%rax,1)
    5570:	2d 00 02 00 00       	sub    $0x200,%eax
    5575:	b9 00 01 00 00       	mov    $0x100,%ecx
    557a:	48 8d 35 03 42 01 00 	lea    0x14203(%rip),%rsi        # 19784 <riscv_dsp_cos_table_q15_1024+0x4>
    5581:	29 c1                	sub    %eax,%ecx
    5583:	48 98                	cltq   
    5585:	0f b7 04 46          	movzwl (%rsi,%rax,2),%eax
    5589:	48 63 d1             	movslq %ecx,%rdx
    558c:	0f b7 14 56          	movzwl (%rsi,%rdx,2),%edx
    5590:	f7 d8                	neg    %eax
    5592:	85 c9                	test   %ecx,%ecx
    5594:	0f 8e cc f1 ff ff    	jle    4766 <riscv_dsp_cfft_rd4_q15+0x5c6>
    559a:	89 d1                	mov    %edx,%ecx
    559c:	89 c2                	mov    %eax,%edx
    559e:	f7 d9                	neg    %ecx
    55a0:	89 c8                	mov    %ecx,%eax
    55a2:	e9 bf f1 ff ff       	jmp    4766 <riscv_dsp_cfft_rd4_q15+0x5c6>
    55a7:	48 83 c4 30          	add    $0x30,%rsp
    55ab:	31 c0                	xor    %eax,%eax
    55ad:	5b                   	pop    %rbx
    55ae:	5d                   	pop    %rbp
    55af:	41 5c                	pop    %r12
    55b1:	41 5d                	pop    %r13
    55b3:	41 5e                	pop    %r14
    55b5:	41 5f                	pop    %r15
    55b7:	c3                   	ret    
    55b8:	0f 1f 84 00 00 00 00 	nopl   0x0(%rax,%rax,1)
    55bf:	00 

00000000000055c0 <riscv_dsp_cifft_rd4_q15>:
    55c0:	f3 0f 1e fa          	endbr64 
    55c4:	41 57                	push   %r15
    55c6:	89 f1                	mov    %esi,%ecx
    55c8:	b8 01 00 00 00       	mov    $0x1,%eax
    55cd:	41 56                	push   %r14
    55cf:	d3 e0                	shl    %cl,%eax
    55d1:	49 89 fe             	mov    %rdi,%r14
    55d4:	41 55                	push   %r13
    55d6:	41 54                	push   %r12
    55d8:	55                   	push   %rbp
    55d9:	53                   	push   %rbx
    55da:	48 83 ec 30          	sub    $0x30,%rsp
    55de:	89 44 24 18          	mov    %eax,0x18(%rsp)
    55e2:	d1 e8                	shr    %eax
    55e4:	41 89 c2             	mov    %eax,%r10d
    55e7:	48 89 3c 24          	mov    %rdi,(%rsp)
    55eb:	4d 01 d2             	add    %r10,%r10
    55ee:	89 44 24 1c          	mov    %eax,0x1c(%rsp)
    55f2:	0f b7 07             	movzwl (%rdi),%eax
    55f5:	4a 8d 1c 17          	lea    (%rdi,%r10,1),%rbx
    55f9:	89 74 24 14          	mov    %esi,0x14(%rsp)
    55fd:	41 0f b7 76 02       	movzwl 0x2(%r14),%esi
    5602:	4e 8d 2c 13          	lea    (%rbx,%r10,1),%r13
    5606:	49 89 df             	mov    %rbx,%r15
    5609:	48 89 5c 24 a8       	mov    %rbx,-0x58(%rsp)
    560e:	41 0f b7 7d 00       	movzwl 0x0(%r13),%edi
    5613:	4b 8d 4c 15 00       	lea    0x0(%r13,%r10,1),%rcx
    5618:	66 89 74 24 88       	mov    %si,-0x78(%rsp)
    561d:	44 0f b7 09          	movzwl (%rcx),%r9d
    5621:	4c 89 6c 24 20       	mov    %r13,0x20(%rsp)
    5626:	44 8d 04 38          	lea    (%rax,%rdi,1),%r8d
    562a:	29 f8                	sub    %edi,%eax
    562c:	89 c5                	mov    %eax,%ebp
    562e:	0f b7 03             	movzwl (%rbx),%eax
    5631:	46 8d 1c 08          	lea    (%rax,%r9,1),%r11d
    5635:	43 8d 14 18          	lea    (%r8,%r11,1),%edx
    5639:	45 29 d8             	sub    %r11d,%r8d
    563c:	66 41 89 16          	mov    %dx,(%r14)
    5640:	41 0f b7 55 02       	movzwl 0x2(%r13),%edx
    5645:	41 0f b7 7f 02       	movzwl 0x2(%r15),%edi
    564a:	8d 1c 32             	lea    (%rdx,%rsi,1),%ebx
    564d:	29 f2                	sub    %esi,%edx
    564f:	0f b7 71 02          	movzwl 0x2(%rcx),%esi
    5653:	41 89 d4             	mov    %edx,%r12d
    5656:	8d 14 1e             	lea    (%rsi,%rbx,1),%edx
    5659:	01 fa                	add    %edi,%edx
    565b:	f7 da                	neg    %edx
    565d:	66 41 89 56 02       	mov    %dx,0x2(%r14)
    5662:	8d 14 3e             	lea    (%rsi,%rdi,1),%edx
    5665:	29 da                	sub    %ebx,%edx
    5667:	66 45 89 07          	mov    %r8w,(%r15)
    566b:	66 41 89 57 02       	mov    %dx,0x2(%r15)
    5670:	8d 54 35 00          	lea    0x0(%rbp,%rsi,1),%edx
    5674:	29 fa                	sub    %edi,%edx
    5676:	66 41 89 55 00       	mov    %dx,0x0(%r13)
    567b:	43 8d 14 21          	lea    (%r9,%r12,1),%edx
    567f:	29 c2                	sub    %eax,%edx
    5681:	44 01 e0             	add    %r12d,%eax
    5684:	66 41 89 55 02       	mov    %dx,0x2(%r13)
    5689:	44 29 c8             	sub    %r9d,%eax
    568c:	8d 54 3d 00          	lea    0x0(%rbp,%rdi,1),%edx
    5690:	66 89 41 02          	mov    %ax,0x2(%rcx)
    5694:	29 f2                	sub    %esi,%edx
    5696:	49 8d 46 04          	lea    0x4(%r14),%rax
    569a:	66 89 11             	mov    %dx,(%rcx)
    569d:	48 89 44 24 08       	mov    %rax,0x8(%rsp)
    56a2:	49 39 c7             	cmp    %rax,%r15
    56a5:	0f 84 e1 02 00 00    	je     598c <riscv_dsp_cifft_rd4_q15+0x3cc>
    56ab:	48 89 c2             	mov    %rax,%rdx
    56ae:	b8 0a 00 00 00       	mov    $0xa,%eax
    56b3:	2b 44 24 14          	sub    0x14(%rsp),%eax
    56b7:	45 31 ff             	xor    %r15d,%r15d
    56ba:	89 c1                	mov    %eax,%ecx
    56bc:	48 8b 04 24          	mov    (%rsp),%rax
    56c0:	4c 8d 25 bd 40 01 00 	lea    0x140bd(%rip),%r12        # 19784 <riscv_dsp_cos_table_q15_1024+0x4>
    56c7:	41 be 00 01 00 00    	mov    $0x100,%r14d
    56cd:	4e 8d 44 50 04       	lea    0x4(%rax,%r10,2),%r8
    56d2:	e9 15 01 00 00       	jmp    57ec <riscv_dsp_cifft_rd4_q15+0x22c>
    56d7:	48 98                	cltq   
    56d9:	48 63 db             	movslq %ebx,%rbx
    56dc:	41 0f b7 04 44       	movzwl (%r12,%rax,2),%eax
    56e1:	41 0f b7 1c 5c       	movzwl (%r12,%rbx,2),%ebx
    56e6:	98                   	cwtl   
    56e7:	0f bf db             	movswl %bx,%ebx
    56ea:	0f bf f6             	movswl %si,%esi
    56ed:	45 0f bf c9          	movswl %r9w,%r9d
    56f1:	89 c5                	mov    %eax,%ebp
    56f3:	0f af c7             	imul   %edi,%eax
    56f6:	41 89 dd             	mov    %ebx,%r13d
    56f9:	41 0f af db          	imul   %r11d,%ebx
    56fd:	41 0f af eb          	imul   %r11d,%ebp
    5701:	44 0f af ef          	imul   %edi,%r13d
    5705:	0f bf 7c 24 88       	movswl -0x78(%rsp),%edi
    570a:	29 d8                	sub    %ebx,%eax
    570c:	c1 f8 0f             	sar    $0xf,%eax
    570f:	46 8d 1c 0f          	lea    (%rdi,%r9,1),%r11d
    5713:	44 29 cf             	sub    %r9d,%edi
    5716:	45 89 f1             	mov    %r14d,%r9d
    5719:	44 01 ed             	add    %r13d,%ebp
    571c:	66 42 89 44 12 02    	mov    %ax,0x2(%rdx,%r10,1)
    5722:	0f bf 44 24 98       	movswl -0x68(%rsp),%eax
    5727:	c1 fd 0f             	sar    $0xf,%ebp
    572a:	66 42 89 2c 12       	mov    %bp,(%rdx,%r10,1)
    572f:	89 f5                	mov    %esi,%ebp
    5731:	01 c6                	add    %eax,%esi
    5733:	29 c5                	sub    %eax,%ebp
    5735:	44 89 f8             	mov    %r15d,%eax
    5738:	d3 e0                	shl    %cl,%eax
    573a:	41 29 c1             	sub    %eax,%r9d
    573d:	45 85 c9             	test   %r9d,%r9d
    5740:	0f 8e 78 01 00 00    	jle    58be <riscv_dsp_cifft_rd4_q15+0x2fe>
    5746:	48 98                	cltq   
    5748:	4d 63 c9             	movslq %r9d,%r9
    574b:	41 0f b7 04 44       	movzwl (%r12,%rax,2),%eax
    5750:	47 0f b7 0c 4c       	movzwl (%r12,%r9,2),%r9d
    5755:	98                   	cwtl   
    5756:	45 0f bf c9          	movswl %r9w,%r9d
    575a:	89 c3                	mov    %eax,%ebx
    575c:	0f af c5             	imul   %ebp,%eax
    575f:	45 89 cd             	mov    %r9d,%r13d
    5762:	45 0f af cb          	imul   %r11d,%r9d
    5766:	41 0f af db          	imul   %r11d,%ebx
    576a:	44 0f af ed          	imul   %ebp,%r13d
    576e:	44 29 c8             	sub    %r9d,%eax
    5771:	45 89 f1             	mov    %r14d,%r9d
    5774:	c1 f8 0f             	sar    $0xf,%eax
    5777:	66 41 89 40 02       	mov    %ax,0x2(%r8)
    577c:	43 8d 04 7f          	lea    (%r15,%r15,2),%eax
    5780:	44 01 eb             	add    %r13d,%ebx
    5783:	d3 e0                	shl    %cl,%eax
    5785:	c1 fb 0f             	sar    $0xf,%ebx
    5788:	41 29 c1             	sub    %eax,%r9d
    578b:	66 41 89 18          	mov    %bx,(%r8)
    578f:	45 85 c9             	test   %r9d,%r9d
    5792:	0f 8e fd 00 00 00    	jle    5895 <riscv_dsp_cifft_rd4_q15+0x2d5>
    5798:	48 98                	cltq   
    579a:	4d 63 c9             	movslq %r9d,%r9
    579d:	41 0f b7 04 44       	movzwl (%r12,%rax,2),%eax
    57a2:	47 0f b7 0c 4c       	movzwl (%r12,%r9,2),%r9d
    57a7:	98                   	cwtl   
    57a8:	45 0f bf c9          	movswl %r9w,%r9d
    57ac:	48 83 c2 04          	add    $0x4,%rdx
    57b0:	49 83 c0 04          	add    $0x4,%r8
    57b4:	41 89 c3             	mov    %eax,%r11d
    57b7:	0f af c6             	imul   %esi,%eax
    57ba:	44 89 cb             	mov    %r9d,%ebx
    57bd:	44 0f af df          	imul   %edi,%r11d
    57c1:	0f af de             	imul   %esi,%ebx
    57c4:	44 0f af cf          	imul   %edi,%r9d
    57c8:	41 01 db             	add    %ebx,%r11d
    57cb:	44 29 c8             	sub    %r9d,%eax
    57ce:	41 c1 fb 0f          	sar    $0xf,%r11d
    57d2:	c1 f8 0f             	sar    $0xf,%eax
    57d5:	66 47 89 5c 10 fc    	mov    %r11w,-0x4(%r8,%r10,1)
    57db:	66 43 89 44 10 fe    	mov    %ax,-0x2(%r8,%r10,1)
    57e1:	48 39 54 24 a8       	cmp    %rdx,-0x58(%rsp)
    57e6:	0f 84 a0 01 00 00    	je     598c <riscv_dsp_cifft_rd4_q15+0x3cc>
    57ec:	0f b7 02             	movzwl (%rdx),%eax
    57ef:	41 0f b7 30          	movzwl (%r8),%esi
    57f3:	41 83 c7 01          	add    $0x1,%r15d
    57f7:	42 0f b7 3c 12       	movzwl (%rdx,%r10,1),%edi
    57fc:	01 c6                	add    %eax,%esi
    57fe:	66 41 2b 00          	sub    (%r8),%ax
    5802:	66 89 44 24 88       	mov    %ax,-0x78(%rsp)
    5807:	43 0f b7 04 10       	movzwl (%r8,%r10,1),%eax
    580c:	44 0f bf de          	movswl %si,%r11d
    5810:	01 f8                	add    %edi,%eax
    5812:	66 43 2b 3c 10       	sub    (%r8,%r10,1),%di
    5817:	66 89 7c 24 98       	mov    %di,-0x68(%rsp)
    581c:	8d 3c 06             	lea    (%rsi,%rax,1),%edi
    581f:	98                   	cwtl   
    5820:	66 89 3a             	mov    %di,(%rdx)
    5823:	0f b7 7a 02          	movzwl 0x2(%rdx),%edi
    5827:	41 29 c3             	sub    %eax,%r11d
    582a:	41 0f b7 70 02       	movzwl 0x2(%r8),%esi
    582f:	47 0f b7 4c 10 02    	movzwl 0x2(%r8,%r10,1),%r9d
    5835:	42 0f b7 44 12 02    	movzwl 0x2(%rdx,%r10,1),%eax
    583b:	01 f7                	add    %esi,%edi
    583d:	66 2b 72 02          	sub    0x2(%rdx),%si
    5841:	f7 df                	neg    %edi
    5843:	44 01 c8             	add    %r9d,%eax
    5846:	66 46 2b 4c 12 02    	sub    0x2(%rdx,%r10,1),%r9w
    584c:	89 fb                	mov    %edi,%ebx
    584e:	0f bf ff             	movswl %di,%edi
    5851:	29 c3                	sub    %eax,%ebx
    5853:	f7 d8                	neg    %eax
    5855:	98                   	cwtl   
    5856:	66 89 5a 02          	mov    %bx,0x2(%rdx)
