
t_rifft_q15_4:     file format elf64-x86-64


Disassembly of section .init:

0000000000001000 <_init>:
    1000:	f3 0f 1e fa          	endbr64 
    1004:	48 83 ec 08          	sub    $0x8,%rsp
    1008:	48 8b 05 d9 7f 00 00 	mov    0x7fd9(%rip),%rax        # 8fe8 <__gmon_start__@Base>
    100f:	48 85 c0             	test   %rax,%rax
    1012:	74 02                	je     1016 <_init+0x16>
    1014:	ff d0                	call   *%rax
    1016:	48 83 c4 08          	add    $0x8,%rsp
    101a:	c3                   	ret    

Disassembly of section .plt:

0000000000001020 <.plt>:
    1020:	ff 35 6a 7f 00 00    	push   0x7f6a(%rip)        # 8f90 <_GLOBAL_OFFSET_TABLE_+0x8>
    1026:	f2 ff 25 6b 7f 00 00 	bnd jmp *0x7f6b(%rip)        # 8f98 <_GLOBAL_OFFSET_TABLE_+0x10>
    102d:	0f 1f 00             	nopl   (%rax)
    1030:	f3 0f 1e fa          	endbr64 
    1034:	68 00 00 00 00       	push   $0x0
    1039:	f2 e9 e1 ff ff ff    	bnd jmp 1020 <_init+0x20>
    103f:	90                   	nop
    1040:	f3 0f 1e fa          	endbr64 
    1044:	68 01 00 00 00       	push   $0x1
    1049:	f2 e9 d1 ff ff ff    	bnd jmp 1020 <_init+0x20>
    104f:	90                   	nop
    1050:	f3 0f 1e fa          	endbr64 
    1054:	68 02 00 00 00       	push   $0x2
    1059:	f2 e9 c1 ff ff ff    	bnd jmp 1020 <_init+0x20>
    105f:	90                   	nop
    1060:	f3 0f 1e fa          	endbr64 
    1064:	68 03 00 00 00       	push   $0x3
    1069:	f2 e9 b1 ff ff ff    	bnd jmp 1020 <_init+0x20>
    106f:	90                   	nop
    1070:	f3 0f 1e fa          	endbr64 
    1074:	68 04 00 00 00       	push   $0x4
    1079:	f2 e9 a1 ff ff ff    	bnd jmp 1020 <_init+0x20>
    107f:	90                   	nop
    1080:	f3 0f 1e fa          	endbr64 
    1084:	68 05 00 00 00       	push   $0x5
    1089:	f2 e9 91 ff ff ff    	bnd jmp 1020 <_init+0x20>
    108f:	90                   	nop
    1090:	f3 0f 1e fa          	endbr64 
    1094:	68 06 00 00 00       	push   $0x6
    1099:	f2 e9 81 ff ff ff    	bnd jmp 1020 <_init+0x20>
    109f:	90                   	nop

Disassembly of section .plt.got:

00000000000010a0 <__cxa_finalize@plt>:
    10a0:	f3 0f 1e fa          	endbr64 
    10a4:	f2 ff 25 4d 7f 00 00 	bnd jmp *0x7f4d(%rip)        # 8ff8 <__cxa_finalize@GLIBC_2.2.5>
    10ab:	0f 1f 44 00 00       	nopl   0x0(%rax,%rax,1)

Disassembly of section .plt.sec:

00000000000010b0 <puts@plt>:
    10b0:	f3 0f 1e fa          	endbr64 
    10b4:	f2 ff 25 e5 7e 00 00 	bnd jmp *0x7ee5(%rip)        # 8fa0 <puts@GLIBC_2.2.5>
    10bb:	0f 1f 44 00 00       	nopl   0x0(%rax,%rax,1)

00000000000010c0 <fread@plt>:
    10c0:	f3 0f 1e fa          	endbr64 
    10c4:	f2 ff 25 dd 7e 00 00 	bnd jmp *0x7edd(%rip)        # 8fa8 <fread@GLIBC_2.2.5>
    10cb:	0f 1f 44 00 00       	nopl   0x0(%rax,%rax,1)

00000000000010d0 <fclose@plt>:
    10d0:	f3 0f 1e fa          	endbr64 
    10d4:	f2 ff 25 d5 7e 00 00 	bnd jmp *0x7ed5(%rip)        # 8fb0 <fclose@GLIBC_2.2.5>
    10db:	0f 1f 44 00 00       	nopl   0x0(%rax,%rax,1)

00000000000010e0 <__stack_chk_fail@plt>:
    10e0:	f3 0f 1e fa          	endbr64 
    10e4:	f2 ff 25 cd 7e 00 00 	bnd jmp *0x7ecd(%rip)        # 8fb8 <__stack_chk_fail@GLIBC_2.4>
    10eb:	0f 1f 44 00 00       	nopl   0x0(%rax,%rax,1)

00000000000010f0 <__printf_chk@plt>:
    10f0:	f3 0f 1e fa          	endbr64 
    10f4:	f2 ff 25 c5 7e 00 00 	bnd jmp *0x7ec5(%rip)        # 8fc0 <__printf_chk@GLIBC_2.3.4>
    10fb:	0f 1f 44 00 00       	nopl   0x0(%rax,%rax,1)

0000000000001100 <fopen@plt>:
    1100:	f3 0f 1e fa          	endbr64 
    1104:	f2 ff 25 bd 7e 00 00 	bnd jmp *0x7ebd(%rip)        # 8fc8 <fopen@GLIBC_2.2.5>
    110b:	0f 1f 44 00 00       	nopl   0x0(%rax,%rax,1)

0000000000001110 <__sprintf_chk@plt>:
    1110:	f3 0f 1e fa          	endbr64 
    1114:	f2 ff 25 b5 7e 00 00 	bnd jmp *0x7eb5(%rip)        # 8fd0 <__sprintf_chk@GLIBC_2.3.4>
    111b:	0f 1f 44 00 00       	nopl   0x0(%rax,%rax,1)

Disassembly of section .text:

0000000000001120 <main>:
    1120:	f3 0f 1e fa          	endbr64 
    1124:	41 55                	push   %r13
    1126:	48 8d 3d c6 5f 00 00 	lea    0x5fc6(%rip),%rdi        # 70f3 <_IO_stdin_used+0xf3>
    112d:	41 54                	push   %r12
    112f:	4c 8d 25 ca 7f 00 00 	lea    0x7fca(%rip),%r12        # 9100 <src>
    1136:	55                   	push   %rbp
    1137:	53                   	push   %rbx
    1138:	48 83 ec 18          	sub    $0x18,%rsp
    113c:	64 48 8b 04 25 28 00 	mov    %fs:0x28,%rax
    1143:	00 00 
    1145:	48 89 44 24 08       	mov    %rax,0x8(%rsp)
    114a:	31 c0                	xor    %eax,%eax
    114c:	48 89 e5             	mov    %rsp,%rbp
    114f:	48 c7 04 24 00 00 00 	movq   $0x0,(%rsp)
    1156:	00 
    1157:	48 89 ee             	mov    %rbp,%rsi
    115a:	e8 91 05 00 00       	call   16f0 <test_Fopen.constprop.0.isra.0>
    115f:	4c 8b 2c 24          	mov    (%rsp),%r13
    1163:	ba 11 00 00 00       	mov    $0x11,%edx
    1168:	4c 89 e7             	mov    %r12,%rdi
    116b:	be 02 00 00 00       	mov    $0x2,%esi
    1170:	4c 89 e9             	mov    %r13,%rcx
    1173:	e8 48 ff ff ff       	call   10c0 <fread@plt>
    1178:	4c 89 ef             	mov    %r13,%rdi
    117b:	e8 50 ff ff ff       	call   10d0 <fclose@plt>
    1180:	66 0f 6f 05 78 7f 00 	movdqa 0x7f78(%rip),%xmm0        # 9100 <src>
    1187:	00 
    1188:	0f b7 05 91 7f 00 00 	movzwl 0x7f91(%rip),%eax        # 9120 <src+0x20>
    118f:	48 8d 3d ba 5e 00 00 	lea    0x5eba(%rip),%rdi        # 7050 <_IO_stdin_used+0x50>
    1196:	66 0f 71 e0 01       	psraw  $0x1,%xmm0
    119b:	66 d1 f8             	sar    %ax
    119e:	0f 29 05 5b 7f 00 00 	movaps %xmm0,0x7f5b(%rip)        # 9100 <src>
    11a5:	66 0f 6f 05 63 7f 00 	movdqa 0x7f63(%rip),%xmm0        # 9110 <src+0x10>
    11ac:	00 
    11ad:	66 89 05 6c 7f 00 00 	mov    %ax,0x7f6c(%rip)        # 9120 <src+0x20>
    11b4:	66 0f 71 e0 01       	psraw  $0x1,%xmm0
    11b9:	66 89 05 42 7f 00 00 	mov    %ax,0x7f42(%rip)        # 9102 <src+0x2>
    11c0:	0f 29 05 49 7f 00 00 	movaps %xmm0,0x7f49(%rip)        # 9110 <src+0x10>
    11c7:	e8 e4 fe ff ff       	call   10b0 <puts@plt>
    11cc:	ba 10 00 00 00       	mov    $0x10,%edx
    11d1:	48 8d 35 31 5f 00 00 	lea    0x5f31(%rip),%rsi        # 7109 <_IO_stdin_used+0x109>
    11d8:	31 c0                	xor    %eax,%eax
    11da:	bf 01 00 00 00       	mov    $0x1,%edi
    11df:	e8 0c ff ff ff       	call   10f0 <__printf_chk@plt>
    11e4:	be 04 00 00 00       	mov    $0x4,%esi
    11e9:	4c 89 e7             	mov    %r12,%rdi
    11ec:	e8 4f 07 00 00       	call   1940 <riscv_dsp_rifft_q15>
    11f1:	48 89 ee             	mov    %rbp,%rsi
    11f4:	48 8d 3d 20 5f 00 00 	lea    0x5f20(%rip),%rdi        # 711b <_IO_stdin_used+0x11b>
    11fb:	48 c7 04 24 00 00 00 	movq   $0x0,(%rsp)
    1202:	00 
    1203:	e8 e8 04 00 00       	call   16f0 <test_Fopen.constprop.0.isra.0>
    1208:	48 8b 2c 24          	mov    (%rsp),%rbp
    120c:	ba 10 00 00 00       	mov    $0x10,%edx
    1211:	be 04 00 00 00       	mov    $0x4,%esi
    1216:	48 8d 3d a3 7e 00 00 	lea    0x7ea3(%rip),%rdi        # 90c0 <golden_f32>
    121d:	48 89 e9             	mov    %rbp,%rcx
    1220:	e8 9b fe ff ff       	call   10c0 <fread@plt>
    1225:	48 89 ef             	mov    %rbp,%rdi
    1228:	e8 a3 fe ff ff       	call   10d0 <fclose@plt>
    122d:	44 0f 28 1d 0b 5f 00 	movaps 0x5f0b(%rip),%xmm11        # 7140 <_IO_stdin_used+0x140>
    1234:	00 
    1235:	66 45 0f ef f6       	pxor   %xmm14,%xmm14
    123a:	31 c0                	xor    %eax,%eax
    123c:	0f 28 05 7d 7e 00 00 	movaps 0x7e7d(%rip),%xmm0        # 90c0 <golden_f32>
    1243:	0f 28 0d 86 7e 00 00 	movaps 0x7e86(%rip),%xmm1        # 90d0 <golden_f32+0x10>
    124a:	48 8d 35 d7 5e 00 00 	lea    0x5ed7(%rip),%rsi        # 7128 <_IO_stdin_used+0x128>
    1251:	bf 01 00 00 00       	mov    $0x1,%edi
    1256:	44 0f 28 25 f2 5e 00 	movaps 0x5ef2(%rip),%xmm12        # 7150 <_IO_stdin_used+0x150>
    125d:	00 
    125e:	44 0f 28 2d fa 5e 00 	movaps 0x5efa(%rip),%xmm13        # 7160 <_IO_stdin_used+0x160>
    1265:	00 
    1266:	66 44 0f 6f 0d 01 5f 	movdqa 0x5f01(%rip),%xmm9        # 7170 <_IO_stdin_used+0x170>
    126d:	00 00 
    126f:	41 0f 59 c3          	mulps  %xmm11,%xmm0
    1273:	66 44 0f 6f 15 04 5f 	movdqa 0x5f04(%rip),%xmm10        # 7180 <_IO_stdin_used+0x180>
    127a:	00 00 
    127c:	41 0f 59 cb          	mulps  %xmm11,%xmm1
    1280:	41 0f 28 dc          	movaps %xmm12,%xmm3
    1284:	41 0f 28 e4          	movaps %xmm12,%xmm4
    1288:	66 44 0f 6f 05 1f 5f 	movdqa 0x5f1f(%rip),%xmm8        # 71b0 <_IO_stdin_used+0x1b0>
    128f:	00 00 
    1291:	66 41 0f 6f fa       	movdqa %xmm10,%xmm7
    1296:	0f 28 d0             	movaps %xmm0,%xmm2
    1299:	41 0f c2 d6 01       	cmpltps %xmm14,%xmm2
    129e:	0f 54 da             	andps  %xmm2,%xmm3
    12a1:	41 0f 55 d5          	andnps %xmm13,%xmm2
    12a5:	0f 56 da             	orps   %xmm2,%xmm3
    12a8:	0f 28 d1             	movaps %xmm1,%xmm2
    12ab:	41 0f c2 d6 01       	cmpltps %xmm14,%xmm2
    12b0:	0f 58 c3             	addps  %xmm3,%xmm0
    12b3:	0f 54 e2             	andps  %xmm2,%xmm4
    12b6:	41 0f 55 d5          	andnps %xmm13,%xmm2
    12ba:	f3 0f 5b c0          	cvttps2dq %xmm0,%xmm0
    12be:	66 0f 6f e8          	movdqa %xmm0,%xmm5
    12c2:	0f 56 d4             	orps   %xmm4,%xmm2
    12c5:	66 0f 6f 25 c3 5e 00 	movdqa 0x5ec3(%rip),%xmm4        # 7190 <_IO_stdin_used+0x190>
    12cc:	00 
    12cd:	0f 58 ca             	addps  %xmm2,%xmm1
    12d0:	66 0f 6f d0          	movdqa %xmm0,%xmm2
    12d4:	66 44 0f 6f fc       	movdqa %xmm4,%xmm15
    12d9:	f3 0f 5b c9          	cvttps2dq %xmm1,%xmm1
    12dd:	66 0f 61 e9          	punpcklwd %xmm1,%xmm5
    12e1:	66 0f 69 d1          	punpckhwd %xmm1,%xmm2
    12e5:	66 0f 6f dd          	movdqa %xmm5,%xmm3
    12e9:	66 44 0f 66 f9       	pcmpgtd %xmm1,%xmm15
    12ee:	66 0f 61 ea          	punpcklwd %xmm2,%xmm5
    12f2:	66 0f 69 da          	punpckhwd %xmm2,%xmm3
    12f6:	66 0f 6f d0          	movdqa %xmm0,%xmm2
    12fa:	66 41 0f 66 d1       	pcmpgtd %xmm9,%xmm2
    12ff:	66 0f 61 eb          	punpcklwd %xmm3,%xmm5
    1303:	66 41 0f 6f d9       	movdqa %xmm9,%xmm3
    1308:	66 0f db da          	pand   %xmm2,%xmm3
    130c:	66 41 0f df d2       	pandn  %xmm10,%xmm2
    1311:	66 0f 6f f2          	movdqa %xmm2,%xmm6
    1315:	66 0f 6f d1          	movdqa %xmm1,%xmm2
    1319:	66 41 0f fe c9       	paddd  %xmm9,%xmm1
    131e:	66 41 0f 66 d1       	pcmpgtd %xmm9,%xmm2
    1323:	66 0f eb f3          	por    %xmm3,%xmm6
    1327:	66 41 0f 6f d9       	movdqa %xmm9,%xmm3
    132c:	66 41 0f fa c8       	psubd  %xmm8,%xmm1
    1331:	66 0f db da          	pand   %xmm2,%xmm3
    1335:	66 41 0f df d2       	pandn  %xmm10,%xmm2
    133a:	66 0f eb d3          	por    %xmm3,%xmm2
    133e:	66 0f 6f dc          	movdqa %xmm4,%xmm3
    1342:	66 0f 66 d8          	pcmpgtd %xmm0,%xmm3
    1346:	66 0f db fb          	pand   %xmm3,%xmm7
    134a:	66 0f df de          	pandn  %xmm6,%xmm3
    134e:	66 41 0f 6f f2       	movdqa %xmm10,%xmm6
    1353:	66 41 0f db f7       	pand   %xmm15,%xmm6
    1358:	66 44 0f df fa       	pandn  %xmm2,%xmm15
    135d:	66 0f 6f d0          	movdqa %xmm0,%xmm2
    1361:	66 44 0f eb fe       	por    %xmm6,%xmm15
    1366:	66 41 0f fe d1       	paddd  %xmm9,%xmm2
    136b:	66 0f eb df          	por    %xmm7,%xmm3
    136f:	66 0f 6f 35 29 5e 00 	movdqa 0x5e29(%rip),%xmm6        # 71a0 <_IO_stdin_used+0x1a0>
    1376:	00 
    1377:	66 41 0f fa d0       	psubd  %xmm8,%xmm2
    137c:	66 0f ef ff          	pxor   %xmm7,%xmm7
    1380:	66 41 0f fa f0       	psubd  %xmm8,%xmm6
    1385:	66 0f 66 d6          	pcmpgtd %xmm6,%xmm2
    1389:	66 0f 66 ce          	pcmpgtd %xmm6,%xmm1
    138d:	66 0f 76 d7          	pcmpeqd %xmm7,%xmm2
    1391:	66 0f 76 cf          	pcmpeqd %xmm7,%xmm1
    1395:	66 0f 6f c2          	movdqa %xmm2,%xmm0
    1399:	66 0f 61 d1          	punpcklwd %xmm1,%xmm2
    139d:	66 0f 69 c1          	punpckhwd %xmm1,%xmm0
    13a1:	66 0f 6f ca          	movdqa %xmm2,%xmm1
    13a5:	66 0f 69 c8          	punpckhwd %xmm0,%xmm1
    13a9:	66 0f 61 d0          	punpcklwd %xmm0,%xmm2
    13ad:	66 0f 6f c3          	movdqa %xmm3,%xmm0
    13b1:	66 41 0f 61 df       	punpcklwd %xmm15,%xmm3
    13b6:	66 41 0f 69 c7       	punpckhwd %xmm15,%xmm0
    13bb:	66 0f 61 d1          	punpcklwd %xmm1,%xmm2
    13bf:	66 0f 6f cb          	movdqa %xmm3,%xmm1
    13c3:	66 0f 61 d8          	punpcklwd %xmm0,%xmm3
    13c7:	66 0f db ea          	pand   %xmm2,%xmm5
    13cb:	66 0f 69 c8          	punpckhwd %xmm0,%xmm1
    13cf:	66 0f 61 d9          	punpcklwd %xmm1,%xmm3
    13d3:	41 0f 28 cc          	movaps %xmm12,%xmm1
    13d7:	66 0f df d3          	pandn  %xmm3,%xmm2
    13db:	66 0f eb d5          	por    %xmm5,%xmm2
    13df:	0f 28 2d fa 7c 00 00 	movaps 0x7cfa(%rip),%xmm5        # 90e0 <golden_f32+0x20>
    13e6:	0f 29 15 93 7c 00 00 	movaps %xmm2,0x7c93(%rip)        # 9080 <golden>
    13ed:	41 0f 59 eb          	mulps  %xmm11,%xmm5
    13f1:	44 0f 59 1d f7 7c 00 	mulps  0x7cf7(%rip),%xmm11        # 90f0 <golden_f32+0x30>
    13f8:	00 
    13f9:	0f 28 c5             	movaps %xmm5,%xmm0
    13fc:	41 0f 28 db          	movaps %xmm11,%xmm3
    1400:	41 0f c2 c6 01       	cmpltps %xmm14,%xmm0
    1405:	41 0f c2 de 01       	cmpltps %xmm14,%xmm3
    140a:	0f 54 c8             	andps  %xmm0,%xmm1
    140d:	41 0f 55 c5          	andnps %xmm13,%xmm0
    1411:	44 0f 54 e3          	andps  %xmm3,%xmm12
    1415:	41 0f 55 dd          	andnps %xmm13,%xmm3
    1419:	0f 56 c1             	orps   %xmm1,%xmm0
    141c:	0f 28 cb             	movaps %xmm3,%xmm1
    141f:	0f 58 c5             	addps  %xmm5,%xmm0
    1422:	66 45 0f 6f ea       	movdqa %xmm10,%xmm13
    1427:	41 0f 56 cc          	orps   %xmm12,%xmm1
    142b:	41 0f 58 cb          	addps  %xmm11,%xmm1
    142f:	f3 0f 5b c0          	cvttps2dq %xmm0,%xmm0
    1433:	66 0f 6f e8          	movdqa %xmm0,%xmm5
    1437:	66 0f 6f d8          	movdqa %xmm0,%xmm3
    143b:	f3 0f 5b c9          	cvttps2dq %xmm1,%xmm1
    143f:	66 0f 61 e9          	punpcklwd %xmm1,%xmm5
    1443:	66 0f 69 d9          	punpckhwd %xmm1,%xmm3
    1447:	66 44 0f 6f dd       	movdqa %xmm5,%xmm11
    144c:	66 0f 61 eb          	punpcklwd %xmm3,%xmm5
    1450:	66 44 0f 69 db       	punpckhwd %xmm3,%xmm11
    1455:	66 0f 6f d8          	movdqa %xmm0,%xmm3
    1459:	66 41 0f 66 d9       	pcmpgtd %xmm9,%xmm3
    145e:	66 41 0f 61 eb       	punpcklwd %xmm11,%xmm5
    1463:	66 45 0f 6f d9       	movdqa %xmm9,%xmm11
    1468:	66 44 0f db db       	pand   %xmm3,%xmm11
    146d:	66 41 0f df da       	pandn  %xmm10,%xmm3
    1472:	66 41 0f eb db       	por    %xmm11,%xmm3
    1477:	66 44 0f 6f d9       	movdqa %xmm1,%xmm11
    147c:	66 45 0f 66 d9       	pcmpgtd %xmm9,%xmm11
    1481:	66 44 0f 6f e3       	movdqa %xmm3,%xmm12
    1486:	66 41 0f 6f d9       	movdqa %xmm9,%xmm3
    148b:	66 41 0f db db       	pand   %xmm11,%xmm3
    1490:	66 45 0f df da       	pandn  %xmm10,%xmm11
    1495:	66 44 0f eb db       	por    %xmm3,%xmm11
    149a:	66 0f 6f dc          	movdqa %xmm4,%xmm3
    149e:	66 0f 66 d8          	pcmpgtd %xmm0,%xmm3
    14a2:	66 0f 66 e1          	pcmpgtd %xmm1,%xmm4
    14a6:	66 41 0f fe c1       	paddd  %xmm9,%xmm0
    14ab:	66 41 0f fe c9       	paddd  %xmm9,%xmm1
    14b0:	66 41 0f fa c0       	psubd  %xmm8,%xmm0
    14b5:	66 41 0f fa c8       	psubd  %xmm8,%xmm1
    14ba:	66 0f 66 c6          	pcmpgtd %xmm6,%xmm0
    14be:	66 0f 66 ce          	pcmpgtd %xmm6,%xmm1
    14c2:	66 44 0f db eb       	pand   %xmm3,%xmm13
    14c7:	66 44 0f db d4       	pand   %xmm4,%xmm10
    14cc:	66 41 0f df dc       	pandn  %xmm12,%xmm3
    14d1:	66 41 0f df e3       	pandn  %xmm11,%xmm4
    14d6:	66 0f 76 c7          	pcmpeqd %xmm7,%xmm0
    14da:	66 41 0f eb e2       	por    %xmm10,%xmm4
    14df:	66 41 0f eb dd       	por    %xmm13,%xmm3
    14e4:	66 0f 76 cf          	pcmpeqd %xmm7,%xmm1
    14e8:	66 0f 6f f0          	movdqa %xmm0,%xmm6
    14ec:	66 0f 61 c1          	punpcklwd %xmm1,%xmm0
    14f0:	66 0f 69 f1          	punpckhwd %xmm1,%xmm6
    14f4:	66 0f 6f c8          	movdqa %xmm0,%xmm1
    14f8:	66 0f 61 c6          	punpcklwd %xmm6,%xmm0
    14fc:	66 0f 69 ce          	punpckhwd %xmm6,%xmm1
    1500:	66 0f 61 c1          	punpcklwd %xmm1,%xmm0
    1504:	66 0f 6f cb          	movdqa %xmm3,%xmm1
    1508:	66 0f 61 dc          	punpcklwd %xmm4,%xmm3
    150c:	66 0f 69 cc          	punpckhwd %xmm4,%xmm1
    1510:	66 0f 6f e3          	movdqa %xmm3,%xmm4
    1514:	66 0f db e8          	pand   %xmm0,%xmm5
    1518:	66 0f 69 e1          	punpckhwd %xmm1,%xmm4
    151c:	66 0f 61 d9          	punpcklwd %xmm1,%xmm3
    1520:	66 0f 61 dc          	punpcklwd %xmm4,%xmm3
    1524:	66 0f ef e4          	pxor   %xmm4,%xmm4
    1528:	66 0f df c3          	pandn  %xmm3,%xmm0
    152c:	66 0f 6f 1d cc 7b 00 	movdqa 0x7bcc(%rip),%xmm3        # 9100 <src>
    1533:	00 
    1534:	66 0f 6f cc          	movdqa %xmm4,%xmm1
    1538:	66 0f eb c5          	por    %xmm5,%xmm0
    153c:	66 0f f9 da          	psubw  %xmm2,%xmm3
    1540:	66 0f 6f 15 c8 7b 00 	movdqa 0x7bc8(%rip),%xmm2        # 9110 <src+0x10>
    1547:	00 
    1548:	0f 29 05 41 7b 00 00 	movaps %xmm0,0x7b41(%rip)        # 9090 <golden+0x10>
    154f:	66 0f f9 cb          	psubw  %xmm3,%xmm1
    1553:	66 0f f9 d0          	psubw  %xmm0,%xmm2
    1557:	66 0f 6f c4          	movdqa %xmm4,%xmm0
    155b:	66 0f ee cb          	pmaxsw %xmm3,%xmm1
    155f:	66 0f f9 c2          	psubw  %xmm2,%xmm0
    1563:	66 0f ee c2          	pmaxsw %xmm2,%xmm0
    1567:	66 0f ee c1          	pmaxsw %xmm1,%xmm0
    156b:	66 0f ee c4          	pmaxsw %xmm4,%xmm0
    156f:	66 0f 6f c8          	movdqa %xmm0,%xmm1
    1573:	66 0f 73 d9 08       	psrldq $0x8,%xmm1
    1578:	66 0f ee c1          	pmaxsw %xmm1,%xmm0
    157c:	66 0f 6f c8          	movdqa %xmm0,%xmm1
    1580:	66 0f 73 d9 04       	psrldq $0x4,%xmm1
    1585:	66 0f ee c1          	pmaxsw %xmm1,%xmm0
    1589:	66 0f 6f c8          	movdqa %xmm0,%xmm1
    158d:	66 0f 73 d9 02       	psrldq $0x2,%xmm1
    1592:	66 0f ee c1          	pmaxsw %xmm1,%xmm0
    1596:	66 0f c5 d8 00       	pextrw $0x0,%xmm0,%ebx
    159b:	0f bf d3             	movswl %bx,%edx
    159e:	e8 4d fb ff ff       	call   10f0 <__printf_chk@plt>
    15a3:	ba 10 00 00 00       	mov    $0x10,%edx
    15a8:	66 83 fb 5f          	cmp    $0x5f,%bx
    15ac:	7f 30                	jg     15de <main+0x4be>
    15ae:	48 8d 35 f3 5a 00 00 	lea    0x5af3(%rip),%rsi        # 70a8 <_IO_stdin_used+0xa8>
    15b5:	bf 01 00 00 00       	mov    $0x1,%edi
    15ba:	31 c0                	xor    %eax,%eax
    15bc:	e8 2f fb ff ff       	call   10f0 <__printf_chk@plt>
    15c1:	31 c0                	xor    %eax,%eax
    15c3:	48 8b 54 24 08       	mov    0x8(%rsp),%rdx
    15c8:	64 48 2b 14 25 28 00 	sub    %fs:0x28,%rdx
    15cf:	00 00 
    15d1:	75 23                	jne    15f6 <main+0x4d6>
    15d3:	48 83 c4 18          	add    $0x18,%rsp
    15d7:	5b                   	pop    %rbx
    15d8:	5d                   	pop    %rbp
    15d9:	41 5c                	pop    %r12
    15db:	41 5d                	pop    %r13
    15dd:	c3                   	ret    
    15de:	48 8d 35 93 5a 00 00 	lea    0x5a93(%rip),%rsi        # 7078 <_IO_stdin_used+0x78>
    15e5:	bf 01 00 00 00       	mov    $0x1,%edi
    15ea:	31 c0                	xor    %eax,%eax
    15ec:	e8 ff fa ff ff       	call   10f0 <__printf_chk@plt>
    15f1:	83 c8 ff             	or     $0xffffffff,%eax
    15f4:	eb cd                	jmp    15c3 <main+0x4a3>
    15f6:	e8 e5 fa ff ff       	call   10e0 <__stack_chk_fail@plt>
    15fb:	0f 1f 44 00 00       	nopl   0x0(%rax,%rax,1)

0000000000001600 <_start>:
    1600:	f3 0f 1e fa          	endbr64 
    1604:	31 ed                	xor    %ebp,%ebp
    1606:	49 89 d1             	mov    %rdx,%r9
    1609:	5e                   	pop    %rsi
    160a:	48 89 e2             	mov    %rsp,%rdx
    160d:	48 83 e4 f0          	and    $0xfffffffffffffff0,%rsp
    1611:	50                   	push   %rax
    1612:	54                   	push   %rsp
    1613:	45 31 c0             	xor    %r8d,%r8d
    1616:	31 c9                	xor    %ecx,%ecx
    1618:	48 8d 3d 01 fb ff ff 	lea    -0x4ff(%rip),%rdi        # 1120 <main>
    161f:	ff 15 b3 79 00 00    	call   *0x79b3(%rip)        # 8fd8 <__libc_start_main@GLIBC_2.34>
    1625:	f4                   	hlt    
    1626:	66 2e 0f 1f 84 00 00 	cs nopw 0x0(%rax,%rax,1)
    162d:	00 00 00 

0000000000001630 <deregister_tm_clones>:
    1630:	48 8d 3d d9 79 00 00 	lea    0x79d9(%rip),%rdi        # 9010 <__TMC_END__>
    1637:	48 8d 05 d2 79 00 00 	lea    0x79d2(%rip),%rax        # 9010 <__TMC_END__>
    163e:	48 39 f8             	cmp    %rdi,%rax
    1641:	74 15                	je     1658 <deregister_tm_clones+0x28>
    1643:	48 8b 05 96 79 00 00 	mov    0x7996(%rip),%rax        # 8fe0 <_ITM_deregisterTMCloneTable@Base>
    164a:	48 85 c0             	test   %rax,%rax
    164d:	74 09                	je     1658 <deregister_tm_clones+0x28>
    164f:	ff e0                	jmp    *%rax
    1651:	0f 1f 80 00 00 00 00 	nopl   0x0(%rax)
    1658:	c3                   	ret    
    1659:	0f 1f 80 00 00 00 00 	nopl   0x0(%rax)

0000000000001660 <register_tm_clones>:
    1660:	48 8d 3d a9 79 00 00 	lea    0x79a9(%rip),%rdi        # 9010 <__TMC_END__>
    1667:	48 8d 35 a2 79 00 00 	lea    0x79a2(%rip),%rsi        # 9010 <__TMC_END__>
    166e:	48 29 fe             	sub    %rdi,%rsi
    1671:	48 89 f0             	mov    %rsi,%rax
    1674:	48 c1 ee 3f          	shr    $0x3f,%rsi
    1678:	48 c1 f8 03          	sar    $0x3,%rax
    167c:	48 01 c6             	add    %rax,%rsi
    167f:	48 d1 fe             	sar    %rsi
    1682:	74 14                	je     1698 <register_tm_clones+0x38>
    1684:	48 8b 05 65 79 00 00 	mov    0x7965(%rip),%rax        # 8ff0 <_ITM_registerTMCloneTable@Base>
    168b:	48 85 c0             	test   %rax,%rax
    168e:	74 08                	je     1698 <register_tm_clones+0x38>
    1690:	ff e0                	jmp    *%rax
    1692:	66 0f 1f 44 00 00    	nopw   0x0(%rax,%rax,1)
    1698:	c3                   	ret    
    1699:	0f 1f 80 00 00 00 00 	nopl   0x0(%rax)

00000000000016a0 <__do_global_dtors_aux>:
    16a0:	f3 0f 1e fa          	endbr64 
    16a4:	80 3d 95 79 00 00 00 	cmpb   $0x0,0x7995(%rip)        # 9040 <completed.0>
    16ab:	75 2b                	jne    16d8 <__do_global_dtors_aux+0x38>
    16ad:	55                   	push   %rbp
    16ae:	48 83 3d 42 79 00 00 	cmpq   $0x0,0x7942(%rip)        # 8ff8 <__cxa_finalize@GLIBC_2.2.5>
    16b5:	00 
    16b6:	48 89 e5             	mov    %rsp,%rbp
    16b9:	74 0c                	je     16c7 <__do_global_dtors_aux+0x27>
    16bb:	48 8b 3d 46 79 00 00 	mov    0x7946(%rip),%rdi        # 9008 <__dso_handle>
    16c2:	e8 d9 f9 ff ff       	call   10a0 <__cxa_finalize@plt>
    16c7:	e8 64 ff ff ff       	call   1630 <deregister_tm_clones>
    16cc:	c6 05 6d 79 00 00 01 	movb   $0x1,0x796d(%rip)        # 9040 <completed.0>
    16d3:	5d                   	pop    %rbp
    16d4:	c3                   	ret    
    16d5:	0f 1f 00             	nopl   (%rax)
    16d8:	c3                   	ret    
    16d9:	0f 1f 80 00 00 00 00 	nopl   0x0(%rax)

00000000000016e0 <frame_dummy>:
    16e0:	f3 0f 1e fa          	endbr64 
    16e4:	e9 77 ff ff ff       	jmp    1660 <register_tm_clones>
    16e9:	0f 1f 80 00 00 00 00 	nopl   0x0(%rax)

00000000000016f0 <test_Fopen.constprop.0.isra.0>:
    16f0:	41 54                	push   %r12
    16f2:	49 89 f9             	mov    %rdi,%r9
    16f5:	49 89 fc             	mov    %rdi,%r12
    16f8:	4c 8d 05 09 59 00 00 	lea    0x5909(%rip),%r8        # 7008 <_IO_stdin_used+0x8>
    16ff:	55                   	push   %rbp
    1700:	48 8d 0d ca 59 00 00 	lea    0x59ca(%rip),%rcx        # 70d1 <_IO_stdin_used+0xd1>
    1707:	ba 00 04 00 00       	mov    $0x400,%edx
    170c:	53                   	push   %rbx
    170d:	48 89 f3             	mov    %rsi,%rbx
    1710:	be 01 00 00 00       	mov    $0x1,%esi
    1715:	48 81 ec 10 04 00 00 	sub    $0x410,%rsp
    171c:	64 48 8b 04 25 28 00 	mov    %fs:0x28,%rax
    1723:	00 00 
    1725:	48 89 84 24 08 04 00 	mov    %rax,0x408(%rsp)
    172c:	00 
    172d:	31 c0                	xor    %eax,%eax
    172f:	48 89 e5             	mov    %rsp,%rbp
    1732:	48 89 ef             	mov    %rbp,%rdi
    1735:	e8 d6 f9 ff ff       	call   1110 <__sprintf_chk@plt>
    173a:	48 8d 35 96 59 00 00 	lea    0x5996(%rip),%rsi        # 70d7 <_IO_stdin_used+0xd7>
    1741:	48 89 ef             	mov    %rbp,%rdi
    1744:	e8 b7 f9 ff ff       	call   1100 <fopen@plt>
    1749:	48 89 03             	mov    %rax,(%rbx)
    174c:	48 85 c0             	test   %rax,%rax
    174f:	74 1f                	je     1770 <test_Fopen.constprop.0.isra.0+0x80>
    1751:	48 8b 84 24 08 04 00 	mov    0x408(%rsp),%rax
    1758:	00 
    1759:	64 48 2b 04 25 28 00 	sub    %fs:0x28,%rax
    1760:	00 00 
    1762:	75 22                	jne    1786 <test_Fopen.constprop.0.isra.0+0x96>
    1764:	48 81 c4 10 04 00 00 	add    $0x410,%rsp
    176b:	5b                   	pop    %rbx
    176c:	5d                   	pop    %rbp
    176d:	41 5c                	pop    %r12
    176f:	c3                   	ret    
    1770:	4c 89 e2             	mov    %r12,%rdx
    1773:	48 8d 35 60 59 00 00 	lea    0x5960(%rip),%rsi        # 70da <_IO_stdin_used+0xda>
    177a:	bf 01 00 00 00       	mov    $0x1,%edi
    177f:	e8 6c f9 ff ff       	call   10f0 <__printf_chk@plt>
    1784:	eb cb                	jmp    1751 <test_Fopen.constprop.0.isra.0+0x61>
    1786:	e8 55 f9 ff ff       	call   10e0 <__stack_chk_fail@plt>
    178b:	0f 1f 44 00 00       	nopl   0x0(%rax,%rax,1)

0000000000001790 <riscv_dsp_rfft_q15>:
    1790:	f3 0f 1e fa          	endbr64 
    1794:	41 57                	push   %r15
    1796:	41 56                	push   %r14
    1798:	41 55                	push   %r13
    179a:	41 54                	push   %r12
    179c:	55                   	push   %rbp
    179d:	89 f5                	mov    %esi,%ebp
    179f:	83 ee 01             	sub    $0x1,%esi
    17a2:	53                   	push   %rbx
    17a3:	48 89 fb             	mov    %rdi,%rbx
    17a6:	48 83 ec 18          	sub    $0x18,%rsp
    17aa:	e8 41 03 00 00       	call   1af0 <riscv_dsp_cfft_q15>
    17af:	41 b9 01 00 00 00    	mov    $0x1,%r9d
    17b5:	89 e9                	mov    %ebp,%ecx
    17b7:	41 d3 e1             	shl    %cl,%r9d
    17ba:	41 c1 e9 02          	shr    $0x2,%r9d
    17be:	0f 84 4f 01 00 00    	je     1913 <riscv_dsp_rfft_q15+0x183>
    17c4:	b8 0a 00 00 00       	mov    $0xa,%eax
    17c9:	43 8d 34 09          	lea    (%r9,%r9,1),%esi
    17cd:	49 89 de             	mov    %rbx,%r14
    17d0:	29 e8                	sub    %ebp,%eax
    17d2:	49 89 f2             	mov    %rsi,%r10
    17d5:	4c 8d 04 73          	lea    (%rbx,%rsi,2),%r8
    17d9:	89 44 24 0c          	mov    %eax,0xc(%rsp)
    17dd:	e9 a0 00 00 00       	jmp    1882 <riscv_dsp_rfft_q15+0xf2>
    17e2:	66 0f 1f 44 00 00    	nopw   0x0(%rax,%rax,1)
    17e8:	48 8d 1d f5 5d 00 00 	lea    0x5df5(%rip),%rbx        # 75e4 <riscv_dsp_cos_table_q15_1024+0x4>
    17ef:	48 98                	cltq   
    17f1:	48 63 d2             	movslq %edx,%rdx
    17f4:	0f b7 04 43          	movzwl (%rbx,%rax,2),%eax
    17f8:	0f b7 3c 53          	movzwl (%rbx,%rdx,2),%edi
    17fc:	41 8d 52 01          	lea    0x1(%r10),%edx
    1800:	41 0f bf 08          	movswl (%r8),%ecx
    1804:	49 8d 1c 76          	lea    (%r14,%rsi,2),%rbx
    1808:	98                   	cwtl   
    1809:	4d 8d 1c 56          	lea    (%r14,%rdx,2),%r11
    180d:	44 0f bf 2b          	movswl (%rbx),%r13d
    1811:	41 0f bf 70 02       	movswl 0x2(%r8),%esi
    1816:	0f bf ff             	movswl %di,%edi
    1819:	41 0f bf 13          	movswl (%r11),%edx
    181d:	89 cd                	mov    %ecx,%ebp
    181f:	41 89 ff             	mov    %edi,%r15d
    1822:	49 83 e8 04          	sub    $0x4,%r8
    1826:	44 29 ed             	sub    %r13d,%ebp
    1829:	44 01 e9             	add    %r13d,%ecx
    182c:	41 83 c2 02          	add    $0x2,%r10d
    1830:	0f af fd             	imul   %ebp,%edi
    1833:	44 8d 24 16          	lea    (%rsi,%rdx,1),%r12d
    1837:	29 d6                	sub    %edx,%esi
    1839:	89 c2                	mov    %eax,%edx
    183b:	41 0f af c4          	imul   %r12d,%eax
    183f:	c1 f9 02             	sar    $0x2,%ecx
    1842:	c1 fe 02             	sar    $0x2,%esi
    1845:	0f af d5             	imul   %ebp,%edx
    1848:	45 0f af fc          	imul   %r12d,%r15d
    184c:	29 f8                	sub    %edi,%eax
    184e:	c1 f8 11             	sar    $0x11,%eax
    1851:	8d 3c 08             	lea    (%rax,%rcx,1),%edi
    1854:	44 01 fa             	add    %r15d,%edx
    1857:	29 c1                	sub    %eax,%ecx
    1859:	66 41 89 78 04       	mov    %di,0x4(%r8)
    185e:	c1 fa 11             	sar    $0x11,%edx
    1861:	89 f7                	mov    %esi,%edi
    1863:	29 d7                	sub    %edx,%edi
    1865:	f7 da                	neg    %edx
    1867:	29 f2                	sub    %esi,%edx
    1869:	66 41 89 78 06       	mov    %di,0x6(%r8)
    186e:	66 89 0b             	mov    %cx,(%rbx)
    1871:	66 41 89 13          	mov    %dx,(%r11)
    1875:	41 83 e9 01          	sub    $0x1,%r9d
    1879:	0f 84 91 00 00 00    	je     1910 <riscv_dsp_rfft_q15+0x180>
    187f:	44 89 d6             	mov    %r10d,%esi
    1882:	0f b6 4c 24 0c       	movzbl 0xc(%rsp),%ecx
    1887:	44 89 c8             	mov    %r9d,%eax
    188a:	ba 00 01 00 00       	mov    $0x100,%edx
    188f:	d3 e0                	shl    %cl,%eax
    1891:	29 c2                	sub    %eax,%edx
    1893:	85 d2                	test   %edx,%edx
    1895:	0f 8f 4d ff ff ff    	jg     17e8 <riscv_dsp_rfft_q15+0x58>
    189b:	8d 90 00 ff ff ff    	lea    -0x100(%rax),%edx
    18a1:	b9 00 01 00 00       	mov    $0x100,%ecx
    18a6:	29 d1                	sub    %edx,%ecx
    18a8:	85 c9                	test   %ecx,%ecx
    18aa:	7e 24                	jle    18d0 <riscv_dsp_rfft_q15+0x140>
    18ac:	48 8d 1d 31 5d 00 00 	lea    0x5d31(%rip),%rbx        # 75e4 <riscv_dsp_cos_table_q15_1024+0x4>
    18b3:	48 63 c9             	movslq %ecx,%rcx
    18b6:	48 63 d2             	movslq %edx,%rdx
    18b9:	0f b7 04 4b          	movzwl (%rbx,%rcx,2),%eax
    18bd:	0f b7 3c 53          	movzwl (%rbx,%rdx,2),%edi
    18c1:	f7 d8                	neg    %eax
    18c3:	e9 34 ff ff ff       	jmp    17fc <riscv_dsp_rfft_q15+0x6c>
    18c8:	0f 1f 84 00 00 00 00 	nopl   0x0(%rax,%rax,1)
    18cf:	00 
    18d0:	8d 90 00 fe ff ff    	lea    -0x200(%rax),%edx
    18d6:	b9 00 01 00 00       	mov    $0x100,%ecx
    18db:	48 8d 1d 02 5d 00 00 	lea    0x5d02(%rip),%rbx        # 75e4 <riscv_dsp_cos_table_q15_1024+0x4>
    18e2:	29 d1                	sub    %edx,%ecx
    18e4:	48 63 d2             	movslq %edx,%rdx
    18e7:	0f b7 3c 53          	movzwl (%rbx,%rdx,2),%edi
    18eb:	48 63 c1             	movslq %ecx,%rax
    18ee:	0f b7 04 43          	movzwl (%rbx,%rax,2),%eax
    18f2:	f7 df                	neg    %edi
    18f4:	85 c9                	test   %ecx,%ecx
    18f6:	0f 8e 00 ff ff ff    	jle    17fc <riscv_dsp_rfft_q15+0x6c>
    18fc:	f7 d8                	neg    %eax
    18fe:	89 c2                	mov    %eax,%edx
    1900:	89 f8                	mov    %edi,%eax
    1902:	89 d7                	mov    %edx,%edi
    1904:	e9 f3 fe ff ff       	jmp    17fc <riscv_dsp_rfft_q15+0x6c>
    1909:	0f 1f 80 00 00 00 00 	nopl   0x0(%rax)
    1910:	4c 89 f3             	mov    %r14,%rbx
    1913:	0f bf 03             	movswl (%rbx),%eax
    1916:	0f bf 4b 02          	movswl 0x2(%rbx),%ecx
    191a:	8d 14 01             	lea    (%rcx,%rax,1),%edx
    191d:	29 c8                	sub    %ecx,%eax
    191f:	d1 f8                	sar    %eax
    1921:	d1 fa                	sar    %edx
    1923:	66 89 43 02          	mov    %ax,0x2(%rbx)
    1927:	31 c0                	xor    %eax,%eax
    1929:	66 89 13             	mov    %dx,(%rbx)
    192c:	48 83 c4 18          	add    $0x18,%rsp
    1930:	5b                   	pop    %rbx
    1931:	5d                   	pop    %rbp
    1932:	41 5c                	pop    %r12
    1934:	41 5d                	pop    %r13
    1936:	41 5e                	pop    %r14
    1938:	41 5f                	pop    %r15
    193a:	c3                   	ret    
    193b:	0f 1f 44 00 00       	nopl   0x0(%rax,%rax,1)

0000000000001940 <riscv_dsp_rifft_q15>:
    1940:	f3 0f 1e fa          	endbr64 
    1944:	41 57                	push   %r15
    1946:	41 b9 01 00 00 00    	mov    $0x1,%r9d
    194c:	89 f1                	mov    %esi,%ecx
    194e:	49 89 fb             	mov    %rdi,%r11
    1951:	41 56                	push   %r14
    1953:	41 d3 e1             	shl    %cl,%r9d
    1956:	41 55                	push   %r13
    1958:	41 54                	push   %r12
    195a:	55                   	push   %rbp
    195b:	53                   	push   %rbx
    195c:	48 83 ec 18          	sub    $0x18,%rsp
    1960:	41 c1 e9 02          	shr    $0x2,%r9d
    1964:	89 74 24 0c          	mov    %esi,0xc(%rsp)
    1968:	0f 84 42 01 00 00    	je     1ab0 <riscv_dsp_rifft_q15+0x170>
    196e:	b8 0a 00 00 00       	mov    $0xa,%eax
    1973:	43 8d 14 09          	lea    (%r9,%r9,1),%edx
    1977:	29 f0                	sub    %esi,%eax
    1979:	49 89 d2             	mov    %rdx,%r10
    197c:	48 8d 34 57          	lea    (%rdi,%rdx,2),%rsi
    1980:	89 44 24 08          	mov    %eax,0x8(%rsp)
    1984:	e9 9e 00 00 00       	jmp    1a27 <riscv_dsp_rifft_q15+0xe7>
    1989:	0f 1f 80 00 00 00 00 	nopl   0x0(%rax)
    1990:	48 8d 1d 4d 5c 00 00 	lea    0x5c4d(%rip),%rbx        # 75e4 <riscv_dsp_cos_table_q15_1024+0x4>
    1997:	48 98                	cltq   
    1999:	48 63 c9             	movslq %ecx,%rcx
    199c:	0f b7 04 43          	movzwl (%rbx,%rax,2),%eax
    19a0:	0f b7 0c 4b          	movzwl (%rbx,%rcx,2),%ecx
    19a4:	41 8d 5a 01          	lea    0x1(%r10),%ebx
    19a8:	44 0f bf 06          	movswl (%rsi),%r8d
    19ac:	49 8d 2c 53          	lea    (%r11,%rdx,2),%rbp
    19b0:	0f bf 7e 02          	movswl 0x2(%rsi),%edi
    19b4:	49 8d 1c 5b          	lea    (%r11,%rbx,2),%rbx
    19b8:	0f bf 55 00          	movswl 0x0(%rbp),%edx
    19bc:	98                   	cwtl   
    19bd:	0f bf c9             	movswl %cx,%ecx
    19c0:	44 0f bf 23          	movswl (%rbx),%r12d
    19c4:	45 89 c6             	mov    %r8d,%r14d
    19c7:	41 89 cf             	mov    %ecx,%r15d
    19ca:	48 83 ee 04          	sub    $0x4,%rsi
    19ce:	41 29 d6             	sub    %edx,%r14d
    19d1:	41 01 d0             	add    %edx,%r8d
    19d4:	89 c2                	mov    %eax,%edx
    19d6:	41 83 c2 02          	add    $0x2,%r10d
    19da:	45 0f af fe          	imul   %r14d,%r15d
    19de:	46 8d 2c 27          	lea    (%rdi,%r12,1),%r13d
    19e2:	44 29 e7             	sub    %r12d,%edi
    19e5:	41 0f af cd          	imul   %r13d,%ecx
    19e9:	41 0f af d5          	imul   %r13d,%edx
    19ed:	41 0f af c6          	imul   %r14d,%eax
    19f1:	44 01 fa             	add    %r15d,%edx
    19f4:	45 89 c7             	mov    %r8d,%r15d
    19f7:	29 c8                	sub    %ecx,%eax
    19f9:	c1 fa 0f             	sar    $0xf,%edx
    19fc:	c1 f8 0f             	sar    $0xf,%eax
    19ff:	41 29 d7             	sub    %edx,%r15d
    1a02:	44 01 c2             	add    %r8d,%edx
    1a05:	8d 0c 07             	lea    (%rdi,%rax,1),%ecx
    1a08:	29 f8                	sub    %edi,%eax
    1a0a:	66 44 89 7e 04       	mov    %r15w,0x4(%rsi)
    1a0f:	66 89 4e 06          	mov    %cx,0x6(%rsi)
    1a13:	66 89 55 00          	mov    %dx,0x0(%rbp)
    1a17:	66 89 03             	mov    %ax,(%rbx)
    1a1a:	41 83 e9 01          	sub    $0x1,%r9d
    1a1e:	0f 84 8c 00 00 00    	je     1ab0 <riscv_dsp_rifft_q15+0x170>
    1a24:	44 89 d2             	mov    %r10d,%edx
    1a27:	0f b6 4c 24 08       	movzbl 0x8(%rsp),%ecx
    1a2c:	44 89 c8             	mov    %r9d,%eax
    1a2f:	d3 e0                	shl    %cl,%eax
    1a31:	b9 00 01 00 00       	mov    $0x100,%ecx
    1a36:	29 c1                	sub    %eax,%ecx
    1a38:	85 c9                	test   %ecx,%ecx
    1a3a:	0f 8f 50 ff ff ff    	jg     1990 <riscv_dsp_rifft_q15+0x50>
    1a40:	8d 88 00 ff ff ff    	lea    -0x100(%rax),%ecx
    1a46:	bf 00 01 00 00       	mov    $0x100,%edi
    1a4b:	29 cf                	sub    %ecx,%edi
    1a4d:	85 ff                	test   %edi,%edi
    1a4f:	7e 1f                	jle    1a70 <riscv_dsp_rifft_q15+0x130>
    1a51:	48 8d 1d 8c 5b 00 00 	lea    0x5b8c(%rip),%rbx        # 75e4 <riscv_dsp_cos_table_q15_1024+0x4>
    1a58:	48 63 ff             	movslq %edi,%rdi
    1a5b:	48 63 c9             	movslq %ecx,%rcx
    1a5e:	0f b7 04 7b          	movzwl (%rbx,%rdi,2),%eax
    1a62:	0f b7 0c 4b          	movzwl (%rbx,%rcx,2),%ecx
    1a66:	f7 d8                	neg    %eax
    1a68:	e9 37 ff ff ff       	jmp    19a4 <riscv_dsp_rifft_q15+0x64>
    1a6d:	0f 1f 00             	nopl   (%rax)
    1a70:	8d 88 00 fe ff ff    	lea    -0x200(%rax),%ecx
    1a76:	bf 00 01 00 00       	mov    $0x100,%edi
    1a7b:	48 8d 1d 62 5b 00 00 	lea    0x5b62(%rip),%rbx        # 75e4 <riscv_dsp_cos_table_q15_1024+0x4>
    1a82:	29 cf                	sub    %ecx,%edi
    1a84:	48 63 c9             	movslq %ecx,%rcx
    1a87:	0f b7 0c 4b          	movzwl (%rbx,%rcx,2),%ecx
    1a8b:	48 63 c7             	movslq %edi,%rax
    1a8e:	0f b7 04 43          	movzwl (%rbx,%rax,2),%eax
    1a92:	f7 d9                	neg    %ecx
    1a94:	85 ff                	test   %edi,%edi
    1a96:	0f 8e 08 ff ff ff    	jle    19a4 <riscv_dsp_rifft_q15+0x64>
    1a9c:	f7 d8                	neg    %eax
    1a9e:	89 c7                	mov    %eax,%edi
    1aa0:	89 c8                	mov    %ecx,%eax
    1aa2:	89 f9                	mov    %edi,%ecx
    1aa4:	e9 fb fe ff ff       	jmp    19a4 <riscv_dsp_rifft_q15+0x64>
    1aa9:	0f 1f 80 00 00 00 00 	nopl   0x0(%rax)
    1ab0:	41 0f b7 03          	movzwl (%r11),%eax
    1ab4:	41 0f b7 53 02       	movzwl 0x2(%r11),%edx
    1ab9:	4c 89 df             	mov    %r11,%rdi
    1abc:	8b 74 24 0c          	mov    0xc(%rsp),%esi
    1ac0:	01 c2                	add    %eax,%edx
    1ac2:	66 41 2b 43 02       	sub    0x2(%r11),%ax
    1ac7:	66 41 89 13          	mov    %dx,(%r11)
    1acb:	83 ee 01             	sub    $0x1,%esi
    1ace:	66 41 89 43 02       	mov    %ax,0x2(%r11)
    1ad3:	e8 48 00 00 00       	call   1b20 <riscv_dsp_cifft_q15>
    1ad8:	48 83 c4 18          	add    $0x18,%rsp
    1adc:	31 c0                	xor    %eax,%eax
    1ade:	5b                   	pop    %rbx
    1adf:	5d                   	pop    %rbp
    1ae0:	41 5c                	pop    %r12
    1ae2:	41 5d                	pop    %r13
    1ae4:	41 5e                	pop    %r14
    1ae6:	41 5f                	pop    %r15
    1ae8:	c3                   	ret    
    1ae9:	0f 1f 80 00 00 00 00 	nopl   0x0(%rax)

0000000000001af0 <riscv_dsp_cfft_q15>:
    1af0:	f3 0f 1e fa          	endbr64 
    1af4:	83 fe 0e             	cmp    $0xe,%esi
    1af7:	77 17                	ja     1b10 <riscv_dsp_cfft_q15+0x20>
    1af9:	b8 50 55 00 00       	mov    $0x5550,%eax
    1afe:	48 0f a3 f0          	bt     %rsi,%rax
    1b02:	73 0c                	jae    1b10 <riscv_dsp_cfft_q15+0x20>
    1b04:	e9 d7 1d 00 00       	jmp    38e0 <riscv_dsp_cfft_rd4_q15>
    1b09:	0f 1f 80 00 00 00 00 	nopl   0x0(%rax)
    1b10:	e9 3b 00 00 00       	jmp    1b50 <riscv_dsp_cfft_rd2_q15>
    1b15:	66 2e 0f 1f 84 00 00 	cs nopw 0x0(%rax,%rax,1)
    1b1c:	00 00 00 
    1b1f:	90                   	nop

0000000000001b20 <riscv_dsp_cifft_q15>:
    1b20:	f3 0f 1e fa          	endbr64 
    1b24:	83 fe 0e             	cmp    $0xe,%esi
    1b27:	77 17                	ja     1b40 <riscv_dsp_cifft_q15+0x20>
    1b29:	b8 50 55 00 00       	mov    $0x5550,%eax
    1b2e:	48 0f a3 f0          	bt     %rsi,%rax
    1b32:	73 0c                	jae    1b40 <riscv_dsp_cifft_q15+0x20>
    1b34:	e9 c7 31 00 00       	jmp    4d00 <riscv_dsp_cifft_rd4_q15>
    1b39:	0f 1f 80 00 00 00 00 	nopl   0x0(%rax)
    1b40:	e9 ab 09 00 00       	jmp    24f0 <riscv_dsp_cifft_rd2_q15>
    1b45:	66 2e 0f 1f 84 00 00 	cs nopw 0x0(%rax,%rax,1)
    1b4c:	00 00 00 
    1b4f:	90                   	nop

0000000000001b50 <riscv_dsp_cfft_rd2_q15>:
    1b50:	f3 0f 1e fa          	endbr64 
    1b54:	89 f1                	mov    %esi,%ecx
    1b56:	b8 01 00 00 00       	mov    $0x1,%eax
    1b5b:	41 57                	push   %r15
    1b5d:	d3 e0                	shl    %cl,%eax
    1b5f:	41 56                	push   %r14
    1b61:	41 55                	push   %r13
    1b63:	41 89 c3             	mov    %eax,%r11d
    1b66:	41 54                	push   %r12
    1b68:	4d 01 db             	add    %r11,%r11
    1b6b:	55                   	push   %rbp
    1b6c:	4e 8d 34 1f          	lea    (%rdi,%r11,1),%r14
    1b70:	53                   	push   %rbx
    1b71:	48 89 fb             	mov    %rdi,%rbx
    1b74:	41 0f b7 4e 02       	movzwl 0x2(%r14),%ecx
    1b79:	66 d1 f9             	sar    %cx
    1b7c:	48 89 7c 24 d8       	mov    %rdi,-0x28(%rsp)
    1b81:	0f bf c9             	movswl %cx,%ecx
    1b84:	89 44 24 f4          	mov    %eax,-0xc(%rsp)
    1b88:	0f b7 47 02          	movzwl 0x2(%rdi),%eax
    1b8c:	0f b7 3f             	movzwl (%rdi),%edi
    1b8f:	89 74 24 f0          	mov    %esi,-0x10(%rsp)
    1b93:	41 0f b7 36          	movzwl (%r14),%esi
    1b97:	66 d1 f8             	sar    %ax
    1b9a:	89 fa                	mov    %edi,%edx
    1b9c:	66 89 7c 24 c8       	mov    %di,-0x38(%rsp)
    1ba1:	98                   	cwtl   
    1ba2:	66 d1 fa             	sar    %dx
    1ba5:	66 d1 fe             	sar    %si
    1ba8:	0f bf d2             	movswl %dx,%edx
    1bab:	0f bf f6             	movswl %si,%esi
    1bae:	8d 3c 32             	lea    (%rdx,%rsi,1),%edi
    1bb1:	29 f2                	sub    %esi,%edx
    1bb3:	d1 ff                	sar    %edi
    1bb5:	d1 fa                	sar    %edx
    1bb7:	66 89 3b             	mov    %di,(%rbx)
    1bba:	8d 3c 08             	lea    (%rax,%rcx,1),%edi
    1bbd:	29 c8                	sub    %ecx,%eax
    1bbf:	d1 f8                	sar    %eax
    1bc1:	d1 ff                	sar    %edi
    1bc3:	66 89 7b 02          	mov    %di,0x2(%rbx)
    1bc7:	66 41 89 46 02       	mov    %ax,0x2(%r14)
    1bcc:	48 8d 43 04          	lea    0x4(%rbx),%rax
    1bd0:	66 41 89 16          	mov    %dx,(%r14)
    1bd4:	48 89 44 24 e0       	mov    %rax,-0x20(%rsp)
    1bd9:	49 39 c6             	cmp    %rax,%r14
    1bdc:	0f 84 20 01 00 00    	je     1d02 <riscv_dsp_cfft_rd2_q15+0x1b2>
    1be2:	b9 0a 00 00 00       	mov    $0xa,%ecx
    1be7:	48 89 c2             	mov    %rax,%rdx
    1bea:	2b 4c 24 f0          	sub    -0x10(%rsp),%ecx
    1bee:	31 db                	xor    %ebx,%ebx
    1bf0:	4c 8d 25 ed 59 00 00 	lea    0x59ed(%rip),%r12        # 75e4 <riscv_dsp_cos_table_q15_1024+0x4>
    1bf7:	41 bd 00 01 00 00    	mov    $0x100,%r13d
    1bfd:	e9 91 00 00 00       	jmp    1c93 <riscv_dsp_cfft_rd2_q15+0x143>
    1c02:	48 98                	cltq   
    1c04:	48 63 f6             	movslq %esi,%rsi
    1c07:	41 0f b7 04 44       	movzwl (%r12,%rax,2),%eax
    1c0c:	45 0f b7 04 74       	movzwl (%r12,%rsi,2),%r8d
    1c11:	0f b7 3a             	movzwl (%rdx),%edi
    1c14:	42 0f b7 2c 1a       	movzwl (%rdx,%r11,1),%ebp
    1c19:	98                   	cwtl   
    1c1a:	45 0f bf c0          	movswl %r8w,%r8d
    1c1e:	0f b7 72 02          	movzwl 0x2(%rdx),%esi
    1c22:	46 0f b7 4c 1a 02    	movzwl 0x2(%rdx,%r11,1),%r9d
    1c28:	48 83 c2 04          	add    $0x4,%rdx
    1c2c:	66 d1 ff             	sar    %di
    1c2f:	66 d1 fd             	sar    %bp
    1c32:	66 d1 fe             	sar    %si
    1c35:	0f bf ff             	movswl %di,%edi
    1c38:	0f bf ed             	movswl %bp,%ebp
    1c3b:	66 41 d1 f9          	sar    %r9w
    1c3f:	41 89 fa             	mov    %edi,%r10d
    1c42:	01 ef                	add    %ebp,%edi
    1c44:	45 0f bf c9          	movswl %r9w,%r9d
    1c48:	0f bf f6             	movswl %si,%esi
    1c4b:	d1 ff                	sar    %edi
    1c4d:	41 29 ea             	sub    %ebp,%r10d
    1c50:	66 89 7a fc          	mov    %di,-0x4(%rdx)
    1c54:	89 f7                	mov    %esi,%edi
    1c56:	44 01 ce             	add    %r9d,%esi
    1c59:	d1 fe                	sar    %esi
    1c5b:	44 29 cf             	sub    %r9d,%edi
    1c5e:	45 89 c1             	mov    %r8d,%r9d
    1c61:	66 89 72 fe          	mov    %si,-0x2(%rdx)
    1c65:	89 c6                	mov    %eax,%esi
    1c67:	44 0f af cf          	imul   %edi,%r9d
    1c6b:	41 0f af f2          	imul   %r10d,%esi
    1c6f:	0f af c7             	imul   %edi,%eax
    1c72:	45 0f af c2          	imul   %r10d,%r8d
    1c76:	44 01 ce             	add    %r9d,%esi
    1c79:	c1 fe 10             	sar    $0x10,%esi
    1c7c:	44 29 c0             	sub    %r8d,%eax
    1c7f:	66 42 89 74 1a fc    	mov    %si,-0x4(%rdx,%r11,1)
    1c85:	c1 f8 10             	sar    $0x10,%eax
    1c88:	66 42 89 44 1a fe    	mov    %ax,-0x2(%rdx,%r11,1)
    1c8e:	49 39 d6             	cmp    %rdx,%r14
    1c91:	74 6f                	je     1d02 <riscv_dsp_cfft_rd2_q15+0x1b2>
    1c93:	83 c3 01             	add    $0x1,%ebx
    1c96:	44 89 ee             	mov    %r13d,%esi
    1c99:	89 d8                	mov    %ebx,%eax
    1c9b:	d3 e0                	shl    %cl,%eax
    1c9d:	29 c6                	sub    %eax,%esi
    1c9f:	85 f6                	test   %esi,%esi
    1ca1:	0f 8f 5b ff ff ff    	jg     1c02 <riscv_dsp_cfft_rd2_q15+0xb2>
    1ca7:	8d b0 00 ff ff ff    	lea    -0x100(%rax),%esi
    1cad:	44 89 ef             	mov    %r13d,%edi
    1cb0:	29 f7                	sub    %esi,%edi
    1cb2:	85 ff                	test   %edi,%edi
    1cb4:	7e 17                	jle    1ccd <riscv_dsp_cfft_rd2_q15+0x17d>
    1cb6:	48 63 ff             	movslq %edi,%rdi
    1cb9:	48 63 f6             	movslq %esi,%rsi
    1cbc:	41 0f b7 04 7c       	movzwl (%r12,%rdi,2),%eax
    1cc1:	45 0f b7 04 74       	movzwl (%r12,%rsi,2),%r8d
    1cc6:	f7 d8                	neg    %eax
    1cc8:	e9 44 ff ff ff       	jmp    1c11 <riscv_dsp_cfft_rd2_q15+0xc1>
    1ccd:	8d b0 00 fe ff ff    	lea    -0x200(%rax),%esi
    1cd3:	44 89 ef             	mov    %r13d,%edi
    1cd6:	29 f7                	sub    %esi,%edi
    1cd8:	48 63 f6             	movslq %esi,%rsi
    1cdb:	45 0f b7 04 74       	movzwl (%r12,%rsi,2),%r8d
    1ce0:	48 63 c7             	movslq %edi,%rax
    1ce3:	41 0f b7 04 44       	movzwl (%r12,%rax,2),%eax
    1ce8:	41 f7 d8             	neg    %r8d
    1ceb:	85 ff                	test   %edi,%edi
    1ced:	0f 8e 1e ff ff ff    	jle    1c11 <riscv_dsp_cfft_rd2_q15+0xc1>
    1cf3:	f7 d8                	neg    %eax
    1cf5:	89 c6                	mov    %eax,%esi
    1cf7:	44 89 c0             	mov    %r8d,%eax
    1cfa:	41 89 f0             	mov    %esi,%r8d
    1cfd:	e9 0f ff ff ff       	jmp    1c11 <riscv_dsp_cfft_rd2_q15+0xc1>
    1d02:	8b 44 24 f4          	mov    -0xc(%rsp),%eax
    1d06:	8b 7c 24 f0          	mov    -0x10(%rsp),%edi
    1d0a:	bb 02 00 00 00       	mov    $0x2,%ebx
    1d0f:	89 44 24 e8          	mov    %eax,-0x18(%rsp)
    1d13:	89 f8                	mov    %edi,%eax
    1d15:	83 e8 02             	sub    $0x2,%eax
    1d18:	89 44 24 ec          	mov    %eax,-0x14(%rsp)
    1d1c:	0f 84 86 03 00 00    	je     20a8 <riscv_dsp_cfft_rd2_q15+0x558>
    1d22:	b8 0a 00 00 00       	mov    $0xa,%eax
    1d27:	66 0f ef ed          	pxor   %xmm5,%xmm5
    1d2b:	4c 8d 25 b2 58 00 00 	lea    0x58b2(%rip),%r12        # 75e4 <riscv_dsp_cos_table_q15_1024+0x4>
    1d32:	41 bd 00 01 00 00    	mov    $0x100,%r13d
    1d38:	29 f8                	sub    %edi,%eax
    1d3a:	89 44 24 d4          	mov    %eax,-0x2c(%rsp)
    1d3e:	66 90                	xchg   %ax,%ax
    1d40:	d1 6c 24 e8          	shrl   -0x18(%rsp)
    1d44:	44 8b 54 24 e8       	mov    -0x18(%rsp),%r10d
    1d49:	48 8b 44 24 d8       	mov    -0x28(%rsp),%rax
    1d4e:	4b 8d 3c 12          	lea    (%r10,%r10,1),%rdi
    1d52:	48 01 f8             	add    %rdi,%rax
    1d55:	48 89 44 24 c8       	mov    %rax,-0x38(%rsp)
    1d5a:	85 db                	test   %ebx,%ebx
    1d5c:	0f 84 6d 02 00 00    	je     1fcf <riscv_dsp_cfft_rd2_q15+0x47f>
    1d62:	4a 8d 34 17          	lea    (%rdi,%r10,1),%rsi
    1d66:	44 8d 73 ff          	lea    -0x1(%rbx),%r14d
    1d6a:	48 c1 e6 02          	shl    $0x2,%rsi
    1d6e:	48 85 ff             	test   %rdi,%rdi
    1d71:	4a 8d 04 95 00 00 00 	lea    0x0(,%r10,4),%rax
    1d78:	00 
    1d79:	0f 95 c1             	setne  %cl
    1d7c:	41 83 fe 02          	cmp    $0x2,%r14d
    1d80:	0f 97 c2             	seta   %dl
    1d83:	21 ca                	and    %ecx,%edx
    1d85:	48 83 f8 03          	cmp    $0x3,%rax
    1d89:	0f 97 c1             	seta   %cl
    1d8c:	84 ca                	test   %cl,%dl
    1d8e:	0f 84 f0 06 00 00    	je     2484 <riscv_dsp_cfft_rd2_q15+0x934>
    1d94:	48 8d 56 02          	lea    0x2(%rsi),%rdx
    1d98:	48 39 d7             	cmp    %rdx,%rdi
    1d9b:	0f 8e e3 06 00 00    	jle    2484 <riscv_dsp_cfft_rd2_q15+0x934>
    1da1:	41 89 db             	mov    %ebx,%r11d
    1da4:	4d 89 d1             	mov    %r10,%r9
    1da7:	48 8b 4c 24 d8       	mov    -0x28(%rsp),%rcx
    1dac:	48 8b 54 24 c8       	mov    -0x38(%rsp),%rdx
    1db1:	41 c1 eb 02          	shr    $0x2,%r11d
    1db5:	49 c1 e1 04          	shl    $0x4,%r9
    1db9:	45 31 c0             	xor    %r8d,%r8d
    1dbc:	0f 1f 40 00          	nopl   0x0(%rax)
    1dc0:	66 0f 6e 3c 31       	movd   (%rcx,%rsi,1),%xmm7
    1dc5:	66 0f 6e 11          	movd   (%rcx),%xmm2
    1dc9:	66 0f 6f cd          	movdqa %xmm5,%xmm1
    1dcd:	41 83 c0 01          	add    $0x1,%r8d
    1dd1:	66 0f 6e 34 01       	movd   (%rcx,%rax,1),%xmm6
    1dd6:	66 0f 6e 04 41       	movd   (%rcx,%rax,2),%xmm0
    1ddb:	66 0f 6e 24 42       	movd   (%rdx,%rax,2),%xmm4
    1de0:	66 0f 62 c7          	punpckldq %xmm7,%xmm0
    1de4:	66 0f 62 d6          	punpckldq %xmm6,%xmm2
    1de8:	66 0f 6e 3c 32       	movd   (%rdx,%rsi,1),%xmm7
    1ded:	66 0f 6e 34 02       	movd   (%rdx,%rax,1),%xmm6
    1df2:	66 0f 6c d0          	punpcklqdq %xmm0,%xmm2
    1df6:	66 0f 65 ca          	pcmpgtw %xmm2,%xmm1
    1dfa:	66 0f 6f c2          	movdqa %xmm2,%xmm0
    1dfe:	66 0f 6f da          	movdqa %xmm2,%xmm3
    1e02:	66 0f 62 e7          	punpckldq %xmm7,%xmm4
    1e06:	66 0f 61 c1          	punpcklwd %xmm1,%xmm0
    1e0a:	66 0f 69 d9          	punpckhwd %xmm1,%xmm3
    1e0e:	66 0f 6e 0a          	movd   (%rdx),%xmm1
    1e12:	66 0f 62 ce          	punpckldq %xmm6,%xmm1
    1e16:	66 0f 6c cc          	punpcklqdq %xmm4,%xmm1
    1e1a:	66 0f 6f e5          	movdqa %xmm5,%xmm4
    1e1e:	66 0f 65 e1          	pcmpgtw %xmm1,%xmm4
    1e22:	66 0f 6f f1          	movdqa %xmm1,%xmm6
    1e26:	66 0f 6f d1          	movdqa %xmm1,%xmm2
    1e2a:	66 0f 6f c8          	movdqa %xmm0,%xmm1
    1e2e:	66 0f 69 d4          	punpckhwd %xmm4,%xmm2
    1e32:	66 0f 61 f4          	punpcklwd %xmm4,%xmm6
    1e36:	66 0f 6f e3          	movdqa %xmm3,%xmm4
    1e3a:	66 0f fe e2          	paddd  %xmm2,%xmm4
    1e3e:	66 0f fa da          	psubd  %xmm2,%xmm3
    1e42:	66 0f fe ce          	paddd  %xmm6,%xmm1
    1e46:	66 0f 72 e4 01       	psrad  $0x1,%xmm4
    1e4b:	66 0f fa c6          	psubd  %xmm6,%xmm0
    1e4f:	66 0f 72 e1 01       	psrad  $0x1,%xmm1
    1e54:	66 0f 72 e3 01       	psrad  $0x1,%xmm3
    1e59:	66 0f 6f d3          	movdqa %xmm3,%xmm2
    1e5d:	66 0f 72 e0 01       	psrad  $0x1,%xmm0
    1e62:	66 0f 6f f9          	movdqa %xmm1,%xmm7
    1e66:	66 0f 61 cc          	punpcklwd %xmm4,%xmm1
    1e6a:	66 0f 69 fc          	punpckhwd %xmm4,%xmm7
    1e6e:	66 0f 6f d8          	movdqa %xmm0,%xmm3
    1e72:	66 0f 6f e1          	movdqa %xmm1,%xmm4
    1e76:	66 0f 61 c2          	punpcklwd %xmm2,%xmm0
    1e7a:	66 0f 69 da          	punpckhwd %xmm2,%xmm3
    1e7e:	66 0f 69 e7          	punpckhwd %xmm7,%xmm4
    1e82:	66 0f 6f d0          	movdqa %xmm0,%xmm2
    1e86:	66 0f 61 cf          	punpcklwd %xmm7,%xmm1
    1e8a:	66 0f 61 cc          	punpcklwd %xmm4,%xmm1
    1e8e:	66 0f 69 d3          	punpckhwd %xmm3,%xmm2
    1e92:	66 0f 61 c3          	punpcklwd %xmm3,%xmm0
    1e96:	66 0f 61 c2          	punpcklwd %xmm2,%xmm0
    1e9a:	66 0f 70 d1 55       	pshufd $0x55,%xmm1,%xmm2
    1e9f:	66 0f 7e 09          	movd   %xmm1,(%rcx)
    1ea3:	66 0f 7e 14 01       	movd   %xmm2,(%rcx,%rax,1)
    1ea8:	66 0f 6f d1          	movdqa %xmm1,%xmm2
    1eac:	66 0f 6a d1          	punpckhdq %xmm1,%xmm2
    1eb0:	66 0f 70 c9 ff       	pshufd $0xff,%xmm1,%xmm1
    1eb5:	66 0f 7e 14 41       	movd   %xmm2,(%rcx,%rax,2)
    1eba:	66 0f 7e 0c 31       	movd   %xmm1,(%rcx,%rsi,1)
    1ebf:	66 0f 70 c8 55       	pshufd $0x55,%xmm0,%xmm1
    1ec4:	4c 01 c9             	add    %r9,%rcx
    1ec7:	66 0f 7e 02          	movd   %xmm0,(%rdx)
    1ecb:	66 0f 7e 0c 02       	movd   %xmm1,(%rdx,%rax,1)
    1ed0:	66 0f 6f c8          	movdqa %xmm0,%xmm1
    1ed4:	66 0f 6a c8          	punpckhdq %xmm0,%xmm1
    1ed8:	66 0f 70 c0 ff       	pshufd $0xff,%xmm0,%xmm0
    1edd:	66 0f 7e 0c 42       	movd   %xmm1,(%rdx,%rax,2)
    1ee2:	66 0f 7e 04 32       	movd   %xmm0,(%rdx,%rsi,1)
    1ee7:	4c 01 ca             	add    %r9,%rdx
    1eea:	45 39 d8             	cmp    %r11d,%r8d
    1eed:	0f 85 cd fe ff ff    	jne    1dc0 <riscv_dsp_cfft_rd2_q15+0x270>
    1ef3:	41 89 d8             	mov    %ebx,%r8d
    1ef6:	48 8b 74 24 d8       	mov    -0x28(%rsp),%rsi
    1efb:	41 83 e0 fc          	and    $0xfffffffc,%r8d
    1eff:	44 89 c0             	mov    %r8d,%eax
    1f02:	48 0f af c7          	imul   %rdi,%rax
    1f06:	48 8d 14 46          	lea    (%rsi,%rax,2),%rdx
    1f0a:	44 39 c3             	cmp    %r8d,%ebx
    1f0d:	0f 84 bc 00 00 00    	je     1fcf <riscv_dsp_cfft_rd2_q15+0x47f>
    1f13:	48 8d 04 3a          	lea    (%rdx,%rdi,1),%rax
    1f17:	0f bf 32             	movswl (%rdx),%esi
    1f1a:	0f bf 28             	movswl (%rax),%ebp
    1f1d:	44 0f bf 48 02       	movswl 0x2(%rax),%r9d
    1f22:	8d 0c 2e             	lea    (%rsi,%rbp,1),%ecx
    1f25:	29 ee                	sub    %ebp,%esi
    1f27:	d1 f9                	sar    %ecx
    1f29:	d1 fe                	sar    %esi
    1f2b:	66 89 0a             	mov    %cx,(%rdx)
    1f2e:	0f bf 4a 02          	movswl 0x2(%rdx),%ecx
    1f32:	46 8d 1c 09          	lea    (%rcx,%r9,1),%r11d
    1f36:	44 29 c9             	sub    %r9d,%ecx
    1f39:	41 d1 fb             	sar    %r11d
    1f3c:	d1 f9                	sar    %ecx
    1f3e:	66 44 89 5a 02       	mov    %r11w,0x2(%rdx)
    1f43:	45 89 f3             	mov    %r14d,%r11d
    1f46:	66 89 30             	mov    %si,(%rax)
    1f49:	66 89 48 02          	mov    %cx,0x2(%rax)
    1f4d:	48 01 f8             	add    %rdi,%rax
    1f50:	45 29 c3             	sub    %r8d,%r11d
    1f53:	74 7a                	je     1fcf <riscv_dsp_cfft_rd2_q15+0x47f>
    1f55:	48 8d 14 38          	lea    (%rax,%rdi,1),%rdx
    1f59:	0f bf 30             	movswl (%rax),%esi
    1f5c:	0f bf 2a             	movswl (%rdx),%ebp
    1f5f:	44 0f bf 42 02       	movswl 0x2(%rdx),%r8d
    1f64:	8d 0c 2e             	lea    (%rsi,%rbp,1),%ecx
    1f67:	29 ee                	sub    %ebp,%esi
    1f69:	d1 f9                	sar    %ecx
    1f6b:	d1 fe                	sar    %esi
    1f6d:	66 89 08             	mov    %cx,(%rax)
    1f70:	0f bf 48 02          	movswl 0x2(%rax),%ecx
    1f74:	46 8d 0c 01          	lea    (%rcx,%r8,1),%r9d
    1f78:	44 29 c1             	sub    %r8d,%ecx
    1f7b:	41 d1 f9             	sar    %r9d
    1f7e:	d1 f9                	sar    %ecx
    1f80:	66 44 89 48 02       	mov    %r9w,0x2(%rax)
    1f85:	66 89 32             	mov    %si,(%rdx)
    1f88:	66 89 4a 02          	mov    %cx,0x2(%rdx)
    1f8c:	48 01 fa             	add    %rdi,%rdx
    1f8f:	41 83 fb 01          	cmp    $0x1,%r11d
    1f93:	74 3a                	je     1fcf <riscv_dsp_cfft_rd2_q15+0x47f>
    1f95:	48 8d 34 3a          	lea    (%rdx,%rdi,1),%rsi
    1f99:	0f bf 0a             	movswl (%rdx),%ecx
    1f9c:	44 0f bf 1e          	movswl (%rsi),%r11d
    1fa0:	44 0f bf 46 02       	movswl 0x2(%rsi),%r8d
    1fa5:	41 8d 04 0b          	lea    (%r11,%rcx,1),%eax
    1fa9:	44 29 d9             	sub    %r11d,%ecx
    1fac:	d1 f8                	sar    %eax
    1fae:	d1 f9                	sar    %ecx
    1fb0:	66 89 02             	mov    %ax,(%rdx)
    1fb3:	0f bf 42 02          	movswl 0x2(%rdx),%eax
    1fb7:	45 8d 0c 00          	lea    (%r8,%rax,1),%r9d
    1fbb:	44 29 c0             	sub    %r8d,%eax
    1fbe:	41 d1 f9             	sar    %r9d
    1fc1:	d1 f8                	sar    %eax
    1fc3:	66 44 89 4a 02       	mov    %r9w,0x2(%rdx)
    1fc8:	66 89 0e             	mov    %cx,(%rsi)
    1fcb:	66 89 46 02          	mov    %ax,0x2(%rsi)
    1fcf:	48 8b 44 24 e0       	mov    -0x20(%rsp),%rax
    1fd4:	48 8b 74 24 c8       	mov    -0x38(%rsp),%rsi
    1fd9:	49 c1 e2 02          	shl    $0x2,%r10
    1fdd:	31 ed                	xor    %ebp,%ebp
    1fdf:	49 89 c3             	mov    %rax,%r11
    1fe2:	48 39 f0             	cmp    %rsi,%rax
    1fe5:	0f 84 b0 00 00 00    	je     209b <riscv_dsp_cfft_rd2_q15+0x54b>
    1feb:	0f 1f 44 00 00       	nopl   0x0(%rax,%rax,1)
    1ff0:	0f b6 4c 24 d4       	movzbl -0x2c(%rsp),%ecx
    1ff5:	01 dd                	add    %ebx,%ebp
    1ff7:	44 89 ea             	mov    %r13d,%edx
    1ffa:	89 e8                	mov    %ebp,%eax
    1ffc:	d3 e0                	shl    %cl,%eax
    1ffe:	29 c2                	sub    %eax,%edx
    2000:	85 d2                	test   %edx,%edx
    2002:	0f 8e 20 04 00 00    	jle    2428 <riscv_dsp_cfft_rd2_q15+0x8d8>
    2008:	48 98                	cltq   
    200a:	48 63 d2             	movslq %edx,%rdx
    200d:	45 0f b7 0c 44       	movzwl (%r12,%rax,2),%r9d
    2012:	45 0f b7 34 54       	movzwl (%r12,%rdx,2),%r14d
    2017:	85 db                	test   %ebx,%ebx
    2019:	74 71                	je     208c <riscv_dsp_cfft_rd2_q15+0x53c>
    201b:	45 0f bf c9          	movswl %r9w,%r9d
    201f:	45 0f bf f6          	movswl %r14w,%r14d
    2023:	4c 89 d8             	mov    %r11,%rax
    2026:	41 89 d8             	mov    %ebx,%r8d
    2029:	0f 1f 80 00 00 00 00 	nopl   0x0(%rax)
    2030:	0f bf 10             	movswl (%rax),%edx
    2033:	0f bf 0c 38          	movswl (%rax,%rdi,1),%ecx
    2037:	44 0f bf 7c 38 02    	movswl 0x2(%rax,%rdi,1),%r15d
    203d:	89 d6                	mov    %edx,%esi
    203f:	01 ca                	add    %ecx,%edx
    2041:	29 ce                	sub    %ecx,%esi
    2043:	0f bf 48 02          	movswl 0x2(%rax),%ecx
    2047:	d1 fa                	sar    %edx
    2049:	66 89 10             	mov    %dx,(%rax)
    204c:	89 ca                	mov    %ecx,%edx
    204e:	44 01 f9             	add    %r15d,%ecx
    2051:	44 29 fa             	sub    %r15d,%edx
    2054:	d1 f9                	sar    %ecx
    2056:	66 89 48 02          	mov    %cx,0x2(%rax)
    205a:	41 89 d7             	mov    %edx,%r15d
    205d:	41 0f af d1          	imul   %r9d,%edx
    2061:	89 f1                	mov    %esi,%ecx
    2063:	41 0f af c9          	imul   %r9d,%ecx
    2067:	45 0f af fe          	imul   %r14d,%r15d
    206b:	41 0f af f6          	imul   %r14d,%esi
    206f:	44 01 f9             	add    %r15d,%ecx
    2072:	29 f2                	sub    %esi,%edx
    2074:	c1 f9 10             	sar    $0x10,%ecx
    2077:	c1 fa 10             	sar    $0x10,%edx
    207a:	66 89 0c 38          	mov    %cx,(%rax,%rdi,1)
    207e:	66 89 54 38 02       	mov    %dx,0x2(%rax,%rdi,1)
    2083:	4c 01 d0             	add    %r10,%rax
    2086:	41 83 e8 01          	sub    $0x1,%r8d
    208a:	75 a4                	jne    2030 <riscv_dsp_cfft_rd2_q15+0x4e0>
    208c:	49 83 c3 04          	add    $0x4,%r11
    2090:	4c 39 5c 24 c8       	cmp    %r11,-0x38(%rsp)
    2095:	0f 85 55 ff ff ff    	jne    1ff0 <riscv_dsp_cfft_rd2_q15+0x4a0>
    209b:	01 db                	add    %ebx,%ebx
    209d:	83 6c 24 ec 01       	subl   $0x1,-0x14(%rsp)
    20a2:	0f 85 98 fc ff ff    	jne    1d40 <riscv_dsp_cfft_rd2_q15+0x1f0>
    20a8:	0f b6 4c 24 f0       	movzbl -0x10(%rsp),%ecx
    20ad:	b8 02 00 00 00       	mov    $0x2,%eax
    20b2:	d3 e0                	shl    %cl,%eax
    20b4:	48 8d 34 00          	lea    (%rax,%rax,1),%rsi
    20b8:	48 8b 44 24 d8       	mov    -0x28(%rsp),%rax
    20bd:	48 8d 14 30          	lea    (%rax,%rsi,1),%rdx
    20c1:	48 39 d0             	cmp    %rdx,%rax
    20c4:	0f 84 b3 00 00 00    	je     217d <riscv_dsp_cfft_rd2_q15+0x62d>
    20ca:	48 29 c2             	sub    %rax,%rdx
    20cd:	66 0f ef e4          	pxor   %xmm4,%xmm4
    20d1:	48 8d 4a f0          	lea    -0x10(%rdx),%rcx
    20d5:	31 d2                	xor    %edx,%edx
    20d7:	48 c1 e9 04          	shr    $0x4,%rcx
    20db:	48 83 c1 01          	add    $0x1,%rcx
    20df:	90                   	nop
    20e0:	f3 0f 6f 28          	movdqu (%rax),%xmm5
    20e4:	66 0f 6f cc          	movdqa %xmm4,%xmm1
    20e8:	66 0f 6f f4          	movdqa %xmm4,%xmm6
    20ec:	48 83 c2 01          	add    $0x1,%rdx
    20f0:	48 83 c0 10          	add    $0x10,%rax
    20f4:	66 0f 70 c5 a0       	pshufd $0xa0,%xmm5,%xmm0
    20f9:	66 0f 65 c8          	pcmpgtw %xmm0,%xmm1
    20fd:	66 0f 6f d8          	movdqa %xmm0,%xmm3
    2101:	66 0f 6f d0          	movdqa %xmm0,%xmm2
    2105:	66 0f 70 c5 f5       	pshufd $0xf5,%xmm5,%xmm0
    210a:	66 0f 65 f0          	pcmpgtw %xmm0,%xmm6
    210e:	66 0f 6f e8          	movdqa %xmm0,%xmm5
    2112:	66 0f 61 d9          	punpcklwd %xmm1,%xmm3
    2116:	66 0f 69 d1          	punpckhwd %xmm1,%xmm2
    211a:	66 0f 6f c8          	movdqa %xmm0,%xmm1
    211e:	66 0f 6f c3          	movdqa %xmm3,%xmm0
    2122:	66 0f 61 ee          	punpcklwd %xmm6,%xmm5
    2126:	66 0f 69 ce          	punpckhwd %xmm6,%xmm1
    212a:	66 0f fa dd          	psubd  %xmm5,%xmm3
    212e:	66 0f fe c5          	paddd  %xmm5,%xmm0
    2132:	0f c6 c3 e4          	shufps $0xe4,%xmm3,%xmm0
    2136:	66 0f 6f da          	movdqa %xmm2,%xmm3
    213a:	66 0f fa d1          	psubd  %xmm1,%xmm2
    213e:	66 0f fe d9          	paddd  %xmm1,%xmm3
    2142:	66 0f 72 e0 01       	psrad  $0x1,%xmm0
    2147:	0f c6 da e4          	shufps $0xe4,%xmm2,%xmm3
    214b:	66 0f 6f cb          	movdqa %xmm3,%xmm1
    214f:	66 0f 6f d0          	movdqa %xmm0,%xmm2
    2153:	66 0f 72 e1 01       	psrad  $0x1,%xmm1
    2158:	66 0f 61 c1          	punpcklwd %xmm1,%xmm0
    215c:	66 0f 69 d1          	punpckhwd %xmm1,%xmm2
    2160:	66 0f 6f c8          	movdqa %xmm0,%xmm1
    2164:	66 0f 61 c2          	punpcklwd %xmm2,%xmm0
    2168:	66 0f 69 ca          	punpckhwd %xmm2,%xmm1
    216c:	66 0f 61 c1          	punpcklwd %xmm1,%xmm0
    2170:	0f 11 40 f0          	movups %xmm0,-0x10(%rax)
    2174:	48 39 ca             	cmp    %rcx,%rdx
    2177:	0f 82 63 ff ff ff    	jb     20e0 <riscv_dsp_cfft_rd2_q15+0x590>
    217d:	48 8b 44 24 d8       	mov    -0x28(%rsp),%rax
    2182:	8b 5c 24 f4          	mov    -0xc(%rsp),%ebx
    2186:	0f b7 48 04          	movzwl 0x4(%rax),%ecx
    218a:	48 8d 7c 30 fe       	lea    -0x2(%rax,%rsi,1),%rdi
    218f:	48 89 c6             	mov    %rax,%rsi
    2192:	89 d8                	mov    %ebx,%eax
    2194:	83 e0 fe             	and    $0xfffffffe,%eax
    2197:	41 89 db             	mov    %ebx,%r11d
    219a:	89 c2                	mov    %eax,%edx
    219c:	41 d1 eb             	shr    %r11d
    219f:	83 c0 01             	add    $0x1,%eax
    21a2:	48 8d 14 56          	lea    (%rsi,%rdx,2),%rdx
    21a6:	45 89 d9             	mov    %r11d,%r9d
    21a9:	41 89 db             	mov    %ebx,%r11d
    21ac:	48 89 f3             	mov    %rsi,%rbx
    21af:	0f b7 32             	movzwl (%rdx),%esi
    21b2:	48 8d 04 43          	lea    (%rbx,%rax,2),%rax
    21b6:	66 89 73 04          	mov    %si,0x4(%rbx)
    21ba:	48 89 de             	mov    %rbx,%rsi
    21bd:	66 89 0a             	mov    %cx,(%rdx)
    21c0:	0f b7 53 06          	movzwl 0x6(%rbx),%edx
    21c4:	0f b7 08             	movzwl (%rax),%ecx
    21c7:	66 89 4b 06          	mov    %cx,0x6(%rbx)
    21cb:	44 89 cb             	mov    %r9d,%ebx
    21ce:	b9 04 00 00 00       	mov    $0x4,%ecx
    21d3:	66 89 10             	mov    %dx,(%rax)
    21d6:	44 89 d8             	mov    %r11d,%eax
    21d9:	41 c1 eb 02          	shr    $0x2,%r11d
    21dd:	ba 04 00 00 00       	mov    $0x4,%edx
    21e2:	44 31 db             	xor    %r11d,%ebx
    21e5:	45 89 da             	mov    %r11d,%r10d
    21e8:	41 89 c3             	mov    %eax,%r11d
    21eb:	44 89 c8             	mov    %r9d,%eax
    21ee:	41 c1 eb 03          	shr    $0x3,%r11d
    21f2:	44 89 dd             	mov    %r11d,%ebp
    21f5:	31 dd                	xor    %ebx,%ebp
    21f7:	89 6c 24 c8          	mov    %ebp,-0x38(%rsp)
    21fb:	0f 1f 44 00 00       	nopl   0x0(%rax,%rax,1)
    2200:	31 d8                	xor    %ebx,%eax
    2202:	41 85 c2             	test   %eax,%r10d
    2205:	75 14                	jne    221b <riscv_dsp_cfft_rd2_q15+0x6cb>
    2207:	45 89 d0             	mov    %r10d,%r8d
    220a:	66 0f 1f 44 00 00    	nopw   0x0(%rax,%rax,1)
    2210:	41 d1 e8             	shr    %r8d
    2213:	44 31 c0             	xor    %r8d,%eax
    2216:	41 85 c0             	test   %eax,%r8d
    2219:	74 f5                	je     2210 <riscv_dsp_cfft_rd2_q15+0x6c0>
    221b:	44 8d 41 fe          	lea    -0x2(%rcx),%r8d
    221f:	44 39 c0             	cmp    %r8d,%eax
    2222:	0f 86 97 00 00 00    	jbe    22bf <riscv_dsp_cfft_rd2_q15+0x76f>
    2228:	41 89 d0             	mov    %edx,%r8d
    222b:	8d 2c 00             	lea    (%rax,%rax,1),%ebp
    222e:	4e 8d 24 46          	lea    (%rsi,%r8,2),%r12
    2232:	49 89 e8             	mov    %rbp,%r8
    2235:	48 8d 2c 6e          	lea    (%rsi,%rbp,2),%rbp
    2239:	45 0f b7 2c 24       	movzwl (%r12),%r13d
    223e:	44 0f b7 75 00       	movzwl 0x0(%rbp),%r14d
    2243:	41 83 c0 01          	add    $0x1,%r8d
    2247:	4e 8d 04 46          	lea    (%rsi,%r8,2),%r8
    224b:	66 45 89 34 24       	mov    %r14w,(%r12)
    2250:	66 44 89 6d 00       	mov    %r13w,0x0(%rbp)
    2255:	8d 6a 01             	lea    0x1(%rdx),%ebp
    2258:	45 0f b7 28          	movzwl (%r8),%r13d
    225c:	48 8d 2c 6e          	lea    (%rsi,%rbp,2),%rbp
    2260:	44 0f b7 65 00       	movzwl 0x0(%rbp),%r12d
    2265:	66 44 89 6d 00       	mov    %r13w,0x0(%rbp)
    226a:	89 d5                	mov    %edx,%ebp
    226c:	f7 dd                	neg    %ebp
    226e:	66 45 89 20          	mov    %r12w,(%r8)
    2272:	41 89 c0             	mov    %eax,%r8d
    2275:	48 63 ed             	movslq %ebp,%rbp
    2278:	41 f7 d8             	neg    %r8d
    227b:	48 01 ed             	add    %rbp,%rbp
    227e:	45 01 c0             	add    %r8d,%r8d
    2281:	4c 8d 2c 2f          	lea    (%rdi,%rbp,1),%r13
    2285:	48 8d 6c 2f fe       	lea    -0x2(%rdi,%rbp,1),%rbp
    228a:	4d 63 c0             	movslq %r8d,%r8
    228d:	45 0f b7 75 00       	movzwl 0x0(%r13),%r14d
    2292:	4d 01 c0             	add    %r8,%r8
    2295:	4e 8d 24 07          	lea    (%rdi,%r8,1),%r12
    2299:	4e 8d 44 07 fe       	lea    -0x2(%rdi,%r8,1),%r8
    229e:	45 0f b7 3c 24       	movzwl (%r12),%r15d
    22a3:	66 45 89 7d 00       	mov    %r15w,0x0(%r13)
    22a8:	66 45 89 34 24       	mov    %r14w,(%r12)
    22ad:	44 0f b7 65 00       	movzwl 0x0(%rbp),%r12d
    22b2:	45 0f b7 28          	movzwl (%r8),%r13d
    22b6:	66 44 89 6d 00       	mov    %r13w,0x0(%rbp)
    22bb:	66 45 89 20          	mov    %r12w,(%r8)
    22bf:	44 01 c8             	add    %r9d,%eax
    22c2:	44 8d 42 02          	lea    0x2(%rdx),%r8d
    22c6:	8d 2c 00             	lea    (%rax,%rax,1),%ebp
    22c9:	4e 8d 24 46          	lea    (%rsi,%r8,2),%r12
    22cd:	49 89 e8             	mov    %rbp,%r8
    22d0:	48 8d 2c 6e          	lea    (%rsi,%rbp,2),%rbp
    22d4:	45 0f b7 2c 24       	movzwl (%r12),%r13d
    22d9:	44 0f b7 75 00       	movzwl 0x0(%rbp),%r14d
    22de:	41 83 c0 01          	add    $0x1,%r8d
    22e2:	4e 8d 04 46          	lea    (%rsi,%r8,2),%r8
    22e6:	66 45 89 34 24       	mov    %r14w,(%r12)
    22eb:	66 44 89 6d 00       	mov    %r13w,0x0(%rbp)
    22f0:	8d 6a 03             	lea    0x3(%rdx),%ebp
    22f3:	45 0f b7 28          	movzwl (%r8),%r13d
    22f7:	48 8d 2c 6e          	lea    (%rsi,%rbp,2),%rbp
    22fb:	44 0f b7 65 00       	movzwl 0x0(%rbp),%r12d
    2300:	66 44 89 6d 00       	mov    %r13w,0x0(%rbp)
    2305:	66 45 89 20          	mov    %r12w,(%r8)
    2309:	41 39 c9             	cmp    %ecx,%r9d
    230c:	0f 86 c4 01 00 00    	jbe    24d6 <riscv_dsp_cfft_rd2_q15+0x986>
    2312:	33 44 24 c8          	xor    -0x38(%rsp),%eax
    2316:	41 85 c3             	test   %eax,%r11d
    2319:	75 10                	jne    232b <riscv_dsp_cfft_rd2_q15+0x7db>
    231b:	45 89 d8             	mov    %r11d,%r8d
    231e:	66 90                	xchg   %ax,%ax
    2320:	41 d1 e8             	shr    %r8d
    2323:	44 31 c0             	xor    %r8d,%eax
    2326:	41 85 c0             	test   %eax,%r8d
    2329:	74 f5                	je     2320 <riscv_dsp_cfft_rd2_q15+0x7d0>
    232b:	39 c8                	cmp    %ecx,%eax
    232d:	0f 86 9b 00 00 00    	jbe    23ce <riscv_dsp_cfft_rd2_q15+0x87e>
    2333:	44 8d 42 04          	lea    0x4(%rdx),%r8d
    2337:	8d 2c 00             	lea    (%rax,%rax,1),%ebp
    233a:	4e 8d 24 46          	lea    (%rsi,%r8,2),%r12
    233e:	49 89 e8             	mov    %rbp,%r8
    2341:	48 8d 2c 6e          	lea    (%rsi,%rbp,2),%rbp
    2345:	45 0f b7 2c 24       	movzwl (%r12),%r13d
    234a:	44 0f b7 75 00       	movzwl 0x0(%rbp),%r14d
    234f:	41 83 c0 01          	add    $0x1,%r8d
    2353:	4e 8d 04 46          	lea    (%rsi,%r8,2),%r8
    2357:	66 45 89 34 24       	mov    %r14w,(%r12)
    235c:	66 44 89 6d 00       	mov    %r13w,0x0(%rbp)
    2361:	8d 6a 05             	lea    0x5(%rdx),%ebp
    2364:	45 0f b7 28          	movzwl (%r8),%r13d
    2368:	48 8d 2c 6e          	lea    (%rsi,%rbp,2),%rbp
    236c:	44 0f b7 65 00       	movzwl 0x0(%rbp),%r12d
    2371:	66 44 89 6d 00       	mov    %r13w,0x0(%rbp)
    2376:	bd fc ff ff ff       	mov    $0xfffffffc,%ebp
    237b:	29 d5                	sub    %edx,%ebp
    237d:	66 45 89 20          	mov    %r12w,(%r8)
    2381:	41 89 c0             	mov    %eax,%r8d
    2384:	48 63 ed             	movslq %ebp,%rbp
    2387:	41 f7 d8             	neg    %r8d
    238a:	48 01 ed             	add    %rbp,%rbp
    238d:	45 01 c0             	add    %r8d,%r8d
    2390:	4c 8d 2c 2f          	lea    (%rdi,%rbp,1),%r13
    2394:	48 8d 6c 2f fe       	lea    -0x2(%rdi,%rbp,1),%rbp
    2399:	4d 63 c0             	movslq %r8d,%r8
    239c:	45 0f b7 75 00       	movzwl 0x0(%r13),%r14d
    23a1:	4d 01 c0             	add    %r8,%r8
    23a4:	4e 8d 24 07          	lea    (%rdi,%r8,1),%r12
    23a8:	4e 8d 44 07 fe       	lea    -0x2(%rdi,%r8,1),%r8
    23ad:	45 0f b7 3c 24       	movzwl (%r12),%r15d
    23b2:	66 45 89 7d 00       	mov    %r15w,0x0(%r13)
    23b7:	66 45 89 34 24       	mov    %r14w,(%r12)
    23bc:	44 0f b7 65 00       	movzwl 0x0(%rbp),%r12d
    23c1:	45 0f b7 28          	movzwl (%r8),%r13d
    23c5:	66 44 89 6d 00       	mov    %r13w,0x0(%rbp)
    23ca:	66 45 89 20          	mov    %r12w,(%r8)
    23ce:	44 01 c8             	add    %r9d,%eax
    23d1:	44 8d 42 06          	lea    0x6(%rdx),%r8d
    23d5:	83 c1 04             	add    $0x4,%ecx
    23d8:	8d 2c 00             	lea    (%rax,%rax,1),%ebp
    23db:	4e 8d 24 46          	lea    (%rsi,%r8,2),%r12
    23df:	49 89 e8             	mov    %rbp,%r8
    23e2:	48 8d 2c 6e          	lea    (%rsi,%rbp,2),%rbp
    23e6:	45 0f b7 2c 24       	movzwl (%r12),%r13d
    23eb:	44 0f b7 75 00       	movzwl 0x0(%rbp),%r14d
    23f0:	41 83 c0 01          	add    $0x1,%r8d
    23f4:	4e 8d 04 46          	lea    (%rsi,%r8,2),%r8
    23f8:	66 45 89 34 24       	mov    %r14w,(%r12)
    23fd:	66 44 89 6d 00       	mov    %r13w,0x0(%rbp)
    2402:	8d 6a 07             	lea    0x7(%rdx),%ebp
    2405:	45 0f b7 28          	movzwl (%r8),%r13d
    2409:	83 c2 08             	add    $0x8,%edx
    240c:	48 8d 2c 6e          	lea    (%rsi,%rbp,2),%rbp
    2410:	44 0f b7 65 00       	movzwl 0x0(%rbp),%r12d
    2415:	66 44 89 6d 00       	mov    %r13w,0x0(%rbp)
    241a:	66 45 89 20          	mov    %r12w,(%r8)
    241e:	e9 dd fd ff ff       	jmp    2200 <riscv_dsp_cfft_rd2_q15+0x6b0>
    2423:	0f 1f 44 00 00       	nopl   0x0(%rax,%rax,1)
    2428:	8d 90 00 ff ff ff    	lea    -0x100(%rax),%edx
    242e:	44 89 e9             	mov    %r13d,%ecx
    2431:	29 d1                	sub    %edx,%ecx
    2433:	85 c9                	test   %ecx,%ecx
    2435:	7e 19                	jle    2450 <riscv_dsp_cfft_rd2_q15+0x900>
    2437:	48 63 c9             	movslq %ecx,%rcx
    243a:	48 63 d2             	movslq %edx,%rdx
    243d:	45 0f b7 0c 4c       	movzwl (%r12,%rcx,2),%r9d
    2442:	45 0f b7 34 54       	movzwl (%r12,%rdx,2),%r14d
    2447:	41 f7 d9             	neg    %r9d
    244a:	e9 c8 fb ff ff       	jmp    2017 <riscv_dsp_cfft_rd2_q15+0x4c7>
    244f:	90                   	nop
    2450:	2d 00 02 00 00       	sub    $0x200,%eax
    2455:	44 89 ea             	mov    %r13d,%edx
    2458:	29 c2                	sub    %eax,%edx
    245a:	48 98                	cltq   
    245c:	45 0f b7 34 44       	movzwl (%r12,%rax,2),%r14d
    2461:	48 63 ca             	movslq %edx,%rcx
    2464:	45 0f b7 0c 4c       	movzwl (%r12,%rcx,2),%r9d
    2469:	41 f7 de             	neg    %r14d
    246c:	85 d2                	test   %edx,%edx
    246e:	0f 8e a3 fb ff ff    	jle    2017 <riscv_dsp_cfft_rd2_q15+0x4c7>
    2474:	44 89 c8             	mov    %r9d,%eax
    2477:	45 89 f1             	mov    %r14d,%r9d
    247a:	f7 d8                	neg    %eax
    247c:	41 89 c6             	mov    %eax,%r14d
    247f:	e9 93 fb ff ff       	jmp    2017 <riscv_dsp_cfft_rd2_q15+0x4c7>
    2484:	48 8b 54 24 d8       	mov    -0x28(%rsp),%rdx
    2489:	41 89 db             	mov    %ebx,%r11d
    248c:	0f 1f 40 00          	nopl   0x0(%rax)
    2490:	0f bf 32             	movswl (%rdx),%esi
    2493:	0f bf 2c 3a          	movswl (%rdx,%rdi,1),%ebp
    2497:	44 0f bf 44 3a 02    	movswl 0x2(%rdx,%rdi,1),%r8d
    249d:	8d 4c 35 00          	lea    0x0(%rbp,%rsi,1),%ecx
    24a1:	29 ee                	sub    %ebp,%esi
    24a3:	d1 f9                	sar    %ecx
    24a5:	d1 fe                	sar    %esi
    24a7:	66 89 0a             	mov    %cx,(%rdx)
    24aa:	0f bf 4a 02          	movswl 0x2(%rdx),%ecx
    24ae:	45 8d 0c 08          	lea    (%r8,%rcx,1),%r9d
    24b2:	44 29 c1             	sub    %r8d,%ecx
    24b5:	41 d1 f9             	sar    %r9d
    24b8:	d1 f9                	sar    %ecx
    24ba:	66 44 89 4a 02       	mov    %r9w,0x2(%rdx)
    24bf:	66 89 34 3a          	mov    %si,(%rdx,%rdi,1)
    24c3:	66 89 4c 3a 02       	mov    %cx,0x2(%rdx,%rdi,1)
    24c8:	48 01 c2             	add    %rax,%rdx
    24cb:	41 83 eb 01          	sub    $0x1,%r11d
    24cf:	75 bf                	jne    2490 <riscv_dsp_cfft_rd2_q15+0x940>
    24d1:	e9 f9 fa ff ff       	jmp    1fcf <riscv_dsp_cfft_rd2_q15+0x47f>
    24d6:	5b                   	pop    %rbx
    24d7:	31 c0                	xor    %eax,%eax
    24d9:	5d                   	pop    %rbp
    24da:	41 5c                	pop    %r12
    24dc:	41 5d                	pop    %r13
    24de:	41 5e                	pop    %r14
    24e0:	41 5f                	pop    %r15
    24e2:	c3                   	ret    
    24e3:	66 2e 0f 1f 84 00 00 	cs nopw 0x0(%rax,%rax,1)
    24ea:	00 00 00 
    24ed:	0f 1f 00             	nopl   (%rax)

00000000000024f0 <riscv_dsp_cifft_rd2_q15>:
    24f0:	f3 0f 1e fa          	endbr64 
    24f4:	89 f1                	mov    %esi,%ecx
    24f6:	b8 01 00 00 00       	mov    $0x1,%eax
    24fb:	41 57                	push   %r15
    24fd:	d3 e0                	shl    %cl,%eax
    24ff:	41 56                	push   %r14
    2501:	41 89 c1             	mov    %eax,%r9d
    2504:	41 55                	push   %r13
    2506:	41 54                	push   %r12
    2508:	4d 01 c9             	add    %r9,%r9
    250b:	55                   	push   %rbp
    250c:	4e 8d 2c 0f          	lea    (%rdi,%r9,1),%r13
    2510:	53                   	push   %rbx
    2511:	48 89 fb             	mov    %rdi,%rbx
    2514:	0f b7 17             	movzwl (%rdi),%edx
    2517:	48 89 7c 24 d8       	mov    %rdi,-0x28(%rsp)
    251c:	89 74 24 f0          	mov    %esi,-0x10(%rsp)
    2520:	0f b7 77 02          	movzwl 0x2(%rdi),%esi
    2524:	41 0f b7 7d 00       	movzwl 0x0(%r13),%edi
    2529:	89 44 24 f4          	mov    %eax,-0xc(%rsp)
    252d:	41 0f b7 45 02       	movzwl 0x2(%r13),%eax
    2532:	8d 0c 3a             	lea    (%rdx,%rdi,1),%ecx
    2535:	29 fa                	sub    %edi,%edx
    2537:	66 89 0b             	mov    %cx,(%rbx)
    253a:	8d 0c 30             	lea    (%rax,%rsi,1),%ecx
    253d:	29 f0                	sub    %esi,%eax
    253f:	f7 d9                	neg    %ecx
    2541:	66 89 4b 02          	mov    %cx,0x2(%rbx)
    2545:	66 41 89 45 02       	mov    %ax,0x2(%r13)
    254a:	48 8d 43 04          	lea    0x4(%rbx),%rax
    254e:	66 41 89 55 00       	mov    %dx,0x0(%r13)
    2553:	48 89 44 24 e0       	mov    %rax,-0x20(%rsp)
    2558:	49 39 c5             	cmp    %rax,%r13
    255b:	0f 84 11 01 00 00    	je     2672 <riscv_dsp_cifft_rd2_q15+0x182>
    2561:	48 89 c2             	mov    %rax,%rdx
    2564:	b8 0a 00 00 00       	mov    $0xa,%eax
    2569:	2b 44 24 f0          	sub    -0x10(%rsp),%eax
    256d:	45 31 d2             	xor    %r10d,%r10d
    2570:	48 8d 2d 6d 50 00 00 	lea    0x506d(%rip),%rbp        # 75e4 <riscv_dsp_cos_table_q15_1024+0x4>
    2577:	41 bc 00 01 00 00    	mov    $0x100,%r12d
    257d:	89 c1                	mov    %eax,%ecx
    257f:	eb 7e                	jmp    25ff <riscv_dsp_cifft_rd2_q15+0x10f>
    2581:	48 98                	cltq   
    2583:	48 63 ff             	movslq %edi,%rdi
    2586:	0f b7 74 45 00       	movzwl 0x0(%rbp,%rax,2),%esi
    258b:	44 0f b7 5c 7d 00    	movzwl 0x0(%rbp,%rdi,2),%r11d
    2591:	0f bf 3a             	movswl (%rdx),%edi
    2594:	46 0f bf 3c 0a       	movswl (%rdx,%r9,1),%r15d
    2599:	45 0f bf db          	movswl %r11w,%r11d
    259d:	48 83 c2 04          	add    $0x4,%rdx
    25a1:	0f b7 5a fe          	movzwl -0x2(%rdx),%ebx
    25a5:	42 0f b7 44 0a fe    	movzwl -0x2(%rdx,%r9,1),%eax
    25ab:	41 89 f8             	mov    %edi,%r8d
    25ae:	44 29 ff             	sub    %r15d,%edi
    25b1:	45 01 f8             	add    %r15d,%r8d
    25b4:	44 0f bf f3          	movswl %bx,%r14d
    25b8:	66 44 89 42 fc       	mov    %r8w,-0x4(%rdx)
    25bd:	44 0f bf c0          	movswl %ax,%r8d
    25c1:	01 d8                	add    %ebx,%eax
    25c3:	44 89 db             	mov    %r11d,%ebx
    25c6:	f7 d8                	neg    %eax
    25c8:	44 0f af df          	imul   %edi,%r11d
    25cc:	45 29 f0             	sub    %r14d,%r8d
    25cf:	66 89 42 fe          	mov    %ax,-0x2(%rdx)
    25d3:	0f bf c6             	movswl %si,%eax
    25d6:	41 0f af d8          	imul   %r8d,%ebx
    25da:	89 c6                	mov    %eax,%esi
    25dc:	41 0f af c0          	imul   %r8d,%eax
    25e0:	0f af f7             	imul   %edi,%esi
    25e3:	44 29 d8             	sub    %r11d,%eax
    25e6:	01 de                	add    %ebx,%esi
    25e8:	c1 f8 0f             	sar    $0xf,%eax
    25eb:	c1 fe 0f             	sar    $0xf,%esi
    25ee:	66 42 89 44 0a fe    	mov    %ax,-0x2(%rdx,%r9,1)
    25f4:	66 42 89 74 0a fc    	mov    %si,-0x4(%rdx,%r9,1)
    25fa:	49 39 d5             	cmp    %rdx,%r13
    25fd:	74 73                	je     2672 <riscv_dsp_cifft_rd2_q15+0x182>
    25ff:	41 83 c2 01          	add    $0x1,%r10d
    2603:	44 89 e7             	mov    %r12d,%edi
    2606:	44 89 d0             	mov    %r10d,%eax
    2609:	d3 e0                	shl    %cl,%eax
    260b:	29 c7                	sub    %eax,%edi
    260d:	85 ff                	test   %edi,%edi
    260f:	0f 8f 6c ff ff ff    	jg     2581 <riscv_dsp_cifft_rd2_q15+0x91>
    2615:	8d b8 00 ff ff ff    	lea    -0x100(%rax),%edi
    261b:	44 89 e6             	mov    %r12d,%esi
    261e:	29 fe                	sub    %edi,%esi
    2620:	85 f6                	test   %esi,%esi
    2622:	7e 1a                	jle    263e <riscv_dsp_cifft_rd2_q15+0x14e>
    2624:	48 63 f6             	movslq %esi,%rsi
    2627:	48 63 ff             	movslq %edi,%rdi
    262a:	0f b7 44 75 00       	movzwl 0x0(%rbp,%rsi,2),%eax
    262f:	44 0f b7 5c 7d 00    	movzwl 0x0(%rbp,%rdi,2),%r11d
    2635:	f7 d8                	neg    %eax
    2637:	89 c6                	mov    %eax,%esi
    2639:	e9 53 ff ff ff       	jmp    2591 <riscv_dsp_cifft_rd2_q15+0xa1>
    263e:	2d 00 02 00 00       	sub    $0x200,%eax
    2643:	44 89 e7             	mov    %r12d,%edi
    2646:	29 c7                	sub    %eax,%edi
    2648:	48 98                	cltq   
    264a:	44 0f b7 5c 45 00    	movzwl 0x0(%rbp,%rax,2),%r11d
    2650:	48 63 f7             	movslq %edi,%rsi
    2653:	0f b7 74 75 00       	movzwl 0x0(%rbp,%rsi,2),%esi
    2658:	41 f7 db             	neg    %r11d
    265b:	85 ff                	test   %edi,%edi
    265d:	0f 8e 2e ff ff ff    	jle    2591 <riscv_dsp_cifft_rd2_q15+0xa1>
    2663:	89 f0                	mov    %esi,%eax
    2665:	44 89 de             	mov    %r11d,%esi
    2668:	f7 d8                	neg    %eax
    266a:	41 89 c3             	mov    %eax,%r11d
    266d:	e9 1f ff ff ff       	jmp    2591 <riscv_dsp_cifft_rd2_q15+0xa1>
    2672:	8b 44 24 f4          	mov    -0xc(%rsp),%eax
    2676:	8b 5c 24 f0          	mov    -0x10(%rsp),%ebx
    267a:	41 be 02 00 00 00    	mov    $0x2,%r14d
    2680:	89 44 24 c8          	mov    %eax,-0x38(%rsp)
    2684:	89 d8                	mov    %ebx,%eax
    2686:	83 e8 02             	sub    $0x2,%eax
    2689:	89 44 24 ec          	mov    %eax,-0x14(%rsp)
    268d:	0f 84 e9 02 00 00    	je     297c <riscv_dsp_cifft_rd2_q15+0x48c>
    2693:	b8 0a 00 00 00       	mov    $0xa,%eax
    2698:	29 d8                	sub    %ebx,%eax
    269a:	89 44 24 b8          	mov    %eax,-0x48(%rsp)
    269e:	66 90                	xchg   %ax,%ax
    26a0:	d1 6c 24 c8          	shrl   -0x38(%rsp)
    26a4:	8b 6c 24 c8          	mov    -0x38(%rsp),%ebp
    26a8:	48 8b 44 24 d8       	mov    -0x28(%rsp),%rax
    26ad:	48 8d 7c 2d 00       	lea    0x0(%rbp,%rbp,1),%rdi
    26b2:	48 01 f8             	add    %rdi,%rax
    26b5:	48 89 44 24 a8       	mov    %rax,-0x58(%rsp)
    26ba:	45 85 f6             	test   %r14d,%r14d
    26bd:	0f 84 d5 01 00 00    	je     2898 <riscv_dsp_cifft_rd2_q15+0x3a8>
    26c3:	48 8d 04 ad 00 00 00 	lea    0x0(,%rbp,4),%rax
    26ca:	00 
    26cb:	48 8d 34 2f          	lea    (%rdi,%rbp,1),%rsi
    26cf:	48 c1 e6 02          	shl    $0x2,%rsi
    26d3:	48 83 f8 03          	cmp    $0x3,%rax
    26d7:	0f 97 c1             	seta   %cl
    26da:	48 85 ff             	test   %rdi,%rdi
    26dd:	0f 95 c2             	setne  %dl
    26e0:	84 d1                	test   %dl,%cl
    26e2:	0f 84 82 11 00 00    	je     386a <riscv_dsp_cifft_rd2_q15+0x137a>
    26e8:	48 8d 56 02          	lea    0x2(%rsi),%rdx
    26ec:	48 39 d7             	cmp    %rdx,%rdi
    26ef:	0f 8e 75 11 00 00    	jle    386a <riscv_dsp_cifft_rd2_q15+0x137a>
    26f5:	41 8d 56 ff          	lea    -0x1(%r14),%edx
    26f9:	83 fa 02             	cmp    $0x2,%edx
    26fc:	0f 86 c3 11 00 00    	jbe    38c5 <riscv_dsp_cifft_rd2_q15+0x13d5>
    2702:	45 89 f2             	mov    %r14d,%r10d
    2705:	49 89 e9             	mov    %rbp,%r9
    2708:	48 8b 4c 24 d8       	mov    -0x28(%rsp),%rcx
    270d:	48 8b 54 24 a8       	mov    -0x58(%rsp),%rdx
    2712:	41 c1 ea 02          	shr    $0x2,%r10d
    2716:	49 c1 e1 04          	shl    $0x4,%r9
    271a:	45 31 c0             	xor    %r8d,%r8d
    271d:	0f 1f 00             	nopl   (%rax)
    2720:	66 0f 6e 3c 31       	movd   (%rcx,%rsi,1),%xmm7
    2725:	66 0f 6e 0c 41       	movd   (%rcx,%rax,2),%xmm1
    272a:	41 83 c0 01          	add    $0x1,%r8d
    272e:	66 0f 6e 01          	movd   (%rcx),%xmm0
    2732:	66 0f 6e 1c 01       	movd   (%rcx,%rax,1),%xmm3
    2737:	66 0f 62 cf          	punpckldq %xmm7,%xmm1
    273b:	66 0f 6e 24 32       	movd   (%rdx,%rsi,1),%xmm4
    2740:	66 0f 6e 12          	movd   (%rdx),%xmm2
    2744:	66 0f 62 c3          	punpckldq %xmm3,%xmm0
    2748:	66 0f 6e 3c 02       	movd   (%rdx,%rax,1),%xmm7
    274d:	66 0f 6c c1          	punpcklqdq %xmm1,%xmm0
    2751:	66 0f 6e 0c 42       	movd   (%rdx,%rax,2),%xmm1
    2756:	66 0f 62 d7          	punpckldq %xmm7,%xmm2
    275a:	66 0f 62 cc          	punpckldq %xmm4,%xmm1
    275e:	66 0f 6c d1          	punpcklqdq %xmm1,%xmm2
    2762:	66 0f 6f c8          	movdqa %xmm0,%xmm1
    2766:	66 0f fd ca          	paddw  %xmm2,%xmm1
    276a:	66 0f f9 c2          	psubw  %xmm2,%xmm0
    276e:	66 0f 70 d1 55       	pshufd $0x55,%xmm1,%xmm2
    2773:	66 0f 7e 09          	movd   %xmm1,(%rcx)
    2777:	66 0f 7e 14 01       	movd   %xmm2,(%rcx,%rax,1)
    277c:	66 0f 6f d1          	movdqa %xmm1,%xmm2
    2780:	66 0f 6a d1          	punpckhdq %xmm1,%xmm2
    2784:	66 0f 70 c9 ff       	pshufd $0xff,%xmm1,%xmm1
    2789:	66 0f 7e 14 41       	movd   %xmm2,(%rcx,%rax,2)
    278e:	66 0f 7e 0c 31       	movd   %xmm1,(%rcx,%rsi,1)
    2793:	66 0f 70 c8 55       	pshufd $0x55,%xmm0,%xmm1
    2798:	4c 01 c9             	add    %r9,%rcx
    279b:	66 0f 7e 02          	movd   %xmm0,(%rdx)
    279f:	66 0f 7e 0c 02       	movd   %xmm1,(%rdx,%rax,1)
    27a4:	66 0f 6f c8          	movdqa %xmm0,%xmm1
    27a8:	66 0f 6a c8          	punpckhdq %xmm0,%xmm1
    27ac:	66 0f 70 c0 ff       	pshufd $0xff,%xmm0,%xmm0
    27b1:	66 0f 7e 0c 42       	movd   %xmm1,(%rdx,%rax,2)
    27b6:	66 0f 7e 04 32       	movd   %xmm0,(%rdx,%rsi,1)
    27bb:	4c 01 ca             	add    %r9,%rdx
    27be:	45 39 d0             	cmp    %r10d,%r8d
    27c1:	0f 85 59 ff ff ff    	jne    2720 <riscv_dsp_cifft_rd2_q15+0x230>
    27c7:	44 89 f6             	mov    %r14d,%esi
    27ca:	48 8b 5c 24 d8       	mov    -0x28(%rsp),%rbx
    27cf:	83 e6 fc             	and    $0xfffffffc,%esi
    27d2:	89 f1                	mov    %esi,%ecx
    27d4:	48 89 ca             	mov    %rcx,%rdx
    27d7:	48 0f af d7          	imul   %rdi,%rdx
    27db:	48 8d 14 53          	lea    (%rbx,%rdx,2),%rdx
    27df:	41 39 f6             	cmp    %esi,%r14d
    27e2:	0f 84 b0 00 00 00    	je     2898 <riscv_dsp_cifft_rd2_q15+0x3a8>
    27e8:	45 89 f0             	mov    %r14d,%r8d
    27eb:	41 29 f0             	sub    %esi,%r8d
    27ee:	41 83 f8 01          	cmp    $0x1,%r8d
    27f2:	74 72                	je     2866 <riscv_dsp_cifft_rd2_q15+0x376>
    27f4:	48 0f af cf          	imul   %rdi,%rcx
    27f8:	48 8b 5c 24 d8       	mov    -0x28(%rsp),%rbx
    27fd:	48 8d 34 4b          	lea    (%rbx,%rcx,2),%rsi
    2801:	48 01 e9             	add    %rbp,%rcx
    2804:	48 8d 0c 4b          	lea    (%rbx,%rcx,2),%rcx
    2808:	4c 8d 14 06          	lea    (%rsi,%rax,1),%r10
    280c:	66 0f 6e 06          	movd   (%rsi),%xmm0
    2810:	66 41 0f 6e 1a       	movd   (%r10),%xmm3
    2815:	4c 8d 0c 01          	lea    (%rcx,%rax,1),%r9
    2819:	66 0f 6e 09          	movd   (%rcx),%xmm1
    281d:	66 41 0f 6e 21       	movd   (%r9),%xmm4
    2822:	66 0f 62 c3          	punpckldq %xmm3,%xmm0
    2826:	66 0f 62 cc          	punpckldq %xmm4,%xmm1
    282a:	66 0f 6f d0          	movdqa %xmm0,%xmm2
    282e:	66 0f fd d1          	paddw  %xmm1,%xmm2
    2832:	66 0f f9 c1          	psubw  %xmm1,%xmm0
    2836:	66 0f 7e 16          	movd   %xmm2,(%rsi)
    283a:	44 89 c6             	mov    %r8d,%esi
    283d:	66 0f 70 da e5       	pshufd $0xe5,%xmm2,%xmm3
    2842:	66 0f 70 e0 e5       	pshufd $0xe5,%xmm0,%xmm4
    2847:	83 e6 fe             	and    $0xfffffffe,%esi
    284a:	66 41 0f 7e 1a       	movd   %xmm3,(%r10)
    284f:	66 0f 7e 01          	movd   %xmm0,(%rcx)
    2853:	89 f1                	mov    %esi,%ecx
    2855:	48 0f af c1          	imul   %rcx,%rax
    2859:	66 41 0f 7e 21       	movd   %xmm4,(%r9)
    285e:	48 01 c2             	add    %rax,%rdx
    2861:	44 39 c6             	cmp    %r8d,%esi
    2864:	74 32                	je     2898 <riscv_dsp_cifft_rd2_q15+0x3a8>
    2866:	48 8d 04 3a          	lea    (%rdx,%rdi,1),%rax
    286a:	0f b7 32             	movzwl (%rdx),%esi
    286d:	0f b7 4a 02          	movzwl 0x2(%rdx),%ecx
    2871:	44 0f b7 08          	movzwl (%rax),%r9d
    2875:	44 0f b7 40 02       	movzwl 0x2(%rax),%r8d
    287a:	45 8d 14 31          	lea    (%r9,%rsi,1),%r10d
    287e:	44 29 ce             	sub    %r9d,%esi
    2881:	66 44 89 12          	mov    %r10w,(%rdx)
    2885:	45 8d 14 08          	lea    (%r8,%rcx,1),%r10d
    2889:	44 29 c1             	sub    %r8d,%ecx
    288c:	66 44 89 52 02       	mov    %r10w,0x2(%rdx)
    2891:	66 89 30             	mov    %si,(%rax)
    2894:	66 89 48 02          	mov    %cx,0x2(%rax)
    2898:	48 8b 44 24 e0       	mov    -0x20(%rsp),%rax
    289d:	48 8b 5c 24 a8       	mov    -0x58(%rsp),%rbx
    28a2:	48 c1 e5 02          	shl    $0x2,%rbp
    28a6:	45 31 ed             	xor    %r13d,%r13d
    28a9:	49 89 c4             	mov    %rax,%r12
    28ac:	48 39 d8             	cmp    %rbx,%rax
    28af:	0f 84 b9 00 00 00    	je     296e <riscv_dsp_cifft_rd2_q15+0x47e>
    28b5:	0f 1f 00             	nopl   (%rax)
    28b8:	0f b6 4c 24 b8       	movzbl -0x48(%rsp),%ecx
    28bd:	45 01 f5             	add    %r14d,%r13d
    28c0:	ba 00 01 00 00       	mov    $0x100,%edx
    28c5:	44 89 e8             	mov    %r13d,%eax
    28c8:	d3 e0                	shl    %cl,%eax
    28ca:	29 c2                	sub    %eax,%edx
    28cc:	85 d2                	test   %edx,%edx
    28ce:	0f 8e 24 0f 00 00    	jle    37f8 <riscv_dsp_cifft_rd2_q15+0x1308>
    28d4:	48 8d 1d 09 4d 00 00 	lea    0x4d09(%rip),%rbx        # 75e4 <riscv_dsp_cos_table_q15_1024+0x4>
    28db:	48 98                	cltq   
    28dd:	48 63 d2             	movslq %edx,%rdx
    28e0:	44 0f b7 1c 43       	movzwl (%rbx,%rax,2),%r11d
    28e5:	0f b7 1c 53          	movzwl (%rbx,%rdx,2),%ebx
    28e9:	45 85 f6             	test   %r14d,%r14d
    28ec:	74 71                	je     295f <riscv_dsp_cifft_rd2_q15+0x46f>
    28ee:	45 0f bf db          	movswl %r11w,%r11d
    28f2:	0f bf db             	movswl %bx,%ebx
    28f5:	4c 89 e0             	mov    %r12,%rax
    28f8:	45 89 f0             	mov    %r14d,%r8d
    28fb:	0f 1f 44 00 00       	nopl   0x0(%rax,%rax,1)
    2900:	0f bf 08             	movswl (%rax),%ecx
    2903:	44 0f bf 3c 38       	movswl (%rax,%rdi,1),%r15d
    2908:	44 0f b7 4c 38 02    	movzwl 0x2(%rax,%rdi,1),%r9d
    290e:	0f b7 70 02          	movzwl 0x2(%rax),%esi
    2912:	89 ca                	mov    %ecx,%edx
    2914:	44 29 f9             	sub    %r15d,%ecx
    2917:	44 01 fa             	add    %r15d,%edx
    291a:	45 0f bf d1          	movswl %r9w,%r10d
    291e:	66 89 10             	mov    %dx,(%rax)
    2921:	0f bf d6             	movswl %si,%edx
    2924:	44 01 ce             	add    %r9d,%esi
    2927:	44 29 d2             	sub    %r10d,%edx
    292a:	66 89 70 02          	mov    %si,0x2(%rax)
    292e:	89 ce                	mov    %ecx,%esi
    2930:	41 89 d1             	mov    %edx,%r9d
    2933:	41 0f af f3          	imul   %r11d,%esi
    2937:	44 0f af cb          	imul   %ebx,%r9d
    293b:	41 0f af d3          	imul   %r11d,%edx
    293f:	0f af cb             	imul   %ebx,%ecx
    2942:	44 01 ce             	add    %r9d,%esi
    2945:	c1 fe 0f             	sar    $0xf,%esi
    2948:	29 ca                	sub    %ecx,%edx
    294a:	66 89 34 38          	mov    %si,(%rax,%rdi,1)
    294e:	c1 fa 0f             	sar    $0xf,%edx
    2951:	66 89 54 38 02       	mov    %dx,0x2(%rax,%rdi,1)
    2956:	48 01 e8             	add    %rbp,%rax
    2959:	41 83 e8 01          	sub    $0x1,%r8d
    295d:	75 a1                	jne    2900 <riscv_dsp_cifft_rd2_q15+0x410>
    295f:	49 83 c4 04          	add    $0x4,%r12
    2963:	4c 39 64 24 a8       	cmp    %r12,-0x58(%rsp)
    2968:	0f 85 4a ff ff ff    	jne    28b8 <riscv_dsp_cifft_rd2_q15+0x3c8>
    296e:	45 01 f6             	add    %r14d,%r14d
    2971:	83 6c 24 ec 01       	subl   $0x1,-0x14(%rsp)
    2976:	0f 85 24 fd ff ff    	jne    26a0 <riscv_dsp_cifft_rd2_q15+0x1b0>
    297c:	0f b6 4c 24 f0       	movzbl -0x10(%rsp),%ecx
    2981:	b8 02 00 00 00       	mov    $0x2,%eax
    2986:	d3 e0                	shl    %cl,%eax
    2988:	4c 8d 34 00          	lea    (%rax,%rax,1),%r14
    298c:	48 8b 44 24 d8       	mov    -0x28(%rsp),%rax
    2991:	4e 8d 24 30          	lea    (%rax,%r14,1),%r12
    2995:	4c 39 e0             	cmp    %r12,%rax
    2998:	0f 84 b9 0b 00 00    	je     3557 <riscv_dsp_cifft_rd2_q15+0x1067>
    299e:	4c 89 e2             	mov    %r12,%rdx
    29a1:	48 29 c2             	sub    %rax,%rdx
    29a4:	48 83 ea 10          	sub    $0x10,%rdx
    29a8:	48 89 d1             	mov    %rdx,%rcx
    29ab:	48 c1 e9 04          	shr    $0x4,%rcx
    29af:	48 83 c1 01          	add    $0x1,%rcx
    29b3:	48 83 fa 60          	cmp    $0x60,%rdx
    29b7:	0f 86 17 0f 00 00    	jbe    38d4 <riscv_dsp_cifft_rd2_q15+0x13e4>
    29bd:	66 44 0f 6f 2d ba 47 	movdqa 0x47ba(%rip),%xmm13        # 7180 <_IO_stdin_used+0x180>
    29c4:	00 00 
    29c6:	48 89 ca             	mov    %rcx,%rdx
    29c9:	48 c1 ea 03          	shr    $0x3,%rdx
    29cd:	48 c1 e2 07          	shl    $0x7,%rdx
    29d1:	48 01 c2             	add    %rax,%rdx
    29d4:	f3 0f 6f 00          	movdqu (%rax),%xmm0
    29d8:	f3 44 0f 6f 40 10    	movdqu 0x10(%rax),%xmm8
    29de:	48 83 e8 80          	sub    $0xffffffffffffff80,%rax
    29e2:	f3 0f 6f 60 a0       	movdqu -0x60(%rax),%xmm4
    29e7:	f3 0f 6f 68 b0       	movdqu -0x50(%rax),%xmm5
    29ec:	66 0f 6f f8          	movdqa %xmm0,%xmm7
    29f0:	66 0f 6f c8          	movdqa %xmm0,%xmm1
    29f4:	f3 0f 6f 50 c0       	movdqu -0x40(%rax),%xmm2
    29f9:	66 41 0f 61 c0       	punpcklwd %xmm8,%xmm0
    29fe:	66 41 0f 61 f8       	punpcklwd %xmm8,%xmm7
    2a03:	66 41 0f 69 c8       	punpckhwd %xmm8,%xmm1
    2a08:	66 44 0f 6f c4       	movdqa %xmm4,%xmm8
    2a0d:	f3 0f 6f 70 d0       	movdqu -0x30(%rax),%xmm6
    2a12:	66 44 0f 6f d7       	movdqa %xmm7,%xmm10
    2a17:	66 44 0f 61 c5       	punpcklwd %xmm5,%xmm8
    2a1c:	66 0f 61 f9          	punpcklwd %xmm1,%xmm7
    2a20:	f3 0f 6f 58 e0       	movdqu -0x20(%rax),%xmm3
    2a25:	66 44 0f 69 d1       	punpckhwd %xmm1,%xmm10
    2a2a:	66 0f 61 c1          	punpcklwd %xmm1,%xmm0
    2a2e:	66 0f 6f cc          	movdqa %xmm4,%xmm1
    2a32:	f3 44 0f 6f 48 f0    	movdqu -0x10(%rax),%xmm9
    2a38:	66 0f 69 cd          	punpckhwd %xmm5,%xmm1
    2a3c:	66 41 0f 61 fa       	punpcklwd %xmm10,%xmm7
    2a41:	66 41 0f 69 c2       	punpckhwd %xmm10,%xmm0
    2a46:	66 0f 61 e5          	punpcklwd %xmm5,%xmm4
    2a4a:	66 45 0f 6f d0       	movdqa %xmm8,%xmm10
    2a4f:	66 0f 6f ea          	movdqa %xmm2,%xmm5
    2a53:	66 44 0f 69 d1       	punpckhwd %xmm1,%xmm10
    2a58:	66 0f 61 ee          	punpcklwd %xmm6,%xmm5
    2a5c:	66 44 0f 61 c1       	punpcklwd %xmm1,%xmm8
    2a61:	66 0f 61 e1          	punpcklwd %xmm1,%xmm4
    2a65:	66 0f 6f ca          	movdqa %xmm2,%xmm1
    2a69:	66 45 0f 61 c2       	punpcklwd %xmm10,%xmm8
    2a6e:	66 41 0f 69 e2       	punpckhwd %xmm10,%xmm4
    2a73:	66 0f 69 ce          	punpckhwd %xmm6,%xmm1
    2a77:	66 44 0f 6f d5       	movdqa %xmm5,%xmm10
    2a7c:	66 0f 61 d6          	punpcklwd %xmm6,%xmm2
    2a80:	66 0f 6f f3          	movdqa %xmm3,%xmm6
    2a84:	66 44 0f 69 d1       	punpckhwd %xmm1,%xmm10
    2a89:	66 41 0f 61 f1       	punpcklwd %xmm9,%xmm6
    2a8e:	66 0f 61 e9          	punpcklwd %xmm1,%xmm5
    2a92:	66 0f 61 d1          	punpcklwd %xmm1,%xmm2
    2a96:	66 0f 6f cb          	movdqa %xmm3,%xmm1
    2a9a:	66 41 0f 61 ea       	punpcklwd %xmm10,%xmm5
    2a9f:	66 41 0f 69 d2       	punpckhwd %xmm10,%xmm2
    2aa4:	66 41 0f 69 c9       	punpckhwd %xmm9,%xmm1
    2aa9:	66 44 0f 6f d6       	movdqa %xmm6,%xmm10
    2aae:	66 41 0f 61 d9       	punpcklwd %xmm9,%xmm3
    2ab3:	66 44 0f 69 d1       	punpckhwd %xmm1,%xmm10
    2ab8:	66 0f 61 f1          	punpcklwd %xmm1,%xmm6
    2abc:	66 0f 61 d9          	punpcklwd %xmm1,%xmm3
    2ac0:	66 0f 6f cf          	movdqa %xmm7,%xmm1
    2ac4:	66 44 0f 6f cf       	movdqa %xmm7,%xmm9
    2ac9:	66 41 0f 61 f2       	punpcklwd %xmm10,%xmm6
    2ace:	66 41 0f 61 c8       	punpcklwd %xmm8,%xmm1
    2ad3:	66 41 0f 69 da       	punpckhwd %xmm10,%xmm3
    2ad8:	66 45 0f 69 c8       	punpckhwd %xmm8,%xmm9
    2add:	66 44 0f 6f d1       	movdqa %xmm1,%xmm10
    2ae2:	66 41 0f 61 f8       	punpcklwd %xmm8,%xmm7
    2ae7:	66 41 0f 61 c9       	punpcklwd %xmm9,%xmm1
    2aec:	66 45 0f 69 d1       	punpckhwd %xmm9,%xmm10
    2af1:	66 41 0f 61 f9       	punpcklwd %xmm9,%xmm7
    2af6:	66 44 0f 6f cd       	movdqa %xmm5,%xmm9
    2afb:	66 44 0f 61 ce       	punpcklwd %xmm6,%xmm9
    2b00:	66 44 0f 6f c5       	movdqa %xmm5,%xmm8
    2b05:	66 41 0f 61 ca       	punpcklwd %xmm10,%xmm1
    2b0a:	66 44 0f 69 c6       	punpckhwd %xmm6,%xmm8
    2b0f:	66 41 0f 69 fa       	punpckhwd %xmm10,%xmm7
    2b14:	66 0f 61 ee          	punpcklwd %xmm6,%xmm5
    2b18:	66 45 0f 6f d1       	movdqa %xmm9,%xmm10
    2b1d:	66 41 0f 61 e8       	punpcklwd %xmm8,%xmm5
    2b22:	66 45 0f 61 c8       	punpcklwd %xmm8,%xmm9
    2b27:	66 45 0f 69 d0       	punpckhwd %xmm8,%xmm10
    2b2c:	66 44 0f 6f c0       	movdqa %xmm0,%xmm8
    2b31:	66 0f 6f f0          	movdqa %xmm0,%xmm6
    2b35:	66 44 0f 61 c4       	punpcklwd %xmm4,%xmm8
    2b3a:	66 45 0f 61 ca       	punpcklwd %xmm10,%xmm9
    2b3f:	66 41 0f 69 ea       	punpckhwd %xmm10,%xmm5
    2b44:	66 0f 69 f4          	punpckhwd %xmm4,%xmm6
    2b48:	66 45 0f 6f d0       	movdqa %xmm8,%xmm10
    2b4d:	66 0f 61 c4          	punpcklwd %xmm4,%xmm0
    2b51:	66 0f 6f e2          	movdqa %xmm2,%xmm4
    2b55:	66 44 0f 69 d6       	punpckhwd %xmm6,%xmm10
    2b5a:	66 44 0f 61 c6       	punpcklwd %xmm6,%xmm8
    2b5f:	66 0f 61 e3          	punpcklwd %xmm3,%xmm4
    2b63:	66 0f 61 c6          	punpcklwd %xmm6,%xmm0
    2b67:	66 0f 6f f2          	movdqa %xmm2,%xmm6
    2b6b:	66 0f 69 f3          	punpckhwd %xmm3,%xmm6
    2b6f:	66 45 0f 61 c2       	punpcklwd %xmm10,%xmm8
    2b74:	66 41 0f 69 c2       	punpckhwd %xmm10,%xmm0
    2b79:	66 0f 61 d3          	punpcklwd %xmm3,%xmm2
    2b7d:	66 44 0f 6f d4       	movdqa %xmm4,%xmm10
    2b82:	66 0f 61 e6          	punpcklwd %xmm6,%xmm4
    2b86:	66 44 0f 69 d6       	punpckhwd %xmm6,%xmm10
    2b8b:	66 0f 61 d6          	punpcklwd %xmm6,%xmm2
    2b8f:	66 0f 6f f1          	movdqa %xmm1,%xmm6
    2b93:	66 41 0f 61 f1       	punpcklwd %xmm9,%xmm6
    2b98:	66 0f 6f d9          	movdqa %xmm1,%xmm3
    2b9c:	66 41 0f 61 e2       	punpcklwd %xmm10,%xmm4
    2ba1:	66 41 0f 69 d2       	punpckhwd %xmm10,%xmm2
    2ba6:	66 41 0f 69 d9       	punpckhwd %xmm9,%xmm3
    2bab:	66 44 0f 6f d6       	movdqa %xmm6,%xmm10
    2bb0:	66 41 0f 61 c9       	punpcklwd %xmm9,%xmm1
    2bb5:	66 44 0f 69 d3       	punpckhwd %xmm3,%xmm10
    2bba:	66 0f 61 f3          	punpcklwd %xmm3,%xmm6
    2bbe:	66 0f 61 cb          	punpcklwd %xmm3,%xmm1
    2bc2:	66 41 0f 6f d8       	movdqa %xmm8,%xmm3
    2bc7:	66 45 0f 6f c8       	movdqa %xmm8,%xmm9
    2bcc:	66 0f 61 dc          	punpcklwd %xmm4,%xmm3
    2bd0:	66 44 0f 69 cc       	punpckhwd %xmm4,%xmm9
    2bd5:	66 41 0f 61 f2       	punpcklwd %xmm10,%xmm6
    2bda:	66 41 0f 69 ca       	punpckhwd %xmm10,%xmm1
    2bdf:	66 44 0f 61 c4       	punpcklwd %xmm4,%xmm8
    2be4:	66 44 0f 6f d3       	movdqa %xmm3,%xmm10
    2be9:	66 45 0f 69 d1       	punpckhwd %xmm9,%xmm10
    2bee:	66 41 0f 61 d9       	punpcklwd %xmm9,%xmm3
    2bf3:	66 45 0f 61 c1       	punpcklwd %xmm9,%xmm8
    2bf8:	66 44 0f 6f cf       	movdqa %xmm7,%xmm9
    2bfd:	66 0f 6f e7          	movdqa %xmm7,%xmm4
    2c01:	66 45 0f 69 c2       	punpckhwd %xmm10,%xmm8
    2c06:	66 44 0f 61 cd       	punpcklwd %xmm5,%xmm9
    2c0b:	66 0f 69 e5          	punpckhwd %xmm5,%xmm4
    2c0f:	66 41 0f 61 da       	punpcklwd %xmm10,%xmm3
    2c14:	66 0f 61 fd          	punpcklwd %xmm5,%xmm7
    2c18:	66 45 0f 6f d1       	movdqa %xmm9,%xmm10
    2c1d:	66 0f 6f e8          	movdqa %xmm0,%xmm5
    2c21:	66 44 0f 69 d4       	punpckhwd %xmm4,%xmm10
    2c26:	66 44 0f 61 cc       	punpcklwd %xmm4,%xmm9
    2c2b:	66 0f 61 fc          	punpcklwd %xmm4,%xmm7
    2c2f:	66 0f 6f e0          	movdqa %xmm0,%xmm4
    2c33:	66 0f 61 ea          	punpcklwd %xmm2,%xmm5
    2c37:	66 0f 61 c2          	punpcklwd %xmm2,%xmm0
    2c3b:	66 0f 69 e2          	punpckhwd %xmm2,%xmm4
    2c3f:	66 0f ef d2          	pxor   %xmm2,%xmm2
    2c43:	66 45 0f 61 ca       	punpcklwd %xmm10,%xmm9
    2c48:	66 0f 65 d6          	pcmpgtw %xmm6,%xmm2
    2c4c:	66 41 0f 69 fa       	punpckhwd %xmm10,%xmm7
    2c51:	66 44 0f 6f d5       	movdqa %xmm5,%xmm10
    2c56:	66 44 0f 69 d4       	punpckhwd %xmm4,%xmm10
    2c5b:	66 0f 61 ec          	punpcklwd %xmm4,%xmm5
    2c5f:	66 0f 61 c4          	punpcklwd %xmm4,%xmm0
    2c63:	66 0f 6f e6          	movdqa %xmm6,%xmm4
    2c67:	66 45 0f 6f f1       	movdqa %xmm9,%xmm14
    2c6c:	66 44 0f 6f db       	movdqa %xmm3,%xmm11
    2c71:	66 0f 61 e2          	punpcklwd %xmm2,%xmm4
    2c75:	66 0f 69 f2          	punpckhwd %xmm2,%xmm6
    2c79:	66 0f ef d2          	pxor   %xmm2,%xmm2
    2c7d:	66 41 0f 65 d1       	pcmpgtw %xmm9,%xmm2
    2c82:	66 41 0f 61 ea       	punpcklwd %xmm10,%xmm5
    2c87:	66 41 0f 69 c2       	punpckhwd %xmm10,%xmm0
    2c8c:	66 44 0f 6f d4       	movdqa %xmm4,%xmm10
    2c91:	44 0f 29 54 24 a8    	movaps %xmm10,-0x58(%rsp)
    2c97:	66 44 0f 61 f2       	punpcklwd %xmm2,%xmm14
    2c9c:	66 44 0f 69 ca       	punpckhwd %xmm2,%xmm9
    2ca1:	66 0f ef d2          	pxor   %xmm2,%xmm2
    2ca5:	66 0f 65 d3          	pcmpgtw %xmm3,%xmm2
    2ca9:	66 41 0f 6f e1       	movdqa %xmm9,%xmm4
    2cae:	0f 29 64 24 b8       	movaps %xmm4,-0x48(%rsp)
    2cb3:	66 44 0f 61 da       	punpcklwd %xmm2,%xmm11
    2cb8:	66 0f 69 da          	punpckhwd %xmm2,%xmm3
    2cbc:	66 0f ef d2          	pxor   %xmm2,%xmm2
    2cc0:	66 0f 65 d5          	pcmpgtw %xmm5,%xmm2
    2cc4:	66 44 0f 6f fb       	movdqa %xmm3,%xmm15
    2cc9:	66 0f 6f dd          	movdqa %xmm5,%xmm3
    2ccd:	44 0f 29 5c 24 c8    	movaps %xmm11,-0x38(%rsp)
    2cd3:	66 45 0f 6f e3       	movdqa %xmm11,%xmm12
    2cd8:	66 0f 61 da          	punpcklwd %xmm2,%xmm3
    2cdc:	66 0f 69 ea          	punpckhwd %xmm2,%xmm5
    2ce0:	66 41 0f 6f d7       	movdqa %xmm15,%xmm2
    2ce5:	66 0f fe d5          	paddd  %xmm5,%xmm2
    2ce9:	66 44 0f fe e3       	paddd  %xmm3,%xmm12
    2cee:	66 44 0f 6f da       	movdqa %xmm2,%xmm11
    2cf3:	66 41 0f 6f d2       	movdqa %xmm10,%xmm2
    2cf8:	66 0f fa 5c 24 c8    	psubd  -0x38(%rsp),%xmm3
    2cfe:	66 44 0f 6f 15 69 44 	movdqa 0x4469(%rip),%xmm10        # 7170 <_IO_stdin_used+0x170>
    2d05:	00 00 
    2d07:	66 41 0f fe d6       	paddd  %xmm14,%xmm2
    2d0c:	66 41 0f 72 f4 01    	pslld  $0x1,%xmm12
    2d12:	66 41 0f fa ef       	psubd  %xmm15,%xmm5
    2d17:	66 0f 72 f2 01       	pslld  $0x1,%xmm2
    2d1c:	66 41 0f 72 f3 01    	pslld  $0x1,%xmm11
    2d22:	66 45 0f 6f f8       	movdqa %xmm8,%xmm15
    2d27:	66 0f 72 f3 01       	pslld  $0x1,%xmm3
    2d2c:	66 0f 72 f5 01       	pslld  $0x1,%xmm5
    2d31:	66 44 0f 6f ca       	movdqa %xmm2,%xmm9
    2d36:	66 45 0f 66 cd       	pcmpgtd %xmm13,%xmm9
    2d3b:	66 41 0f db d1       	pand   %xmm9,%xmm2
    2d40:	66 45 0f df cd       	pandn  %xmm13,%xmm9
    2d45:	66 44 0f eb ca       	por    %xmm2,%xmm9
    2d4a:	66 41 0f 6f d1       	movdqa %xmm9,%xmm2
    2d4f:	66 0f 66 15 19 44 00 	pcmpgtd 0x4419(%rip),%xmm2        # 7170 <_IO_stdin_used+0x170>
    2d56:	00 
    2d57:	66 44 0f db d2       	pand   %xmm2,%xmm10
    2d5c:	66 41 0f df d1       	pandn  %xmm9,%xmm2
    2d61:	66 44 0f 6f cc       	movdqa %xmm4,%xmm9
    2d66:	66 0f 6f 25 02 44 00 	movdqa 0x4402(%rip),%xmm4        # 7170 <_IO_stdin_used+0x170>
    2d6d:	00 
    2d6e:	66 44 0f fe ce       	paddd  %xmm6,%xmm9
    2d73:	66 41 0f eb d2       	por    %xmm10,%xmm2
    2d78:	66 0f fa 74 24 b8    	psubd  -0x48(%rsp),%xmm6
    2d7e:	66 41 0f 72 f1 01    	pslld  $0x1,%xmm9
    2d84:	66 45 0f 6f d1       	movdqa %xmm9,%xmm10
    2d89:	66 0f 72 f6 01       	pslld  $0x1,%xmm6
    2d8e:	66 45 0f 66 d5       	pcmpgtd %xmm13,%xmm10
    2d93:	66 45 0f db ca       	pand   %xmm10,%xmm9
    2d98:	66 45 0f df d5       	pandn  %xmm13,%xmm10
    2d9d:	66 45 0f eb d1       	por    %xmm9,%xmm10
    2da2:	66 45 0f 6f ca       	movdqa %xmm10,%xmm9
    2da7:	66 44 0f 66 0d c0 43 	pcmpgtd 0x43c0(%rip),%xmm9        # 7170 <_IO_stdin_used+0x170>
    2dae:	00 00 
    2db0:	66 41 0f db e1       	pand   %xmm9,%xmm4
    2db5:	66 45 0f df ca       	pandn  %xmm10,%xmm9
    2dba:	66 44 0f 6f d2       	movdqa %xmm2,%xmm10
    2dbf:	66 44 0f eb cc       	por    %xmm4,%xmm9
    2dc4:	66 0f 6f 25 a4 43 00 	movdqa 0x43a4(%rip),%xmm4        # 7170 <_IO_stdin_used+0x170>
    2dcb:	00 
    2dcc:	66 41 0f 61 d1       	punpcklwd %xmm9,%xmm2
    2dd1:	66 45 0f 69 d1       	punpckhwd %xmm9,%xmm10
    2dd6:	66 44 0f 6f ca       	movdqa %xmm2,%xmm9
    2ddb:	66 41 0f 61 d2       	punpcklwd %xmm10,%xmm2
    2de0:	66 45 0f 69 ca       	punpckhwd %xmm10,%xmm9
    2de5:	66 41 0f 61 d1       	punpcklwd %xmm9,%xmm2
    2dea:	66 45 0f ef c9       	pxor   %xmm9,%xmm9
    2def:	66 45 0f fa cc       	psubd  %xmm12,%xmm9
    2df4:	66 45 0f 6f d1       	movdqa %xmm9,%xmm10
    2df9:	66 45 0f 66 d5       	pcmpgtd %xmm13,%xmm10
    2dfe:	66 45 0f db ca       	pand   %xmm10,%xmm9
    2e03:	66 45 0f df d5       	pandn  %xmm13,%xmm10
    2e08:	66 45 0f eb d1       	por    %xmm9,%xmm10
    2e0d:	66 44 0f 6f 0d 7a 43 	movdqa 0x437a(%rip),%xmm9        # 7190 <_IO_stdin_used+0x190>
    2e14:	00 00 
    2e16:	66 45 0f 66 cc       	pcmpgtd %xmm12,%xmm9
    2e1b:	66 44 0f 6f 25 4c 43 	movdqa 0x434c(%rip),%xmm12        # 7170 <_IO_stdin_used+0x170>
    2e22:	00 00 
    2e24:	66 45 0f db e1       	pand   %xmm9,%xmm12
    2e29:	66 45 0f df ca       	pandn  %xmm10,%xmm9
    2e2e:	66 45 0f ef d2       	pxor   %xmm10,%xmm10
    2e33:	66 45 0f fa d3       	psubd  %xmm11,%xmm10
    2e38:	66 45 0f eb cc       	por    %xmm12,%xmm9
    2e3d:	66 45 0f 6f e2       	movdqa %xmm10,%xmm12
    2e42:	66 45 0f 66 e5       	pcmpgtd %xmm13,%xmm12
    2e47:	66 45 0f db d4       	pand   %xmm12,%xmm10
    2e4c:	66 45 0f df e5       	pandn  %xmm13,%xmm12
    2e51:	66 45 0f eb e2       	por    %xmm10,%xmm12
    2e56:	66 44 0f 6f 15 31 43 	movdqa 0x4331(%rip),%xmm10        # 7190 <_IO_stdin_used+0x190>
    2e5d:	00 00 
    2e5f:	66 45 0f 66 d3       	pcmpgtd %xmm11,%xmm10
    2e64:	66 44 0f 6f 1d 03 43 	movdqa 0x4303(%rip),%xmm11        # 7170 <_IO_stdin_used+0x170>
    2e6b:	00 00 
    2e6d:	66 41 0f db e2       	pand   %xmm10,%xmm4
    2e72:	66 45 0f df d4       	pandn  %xmm12,%xmm10
    2e77:	66 44 0f eb d4       	por    %xmm4,%xmm10
    2e7c:	66 41 0f 6f e1       	movdqa %xmm9,%xmm4
    2e81:	66 45 0f 61 ca       	punpcklwd %xmm10,%xmm9
    2e86:	66 41 0f 69 e2       	punpckhwd %xmm10,%xmm4
    2e8b:	66 45 0f 6f d1       	movdqa %xmm9,%xmm10
    2e90:	66 44 0f 61 cc       	punpcklwd %xmm4,%xmm9
    2e95:	66 44 0f 69 d4       	punpckhwd %xmm4,%xmm10
    2e9a:	66 0f 6f 64 24 a8    	movdqa -0x58(%rsp),%xmm4
    2ea0:	66 45 0f 61 ca       	punpcklwd %xmm10,%xmm9
    2ea5:	66 41 0f fa e6       	psubd  %xmm14,%xmm4
    2eaa:	66 44 0f 6f 35 bd 42 	movdqa 0x42bd(%rip),%xmm14        # 7170 <_IO_stdin_used+0x170>
    2eb1:	00 00 
    2eb3:	66 0f 72 f4 01       	pslld  $0x1,%xmm4
    2eb8:	66 44 0f 6f d4       	movdqa %xmm4,%xmm10
    2ebd:	66 45 0f 66 d5       	pcmpgtd %xmm13,%xmm10
    2ec2:	66 41 0f db e2       	pand   %xmm10,%xmm4
    2ec7:	66 45 0f df d5       	pandn  %xmm13,%xmm10
    2ecc:	66 44 0f eb d4       	por    %xmm4,%xmm10
    2ed1:	66 41 0f 6f e2       	movdqa %xmm10,%xmm4
    2ed6:	66 0f 66 25 92 42 00 	pcmpgtd 0x4292(%rip),%xmm4        # 7170 <_IO_stdin_used+0x170>
    2edd:	00 
    2ede:	66 44 0f db f4       	pand   %xmm4,%xmm14
    2ee3:	66 41 0f df e2       	pandn  %xmm10,%xmm4
    2ee8:	66 44 0f 6f d6       	movdqa %xmm6,%xmm10
    2eed:	66 45 0f 66 d5       	pcmpgtd %xmm13,%xmm10
    2ef2:	66 41 0f eb e6       	por    %xmm14,%xmm4
    2ef7:	66 45 0f 6f f0       	movdqa %xmm8,%xmm14
    2efc:	66 41 0f db f2       	pand   %xmm10,%xmm6
    2f01:	66 45 0f df d5       	pandn  %xmm13,%xmm10
    2f06:	66 44 0f eb d6       	por    %xmm6,%xmm10
    2f0b:	66 41 0f 6f f2       	movdqa %xmm10,%xmm6
    2f10:	66 0f 66 35 58 42 00 	pcmpgtd 0x4258(%rip),%xmm6        # 7170 <_IO_stdin_used+0x170>
    2f17:	00 
    2f18:	66 44 0f db de       	pand   %xmm6,%xmm11
    2f1d:	66 41 0f df f2       	pandn  %xmm10,%xmm6
    2f22:	66 44 0f 6f d4       	movdqa %xmm4,%xmm10
    2f27:	66 41 0f eb f3       	por    %xmm11,%xmm6
    2f2c:	66 44 0f 6f df       	movdqa %xmm7,%xmm11
    2f31:	66 0f 61 e6          	punpcklwd %xmm6,%xmm4
    2f35:	66 44 0f 69 d6       	punpckhwd %xmm6,%xmm10
    2f3a:	66 0f 6f f4          	movdqa %xmm4,%xmm6
    2f3e:	66 41 0f 61 e2       	punpcklwd %xmm10,%xmm4
    2f43:	66 41 0f 69 f2       	punpckhwd %xmm10,%xmm6
    2f48:	66 44 0f 6f 15 1f 42 	movdqa 0x421f(%rip),%xmm10        # 7170 <_IO_stdin_used+0x170>
    2f4f:	00 00 
    2f51:	66 0f 61 e6          	punpcklwd %xmm6,%xmm4
    2f55:	66 0f 6f f3          	movdqa %xmm3,%xmm6
    2f59:	66 41 0f 66 f5       	pcmpgtd %xmm13,%xmm6
    2f5e:	66 0f db de          	pand   %xmm6,%xmm3
    2f62:	66 41 0f df f5       	pandn  %xmm13,%xmm6
    2f67:	66 0f eb f3          	por    %xmm3,%xmm6
    2f6b:	66 0f 6f de          	movdqa %xmm6,%xmm3
    2f6f:	66 0f 66 1d f9 41 00 	pcmpgtd 0x41f9(%rip),%xmm3        # 7170 <_IO_stdin_used+0x170>
    2f76:	00 
    2f77:	66 44 0f db d3       	pand   %xmm3,%xmm10
    2f7c:	66 0f df de          	pandn  %xmm6,%xmm3
    2f80:	66 0f 6f f5          	movdqa %xmm5,%xmm6
    2f84:	66 41 0f 66 f5       	pcmpgtd %xmm13,%xmm6
    2f89:	66 41 0f eb da       	por    %xmm10,%xmm3
    2f8e:	66 44 0f 6f 15 d9 41 	movdqa 0x41d9(%rip),%xmm10        # 7170 <_IO_stdin_used+0x170>
    2f95:	00 00 
    2f97:	66 0f db ee          	pand   %xmm6,%xmm5
    2f9b:	66 41 0f df f5       	pandn  %xmm13,%xmm6
    2fa0:	66 0f eb f5          	por    %xmm5,%xmm6
    2fa4:	66 0f 6f ee          	movdqa %xmm6,%xmm5
    2fa8:	66 0f 66 2d c0 41 00 	pcmpgtd 0x41c0(%rip),%xmm5        # 7170 <_IO_stdin_used+0x170>
    2faf:	00 
    2fb0:	66 44 0f db d5       	pand   %xmm5,%xmm10
    2fb5:	66 0f df ee          	pandn  %xmm6,%xmm5
    2fb9:	66 0f 6f f3          	movdqa %xmm3,%xmm6
    2fbd:	66 41 0f eb ea       	por    %xmm10,%xmm5
    2fc2:	66 0f 61 dd          	punpcklwd %xmm5,%xmm3
    2fc6:	66 0f 69 f5          	punpckhwd %xmm5,%xmm6
    2fca:	66 0f 6f eb          	movdqa %xmm3,%xmm5
    2fce:	66 0f 61 de          	punpcklwd %xmm6,%xmm3
    2fd2:	66 0f 69 ee          	punpckhwd %xmm6,%xmm5
    2fd6:	66 0f 6f f1          	movdqa %xmm1,%xmm6
    2fda:	66 0f 61 dd          	punpcklwd %xmm5,%xmm3
    2fde:	66 0f ef ed          	pxor   %xmm5,%xmm5
    2fe2:	66 0f 65 e9          	pcmpgtw %xmm1,%xmm5
    2fe6:	66 0f 61 f5          	punpcklwd %xmm5,%xmm6
    2fea:	66 0f 69 cd          	punpckhwd %xmm5,%xmm1
    2fee:	66 0f ef ed          	pxor   %xmm5,%xmm5
    2ff2:	66 0f 65 ef          	pcmpgtw %xmm7,%xmm5
    2ff6:	0f 29 4c 24 a8       	movaps %xmm1,-0x58(%rsp)
    2ffb:	66 44 0f 61 dd       	punpcklwd %xmm5,%xmm11
    3000:	66 0f 69 fd          	punpckhwd %xmm5,%xmm7
    3004:	66 0f ef ed          	pxor   %xmm5,%xmm5
    3008:	66 41 0f 65 e8       	pcmpgtw %xmm8,%xmm5
    300d:	66 0f 6f cf          	movdqa %xmm7,%xmm1
    3011:	66 0f ef ff          	pxor   %xmm7,%xmm7
    3015:	66 0f 65 f8          	pcmpgtw %xmm0,%xmm7
    3019:	66 44 0f 61 f5       	punpcklwd %xmm5,%xmm14
    301e:	66 44 0f 69 fd       	punpckhwd %xmm5,%xmm15
    3023:	66 0f 6f e8          	movdqa %xmm0,%xmm5
    3027:	66 0f 61 ef          	punpcklwd %xmm7,%xmm5
    302b:	66 0f 69 c7          	punpckhwd %xmm7,%xmm0
    302f:	66 0f 6f fe          	movdqa %xmm6,%xmm7
    3033:	44 0f 29 74 24 c8    	movaps %xmm14,-0x38(%rsp)
    3039:	66 41 0f fe fb       	paddd  %xmm11,%xmm7
    303e:	66 44 0f fe f5       	paddd  %xmm5,%xmm14
    3043:	66 45 0f 6f e7       	movdqa %xmm15,%xmm12
    3048:	66 0f 72 f7 01       	pslld  $0x1,%xmm7
    304d:	66 41 0f 72 f6 01    	pslld  $0x1,%xmm14
    3053:	66 44 0f fe e0       	paddd  %xmm0,%xmm12
    3058:	66 44 0f 6f c7       	movdqa %xmm7,%xmm8
    305d:	66 41 0f 72 f4 01    	pslld  $0x1,%xmm12
    3063:	66 41 0f fa f3       	psubd  %xmm11,%xmm6
    3068:	66 45 0f 66 c5       	pcmpgtd %xmm13,%xmm8
    306d:	66 0f 72 f6 01       	pslld  $0x1,%xmm6
    3072:	66 41 0f fa c7       	psubd  %xmm15,%xmm0
    3077:	66 0f 72 f0 01       	pslld  $0x1,%xmm0
    307c:	66 41 0f db f8       	pand   %xmm8,%xmm7
    3081:	66 45 0f df c5       	pandn  %xmm13,%xmm8
    3086:	66 44 0f eb c7       	por    %xmm7,%xmm8
    308b:	66 41 0f 6f f8       	movdqa %xmm8,%xmm7
    3090:	66 0f 66 3d d8 40 00 	pcmpgtd 0x40d8(%rip),%xmm7        # 7170 <_IO_stdin_used+0x170>
    3097:	00 
    3098:	0f 29 4c 24 b8       	movaps %xmm1,-0x48(%rsp)
    309d:	66 44 0f 6f 15 ca 40 	movdqa 0x40ca(%rip),%xmm10        # 7170 <_IO_stdin_used+0x170>
    30a4:	00 00 
    30a6:	66 44 0f 6f 1d c1 40 	movdqa 0x40c1(%rip),%xmm11        # 7170 <_IO_stdin_used+0x170>
    30ad:	00 00 
    30af:	66 0f fa 6c 24 c8    	psubd  -0x38(%rsp),%xmm5
    30b5:	66 44 0f db d7       	pand   %xmm7,%xmm10
    30ba:	66 0f 72 f5 01       	pslld  $0x1,%xmm5
    30bf:	66 41 0f df f8       	pandn  %xmm8,%xmm7
    30c4:	66 44 0f 6f 44 24 a8 	movdqa -0x58(%rsp),%xmm8
    30cb:	66 41 0f eb fa       	por    %xmm10,%xmm7
    30d0:	66 44 0f fe c1       	paddd  %xmm1,%xmm8
    30d5:	66 0f 6f 0d 93 40 00 	movdqa 0x4093(%rip),%xmm1        # 7170 <_IO_stdin_used+0x170>
    30dc:	00 
    30dd:	66 41 0f 72 f0 01    	pslld  $0x1,%xmm8
    30e3:	66 45 0f 6f d0       	movdqa %xmm8,%xmm10
    30e8:	66 45 0f 66 d5       	pcmpgtd %xmm13,%xmm10
    30ed:	66 45 0f db c2       	pand   %xmm10,%xmm8
    30f2:	66 45 0f df d5       	pandn  %xmm13,%xmm10
    30f7:	66 45 0f eb d0       	por    %xmm8,%xmm10
    30fc:	66 45 0f 6f c2       	movdqa %xmm10,%xmm8
    3101:	66 44 0f 66 05 66 40 	pcmpgtd 0x4066(%rip),%xmm8        # 7170 <_IO_stdin_used+0x170>
    3108:	00 00 
    310a:	66 41 0f db c8       	pand   %xmm8,%xmm1
    310f:	66 45 0f df c2       	pandn  %xmm10,%xmm8
    3114:	66 44 0f 6f d7       	movdqa %xmm7,%xmm10
    3119:	66 44 0f eb c1       	por    %xmm1,%xmm8
    311e:	66 0f 6f 0d 4a 40 00 	movdqa 0x404a(%rip),%xmm1        # 7170 <_IO_stdin_used+0x170>
    3125:	00 
    3126:	66 41 0f 61 f8       	punpcklwd %xmm8,%xmm7
    312b:	66 45 0f 69 d0       	punpckhwd %xmm8,%xmm10
    3130:	66 44 0f 6f c7       	movdqa %xmm7,%xmm8
    3135:	66 41 0f 61 fa       	punpcklwd %xmm10,%xmm7
    313a:	66 45 0f 69 c2       	punpckhwd %xmm10,%xmm8
    313f:	66 41 0f 61 f8       	punpcklwd %xmm8,%xmm7
    3144:	66 45 0f ef c0       	pxor   %xmm8,%xmm8
    3149:	66 45 0f fa c6       	psubd  %xmm14,%xmm8
    314e:	66 45 0f 6f d0       	movdqa %xmm8,%xmm10
    3153:	66 45 0f 66 d5       	pcmpgtd %xmm13,%xmm10
    3158:	66 45 0f db c2       	pand   %xmm10,%xmm8
    315d:	66 45 0f df d5       	pandn  %xmm13,%xmm10
    3162:	66 45 0f eb d0       	por    %xmm8,%xmm10
    3167:	66 44 0f 6f 05 20 40 	movdqa 0x4020(%rip),%xmm8        # 7190 <_IO_stdin_used+0x190>
    316e:	00 00 
    3170:	66 45 0f 66 c6       	pcmpgtd %xmm14,%xmm8
    3175:	66 41 0f db c8       	pand   %xmm8,%xmm1
    317a:	66 45 0f df c2       	pandn  %xmm10,%xmm8
    317f:	66 45 0f ef d2       	pxor   %xmm10,%xmm10
    3184:	66 45 0f fa d4       	psubd  %xmm12,%xmm10
    3189:	66 44 0f eb c1       	por    %xmm1,%xmm8
    318e:	66 41 0f 6f ca       	movdqa %xmm10,%xmm1
    3193:	66 41 0f 66 cd       	pcmpgtd %xmm13,%xmm1
    3198:	66 44 0f 6f f1       	movdqa %xmm1,%xmm14
    319d:	66 44 0f db d1       	pand   %xmm1,%xmm10
    31a2:	66 0f 6f 4c 24 a8    	movdqa -0x58(%rsp),%xmm1
    31a8:	66 0f fa 4c 24 b8    	psubd  -0x48(%rsp),%xmm1
    31ae:	66 45 0f df f5       	pandn  %xmm13,%xmm14
    31b3:	66 45 0f eb f2       	por    %xmm10,%xmm14
    31b8:	66 0f 72 f1 01       	pslld  $0x1,%xmm1
    31bd:	66 44 0f 6f 15 ca 3f 	movdqa 0x3fca(%rip),%xmm10        # 7190 <_IO_stdin_used+0x190>
    31c4:	00 00 
    31c6:	66 45 0f 66 d4       	pcmpgtd %xmm12,%xmm10
    31cb:	66 44 0f 6f 25 9c 3f 	movdqa 0x3f9c(%rip),%xmm12        # 7170 <_IO_stdin_used+0x170>
    31d2:	00 00 
    31d4:	66 45 0f db e2       	pand   %xmm10,%xmm12
    31d9:	66 45 0f df d6       	pandn  %xmm14,%xmm10
    31de:	66 45 0f eb d4       	por    %xmm12,%xmm10
    31e3:	66 45 0f 6f e0       	movdqa %xmm8,%xmm12
    31e8:	66 45 0f 61 c2       	punpcklwd %xmm10,%xmm8
    31ed:	66 45 0f 69 e2       	punpckhwd %xmm10,%xmm12
    31f2:	66 45 0f 6f d0       	movdqa %xmm8,%xmm10
    31f7:	66 45 0f 61 c4       	punpcklwd %xmm12,%xmm8
    31fc:	66 45 0f 69 d4       	punpckhwd %xmm12,%xmm10
    3201:	66 45 0f 61 c2       	punpcklwd %xmm10,%xmm8
    3206:	66 44 0f 6f d6       	movdqa %xmm6,%xmm10
    320b:	66 45 0f 66 d5       	pcmpgtd %xmm13,%xmm10
    3210:	66 41 0f db f2       	pand   %xmm10,%xmm6
    3215:	66 45 0f df d5       	pandn  %xmm13,%xmm10
    321a:	66 44 0f eb d6       	por    %xmm6,%xmm10
    321f:	66 41 0f 6f f2       	movdqa %xmm10,%xmm6
    3224:	66 0f 66 35 44 3f 00 	pcmpgtd 0x3f44(%rip),%xmm6        # 7170 <_IO_stdin_used+0x170>
    322b:	00 
    322c:	66 44 0f db de       	pand   %xmm6,%xmm11
    3231:	66 41 0f df f2       	pandn  %xmm10,%xmm6
    3236:	66 44 0f 6f d1       	movdqa %xmm1,%xmm10
    323b:	66 45 0f 66 d5       	pcmpgtd %xmm13,%xmm10
    3240:	66 41 0f eb f3       	por    %xmm11,%xmm6
    3245:	66 44 0f 6f 1d 22 3f 	movdqa 0x3f22(%rip),%xmm11        # 7170 <_IO_stdin_used+0x170>
    324c:	00 00 
    324e:	66 41 0f db ca       	pand   %xmm10,%xmm1
    3253:	66 45 0f df d5       	pandn  %xmm13,%xmm10
    3258:	66 44 0f eb d1       	por    %xmm1,%xmm10
    325d:	66 41 0f 6f ca       	movdqa %xmm10,%xmm1
    3262:	66 0f 66 0d 06 3f 00 	pcmpgtd 0x3f06(%rip),%xmm1        # 7170 <_IO_stdin_used+0x170>
    3269:	00 
    326a:	66 44 0f db d9       	pand   %xmm1,%xmm11
    326f:	66 41 0f df ca       	pandn  %xmm10,%xmm1
    3274:	66 44 0f 6f d6       	movdqa %xmm6,%xmm10
    3279:	66 41 0f eb cb       	por    %xmm11,%xmm1
    327e:	66 0f 61 f1          	punpcklwd %xmm1,%xmm6
    3282:	66 44 0f 69 d1       	punpckhwd %xmm1,%xmm10
    3287:	66 0f 6f ce          	movdqa %xmm6,%xmm1
    328b:	66 41 0f 61 f2       	punpcklwd %xmm10,%xmm6
    3290:	66 41 0f 69 ca       	punpckhwd %xmm10,%xmm1
    3295:	66 44 0f 6f 15 d2 3e 	movdqa 0x3ed2(%rip),%xmm10        # 7170 <_IO_stdin_used+0x170>
    329c:	00 00 
    329e:	66 0f 61 f1          	punpcklwd %xmm1,%xmm6
    32a2:	66 0f 6f cd          	movdqa %xmm5,%xmm1
    32a6:	66 41 0f 66 cd       	pcmpgtd %xmm13,%xmm1
    32ab:	66 0f db e9          	pand   %xmm1,%xmm5
    32af:	66 41 0f df cd       	pandn  %xmm13,%xmm1
    32b4:	66 0f eb cd          	por    %xmm5,%xmm1
    32b8:	66 0f 6f e9          	movdqa %xmm1,%xmm5
    32bc:	66 0f 66 2d ac 3e 00 	pcmpgtd 0x3eac(%rip),%xmm5        # 7170 <_IO_stdin_used+0x170>
    32c3:	00 
    32c4:	66 44 0f db d5       	pand   %xmm5,%xmm10
    32c9:	66 0f df e9          	pandn  %xmm1,%xmm5
    32cd:	66 0f 6f c8          	movdqa %xmm0,%xmm1
    32d1:	66 41 0f 66 cd       	pcmpgtd %xmm13,%xmm1
    32d6:	66 41 0f eb ea       	por    %xmm10,%xmm5
    32db:	66 44 0f 6f 15 8c 3e 	movdqa 0x3e8c(%rip),%xmm10        # 7170 <_IO_stdin_used+0x170>
    32e2:	00 00 
    32e4:	66 0f db c1          	pand   %xmm1,%xmm0
    32e8:	66 41 0f df cd       	pandn  %xmm13,%xmm1
    32ed:	66 0f eb c8          	por    %xmm0,%xmm1
    32f1:	66 0f 6f c1          	movdqa %xmm1,%xmm0
    32f5:	66 0f 66 05 73 3e 00 	pcmpgtd 0x3e73(%rip),%xmm0        # 7170 <_IO_stdin_used+0x170>
    32fc:	00 
    32fd:	66 44 0f db d0       	pand   %xmm0,%xmm10
    3302:	66 0f df c1          	pandn  %xmm1,%xmm0
    3306:	66 0f 6f cd          	movdqa %xmm5,%xmm1
    330a:	66 41 0f eb c2       	por    %xmm10,%xmm0
    330f:	66 0f 61 e8          	punpcklwd %xmm0,%xmm5
    3313:	66 0f 69 c8          	punpckhwd %xmm0,%xmm1
    3317:	66 0f 6f c5          	movdqa %xmm5,%xmm0
    331b:	66 0f 61 e9          	punpcklwd %xmm1,%xmm5
    331f:	66 0f 69 c1          	punpckhwd %xmm1,%xmm0
    3323:	66 0f 6f ca          	movdqa %xmm2,%xmm1
    3327:	66 0f 69 d7          	punpckhwd %xmm7,%xmm2
    332b:	66 0f 61 e8          	punpcklwd %xmm0,%xmm5
    332f:	66 41 0f 6f c1       	movdqa %xmm9,%xmm0
    3334:	66 0f 61 cf          	punpcklwd %xmm7,%xmm1
    3338:	66 41 0f 61 c0       	punpcklwd %xmm8,%xmm0
    333d:	66 45 0f 69 c8       	punpckhwd %xmm8,%xmm9
    3342:	66 0f 6f fc          	movdqa %xmm4,%xmm7
    3346:	66 44 0f 6f c3       	movdqa %xmm3,%xmm8
    334b:	66 0f 61 fe          	punpcklwd %xmm6,%xmm7
    334f:	66 0f 69 e6          	punpckhwd %xmm6,%xmm4
    3353:	66 0f 69 dd          	punpckhwd %xmm5,%xmm3
    3357:	66 44 0f 61 c5       	punpcklwd %xmm5,%xmm8
    335c:	66 0f 6f f1          	movdqa %xmm1,%xmm6
    3360:	66 0f 6f e9          	movdqa %xmm1,%xmm5
    3364:	66 0f 6f ca          	movdqa %xmm2,%xmm1
    3368:	66 0f 61 f7          	punpcklwd %xmm7,%xmm6
    336c:	66 0f 69 ef          	punpckhwd %xmm7,%xmm5
    3370:	66 0f 61 cc          	punpcklwd %xmm4,%xmm1
    3374:	66 0f 69 d4          	punpckhwd %xmm4,%xmm2
    3378:	66 0f 6f f8          	movdqa %xmm0,%xmm7
    337c:	66 41 0f 6f e1       	movdqa %xmm9,%xmm4
    3381:	66 44 0f 69 cb       	punpckhwd %xmm3,%xmm9
    3386:	66 0f 61 e3          	punpcklwd %xmm3,%xmm4
    338a:	66 41 0f 61 f8       	punpcklwd %xmm8,%xmm7
    338f:	66 0f 6f de          	movdqa %xmm6,%xmm3
    3393:	66 0f 61 df          	punpcklwd %xmm7,%xmm3
    3397:	66 41 0f 69 c0       	punpckhwd %xmm8,%xmm0
    339c:	66 0f 69 f7          	punpckhwd %xmm7,%xmm6
    33a0:	0f 11 58 80          	movups %xmm3,-0x80(%rax)
    33a4:	66 0f 6f dd          	movdqa %xmm5,%xmm3
    33a8:	66 0f 69 e8          	punpckhwd %xmm0,%xmm5
    33ac:	66 0f 61 d8          	punpcklwd %xmm0,%xmm3
    33b0:	66 0f 6f c1          	movdqa %xmm1,%xmm0
    33b4:	66 0f 69 cc          	punpckhwd %xmm4,%xmm1
    33b8:	0f 11 70 90          	movups %xmm6,-0x70(%rax)
    33bc:	66 0f 61 c4          	punpcklwd %xmm4,%xmm0
    33c0:	0f 11 58 a0          	movups %xmm3,-0x60(%rax)
    33c4:	0f 11 40 c0          	movups %xmm0,-0x40(%rax)
    33c8:	66 0f 6f c2          	movdqa %xmm2,%xmm0
    33cc:	66 41 0f 69 d1       	punpckhwd %xmm9,%xmm2
    33d1:	66 41 0f 61 c1       	punpcklwd %xmm9,%xmm0
    33d6:	0f 11 68 b0          	movups %xmm5,-0x50(%rax)
    33da:	0f 11 48 d0          	movups %xmm1,-0x30(%rax)
    33de:	0f 11 40 e0          	movups %xmm0,-0x20(%rax)
    33e2:	0f 11 50 f0          	movups %xmm2,-0x10(%rax)
    33e6:	48 39 d0             	cmp    %rdx,%rax
    33e9:	0f 85 e5 f5 ff ff    	jne    29d4 <riscv_dsp_cifft_rd2_q15+0x4e4>
    33ef:	48 89 c8             	mov    %rcx,%rax
    33f2:	48 83 e0 f8          	and    $0xfffffffffffffff8,%rax
    33f6:	48 89 c2             	mov    %rax,%rdx
    33f9:	48 c1 e2 04          	shl    $0x4,%rdx
    33fd:	48 03 54 24 d8       	add    -0x28(%rsp),%rdx
    3402:	48 39 c8             	cmp    %rcx,%rax
    3405:	0f 84 4c 01 00 00    	je     3557 <riscv_dsp_cifft_rd2_q15+0x1067>
    340b:	bd ff 7f 00 00       	mov    $0x7fff,%ebp
    3410:	0f bf 32             	movswl (%rdx),%esi
    3413:	44 0f bf 7a 04       	movswl 0x4(%rdx),%r15d
    3418:	41 b9 00 80 ff ff    	mov    $0xffff8000,%r9d
    341e:	0f bf 7a 02          	movswl 0x2(%rdx),%edi
    3422:	0f bf 4a 06          	movswl 0x6(%rdx),%ecx
    3426:	41 8d 04 37          	lea    (%r15,%rsi,1),%eax
    342a:	44 0f bf 52 0a       	movswl 0xa(%rdx),%r10d
    342f:	0f bf 5a 0c          	movswl 0xc(%rdx),%ebx
    3433:	44 8d 04 39          	lea    (%rcx,%rdi,1),%r8d
    3437:	01 c0                	add    %eax,%eax
    3439:	45 01 c0             	add    %r8d,%r8d
    343c:	44 39 c8             	cmp    %r9d,%eax
    343f:	41 0f 4c c1          	cmovl  %r9d,%eax
    3443:	41 b9 ff 7f 00 00    	mov    $0x7fff,%r9d
    3449:	45 89 c3             	mov    %r8d,%r11d
    344c:	44 39 c8             	cmp    %r9d,%eax
    344f:	41 0f 4f c1          	cmovg  %r9d,%eax
    3453:	41 f7 db             	neg    %r11d
    3456:	44 0f bf 4a 08       	movswl 0x8(%rdx),%r9d
    345b:	66 89 02             	mov    %ax,(%rdx)
    345e:	b8 00 80 ff ff       	mov    $0xffff8000,%eax
    3463:	41 39 c3             	cmp    %eax,%r11d
    3466:	44 0f 4c d8          	cmovl  %eax,%r11d
    346a:	41 81 f8 01 80 ff ff 	cmp    $0xffff8001,%r8d
    3471:	44 0f bf 42 0e       	movswl 0xe(%rdx),%r8d
    3476:	44 0f 4c dd          	cmovl  %ebp,%r11d
    347a:	44 29 fe             	sub    %r15d,%esi
    347d:	47 8d 2c 10          	lea    (%r8,%r10,1),%r13d
    3481:	01 f6                	add    %esi,%esi
    3483:	45 01 ed             	add    %r13d,%r13d
    3486:	39 c6                	cmp    %eax,%esi
    3488:	45 0f b7 db          	movzwl %r11w,%r11d
    348c:	0f 4c f0             	cmovl  %eax,%esi
    348f:	b8 ff 7f 00 00       	mov    $0x7fff,%eax
    3494:	39 c6                	cmp    %eax,%esi
    3496:	0f 4f f0             	cmovg  %eax,%esi
    3499:	29 f9                	sub    %edi,%ecx
    349b:	b8 00 80 ff ff       	mov    $0xffff8000,%eax
    34a0:	01 c9                	add    %ecx,%ecx
    34a2:	39 c1                	cmp    %eax,%ecx
    34a4:	0f b7 f6             	movzwl %si,%esi
    34a7:	0f 4c c8             	cmovl  %eax,%ecx
    34aa:	b8 ff 7f 00 00       	mov    $0x7fff,%eax
    34af:	39 c1                	cmp    %eax,%ecx
    34b1:	0f 4f c8             	cmovg  %eax,%ecx
    34b4:	42 8d 04 0b          	lea    (%rbx,%r9,1),%eax
    34b8:	8d 3c 00             	lea    (%rax,%rax,1),%edi
    34bb:	b8 00 80 ff ff       	mov    $0xffff8000,%eax
    34c0:	39 c7                	cmp    %eax,%edi
    34c2:	0f 4c f8             	cmovl  %eax,%edi
    34c5:	b8 ff 7f 00 00       	mov    $0x7fff,%eax
    34ca:	39 c7                	cmp    %eax,%edi
    34cc:	0f 4f f8             	cmovg  %eax,%edi
    34cf:	0f b7 c7             	movzwl %di,%eax
    34d2:	0f b7 f9             	movzwl %cx,%edi
    34d5:	b9 00 80 ff ff       	mov    $0xffff8000,%ecx
    34da:	48 c1 e0 10          	shl    $0x10,%rax
    34de:	48 09 f8             	or     %rdi,%rax
    34e1:	48 c1 e0 10          	shl    $0x10,%rax
    34e5:	48 09 f0             	or     %rsi,%rax
    34e8:	48 c1 e0 10          	shl    $0x10,%rax
    34ec:	4c 09 d8             	or     %r11,%rax
    34ef:	48 89 42 02          	mov    %rax,0x2(%rdx)
    34f3:	44 89 e8             	mov    %r13d,%eax
    34f6:	f7 d8                	neg    %eax
    34f8:	39 c8                	cmp    %ecx,%eax
    34fa:	0f 4c c1             	cmovl  %ecx,%eax
    34fd:	41 81 fd 00 80 ff ff 	cmp    $0xffff8000,%r13d
    3504:	44 89 c9             	mov    %r9d,%ecx
    3507:	0f 4e c5             	cmovle %ebp,%eax
    350a:	29 d9                	sub    %ebx,%ecx
    350c:	01 c9                	add    %ecx,%ecx
    350e:	66 89 42 0a          	mov    %ax,0xa(%rdx)
    3512:	b8 00 80 ff ff       	mov    $0xffff8000,%eax
    3517:	39 c1                	cmp    %eax,%ecx
    3519:	0f 4c c8             	cmovl  %eax,%ecx
    351c:	b8 ff 7f 00 00       	mov    $0x7fff,%eax
    3521:	39 c1                	cmp    %eax,%ecx
    3523:	0f 4f c8             	cmovg  %eax,%ecx
    3526:	44 89 c0             	mov    %r8d,%eax
    3529:	44 29 d0             	sub    %r10d,%eax
    352c:	66 89 4a 0c          	mov    %cx,0xc(%rdx)
    3530:	01 c0                	add    %eax,%eax
    3532:	b9 00 80 ff ff       	mov    $0xffff8000,%ecx
    3537:	39 c8                	cmp    %ecx,%eax
    3539:	0f 4c c1             	cmovl  %ecx,%eax
    353c:	b9 ff 7f 00 00       	mov    $0x7fff,%ecx
    3541:	39 c8                	cmp    %ecx,%eax
    3543:	0f 4f c1             	cmovg  %ecx,%eax
    3546:	48 83 c2 10          	add    $0x10,%rdx
    354a:	66 89 42 fe          	mov    %ax,-0x2(%rdx)
    354e:	49 39 d4             	cmp    %rdx,%r12
    3551:	0f 85 b9 fe ff ff    	jne    3410 <riscv_dsp_cifft_rd2_q15+0xf20>
    3557:	48 8b 5c 24 d8       	mov    -0x28(%rsp),%rbx
    355c:	8b 44 24 f4          	mov    -0xc(%rsp),%eax
    3560:	4a 8d 7c 33 fe       	lea    -0x2(%rbx,%r14,1),%rdi
    3565:	41 89 c6             	mov    %eax,%r14d
    3568:	0f b7 4b 04          	movzwl 0x4(%rbx),%ecx
    356c:	41 d1 ee             	shr    %r14d
    356f:	45 89 f1             	mov    %r14d,%r9d
    3572:	41 89 c6             	mov    %eax,%r14d
    3575:	83 e0 fe             	and    $0xfffffffe,%eax
    3578:	89 c2                	mov    %eax,%edx
    357a:	83 c0 01             	add    $0x1,%eax
    357d:	48 8d 14 53          	lea    (%rbx,%rdx,2),%rdx
    3581:	48 8d 04 43          	lea    (%rbx,%rax,2),%rax
    3585:	0f b7 32             	movzwl (%rdx),%esi
    3588:	66 89 73 04          	mov    %si,0x4(%rbx)
    358c:	48 89 de             	mov    %rbx,%rsi
    358f:	66 89 0a             	mov    %cx,(%rdx)
    3592:	0f b7 53 06          	movzwl 0x6(%rbx),%edx
    3596:	0f b7 08             	movzwl (%rax),%ecx
    3599:	66 89 4b 06          	mov    %cx,0x6(%rbx)
    359d:	44 89 cb             	mov    %r9d,%ebx
    35a0:	b9 04 00 00 00       	mov    $0x4,%ecx
    35a5:	66 89 10             	mov    %dx,(%rax)
    35a8:	44 89 f0             	mov    %r14d,%eax
    35ab:	41 c1 ee 02          	shr    $0x2,%r14d
    35af:	ba 04 00 00 00       	mov    $0x4,%edx
    35b4:	44 31 f3             	xor    %r14d,%ebx
    35b7:	45 89 f2             	mov    %r14d,%r10d
    35ba:	41 89 c6             	mov    %eax,%r14d
    35bd:	44 89 c8             	mov    %r9d,%eax
    35c0:	41 c1 ee 03          	shr    $0x3,%r14d
    35c4:	44 89 f5             	mov    %r14d,%ebp
    35c7:	45 89 f3             	mov    %r14d,%r11d
    35ca:	31 dd                	xor    %ebx,%ebp
    35cc:	89 6c 24 a8          	mov    %ebp,-0x58(%rsp)
    35d0:	31 d8                	xor    %ebx,%eax
    35d2:	41 85 c2             	test   %eax,%r10d
    35d5:	75 14                	jne    35eb <riscv_dsp_cifft_rd2_q15+0x10fb>
    35d7:	45 89 d0             	mov    %r10d,%r8d
    35da:	66 0f 1f 44 00 00    	nopw   0x0(%rax,%rax,1)
    35e0:	41 d1 e8             	shr    %r8d
    35e3:	44 31 c0             	xor    %r8d,%eax
    35e6:	41 85 c0             	test   %eax,%r8d
    35e9:	74 f5                	je     35e0 <riscv_dsp_cifft_rd2_q15+0x10f0>
    35eb:	44 8d 41 fe          	lea    -0x2(%rcx),%r8d
    35ef:	41 39 c0             	cmp    %eax,%r8d
    35f2:	0f 83 97 00 00 00    	jae    368f <riscv_dsp_cifft_rd2_q15+0x119f>
    35f8:	41 89 d0             	mov    %edx,%r8d
    35fb:	8d 2c 00             	lea    (%rax,%rax,1),%ebp
    35fe:	4e 8d 24 46          	lea    (%rsi,%r8,2),%r12
    3602:	49 89 e8             	mov    %rbp,%r8
    3605:	48 8d 2c 6e          	lea    (%rsi,%rbp,2),%rbp
    3609:	45 0f b7 2c 24       	movzwl (%r12),%r13d
    360e:	44 0f b7 75 00       	movzwl 0x0(%rbp),%r14d
    3613:	41 83 c0 01          	add    $0x1,%r8d
    3617:	4e 8d 04 46          	lea    (%rsi,%r8,2),%r8
    361b:	66 45 89 34 24       	mov    %r14w,(%r12)
    3620:	66 44 89 6d 00       	mov    %r13w,0x0(%rbp)
    3625:	8d 6a 01             	lea    0x1(%rdx),%ebp
    3628:	45 0f b7 28          	movzwl (%r8),%r13d
    362c:	48 8d 2c 6e          	lea    (%rsi,%rbp,2),%rbp
    3630:	44 0f b7 65 00       	movzwl 0x0(%rbp),%r12d
    3635:	66 44 89 6d 00       	mov    %r13w,0x0(%rbp)
    363a:	89 d5                	mov    %edx,%ebp
    363c:	f7 dd                	neg    %ebp
    363e:	66 45 89 20          	mov    %r12w,(%r8)
    3642:	41 89 c0             	mov    %eax,%r8d
    3645:	48 63 ed             	movslq %ebp,%rbp
    3648:	41 f7 d8             	neg    %r8d
    364b:	48 01 ed             	add    %rbp,%rbp
    364e:	45 01 c0             	add    %r8d,%r8d
    3651:	4c 8d 2c 2f          	lea    (%rdi,%rbp,1),%r13
    3655:	48 8d 6c 2f fe       	lea    -0x2(%rdi,%rbp,1),%rbp
    365a:	4d 63 c0             	movslq %r8d,%r8
    365d:	45 0f b7 75 00       	movzwl 0x0(%r13),%r14d
    3662:	4d 01 c0             	add    %r8,%r8
    3665:	4e 8d 24 07          	lea    (%rdi,%r8,1),%r12
    3669:	4e 8d 44 07 fe       	lea    -0x2(%rdi,%r8,1),%r8
    366e:	45 0f b7 3c 24       	movzwl (%r12),%r15d
    3673:	66 45 89 7d 00       	mov    %r15w,0x0(%r13)
    3678:	66 45 89 34 24       	mov    %r14w,(%r12)
    367d:	44 0f b7 65 00       	movzwl 0x0(%rbp),%r12d
    3682:	45 0f b7 28          	movzwl (%r8),%r13d
    3686:	66 44 89 6d 00       	mov    %r13w,0x0(%rbp)
    368b:	66 45 89 20          	mov    %r12w,(%r8)
    368f:	44 01 c8             	add    %r9d,%eax
    3692:	44 8d 42 02          	lea    0x2(%rdx),%r8d
    3696:	8d 2c 00             	lea    (%rax,%rax,1),%ebp
    3699:	4e 8d 24 46          	lea    (%rsi,%r8,2),%r12
    369d:	49 89 e8             	mov    %rbp,%r8
    36a0:	48 8d 2c 6e          	lea    (%rsi,%rbp,2),%rbp
    36a4:	45 0f b7 2c 24       	movzwl (%r12),%r13d
    36a9:	44 0f b7 75 00       	movzwl 0x0(%rbp),%r14d
    36ae:	41 83 c0 01          	add    $0x1,%r8d
    36b2:	4e 8d 04 46          	lea    (%rsi,%r8,2),%r8
    36b6:	66 45 89 34 24       	mov    %r14w,(%r12)
    36bb:	66 44 89 6d 00       	mov    %r13w,0x0(%rbp)
    36c0:	8d 6a 03             	lea    0x3(%rdx),%ebp
    36c3:	45 0f b7 28          	movzwl (%r8),%r13d
    36c7:	48 8d 2c 6e          	lea    (%rsi,%rbp,2),%rbp
    36cb:	44 0f b7 65 00       	movzwl 0x0(%rbp),%r12d
    36d0:	66 44 89 6d 00       	mov    %r13w,0x0(%rbp)
    36d5:	66 45 89 20          	mov    %r12w,(%r8)
    36d9:	44 39 c9             	cmp    %r9d,%ecx
    36dc:	0f 83 d6 01 00 00    	jae    38b8 <riscv_dsp_cifft_rd2_q15+0x13c8>
    36e2:	33 44 24 a8          	xor    -0x58(%rsp),%eax
    36e6:	41 85 c3             	test   %eax,%r11d
    36e9:	75 10                	jne    36fb <riscv_dsp_cifft_rd2_q15+0x120b>
    36eb:	45 89 d8             	mov    %r11d,%r8d
    36ee:	66 90                	xchg   %ax,%ax
    36f0:	41 d1 e8             	shr    %r8d
    36f3:	44 31 c0             	xor    %r8d,%eax
    36f6:	41 85 c0             	test   %eax,%r8d
    36f9:	74 f5                	je     36f0 <riscv_dsp_cifft_rd2_q15+0x1200>
    36fb:	39 c8                	cmp    %ecx,%eax
    36fd:	0f 86 9b 00 00 00    	jbe    379e <riscv_dsp_cifft_rd2_q15+0x12ae>
    3703:	44 8d 42 04          	lea    0x4(%rdx),%r8d
    3707:	8d 2c 00             	lea    (%rax,%rax,1),%ebp
    370a:	4e 8d 24 46          	lea    (%rsi,%r8,2),%r12
    370e:	49 89 e8             	mov    %rbp,%r8
    3711:	48 8d 2c 6e          	lea    (%rsi,%rbp,2),%rbp
    3715:	45 0f b7 2c 24       	movzwl (%r12),%r13d
    371a:	44 0f b7 75 00       	movzwl 0x0(%rbp),%r14d
    371f:	41 83 c0 01          	add    $0x1,%r8d
    3723:	4e 8d 04 46          	lea    (%rsi,%r8,2),%r8
    3727:	66 45 89 34 24       	mov    %r14w,(%r12)
    372c:	66 44 89 6d 00       	mov    %r13w,0x0(%rbp)
    3731:	8d 6a 05             	lea    0x5(%rdx),%ebp
    3734:	45 0f b7 28          	movzwl (%r8),%r13d
    3738:	48 8d 2c 6e          	lea    (%rsi,%rbp,2),%rbp
    373c:	44 0f b7 65 00       	movzwl 0x0(%rbp),%r12d
    3741:	66 44 89 6d 00       	mov    %r13w,0x0(%rbp)
    3746:	bd fc ff ff ff       	mov    $0xfffffffc,%ebp
    374b:	29 d5                	sub    %edx,%ebp
    374d:	66 45 89 20          	mov    %r12w,(%r8)
    3751:	41 89 c0             	mov    %eax,%r8d
    3754:	48 63 ed             	movslq %ebp,%rbp
    3757:	41 f7 d8             	neg    %r8d
    375a:	48 01 ed             	add    %rbp,%rbp
    375d:	45 01 c0             	add    %r8d,%r8d
    3760:	4c 8d 2c 2f          	lea    (%rdi,%rbp,1),%r13
    3764:	48 8d 6c 2f fe       	lea    -0x2(%rdi,%rbp,1),%rbp
    3769:	4d 63 c0             	movslq %r8d,%r8
    376c:	45 0f b7 75 00       	movzwl 0x0(%r13),%r14d
    3771:	4d 01 c0             	add    %r8,%r8
    3774:	4e 8d 24 07          	lea    (%rdi,%r8,1),%r12
    3778:	4e 8d 44 07 fe       	lea    -0x2(%rdi,%r8,1),%r8
    377d:	45 0f b7 3c 24       	movzwl (%r12),%r15d
    3782:	66 45 89 7d 00       	mov    %r15w,0x0(%r13)
    3787:	66 45 89 34 24       	mov    %r14w,(%r12)
    378c:	44 0f b7 65 00       	movzwl 0x0(%rbp),%r12d
    3791:	45 0f b7 28          	movzwl (%r8),%r13d
    3795:	66 44 89 6d 00       	mov    %r13w,0x0(%rbp)
    379a:	66 45 89 20          	mov    %r12w,(%r8)
    379e:	44 01 c8             	add    %r9d,%eax
    37a1:	44 8d 42 06          	lea    0x6(%rdx),%r8d
    37a5:	83 c1 04             	add    $0x4,%ecx
    37a8:	8d 2c 00             	lea    (%rax,%rax,1),%ebp
    37ab:	4e 8d 24 46          	lea    (%rsi,%r8,2),%r12
    37af:	49 89 e8             	mov    %rbp,%r8
    37b2:	48 8d 2c 6e          	lea    (%rsi,%rbp,2),%rbp
    37b6:	45 0f b7 2c 24       	movzwl (%r12),%r13d
    37bb:	44 0f b7 75 00       	movzwl 0x0(%rbp),%r14d
    37c0:	41 83 c0 01          	add    $0x1,%r8d
    37c4:	4e 8d 04 46          	lea    (%rsi,%r8,2),%r8
    37c8:	66 45 89 34 24       	mov    %r14w,(%r12)
    37cd:	66 44 89 6d 00       	mov    %r13w,0x0(%rbp)
    37d2:	8d 6a 07             	lea    0x7(%rdx),%ebp
    37d5:	45 0f b7 28          	movzwl (%r8),%r13d
    37d9:	83 c2 08             	add    $0x8,%edx
    37dc:	48 8d 2c 6e          	lea    (%rsi,%rbp,2),%rbp
    37e0:	44 0f b7 65 00       	movzwl 0x0(%rbp),%r12d
    37e5:	66 44 89 6d 00       	mov    %r13w,0x0(%rbp)
    37ea:	66 45 89 20          	mov    %r12w,(%r8)
    37ee:	e9 dd fd ff ff       	jmp    35d0 <riscv_dsp_cifft_rd2_q15+0x10e0>
    37f3:	0f 1f 44 00 00       	nopl   0x0(%rax,%rax,1)
    37f8:	8d 90 00 ff ff ff    	lea    -0x100(%rax),%edx
    37fe:	b9 00 01 00 00       	mov    $0x100,%ecx
    3803:	29 d1                	sub    %edx,%ecx
    3805:	85 c9                	test   %ecx,%ecx
    3807:	7e 27                	jle    3830 <riscv_dsp_cifft_rd2_q15+0x1340>
    3809:	48 8d 05 d4 3d 00 00 	lea    0x3dd4(%rip),%rax        # 75e4 <riscv_dsp_cos_table_q15_1024+0x4>
    3810:	48 63 c9             	movslq %ecx,%rcx
    3813:	48 63 d2             	movslq %edx,%rdx
    3816:	44 0f b7 1c 48       	movzwl (%rax,%rcx,2),%r11d
    381b:	0f b7 1c 50          	movzwl (%rax,%rdx,2),%ebx
    381f:	41 f7 db             	neg    %r11d
    3822:	e9 c2 f0 ff ff       	jmp    28e9 <riscv_dsp_cifft_rd2_q15+0x3f9>
    3827:	66 0f 1f 84 00 00 00 	nopw   0x0(%rax,%rax,1)
    382e:	00 00 
    3830:	2d 00 02 00 00       	sub    $0x200,%eax
    3835:	ba 00 01 00 00       	mov    $0x100,%edx
    383a:	48 8d 1d a3 3d 00 00 	lea    0x3da3(%rip),%rbx        # 75e4 <riscv_dsp_cos_table_q15_1024+0x4>
    3841:	29 c2                	sub    %eax,%edx
    3843:	48 98                	cltq   
    3845:	48 63 ca             	movslq %edx,%rcx
    3848:	44 0f b7 1c 4b       	movzwl (%rbx,%rcx,2),%r11d
    384d:	0f b7 1c 43          	movzwl (%rbx,%rax,2),%ebx
    3851:	f7 db                	neg    %ebx
    3853:	85 d2                	test   %edx,%edx
    3855:	0f 8e 8e f0 ff ff    	jle    28e9 <riscv_dsp_cifft_rd2_q15+0x3f9>
    385b:	44 89 d8             	mov    %r11d,%eax
    385e:	41 89 db             	mov    %ebx,%r11d
    3861:	f7 d8                	neg    %eax
    3863:	89 c3                	mov    %eax,%ebx
    3865:	e9 7f f0 ff ff       	jmp    28e9 <riscv_dsp_cifft_rd2_q15+0x3f9>
    386a:	48 8b 54 24 d8       	mov    -0x28(%rsp),%rdx
    386f:	45 89 f0             	mov    %r14d,%r8d
    3872:	66 0f 1f 44 00 00    	nopw   0x0(%rax,%rax,1)
    3878:	0f b7 32             	movzwl (%rdx),%esi
    387b:	44 0f b7 14 3a       	movzwl (%rdx,%rdi,1),%r10d
    3880:	0f b7 4a 02          	movzwl 0x2(%rdx),%ecx
    3884:	44 0f b7 4c 3a 02    	movzwl 0x2(%rdx,%rdi,1),%r9d
    388a:	45 8d 1c 32          	lea    (%r10,%rsi,1),%r11d
    388e:	44 29 d6             	sub    %r10d,%esi
    3891:	66 44 89 1a          	mov    %r11w,(%rdx)
    3895:	45 8d 1c 09          	lea    (%r9,%rcx,1),%r11d
    3899:	44 29 c9             	sub    %r9d,%ecx
    389c:	66 44 89 5a 02       	mov    %r11w,0x2(%rdx)
    38a1:	66 89 34 3a          	mov    %si,(%rdx,%rdi,1)
    38a5:	66 89 4c 3a 02       	mov    %cx,0x2(%rdx,%rdi,1)
    38aa:	48 01 c2             	add    %rax,%rdx
    38ad:	41 83 e8 01          	sub    $0x1,%r8d
    38b1:	75 c5                	jne    3878 <riscv_dsp_cifft_rd2_q15+0x1388>
    38b3:	e9 e0 ef ff ff       	jmp    2898 <riscv_dsp_cifft_rd2_q15+0x3a8>
    38b8:	5b                   	pop    %rbx
    38b9:	31 c0                	xor    %eax,%eax
    38bb:	5d                   	pop    %rbp
    38bc:	41 5c                	pop    %r12
    38be:	41 5d                	pop    %r13
    38c0:	41 5e                	pop    %r14
    38c2:	41 5f                	pop    %r15
    38c4:	c3                   	ret    
    38c5:	48 8b 54 24 d8       	mov    -0x28(%rsp),%rdx
    38ca:	45 89 f0             	mov    %r14d,%r8d
    38cd:	31 c9                	xor    %ecx,%ecx
    38cf:	e9 20 ef ff ff       	jmp    27f4 <riscv_dsp_cifft_rd2_q15+0x304>
    38d4:	48 89 c2             	mov    %rax,%rdx
    38d7:	e9 2f fb ff ff       	jmp    340b <riscv_dsp_cifft_rd2_q15+0xf1b>
    38dc:	0f 1f 40 00          	nopl   0x0(%rax)

00000000000038e0 <riscv_dsp_cfft_rd4_q15>:
    38e0:	f3 0f 1e fa          	endbr64 
    38e4:	41 57                	push   %r15
    38e6:	89 f1                	mov    %esi,%ecx
    38e8:	b8 01 00 00 00       	mov    $0x1,%eax
    38ed:	41 56                	push   %r14
    38ef:	d3 e0                	shl    %cl,%eax
    38f1:	49 89 fe             	mov    %rdi,%r14
    38f4:	41 55                	push   %r13
    38f6:	41 54                	push   %r12
    38f8:	55                   	push   %rbp
    38f9:	53                   	push   %rbx
    38fa:	48 83 ec 30          	sub    $0x30,%rsp
    38fe:	89 44 24 18          	mov    %eax,0x18(%rsp)
    3902:	d1 e8                	shr    %eax
    3904:	41 89 c2             	mov    %eax,%r10d
    3907:	89 44 24 1c          	mov    %eax,0x1c(%rsp)
    390b:	41 0f b7 06          	movzwl (%r14),%eax
    390f:	4d 01 d2             	add    %r10,%r10
    3912:	48 89 3c 24          	mov    %rdi,(%rsp)
    3916:	4e 8d 3c 17          	lea    (%rdi,%r10,1),%r15
    391a:	66 d1 f8             	sar    %ax
    391d:	89 74 24 14          	mov    %esi,0x14(%rsp)
    3921:	4f 8d 24 17          	lea    (%r15,%r10,1),%r12
    3925:	98                   	cwtl   
    3926:	4c 89 7c 24 a8       	mov    %r15,-0x58(%rsp)
    392b:	41 0f b7 14 24       	movzwl (%r12),%edx
    3930:	4b 8d 3c 14          	lea    (%r12,%r10,1),%rdi
    3934:	4c 89 64 24 20       	mov    %r12,0x20(%rsp)
    3939:	0f b7 0f             	movzwl (%rdi),%ecx
    393c:	66 d1 fa             	sar    %dx
    393f:	0f bf d2             	movswl %dx,%edx
    3942:	66 d1 f9             	sar    %cx
    3945:	8d 34 10             	lea    (%rax,%rdx,1),%esi
    3948:	29 d0                	sub    %edx,%eax
    394a:	41 0f b7 17          	movzwl (%r15),%edx
    394e:	0f bf c9             	movswl %cx,%ecx
    3951:	d1 fe                	sar    %esi
    3953:	d1 f8                	sar    %eax
    3955:	66 d1 fa             	sar    %dx
    3958:	0f bf d2             	movswl %dx,%edx
    395b:	44 8d 0c 0a          	lea    (%rdx,%rcx,1),%r9d
    395f:	29 ca                	sub    %ecx,%edx
    3961:	41 d1 f9             	sar    %r9d
    3964:	89 d3                	mov    %edx,%ebx
    3966:	42 8d 14 0e          	lea    (%rsi,%r9,1),%edx
    396a:	44 29 ce             	sub    %r9d,%esi
    396d:	d1 fb                	sar    %ebx
    396f:	d1 fa                	sar    %edx
    3971:	d1 fe                	sar    %esi
    3973:	66 41 89 16          	mov    %dx,(%r14)
    3977:	41 0f b7 56 02       	movzwl 0x2(%r14),%edx
    397c:	45 0f b7 44 24 02    	movzwl 0x2(%r12),%r8d
    3982:	44 0f b7 5f 02       	movzwl 0x2(%rdi),%r11d
    3987:	66 d1 fa             	sar    %dx
    398a:	66 41 d1 f8          	sar    %r8w
    398e:	0f bf d2             	movswl %dx,%edx
    3991:	66 41 d1 fb          	sar    %r11w
    3995:	45 0f bf c0          	movswl %r8w,%r8d
    3999:	45 0f bf db          	movswl %r11w,%r11d
    399d:	42 8d 0c 02          	lea    (%rdx,%r8,1),%ecx
    39a1:	44 29 c2             	sub    %r8d,%edx
    39a4:	d1 fa                	sar    %edx
    39a6:	d1 f9                	sar    %ecx
    39a8:	89 d5                	mov    %edx,%ebp
    39aa:	41 0f b7 57 02       	movzwl 0x2(%r15),%edx
    39af:	66 89 54 24 88       	mov    %dx,-0x78(%rsp)
    39b4:	66 d1 fa             	sar    %dx
    39b7:	0f bf d2             	movswl %dx,%edx
    39ba:	46 8d 04 1a          	lea    (%rdx,%r11,1),%r8d
    39be:	44 29 da             	sub    %r11d,%edx
    39c1:	41 d1 f8             	sar    %r8d
    39c4:	d1 fa                	sar    %edx
    39c6:	46 8d 1c 01          	lea    (%rcx,%r8,1),%r11d
    39ca:	44 29 c1             	sub    %r8d,%ecx
    39cd:	d1 f9                	sar    %ecx
    39cf:	41 d1 fb             	sar    %r11d
    39d2:	66 45 89 5e 02       	mov    %r11w,0x2(%r14)
    39d7:	66 41 89 4f 02       	mov    %cx,0x2(%r15)
    39dc:	8d 0c 10             	lea    (%rax,%rdx,1),%ecx
    39df:	d1 f9                	sar    %ecx
    39e1:	66 41 89 37          	mov    %si,(%r15)
    39e5:	66 41 89 0c 24       	mov    %cx,(%r12)
    39ea:	89 e9                	mov    %ebp,%ecx
    39ec:	29 d9                	sub    %ebx,%ecx
    39ee:	d1 f9                	sar    %ecx
    39f0:	29 d0                	sub    %edx,%eax
    39f2:	d1 f8                	sar    %eax
    39f4:	66 41 89 4c 24 02    	mov    %cx,0x2(%r12)
    39fa:	66 89 07             	mov    %ax,(%rdi)
    39fd:	8d 04 2b             	lea    (%rbx,%rbp,1),%eax
    3a00:	d1 f8                	sar    %eax
    3a02:	66 89 47 02          	mov    %ax,0x2(%rdi)
    3a06:	49 8d 46 04          	lea    0x4(%r14),%rax
    3a0a:	48 89 44 24 08       	mov    %rax,0x8(%rsp)
    3a0f:	49 39 c7             	cmp    %rax,%r15
    3a12:	0f 84 f7 02 00 00    	je     3d0f <riscv_dsp_cfft_rd4_q15+0x42f>
    3a18:	49 89 c0             	mov    %rax,%r8
    3a1b:	b8 0a 00 00 00       	mov    $0xa,%eax
    3a20:	2b 44 24 14          	sub    0x14(%rsp),%eax
    3a24:	45 31 ff             	xor    %r15d,%r15d
    3a27:	89 44 24 88          	mov    %eax,-0x78(%rsp)
    3a2b:	48 8b 04 24          	mov    (%rsp),%rax
    3a2f:	4c 8d 25 ae 3b 00 00 	lea    0x3bae(%rip),%r12        # 75e4 <riscv_dsp_cos_table_q15_1024+0x4>
    3a36:	41 be 00 01 00 00    	mov    $0x100,%r14d
    3a3c:	4e 8d 4c 50 04       	lea    0x4(%rax,%r10,2),%r9
    3a41:	e9 0a 01 00 00       	jmp    3b50 <riscv_dsp_cfft_rd4_q15+0x270>
    3a46:	48 63 db             	movslq %ebx,%rbx
    3a49:	41 0f b7 0c 4c       	movzwl (%r12,%rcx,2),%ecx
    3a4e:	41 0f b7 1c 5c       	movzwl (%r12,%rbx,2),%ebx
    3a53:	0f bf c9             	movswl %cx,%ecx
    3a56:	0f bf db             	movswl %bx,%ebx
    3a59:	89 cd                	mov    %ecx,%ebp
    3a5b:	41 0f af cb          	imul   %r11d,%ecx
    3a5f:	41 0f af ed          	imul   %r13d,%ebp
    3a63:	89 6c 24 98          	mov    %ebp,-0x68(%rsp)
    3a67:	89 dd                	mov    %ebx,%ebp
    3a69:	41 0f af dd          	imul   %r13d,%ebx
    3a6d:	41 0f af eb          	imul   %r11d,%ebp
    3a71:	44 8d 1c 38          	lea    (%rax,%rdi,1),%r11d
    3a75:	29 f8                	sub    %edi,%eax
    3a77:	89 d7                	mov    %edx,%edi
    3a79:	29 f7                	sub    %esi,%edi
    3a7b:	01 f2                	add    %esi,%edx
    3a7d:	44 89 fe             	mov    %r15d,%esi
    3a80:	03 6c 24 98          	add    -0x68(%rsp),%ebp
    3a84:	29 d9                	sub    %ebx,%ecx
    3a86:	c1 fd 10             	sar    $0x10,%ebp
    3a89:	c1 f9 10             	sar    $0x10,%ecx
    3a8c:	66 43 89 2c 10       	mov    %bp,(%r8,%r10,1)
    3a91:	66 43 89 4c 10 02    	mov    %cx,0x2(%r8,%r10,1)
    3a97:	0f b6 4c 24 88       	movzbl -0x78(%rsp),%ecx
    3a9c:	d3 e6                	shl    %cl,%esi
    3a9e:	48 63 ce             	movslq %esi,%rcx
    3aa1:	44 89 f6             	mov    %r14d,%esi
    3aa4:	29 ce                	sub    %ecx,%esi
    3aa6:	85 f6                	test   %esi,%esi
    3aa8:	0f 8e a5 01 00 00    	jle    3c53 <riscv_dsp_cfft_rd4_q15+0x373>
    3aae:	48 63 f6             	movslq %esi,%rsi
    3ab1:	41 0f b7 0c 4c       	movzwl (%r12,%rcx,2),%ecx
    3ab6:	41 0f b7 34 74       	movzwl (%r12,%rsi,2),%esi
    3abb:	0f bf c9             	movswl %cx,%ecx
    3abe:	0f bf f6             	movswl %si,%esi
    3ac1:	89 cb                	mov    %ecx,%ebx
    3ac3:	0f af cf             	imul   %edi,%ecx
    3ac6:	89 f5                	mov    %esi,%ebp
    3ac8:	41 0f af f3          	imul   %r11d,%esi
    3acc:	41 0f af db          	imul   %r11d,%ebx
    3ad0:	0f af ef             	imul   %edi,%ebp
    3ad3:	29 f1                	sub    %esi,%ecx
    3ad5:	43 8d 34 7f          	lea    (%r15,%r15,2),%esi
    3ad9:	c1 f9 10             	sar    $0x10,%ecx
    3adc:	66 41 89 49 02       	mov    %cx,0x2(%r9)
    3ae1:	0f b6 4c 24 88       	movzbl -0x78(%rsp),%ecx
    3ae6:	01 eb                	add    %ebp,%ebx
    3ae8:	c1 fb 10             	sar    $0x10,%ebx
    3aeb:	d3 e6                	shl    %cl,%esi
    3aed:	66 41 89 19          	mov    %bx,(%r9)
    3af1:	48 63 ce             	movslq %esi,%rcx
    3af4:	44 89 f6             	mov    %r14d,%esi
    3af7:	29 ce                	sub    %ecx,%esi
    3af9:	85 f6                	test   %esi,%esi
    3afb:	0f 8e 2c 01 00 00    	jle    3c2d <riscv_dsp_cfft_rd4_q15+0x34d>
    3b01:	48 63 f6             	movslq %esi,%rsi
    3b04:	41 0f b7 0c 4c       	movzwl (%r12,%rcx,2),%ecx
    3b09:	41 0f b7 34 74       	movzwl (%r12,%rsi,2),%esi
    3b0e:	0f bf c9             	movswl %cx,%ecx
    3b11:	0f bf f6             	movswl %si,%esi
    3b14:	49 83 c0 04          	add    $0x4,%r8
    3b18:	49 83 c1 04          	add    $0x4,%r9
    3b1c:	89 cf                	mov    %ecx,%edi
    3b1e:	0f af ca             	imul   %edx,%ecx
    3b21:	41 89 f3             	mov    %esi,%r11d
    3b24:	0f af f8             	imul   %eax,%edi
    3b27:	44 0f af da          	imul   %edx,%r11d
    3b2b:	0f af f0             	imul   %eax,%esi
    3b2e:	44 01 df             	add    %r11d,%edi
    3b31:	29 f1                	sub    %esi,%ecx
    3b33:	c1 ff 10             	sar    $0x10,%edi
    3b36:	c1 f9 10             	sar    $0x10,%ecx
    3b39:	66 43 89 7c 11 fc    	mov    %di,-0x4(%r9,%r10,1)
    3b3f:	66 43 89 4c 11 fe    	mov    %cx,-0x2(%r9,%r10,1)
    3b45:	4c 39 44 24 a8       	cmp    %r8,-0x58(%rsp)
    3b4a:	0f 84 bf 01 00 00    	je     3d0f <riscv_dsp_cfft_rd4_q15+0x42f>
    3b50:	41 0f b7 09          	movzwl (%r9),%ecx
    3b54:	43 0f b7 34 10       	movzwl (%r8,%r10,1),%esi
    3b59:	41 83 c7 01          	add    $0x1,%r15d
    3b5d:	43 0f b7 3c 11       	movzwl (%r9,%r10,1),%edi
    3b62:	41 0f b7 00          	movzwl (%r8),%eax
    3b66:	66 d1 f9             	sar    %cx
    3b69:	66 d1 fe             	sar    %si
    3b6c:	66 d1 f8             	sar    %ax
    3b6f:	66 d1 ff             	sar    %di
    3b72:	0f bf c9             	movswl %cx,%ecx
    3b75:	0f bf f6             	movswl %si,%esi
    3b78:	0f bf ff             	movswl %di,%edi
    3b7b:	98                   	cwtl   
    3b7c:	8d 14 08             	lea    (%rax,%rcx,1),%edx
    3b7f:	29 c8                	sub    %ecx,%eax
    3b81:	8d 0c 3e             	lea    (%rsi,%rdi,1),%ecx
    3b84:	29 fe                	sub    %edi,%esi
    3b86:	d1 f9                	sar    %ecx
    3b88:	d1 fa                	sar    %edx
    3b8a:	8d 3c 0a             	lea    (%rdx,%rcx,1),%edi
    3b8d:	d1 f8                	sar    %eax
    3b8f:	29 ca                	sub    %ecx,%edx
    3b91:	d1 fe                	sar    %esi
    3b93:	d1 ff                	sar    %edi
    3b95:	41 89 d5             	mov    %edx,%r13d
    3b98:	41 0f b7 50 02       	movzwl 0x2(%r8),%edx
    3b9d:	66 41 89 38          	mov    %di,(%r8)
    3ba1:	41 0f b7 49 02       	movzwl 0x2(%r9),%ecx
    3ba6:	43 0f b7 7c 10 02    	movzwl 0x2(%r8,%r10,1),%edi
    3bac:	43 0f b7 5c 11 02    	movzwl 0x2(%r9,%r10,1),%ebx
    3bb2:	66 d1 fa             	sar    %dx
    3bb5:	66 d1 f9             	sar    %cx
    3bb8:	0f bf d2             	movswl %dx,%edx
    3bbb:	66 d1 ff             	sar    %di
    3bbe:	66 d1 fb             	sar    %bx
    3bc1:	0f bf c9             	movswl %cx,%ecx
    3bc4:	0f bf db             	movswl %bx,%ebx
    3bc7:	0f bf ff             	movswl %di,%edi
    3bca:	44 8d 1c 0a          	lea    (%rdx,%rcx,1),%r11d
    3bce:	29 ca                	sub    %ecx,%edx
    3bd0:	8d 0c 1f             	lea    (%rdi,%rbx,1),%ecx
    3bd3:	41 d1 fb             	sar    %r11d
    3bd6:	29 df                	sub    %ebx,%edi
    3bd8:	d1 fa                	sar    %edx
    3bda:	d1 f9                	sar    %ecx
    3bdc:	d1 ff                	sar    %edi
    3bde:	41 8d 1c 0b          	lea    (%r11,%rcx,1),%ebx
    3be2:	41 29 cb             	sub    %ecx,%r11d
    3be5:	0f b6 4c 24 88       	movzbl -0x78(%rsp),%ecx
    3bea:	d1 fb                	sar    %ebx
    3bec:	66 41 89 58 02       	mov    %bx,0x2(%r8)
    3bf1:	43 8d 1c 3f          	lea    (%r15,%r15,1),%ebx
    3bf5:	d3 e3                	shl    %cl,%ebx
    3bf7:	48 63 cb             	movslq %ebx,%rcx
    3bfa:	44 89 f3             	mov    %r14d,%ebx
    3bfd:	29 cb                	sub    %ecx,%ebx
    3bff:	85 db                	test   %ebx,%ebx
    3c01:	0f 8f 3f fe ff ff    	jg     3a46 <riscv_dsp_cfft_rd4_q15+0x166>
    3c07:	8d 99 00 ff ff ff    	lea    -0x100(%rcx),%ebx
    3c0d:	44 89 f5             	mov    %r14d,%ebp
    3c10:	29 dd                	sub    %ebx,%ebp
    3c12:	85 ed                	test   %ebp,%ebp
    3c14:	7e 63                	jle    3c79 <riscv_dsp_cfft_rd4_q15+0x399>
    3c16:	48 63 ed             	movslq %ebp,%rbp
    3c19:	48 63 db             	movslq %ebx,%rbx
    3c1c:	41 0f b7 0c 6c       	movzwl (%r12,%rbp,2),%ecx
    3c21:	41 0f b7 1c 5c       	movzwl (%r12,%rbx,2),%ebx
    3c26:	f7 d9                	neg    %ecx
    3c28:	e9 26 fe ff ff       	jmp    3a53 <riscv_dsp_cfft_rd4_q15+0x173>
    3c2d:	8d b1 00 ff ff ff    	lea    -0x100(%rcx),%esi
    3c33:	44 89 f7             	mov    %r14d,%edi
    3c36:	29 f7                	sub    %esi,%edi
    3c38:	85 ff                	test   %edi,%edi
    3c3a:	7e 6f                	jle    3cab <riscv_dsp_cfft_rd4_q15+0x3cb>
    3c3c:	48 63 ff             	movslq %edi,%rdi
    3c3f:	48 63 f6             	movslq %esi,%rsi
    3c42:	41 0f b7 0c 7c       	movzwl (%r12,%rdi,2),%ecx
    3c47:	41 0f b7 34 74       	movzwl (%r12,%rsi,2),%esi
    3c4c:	f7 d9                	neg    %ecx
    3c4e:	e9 bb fe ff ff       	jmp    3b0e <riscv_dsp_cfft_rd4_q15+0x22e>
    3c53:	8d b1 00 ff ff ff    	lea    -0x100(%rcx),%esi
    3c59:	44 89 f3             	mov    %r14d,%ebx
    3c5c:	29 f3                	sub    %esi,%ebx
    3c5e:	85 db                	test   %ebx,%ebx
    3c60:	7e 7b                	jle    3cdd <riscv_dsp_cfft_rd4_q15+0x3fd>
    3c62:	48 63 db             	movslq %ebx,%rbx
    3c65:	48 63 f6             	movslq %esi,%rsi
    3c68:	41 0f b7 0c 5c       	movzwl (%r12,%rbx,2),%ecx
    3c6d:	41 0f b7 34 74       	movzwl (%r12,%rsi,2),%esi
    3c72:	f7 d9                	neg    %ecx
    3c74:	e9 42 fe ff ff       	jmp    3abb <riscv_dsp_cfft_rd4_q15+0x1db>
    3c79:	8d 99 00 fe ff ff    	lea    -0x200(%rcx),%ebx
    3c7f:	44 89 f5             	mov    %r14d,%ebp
    3c82:	29 dd                	sub    %ebx,%ebp
    3c84:	48 63 db             	movslq %ebx,%rbx
    3c87:	41 0f b7 1c 5c       	movzwl (%r12,%rbx,2),%ebx
    3c8c:	48 63 cd             	movslq %ebp,%rcx
    3c8f:	41 0f b7 0c 4c       	movzwl (%r12,%rcx,2),%ecx
    3c94:	f7 db                	neg    %ebx
    3c96:	85 ed                	test   %ebp,%ebp
    3c98:	0f 8e b5 fd ff ff    	jle    3a53 <riscv_dsp_cfft_rd4_q15+0x173>
    3c9e:	f7 d9                	neg    %ecx
    3ca0:	89 cd                	mov    %ecx,%ebp
    3ca2:	89 d9                	mov    %ebx,%ecx
    3ca4:	89 eb                	mov    %ebp,%ebx
    3ca6:	e9 a8 fd ff ff       	jmp    3a53 <riscv_dsp_cfft_rd4_q15+0x173>
    3cab:	8d b1 00 fe ff ff    	lea    -0x200(%rcx),%esi
    3cb1:	44 89 f7             	mov    %r14d,%edi
    3cb4:	29 f7                	sub    %esi,%edi
    3cb6:	48 63 f6             	movslq %esi,%rsi
    3cb9:	41 0f b7 34 74       	movzwl (%r12,%rsi,2),%esi
    3cbe:	48 63 cf             	movslq %edi,%rcx
    3cc1:	41 0f b7 0c 4c       	movzwl (%r12,%rcx,2),%ecx
    3cc6:	f7 de                	neg    %esi
    3cc8:	85 ff                	test   %edi,%edi
    3cca:	0f 8e 3e fe ff ff    	jle    3b0e <riscv_dsp_cfft_rd4_q15+0x22e>
    3cd0:	89 cf                	mov    %ecx,%edi
    3cd2:	89 f1                	mov    %esi,%ecx
    3cd4:	f7 df                	neg    %edi
    3cd6:	89 fe                	mov    %edi,%esi
    3cd8:	e9 31 fe ff ff       	jmp    3b0e <riscv_dsp_cfft_rd4_q15+0x22e>
    3cdd:	8d b1 00 fe ff ff    	lea    -0x200(%rcx),%esi
    3ce3:	44 89 f3             	mov    %r14d,%ebx
    3ce6:	29 f3                	sub    %esi,%ebx
    3ce8:	48 63 f6             	movslq %esi,%rsi
    3ceb:	41 0f b7 34 74       	movzwl (%r12,%rsi,2),%esi
    3cf0:	48 63 cb             	movslq %ebx,%rcx
    3cf3:	41 0f b7 0c 4c       	movzwl (%r12,%rcx,2),%ecx
    3cf8:	f7 de                	neg    %esi
    3cfa:	85 db                	test   %ebx,%ebx
    3cfc:	0f 8e b9 fd ff ff    	jle    3abb <riscv_dsp_cfft_rd4_q15+0x1db>
    3d02:	f7 d9                	neg    %ecx
    3d04:	89 cb                	mov    %ecx,%ebx
    3d06:	89 f1                	mov    %esi,%ecx
    3d08:	89 de                	mov    %ebx,%esi
    3d0a:	e9 ac fd ff ff       	jmp    3abb <riscv_dsp_cfft_rd4_q15+0x1db>
    3d0f:	8b 74 24 14          	mov    0x14(%rsp),%esi
    3d13:	8b 7c 24 1c          	mov    0x1c(%rsp),%edi
    3d17:	c7 44 24 e4 04 00 00 	movl   $0x4,-0x1c(%rsp)
    3d1e:	00 
    3d1f:	89 f0                	mov    %esi,%eax
    3d21:	89 7c 24 fc          	mov    %edi,-0x4(%rsp)
    3d25:	d1 e8                	shr    %eax
    3d27:	83 e8 02             	sub    $0x2,%eax
    3d2a:	89 44 24 10          	mov    %eax,0x10(%rsp)
    3d2e:	0f 84 6f 03 00 00    	je     40a3 <riscv_dsp_cfft_rd4_q15+0x7c3>
    3d34:	b8 0a 00 00 00       	mov    $0xa,%eax
    3d39:	29 f0                	sub    %esi,%eax
    3d3b:	89 44 24 f8          	mov    %eax,-0x8(%rsp)
    3d3f:	90                   	nop
    3d40:	48 8b 04 24          	mov    (%rsp),%rax
    3d44:	8b 74 24 e4          	mov    -0x1c(%rsp),%esi
    3d48:	c1 6c 24 fc 02       	shrl   $0x2,-0x4(%rsp)
    3d4d:	44 8b 74 24 fc       	mov    -0x4(%rsp),%r14d
    3d52:	4f 8d 3c 36          	lea    (%r14,%r14,1),%r15
    3d56:	4c 01 f8             	add    %r15,%rax
    3d59:	48 89 44 24 e8       	mov    %rax,-0x18(%rsp)
    3d5e:	85 f6                	test   %esi,%esi
    3d60:	0f 84 d0 00 00 00    	je     3e36 <riscv_dsp_cfft_rd4_q15+0x556>
    3d66:	48 8b 0c 24          	mov    (%rsp),%rcx
    3d6a:	8b 6c 24 e4          	mov    -0x1c(%rsp),%ebp
    3d6e:	4e 8d 24 f5 00 00 00 	lea    0x0(,%r14,8),%r12
    3d75:	00 
    3d76:	4a 8d 34 38          	lea    (%rax,%r15,1),%rsi
    3d7a:	66 0f 1f 44 00 00    	nopw   0x0(%rax,%rax,1)
    3d80:	0f bf 06             	movswl (%rsi),%eax
    3d83:	0f bf 11             	movswl (%rcx),%edx
    3d86:	42 0f bf 3c 3e       	movswl (%rsi,%r15,1),%edi
    3d8b:	44 0f bf 49 02       	movswl 0x2(%rcx),%r9d
    3d90:	44 8d 04 02          	lea    (%rdx,%rax,1),%r8d
    3d94:	29 c2                	sub    %eax,%edx
    3d96:	42 0f bf 04 39       	movswl (%rcx,%r15,1),%eax
    3d9b:	41 d1 f8             	sar    %r8d
    3d9e:	d1 fa                	sar    %edx
    3da0:	8d 1c 38             	lea    (%rax,%rdi,1),%ebx
    3da3:	29 f8                	sub    %edi,%eax
    3da5:	d1 fb                	sar    %ebx
    3da7:	d1 f8                	sar    %eax
    3da9:	41 8d 3c 18          	lea    (%r8,%rbx,1),%edi
    3dad:	41 29 d8             	sub    %ebx,%r8d
    3db0:	d1 ff                	sar    %edi
    3db2:	41 d1 f8             	sar    %r8d
    3db5:	66 89 39             	mov    %di,(%rcx)
    3db8:	44 0f bf 56 02       	movswl 0x2(%rsi),%r10d
    3dbd:	46 0f bf 6c 3e 02    	movswl 0x2(%rsi,%r15,1),%r13d
    3dc3:	43 8d 3c 11          	lea    (%r9,%r10,1),%edi
    3dc7:	45 29 d1             	sub    %r10d,%r9d
    3dca:	46 0f bf 54 39 02    	movswl 0x2(%rcx,%r15,1),%r10d
    3dd0:	d1 ff                	sar    %edi
    3dd2:	41 d1 f9             	sar    %r9d
    3dd5:	47 8d 1c 2a          	lea    (%r10,%r13,1),%r11d
    3dd9:	45 29 ea             	sub    %r13d,%r10d
    3ddc:	41 d1 fb             	sar    %r11d
    3ddf:	41 d1 fa             	sar    %r10d
    3de2:	46 8d 2c 1f          	lea    (%rdi,%r11,1),%r13d
    3de6:	44 29 df             	sub    %r11d,%edi
    3de9:	d1 ff                	sar    %edi
    3deb:	41 d1 fd             	sar    %r13d
    3dee:	66 44 89 69 02       	mov    %r13w,0x2(%rcx)
    3df3:	66 42 89 7c 39 02    	mov    %di,0x2(%rcx,%r15,1)
    3df9:	42 8d 3c 12          	lea    (%rdx,%r10,1),%edi
    3dfd:	44 29 d2             	sub    %r10d,%edx
    3e00:	d1 ff                	sar    %edi
    3e02:	66 46 89 04 39       	mov    %r8w,(%rcx,%r15,1)
    3e07:	d1 fa                	sar    %edx
    3e09:	4c 01 e1             	add    %r12,%rcx
    3e0c:	66 89 3e             	mov    %di,(%rsi)
    3e0f:	44 89 cf             	mov    %r9d,%edi
    3e12:	29 c7                	sub    %eax,%edi
    3e14:	44 01 c8             	add    %r9d,%eax
    3e17:	d1 ff                	sar    %edi
    3e19:	d1 f8                	sar    %eax
    3e1b:	66 89 7e 02          	mov    %di,0x2(%rsi)
    3e1f:	66 42 89 14 3e       	mov    %dx,(%rsi,%r15,1)
    3e24:	66 42 89 44 3e 02    	mov    %ax,0x2(%rsi,%r15,1)
    3e2a:	4c 01 e6             	add    %r12,%rsi
    3e2d:	83 ed 01             	sub    $0x1,%ebp
    3e30:	0f 85 4a ff ff ff    	jne    3d80 <riscv_dsp_cfft_rd4_q15+0x4a0>
    3e36:	48 8b 74 24 e8       	mov    -0x18(%rsp),%rsi
    3e3b:	48 39 74 24 08       	cmp    %rsi,0x8(%rsp)
    3e40:	0f 84 4d 02 00 00    	je     4093 <riscv_dsp_cfft_rd4_q15+0x7b3>
    3e46:	4a 8d 04 b5 00 00 00 	lea    0x0(,%r14,4),%rax
    3e4d:	00 
    3e4e:	c7 44 24 e0 00 00 00 	movl   $0x0,-0x20(%rsp)
    3e55:	00 
    3e56:	4a 8d 2c f5 00 00 00 	lea    0x0(,%r14,8),%rbp
    3e5d:	00 
    3e5e:	48 89 44 24 f0       	mov    %rax,-0x10(%rsp)
    3e63:	48 8b 44 24 08       	mov    0x8(%rsp),%rax
    3e68:	48 89 44 24 d8       	mov    %rax,-0x28(%rsp)
    3e6d:	0f 1f 00             	nopl   (%rax)
    3e70:	0f b6 4c 24 f8       	movzbl -0x8(%rsp),%ecx
    3e75:	8b 74 24 e4          	mov    -0x1c(%rsp),%esi
    3e79:	01 74 24 e0          	add    %esi,-0x20(%rsp)
    3e7d:	8b 44 24 e0          	mov    -0x20(%rsp),%eax
    3e81:	d3 e0                	shl    %cl,%eax
    3e83:	b9 00 01 00 00       	mov    $0x100,%ecx
    3e88:	29 c1                	sub    %eax,%ecx
    3e8a:	85 c9                	test   %ecx,%ecx
    3e8c:	0f 8e 5e 0d 00 00    	jle    4bf0 <riscv_dsp_cfft_rd4_q15+0x1310>
    3e92:	48 98                	cltq   
    3e94:	48 8d 3d 49 37 00 00 	lea    0x3749(%rip),%rdi        # 75e4 <riscv_dsp_cos_table_q15_1024+0x4>
    3e9b:	48 63 c9             	movslq %ecx,%rcx
    3e9e:	0f b7 14 47          	movzwl (%rdi,%rax,2),%edx
    3ea2:	0f b7 04 4f          	movzwl (%rdi,%rcx,2),%eax
    3ea6:	8b 74 24 e0          	mov    -0x20(%rsp),%esi
    3eaa:	0f b6 4c 24 f8       	movzbl -0x8(%rsp),%ecx
    3eaf:	01 f6                	add    %esi,%esi
    3eb1:	d3 e6                	shl    %cl,%esi
    3eb3:	48 63 ce             	movslq %esi,%rcx
    3eb6:	be 00 01 00 00       	mov    $0x100,%esi
    3ebb:	29 ce                	sub    %ecx,%esi
    3ebd:	85 f6                	test   %esi,%esi
    3ebf:	0f 8e bb 0c 00 00    	jle    4b80 <riscv_dsp_cfft_rd4_q15+0x12a0>
    3ec5:	48 8d 1d 18 37 00 00 	lea    0x3718(%rip),%rbx        # 75e4 <riscv_dsp_cos_table_q15_1024+0x4>
    3ecc:	48 63 f6             	movslq %esi,%rsi
    3ecf:	0f b7 3c 4b          	movzwl (%rbx,%rcx,2),%edi
    3ed3:	0f b7 34 73          	movzwl (%rbx,%rsi,2),%esi
    3ed7:	8b 4c 24 e0          	mov    -0x20(%rsp),%ecx
    3edb:	44 8d 04 49          	lea    (%rcx,%rcx,2),%r8d
    3edf:	0f b6 4c 24 f8       	movzbl -0x8(%rsp),%ecx
    3ee4:	41 d3 e0             	shl    %cl,%r8d
    3ee7:	49 63 c8             	movslq %r8d,%rcx
    3eea:	41 b8 00 01 00 00    	mov    $0x100,%r8d
    3ef0:	41 29 c8             	sub    %ecx,%r8d
    3ef3:	45 85 c0             	test   %r8d,%r8d
    3ef6:	0f 8e bc 0c 00 00    	jle    4bb8 <riscv_dsp_cfft_rd4_q15+0x12d8>
    3efc:	48 8d 1d e1 36 00 00 	lea    0x36e1(%rip),%rbx        # 75e4 <riscv_dsp_cos_table_q15_1024+0x4>
    3f03:	4d 63 c0             	movslq %r8d,%r8
    3f06:	44 0f b7 24 4b       	movzwl (%rbx,%rcx,2),%r12d
    3f0b:	46 0f b7 2c 43       	movzwl (%rbx,%r8,2),%r13d
    3f10:	8b 4c 24 e4          	mov    -0x1c(%rsp),%ecx
    3f14:	85 c9                	test   %ecx,%ecx
    3f16:	0f 84 61 01 00 00    	je     407d <riscv_dsp_cfft_rd4_q15+0x79d>
    3f1c:	98                   	cwtl   
    3f1d:	0f bf f6             	movswl %si,%esi
    3f20:	0f bf ff             	movswl %di,%edi
    3f23:	45 0f bf e4          	movswl %r12w,%r12d
    3f27:	89 44 24 c8          	mov    %eax,-0x38(%rsp)
    3f2b:	8b 44 24 e4          	mov    -0x1c(%rsp),%eax
    3f2f:	45 0f bf ed          	movswl %r13w,%r13d
    3f33:	89 74 24 88          	mov    %esi,-0x78(%rsp)
    3f37:	0f bf f2             	movswl %dx,%esi
    3f3a:	89 7c 24 a8          	mov    %edi,-0x58(%rsp)
    3f3e:	48 8b 7c 24 f0       	mov    -0x10(%rsp),%rdi
    3f43:	89 74 24 b8          	mov    %esi,-0x48(%rsp)
    3f47:	48 8b 74 24 d8       	mov    -0x28(%rsp),%rsi
    3f4c:	89 44 24 98          	mov    %eax,-0x68(%rsp)
    3f50:	48 01 f7             	add    %rsi,%rdi
    3f53:	0f 1f 44 00 00       	nopl   0x0(%rax,%rax,1)
    3f58:	0f bf 07             	movswl (%rdi),%eax
    3f5b:	0f bf 0e             	movswl (%rsi),%ecx
    3f5e:	42 0f bf 14 3f       	movswl (%rdi,%r15,1),%edx
    3f63:	44 0f bf 4e 02       	movswl 0x2(%rsi),%r9d
    3f68:	44 8d 04 01          	lea    (%rcx,%rax,1),%r8d
    3f6c:	29 c1                	sub    %eax,%ecx
    3f6e:	42 0f bf 04 3e       	movswl (%rsi,%r15,1),%eax
    3f73:	41 d1 f8             	sar    %r8d
    3f76:	d1 f9                	sar    %ecx
    3f78:	8d 1c 10             	lea    (%rax,%rdx,1),%ebx
    3f7b:	29 d0                	sub    %edx,%eax
    3f7d:	d1 fb                	sar    %ebx
    3f7f:	d1 f8                	sar    %eax
    3f81:	41 8d 14 18          	lea    (%r8,%rbx,1),%edx
    3f85:	41 29 d8             	sub    %ebx,%r8d
    3f88:	8b 5c 24 88          	mov    -0x78(%rsp),%ebx
    3f8c:	d1 fa                	sar    %edx
    3f8e:	66 89 16             	mov    %dx,(%rsi)
    3f91:	44 0f bf 57 02       	movswl 0x2(%rdi),%r10d
    3f96:	46 0f bf 74 3f 02    	movswl 0x2(%rdi,%r15,1),%r14d
    3f9c:	43 8d 14 11          	lea    (%r9,%r10,1),%edx
    3fa0:	45 29 d1             	sub    %r10d,%r9d
    3fa3:	46 0f bf 54 3e 02    	movswl 0x2(%rsi,%r15,1),%r10d
    3fa9:	d1 fa                	sar    %edx
    3fab:	41 d1 f9             	sar    %r9d
    3fae:	47 8d 1c 32          	lea    (%r10,%r14,1),%r11d
    3fb2:	45 29 f2             	sub    %r14d,%r10d
    3fb5:	41 d1 fb             	sar    %r11d
    3fb8:	41 d1 fa             	sar    %r10d
    3fbb:	46 8d 34 1a          	lea    (%rdx,%r11,1),%r14d
    3fbf:	44 29 da             	sub    %r11d,%edx
    3fc2:	41 d1 fe             	sar    %r14d
    3fc5:	0f af da             	imul   %edx,%ebx
    3fc8:	66 44 89 76 02       	mov    %r14w,0x2(%rsi)
    3fcd:	44 8b 74 24 a8       	mov    -0x58(%rsp),%r14d
    3fd2:	45 89 f3             	mov    %r14d,%r11d
    3fd5:	41 0f af d6          	imul   %r14d,%edx
    3fd9:	44 8b 74 24 c8       	mov    -0x38(%rsp),%r14d
    3fde:	45 0f af d8          	imul   %r8d,%r11d
    3fe2:	44 0f af 44 24 88    	imul   -0x78(%rsp),%r8d
    3fe8:	41 01 db             	add    %ebx,%r11d
    3feb:	8b 5c 24 b8          	mov    -0x48(%rsp),%ebx
    3fef:	44 29 c2             	sub    %r8d,%edx
    3ff2:	45 89 c8             	mov    %r9d,%r8d
    3ff5:	41 c1 fb 10          	sar    $0x10,%r11d
    3ff9:	c1 fa 10             	sar    $0x10,%edx
    3ffc:	41 29 c0             	sub    %eax,%r8d
    3fff:	44 01 c8             	add    %r9d,%eax
    4002:	41 89 d9             	mov    %ebx,%r9d
    4005:	66 42 89 54 3e 02    	mov    %dx,0x2(%rsi,%r15,1)
    400b:	42 8d 14 11          	lea    (%rcx,%r10,1),%edx
    400f:	44 29 d1             	sub    %r10d,%ecx
    4012:	45 89 f2             	mov    %r14d,%r10d
    4015:	45 0f af d0          	imul   %r8d,%r10d
    4019:	66 46 89 1c 3e       	mov    %r11w,(%rsi,%r15,1)
    401e:	44 0f af ca          	imul   %edx,%r9d
    4022:	44 0f af c3          	imul   %ebx,%r8d
    4026:	45 01 d1             	add    %r10d,%r9d
    4029:	41 c1 f9 10          	sar    $0x10,%r9d
    402d:	41 0f af d6          	imul   %r14d,%edx
    4031:	48 01 ee             	add    %rbp,%rsi
    4034:	66 44 89 0f          	mov    %r9w,(%rdi)
    4038:	41 29 d0             	sub    %edx,%r8d
    403b:	89 ca                	mov    %ecx,%edx
    403d:	41 c1 f8 10          	sar    $0x10,%r8d
    4041:	41 0f af d4          	imul   %r12d,%edx
    4045:	66 44 89 47 02       	mov    %r8w,0x2(%rdi)
    404a:	41 89 c0             	mov    %eax,%r8d
    404d:	41 0f af cd          	imul   %r13d,%ecx
    4051:	45 0f af c5          	imul   %r13d,%r8d
    4055:	41 0f af c4          	imul   %r12d,%eax
    4059:	44 01 c2             	add    %r8d,%edx
    405c:	29 c8                	sub    %ecx,%eax
    405e:	c1 fa 10             	sar    $0x10,%edx
    4061:	c1 f8 10             	sar    $0x10,%eax
    4064:	66 42 89 14 3f       	mov    %dx,(%rdi,%r15,1)
    4069:	66 42 89 44 3f 02    	mov    %ax,0x2(%rdi,%r15,1)
    406f:	48 01 ef             	add    %rbp,%rdi
    4072:	83 6c 24 98 01       	subl   $0x1,-0x68(%rsp)
    4077:	0f 85 db fe ff ff    	jne    3f58 <riscv_dsp_cfft_rd4_q15+0x678>
    407d:	48 83 44 24 d8 04    	addq   $0x4,-0x28(%rsp)
    4083:	48 8b 44 24 d8       	mov    -0x28(%rsp),%rax
    4088:	48 39 44 24 e8       	cmp    %rax,-0x18(%rsp)
    408d:	0f 85 dd fd ff ff    	jne    3e70 <riscv_dsp_cfft_rd4_q15+0x590>
    4093:	c1 64 24 e4 02       	shll   $0x2,-0x1c(%rsp)
    4098:	83 6c 24 10 01       	subl   $0x1,0x10(%rsp)
    409d:	0f 85 9d fc ff ff    	jne    3d40 <riscv_dsp_cfft_rd4_q15+0x460>
    40a3:	8b 44 24 18          	mov    0x18(%rsp),%eax
    40a7:	48 8b 34 24          	mov    (%rsp),%rsi
    40ab:	01 c0                	add    %eax,%eax
    40ad:	48 8d 2c 46          	lea    (%rsi,%rax,2),%rbp
    40b1:	48 39 ee             	cmp    %rbp,%rsi
    40b4:	0f 84 3f 08 00 00    	je     48f9 <riscv_dsp_cfft_rd4_q15+0x1019>
    40ba:	48 89 ea             	mov    %rbp,%rdx
    40bd:	48 89 f0             	mov    %rsi,%rax
    40c0:	48 29 f2             	sub    %rsi,%rdx
    40c3:	48 83 ea 10          	sub    $0x10,%rdx
    40c7:	48 89 d1             	mov    %rdx,%rcx
    40ca:	48 c1 e9 04          	shr    $0x4,%rcx
    40ce:	48 83 c1 01          	add    $0x1,%rcx
    40d2:	48 83 fa 60          	cmp    $0x60,%rdx
    40d6:	0f 86 44 07 00 00    	jbe    4820 <riscv_dsp_cfft_rd4_q15+0xf40>
    40dc:	48 89 ca             	mov    %rcx,%rdx
    40df:	66 45 0f ef e4       	pxor   %xmm12,%xmm12
    40e4:	48 c1 ea 03          	shr    $0x3,%rdx
    40e8:	48 c1 e2 07          	shl    $0x7,%rdx
    40ec:	48 01 f2             	add    %rsi,%rdx
    40ef:	f3 0f 6f 30          	movdqu (%rax),%xmm6
    40f3:	f3 0f 6f 78 10       	movdqu 0x10(%rax),%xmm7
    40f8:	66 45 0f 6f ec       	movdqa %xmm12,%xmm13
    40fd:	48 83 e8 80          	sub    $0xffffffffffffff80,%rax
    4101:	f3 0f 6f 58 a0       	movdqu -0x60(%rax),%xmm3
    4106:	f3 0f 6f 68 b0       	movdqu -0x50(%rax),%xmm5
    410b:	66 0f 6f e6          	movdqa %xmm6,%xmm4
    410f:	66 0f 6f ce          	movdqa %xmm6,%xmm1
    4113:	f3 0f 6f 50 c0       	movdqu -0x40(%rax),%xmm2
    4118:	66 0f 61 f7          	punpcklwd %xmm7,%xmm6
    411c:	66 0f 61 e7          	punpcklwd %xmm7,%xmm4
    4120:	66 0f 69 cf          	punpckhwd %xmm7,%xmm1
    4124:	66 0f 6f fb          	movdqa %xmm3,%xmm7
    4128:	f3 44 0f 6f 40 d0    	movdqu -0x30(%rax),%xmm8
    412e:	66 44 0f 6f d4       	movdqa %xmm4,%xmm10
    4133:	66 0f 61 fd          	punpcklwd %xmm5,%xmm7
    4137:	66 0f 61 e1          	punpcklwd %xmm1,%xmm4
    413b:	f3 0f 6f 40 e0       	movdqu -0x20(%rax),%xmm0
    4140:	66 44 0f 69 d1       	punpckhwd %xmm1,%xmm10
    4145:	66 0f 61 f1          	punpcklwd %xmm1,%xmm6
    4149:	66 0f 6f cb          	movdqa %xmm3,%xmm1
    414d:	f3 44 0f 6f 48 f0    	movdqu -0x10(%rax),%xmm9
    4153:	66 0f 69 cd          	punpckhwd %xmm5,%xmm1
    4157:	66 41 0f 61 e2       	punpcklwd %xmm10,%xmm4
    415c:	66 41 0f 69 f2       	punpckhwd %xmm10,%xmm6
    4161:	66 0f 61 dd          	punpcklwd %xmm5,%xmm3
    4165:	66 44 0f 6f d7       	movdqa %xmm7,%xmm10
    416a:	66 0f 6f ea          	movdqa %xmm2,%xmm5
    416e:	66 44 0f 69 d1       	punpckhwd %xmm1,%xmm10
    4173:	66 41 0f 61 e8       	punpcklwd %xmm8,%xmm5
    4178:	66 0f 61 f9          	punpcklwd %xmm1,%xmm7
    417c:	66 0f 61 d9          	punpcklwd %xmm1,%xmm3
    4180:	66 0f 6f ca          	movdqa %xmm2,%xmm1
    4184:	66 41 0f 61 fa       	punpcklwd %xmm10,%xmm7
    4189:	66 41 0f 69 da       	punpckhwd %xmm10,%xmm3
    418e:	66 41 0f 69 c8       	punpckhwd %xmm8,%xmm1
    4193:	66 44 0f 6f d5       	movdqa %xmm5,%xmm10
    4198:	66 41 0f 61 d0       	punpcklwd %xmm8,%xmm2
    419d:	66 44 0f 6f c0       	movdqa %xmm0,%xmm8
    41a2:	66 44 0f 69 d1       	punpckhwd %xmm1,%xmm10
    41a7:	66 45 0f 61 c1       	punpcklwd %xmm9,%xmm8
    41ac:	66 0f 61 e9          	punpcklwd %xmm1,%xmm5
    41b0:	66 0f 61 d1          	punpcklwd %xmm1,%xmm2
    41b4:	66 0f 6f c8          	movdqa %xmm0,%xmm1
    41b8:	66 41 0f 61 ea       	punpcklwd %xmm10,%xmm5
    41bd:	66 41 0f 69 d2       	punpckhwd %xmm10,%xmm2
    41c2:	66 41 0f 69 c9       	punpckhwd %xmm9,%xmm1
    41c7:	66 45 0f 6f d0       	movdqa %xmm8,%xmm10
    41cc:	66 41 0f 61 c1       	punpcklwd %xmm9,%xmm0
    41d1:	66 44 0f 69 d1       	punpckhwd %xmm1,%xmm10
    41d6:	66 44 0f 61 c1       	punpcklwd %xmm1,%xmm8
    41db:	66 0f 61 c1          	punpcklwd %xmm1,%xmm0
    41df:	66 0f 6f cc          	movdqa %xmm4,%xmm1
    41e3:	66 44 0f 6f cc       	movdqa %xmm4,%xmm9
    41e8:	66 45 0f 61 c2       	punpcklwd %xmm10,%xmm8
    41ed:	66 0f 61 cf          	punpcklwd %xmm7,%xmm1
    41f1:	66 41 0f 69 c2       	punpckhwd %xmm10,%xmm0
    41f6:	66 44 0f 69 cf       	punpckhwd %xmm7,%xmm9
    41fb:	66 44 0f 6f d1       	movdqa %xmm1,%xmm10
    4200:	66 0f 61 e7          	punpcklwd %xmm7,%xmm4
    4204:	66 0f 6f fd          	movdqa %xmm5,%xmm7
    4208:	66 45 0f 69 d1       	punpckhwd %xmm9,%xmm10
    420d:	66 41 0f 61 f8       	punpcklwd %xmm8,%xmm7
    4212:	66 41 0f 61 c9       	punpcklwd %xmm9,%xmm1
    4217:	66 41 0f 61 e1       	punpcklwd %xmm9,%xmm4
    421c:	66 44 0f 6f cd       	movdqa %xmm5,%xmm9
    4221:	66 41 0f 61 ca       	punpcklwd %xmm10,%xmm1
    4226:	66 45 0f 69 c8       	punpckhwd %xmm8,%xmm9
    422b:	66 41 0f 69 e2       	punpckhwd %xmm10,%xmm4
    4230:	66 41 0f 61 e8       	punpcklwd %xmm8,%xmm5
    4235:	66 44 0f 6f d7       	movdqa %xmm7,%xmm10
    423a:	66 41 0f 61 e9       	punpcklwd %xmm9,%xmm5
    423f:	66 41 0f 61 f9       	punpcklwd %xmm9,%xmm7
    4244:	66 45 0f 69 d1       	punpckhwd %xmm9,%xmm10
    4249:	66 44 0f 6f c6       	movdqa %xmm6,%xmm8
    424e:	66 41 0f 61 fa       	punpcklwd %xmm10,%xmm7
    4253:	66 41 0f 69 ea       	punpckhwd %xmm10,%xmm5
    4258:	66 44 0f 6f d6       	movdqa %xmm6,%xmm10
    425d:	66 44 0f 61 d3       	punpcklwd %xmm3,%xmm10
    4262:	66 44 0f 69 c3       	punpckhwd %xmm3,%xmm8
    4267:	66 0f 61 f3          	punpcklwd %xmm3,%xmm6
    426b:	66 45 0f 6f ca       	movdqa %xmm10,%xmm9
    4270:	66 0f 6f da          	movdqa %xmm2,%xmm3
    4274:	66 45 0f 61 d0       	punpcklwd %xmm8,%xmm10
    4279:	66 45 0f 69 c8       	punpckhwd %xmm8,%xmm9
    427e:	66 0f 61 d8          	punpcklwd %xmm0,%xmm3
    4282:	66 41 0f 61 f0       	punpcklwd %xmm8,%xmm6
    4287:	66 44 0f 6f c2       	movdqa %xmm2,%xmm8
    428c:	66 45 0f 61 d1       	punpcklwd %xmm9,%xmm10
    4291:	66 41 0f 69 f1       	punpckhwd %xmm9,%xmm6
    4296:	66 44 0f 69 c0       	punpckhwd %xmm0,%xmm8
    429b:	66 44 0f 6f cb       	movdqa %xmm3,%xmm9
    42a0:	66 0f 61 d0          	punpcklwd %xmm0,%xmm2
    42a4:	66 45 0f 69 c8       	punpckhwd %xmm8,%xmm9
    42a9:	66 41 0f 61 d8       	punpcklwd %xmm8,%xmm3
    42ae:	66 0f 6f c1          	movdqa %xmm1,%xmm0
    42b2:	66 41 0f 61 d9       	punpcklwd %xmm9,%xmm3
    42b7:	66 0f 61 c7          	punpcklwd %xmm7,%xmm0
    42bb:	66 41 0f 61 d0       	punpcklwd %xmm8,%xmm2
    42c0:	66 45 0f 6f da       	movdqa %xmm10,%xmm11
    42c5:	66 44 0f 6f c1       	movdqa %xmm1,%xmm8
    42ca:	66 41 0f 69 d1       	punpckhwd %xmm9,%xmm2
    42cf:	66 44 0f 69 c7       	punpckhwd %xmm7,%xmm8
    42d4:	66 44 0f 61 db       	punpcklwd %xmm3,%xmm11
    42d9:	66 44 0f 6f c8       	movdqa %xmm0,%xmm9
    42de:	66 0f 61 cf          	punpcklwd %xmm7,%xmm1
    42e2:	66 41 0f 6f fa       	movdqa %xmm10,%xmm7
    42e7:	66 45 0f 69 c8       	punpckhwd %xmm8,%xmm9
    42ec:	66 0f 69 fb          	punpckhwd %xmm3,%xmm7
    42f0:	66 41 0f 61 c0       	punpcklwd %xmm8,%xmm0
    42f5:	66 41 0f 61 c8       	punpcklwd %xmm8,%xmm1
    42fa:	66 44 0f 61 d3       	punpcklwd %xmm3,%xmm10
    42ff:	66 45 0f 6f c3       	movdqa %xmm11,%xmm8
    4304:	66 44 0f 61 df       	punpcklwd %xmm7,%xmm11
    4309:	66 44 0f 69 c7       	punpckhwd %xmm7,%xmm8
    430e:	66 44 0f 61 d7       	punpcklwd %xmm7,%xmm10
    4313:	66 0f 6f dc          	movdqa %xmm4,%xmm3
    4317:	66 45 0f 61 d8       	punpcklwd %xmm8,%xmm11
    431c:	66 45 0f 69 d0       	punpckhwd %xmm8,%xmm10
    4321:	66 44 0f 6f c4       	movdqa %xmm4,%xmm8
    4326:	66 44 0f 61 c5       	punpcklwd %xmm5,%xmm8
    432b:	66 0f 69 dd          	punpckhwd %xmm5,%xmm3
    432f:	66 0f 61 e5          	punpcklwd %xmm5,%xmm4
    4333:	66 41 0f 6f f8       	movdqa %xmm8,%xmm7
    4338:	66 0f 61 e3          	punpcklwd %xmm3,%xmm4
    433c:	66 44 0f 61 c3       	punpcklwd %xmm3,%xmm8
    4341:	66 0f 69 fb          	punpckhwd %xmm3,%xmm7
    4345:	66 0f 6f de          	movdqa %xmm6,%xmm3
    4349:	66 41 0f 61 c1       	punpcklwd %xmm9,%xmm0
    434e:	66 44 0f 61 c7       	punpcklwd %xmm7,%xmm8
    4353:	66 0f 69 e7          	punpckhwd %xmm7,%xmm4
    4357:	66 0f 6f fe          	movdqa %xmm6,%xmm7
    435b:	66 0f 61 fa          	punpcklwd %xmm2,%xmm7
    435f:	66 0f 69 da          	punpckhwd %xmm2,%xmm3
    4363:	66 0f 61 f2          	punpcklwd %xmm2,%xmm6
    4367:	66 0f 6f ef          	movdqa %xmm7,%xmm5
    436b:	66 41 0f 6f d4       	movdqa %xmm12,%xmm2
    4370:	66 41 0f 69 c9       	punpckhwd %xmm9,%xmm1
    4375:	66 0f 69 eb          	punpckhwd %xmm3,%xmm5
    4379:	66 0f 65 d0          	pcmpgtw %xmm0,%xmm2
    437d:	66 0f 61 fb          	punpcklwd %xmm3,%xmm7
    4381:	66 0f 61 f3          	punpcklwd %xmm3,%xmm6
    4385:	66 41 0f 6f dc       	movdqa %xmm12,%xmm3
    438a:	66 0f 61 fd          	punpcklwd %xmm5,%xmm7
    438e:	66 0f 65 d9          	pcmpgtw %xmm1,%xmm3
    4392:	66 44 0f 65 ec       	pcmpgtw %xmm4,%xmm13
    4397:	66 0f 69 f5          	punpckhwd %xmm5,%xmm6
    439b:	66 0f 6f e8          	movdqa %xmm0,%xmm5
    439f:	66 0f 69 c2          	punpckhwd %xmm2,%xmm0
    43a3:	66 0f 61 ea          	punpcklwd %xmm2,%xmm5
    43a7:	66 0f 6f d1          	movdqa %xmm1,%xmm2
    43ab:	66 44 0f 6f c8       	movdqa %xmm0,%xmm9
    43b0:	66 0f 61 d3          	punpcklwd %xmm3,%xmm2
    43b4:	66 0f 69 cb          	punpckhwd %xmm3,%xmm1
    43b8:	66 0f 6f dd          	movdqa %xmm5,%xmm3
    43bc:	66 0f fe da          	paddd  %xmm2,%xmm3
    43c0:	66 0f fa ea          	psubd  %xmm2,%xmm5
    43c4:	66 41 0f 6f d4       	movdqa %xmm12,%xmm2
    43c9:	66 41 0f 65 d0       	pcmpgtw %xmm8,%xmm2
    43ce:	66 44 0f fe c9       	paddd  %xmm1,%xmm9
    43d3:	66 0f fa c1          	psubd  %xmm1,%xmm0
    43d7:	66 0f 72 e3 01       	psrad  $0x1,%xmm3
    43dc:	66 41 0f 72 e1 01    	psrad  $0x1,%xmm9
    43e2:	66 41 0f 6f c8       	movdqa %xmm8,%xmm1
    43e7:	66 0f 72 e0 01       	psrad  $0x1,%xmm0
    43ec:	66 0f 72 e5 01       	psrad  $0x1,%xmm5
    43f1:	66 0f 61 ca          	punpcklwd %xmm2,%xmm1
    43f5:	66 44 0f 69 c2       	punpckhwd %xmm2,%xmm8
    43fa:	66 0f 6f d4          	movdqa %xmm4,%xmm2
    43fe:	66 41 0f 61 d5       	punpcklwd %xmm13,%xmm2
    4403:	66 41 0f 69 e5       	punpckhwd %xmm13,%xmm4
    4408:	66 44 0f 6f e9       	movdqa %xmm1,%xmm13
    440d:	66 44 0f fe ea       	paddd  %xmm2,%xmm13
    4412:	66 0f fa ca          	psubd  %xmm2,%xmm1
    4416:	66 45 0f 6f fd       	movdqa %xmm13,%xmm15
    441b:	66 0f 72 e1 01       	psrad  $0x1,%xmm1
    4420:	66 45 0f 6f e8       	movdqa %xmm8,%xmm13
    4425:	66 44 0f fe ec       	paddd  %xmm4,%xmm13
    442a:	66 41 0f 72 e7 01    	psrad  $0x1,%xmm15
    4430:	0f 29 4c 24 98       	movaps %xmm1,-0x68(%rsp)
    4435:	66 44 0f fa c4       	psubd  %xmm4,%xmm8
    443a:	66 45 0f 6f f5       	movdqa %xmm13,%xmm14
    443f:	66 41 0f 6f cf       	movdqa %xmm15,%xmm1
    4444:	66 45 0f 6f ea       	movdqa %xmm10,%xmm13
    4449:	44 0f 29 7c 24 c8    	movaps %xmm15,-0x38(%rsp)
    444f:	66 41 0f 72 e6 01    	psrad  $0x1,%xmm14
    4455:	66 41 0f 72 e0 01    	psrad  $0x1,%xmm8
    445b:	66 0f fe cb          	paddd  %xmm3,%xmm1
    445f:	66 41 0f 6f d6       	movdqa %xmm14,%xmm2
    4464:	66 0f 72 e1 01       	psrad  $0x1,%xmm1
    4469:	44 0f 29 44 24 a8    	movaps %xmm8,-0x58(%rsp)
    446f:	66 0f fa 5c 24 c8    	psubd  -0x38(%rsp),%xmm3
    4475:	66 41 0f fe d1       	paddd  %xmm9,%xmm2
    447a:	66 0f 6f e1          	movdqa %xmm1,%xmm4
    447e:	44 0f 29 74 24 b8    	movaps %xmm14,-0x48(%rsp)
    4484:	66 44 0f fa 4c 24 b8 	psubd  -0x48(%rsp),%xmm9
    448b:	66 0f 72 e2 01       	psrad  $0x1,%xmm2
    4490:	66 0f 72 e3 01       	psrad  $0x1,%xmm3
    4495:	66 0f 61 ca          	punpcklwd %xmm2,%xmm1
    4499:	66 41 0f 72 e1 01    	psrad  $0x1,%xmm9
    449f:	66 0f 69 e2          	punpckhwd %xmm2,%xmm4
    44a3:	66 0f 6f d1          	movdqa %xmm1,%xmm2
    44a7:	66 0f 61 cc          	punpcklwd %xmm4,%xmm1
    44ab:	66 0f 69 d4          	punpckhwd %xmm4,%xmm2
    44af:	66 41 0f 6f e4       	movdqa %xmm12,%xmm4
    44b4:	66 41 0f 65 e3       	pcmpgtw %xmm11,%xmm4
    44b9:	66 0f 61 ca          	punpcklwd %xmm2,%xmm1
    44bd:	66 0f 6f d4          	movdqa %xmm4,%xmm2
    44c1:	66 41 0f 6f e3       	movdqa %xmm11,%xmm4
    44c6:	66 0f 61 e2          	punpcklwd %xmm2,%xmm4
    44ca:	66 44 0f 69 da       	punpckhwd %xmm2,%xmm11
    44cf:	66 41 0f 6f d4       	movdqa %xmm12,%xmm2
    44d4:	66 41 0f 65 d2       	pcmpgtw %xmm10,%xmm2
    44d9:	66 45 0f 6f c3       	movdqa %xmm11,%xmm8
    44de:	66 44 0f 69 d2       	punpckhwd %xmm2,%xmm10
    44e3:	66 44 0f 61 ea       	punpcklwd %xmm2,%xmm13
    44e8:	66 0f 6f d4          	movdqa %xmm4,%xmm2
    44ec:	66 45 0f fa da       	psubd  %xmm10,%xmm11
    44f1:	66 45 0f fe c2       	paddd  %xmm10,%xmm8
    44f6:	66 44 0f 6f d7       	movdqa %xmm7,%xmm10
    44fb:	66 41 0f 72 e3 01    	psrad  $0x1,%xmm11
    4501:	66 41 0f fa e5       	psubd  %xmm13,%xmm4
    4506:	66 41 0f fe d5       	paddd  %xmm13,%xmm2
    450b:	66 0f 72 e4 01       	psrad  $0x1,%xmm4
    4510:	66 41 0f 72 e0 01    	psrad  $0x1,%xmm8
    4516:	66 45 0f 6f fb       	movdqa %xmm11,%xmm15
    451b:	66 45 0f 6f dc       	movdqa %xmm12,%xmm11
    4520:	0f 29 64 24 88       	movaps %xmm4,-0x78(%rsp)
    4525:	66 0f 6f e6          	movdqa %xmm6,%xmm4
    4529:	66 44 0f 65 df       	pcmpgtw %xmm7,%xmm11
    452e:	66 0f 72 e2 01       	psrad  $0x1,%xmm2
    4533:	66 45 0f 61 d3       	punpcklwd %xmm11,%xmm10
    4538:	66 41 0f 69 fb       	punpckhwd %xmm11,%xmm7
    453d:	66 45 0f 6f dc       	movdqa %xmm12,%xmm11
    4542:	66 44 0f 65 de       	pcmpgtw %xmm6,%xmm11
    4547:	66 41 0f 61 e3       	punpcklwd %xmm11,%xmm4
    454c:	66 41 0f 69 f3       	punpckhwd %xmm11,%xmm6
    4551:	66 44 0f 6f df       	movdqa %xmm7,%xmm11
    4556:	66 44 0f 6f f4       	movdqa %xmm4,%xmm14
    455b:	66 41 0f 6f e2       	movdqa %xmm10,%xmm4
    4560:	66 44 0f fe de       	paddd  %xmm6,%xmm11
    4565:	66 41 0f fe e6       	paddd  %xmm14,%xmm4
    456a:	66 41 0f 72 e3 01    	psrad  $0x1,%xmm11
    4570:	66 0f fa fe          	psubd  %xmm6,%xmm7
    4574:	66 44 0f 6f ec       	movdqa %xmm4,%xmm13
    4579:	66 41 0f 6f e3       	movdqa %xmm11,%xmm4
    457e:	66 45 0f fa d6       	psubd  %xmm14,%xmm10
    4583:	66 41 0f 72 e5 01    	psrad  $0x1,%xmm13
    4589:	66 0f 72 e7 01       	psrad  $0x1,%xmm7
    458e:	66 41 0f fe e0       	paddd  %xmm8,%xmm4
    4593:	66 41 0f 6f f5       	movdqa %xmm13,%xmm6
    4598:	66 44 0f 6f f4       	movdqa %xmm4,%xmm14
    459d:	66 45 0f fa c3       	psubd  %xmm11,%xmm8
    45a2:	66 41 0f 72 e6 01    	psrad  $0x1,%xmm14
    45a8:	66 41 0f 72 e0 01    	psrad  $0x1,%xmm8
    45ae:	66 0f fe f2          	paddd  %xmm2,%xmm6
    45b2:	66 0f 72 e6 01       	psrad  $0x1,%xmm6
    45b7:	66 41 0f 72 e2 01    	psrad  $0x1,%xmm10
    45bd:	66 41 0f fa d5       	psubd  %xmm13,%xmm2
    45c2:	66 0f 6f e6          	movdqa %xmm6,%xmm4
    45c6:	66 0f 72 e2 01       	psrad  $0x1,%xmm2
    45cb:	66 41 0f 61 f6       	punpcklwd %xmm14,%xmm6
    45d0:	66 41 0f 69 e6       	punpckhwd %xmm14,%xmm4
    45d5:	66 44 0f 6f f6       	movdqa %xmm6,%xmm14
    45da:	66 44 0f 69 f4       	punpckhwd %xmm4,%xmm14
    45df:	66 0f 61 f4          	punpcklwd %xmm4,%xmm6
    45e3:	66 0f 6f e3          	movdqa %xmm3,%xmm4
    45e7:	66 41 0f 61 d9       	punpcklwd %xmm9,%xmm3
    45ec:	66 41 0f 69 e1       	punpckhwd %xmm9,%xmm4
    45f1:	66 41 0f 61 f6       	punpcklwd %xmm14,%xmm6
    45f6:	66 44 0f 6f 74 24 a8 	movdqa -0x58(%rsp),%xmm14
    45fd:	66 44 0f 6f cb       	movdqa %xmm3,%xmm9
    4602:	66 0f 61 dc          	punpcklwd %xmm4,%xmm3
    4606:	66 44 0f 69 cc       	punpckhwd %xmm4,%xmm9
    460b:	66 41 0f 61 d9       	punpcklwd %xmm9,%xmm3
    4610:	66 44 0f 6f ca       	movdqa %xmm2,%xmm9
    4615:	66 41 0f 61 d0       	punpcklwd %xmm8,%xmm2
    461a:	66 45 0f 69 c8       	punpckhwd %xmm8,%xmm9
    461f:	66 0f 6f e2          	movdqa %xmm2,%xmm4
    4623:	66 41 0f 69 e1       	punpckhwd %xmm9,%xmm4
    4628:	66 41 0f 61 d1       	punpcklwd %xmm9,%xmm2
    462d:	66 45 0f 6f ca       	movdqa %xmm10,%xmm9
    4632:	66 0f 61 d4          	punpcklwd %xmm4,%xmm2
    4636:	66 0f 6f e7          	movdqa %xmm7,%xmm4
    463a:	66 44 0f fe cd       	paddd  %xmm5,%xmm9
    463f:	66 0f fe e0          	paddd  %xmm0,%xmm4
    4643:	66 41 0f 72 e1 01    	psrad  $0x1,%xmm9
    4649:	66 41 0f fa ea       	psubd  %xmm10,%xmm5
    464e:	66 44 0f 6f c4       	movdqa %xmm4,%xmm8
    4653:	66 45 0f 6f d9       	movdqa %xmm9,%xmm11
    4658:	66 0f fa c7          	psubd  %xmm7,%xmm0
    465c:	66 41 0f 72 e0 01    	psrad  $0x1,%xmm8
    4662:	66 0f 72 e0 01       	psrad  $0x1,%xmm0
    4667:	66 44 0f 6f d2       	movdqa %xmm2,%xmm10
    466c:	66 45 0f 61 c8       	punpcklwd %xmm8,%xmm9
    4671:	66 0f 72 e5 01       	psrad  $0x1,%xmm5
    4676:	66 45 0f 69 d8       	punpckhwd %xmm8,%xmm11
    467b:	66 41 0f 6f e1       	movdqa %xmm9,%xmm4
    4680:	66 45 0f 61 cb       	punpcklwd %xmm11,%xmm9
    4685:	66 0f 6f fd          	movdqa %xmm5,%xmm7
    4689:	66 41 0f 69 e3       	punpckhwd %xmm11,%xmm4
    468e:	66 45 0f 6f df       	movdqa %xmm15,%xmm11
    4693:	66 0f 61 e8          	punpcklwd %xmm0,%xmm5
    4697:	66 44 0f 61 cc       	punpcklwd %xmm4,%xmm9
    469c:	66 0f 6f 64 24 88    	movdqa -0x78(%rsp),%xmm4
    46a2:	66 0f fa 64 24 98    	psubd  -0x68(%rsp),%xmm4
    46a8:	66 45 0f fa de       	psubd  %xmm14,%xmm11
    46ad:	66 41 0f 72 e3 01    	psrad  $0x1,%xmm11
    46b3:	66 0f 69 f8          	punpckhwd %xmm0,%xmm7
    46b7:	66 0f 6f c5          	movdqa %xmm5,%xmm0
    46bb:	66 44 0f 6f c4       	movdqa %xmm4,%xmm8
    46c0:	66 0f 69 c7          	punpckhwd %xmm7,%xmm0
    46c4:	66 0f 61 ef          	punpcklwd %xmm7,%xmm5
    46c8:	66 41 0f 72 e0 01    	psrad  $0x1,%xmm8
    46ce:	66 0f 61 e8          	punpcklwd %xmm0,%xmm5
    46d2:	66 41 0f 6f c6       	movdqa %xmm14,%xmm0
    46d7:	66 41 0f 6f e0       	movdqa %xmm8,%xmm4
    46dc:	66 45 0f 61 c3       	punpcklwd %xmm11,%xmm8
    46e1:	66 41 0f fe c7       	paddd  %xmm15,%xmm0
    46e6:	66 41 0f 69 e3       	punpckhwd %xmm11,%xmm4
    46eb:	66 0f 72 e0 01       	psrad  $0x1,%xmm0
    46f0:	66 45 0f 6f d8       	movdqa %xmm8,%xmm11
    46f5:	66 44 0f 69 dc       	punpckhwd %xmm4,%xmm11
    46fa:	66 44 0f 61 c4       	punpcklwd %xmm4,%xmm8
    46ff:	66 0f 6f 64 24 88    	movdqa -0x78(%rsp),%xmm4
    4705:	66 0f fe 64 24 98    	paddd  -0x68(%rsp),%xmm4
    470b:	66 45 0f 61 c3       	punpcklwd %xmm11,%xmm8
    4710:	66 0f 72 e4 01       	psrad  $0x1,%xmm4
    4715:	66 0f 6f fc          	movdqa %xmm4,%xmm7
    4719:	66 0f 61 e0          	punpcklwd %xmm0,%xmm4
    471d:	66 0f 69 f8          	punpckhwd %xmm0,%xmm7
    4721:	66 0f 6f c4          	movdqa %xmm4,%xmm0
    4725:	66 0f 69 c7          	punpckhwd %xmm7,%xmm0
    4729:	66 0f 61 e7          	punpcklwd %xmm7,%xmm4
    472d:	66 0f 6f f9          	movdqa %xmm1,%xmm7
    4731:	66 0f 61 e0          	punpcklwd %xmm0,%xmm4
    4735:	66 41 0f 61 f9       	punpcklwd %xmm9,%xmm7
    473a:	66 41 0f 69 c9       	punpckhwd %xmm9,%xmm1
    473f:	66 0f 6f c6          	movdqa %xmm6,%xmm0
    4743:	66 44 0f 6f cb       	movdqa %xmm3,%xmm9
    4748:	66 41 0f 69 f0       	punpckhwd %xmm8,%xmm6
    474d:	66 44 0f 61 cd       	punpcklwd %xmm5,%xmm9
    4752:	66 0f 69 dd          	punpckhwd %xmm5,%xmm3
    4756:	66 41 0f 61 c0       	punpcklwd %xmm8,%xmm0
    475b:	66 0f 6f ef          	movdqa %xmm7,%xmm5
    475f:	66 44 0f 6f c7       	movdqa %xmm7,%xmm8
    4764:	66 0f 69 d4          	punpckhwd %xmm4,%xmm2
    4768:	66 44 0f 61 d4       	punpcklwd %xmm4,%xmm10
    476d:	66 45 0f 61 c1       	punpcklwd %xmm9,%xmm8
    4772:	66 41 0f 69 e9       	punpckhwd %xmm9,%xmm5
    4777:	66 0f 6f fe          	movdqa %xmm6,%xmm7
    477b:	66 44 0f 6f c8       	movdqa %xmm0,%xmm9
    4780:	66 0f 69 f2          	punpckhwd %xmm2,%xmm6
    4784:	66 0f 61 fa          	punpcklwd %xmm2,%xmm7
    4788:	66 45 0f 61 ca       	punpcklwd %xmm10,%xmm9
    478d:	66 41 0f 6f d0       	movdqa %xmm8,%xmm2
    4792:	66 0f 6f e1          	movdqa %xmm1,%xmm4
    4796:	66 41 0f 61 d1       	punpcklwd %xmm9,%xmm2
    479b:	66 41 0f 69 c2       	punpckhwd %xmm10,%xmm0
    47a0:	66 0f 61 e3          	punpcklwd %xmm3,%xmm4
    47a4:	0f 11 50 80          	movups %xmm2,-0x80(%rax)
    47a8:	66 0f 6f d5          	movdqa %xmm5,%xmm2
    47ac:	66 0f 69 e8          	punpckhwd %xmm0,%xmm5
    47b0:	66 0f 61 d0          	punpcklwd %xmm0,%xmm2
    47b4:	66 0f 6f c4          	movdqa %xmm4,%xmm0
    47b8:	66 0f 69 cb          	punpckhwd %xmm3,%xmm1
    47bc:	0f 11 68 b0          	movups %xmm5,-0x50(%rax)
    47c0:	66 0f 61 c7          	punpcklwd %xmm7,%xmm0
    47c4:	66 41 0f 6f d8       	movdqa %xmm8,%xmm3
    47c9:	0f 11 50 a0          	movups %xmm2,-0x60(%rax)
    47cd:	0f 11 40 c0          	movups %xmm0,-0x40(%rax)
    47d1:	66 0f 6f c4          	movdqa %xmm4,%xmm0
    47d5:	66 41 0f 69 d9       	punpckhwd %xmm9,%xmm3
    47da:	66 0f 69 c7          	punpckhwd %xmm7,%xmm0
    47de:	0f 11 58 90          	movups %xmm3,-0x70(%rax)
    47e2:	0f 11 40 d0          	movups %xmm0,-0x30(%rax)
    47e6:	66 0f 6f c1          	movdqa %xmm1,%xmm0
    47ea:	66 0f 69 ce          	punpckhwd %xmm6,%xmm1
    47ee:	66 0f 61 c6          	punpcklwd %xmm6,%xmm0
    47f2:	0f 11 48 f0          	movups %xmm1,-0x10(%rax)
    47f6:	0f 11 40 e0          	movups %xmm0,-0x20(%rax)
    47fa:	48 39 d0             	cmp    %rdx,%rax
    47fd:	0f 85 ec f8 ff ff    	jne    40ef <riscv_dsp_cfft_rd4_q15+0x80f>
    4803:	48 89 ca             	mov    %rcx,%rdx
    4806:	48 83 e2 f8          	and    $0xfffffffffffffff8,%rdx
    480a:	48 89 d0             	mov    %rdx,%rax
    480d:	48 c1 e0 04          	shl    $0x4,%rax
    4811:	48 03 04 24          	add    (%rsp),%rax
    4815:	48 39 ca             	cmp    %rcx,%rdx
    4818:	0f 84 db 00 00 00    	je     48f9 <riscv_dsp_cfft_rd4_q15+0x1019>
    481e:	66 90                	xchg   %ax,%ax
    4820:	0f bf 70 08          	movswl 0x8(%rax),%esi
    4824:	0f bf 10             	movswl (%rax),%edx
    4827:	48 83 c0 10          	add    $0x10,%rax
    482b:	0f bf 78 fc          	movswl -0x4(%rax),%edi
    482f:	44 0f bf 48 fa       	movswl -0x6(%rax),%r9d
    4834:	8d 0c 32             	lea    (%rdx,%rsi,1),%ecx
    4837:	29 f2                	sub    %esi,%edx
    4839:	0f bf 70 f4          	movswl -0xc(%rax),%esi
    483d:	0f bf 58 fe          	movswl -0x2(%rax),%ebx
    4841:	d1 f9                	sar    %ecx
    4843:	d1 fa                	sar    %edx
    4845:	44 8d 1c 3e          	lea    (%rsi,%rdi,1),%r11d
    4849:	29 fe                	sub    %edi,%esi
    484b:	0f bf 78 f2          	movswl -0xe(%rax),%edi
    484f:	41 d1 fb             	sar    %r11d
    4852:	d1 fe                	sar    %esi
    4854:	46 8d 04 0f          	lea    (%rdi,%r9,1),%r8d
    4858:	44 29 cf             	sub    %r9d,%edi
    485b:	44 0f bf 48 f6       	movswl -0xa(%rax),%r9d
    4860:	41 d1 f8             	sar    %r8d
    4863:	d1 ff                	sar    %edi
    4865:	45 8d 14 19          	lea    (%r9,%rbx,1),%r10d
    4869:	41 29 d9             	sub    %ebx,%r9d
    486c:	42 8d 1c 19          	lea    (%rcx,%r11,1),%ebx
    4870:	44 29 d9             	sub    %r11d,%ecx
    4873:	41 d1 fa             	sar    %r10d
    4876:	66 0f 6e c3          	movd   %ebx,%xmm0
    487a:	66 0f 6e c9          	movd   %ecx,%xmm1
    487e:	41 d1 f9             	sar    %r9d
    4881:	43 8d 1c 02          	lea    (%r10,%r8,1),%ebx
    4885:	45 29 d0             	sub    %r10d,%r8d
    4888:	41 8d 0c 11          	lea    (%r9,%rdx,1),%ecx
    488c:	44 29 ca             	sub    %r9d,%edx
    488f:	66 41 0f 6e f0       	movd   %r8d,%xmm6
    4894:	66 0f 6e d2          	movd   %edx,%xmm2
    4898:	66 0f 62 ce          	punpckldq %xmm6,%xmm1
    489c:	66 0f 6e f3          	movd   %ebx,%xmm6
    48a0:	66 0f 62 c6          	punpckldq %xmm6,%xmm0
    48a4:	66 0f 6c c1          	punpcklqdq %xmm1,%xmm0
    48a8:	66 0f 6e c9          	movd   %ecx,%xmm1
    48ac:	89 f9                	mov    %edi,%ecx
    48ae:	29 f1                	sub    %esi,%ecx
    48b0:	66 0f 72 e0 01       	psrad  $0x1,%xmm0
    48b5:	01 fe                	add    %edi,%esi
    48b7:	66 0f 6e f6          	movd   %esi,%xmm6
    48bb:	66 0f 62 d6          	punpckldq %xmm6,%xmm2
    48bf:	66 0f 6e f1          	movd   %ecx,%xmm6
    48c3:	66 0f 62 ce          	punpckldq %xmm6,%xmm1
    48c7:	66 0f 6c ca          	punpcklqdq %xmm2,%xmm1
    48cb:	66 0f 6f d0          	movdqa %xmm0,%xmm2
    48cf:	66 0f 72 e1 01       	psrad  $0x1,%xmm1
    48d4:	66 0f 61 c1          	punpcklwd %xmm1,%xmm0
    48d8:	66 0f 69 d1          	punpckhwd %xmm1,%xmm2
    48dc:	66 0f 6f c8          	movdqa %xmm0,%xmm1
    48e0:	66 0f 61 c2          	punpcklwd %xmm2,%xmm0
    48e4:	66 0f 69 ca          	punpckhwd %xmm2,%xmm1
    48e8:	66 0f 61 c1          	punpcklwd %xmm1,%xmm0
    48ec:	0f 11 40 f0          	movups %xmm0,-0x10(%rax)
    48f0:	48 39 c5             	cmp    %rax,%rbp
    48f3:	0f 85 27 ff ff ff    	jne    4820 <riscv_dsp_cfft_rd4_q15+0xf40>
    48f9:	0f b6 4c 24 14       	movzbl 0x14(%rsp),%ecx
    48fe:	b8 02 00 00 00       	mov    $0x2,%eax
    4903:	48 8b 34 24          	mov    (%rsp),%rsi
    4907:	44 8b 64 24 1c       	mov    0x1c(%rsp),%r12d
    490c:	d3 e0                	shl    %cl,%eax
    490e:	48 8b 4c 24 20       	mov    0x20(%rsp),%rcx
    4913:	48 8d 7c 46 fe       	lea    -0x2(%rsi,%rax,2),%rdi
    4918:	0f b7 46 04          	movzwl 0x4(%rsi),%eax
    491c:	44 89 e3             	mov    %r12d,%ebx
    491f:	0f b7 11             	movzwl (%rcx),%edx
    4922:	66 89 56 04          	mov    %dx,0x4(%rsi)
    4926:	66 89 01             	mov    %ax,(%rcx)
    4929:	43 8d 44 24 01       	lea    0x1(%r12,%r12,1),%eax
    492e:	0f b7 56 06          	movzwl 0x6(%rsi),%edx
    4932:	48 8d 04 46          	lea    (%rsi,%rax,2),%rax
    4936:	0f b7 08             	movzwl (%rax),%ecx
    4939:	66 89 4e 06          	mov    %cx,0x6(%rsi)
    493d:	8b 4c 24 18          	mov    0x18(%rsp),%ecx
    4941:	66 89 10             	mov    %dx,(%rax)
    4944:	44 89 e0             	mov    %r12d,%eax
    4947:	ba 04 00 00 00       	mov    $0x4,%edx
    494c:	41 89 c9             	mov    %ecx,%r9d
    494f:	c1 e9 03             	shr    $0x3,%ecx
    4952:	41 c1 e9 02          	shr    $0x2,%r9d
    4956:	41 89 ca             	mov    %ecx,%r10d
    4959:	44 31 cb             	xor    %r9d,%ebx
    495c:	41 89 db             	mov    %ebx,%r11d
    495f:	89 cb                	mov    %ecx,%ebx
    4961:	b9 04 00 00 00       	mov    $0x4,%ecx
    4966:	44 31 db             	xor    %r11d,%ebx
    4969:	89 5c 24 88          	mov    %ebx,-0x78(%rsp)
    496d:	0f 1f 00             	nopl   (%rax)
    4970:	44 31 d8             	xor    %r11d,%eax
    4973:	41 85 c1             	test   %eax,%r9d
    4976:	75 13                	jne    498b <riscv_dsp_cfft_rd4_q15+0x10ab>
    4978:	45 89 c8             	mov    %r9d,%r8d
    497b:	0f 1f 44 00 00       	nopl   0x0(%rax,%rax,1)
    4980:	41 d1 e8             	shr    %r8d
    4983:	44 31 c0             	xor    %r8d,%eax
    4986:	41 85 c0             	test   %eax,%r8d
    4989:	74 f5                	je     4980 <riscv_dsp_cfft_rd4_q15+0x10a0>
    498b:	44 8d 41 fe          	lea    -0x2(%rcx),%r8d
    498f:	44 39 c0             	cmp    %r8d,%eax
    4992:	0f 86 8f 00 00 00    	jbe    4a27 <riscv_dsp_cfft_rd4_q15+0x1147>
    4998:	41 89 d0             	mov    %edx,%r8d
    499b:	8d 1c 00             	lea    (%rax,%rax,1),%ebx
    499e:	4e 8d 2c 46          	lea    (%rsi,%r8,2),%r13
    49a2:	49 89 d8             	mov    %rbx,%r8
    49a5:	48 8d 1c 5e          	lea    (%rsi,%rbx,2),%rbx
    49a9:	45 0f b7 75 00       	movzwl 0x0(%r13),%r14d
    49ae:	44 0f b7 3b          	movzwl (%rbx),%r15d
    49b2:	41 83 c0 01          	add    $0x1,%r8d
    49b6:	4e 8d 04 46          	lea    (%rsi,%r8,2),%r8
    49ba:	66 45 89 7d 00       	mov    %r15w,0x0(%r13)
    49bf:	66 44 89 33          	mov    %r14w,(%rbx)
    49c3:	8d 5a 01             	lea    0x1(%rdx),%ebx
    49c6:	45 0f b7 30          	movzwl (%r8),%r14d
    49ca:	48 8d 1c 5e          	lea    (%rsi,%rbx,2),%rbx
    49ce:	44 0f b7 2b          	movzwl (%rbx),%r13d
    49d2:	66 44 89 33          	mov    %r14w,(%rbx)
    49d6:	89 d3                	mov    %edx,%ebx
    49d8:	f7 db                	neg    %ebx
    49da:	66 45 89 28          	mov    %r13w,(%r8)
    49de:	41 89 c0             	mov    %eax,%r8d
    49e1:	48 63 db             	movslq %ebx,%rbx
    49e4:	41 f7 d8             	neg    %r8d
    49e7:	48 01 db             	add    %rbx,%rbx
    49ea:	45 01 c0             	add    %r8d,%r8d
    49ed:	4c 8d 34 1f          	lea    (%rdi,%rbx,1),%r14
    49f1:	48 8d 5c 1f fe       	lea    -0x2(%rdi,%rbx,1),%rbx
    49f6:	4d 63 c0             	movslq %r8d,%r8
    49f9:	45 0f b7 3e          	movzwl (%r14),%r15d
    49fd:	4d 01 c0             	add    %r8,%r8
    4a00:	4e 8d 2c 07          	lea    (%rdi,%r8,1),%r13
    4a04:	4e 8d 44 07 fe       	lea    -0x2(%rdi,%r8,1),%r8
    4a09:	41 0f b7 6d 00       	movzwl 0x0(%r13),%ebp
    4a0e:	66 41 89 2e          	mov    %bp,(%r14)
    4a12:	66 45 89 7d 00       	mov    %r15w,0x0(%r13)
    4a17:	44 0f b7 2b          	movzwl (%rbx),%r13d
    4a1b:	45 0f b7 30          	movzwl (%r8),%r14d
    4a1f:	66 44 89 33          	mov    %r14w,(%rbx)
    4a23:	66 45 89 28          	mov    %r13w,(%r8)
    4a27:	44 01 e0             	add    %r12d,%eax
    4a2a:	44 8d 42 02          	lea    0x2(%rdx),%r8d
    4a2e:	8d 1c 00             	lea    (%rax,%rax,1),%ebx
    4a31:	4e 8d 2c 46          	lea    (%rsi,%r8,2),%r13
    4a35:	49 89 d8             	mov    %rbx,%r8
    4a38:	48 8d 1c 5e          	lea    (%rsi,%rbx,2),%rbx
    4a3c:	45 0f b7 75 00       	movzwl 0x0(%r13),%r14d
    4a41:	44 0f b7 3b          	movzwl (%rbx),%r15d
    4a45:	41 83 c0 01          	add    $0x1,%r8d
    4a49:	4e 8d 04 46          	lea    (%rsi,%r8,2),%r8
    4a4d:	66 45 89 7d 00       	mov    %r15w,0x0(%r13)
    4a52:	66 44 89 33          	mov    %r14w,(%rbx)
    4a56:	8d 5a 03             	lea    0x3(%rdx),%ebx
    4a59:	45 0f b7 30          	movzwl (%r8),%r14d
    4a5d:	48 8d 1c 5e          	lea    (%rsi,%rbx,2),%rbx
    4a61:	44 0f b7 2b          	movzwl (%rbx),%r13d
    4a65:	66 44 89 33          	mov    %r14w,(%rbx)
    4a69:	66 45 89 28          	mov    %r13w,(%r8)
    4a6d:	41 39 cc             	cmp    %ecx,%r12d
    4a70:	0f 86 71 02 00 00    	jbe    4ce7 <riscv_dsp_cfft_rd4_q15+0x1407>
    4a76:	33 44 24 88          	xor    -0x78(%rsp),%eax
    4a7a:	41 85 c2             	test   %eax,%r10d
    4a7d:	75 14                	jne    4a93 <riscv_dsp_cfft_rd4_q15+0x11b3>
    4a7f:	45 89 d0             	mov    %r10d,%r8d
    4a82:	66 0f 1f 44 00 00    	nopw   0x0(%rax,%rax,1)
    4a88:	41 d1 e8             	shr    %r8d
    4a8b:	44 31 c0             	xor    %r8d,%eax
    4a8e:	41 85 c0             	test   %eax,%r8d
    4a91:	74 f5                	je     4a88 <riscv_dsp_cfft_rd4_q15+0x11a8>
    4a93:	39 c8                	cmp    %ecx,%eax
    4a95:	0f 86 93 00 00 00    	jbe    4b2e <riscv_dsp_cfft_rd4_q15+0x124e>
    4a9b:	44 8d 42 04          	lea    0x4(%rdx),%r8d
    4a9f:	8d 1c 00             	lea    (%rax,%rax,1),%ebx
    4aa2:	4e 8d 2c 46          	lea    (%rsi,%r8,2),%r13
    4aa6:	49 89 d8             	mov    %rbx,%r8
    4aa9:	48 8d 1c 5e          	lea    (%rsi,%rbx,2),%rbx
    4aad:	45 0f b7 75 00       	movzwl 0x0(%r13),%r14d
    4ab2:	44 0f b7 3b          	movzwl (%rbx),%r15d
    4ab6:	41 83 c0 01          	add    $0x1,%r8d
    4aba:	4e 8d 04 46          	lea    (%rsi,%r8,2),%r8
    4abe:	66 45 89 7d 00       	mov    %r15w,0x0(%r13)
    4ac3:	66 44 89 33          	mov    %r14w,(%rbx)
    4ac7:	8d 5a 05             	lea    0x5(%rdx),%ebx
    4aca:	45 0f b7 30          	movzwl (%r8),%r14d
    4ace:	48 8d 1c 5e          	lea    (%rsi,%rbx,2),%rbx
    4ad2:	44 0f b7 2b          	movzwl (%rbx),%r13d
    4ad6:	66 44 89 33          	mov    %r14w,(%rbx)
    4ada:	bb fc ff ff ff       	mov    $0xfffffffc,%ebx
    4adf:	29 d3                	sub    %edx,%ebx
    4ae1:	66 45 89 28          	mov    %r13w,(%r8)
    4ae5:	41 89 c0             	mov    %eax,%r8d
    4ae8:	48 63 db             	movslq %ebx,%rbx
    4aeb:	41 f7 d8             	neg    %r8d
    4aee:	48 01 db             	add    %rbx,%rbx
    4af1:	45 01 c0             	add    %r8d,%r8d
    4af4:	4c 8d 34 1f          	lea    (%rdi,%rbx,1),%r14
    4af8:	48 8d 5c 1f fe       	lea    -0x2(%rdi,%rbx,1),%rbx
    4afd:	4d 63 c0             	movslq %r8d,%r8
    4b00:	45 0f b7 3e          	movzwl (%r14),%r15d
    4b04:	4d 01 c0             	add    %r8,%r8
    4b07:	4e 8d 2c 07          	lea    (%rdi,%r8,1),%r13
    4b0b:	4e 8d 44 07 fe       	lea    -0x2(%rdi,%r8,1),%r8
    4b10:	41 0f b7 6d 00       	movzwl 0x0(%r13),%ebp
    4b15:	66 41 89 2e          	mov    %bp,(%r14)
    4b19:	66 45 89 7d 00       	mov    %r15w,0x0(%r13)
    4b1e:	44 0f b7 2b          	movzwl (%rbx),%r13d
    4b22:	45 0f b7 30          	movzwl (%r8),%r14d
    4b26:	66 44 89 33          	mov    %r14w,(%rbx)
    4b2a:	66 45 89 28          	mov    %r13w,(%r8)
    4b2e:	44 01 e0             	add    %r12d,%eax
    4b31:	44 8d 42 06          	lea    0x6(%rdx),%r8d
    4b35:	83 c1 04             	add    $0x4,%ecx
    4b38:	8d 1c 00             	lea    (%rax,%rax,1),%ebx
    4b3b:	4e 8d 2c 46          	lea    (%rsi,%r8,2),%r13
    4b3f:	49 89 d8             	mov    %rbx,%r8
    4b42:	48 8d 1c 5e          	lea    (%rsi,%rbx,2),%rbx
    4b46:	45 0f b7 75 00       	movzwl 0x0(%r13),%r14d
    4b4b:	44 0f b7 3b          	movzwl (%rbx),%r15d
    4b4f:	41 83 c0 01          	add    $0x1,%r8d
    4b53:	4e 8d 04 46          	lea    (%rsi,%r8,2),%r8
    4b57:	66 45 89 7d 00       	mov    %r15w,0x0(%r13)
    4b5c:	66 44 89 33          	mov    %r14w,(%rbx)
    4b60:	8d 5a 07             	lea    0x7(%rdx),%ebx
    4b63:	45 0f b7 30          	movzwl (%r8),%r14d
    4b67:	83 c2 08             	add    $0x8,%edx
    4b6a:	48 8d 1c 5e          	lea    (%rsi,%rbx,2),%rbx
    4b6e:	44 0f b7 2b          	movzwl (%rbx),%r13d
    4b72:	66 44 89 33          	mov    %r14w,(%rbx)
    4b76:	66 45 89 28          	mov    %r13w,(%r8)
    4b7a:	e9 f1 fd ff ff       	jmp    4970 <riscv_dsp_cfft_rd4_q15+0x1090>
    4b7f:	90                   	nop
    4b80:	8d b1 00 ff ff ff    	lea    -0x100(%rcx),%esi
    4b86:	bf 00 01 00 00       	mov    $0x100,%edi
    4b8b:	29 f7                	sub    %esi,%edi
    4b8d:	85 ff                	test   %edi,%edi
    4b8f:	0f 8e 93 00 00 00    	jle    4c28 <riscv_dsp_cfft_rd4_q15+0x1348>
    4b95:	48 8d 0d 48 2a 00 00 	lea    0x2a48(%rip),%rcx        # 75e4 <riscv_dsp_cos_table_q15_1024+0x4>
    4b9c:	48 63 ff             	movslq %edi,%rdi
    4b9f:	48 63 f6             	movslq %esi,%rsi
    4ba2:	0f b7 3c 79          	movzwl (%rcx,%rdi,2),%edi
    4ba6:	0f b7 34 71          	movzwl (%rcx,%rsi,2),%esi
    4baa:	f7 df                	neg    %edi
    4bac:	e9 26 f3 ff ff       	jmp    3ed7 <riscv_dsp_cfft_rd4_q15+0x5f7>
    4bb1:	0f 1f 80 00 00 00 00 	nopl   0x0(%rax)
    4bb8:	44 8d 81 00 ff ff ff 	lea    -0x100(%rcx),%r8d
    4bbf:	41 b9 00 01 00 00    	mov    $0x100,%r9d
    4bc5:	45 29 c1             	sub    %r8d,%r9d
    4bc8:	45 85 c9             	test   %r9d,%r9d
    4bcb:	0f 8e 97 00 00 00    	jle    4c68 <riscv_dsp_cfft_rd4_q15+0x1388>
    4bd1:	48 8d 0d 0c 2a 00 00 	lea    0x2a0c(%rip),%rcx        # 75e4 <riscv_dsp_cos_table_q15_1024+0x4>
    4bd8:	4d 63 c9             	movslq %r9d,%r9
    4bdb:	4d 63 c0             	movslq %r8d,%r8
    4bde:	46 0f b7 24 49       	movzwl (%rcx,%r9,2),%r12d
    4be3:	46 0f b7 2c 41       	movzwl (%rcx,%r8,2),%r13d
    4be8:	41 f7 dc             	neg    %r12d
    4beb:	e9 20 f3 ff ff       	jmp    3f10 <riscv_dsp_cfft_rd4_q15+0x630>
    4bf0:	8d 88 00 ff ff ff    	lea    -0x100(%rax),%ecx
    4bf6:	ba 00 01 00 00       	mov    $0x100,%edx
    4bfb:	29 ca                	sub    %ecx,%edx
    4bfd:	85 d2                	test   %edx,%edx
    4bff:	0f 8e ab 00 00 00    	jle    4cb0 <riscv_dsp_cfft_rd4_q15+0x13d0>
    4c05:	48 8d 05 d8 29 00 00 	lea    0x29d8(%rip),%rax        # 75e4 <riscv_dsp_cos_table_q15_1024+0x4>
    4c0c:	48 63 d2             	movslq %edx,%rdx
    4c0f:	48 63 c9             	movslq %ecx,%rcx
    4c12:	0f b7 14 50          	movzwl (%rax,%rdx,2),%edx
    4c16:	0f b7 04 48          	movzwl (%rax,%rcx,2),%eax
    4c1a:	f7 da                	neg    %edx
    4c1c:	e9 85 f2 ff ff       	jmp    3ea6 <riscv_dsp_cfft_rd4_q15+0x5c6>
    4c21:	0f 1f 80 00 00 00 00 	nopl   0x0(%rax)
    4c28:	81 e9 00 02 00 00    	sub    $0x200,%ecx
    4c2e:	41 b8 00 01 00 00    	mov    $0x100,%r8d
    4c34:	48 8d 1d a9 29 00 00 	lea    0x29a9(%rip),%rbx        # 75e4 <riscv_dsp_cos_table_q15_1024+0x4>
    4c3b:	41 29 c8             	sub    %ecx,%r8d
    4c3e:	48 63 c9             	movslq %ecx,%rcx
    4c41:	49 63 f0             	movslq %r8d,%rsi
    4c44:	0f b7 3c 73          	movzwl (%rbx,%rsi,2),%edi
    4c48:	0f b7 34 4b          	movzwl (%rbx,%rcx,2),%esi
    4c4c:	f7 de                	neg    %esi
    4c4e:	45 85 c0             	test   %r8d,%r8d
    4c51:	0f 8e 80 f2 ff ff    	jle    3ed7 <riscv_dsp_cfft_rd4_q15+0x5f7>
    4c57:	f7 df                	neg    %edi
    4c59:	89 f9                	mov    %edi,%ecx
    4c5b:	89 f7                	mov    %esi,%edi
    4c5d:	89 ce                	mov    %ecx,%esi
    4c5f:	e9 73 f2 ff ff       	jmp    3ed7 <riscv_dsp_cfft_rd4_q15+0x5f7>
    4c64:	0f 1f 40 00          	nopl   0x0(%rax)
    4c68:	81 e9 00 02 00 00    	sub    $0x200,%ecx
    4c6e:	41 b8 00 01 00 00    	mov    $0x100,%r8d
    4c74:	48 8d 1d 69 29 00 00 	lea    0x2969(%rip),%rbx        # 75e4 <riscv_dsp_cos_table_q15_1024+0x4>
    4c7b:	41 29 c8             	sub    %ecx,%r8d
    4c7e:	48 63 c9             	movslq %ecx,%rcx
    4c81:	44 0f b7 2c 4b       	movzwl (%rbx,%rcx,2),%r13d
    4c86:	4d 63 c8             	movslq %r8d,%r9
    4c89:	46 0f b7 24 4b       	movzwl (%rbx,%r9,2),%r12d
    4c8e:	41 f7 dd             	neg    %r13d
    4c91:	45 85 c0             	test   %r8d,%r8d
    4c94:	0f 8e 76 f2 ff ff    	jle    3f10 <riscv_dsp_cfft_rd4_q15+0x630>
    4c9a:	44 89 e1             	mov    %r12d,%ecx
    4c9d:	45 89 ec             	mov    %r13d,%r12d
    4ca0:	f7 d9                	neg    %ecx
    4ca2:	41 89 cd             	mov    %ecx,%r13d
    4ca5:	e9 66 f2 ff ff       	jmp    3f10 <riscv_dsp_cfft_rd4_q15+0x630>
    4caa:	66 0f 1f 44 00 00    	nopw   0x0(%rax,%rax,1)
    4cb0:	2d 00 02 00 00       	sub    $0x200,%eax
    4cb5:	b9 00 01 00 00       	mov    $0x100,%ecx
    4cba:	48 8d 35 23 29 00 00 	lea    0x2923(%rip),%rsi        # 75e4 <riscv_dsp_cos_table_q15_1024+0x4>
    4cc1:	29 c1                	sub    %eax,%ecx
    4cc3:	48 98                	cltq   
    4cc5:	0f b7 04 46          	movzwl (%rsi,%rax,2),%eax
    4cc9:	48 63 d1             	movslq %ecx,%rdx
    4ccc:	0f b7 14 56          	movzwl (%rsi,%rdx,2),%edx
    4cd0:	f7 d8                	neg    %eax
    4cd2:	85 c9                	test   %ecx,%ecx
    4cd4:	0f 8e cc f1 ff ff    	jle    3ea6 <riscv_dsp_cfft_rd4_q15+0x5c6>
    4cda:	89 d1                	mov    %edx,%ecx
    4cdc:	89 c2                	mov    %eax,%edx
    4cde:	f7 d9                	neg    %ecx
    4ce0:	89 c8                	mov    %ecx,%eax
    4ce2:	e9 bf f1 ff ff       	jmp    3ea6 <riscv_dsp_cfft_rd4_q15+0x5c6>
    4ce7:	48 83 c4 30          	add    $0x30,%rsp
    4ceb:	31 c0                	xor    %eax,%eax
    4ced:	5b                   	pop    %rbx
    4cee:	5d                   	pop    %rbp
    4cef:	41 5c                	pop    %r12
    4cf1:	41 5d                	pop    %r13
    4cf3:	41 5e                	pop    %r14
    4cf5:	41 5f                	pop    %r15
    4cf7:	c3                   	ret    
    4cf8:	0f 1f 84 00 00 00 00 	nopl   0x0(%rax,%rax,1)
    4cff:	00 

0000000000004d00 <riscv_dsp_cifft_rd4_q15>:
    4d00:	f3 0f 1e fa          	endbr64 
    4d04:	41 57                	push   %r15
    4d06:	89 f1                	mov    %esi,%ecx
    4d08:	b8 01 00 00 00       	mov    $0x1,%eax
    4d0d:	41 56                	push   %r14
    4d0f:	d3 e0                	shl    %cl,%eax
    4d11:	49 89 fe             	mov    %rdi,%r14
    4d14:	41 55                	push   %r13
    4d16:	41 54                	push   %r12
    4d18:	55                   	push   %rbp
    4d19:	53                   	push   %rbx
    4d1a:	48 83 ec 30          	sub    $0x30,%rsp
    4d1e:	89 44 24 18          	mov    %eax,0x18(%rsp)
    4d22:	d1 e8                	shr    %eax
    4d24:	41 89 c2             	mov    %eax,%r10d
    4d27:	48 89 3c 24          	mov    %rdi,(%rsp)
    4d2b:	4d 01 d2             	add    %r10,%r10
    4d2e:	89 44 24 1c          	mov    %eax,0x1c(%rsp)
    4d32:	0f b7 07             	movzwl (%rdi),%eax
    4d35:	4a 8d 1c 17          	lea    (%rdi,%r10,1),%rbx
    4d39:	89 74 24 14          	mov    %esi,0x14(%rsp)
    4d3d:	41 0f b7 76 02       	movzwl 0x2(%r14),%esi
    4d42:	4e 8d 2c 13          	lea    (%rbx,%r10,1),%r13
    4d46:	49 89 df             	mov    %rbx,%r15
    4d49:	48 89 5c 24 a8       	mov    %rbx,-0x58(%rsp)
    4d4e:	41 0f b7 7d 00       	movzwl 0x0(%r13),%edi
    4d53:	4b 8d 4c 15 00       	lea    0x0(%r13,%r10,1),%rcx
    4d58:	66 89 74 24 88       	mov    %si,-0x78(%rsp)
    4d5d:	44 0f b7 09          	movzwl (%rcx),%r9d
    4d61:	4c 89 6c 24 20       	mov    %r13,0x20(%rsp)
    4d66:	44 8d 04 38          	lea    (%rax,%rdi,1),%r8d
    4d6a:	29 f8                	sub    %edi,%eax
    4d6c:	89 c5                	mov    %eax,%ebp
    4d6e:	0f b7 03             	movzwl (%rbx),%eax
    4d71:	46 8d 1c 08          	lea    (%rax,%r9,1),%r11d
    4d75:	43 8d 14 18          	lea    (%r8,%r11,1),%edx
    4d79:	45 29 d8             	sub    %r11d,%r8d
    4d7c:	66 41 89 16          	mov    %dx,(%r14)
    4d80:	41 0f b7 55 02       	movzwl 0x2(%r13),%edx
    4d85:	41 0f b7 7f 02       	movzwl 0x2(%r15),%edi
    4d8a:	8d 1c 32             	lea    (%rdx,%rsi,1),%ebx
    4d8d:	29 f2                	sub    %esi,%edx
    4d8f:	0f b7 71 02          	movzwl 0x2(%rcx),%esi
    4d93:	41 89 d4             	mov    %edx,%r12d
    4d96:	8d 14 1e             	lea    (%rsi,%rbx,1),%edx
    4d99:	01 fa                	add    %edi,%edx
    4d9b:	f7 da                	neg    %edx
    4d9d:	66 41 89 56 02       	mov    %dx,0x2(%r14)
    4da2:	8d 14 3e             	lea    (%rsi,%rdi,1),%edx
    4da5:	29 da                	sub    %ebx,%edx
    4da7:	66 45 89 07          	mov    %r8w,(%r15)
    4dab:	66 41 89 57 02       	mov    %dx,0x2(%r15)
    4db0:	8d 54 35 00          	lea    0x0(%rbp,%rsi,1),%edx
    4db4:	29 fa                	sub    %edi,%edx
    4db6:	66 41 89 55 00       	mov    %dx,0x0(%r13)
    4dbb:	43 8d 14 21          	lea    (%r9,%r12,1),%edx
    4dbf:	29 c2                	sub    %eax,%edx
    4dc1:	44 01 e0             	add    %r12d,%eax
    4dc4:	66 41 89 55 02       	mov    %dx,0x2(%r13)
    4dc9:	44 29 c8             	sub    %r9d,%eax
    4dcc:	8d 54 3d 00          	lea    0x0(%rbp,%rdi,1),%edx
    4dd0:	66 89 41 02          	mov    %ax,0x2(%rcx)
    4dd4:	29 f2                	sub    %esi,%edx
    4dd6:	49 8d 46 04          	lea    0x4(%r14),%rax
    4dda:	66 89 11             	mov    %dx,(%rcx)
    4ddd:	48 89 44 24 08       	mov    %rax,0x8(%rsp)
    4de2:	49 39 c7             	cmp    %rax,%r15
    4de5:	0f 84 e1 02 00 00    	je     50cc <riscv_dsp_cifft_rd4_q15+0x3cc>
    4deb:	48 89 c2             	mov    %rax,%rdx
    4dee:	b8 0a 00 00 00       	mov    $0xa,%eax
    4df3:	2b 44 24 14          	sub    0x14(%rsp),%eax
    4df7:	45 31 ff             	xor    %r15d,%r15d
    4dfa:	89 c1                	mov    %eax,%ecx
    4dfc:	48 8b 04 24          	mov    (%rsp),%rax
    4e00:	4c 8d 25 dd 27 00 00 	lea    0x27dd(%rip),%r12        # 75e4 <riscv_dsp_cos_table_q15_1024+0x4>
    4e07:	41 be 00 01 00 00    	mov    $0x100,%r14d
    4e0d:	4e 8d 44 50 04       	lea    0x4(%rax,%r10,2),%r8
    4e12:	e9 15 01 00 00       	jmp    4f2c <riscv_dsp_cifft_rd4_q15+0x22c>
    4e17:	48 98                	cltq   
    4e19:	48 63 db             	movslq %ebx,%rbx
    4e1c:	41 0f b7 04 44       	movzwl (%r12,%rax,2),%eax
    4e21:	41 0f b7 1c 5c       	movzwl (%r12,%rbx,2),%ebx
    4e26:	98                   	cwtl   
    4e27:	0f bf db             	movswl %bx,%ebx
    4e2a:	0f bf f6             	movswl %si,%esi
    4e2d:	45 0f bf c9          	movswl %r9w,%r9d
    4e31:	89 c5                	mov    %eax,%ebp
    4e33:	0f af c7             	imul   %edi,%eax
    4e36:	41 89 dd             	mov    %ebx,%r13d
    4e39:	41 0f af db          	imul   %r11d,%ebx
    4e3d:	41 0f af eb          	imul   %r11d,%ebp
    4e41:	44 0f af ef          	imul   %edi,%r13d
    4e45:	0f bf 7c 24 88       	movswl -0x78(%rsp),%edi
    4e4a:	29 d8                	sub    %ebx,%eax
    4e4c:	c1 f8 0f             	sar    $0xf,%eax
    4e4f:	46 8d 1c 0f          	lea    (%rdi,%r9,1),%r11d
    4e53:	44 29 cf             	sub    %r9d,%edi
    4e56:	45 89 f1             	mov    %r14d,%r9d
    4e59:	44 01 ed             	add    %r13d,%ebp
    4e5c:	66 42 89 44 12 02    	mov    %ax,0x2(%rdx,%r10,1)
    4e62:	0f bf 44 24 98       	movswl -0x68(%rsp),%eax
    4e67:	c1 fd 0f             	sar    $0xf,%ebp
    4e6a:	66 42 89 2c 12       	mov    %bp,(%rdx,%r10,1)
    4e6f:	89 f5                	mov    %esi,%ebp
    4e71:	01 c6                	add    %eax,%esi
    4e73:	29 c5                	sub    %eax,%ebp
    4e75:	44 89 f8             	mov    %r15d,%eax
    4e78:	d3 e0                	shl    %cl,%eax
    4e7a:	41 29 c1             	sub    %eax,%r9d
    4e7d:	45 85 c9             	test   %r9d,%r9d
    4e80:	0f 8e 78 01 00 00    	jle    4ffe <riscv_dsp_cifft_rd4_q15+0x2fe>
    4e86:	48 98                	cltq   
    4e88:	4d 63 c9             	movslq %r9d,%r9
    4e8b:	41 0f b7 04 44       	movzwl (%r12,%rax,2),%eax
    4e90:	47 0f b7 0c 4c       	movzwl (%r12,%r9,2),%r9d
    4e95:	98                   	cwtl   
    4e96:	45 0f bf c9          	movswl %r9w,%r9d
    4e9a:	89 c3                	mov    %eax,%ebx
    4e9c:	0f af c5             	imul   %ebp,%eax
    4e9f:	45 89 cd             	mov    %r9d,%r13d
    4ea2:	45 0f af cb          	imul   %r11d,%r9d
    4ea6:	41 0f af db          	imul   %r11d,%ebx
    4eaa:	44 0f af ed          	imul   %ebp,%r13d
    4eae:	44 29 c8             	sub    %r9d,%eax
    4eb1:	45 89 f1             	mov    %r14d,%r9d
    4eb4:	c1 f8 0f             	sar    $0xf,%eax
    4eb7:	66 41 89 40 02       	mov    %ax,0x2(%r8)
    4ebc:	43 8d 04 7f          	lea    (%r15,%r15,2),%eax
    4ec0:	44 01 eb             	add    %r13d,%ebx
    4ec3:	d3 e0                	shl    %cl,%eax
    4ec5:	c1 fb 0f             	sar    $0xf,%ebx
    4ec8:	41 29 c1             	sub    %eax,%r9d
    4ecb:	66 41 89 18          	mov    %bx,(%r8)
    4ecf:	45 85 c9             	test   %r9d,%r9d
    4ed2:	0f 8e fd 00 00 00    	jle    4fd5 <riscv_dsp_cifft_rd4_q15+0x2d5>
    4ed8:	48 98                	cltq   
    4eda:	4d 63 c9             	movslq %r9d,%r9
    4edd:	41 0f b7 04 44       	movzwl (%r12,%rax,2),%eax
    4ee2:	47 0f b7 0c 4c       	movzwl (%r12,%r9,2),%r9d
    4ee7:	98                   	cwtl   
    4ee8:	45 0f bf c9          	movswl %r9w,%r9d
    4eec:	48 83 c2 04          	add    $0x4,%rdx
    4ef0:	49 83 c0 04          	add    $0x4,%r8
    4ef4:	41 89 c3             	mov    %eax,%r11d
    4ef7:	0f af c6             	imul   %esi,%eax
    4efa:	44 89 cb             	mov    %r9d,%ebx
    4efd:	44 0f af df          	imul   %edi,%r11d
    4f01:	0f af de             	imul   %esi,%ebx
    4f04:	44 0f af cf          	imul   %edi,%r9d
    4f08:	41 01 db             	add    %ebx,%r11d
    4f0b:	44 29 c8             	sub    %r9d,%eax
    4f0e:	41 c1 fb 0f          	sar    $0xf,%r11d
    4f12:	c1 f8 0f             	sar    $0xf,%eax
    4f15:	66 47 89 5c 10 fc    	mov    %r11w,-0x4(%r8,%r10,1)
    4f1b:	66 43 89 44 10 fe    	mov    %ax,-0x2(%r8,%r10,1)
    4f21:	48 39 54 24 a8       	cmp    %rdx,-0x58(%rsp)
    4f26:	0f 84 a0 01 00 00    	je     50cc <riscv_dsp_cifft_rd4_q15+0x3cc>
    4f2c:	0f b7 02             	movzwl (%rdx),%eax
    4f2f:	41 0f b7 30          	movzwl (%r8),%esi
    4f33:	41 83 c7 01          	add    $0x1,%r15d
    4f37:	42 0f b7 3c 12       	movzwl (%rdx,%r10,1),%edi
    4f3c:	01 c6                	add    %eax,%esi
    4f3e:	66 41 2b 00          	sub    (%r8),%ax
    4f42:	66 89 44 24 88       	mov    %ax,-0x78(%rsp)
    4f47:	43 0f b7 04 10       	movzwl (%r8,%r10,1),%eax
    4f4c:	44 0f bf de          	movswl %si,%r11d
    4f50:	01 f8                	add    %edi,%eax
    4f52:	66 43 2b 3c 10       	sub    (%r8,%r10,1),%di
    4f57:	66 89 7c 24 98       	mov    %di,-0x68(%rsp)
    4f5c:	8d 3c 06             	lea    (%rsi,%rax,1),%edi
    4f5f:	98                   	cwtl   
    4f60:	66 89 3a             	mov    %di,(%rdx)
    4f63:	0f b7 7a 02          	movzwl 0x2(%rdx),%edi
    4f67:	41 29 c3             	sub    %eax,%r11d
    4f6a:	41 0f b7 70 02       	movzwl 0x2(%r8),%esi
    4f6f:	47 0f b7 4c 10 02    	movzwl 0x2(%r8,%r10,1),%r9d
    4f75:	42 0f b7 44 12 02    	movzwl 0x2(%rdx,%r10,1),%eax
    4f7b:	01 f7                	add    %esi,%edi
    4f7d:	66 2b 72 02          	sub    0x2(%rdx),%si
    4f81:	f7 df                	neg    %edi
    4f83:	44 01 c8             	add    %r9d,%eax
    4f86:	66 46 2b 4c 12 02    	sub    0x2(%rdx,%r10,1),%r9w
    4f8c:	89 fb                	mov    %edi,%ebx
    4f8e:	0f bf ff             	movswl %di,%edi
    4f91:	29 c3                	sub    %eax,%ebx
    4f93:	f7 d8                	neg    %eax
    4f95:	98                   	cwtl   
    4f96:	66 89 5a 02          	mov    %bx,0x2(%rdx)
    4f9a:	44 89 f3             	mov    %r14d,%ebx
    4f9d:	29 c7                	sub    %eax,%edi
    4f9f:	43 8d 04 3f          	lea    (%r15,%r15,1),%eax
    4fa3:	d3 e0                	shl    %cl,%eax
    4fa5:	29 c3                	sub    %eax,%ebx
    4fa7:	85 db                	test   %ebx,%ebx
    4fa9:	0f 8f 68 fe ff ff    	jg     4e17 <riscv_dsp_cifft_rd4_q15+0x117>
    4faf:	8d 98 00 ff ff ff    	lea    -0x100(%rax),%ebx
    4fb5:	44 89 f5             	mov    %r14d,%ebp
    4fb8:	29 dd                	sub    %ebx,%ebp
    4fba:	85 ed                	test   %ebp,%ebp
    4fbc:	7e 6c                	jle    502a <riscv_dsp_cifft_rd4_q15+0x32a>
    4fbe:	48 63 ed             	movslq %ebp,%rbp
    4fc1:	48 63 db             	movslq %ebx,%rbx
    4fc4:	41 0f b7 04 6c       	movzwl (%r12,%rbp,2),%eax
    4fc9:	41 0f b7 1c 5c       	movzwl (%r12,%rbx,2),%ebx
    4fce:	f7 d8                	neg    %eax
    4fd0:	e9 51 fe ff ff       	jmp    4e26 <riscv_dsp_cifft_rd4_q15+0x126>
    4fd5:	44 8d 88 00 ff ff ff 	lea    -0x100(%rax),%r9d
    4fdc:	45 89 f3             	mov    %r14d,%r11d
    4fdf:	45 29 cb             	sub    %r9d,%r11d
    4fe2:	45 85 db             	test   %r11d,%r11d
    4fe5:	7e 75                	jle    505c <riscv_dsp_cifft_rd4_q15+0x35c>
    4fe7:	4d 63 db             	movslq %r11d,%r11
    4fea:	4d 63 c9             	movslq %r9d,%r9
    4fed:	43 0f b7 04 5c       	movzwl (%r12,%r11,2),%eax
    4ff2:	47 0f b7 0c 4c       	movzwl (%r12,%r9,2),%r9d
    4ff7:	f7 d8                	neg    %eax
    4ff9:	e9 e9 fe ff ff       	jmp    4ee7 <riscv_dsp_cifft_rd4_q15+0x1e7>
    4ffe:	44 8d 88 00 ff ff ff 	lea    -0x100(%rax),%r9d
    5005:	44 89 f3             	mov    %r14d,%ebx
    5008:	44 29 cb             	sub    %r9d,%ebx
    500b:	85 db                	test   %ebx,%ebx
    500d:	0f 8e 82 00 00 00    	jle    5095 <riscv_dsp_cifft_rd4_q15+0x395>
    5013:	48 63 db             	movslq %ebx,%rbx
    5016:	4d 63 c9             	movslq %r9d,%r9
    5019:	41 0f b7 04 5c       	movzwl (%r12,%rbx,2),%eax
    501e:	47 0f b7 0c 4c       	movzwl (%r12,%r9,2),%r9d
    5023:	f7 d8                	neg    %eax
    5025:	e9 6b fe ff ff       	jmp    4e95 <riscv_dsp_cifft_rd4_q15+0x195>
    502a:	8d 98 00 fe ff ff    	lea    -0x200(%rax),%ebx
    5030:	44 89 f5             	mov    %r14d,%ebp
    5033:	29 dd                	sub    %ebx,%ebp
    5035:	48 63 db             	movslq %ebx,%rbx
    5038:	41 0f b7 1c 5c       	movzwl (%r12,%rbx,2),%ebx
    503d:	48 63 c5             	movslq %ebp,%rax
    5040:	41 0f b7 04 44       	movzwl (%r12,%rax,2),%eax
    5045:	f7 db                	neg    %ebx
    5047:	85 ed                	test   %ebp,%ebp
    5049:	0f 8e d7 fd ff ff    	jle    4e26 <riscv_dsp_cifft_rd4_q15+0x126>
    504f:	f7 d8                	neg    %eax
    5051:	89 c5                	mov    %eax,%ebp
    5053:	89 d8                	mov    %ebx,%eax
    5055:	89 eb                	mov    %ebp,%ebx
    5057:	e9 ca fd ff ff       	jmp    4e26 <riscv_dsp_cifft_rd4_q15+0x126>
    505c:	44 8d 88 00 fe ff ff 	lea    -0x200(%rax),%r9d
    5063:	45 89 f3             	mov    %r14d,%r11d
    5066:	45 29 cb             	sub    %r9d,%r11d
    5069:	4d 63 c9             	movslq %r9d,%r9
    506c:	47 0f b7 0c 4c       	movzwl (%r12,%r9,2),%r9d
    5071:	49 63 c3             	movslq %r11d,%rax
    5074:	41 0f b7 04 44       	movzwl (%r12,%rax,2),%eax
    5079:	41 f7 d9             	neg    %r9d
    507c:	45 85 db             	test   %r11d,%r11d
    507f:	0f 8e 62 fe ff ff    	jle    4ee7 <riscv_dsp_cifft_rd4_q15+0x1e7>
    5085:	f7 d8                	neg    %eax
    5087:	41 89 c3             	mov    %eax,%r11d
    508a:	44 89 c8             	mov    %r9d,%eax
    508d:	45 89 d9             	mov    %r11d,%r9d
    5090:	e9 52 fe ff ff       	jmp    4ee7 <riscv_dsp_cifft_rd4_q15+0x1e7>
    5095:	44 8d 88 00 fe ff ff 	lea    -0x200(%rax),%r9d
    509c:	44 89 f3             	mov    %r14d,%ebx
    509f:	44 29 cb             	sub    %r9d,%ebx
    50a2:	4d 63 c9             	movslq %r9d,%r9
    50a5:	47 0f b7 0c 4c       	movzwl (%r12,%r9,2),%r9d
    50aa:	48 63 c3             	movslq %ebx,%rax
    50ad:	41 0f b7 04 44       	movzwl (%r12,%rax,2),%eax
    50b2:	41 f7 d9             	neg    %r9d
    50b5:	85 db                	test   %ebx,%ebx
    50b7:	0f 8e d8 fd ff ff    	jle    4e95 <riscv_dsp_cifft_rd4_q15+0x195>
    50bd:	f7 d8                	neg    %eax
    50bf:	89 c3                	mov    %eax,%ebx
    50c1:	44 89 c8             	mov    %r9d,%eax
    50c4:	41 89 d9             	mov    %ebx,%r9d
    50c7:	e9 c9 fd ff ff       	jmp    4e95 <riscv_dsp_cifft_rd4_q15+0x195>
    50cc:	8b 7c 24 14          	mov    0x14(%rsp),%edi
    50d0:	8b 74 24 1c          	mov    0x1c(%rsp),%esi
    50d4:	c7 44 24 e4 04 00 00 	movl   $0x4,-0x1c(%rsp)
    50db:	00 
    50dc:	89 f8                	mov    %edi,%eax
    50de:	89 74 24 fc          	mov    %esi,-0x4(%rsp)
    50e2:	d1 e8                	shr    %eax
    50e4:	83 e8 02             	sub    $0x2,%eax
    50e7:	89 44 24 10          	mov    %eax,0x10(%rsp)
    50eb:	0f 84 8b 03 00 00    	je     547c <riscv_dsp_cifft_rd4_q15+0x77c>
    50f1:	b8 0a 00 00 00       	mov    $0xa,%eax
    50f6:	29 f8                	sub    %edi,%eax
    50f8:	89 44 24 f8          	mov    %eax,-0x8(%rsp)
    50fc:	0f 1f 40 00          	nopl   0x0(%rax)
    5100:	c1 6c 24 fc 02       	shrl   $0x2,-0x4(%rsp)
    5105:	8b 44 24 fc          	mov    -0x4(%rsp),%eax
    5109:	8b 74 24 e4          	mov    -0x1c(%rsp),%esi
    510d:	4c 8d 3c 00          	lea    (%rax,%rax,1),%r15
    5111:	48 89 44 24 98       	mov    %rax,-0x68(%rsp)
    5116:	48 8b 04 24          	mov    (%rsp),%rax
    511a:	4c 01 f8             	add    %r15,%rax
    511d:	48 89 44 24 e8       	mov    %rax,-0x18(%rsp)
    5122:	85 f6                	test   %esi,%esi
    5124:	0f 84 c2 00 00 00    	je     51ec <riscv_dsp_cifft_rd4_q15+0x4ec>
    512a:	48 8b 44 24 98       	mov    -0x68(%rsp),%rax
    512f:	8b 7c 24 e4          	mov    -0x1c(%rsp),%edi
    5133:	4c 8d 2c c5 00 00 00 	lea    0x0(,%rax,8),%r13
    513a:	00 
    513b:	48 8b 44 24 e8       	mov    -0x18(%rsp),%rax
    5140:	89 7c 24 88          	mov    %edi,-0x78(%rsp)
    5144:	4a 8d 14 38          	lea    (%rax,%r15,1),%rdx
    5148:	48 8b 04 24          	mov    (%rsp),%rax
    514c:	0f 1f 40 00          	nopl   0x0(%rax)
    5150:	46 0f b7 14 38       	movzwl (%rax,%r15,1),%r10d
    5155:	46 0f b7 1c 3a       	movzwl (%rdx,%r15,1),%r11d
    515a:	0f b7 38             	movzwl (%rax),%edi
    515d:	44 0f b7 0a          	movzwl (%rdx),%r9d
    5161:	47 8d 24 1a          	lea    (%r10,%r11,1),%r12d
    5165:	41 01 f9             	add    %edi,%r9d
    5168:	66 2b 3a             	sub    (%rdx),%di
    516b:	43 8d 0c 21          	lea    (%r9,%r12,1),%ecx
    516f:	45 29 e1             	sub    %r12d,%r9d
    5172:	66 89 08             	mov    %cx,(%rax)
    5175:	0f b7 48 02          	movzwl 0x2(%rax),%ecx
    5179:	42 0f b7 5c 38 02    	movzwl 0x2(%rax,%r15,1),%ebx
    517f:	42 0f b7 74 3a 02    	movzwl 0x2(%rdx,%r15,1),%esi
    5185:	44 0f b7 42 02       	movzwl 0x2(%rdx),%r8d
    518a:	8d 2c 33             	lea    (%rbx,%rsi,1),%ebp
    518d:	41 01 c8             	add    %ecx,%r8d
    5190:	66 2b 4a 02          	sub    0x2(%rdx),%cx
    5194:	45 8d 34 28          	lea    (%r8,%rbp,1),%r14d
    5198:	41 29 e8             	sub    %ebp,%r8d
    519b:	66 44 89 70 02       	mov    %r14w,0x2(%rax)
    51a0:	66 46 89 44 38 02    	mov    %r8w,0x2(%rax,%r15,1)
    51a6:	41 89 f8             	mov    %edi,%r8d
    51a9:	41 29 f0             	sub    %esi,%r8d
    51ac:	66 46 89 0c 38       	mov    %r9w,(%rax,%r15,1)
    51b1:	29 de                	sub    %ebx,%esi
    51b3:	4c 01 e8             	add    %r13,%rax
    51b6:	41 01 d8             	add    %ebx,%r8d
    51b9:	01 fe                	add    %edi,%esi
    51bb:	66 44 89 02          	mov    %r8w,(%rdx)
    51bf:	45 89 d8             	mov    %r11d,%r8d
    51c2:	45 29 d0             	sub    %r10d,%r8d
    51c5:	41 01 c8             	add    %ecx,%r8d
    51c8:	44 29 d9             	sub    %r11d,%ecx
    51cb:	44 01 d1             	add    %r10d,%ecx
    51ce:	66 44 89 42 02       	mov    %r8w,0x2(%rdx)
    51d3:	66 42 89 34 3a       	mov    %si,(%rdx,%r15,1)
    51d8:	66 42 89 4c 3a 02    	mov    %cx,0x2(%rdx,%r15,1)
    51de:	4c 01 ea             	add    %r13,%rdx
    51e1:	83 6c 24 88 01       	subl   $0x1,-0x78(%rsp)
    51e6:	0f 85 64 ff ff ff    	jne    5150 <riscv_dsp_cifft_rd4_q15+0x450>
    51ec:	48 8b 7c 24 e8       	mov    -0x18(%rsp),%rdi
    51f1:	48 39 7c 24 08       	cmp    %rdi,0x8(%rsp)
    51f6:	0f 84 70 02 00 00    	je     546c <riscv_dsp_cifft_rd4_q15+0x76c>
    51fc:	48 8b 44 24 98       	mov    -0x68(%rsp),%rax
    5201:	c7 44 24 e0 00 00 00 	movl   $0x0,-0x20(%rsp)
    5208:	00 
    5209:	48 8d 3c c5 00 00 00 	lea    0x0(,%rax,8),%rdi
    5210:	00 
    5211:	48 c1 e0 02          	shl    $0x2,%rax
    5215:	48 89 44 24 f0       	mov    %rax,-0x10(%rsp)
    521a:	48 8b 44 24 08       	mov    0x8(%rsp),%rax
    521f:	48 89 7c 24 d0       	mov    %rdi,-0x30(%rsp)
    5224:	48 89 44 24 d8       	mov    %rax,-0x28(%rsp)
    5229:	0f 1f 80 00 00 00 00 	nopl   0x0(%rax)
    5230:	8b 7c 24 e4          	mov    -0x1c(%rsp),%edi
    5234:	0f b6 4c 24 f8       	movzbl -0x8(%rsp),%ecx
    5239:	ba 00 01 00 00       	mov    $0x100,%edx
    523e:	01 7c 24 e0          	add    %edi,-0x20(%rsp)
    5242:	8b 44 24 e0          	mov    -0x20(%rsp),%eax
    5246:	d3 e0                	shl    %cl,%eax
    5248:	29 c2                	sub    %eax,%edx
    524a:	85 d2                	test   %edx,%edx
    524c:	0f 8e 4e 11 00 00    	jle    63a0 <riscv_dsp_cifft_rd4_q15+0x16a0>
    5252:	48 8d 35 8b 23 00 00 	lea    0x238b(%rip),%rsi        # 75e4 <riscv_dsp_cos_table_q15_1024+0x4>
    5259:	48 98                	cltq   
    525b:	48 63 d2             	movslq %edx,%rdx
    525e:	0f b7 3c 46          	movzwl (%rsi,%rax,2),%edi
    5262:	0f b7 34 56          	movzwl (%rsi,%rdx,2),%esi
    5266:	8b 44 24 e0          	mov    -0x20(%rsp),%eax
    526a:	0f b6 4c 24 f8       	movzbl -0x8(%rsp),%ecx
    526f:	ba 00 01 00 00       	mov    $0x100,%edx
    5274:	01 c0                	add    %eax,%eax
    5276:	d3 e0                	shl    %cl,%eax
    5278:	29 c2                	sub    %eax,%edx
    527a:	85 d2                	test   %edx,%edx
    527c:	0f 8e ae 10 00 00    	jle    6330 <riscv_dsp_cifft_rd4_q15+0x1630>
    5282:	48 8d 1d 5b 23 00 00 	lea    0x235b(%rip),%rbx        # 75e4 <riscv_dsp_cos_table_q15_1024+0x4>
    5289:	48 98                	cltq   
    528b:	48 63 d2             	movslq %edx,%rdx
    528e:	44 0f b7 0c 43       	movzwl (%rbx,%rax,2),%r9d
    5293:	44 0f b7 04 53       	movzwl (%rbx,%rdx,2),%r8d
    5298:	8b 44 24 e0          	mov    -0x20(%rsp),%eax
    529c:	0f b6 4c 24 f8       	movzbl -0x8(%rsp),%ecx
    52a1:	ba 00 01 00 00       	mov    $0x100,%edx
    52a6:	8d 04 40             	lea    (%rax,%rax,2),%eax
    52a9:	d3 e0                	shl    %cl,%eax
    52ab:	29 c2                	sub    %eax,%edx
    52ad:	85 d2                	test   %edx,%edx
    52af:	0f 8e b3 10 00 00    	jle    6368 <riscv_dsp_cifft_rd4_q15+0x1668>
    52b5:	48 8d 1d 28 23 00 00 	lea    0x2328(%rip),%rbx        # 75e4 <riscv_dsp_cos_table_q15_1024+0x4>
    52bc:	48 98                	cltq   
    52be:	48 63 d2             	movslq %edx,%rdx
    52c1:	0f b7 04 43          	movzwl (%rbx,%rax,2),%eax
    52c5:	0f b7 14 53          	movzwl (%rbx,%rdx,2),%edx
    52c9:	8b 4c 24 e4          	mov    -0x1c(%rsp),%ecx
    52cd:	85 c9                	test   %ecx,%ecx
    52cf:	0f 84 81 01 00 00    	je     5456 <riscv_dsp_cifft_rd4_q15+0x756>
    52d5:	98                   	cwtl   
    52d6:	41 0f bf d9          	movswl %r9w,%ebx
    52da:	0f bf ff             	movswl %di,%edi
    52dd:	0f bf f6             	movswl %si,%esi
    52e0:	89 44 24 c8          	mov    %eax,-0x38(%rsp)
    52e4:	0f bf c2             	movswl %dx,%eax
    52e7:	89 44 24 cc          	mov    %eax,-0x34(%rsp)
    52eb:	8b 44 24 e4          	mov    -0x1c(%rsp),%eax
    52ef:	89 5c 24 88          	mov    %ebx,-0x78(%rsp)
    52f3:	41 0f bf d8          	movswl %r8w,%ebx
    52f7:	89 7c 24 c0          	mov    %edi,-0x40(%rsp)
    52fb:	48 8b 7c 24 f0       	mov    -0x10(%rsp),%rdi
    5300:	89 74 24 c4          	mov    %esi,-0x3c(%rsp)
    5304:	48 8b 74 24 d8       	mov    -0x28(%rsp),%rsi
    5309:	89 5c 24 bc          	mov    %ebx,-0x44(%rsp)
    530d:	89 44 24 a8          	mov    %eax,-0x58(%rsp)
    5311:	48 01 f7             	add    %rsi,%rdi
    5314:	0f 1f 40 00          	nopl   0x0(%rax)
    5318:	0f b7 16             	movzwl (%rsi),%edx
    531b:	46 0f b7 34 3e       	movzwl (%rsi,%r15,1),%r14d
    5320:	42 0f b7 1c 3f       	movzwl (%rdi,%r15,1),%ebx
    5325:	44 0f b7 2f          	movzwl (%rdi),%r13d
    5329:	44 0f b7 46 02       	movzwl 0x2(%rsi),%r8d
    532e:	66 89 54 24 98       	mov    %dx,-0x68(%rsp)
    5333:	45 8d 1c 1e          	lea    (%r14,%rbx,1),%r11d
    5337:	42 8d 0c 2a          	lea    (%rdx,%r13,1),%ecx
    533b:	42 8d 04 19          	lea    (%rcx,%r11,1),%eax
    533f:	45 0f bf db          	movswl %r11w,%r11d
    5343:	0f bf c9             	movswl %cx,%ecx
    5346:	66 89 06             	mov    %ax,(%rsi)
    5349:	0f b7 6f 02          	movzwl 0x2(%rdi),%ebp
    534d:	44 29 d9             	sub    %r11d,%ecx
    5350:	46 0f b7 4c 3e 02    	movzwl 0x2(%rsi,%r15,1),%r9d
    5356:	46 0f b7 64 3f 02    	movzwl 0x2(%rdi,%r15,1),%r12d
    535c:	41 8d 04 28          	lea    (%r8,%rbp,1),%eax
    5360:	41 29 e8             	sub    %ebp,%r8d
    5363:	47 8d 14 21          	lea    (%r9,%r12,1),%r10d
    5367:	45 29 e1             	sub    %r12d,%r9d
    536a:	45 0f bf c0          	movswl %r8w,%r8d
    536e:	42 8d 14 10          	lea    (%rax,%r10,1),%edx
    5372:	45 0f bf d2          	movswl %r10w,%r10d
    5376:	98                   	cwtl   
    5377:	45 0f bf c9          	movswl %r9w,%r9d
    537b:	66 89 56 02          	mov    %dx,0x2(%rsi)
    537f:	8b 54 24 bc          	mov    -0x44(%rsp),%edx
    5383:	44 29 d0             	sub    %r10d,%eax
    5386:	44 8b 54 24 88       	mov    -0x78(%rsp),%r10d
    538b:	41 89 d3             	mov    %edx,%r11d
    538e:	44 0f af d1          	imul   %ecx,%r10d
    5392:	44 0f af d8          	imul   %eax,%r11d
    5396:	0f af ca             	imul   %edx,%ecx
    5399:	0f b7 54 24 98       	movzwl -0x68(%rsp),%edx
    539e:	0f af 44 24 88       	imul   -0x78(%rsp),%eax
    53a3:	44 29 ea             	sub    %r13d,%edx
    53a6:	45 01 da             	add    %r11d,%r10d
    53a9:	0f bf d2             	movswl %dx,%edx
    53ac:	41 c1 fa 0f          	sar    $0xf,%r10d
    53b0:	29 c8                	sub    %ecx,%eax
    53b2:	44 89 f1             	mov    %r14d,%ecx
    53b5:	44 8b 74 24 c4       	mov    -0x3c(%rsp),%r14d
    53ba:	66 46 89 14 3e       	mov    %r10w,(%rsi,%r15,1)
    53bf:	c1 f8 0f             	sar    $0xf,%eax
    53c2:	29 d9                	sub    %ebx,%ecx
    53c4:	8b 5c 24 c0          	mov    -0x40(%rsp),%ebx
    53c8:	66 42 89 44 3e 02    	mov    %ax,0x2(%rsi,%r15,1)
    53ce:	0f bf c9             	movswl %cx,%ecx
    53d1:	42 8d 04 0a          	lea    (%rdx,%r9,1),%eax
    53d5:	44 29 ca             	sub    %r9d,%edx
    53d8:	45 89 c1             	mov    %r8d,%r9d
    53db:	45 89 f2             	mov    %r14d,%r10d
    53de:	41 29 c9             	sub    %ecx,%r9d
    53e1:	44 01 c1             	add    %r8d,%ecx
    53e4:	41 89 d8             	mov    %ebx,%r8d
    53e7:	44 0f af c0          	imul   %eax,%r8d
    53eb:	45 0f af d1          	imul   %r9d,%r10d
    53ef:	41 0f af c6          	imul   %r14d,%eax
    53f3:	44 8b 74 24 cc       	mov    -0x34(%rsp),%r14d
    53f8:	44 0f af cb          	imul   %ebx,%r9d
    53fc:	8b 5c 24 c8          	mov    -0x38(%rsp),%ebx
    5400:	45 01 d0             	add    %r10d,%r8d
    5403:	41 c1 f8 0f          	sar    $0xf,%r8d
    5407:	66 44 89 07          	mov    %r8w,(%rdi)
    540b:	41 29 c1             	sub    %eax,%r9d
    540e:	45 89 f0             	mov    %r14d,%r8d
    5411:	89 d8                	mov    %ebx,%eax
    5413:	0f af c2             	imul   %edx,%eax
    5416:	41 c1 f9 0f          	sar    $0xf,%r9d
    541a:	44 0f af c1          	imul   %ecx,%r8d
    541e:	66 44 89 4f 02       	mov    %r9w,0x2(%rdi)
    5423:	0f af cb             	imul   %ebx,%ecx
    5426:	41 0f af d6          	imul   %r14d,%edx
    542a:	44 01 c0             	add    %r8d,%eax
    542d:	c1 f8 0f             	sar    $0xf,%eax
    5430:	66 42 89 04 3f       	mov    %ax,(%rdi,%r15,1)
    5435:	29 d1                	sub    %edx,%ecx
    5437:	48 8b 44 24 d0       	mov    -0x30(%rsp),%rax
    543c:	c1 f9 0f             	sar    $0xf,%ecx
    543f:	66 42 89 4c 3f 02    	mov    %cx,0x2(%rdi,%r15,1)
    5445:	48 01 c6             	add    %rax,%rsi
    5448:	48 01 c7             	add    %rax,%rdi
    544b:	83 6c 24 a8 01       	subl   $0x1,-0x58(%rsp)
    5450:	0f 85 c2 fe ff ff    	jne    5318 <riscv_dsp_cifft_rd4_q15+0x618>
    5456:	48 83 44 24 d8 04    	addq   $0x4,-0x28(%rsp)
    545c:	48 8b 44 24 d8       	mov    -0x28(%rsp),%rax
    5461:	48 39 44 24 e8       	cmp    %rax,-0x18(%rsp)
    5466:	0f 85 c4 fd ff ff    	jne    5230 <riscv_dsp_cifft_rd4_q15+0x530>
    546c:	c1 64 24 e4 02       	shll   $0x2,-0x1c(%rsp)
    5471:	83 6c 24 10 01       	subl   $0x1,0x10(%rsp)
    5476:	0f 85 84 fc ff ff    	jne    5100 <riscv_dsp_cifft_rd4_q15+0x400>
    547c:	8b 44 24 18          	mov    0x18(%rsp),%eax
    5480:	48 8b 3c 24          	mov    (%rsp),%rdi
    5484:	01 c0                	add    %eax,%eax
    5486:	4c 8d 34 47          	lea    (%rdi,%rax,2),%r14
    548a:	4c 39 f7             	cmp    %r14,%rdi
    548d:	0f 84 10 0c 00 00    	je     60a3 <riscv_dsp_cifft_rd4_q15+0x13a3>
    5493:	4c 89 f2             	mov    %r14,%rdx
    5496:	48 89 f8             	mov    %rdi,%rax
    5499:	48 29 fa             	sub    %rdi,%rdx
    549c:	48 83 ea 10          	sub    $0x10,%rdx
    54a0:	48 89 d1             	mov    %rdx,%rcx
    54a3:	48 c1 e9 04          	shr    $0x4,%rcx
    54a7:	48 83 c1 01          	add    $0x1,%rcx
    54ab:	48 83 fa 60          	cmp    $0x60,%rdx
    54af:	0f 86 78 0a 00 00    	jbe    5f2d <riscv_dsp_cifft_rd4_q15+0x122d>
    54b5:	66 44 0f 6f 35 c2 1c 	movdqa 0x1cc2(%rip),%xmm14        # 7180 <_IO_stdin_used+0x180>
    54bc:	00 00 
    54be:	48 89 ca             	mov    %rcx,%rdx
    54c1:	66 44 0f 6f 2d a6 1c 	movdqa 0x1ca6(%rip),%xmm13        # 7170 <_IO_stdin_used+0x170>
    54c8:	00 00 
    54ca:	48 c1 ea 03          	shr    $0x3,%rdx
    54ce:	48 c1 e2 07          	shl    $0x7,%rdx
    54d2:	48 01 fa             	add    %rdi,%rdx
    54d5:	f3 0f 6f 18          	movdqu (%rax),%xmm3
    54d9:	f3 0f 6f 70 10       	movdqu 0x10(%rax),%xmm6
    54de:	66 45 0f 6f dd       	movdqa %xmm13,%xmm11
    54e3:	48 83 e8 80          	sub    $0xffffffffffffff80,%rax
    54e7:	f3 0f 6f 60 a0       	movdqu -0x60(%rax),%xmm4
    54ec:	f3 0f 6f 68 b0       	movdqu -0x50(%rax),%xmm5
    54f1:	66 0f 6f c3          	movdqa %xmm3,%xmm0
    54f5:	66 0f 6f d3          	movdqa %xmm3,%xmm2
    54f9:	f3 44 0f 6f 48 c0    	movdqu -0x40(%rax),%xmm9
    54ff:	66 0f 61 de          	punpcklwd %xmm6,%xmm3
    5503:	66 0f 61 c6          	punpcklwd %xmm6,%xmm0
    5507:	66 0f 69 d6          	punpckhwd %xmm6,%xmm2
    550b:	66 0f 6f f4          	movdqa %xmm4,%xmm6
    550f:	f3 0f 6f 78 d0       	movdqu -0x30(%rax),%xmm7
    5514:	66 44 0f 6f d0       	movdqa %xmm0,%xmm10
    5519:	66 0f 61 f5          	punpcklwd %xmm5,%xmm6
    551d:	66 0f 61 c2          	punpcklwd %xmm2,%xmm0
    5521:	f3 0f 6f 48 e0       	movdqu -0x20(%rax),%xmm1
    5526:	66 44 0f 69 d2       	punpckhwd %xmm2,%xmm10
    552b:	66 0f 61 da          	punpcklwd %xmm2,%xmm3
    552f:	66 0f 6f d4          	movdqa %xmm4,%xmm2
    5533:	f3 44 0f 6f 40 f0    	movdqu -0x10(%rax),%xmm8
    5539:	66 0f 69 d5          	punpckhwd %xmm5,%xmm2
    553d:	66 41 0f 61 c2       	punpcklwd %xmm10,%xmm0
    5542:	66 41 0f 69 da       	punpckhwd %xmm10,%xmm3
    5547:	66 0f 61 e5          	punpcklwd %xmm5,%xmm4
    554b:	66 44 0f 6f d6       	movdqa %xmm6,%xmm10
    5550:	66 41 0f 6f e9       	movdqa %xmm9,%xmm5
    5555:	66 44 0f 69 d2       	punpckhwd %xmm2,%xmm10
    555a:	66 0f 61 ef          	punpcklwd %xmm7,%xmm5
    555e:	66 0f 61 f2          	punpcklwd %xmm2,%xmm6
    5562:	66 0f 61 e2          	punpcklwd %xmm2,%xmm4
    5566:	66 41 0f 6f d1       	movdqa %xmm9,%xmm2
    556b:	66 41 0f 61 f2       	punpcklwd %xmm10,%xmm6
    5570:	66 41 0f 69 e2       	punpckhwd %xmm10,%xmm4
    5575:	66 0f 69 d7          	punpckhwd %xmm7,%xmm2
    5579:	66 44 0f 6f d5       	movdqa %xmm5,%xmm10
    557e:	66 44 0f 61 cf       	punpcklwd %xmm7,%xmm9
    5583:	66 0f 6f f9          	movdqa %xmm1,%xmm7
    5587:	66 44 0f 69 d2       	punpckhwd %xmm2,%xmm10
    558c:	66 41 0f 61 f8       	punpcklwd %xmm8,%xmm7
    5591:	66 0f 61 ea          	punpcklwd %xmm2,%xmm5
    5595:	66 44 0f 61 ca       	punpcklwd %xmm2,%xmm9
    559a:	66 0f 6f d1          	movdqa %xmm1,%xmm2
    559e:	66 41 0f 61 ea       	punpcklwd %xmm10,%xmm5
    55a3:	66 45 0f 69 ca       	punpckhwd %xmm10,%xmm9
    55a8:	66 41 0f 69 d0       	punpckhwd %xmm8,%xmm2
    55ad:	66 44 0f 6f d7       	movdqa %xmm7,%xmm10
    55b2:	66 41 0f 61 c8       	punpcklwd %xmm8,%xmm1
    55b7:	66 44 0f 69 d2       	punpckhwd %xmm2,%xmm10
    55bc:	66 0f 61 fa          	punpcklwd %xmm2,%xmm7
    55c0:	66 0f 61 ca          	punpcklwd %xmm2,%xmm1
    55c4:	66 0f 6f d0          	movdqa %xmm0,%xmm2
    55c8:	66 44 0f 6f c0       	movdqa %xmm0,%xmm8
    55cd:	66 41 0f 61 fa       	punpcklwd %xmm10,%xmm7
    55d2:	66 0f 61 d6          	punpcklwd %xmm6,%xmm2
    55d6:	66 41 0f 69 ca       	punpckhwd %xmm10,%xmm1
    55db:	66 44 0f 69 c6       	punpckhwd %xmm6,%xmm8
    55e0:	66 44 0f 6f d2       	movdqa %xmm2,%xmm10
    55e5:	66 0f 61 c6          	punpcklwd %xmm6,%xmm0
    55e9:	66 0f 6f f5          	movdqa %xmm5,%xmm6
    55ed:	66 45 0f 69 d0       	punpckhwd %xmm8,%xmm10
    55f2:	66 0f 61 f7          	punpcklwd %xmm7,%xmm6
    55f6:	66 41 0f 61 d0       	punpcklwd %xmm8,%xmm2
    55fb:	66 41 0f 61 c0       	punpcklwd %xmm8,%xmm0
    5600:	66 44 0f 6f c5       	movdqa %xmm5,%xmm8
    5605:	66 41 0f 61 d2       	punpcklwd %xmm10,%xmm2
    560a:	66 44 0f 69 c7       	punpckhwd %xmm7,%xmm8
    560f:	66 41 0f 69 c2       	punpckhwd %xmm10,%xmm0
    5614:	66 0f 61 ef          	punpcklwd %xmm7,%xmm5
    5618:	66 44 0f 6f d6       	movdqa %xmm6,%xmm10
    561d:	66 0f 6f fb          	movdqa %xmm3,%xmm7
    5621:	66 41 0f 61 f0       	punpcklwd %xmm8,%xmm6
    5626:	66 45 0f 69 d0       	punpckhwd %xmm8,%xmm10
    562b:	66 0f 61 fc          	punpcklwd %xmm4,%xmm7
    562f:	66 41 0f 61 e8       	punpcklwd %xmm8,%xmm5
    5634:	66 44 0f 6f c3       	movdqa %xmm3,%xmm8
    5639:	66 41 0f 61 f2       	punpcklwd %xmm10,%xmm6
    563e:	66 41 0f 69 ea       	punpckhwd %xmm10,%xmm5
    5643:	66 44 0f 69 c4       	punpckhwd %xmm4,%xmm8
    5648:	66 44 0f 6f d7       	movdqa %xmm7,%xmm10
    564d:	66 0f 61 dc          	punpcklwd %xmm4,%xmm3
    5651:	66 45 0f 69 d0       	punpckhwd %xmm8,%xmm10
    5656:	66 41 0f 61 f8       	punpcklwd %xmm8,%xmm7
    565b:	66 41 0f 61 d8       	punpcklwd %xmm8,%xmm3
    5660:	66 45 0f 6f c1       	movdqa %xmm9,%xmm8
    5665:	66 41 0f 6f e1       	movdqa %xmm9,%xmm4
    566a:	66 41 0f 61 fa       	punpcklwd %xmm10,%xmm7
    566f:	66 44 0f 61 c1       	punpcklwd %xmm1,%xmm8
    5674:	66 0f 69 e1          	punpckhwd %xmm1,%xmm4
    5678:	66 41 0f 69 da       	punpckhwd %xmm10,%xmm3
    567d:	66 44 0f 61 c9       	punpcklwd %xmm1,%xmm9
    5682:	66 45 0f 6f d0       	movdqa %xmm8,%xmm10
    5687:	66 0f 6f ca          	movdqa %xmm2,%xmm1
    568b:	66 44 0f 69 d4       	punpckhwd %xmm4,%xmm10
    5690:	66 0f 61 ce          	punpcklwd %xmm6,%xmm1
    5694:	66 44 0f 61 c4       	punpcklwd %xmm4,%xmm8
    5699:	66 44 0f 61 cc       	punpcklwd %xmm4,%xmm9
    569e:	66 0f 6f e2          	movdqa %xmm2,%xmm4
    56a2:	66 45 0f 61 c2       	punpcklwd %xmm10,%xmm8
    56a7:	66 45 0f 69 ca       	punpckhwd %xmm10,%xmm9
    56ac:	66 0f 69 e6          	punpckhwd %xmm6,%xmm4
    56b0:	66 44 0f 6f d1       	movdqa %xmm1,%xmm10
    56b5:	66 0f 61 d6          	punpcklwd %xmm6,%xmm2
    56b9:	66 44 0f 69 d4       	punpckhwd %xmm4,%xmm10
    56be:	66 0f 61 cc          	punpcklwd %xmm4,%xmm1
    56c2:	66 0f 61 d4          	punpcklwd %xmm4,%xmm2
    56c6:	66 41 0f 61 ca       	punpcklwd %xmm10,%xmm1
    56cb:	66 0f 6f f0          	movdqa %xmm0,%xmm6
    56cf:	66 41 0f 69 d2       	punpckhwd %xmm10,%xmm2
    56d4:	66 0f 61 f5          	punpcklwd %xmm5,%xmm6
    56d8:	66 0f 6f e2          	movdqa %xmm2,%xmm4
    56dc:	66 44 0f 6f d6       	movdqa %xmm6,%xmm10
    56e1:	66 0f fd e1          	paddw  %xmm1,%xmm4
    56e5:	66 0f f9 ca          	psubw  %xmm2,%xmm1
    56e9:	66 0f 6f d0          	movdqa %xmm0,%xmm2
    56ed:	66 0f 69 d5          	punpckhwd %xmm5,%xmm2
    56f1:	66 0f 61 c5          	punpcklwd %xmm5,%xmm0
    56f5:	66 44 0f 69 d2       	punpckhwd %xmm2,%xmm10
    56fa:	66 0f 61 c2          	punpcklwd %xmm2,%xmm0
    56fe:	66 0f 61 f2          	punpcklwd %xmm2,%xmm6
    5702:	66 41 0f 69 c2       	punpckhwd %xmm10,%xmm0
    5707:	66 41 0f 61 f2       	punpcklwd %xmm10,%xmm6
    570c:	66 0f 6f d4          	movdqa %xmm4,%xmm2
    5710:	66 0f 6f e8          	movdqa %xmm0,%xmm5
    5714:	66 45 0f 6f d5       	movdqa %xmm13,%xmm10
    5719:	66 0f fd ee          	paddw  %xmm6,%xmm5
    571d:	66 0f f9 f0          	psubw  %xmm0,%xmm6
    5721:	66 0f ef c0          	pxor   %xmm0,%xmm0
    5725:	66 0f 65 c4          	pcmpgtw %xmm4,%xmm0
    5729:	66 44 0f 6f e5       	movdqa %xmm5,%xmm12
    572e:	66 0f 61 d0          	punpcklwd %xmm0,%xmm2
    5732:	66 0f 69 e0          	punpckhwd %xmm0,%xmm4
    5736:	66 0f ef c0          	pxor   %xmm0,%xmm0
    573a:	66 0f 65 c5          	pcmpgtw %xmm5,%xmm0
    573e:	66 44 0f 61 e0       	punpcklwd %xmm0,%xmm12
    5743:	66 0f 69 e8          	punpckhwd %xmm0,%xmm5
    5747:	66 0f 6f c2          	movdqa %xmm2,%xmm0
    574b:	66 41 0f fe c4       	paddd  %xmm12,%xmm0
    5750:	66 44 0f 6f fd       	movdqa %xmm5,%xmm15
    5755:	66 41 0f fa d4       	psubd  %xmm12,%xmm2
    575a:	66 0f 72 f0 01       	pslld  $0x1,%xmm0
    575f:	44 0f 29 7c 24 88    	movaps %xmm15,-0x78(%rsp)
    5765:	66 0f 72 f2 01       	pslld  $0x1,%xmm2
    576a:	66 45 0f 6f e5       	movdqa %xmm13,%xmm12
    576f:	66 0f 6f e8          	movdqa %xmm0,%xmm5
    5773:	66 41 0f 66 ee       	pcmpgtd %xmm14,%xmm5
    5778:	66 0f db c5          	pand   %xmm5,%xmm0
    577c:	66 41 0f df ee       	pandn  %xmm14,%xmm5
    5781:	66 0f eb e8          	por    %xmm0,%xmm5
    5785:	66 0f 6f c5          	movdqa %xmm5,%xmm0
    5789:	66 41 0f 66 c5       	pcmpgtd %xmm13,%xmm0
    578e:	66 44 0f db d0       	pand   %xmm0,%xmm10
    5793:	66 0f df c5          	pandn  %xmm5,%xmm0
    5797:	66 41 0f 6f ef       	movdqa %xmm15,%xmm5
    579c:	66 0f fe ec          	paddd  %xmm4,%xmm5
    57a0:	66 41 0f eb c2       	por    %xmm10,%xmm0
    57a5:	66 0f fa 64 24 88    	psubd  -0x78(%rsp),%xmm4
    57ab:	66 0f 72 f5 01       	pslld  $0x1,%xmm5
    57b0:	66 44 0f 6f d5       	movdqa %xmm5,%xmm10
    57b5:	66 0f 72 f4 01       	pslld  $0x1,%xmm4
    57ba:	66 45 0f 66 d6       	pcmpgtd %xmm14,%xmm10
    57bf:	66 41 0f db ea       	pand   %xmm10,%xmm5
    57c4:	66 45 0f df d6       	pandn  %xmm14,%xmm10
    57c9:	66 44 0f eb d5       	por    %xmm5,%xmm10
    57ce:	66 41 0f 6f ea       	movdqa %xmm10,%xmm5
    57d3:	66 41 0f 66 ed       	pcmpgtd %xmm13,%xmm5
    57d8:	66 44 0f db dd       	pand   %xmm5,%xmm11
    57dd:	66 41 0f df ea       	pandn  %xmm10,%xmm5
    57e2:	66 44 0f 6f d0       	movdqa %xmm0,%xmm10
    57e7:	66 41 0f eb eb       	por    %xmm11,%xmm5
    57ec:	66 0f 61 c5          	punpcklwd %xmm5,%xmm0
    57f0:	66 44 0f 69 d5       	punpckhwd %xmm5,%xmm10
    57f5:	66 0f 6f e8          	movdqa %xmm0,%xmm5
    57f9:	66 41 0f 61 c2       	punpcklwd %xmm10,%xmm0
    57fe:	66 41 0f 69 ea       	punpckhwd %xmm10,%xmm5
    5803:	66 44 0f 6f d7       	movdqa %xmm7,%xmm10
    5808:	66 0f 61 c5          	punpcklwd %xmm5,%xmm0
    580c:	66 0f 6f ef          	movdqa %xmm7,%xmm5
    5810:	66 45 0f 69 d0       	punpckhwd %xmm8,%xmm10
    5815:	66 41 0f 61 e8       	punpcklwd %xmm8,%xmm5
    581a:	66 41 0f 61 f8       	punpcklwd %xmm8,%xmm7
    581f:	66 44 0f 6f dd       	movdqa %xmm5,%xmm11
    5824:	66 41 0f 61 fa       	punpcklwd %xmm10,%xmm7
    5829:	66 41 0f 61 ea       	punpcklwd %xmm10,%xmm5
    582e:	66 45 0f 69 da       	punpckhwd %xmm10,%xmm11
    5833:	66 44 0f 6f d3       	movdqa %xmm3,%xmm10
    5838:	66 41 0f 69 fb       	punpckhwd %xmm11,%xmm7
    583d:	66 41 0f 61 eb       	punpcklwd %xmm11,%xmm5
    5842:	66 45 0f 69 d1       	punpckhwd %xmm9,%xmm10
    5847:	66 44 0f 6f c7       	movdqa %xmm7,%xmm8
    584c:	66 44 0f fd c5       	paddw  %xmm5,%xmm8
    5851:	66 0f f9 ef          	psubw  %xmm7,%xmm5
    5855:	66 0f 6f fb          	movdqa %xmm3,%xmm7
    5859:	66 41 0f 61 f9       	punpcklwd %xmm9,%xmm7
    585e:	66 41 0f 61 d9       	punpcklwd %xmm9,%xmm3
    5863:	66 45 0f 6f c8       	movdqa %xmm8,%xmm9
    5868:	66 44 0f 6f df       	movdqa %xmm7,%xmm11
    586d:	66 41 0f 61 da       	punpcklwd %xmm10,%xmm3
    5872:	66 41 0f 61 fa       	punpcklwd %xmm10,%xmm7
    5877:	66 45 0f 69 da       	punpckhwd %xmm10,%xmm11
    587c:	66 41 0f 69 db       	punpckhwd %xmm11,%xmm3
    5881:	66 41 0f 61 fb       	punpcklwd %xmm11,%xmm7
    5886:	66 44 0f 6f d3       	movdqa %xmm3,%xmm10
