
t_rifft_q31_5:     file format elf64-x86-64


Disassembly of section .init:

0000000000001000 <_init>:
    1000:	f3 0f 1e fa          	endbr64 
    1004:	48 83 ec 08          	sub    $0x8,%rsp
    1008:	48 8b 05 d9 7f 00 00 	mov    0x7fd9(%rip),%rax        # 8fe8 <__gmon_start__@Base>
    100f:	48 85 c0             	test   %rax,%rax
    1012:	74 02                	je     1016 <_init+0x16>
    1014:	ff d0                	call   *%rax
    1016:	48 83 c4 08          	add    $0x8,%rsp
    101a:	c3                   	ret    

Disassembly of section .plt:

0000000000001020 <.plt>:
    1020:	ff 35 6a 7f 00 00    	push   0x7f6a(%rip)        # 8f90 <_GLOBAL_OFFSET_TABLE_+0x8>
    1026:	f2 ff 25 6b 7f 00 00 	bnd jmp *0x7f6b(%rip)        # 8f98 <_GLOBAL_OFFSET_TABLE_+0x10>
    102d:	0f 1f 00             	nopl   (%rax)
    1030:	f3 0f 1e fa          	endbr64 
    1034:	68 00 00 00 00       	push   $0x0
    1039:	f2 e9 e1 ff ff ff    	bnd jmp 1020 <_init+0x20>
    103f:	90                   	nop
    1040:	f3 0f 1e fa          	endbr64 
    1044:	68 01 00 00 00       	push   $0x1
    1049:	f2 e9 d1 ff ff ff    	bnd jmp 1020 <_init+0x20>
    104f:	90                   	nop
    1050:	f3 0f 1e fa          	endbr64 
    1054:	68 02 00 00 00       	push   $0x2
    1059:	f2 e9 c1 ff ff ff    	bnd jmp 1020 <_init+0x20>
    105f:	90                   	nop
    1060:	f3 0f 1e fa          	endbr64 
    1064:	68 03 00 00 00       	push   $0x3
    1069:	f2 e9 b1 ff ff ff    	bnd jmp 1020 <_init+0x20>
    106f:	90                   	nop
    1070:	f3 0f 1e fa          	endbr64 
    1074:	68 04 00 00 00       	push   $0x4
    1079:	f2 e9 a1 ff ff ff    	bnd jmp 1020 <_init+0x20>
    107f:	90                   	nop
    1080:	f3 0f 1e fa          	endbr64 
    1084:	68 05 00 00 00       	push   $0x5
    1089:	f2 e9 91 ff ff ff    	bnd jmp 1020 <_init+0x20>
    108f:	90                   	nop
    1090:	f3 0f 1e fa          	endbr64 
    1094:	68 06 00 00 00       	push   $0x6
    1099:	f2 e9 81 ff ff ff    	bnd jmp 1020 <_init+0x20>
    109f:	90                   	nop

Disassembly of section .plt.got:

00000000000010a0 <__cxa_finalize@plt>:
    10a0:	f3 0f 1e fa          	endbr64 
    10a4:	f2 ff 25 4d 7f 00 00 	bnd jmp *0x7f4d(%rip)        # 8ff8 <__cxa_finalize@GLIBC_2.2.5>
    10ab:	0f 1f 44 00 00       	nopl   0x0(%rax,%rax,1)

Disassembly of section .plt.sec:

00000000000010b0 <puts@plt>:
    10b0:	f3 0f 1e fa          	endbr64 
    10b4:	f2 ff 25 e5 7e 00 00 	bnd jmp *0x7ee5(%rip)        # 8fa0 <puts@GLIBC_2.2.5>
    10bb:	0f 1f 44 00 00       	nopl   0x0(%rax,%rax,1)

00000000000010c0 <fread@plt>:
    10c0:	f3 0f 1e fa          	endbr64 
    10c4:	f2 ff 25 dd 7e 00 00 	bnd jmp *0x7edd(%rip)        # 8fa8 <fread@GLIBC_2.2.5>
    10cb:	0f 1f 44 00 00       	nopl   0x0(%rax,%rax,1)

00000000000010d0 <fclose@plt>:
    10d0:	f3 0f 1e fa          	endbr64 
    10d4:	f2 ff 25 d5 7e 00 00 	bnd jmp *0x7ed5(%rip)        # 8fb0 <fclose@GLIBC_2.2.5>
    10db:	0f 1f 44 00 00       	nopl   0x0(%rax,%rax,1)

00000000000010e0 <__stack_chk_fail@plt>:
    10e0:	f3 0f 1e fa          	endbr64 
    10e4:	f2 ff 25 cd 7e 00 00 	bnd jmp *0x7ecd(%rip)        # 8fb8 <__stack_chk_fail@GLIBC_2.4>
    10eb:	0f 1f 44 00 00       	nopl   0x0(%rax,%rax,1)

00000000000010f0 <__printf_chk@plt>:
    10f0:	f3 0f 1e fa          	endbr64 
    10f4:	f2 ff 25 c5 7e 00 00 	bnd jmp *0x7ec5(%rip)        # 8fc0 <__printf_chk@GLIBC_2.3.4>
    10fb:	0f 1f 44 00 00       	nopl   0x0(%rax,%rax,1)

0000000000001100 <fopen@plt>:
    1100:	f3 0f 1e fa          	endbr64 
    1104:	f2 ff 25 bd 7e 00 00 	bnd jmp *0x7ebd(%rip)        # 8fc8 <fopen@GLIBC_2.2.5>
    110b:	0f 1f 44 00 00       	nopl   0x0(%rax,%rax,1)

0000000000001110 <__sprintf_chk@plt>:
    1110:	f3 0f 1e fa          	endbr64 
    1114:	f2 ff 25 b5 7e 00 00 	bnd jmp *0x7eb5(%rip)        # 8fd0 <__sprintf_chk@GLIBC_2.3.4>
    111b:	0f 1f 44 00 00       	nopl   0x0(%rax,%rax,1)

Disassembly of section .text:

0000000000001120 <main>:
    1120:	f3 0f 1e fa          	endbr64 
    1124:	41 55                	push   %r13
    1126:	48 8d 3d c6 4f 00 00 	lea    0x4fc6(%rip),%rdi        # 60f3 <_IO_stdin_used+0xf3>
    112d:	41 54                	push   %r12
    112f:	4c 8d 25 4a 80 00 00 	lea    0x804a(%rip),%r12        # 9180 <src>
    1136:	55                   	push   %rbp
    1137:	53                   	push   %rbx
    1138:	48 8d 1d c1 7f 00 00 	lea    0x7fc1(%rip),%rbx        # 9100 <golden_f32>
    113f:	48 83 ec 18          	sub    $0x18,%rsp
    1143:	64 48 8b 04 25 28 00 	mov    %fs:0x28,%rax
    114a:	00 00 
    114c:	48 89 44 24 08       	mov    %rax,0x8(%rsp)
    1151:	31 c0                	xor    %eax,%eax
    1153:	48 89 e5             	mov    %rsp,%rbp
    1156:	48 c7 04 24 00 00 00 	movq   $0x0,(%rsp)
    115d:	00 
    115e:	48 89 ee             	mov    %rbp,%rsi
    1161:	e8 fa 04 00 00       	call   1660 <test_Fopen.constprop.0.isra.0>
    1166:	4c 8b 2c 24          	mov    (%rsp),%r13
    116a:	ba 21 00 00 00       	mov    $0x21,%edx
    116f:	4c 89 e7             	mov    %r12,%rdi
    1172:	be 04 00 00 00       	mov    $0x4,%esi
    1177:	4c 89 e9             	mov    %r13,%rcx
    117a:	e8 41 ff ff ff       	call   10c0 <fread@plt>
    117f:	4c 89 ef             	mov    %r13,%rdi
    1182:	e8 49 ff ff ff       	call   10d0 <fclose@plt>
    1187:	66 0f 6f 05 f1 7f 00 	movdqa 0x7ff1(%rip),%xmm0        # 9180 <src>
    118e:	00 
    118f:	8b 05 6b 80 00 00    	mov    0x806b(%rip),%eax        # 9200 <src+0x80>
    1195:	48 8d 3d b4 4e 00 00 	lea    0x4eb4(%rip),%rdi        # 6050 <_IO_stdin_used+0x50>
    119c:	66 0f 72 e0 01       	psrad  $0x1,%xmm0
    11a1:	d1 f8                	sar    %eax
    11a3:	0f 29 05 d6 7f 00 00 	movaps %xmm0,0x7fd6(%rip)        # 9180 <src>
    11aa:	66 0f 6f 05 de 7f 00 	movdqa 0x7fde(%rip),%xmm0        # 9190 <src+0x10>
    11b1:	00 
    11b2:	89 05 48 80 00 00    	mov    %eax,0x8048(%rip)        # 9200 <src+0x80>
    11b8:	66 0f 72 e0 01       	psrad  $0x1,%xmm0
    11bd:	89 05 c1 7f 00 00    	mov    %eax,0x7fc1(%rip)        # 9184 <src+0x4>
    11c3:	0f 29 05 c6 7f 00 00 	movaps %xmm0,0x7fc6(%rip)        # 9190 <src+0x10>
    11ca:	66 0f 6f 05 ce 7f 00 	movdqa 0x7fce(%rip),%xmm0        # 91a0 <src+0x20>
    11d1:	00 
    11d2:	66 0f 72 e0 01       	psrad  $0x1,%xmm0
    11d7:	0f 29 05 c2 7f 00 00 	movaps %xmm0,0x7fc2(%rip)        # 91a0 <src+0x20>
    11de:	66 0f 6f 05 ca 7f 00 	movdqa 0x7fca(%rip),%xmm0        # 91b0 <src+0x30>
    11e5:	00 
    11e6:	66 0f 72 e0 01       	psrad  $0x1,%xmm0
    11eb:	0f 29 05 be 7f 00 00 	movaps %xmm0,0x7fbe(%rip)        # 91b0 <src+0x30>
    11f2:	66 0f 6f 05 c6 7f 00 	movdqa 0x7fc6(%rip),%xmm0        # 91c0 <src+0x40>
    11f9:	00 
    11fa:	66 0f 72 e0 01       	psrad  $0x1,%xmm0
    11ff:	0f 29 05 ba 7f 00 00 	movaps %xmm0,0x7fba(%rip)        # 91c0 <src+0x40>
    1206:	66 0f 6f 05 c2 7f 00 	movdqa 0x7fc2(%rip),%xmm0        # 91d0 <src+0x50>
    120d:	00 
    120e:	66 0f 72 e0 01       	psrad  $0x1,%xmm0
    1213:	0f 29 05 b6 7f 00 00 	movaps %xmm0,0x7fb6(%rip)        # 91d0 <src+0x50>
    121a:	66 0f 6f 05 be 7f 00 	movdqa 0x7fbe(%rip),%xmm0        # 91e0 <src+0x60>
    1221:	00 
    1222:	66 0f 72 e0 01       	psrad  $0x1,%xmm0
    1227:	0f 29 05 b2 7f 00 00 	movaps %xmm0,0x7fb2(%rip)        # 91e0 <src+0x60>
    122e:	66 0f 6f 05 ba 7f 00 	movdqa 0x7fba(%rip),%xmm0        # 91f0 <src+0x70>
    1235:	00 
    1236:	66 0f 72 e0 01       	psrad  $0x1,%xmm0
    123b:	0f 29 05 ae 7f 00 00 	movaps %xmm0,0x7fae(%rip)        # 91f0 <src+0x70>
    1242:	e8 69 fe ff ff       	call   10b0 <puts@plt>
    1247:	ba 20 00 00 00       	mov    $0x20,%edx
    124c:	48 8d 35 b6 4e 00 00 	lea    0x4eb6(%rip),%rsi        # 6109 <_IO_stdin_used+0x109>
    1253:	31 c0                	xor    %eax,%eax
    1255:	bf 01 00 00 00       	mov    $0x1,%edi
    125a:	e8 91 fe ff ff       	call   10f0 <__printf_chk@plt>
    125f:	be 05 00 00 00       	mov    $0x5,%esi
    1264:	4c 89 e7             	mov    %r12,%rdi
    1267:	e8 54 06 00 00       	call   18c0 <riscv_dsp_rifft_q31>
    126c:	48 89 ee             	mov    %rbp,%rsi
    126f:	48 8d 3d a5 4e 00 00 	lea    0x4ea5(%rip),%rdi        # 611b <_IO_stdin_used+0x11b>
    1276:	48 c7 04 24 00 00 00 	movq   $0x0,(%rsp)
    127d:	00 
    127e:	e8 dd 03 00 00       	call   1660 <test_Fopen.constprop.0.isra.0>
    1283:	48 8b 2c 24          	mov    (%rsp),%rbp
    1287:	be 04 00 00 00       	mov    $0x4,%esi
    128c:	48 89 df             	mov    %rbx,%rdi
    128f:	ba 20 00 00 00       	mov    $0x20,%edx
    1294:	48 89 e9             	mov    %rbp,%rcx
    1297:	e8 24 fe ff ff       	call   10c0 <fread@plt>
    129c:	48 89 ef             	mov    %rbp,%rdi
    129f:	e8 2c fe ff ff       	call   10d0 <fclose@plt>
    12a4:	31 c0                	xor    %eax,%eax
    12a6:	66 0f ef db          	pxor   %xmm3,%xmm3
    12aa:	bf 00 00 00 80       	mov    $0x80000000,%edi
    12af:	f3 0f 10 35 8d 4e 00 	movss  0x4e8d(%rip),%xmm6        # 6144 <_IO_stdin_used+0x144>
    12b6:	00 
    12b7:	f3 0f 10 15 7d 4e 00 	movss  0x4e7d(%rip),%xmm2        # 613c <_IO_stdin_used+0x13c>
    12be:	00 
    12bf:	48 8d 35 ba 7d 00 00 	lea    0x7dba(%rip),%rsi        # 9080 <golden>
    12c6:	41 b8 00 00 00 80    	mov    $0x80000000,%r8d
    12cc:	f3 0f 10 2d 6c 4e 00 	movss  0x4e6c(%rip),%xmm5        # 6140 <_IO_stdin_used+0x140>
    12d3:	00 
    12d4:	0f 1f 40 00          	nopl   0x0(%rax)
    12d8:	f3 0f 10 0c 03       	movss  (%rbx,%rax,1),%xmm1
    12dd:	0f 28 e2             	movaps %xmm2,%xmm4
    12e0:	b9 ff ff ff 7f       	mov    $0x7fffffff,%ecx
    12e5:	f3 0f 59 ce          	mulss  %xmm6,%xmm1
    12e9:	0f 28 c1             	movaps %xmm1,%xmm0
    12ec:	f3 0f c2 c3 01       	cmpltss %xmm3,%xmm0
    12f1:	0f 54 e0             	andps  %xmm0,%xmm4
    12f4:	0f 55 c5             	andnps %xmm5,%xmm0
    12f7:	0f 56 c4             	orps   %xmm4,%xmm0
    12fa:	f3 0f 58 c1          	addss  %xmm1,%xmm0
    12fe:	f3 48 0f 2c d0       	cvttss2si %xmm0,%rdx
    1303:	48 39 fa             	cmp    %rdi,%rdx
    1306:	7d 0d                	jge    1315 <main+0x1f5>
    1308:	48 81 fa 01 00 00 80 	cmp    $0xffffffff80000001,%rdx
    130f:	89 d1                	mov    %edx,%ecx
    1311:	41 0f 4c c8          	cmovl  %r8d,%ecx
    1315:	89 0c 06             	mov    %ecx,(%rsi,%rax,1)
    1318:	48 83 c0 04          	add    $0x4,%rax
    131c:	48 3d 80 00 00 00    	cmp    $0x80,%rax
    1322:	75 b4                	jne    12d8 <main+0x1b8>
    1324:	66 0f 6f 06          	movdqa (%rsi),%xmm0
    1328:	bf 01 00 00 00       	mov    $0x1,%edi
    132d:	48 8d 35 f4 4d 00 00 	lea    0x4df4(%rip),%rsi        # 6128 <_IO_stdin_used+0x128>
    1334:	31 c0                	xor    %eax,%eax
    1336:	66 0f fa 05 42 7e 00 	psubd  0x7e42(%rip),%xmm0        # 9180 <src>
    133d:	00 
    133e:	66 0f 6f 15 4a 7d 00 	movdqa 0x7d4a(%rip),%xmm2        # 9090 <golden+0x10>
    1345:	00 
    1346:	66 0f fa 15 42 7e 00 	psubd  0x7e42(%rip),%xmm2        # 9190 <src+0x10>
    134d:	00 
    134e:	66 0f 6f c8          	movdqa %xmm0,%xmm1
    1352:	66 0f 72 e1 1f       	psrad  $0x1f,%xmm1
    1357:	66 0f ef c1          	pxor   %xmm1,%xmm0
    135b:	66 0f fa c1          	psubd  %xmm1,%xmm0
    135f:	66 0f 6f ca          	movdqa %xmm2,%xmm1
    1363:	66 0f 72 e1 1f       	psrad  $0x1f,%xmm1
    1368:	66 0f ef d1          	pxor   %xmm1,%xmm2
    136c:	66 0f fa d1          	psubd  %xmm1,%xmm2
    1370:	66 0f 6f c8          	movdqa %xmm0,%xmm1
    1374:	66 0f 66 ca          	pcmpgtd %xmm2,%xmm1
    1378:	66 0f db c1          	pand   %xmm1,%xmm0
    137c:	66 0f df ca          	pandn  %xmm2,%xmm1
    1380:	66 0f eb c8          	por    %xmm0,%xmm1
    1384:	66 0f 6f 05 14 7d 00 	movdqa 0x7d14(%rip),%xmm0        # 90a0 <golden+0x20>
    138b:	00 
    138c:	66 0f fa 05 0c 7e 00 	psubd  0x7e0c(%rip),%xmm0        # 91a0 <src+0x20>
    1393:	00 
    1394:	66 0f 6f d0          	movdqa %xmm0,%xmm2
    1398:	66 0f 72 e2 1f       	psrad  $0x1f,%xmm2
    139d:	66 0f ef c2          	pxor   %xmm2,%xmm0
    13a1:	66 0f fa c2          	psubd  %xmm2,%xmm0
    13a5:	66 0f 6f 15 03 7d 00 	movdqa 0x7d03(%rip),%xmm2        # 90b0 <golden+0x30>
    13ac:	00 
    13ad:	66 0f fa 15 fb 7d 00 	psubd  0x7dfb(%rip),%xmm2        # 91b0 <src+0x30>
    13b4:	00 
    13b5:	66 0f 6f da          	movdqa %xmm2,%xmm3
    13b9:	66 0f 72 e3 1f       	psrad  $0x1f,%xmm3
    13be:	66 0f ef d3          	pxor   %xmm3,%xmm2
    13c2:	66 0f fa d3          	psubd  %xmm3,%xmm2
    13c6:	66 0f 6f d8          	movdqa %xmm0,%xmm3
    13ca:	66 0f 66 da          	pcmpgtd %xmm2,%xmm3
    13ce:	66 0f db c3          	pand   %xmm3,%xmm0
    13d2:	66 0f df da          	pandn  %xmm2,%xmm3
    13d6:	66 0f 6f d1          	movdqa %xmm1,%xmm2
    13da:	66 0f eb c3          	por    %xmm3,%xmm0
    13de:	66 0f 6f 1d ea 7c 00 	movdqa 0x7cea(%rip),%xmm3        # 90d0 <golden+0x50>
    13e5:	00 
    13e6:	66 0f fa 1d e2 7d 00 	psubd  0x7de2(%rip),%xmm3        # 91d0 <src+0x50>
    13ed:	00 
    13ee:	66 0f 66 d0          	pcmpgtd %xmm0,%xmm2
    13f2:	66 0f db ca          	pand   %xmm2,%xmm1
    13f6:	66 0f df d0          	pandn  %xmm0,%xmm2
    13fa:	66 0f 6f 05 be 7c 00 	movdqa 0x7cbe(%rip),%xmm0        # 90c0 <golden+0x40>
    1401:	00 
    1402:	66 0f fa 05 b6 7d 00 	psubd  0x7db6(%rip),%xmm0        # 91c0 <src+0x40>
    1409:	00 
    140a:	66 0f eb d1          	por    %xmm1,%xmm2
    140e:	66 0f 6f c8          	movdqa %xmm0,%xmm1
    1412:	66 0f 72 e1 1f       	psrad  $0x1f,%xmm1
    1417:	66 0f ef c1          	pxor   %xmm1,%xmm0
    141b:	66 0f fa c1          	psubd  %xmm1,%xmm0
    141f:	66 0f 6f cb          	movdqa %xmm3,%xmm1
    1423:	66 0f 72 e1 1f       	psrad  $0x1f,%xmm1
    1428:	66 0f ef d9          	pxor   %xmm1,%xmm3
    142c:	66 0f fa d9          	psubd  %xmm1,%xmm3
    1430:	66 0f 6f c8          	movdqa %xmm0,%xmm1
    1434:	66 0f 66 cb          	pcmpgtd %xmm3,%xmm1
    1438:	66 0f db c1          	pand   %xmm1,%xmm0
    143c:	66 0f df cb          	pandn  %xmm3,%xmm1
    1440:	66 0f ef db          	pxor   %xmm3,%xmm3
    1444:	66 0f eb c1          	por    %xmm1,%xmm0
    1448:	66 0f 6f c8          	movdqa %xmm0,%xmm1
    144c:	66 0f 66 cb          	pcmpgtd %xmm3,%xmm1
    1450:	66 0f db c1          	pand   %xmm1,%xmm0
    1454:	66 0f 6f ca          	movdqa %xmm2,%xmm1
    1458:	66 0f 66 c8          	pcmpgtd %xmm0,%xmm1
    145c:	66 0f db d1          	pand   %xmm1,%xmm2
    1460:	66 0f df c8          	pandn  %xmm0,%xmm1
    1464:	66 0f 6f 05 74 7c 00 	movdqa 0x7c74(%rip),%xmm0        # 90e0 <golden+0x60>
    146b:	00 
    146c:	66 0f fa 05 6c 7d 00 	psubd  0x7d6c(%rip),%xmm0        # 91e0 <src+0x60>
    1473:	00 
    1474:	66 0f eb ca          	por    %xmm2,%xmm1
    1478:	66 0f 6f d0          	movdqa %xmm0,%xmm2
    147c:	66 0f 72 e2 1f       	psrad  $0x1f,%xmm2
    1481:	66 0f ef c2          	pxor   %xmm2,%xmm0
    1485:	66 0f fa c2          	psubd  %xmm2,%xmm0
    1489:	66 0f 6f 15 5f 7c 00 	movdqa 0x7c5f(%rip),%xmm2        # 90f0 <golden+0x70>
    1490:	00 
    1491:	66 0f fa 15 57 7d 00 	psubd  0x7d57(%rip),%xmm2        # 91f0 <src+0x70>
    1498:	00 
    1499:	66 0f 6f da          	movdqa %xmm2,%xmm3
    149d:	66 0f 72 e3 1f       	psrad  $0x1f,%xmm3
    14a2:	66 0f ef d3          	pxor   %xmm3,%xmm2
    14a6:	66 0f fa d3          	psubd  %xmm3,%xmm2
    14aa:	66 0f 6f d8          	movdqa %xmm0,%xmm3
    14ae:	66 0f 66 da          	pcmpgtd %xmm2,%xmm3
    14b2:	66 0f db c3          	pand   %xmm3,%xmm0
    14b6:	66 0f df da          	pandn  %xmm2,%xmm3
    14ba:	66 0f eb d8          	por    %xmm0,%xmm3
    14be:	66 0f 6f c1          	movdqa %xmm1,%xmm0
    14c2:	66 0f 66 c3          	pcmpgtd %xmm3,%xmm0
    14c6:	66 0f db c8          	pand   %xmm0,%xmm1
    14ca:	66 0f df c3          	pandn  %xmm3,%xmm0
    14ce:	66 0f eb c1          	por    %xmm1,%xmm0
    14d2:	66 0f 6f d0          	movdqa %xmm0,%xmm2
    14d6:	66 0f 73 da 08       	psrldq $0x8,%xmm2
    14db:	66 0f 6f ca          	movdqa %xmm2,%xmm1
    14df:	66 0f 66 c8          	pcmpgtd %xmm0,%xmm1
    14e3:	66 0f db d1          	pand   %xmm1,%xmm2
    14e7:	66 0f df c8          	pandn  %xmm0,%xmm1
    14eb:	66 0f eb ca          	por    %xmm2,%xmm1
    14ef:	66 0f 6f d1          	movdqa %xmm1,%xmm2
    14f3:	66 0f 73 da 04       	psrldq $0x4,%xmm2
    14f8:	66 0f 6f c2          	movdqa %xmm2,%xmm0
    14fc:	66 0f 66 c1          	pcmpgtd %xmm1,%xmm0
    1500:	66 0f db d0          	pand   %xmm0,%xmm2
    1504:	66 0f df c1          	pandn  %xmm1,%xmm0
    1508:	66 0f eb c2          	por    %xmm2,%xmm0
    150c:	66 0f 7e c2          	movd   %xmm0,%edx
    1510:	66 0f 7e c3          	movd   %xmm0,%ebx
    1514:	e8 d7 fb ff ff       	call   10f0 <__printf_chk@plt>
    1519:	ba 20 00 00 00       	mov    $0x20,%edx
    151e:	83 fb 7f             	cmp    $0x7f,%ebx
    1521:	7f 30                	jg     1553 <main+0x433>
    1523:	48 8d 35 7e 4b 00 00 	lea    0x4b7e(%rip),%rsi        # 60a8 <_IO_stdin_used+0xa8>
    152a:	bf 01 00 00 00       	mov    $0x1,%edi
    152f:	31 c0                	xor    %eax,%eax
    1531:	e8 ba fb ff ff       	call   10f0 <__printf_chk@plt>
    1536:	31 c0                	xor    %eax,%eax
    1538:	48 8b 54 24 08       	mov    0x8(%rsp),%rdx
    153d:	64 48 2b 14 25 28 00 	sub    %fs:0x28,%rdx
    1544:	00 00 
    1546:	75 23                	jne    156b <main+0x44b>
    1548:	48 83 c4 18          	add    $0x18,%rsp
    154c:	5b                   	pop    %rbx
    154d:	5d                   	pop    %rbp
    154e:	41 5c                	pop    %r12
    1550:	41 5d                	pop    %r13
    1552:	c3                   	ret    
    1553:	48 8d 35 1e 4b 00 00 	lea    0x4b1e(%rip),%rsi        # 6078 <_IO_stdin_used+0x78>
    155a:	bf 01 00 00 00       	mov    $0x1,%edi
    155f:	31 c0                	xor    %eax,%eax
    1561:	e8 8a fb ff ff       	call   10f0 <__printf_chk@plt>
    1566:	83 c8 ff             	or     $0xffffffff,%eax
    1569:	eb cd                	jmp    1538 <main+0x418>
    156b:	e8 70 fb ff ff       	call   10e0 <__stack_chk_fail@plt>

0000000000001570 <_start>:
    1570:	f3 0f 1e fa          	endbr64 
    1574:	31 ed                	xor    %ebp,%ebp
    1576:	49 89 d1             	mov    %rdx,%r9
    1579:	5e                   	pop    %rsi
    157a:	48 89 e2             	mov    %rsp,%rdx
    157d:	48 83 e4 f0          	and    $0xfffffffffffffff0,%rsp
    1581:	50                   	push   %rax
    1582:	54                   	push   %rsp
    1583:	45 31 c0             	xor    %r8d,%r8d
    1586:	31 c9                	xor    %ecx,%ecx
    1588:	48 8d 3d 91 fb ff ff 	lea    -0x46f(%rip),%rdi        # 1120 <main>
    158f:	ff 15 43 7a 00 00    	call   *0x7a43(%rip)        # 8fd8 <__libc_start_main@GLIBC_2.34>
    1595:	f4                   	hlt    
    1596:	66 2e 0f 1f 84 00 00 	cs nopw 0x0(%rax,%rax,1)
    159d:	00 00 00 

00000000000015a0 <deregister_tm_clones>:
    15a0:	48 8d 3d 69 7a 00 00 	lea    0x7a69(%rip),%rdi        # 9010 <__TMC_END__>
    15a7:	48 8d 05 62 7a 00 00 	lea    0x7a62(%rip),%rax        # 9010 <__TMC_END__>
    15ae:	48 39 f8             	cmp    %rdi,%rax
    15b1:	74 15                	je     15c8 <deregister_tm_clones+0x28>
    15b3:	48 8b 05 26 7a 00 00 	mov    0x7a26(%rip),%rax        # 8fe0 <_ITM_deregisterTMCloneTable@Base>
    15ba:	48 85 c0             	test   %rax,%rax
    15bd:	74 09                	je     15c8 <deregister_tm_clones+0x28>
    15bf:	ff e0                	jmp    *%rax
    15c1:	0f 1f 80 00 00 00 00 	nopl   0x0(%rax)
    15c8:	c3                   	ret    
    15c9:	0f 1f 80 00 00 00 00 	nopl   0x0(%rax)

00000000000015d0 <register_tm_clones>:
    15d0:	48 8d 3d 39 7a 00 00 	lea    0x7a39(%rip),%rdi        # 9010 <__TMC_END__>
    15d7:	48 8d 35 32 7a 00 00 	lea    0x7a32(%rip),%rsi        # 9010 <__TMC_END__>
    15de:	48 29 fe             	sub    %rdi,%rsi
    15e1:	48 89 f0             	mov    %rsi,%rax
    15e4:	48 c1 ee 3f          	shr    $0x3f,%rsi
    15e8:	48 c1 f8 03          	sar    $0x3,%rax
    15ec:	48 01 c6             	add    %rax,%rsi
    15ef:	48 d1 fe             	sar    %rsi
    15f2:	74 14                	je     1608 <register_tm_clones+0x38>
    15f4:	48 8b 05 f5 79 00 00 	mov    0x79f5(%rip),%rax        # 8ff0 <_ITM_registerTMCloneTable@Base>
    15fb:	48 85 c0             	test   %rax,%rax
    15fe:	74 08                	je     1608 <register_tm_clones+0x38>
    1600:	ff e0                	jmp    *%rax
    1602:	66 0f 1f 44 00 00    	nopw   0x0(%rax,%rax,1)
    1608:	c3                   	ret    
    1609:	0f 1f 80 00 00 00 00 	nopl   0x0(%rax)

0000000000001610 <__do_global_dtors_aux>:
    1610:	f3 0f 1e fa          	endbr64 
    1614:	80 3d 25 7a 00 00 00 	cmpb   $0x0,0x7a25(%rip)        # 9040 <completed.0>
    161b:	75 2b                	jne    1648 <__do_global_dtors_aux+0x38>
    161d:	55                   	push   %rbp
    161e:	48 83 3d d2 79 00 00 	cmpq   $0x0,0x79d2(%rip)        # 8ff8 <__cxa_finalize@GLIBC_2.2.5>
    1625:	00 
    1626:	48 89 e5             	mov    %rsp,%rbp
    1629:	74 0c                	je     1637 <__do_global_dtors_aux+0x27>
    162b:	48 8b 3d d6 79 00 00 	mov    0x79d6(%rip),%rdi        # 9008 <__dso_handle>
    1632:	e8 69 fa ff ff       	call   10a0 <__cxa_finalize@plt>
    1637:	e8 64 ff ff ff       	call   15a0 <deregister_tm_clones>
    163c:	c6 05 fd 79 00 00 01 	movb   $0x1,0x79fd(%rip)        # 9040 <completed.0>
    1643:	5d                   	pop    %rbp
    1644:	c3                   	ret    
    1645:	0f 1f 00             	nopl   (%rax)
    1648:	c3                   	ret    
    1649:	0f 1f 80 00 00 00 00 	nopl   0x0(%rax)

0000000000001650 <frame_dummy>:
    1650:	f3 0f 1e fa          	endbr64 
    1654:	e9 77 ff ff ff       	jmp    15d0 <register_tm_clones>
    1659:	0f 1f 80 00 00 00 00 	nopl   0x0(%rax)

0000000000001660 <test_Fopen.constprop.0.isra.0>:
    1660:	41 54                	push   %r12
    1662:	49 89 f9             	mov    %rdi,%r9
    1665:	49 89 fc             	mov    %rdi,%r12
    1668:	4c 8d 05 99 49 00 00 	lea    0x4999(%rip),%r8        # 6008 <_IO_stdin_used+0x8>
    166f:	55                   	push   %rbp
    1670:	48 8d 0d 5a 4a 00 00 	lea    0x4a5a(%rip),%rcx        # 60d1 <_IO_stdin_used+0xd1>
    1677:	ba 00 04 00 00       	mov    $0x400,%edx
    167c:	53                   	push   %rbx
    167d:	48 89 f3             	mov    %rsi,%rbx
    1680:	be 01 00 00 00       	mov    $0x1,%esi
    1685:	48 81 ec 10 04 00 00 	sub    $0x410,%rsp
    168c:	64 48 8b 04 25 28 00 	mov    %fs:0x28,%rax
    1693:	00 00 
    1695:	48 89 84 24 08 04 00 	mov    %rax,0x408(%rsp)
    169c:	00 
    169d:	31 c0                	xor    %eax,%eax
    169f:	48 89 e5             	mov    %rsp,%rbp
    16a2:	48 89 ef             	mov    %rbp,%rdi
    16a5:	e8 66 fa ff ff       	call   1110 <__sprintf_chk@plt>
    16aa:	48 8d 35 26 4a 00 00 	lea    0x4a26(%rip),%rsi        # 60d7 <_IO_stdin_used+0xd7>
    16b1:	48 89 ef             	mov    %rbp,%rdi
    16b4:	e8 47 fa ff ff       	call   1100 <fopen@plt>
    16b9:	48 89 03             	mov    %rax,(%rbx)
    16bc:	48 85 c0             	test   %rax,%rax
    16bf:	74 1f                	je     16e0 <test_Fopen.constprop.0.isra.0+0x80>
    16c1:	48 8b 84 24 08 04 00 	mov    0x408(%rsp),%rax
    16c8:	00 
    16c9:	64 48 2b 04 25 28 00 	sub    %fs:0x28,%rax
    16d0:	00 00 
    16d2:	75 22                	jne    16f6 <test_Fopen.constprop.0.isra.0+0x96>
    16d4:	48 81 c4 10 04 00 00 	add    $0x410,%rsp
    16db:	5b                   	pop    %rbx
    16dc:	5d                   	pop    %rbp
    16dd:	41 5c                	pop    %r12
    16df:	c3                   	ret    
    16e0:	4c 89 e2             	mov    %r12,%rdx
    16e3:	48 8d 35 f0 49 00 00 	lea    0x49f0(%rip),%rsi        # 60da <_IO_stdin_used+0xda>
    16ea:	bf 01 00 00 00       	mov    $0x1,%edi
    16ef:	e8 fc f9 ff ff       	call   10f0 <__printf_chk@plt>
    16f4:	eb cb                	jmp    16c1 <test_Fopen.constprop.0.isra.0+0x61>
    16f6:	e8 e5 f9 ff ff       	call   10e0 <__stack_chk_fail@plt>
    16fb:	0f 1f 44 00 00       	nopl   0x0(%rax,%rax,1)

0000000000001700 <riscv_dsp_rfft_q31>:
    1700:	f3 0f 1e fa          	endbr64 
    1704:	41 57                	push   %r15
    1706:	41 56                	push   %r14
    1708:	41 55                	push   %r13
    170a:	41 54                	push   %r12
    170c:	55                   	push   %rbp
    170d:	48 89 fd             	mov    %rdi,%rbp
    1710:	53                   	push   %rbx
    1711:	89 f3                	mov    %esi,%ebx
    1713:	83 ee 01             	sub    $0x1,%esi
    1716:	48 83 ec 18          	sub    $0x18,%rsp
    171a:	e8 61 03 00 00       	call   1a80 <riscv_dsp_cfft_q31>
    171f:	41 bb 01 00 00 00    	mov    $0x1,%r11d
    1725:	89 d9                	mov    %ebx,%ecx
    1727:	41 d3 e3             	shl    %cl,%r11d
    172a:	41 c1 eb 02          	shr    $0x2,%r11d
    172e:	0f 84 54 01 00 00    	je     1888 <riscv_dsp_rfft_q31+0x188>
    1734:	b8 0a 00 00 00       	mov    $0xa,%eax
    1739:	43 8d 3c 1b          	lea    (%r11,%r11,1),%edi
    173d:	4c 8d 2d 64 52 00 00 	lea    0x5264(%rip),%r13        # 69a8 <riscv_dsp_cos_table_q31_1024+0x8>
    1744:	29 d8                	sub    %ebx,%eax
    1746:	4c 8d 44 bd 00       	lea    0x0(%rbp,%rdi,4),%r8
    174b:	48 89 fb             	mov    %rdi,%rbx
    174e:	89 44 24 0c          	mov    %eax,0xc(%rsp)
    1752:	e9 b4 00 00 00       	jmp    180b <riscv_dsp_rfft_q31+0x10b>
    1757:	66 0f 1f 84 00 00 00 	nopw   0x0(%rax,%rax,1)
    175e:	00 00 
    1760:	48 98                	cltq   
    1762:	48 63 d2             	movslq %edx,%rdx
    1765:	41 8b 44 85 00       	mov    0x0(%r13,%rax,4),%eax
    176a:	41 8b 74 95 00       	mov    0x0(%r13,%rdx,4),%esi
    176f:	4c 8d 64 bd 00       	lea    0x0(%rbp,%rdi,4),%r12
    1774:	8d 7b 01             	lea    0x1(%rbx),%edi
    1777:	41 8b 10             	mov    (%r8),%edx
    177a:	41 8b 48 04          	mov    0x4(%r8),%ecx
    177e:	44 8b 74 bd 00       	mov    0x0(%rbp,%rdi,4),%r14d
    1783:	48 98                	cltq   
    1785:	48 63 f6             	movslq %esi,%rsi
    1788:	49 83 e8 08          	sub    $0x8,%r8
    178c:	41 89 d2             	mov    %edx,%r10d
    178f:	45 2b 14 24          	sub    (%r12),%r10d
    1793:	48 89 c7             	mov    %rax,%rdi
    1796:	49 89 f7             	mov    %rsi,%r15
    1799:	46 8d 0c 31          	lea    (%rcx,%r14,1),%r9d
    179d:	4d 63 d2             	movslq %r10d,%r10
    17a0:	41 03 14 24          	add    (%r12),%edx
    17a4:	44 29 f1             	sub    %r14d,%ecx
    17a7:	4d 63 c9             	movslq %r9d,%r9
    17aa:	49 0f af c2          	imul   %r10,%rax
    17ae:	c1 fa 02             	sar    $0x2,%edx
    17b1:	83 c3 02             	add    $0x2,%ebx
    17b4:	49 0f af f1          	imul   %r9,%rsi
    17b8:	c1 f9 02             	sar    $0x2,%ecx
    17bb:	49 0f af f9          	imul   %r9,%rdi
    17bf:	41 89 c9             	mov    %ecx,%r9d
    17c2:	4d 0f af fa          	imul   %r10,%r15
    17c6:	48 01 f0             	add    %rsi,%rax
    17c9:	48 c1 f8 21          	sar    $0x21,%rax
    17cd:	4c 29 ff             	sub    %r15,%rdi
    17d0:	48 89 c6             	mov    %rax,%rsi
    17d3:	41 29 c1             	sub    %eax,%r9d
    17d6:	48 c1 ff 21          	sar    $0x21,%rdi
    17da:	48 f7 de             	neg    %rsi
    17dd:	45 89 48 0c          	mov    %r9d,0xc(%r8)
    17e1:	44 8d 3c 3a          	lea    (%rdx,%rdi,1),%r15d
    17e5:	29 ce                	sub    %ecx,%esi
    17e7:	29 fa                	sub    %edi,%edx
    17e9:	66 0f 6e c2          	movd   %edx,%xmm0
    17ed:	66 0f 6e ce          	movd   %esi,%xmm1
    17f1:	45 89 78 08          	mov    %r15d,0x8(%r8)
    17f5:	66 0f 62 c1          	punpckldq %xmm1,%xmm0
    17f9:	66 41 0f d6 04 24    	movq   %xmm0,(%r12)
    17ff:	41 83 eb 01          	sub    $0x1,%r11d
    1803:	0f 84 7f 00 00 00    	je     1888 <riscv_dsp_rfft_q31+0x188>
    1809:	89 df                	mov    %ebx,%edi
    180b:	0f b6 4c 24 0c       	movzbl 0xc(%rsp),%ecx
    1810:	44 89 d8             	mov    %r11d,%eax
    1813:	ba 00 01 00 00       	mov    $0x100,%edx
    1818:	d3 e0                	shl    %cl,%eax
    181a:	29 c2                	sub    %eax,%edx
    181c:	85 d2                	test   %edx,%edx
    181e:	0f 8f 3c ff ff ff    	jg     1760 <riscv_dsp_rfft_q31+0x60>
    1824:	8d 90 00 ff ff ff    	lea    -0x100(%rax),%edx
    182a:	b9 00 01 00 00       	mov    $0x100,%ecx
    182f:	29 d1                	sub    %edx,%ecx
    1831:	85 c9                	test   %ecx,%ecx
    1833:	7e 1b                	jle    1850 <riscv_dsp_rfft_q31+0x150>
    1835:	48 63 c9             	movslq %ecx,%rcx
    1838:	48 63 d2             	movslq %edx,%rdx
    183b:	41 8b 44 8d 00       	mov    0x0(%r13,%rcx,4),%eax
    1840:	41 8b 74 95 00       	mov    0x0(%r13,%rdx,4),%esi
    1845:	f7 d8                	neg    %eax
    1847:	e9 23 ff ff ff       	jmp    176f <riscv_dsp_rfft_q31+0x6f>
    184c:	0f 1f 40 00          	nopl   0x0(%rax)
    1850:	8d 90 00 fe ff ff    	lea    -0x200(%rax),%edx
    1856:	b9 00 01 00 00       	mov    $0x100,%ecx
    185b:	29 d1                	sub    %edx,%ecx
    185d:	48 63 d2             	movslq %edx,%rdx
    1860:	41 8b 74 95 00       	mov    0x0(%r13,%rdx,4),%esi
    1865:	48 63 c1             	movslq %ecx,%rax
    1868:	41 8b 44 85 00       	mov    0x0(%r13,%rax,4),%eax
    186d:	f7 de                	neg    %esi
    186f:	85 c9                	test   %ecx,%ecx
    1871:	0f 8e f8 fe ff ff    	jle    176f <riscv_dsp_rfft_q31+0x6f>
    1877:	f7 d8                	neg    %eax
    1879:	89 c2                	mov    %eax,%edx
    187b:	89 f0                	mov    %esi,%eax
    187d:	89 d6                	mov    %edx,%esi
    187f:	e9 eb fe ff ff       	jmp    176f <riscv_dsp_rfft_q31+0x6f>
    1884:	0f 1f 40 00          	nopl   0x0(%rax)
    1888:	48 63 45 00          	movslq 0x0(%rbp),%rax
    188c:	48 63 4d 04          	movslq 0x4(%rbp),%rcx
    1890:	48 8d 14 01          	lea    (%rcx,%rax,1),%rdx
    1894:	48 29 c8             	sub    %rcx,%rax
    1897:	48 d1 f8             	sar    %rax
    189a:	48 d1 fa             	sar    %rdx
    189d:	66 0f 6e d0          	movd   %eax,%xmm2
    18a1:	66 0f 6e c2          	movd   %edx,%xmm0
    18a5:	31 c0                	xor    %eax,%eax
    18a7:	66 0f 62 c2          	punpckldq %xmm2,%xmm0
    18ab:	66 0f d6 45 00       	movq   %xmm0,0x0(%rbp)
    18b0:	48 83 c4 18          	add    $0x18,%rsp
    18b4:	5b                   	pop    %rbx
    18b5:	5d                   	pop    %rbp
    18b6:	41 5c                	pop    %r12
    18b8:	41 5d                	pop    %r13
    18ba:	41 5e                	pop    %r14
    18bc:	41 5f                	pop    %r15
    18be:	c3                   	ret    
    18bf:	90                   	nop

00000000000018c0 <riscv_dsp_rifft_q31>:
    18c0:	f3 0f 1e fa          	endbr64 
    18c4:	41 57                	push   %r15
    18c6:	41 bb 01 00 00 00    	mov    $0x1,%r11d
    18cc:	89 f1                	mov    %esi,%ecx
    18ce:	41 56                	push   %r14
    18d0:	41 d3 e3             	shl    %cl,%r11d
    18d3:	41 55                	push   %r13
    18d5:	41 54                	push   %r12
    18d7:	49 89 fc             	mov    %rdi,%r12
    18da:	55                   	push   %rbp
    18db:	53                   	push   %rbx
    18dc:	48 83 ec 18          	sub    $0x18,%rsp
    18e0:	41 c1 eb 02          	shr    $0x2,%r11d
    18e4:	89 74 24 0c          	mov    %esi,0xc(%rsp)
    18e8:	0f 84 42 01 00 00    	je     1a30 <riscv_dsp_rifft_q31+0x170>
    18ee:	b8 0a 00 00 00       	mov    $0xa,%eax
    18f3:	4c 8d 2d ae 50 00 00 	lea    0x50ae(%rip),%r13        # 69a8 <riscv_dsp_cos_table_q31_1024+0x8>
    18fa:	29 f0                	sub    %esi,%eax
    18fc:	43 8d 34 1b          	lea    (%r11,%r11,1),%esi
    1900:	89 44 24 08          	mov    %eax,0x8(%rsp)
    1904:	48 89 f3             	mov    %rsi,%rbx
    1907:	48 8d 3c b7          	lea    (%rdi,%rsi,4),%rdi
    190b:	e9 9b 00 00 00       	jmp    19ab <riscv_dsp_rifft_q31+0xeb>
    1910:	48 98                	cltq   
    1912:	48 63 d2             	movslq %edx,%rdx
    1915:	41 8b 44 85 00       	mov    0x0(%r13,%rax,4),%eax
    191a:	41 8b 4c 95 00       	mov    0x0(%r13,%rdx,4),%ecx
    191f:	49 8d 2c b4          	lea    (%r12,%rsi,4),%rbp
    1923:	8d 73 01             	lea    0x1(%rbx),%esi
    1926:	8b 17                	mov    (%rdi),%edx
    1928:	44 8b 47 04          	mov    0x4(%rdi),%r8d
    192c:	45 8b 34 b4          	mov    (%r12,%rsi,4),%r14d
    1930:	48 98                	cltq   
    1932:	48 63 c9             	movslq %ecx,%rcx
    1935:	48 83 ef 08          	sub    $0x8,%rdi
    1939:	41 89 d2             	mov    %edx,%r10d
    193c:	44 2b 55 00          	sub    0x0(%rbp),%r10d
    1940:	48 89 c6             	mov    %rax,%rsi
    1943:	49 89 cf             	mov    %rcx,%r15
    1946:	47 8d 0c 30          	lea    (%r8,%r14,1),%r9d
    194a:	4d 63 d2             	movslq %r10d,%r10
    194d:	45 29 f0             	sub    %r14d,%r8d
    1950:	03 55 00             	add    0x0(%rbp),%edx
    1953:	4d 63 c9             	movslq %r9d,%r9
    1956:	49 0f af c2          	imul   %r10,%rax
    195a:	83 c3 02             	add    $0x2,%ebx
    195d:	49 0f af c9          	imul   %r9,%rcx
    1961:	4d 0f af fa          	imul   %r10,%r15
    1965:	49 0f af f1          	imul   %r9,%rsi
    1969:	48 29 c8             	sub    %rcx,%rax
    196c:	48 c1 f8 1f          	sar    $0x1f,%rax
    1970:	4c 01 fe             	add    %r15,%rsi
    1973:	41 8d 0c 00          	lea    (%r8,%rax,1),%ecx
    1977:	44 29 c0             	sub    %r8d,%eax
    197a:	41 89 d7             	mov    %edx,%r15d
    197d:	48 c1 fe 1f          	sar    $0x1f,%rsi
    1981:	89 4f 0c             	mov    %ecx,0xc(%rdi)
    1984:	66 0f 6e c8          	movd   %eax,%xmm1
    1988:	8d 0c 32             	lea    (%rdx,%rsi,1),%ecx
    198b:	41 29 f7             	sub    %esi,%r15d
    198e:	66 0f 6e c1          	movd   %ecx,%xmm0
    1992:	44 89 7f 08          	mov    %r15d,0x8(%rdi)
    1996:	66 0f 62 c1          	punpckldq %xmm1,%xmm0
    199a:	66 0f d6 45 00       	movq   %xmm0,0x0(%rbp)
    199f:	41 83 eb 01          	sub    $0x1,%r11d
    19a3:	0f 84 87 00 00 00    	je     1a30 <riscv_dsp_rifft_q31+0x170>
    19a9:	89 de                	mov    %ebx,%esi
    19ab:	0f b6 4c 24 08       	movzbl 0x8(%rsp),%ecx
    19b0:	44 89 d8             	mov    %r11d,%eax
    19b3:	ba 00 01 00 00       	mov    $0x100,%edx
    19b8:	d3 e0                	shl    %cl,%eax
    19ba:	29 c2                	sub    %eax,%edx
    19bc:	85 d2                	test   %edx,%edx
    19be:	0f 8f 4c ff ff ff    	jg     1910 <riscv_dsp_rifft_q31+0x50>
    19c4:	8d 90 00 ff ff ff    	lea    -0x100(%rax),%edx
    19ca:	b9 00 01 00 00       	mov    $0x100,%ecx
    19cf:	29 d1                	sub    %edx,%ecx
    19d1:	85 c9                	test   %ecx,%ecx
    19d3:	7e 1b                	jle    19f0 <riscv_dsp_rifft_q31+0x130>
    19d5:	48 63 c9             	movslq %ecx,%rcx
    19d8:	48 63 d2             	movslq %edx,%rdx
    19db:	41 8b 44 8d 00       	mov    0x0(%r13,%rcx,4),%eax
    19e0:	41 8b 4c 95 00       	mov    0x0(%r13,%rdx,4),%ecx
    19e5:	f7 d8                	neg    %eax
    19e7:	e9 33 ff ff ff       	jmp    191f <riscv_dsp_rifft_q31+0x5f>
    19ec:	0f 1f 40 00          	nopl   0x0(%rax)
    19f0:	8d 90 00 fe ff ff    	lea    -0x200(%rax),%edx
    19f6:	41 b8 00 01 00 00    	mov    $0x100,%r8d
    19fc:	41 29 d0             	sub    %edx,%r8d
    19ff:	48 63 d2             	movslq %edx,%rdx
    1a02:	41 8b 4c 95 00       	mov    0x0(%r13,%rdx,4),%ecx
    1a07:	49 63 c0             	movslq %r8d,%rax
    1a0a:	41 8b 44 85 00       	mov    0x0(%r13,%rax,4),%eax
    1a0f:	f7 d9                	neg    %ecx
    1a11:	45 85 c0             	test   %r8d,%r8d
    1a14:	0f 8e 05 ff ff ff    	jle    191f <riscv_dsp_rifft_q31+0x5f>
    1a1a:	f7 d8                	neg    %eax
    1a1c:	89 c2                	mov    %eax,%edx
    1a1e:	89 c8                	mov    %ecx,%eax
    1a20:	89 d1                	mov    %edx,%ecx
    1a22:	e9 f8 fe ff ff       	jmp    191f <riscv_dsp_rifft_q31+0x5f>
    1a27:	66 0f 1f 84 00 00 00 	nopw   0x0(%rax,%rax,1)
    1a2e:	00 00 
    1a30:	41 8b 04 24          	mov    (%r12),%eax
    1a34:	41 8b 5c 24 04       	mov    0x4(%r12),%ebx
    1a39:	4c 89 e7             	mov    %r12,%rdi
    1a3c:	8b 74 24 0c          	mov    0xc(%rsp),%esi
    1a40:	01 c3                	add    %eax,%ebx
    1a42:	41 2b 44 24 04       	sub    0x4(%r12),%eax
    1a47:	66 0f 6e c3          	movd   %ebx,%xmm0
    1a4b:	66 0f 6e d0          	movd   %eax,%xmm2
    1a4f:	83 ee 01             	sub    $0x1,%esi
    1a52:	66 0f 62 c2          	punpckldq %xmm2,%xmm0
    1a56:	66 41 0f d6 04 24    	movq   %xmm0,(%r12)
    1a5c:	e8 4f 00 00 00       	call   1ab0 <riscv_dsp_cifft_q31>
    1a61:	48 83 c4 18          	add    $0x18,%rsp
    1a65:	31 c0                	xor    %eax,%eax
    1a67:	5b                   	pop    %rbx
    1a68:	5d                   	pop    %rbp
    1a69:	41 5c                	pop    %r12
    1a6b:	41 5d                	pop    %r13
    1a6d:	41 5e                	pop    %r14
    1a6f:	41 5f                	pop    %r15
    1a71:	c3                   	ret    
    1a72:	66 2e 0f 1f 84 00 00 	cs nopw 0x0(%rax,%rax,1)
    1a79:	00 00 00 
    1a7c:	0f 1f 40 00          	nopl   0x0(%rax)

0000000000001a80 <riscv_dsp_cfft_q31>:
    1a80:	f3 0f 1e fa          	endbr64 
    1a84:	83 fe 0e             	cmp    $0xe,%esi
    1a87:	77 17                	ja     1aa0 <riscv_dsp_cfft_q31+0x20>
    1a89:	b8 50 55 00 00       	mov    $0x5550,%eax
    1a8e:	48 0f a3 f0          	bt     %rsi,%rax
    1a92:	73 0c                	jae    1aa0 <riscv_dsp_cfft_q31+0x20>
    1a94:	e9 37 18 00 00       	jmp    32d0 <riscv_dsp_cfft_rd4_q31>
    1a99:	0f 1f 80 00 00 00 00 	nopl   0x0(%rax)
    1aa0:	e9 3b 00 00 00       	jmp    1ae0 <riscv_dsp_cfft_rd2_q31>
    1aa5:	66 2e 0f 1f 84 00 00 	cs nopw 0x0(%rax,%rax,1)
    1aac:	00 00 00 
    1aaf:	90                   	nop

0000000000001ab0 <riscv_dsp_cifft_q31>:
    1ab0:	f3 0f 1e fa          	endbr64 
    1ab4:	83 fe 0e             	cmp    $0xe,%esi
    1ab7:	77 17                	ja     1ad0 <riscv_dsp_cifft_q31+0x20>
    1ab9:	b8 50 55 00 00       	mov    $0x5550,%eax
    1abe:	48 0f a3 f0          	bt     %rsi,%rax
    1ac2:	73 0c                	jae    1ad0 <riscv_dsp_cifft_q31+0x20>
    1ac4:	e9 57 2a 00 00       	jmp    4520 <riscv_dsp_cifft_rd4_q31>
    1ac9:	0f 1f 80 00 00 00 00 	nopl   0x0(%rax)
    1ad0:	e9 3b 07 00 00       	jmp    2210 <riscv_dsp_cifft_rd2_q31>
    1ad5:	66 2e 0f 1f 84 00 00 	cs nopw 0x0(%rax,%rax,1)
    1adc:	00 00 00 
    1adf:	90                   	nop

0000000000001ae0 <riscv_dsp_cfft_rd2_q31>:
    1ae0:	f3 0f 1e fa          	endbr64 
    1ae4:	b8 01 00 00 00       	mov    $0x1,%eax
    1ae9:	89 f1                	mov    %esi,%ecx
    1aeb:	41 57                	push   %r15
    1aed:	d3 e0                	shl    %cl,%eax
    1aef:	41 56                	push   %r14
    1af1:	49 89 fe             	mov    %rdi,%r14
    1af4:	41 89 c3             	mov    %eax,%r11d
    1af7:	41 55                	push   %r13
    1af9:	49 c1 e3 02          	shl    $0x2,%r11
    1afd:	41 54                	push   %r12
    1aff:	4e 8d 2c 1f          	lea    (%rdi,%r11,1),%r13
    1b03:	55                   	push   %rbp
    1b04:	53                   	push   %rbx
    1b05:	f3 0f 7e 07          	movq   (%rdi),%xmm0
    1b09:	f3 41 0f 7e 4d 00    	movq   0x0(%r13),%xmm1
    1b0f:	66 0f 72 e0 01       	psrad  $0x1,%xmm0
    1b14:	66 0f 72 e1 01       	psrad  $0x1,%xmm1
    1b19:	66 0f 6f d0          	movdqa %xmm0,%xmm2
    1b1d:	89 44 24 f4          	mov    %eax,-0xc(%rsp)
    1b21:	48 8d 47 08          	lea    0x8(%rdi),%rax
    1b25:	66 0f fe d1          	paddd  %xmm1,%xmm2
    1b29:	66 0f fa c1          	psubd  %xmm1,%xmm0
    1b2d:	89 74 24 f0          	mov    %esi,-0x10(%rsp)
    1b31:	48 89 44 24 e0       	mov    %rax,-0x20(%rsp)
    1b36:	66 0f 72 e2 01       	psrad  $0x1,%xmm2
    1b3b:	66 0f 72 e0 01       	psrad  $0x1,%xmm0
    1b40:	66 0f d6 17          	movq   %xmm2,(%rdi)
    1b44:	66 41 0f d6 45 00    	movq   %xmm0,0x0(%r13)
    1b4a:	49 39 c5             	cmp    %rax,%r13
    1b4d:	0f 84 24 01 00 00    	je     1c77 <riscv_dsp_cfft_rd2_q31+0x197>
    1b53:	b9 0a 00 00 00       	mov    $0xa,%ecx
    1b58:	48 89 c7             	mov    %rax,%rdi
    1b5b:	45 31 d2             	xor    %r10d,%r10d
    1b5e:	2b 4c 24 f0          	sub    -0x10(%rsp),%ecx
    1b62:	48 8d 1d 3f 4e 00 00 	lea    0x4e3f(%rip),%rbx        # 69a8 <riscv_dsp_cos_table_q31_1024+0x8>
    1b69:	41 bc 00 01 00 00    	mov    $0x100,%r12d
    1b6f:	e9 9b 00 00 00       	jmp    1c0f <riscv_dsp_cfft_rd2_q31+0x12f>
    1b74:	48 98                	cltq   
    1b76:	48 63 f6             	movslq %esi,%rsi
    1b79:	8b 14 83             	mov    (%rbx,%rax,4),%edx
    1b7c:	8b 34 b3             	mov    (%rbx,%rsi,4),%esi
    1b7f:	f3 0f 7e 0f          	movq   (%rdi),%xmm1
    1b83:	f3 42 0f 7e 04 1f    	movq   (%rdi,%r11,1),%xmm0
    1b89:	48 63 f6             	movslq %esi,%rsi
    1b8c:	48 83 c7 08          	add    $0x8,%rdi
    1b90:	48 89 f5             	mov    %rsi,%rbp
    1b93:	66 0f 72 e1 01       	psrad  $0x1,%xmm1
    1b98:	66 0f 72 e0 01       	psrad  $0x1,%xmm0
    1b9d:	66 0f 7e c0          	movd   %xmm0,%eax
    1ba1:	66 41 0f 7e c8       	movd   %xmm1,%r8d
    1ba6:	66 0f 70 d9 e5       	pshufd $0xe5,%xmm1,%xmm3
    1bab:	66 0f 70 e0 e5       	pshufd $0xe5,%xmm0,%xmm4
    1bb0:	41 29 c0             	sub    %eax,%r8d
    1bb3:	66 41 0f 7e d9       	movd   %xmm3,%r9d
    1bb8:	66 0f 7e e0          	movd   %xmm4,%eax
    1bbc:	41 29 c1             	sub    %eax,%r9d
    1bbf:	48 63 c2             	movslq %edx,%rax
    1bc2:	66 0f fe c1          	paddd  %xmm1,%xmm0
    1bc6:	4d 63 c0             	movslq %r8d,%r8
    1bc9:	4d 63 c9             	movslq %r9d,%r9
    1bcc:	49 0f af f0          	imul   %r8,%rsi
    1bd0:	48 89 c2             	mov    %rax,%rdx
    1bd3:	49 0f af d0          	imul   %r8,%rdx
    1bd7:	49 0f af e9          	imul   %r9,%rbp
    1bdb:	66 0f 72 e0 01       	psrad  $0x1,%xmm0
    1be0:	49 0f af c1          	imul   %r9,%rax
    1be4:	66 0f d6 47 f8       	movq   %xmm0,-0x8(%rdi)
    1be9:	48 01 ea             	add    %rbp,%rdx
    1bec:	48 29 f0             	sub    %rsi,%rax
    1bef:	48 c1 fa 20          	sar    $0x20,%rdx
    1bf3:	48 c1 f8 20          	sar    $0x20,%rax
    1bf7:	66 0f 6e c2          	movd   %edx,%xmm0
    1bfb:	66 0f 6e d8          	movd   %eax,%xmm3
    1bff:	66 0f 62 c3          	punpckldq %xmm3,%xmm0
    1c03:	66 42 0f d6 44 1f f8 	movq   %xmm0,-0x8(%rdi,%r11,1)
    1c0a:	49 39 fd             	cmp    %rdi,%r13
    1c0d:	74 68                	je     1c77 <riscv_dsp_cfft_rd2_q31+0x197>
    1c0f:	41 83 c2 01          	add    $0x1,%r10d
    1c13:	44 89 e6             	mov    %r12d,%esi
    1c16:	44 89 d0             	mov    %r10d,%eax
    1c19:	d3 e0                	shl    %cl,%eax
    1c1b:	29 c6                	sub    %eax,%esi
    1c1d:	85 f6                	test   %esi,%esi
    1c1f:	0f 8f 4f ff ff ff    	jg     1b74 <riscv_dsp_cfft_rd2_q31+0x94>
    1c25:	8d b0 00 ff ff ff    	lea    -0x100(%rax),%esi
    1c2b:	44 89 e2             	mov    %r12d,%edx
    1c2e:	29 f2                	sub    %esi,%edx
    1c30:	85 d2                	test   %edx,%edx
    1c32:	7e 15                	jle    1c49 <riscv_dsp_cfft_rd2_q31+0x169>
    1c34:	48 63 d2             	movslq %edx,%rdx
    1c37:	48 63 f6             	movslq %esi,%rsi
    1c3a:	8b 04 93             	mov    (%rbx,%rdx,4),%eax
    1c3d:	8b 34 b3             	mov    (%rbx,%rsi,4),%esi
    1c40:	f7 d8                	neg    %eax
    1c42:	89 c2                	mov    %eax,%edx
    1c44:	e9 36 ff ff ff       	jmp    1b7f <riscv_dsp_cfft_rd2_q31+0x9f>
    1c49:	2d 00 02 00 00       	sub    $0x200,%eax
    1c4e:	45 89 e0             	mov    %r12d,%r8d
    1c51:	41 29 c0             	sub    %eax,%r8d
    1c54:	48 98                	cltq   
    1c56:	8b 34 83             	mov    (%rbx,%rax,4),%esi
    1c59:	49 63 d0             	movslq %r8d,%rdx
    1c5c:	8b 14 93             	mov    (%rbx,%rdx,4),%edx
    1c5f:	f7 de                	neg    %esi
    1c61:	45 85 c0             	test   %r8d,%r8d
    1c64:	0f 8e 15 ff ff ff    	jle    1b7f <riscv_dsp_cfft_rd2_q31+0x9f>
    1c6a:	89 d0                	mov    %edx,%eax
    1c6c:	89 f2                	mov    %esi,%edx
    1c6e:	f7 d8                	neg    %eax
    1c70:	89 c6                	mov    %eax,%esi
    1c72:	e9 08 ff ff ff       	jmp    1b7f <riscv_dsp_cfft_rd2_q31+0x9f>
    1c77:	8b 44 24 f4          	mov    -0xc(%rsp),%eax
    1c7b:	8b 5c 24 f0          	mov    -0x10(%rsp),%ebx
    1c7f:	bd 02 00 00 00       	mov    $0x2,%ebp
    1c84:	89 44 24 e8          	mov    %eax,-0x18(%rsp)
    1c88:	89 d8                	mov    %ebx,%eax
    1c8a:	83 e8 02             	sub    $0x2,%eax
    1c8d:	89 44 24 ec          	mov    %eax,-0x14(%rsp)
    1c91:	0f 84 c0 01 00 00    	je     1e57 <riscv_dsp_cfft_rd2_q31+0x377>
    1c97:	b8 0a 00 00 00       	mov    $0xa,%eax
    1c9c:	4c 89 74 24 d8       	mov    %r14,-0x28(%rsp)
    1ca1:	4c 8d 2d 00 4d 00 00 	lea    0x4d00(%rip),%r13        # 69a8 <riscv_dsp_cos_table_q31_1024+0x8>
    1ca8:	29 d8                	sub    %ebx,%eax
    1caa:	89 44 24 d4          	mov    %eax,-0x2c(%rsp)
    1cae:	66 90                	xchg   %ax,%ax
    1cb0:	d1 6c 24 e8          	shrl   -0x18(%rsp)
    1cb4:	44 8b 5c 24 e8       	mov    -0x18(%rsp),%r11d
    1cb9:	48 8b 44 24 d8       	mov    -0x28(%rsp),%rax
    1cbe:	4e 8d 14 9d 00 00 00 	lea    0x0(,%r11,4),%r10
    1cc5:	00 
    1cc6:	4e 8d 34 10          	lea    (%rax,%r10,1),%r14
    1cca:	85 ed                	test   %ebp,%ebp
    1ccc:	0f 84 8a 00 00 00    	je     1d5c <riscv_dsp_cfft_rd2_q31+0x27c>
    1cd2:	4b 8d 44 12 04       	lea    0x4(%r10,%r10,1),%rax
    1cd7:	4a 8d 0c dd 00 00 00 	lea    0x0(,%r11,8),%rcx
    1cde:	00 
    1cdf:	49 39 c2             	cmp    %rax,%r10
    1ce2:	0f 8e ce 04 00 00    	jle    21b6 <riscv_dsp_cfft_rd2_q31+0x6d6>
    1ce8:	48 83 f9 07          	cmp    $0x7,%rcx
    1cec:	0f 97 c2             	seta   %dl
    1cef:	4d 85 d2             	test   %r10,%r10
    1cf2:	0f 95 c0             	setne  %al
    1cf5:	84 c2                	test   %al,%dl
    1cf7:	0f 84 b9 04 00 00    	je     21b6 <riscv_dsp_cfft_rd2_q31+0x6d6>
    1cfd:	41 89 e8             	mov    %ebp,%r8d
    1d00:	4c 89 df             	mov    %r11,%rdi
    1d03:	48 8b 54 24 d8       	mov    -0x28(%rsp),%rdx
    1d08:	4c 89 f0             	mov    %r14,%rax
    1d0b:	41 d1 e8             	shr    %r8d
    1d0e:	48 c1 e7 04          	shl    $0x4,%rdi
    1d12:	31 f6                	xor    %esi,%esi
    1d14:	0f 1f 40 00          	nopl   0x0(%rax)
    1d18:	f3 0f 7e 10          	movq   (%rax),%xmm2
    1d1c:	f3 0f 7e 02          	movq   (%rdx),%xmm0
    1d20:	83 c6 01             	add    $0x1,%esi
    1d23:	0f 16 14 08          	movhps (%rax,%rcx,1),%xmm2
    1d27:	0f 16 04 0a          	movhps (%rdx,%rcx,1),%xmm0
    1d2b:	66 0f 6f ca          	movdqa %xmm2,%xmm1
    1d2f:	66 0f fe c8          	paddd  %xmm0,%xmm1
    1d33:	66 0f fa c2          	psubd  %xmm2,%xmm0
    1d37:	66 0f 72 e1 01       	psrad  $0x1,%xmm1
    1d3c:	66 0f 72 e0 01       	psrad  $0x1,%xmm0
    1d41:	66 0f d6 0a          	movq   %xmm1,(%rdx)
    1d45:	0f 17 0c 0a          	movhps %xmm1,(%rdx,%rcx,1)
    1d49:	48 01 fa             	add    %rdi,%rdx
    1d4c:	66 0f d6 00          	movq   %xmm0,(%rax)
    1d50:	0f 17 04 08          	movhps %xmm0,(%rax,%rcx,1)
    1d54:	48 01 f8             	add    %rdi,%rax
    1d57:	44 39 c6             	cmp    %r8d,%esi
    1d5a:	75 bc                	jne    1d18 <riscv_dsp_cfft_rd2_q31+0x238>
    1d5c:	48 8b 44 24 e0       	mov    -0x20(%rsp),%rax
    1d61:	49 c1 e3 03          	shl    $0x3,%r11
    1d65:	45 31 e4             	xor    %r12d,%r12d
    1d68:	48 89 c3             	mov    %rax,%rbx
    1d6b:	4c 39 f0             	cmp    %r14,%rax
    1d6e:	0f 84 d1 00 00 00    	je     1e45 <riscv_dsp_cfft_rd2_q31+0x365>
    1d74:	0f 1f 40 00          	nopl   0x0(%rax)
    1d78:	0f b6 4c 24 d4       	movzbl -0x2c(%rsp),%ecx
    1d7d:	41 01 ec             	add    %ebp,%r12d
    1d80:	ba 00 01 00 00       	mov    $0x100,%edx
    1d85:	44 89 e0             	mov    %r12d,%eax
    1d88:	d3 e0                	shl    %cl,%eax
    1d8a:	29 c2                	sub    %eax,%edx
    1d8c:	85 d2                	test   %edx,%edx
    1d8e:	0f 8e bc 03 00 00    	jle    2150 <riscv_dsp_cfft_rd2_q31+0x670>
    1d94:	48 98                	cltq   
    1d96:	48 63 d2             	movslq %edx,%rdx
    1d99:	45 8b 44 85 00       	mov    0x0(%r13,%rax,4),%r8d
    1d9e:	45 8b 4c 95 00       	mov    0x0(%r13,%rdx,4),%r9d
    1da3:	85 ed                	test   %ebp,%ebp
    1da5:	0f 84 8d 00 00 00    	je     1e38 <riscv_dsp_cfft_rd2_q31+0x358>
    1dab:	4d 63 c0             	movslq %r8d,%r8
    1dae:	4d 63 c9             	movslq %r9d,%r9
    1db1:	48 89 de             	mov    %rbx,%rsi
    1db4:	89 ef                	mov    %ebp,%edi
    1db6:	66 2e 0f 1f 84 00 00 	cs nopw 0x0(%rax,%rax,1)
    1dbd:	00 00 00 
    1dc0:	f3 0f 7e 0e          	movq   (%rsi),%xmm1
    1dc4:	f3 42 0f 7e 04 16    	movq   (%rsi,%r10,1),%xmm0
    1dca:	66 0f 7e ca          	movd   %xmm1,%edx
    1dce:	66 0f 7e c0          	movd   %xmm0,%eax
    1dd2:	66 0f 70 f0 e5       	pshufd $0xe5,%xmm0,%xmm6
    1dd7:	66 0f 70 e9 e5       	pshufd $0xe5,%xmm1,%xmm5
    1ddc:	29 c2                	sub    %eax,%edx
    1dde:	66 0f 7e f1          	movd   %xmm6,%ecx
    1de2:	66 0f 7e e8          	movd   %xmm5,%eax
    1de6:	29 c8                	sub    %ecx,%eax
    1de8:	48 63 d2             	movslq %edx,%rdx
    1deb:	66 0f fe c1          	paddd  %xmm1,%xmm0
    1def:	48 98                	cltq   
    1df1:	48 89 d1             	mov    %rdx,%rcx
    1df4:	49 89 c7             	mov    %rax,%r15
    1df7:	49 0f af c8          	imul   %r8,%rcx
    1dfb:	4d 0f af f9          	imul   %r9,%r15
    1dff:	66 0f 72 e0 01       	psrad  $0x1,%xmm0
    1e04:	49 0f af c0          	imul   %r8,%rax
    1e08:	66 0f d6 06          	movq   %xmm0,(%rsi)
    1e0c:	49 0f af d1          	imul   %r9,%rdx
    1e10:	4c 01 f9             	add    %r15,%rcx
    1e13:	48 c1 f9 20          	sar    $0x20,%rcx
    1e17:	48 29 d0             	sub    %rdx,%rax
    1e1a:	66 0f 6e c1          	movd   %ecx,%xmm0
    1e1e:	48 c1 f8 20          	sar    $0x20,%rax
    1e22:	66 0f 6e f8          	movd   %eax,%xmm7
    1e26:	66 0f 62 c7          	punpckldq %xmm7,%xmm0
    1e2a:	66 42 0f d6 04 16    	movq   %xmm0,(%rsi,%r10,1)
    1e30:	4c 01 de             	add    %r11,%rsi
    1e33:	83 ef 01             	sub    $0x1,%edi
    1e36:	75 88                	jne    1dc0 <riscv_dsp_cfft_rd2_q31+0x2e0>
    1e38:	48 83 c3 08          	add    $0x8,%rbx
    1e3c:	49 39 de             	cmp    %rbx,%r14
    1e3f:	0f 85 33 ff ff ff    	jne    1d78 <riscv_dsp_cfft_rd2_q31+0x298>
    1e45:	01 ed                	add    %ebp,%ebp
    1e47:	83 6c 24 ec 01       	subl   $0x1,-0x14(%rsp)
    1e4c:	0f 85 5e fe ff ff    	jne    1cb0 <riscv_dsp_cfft_rd2_q31+0x1d0>
    1e52:	4c 8b 74 24 d8       	mov    -0x28(%rsp),%r14
    1e57:	0f b6 4c 24 f0       	movzbl -0x10(%rsp),%ecx
    1e5c:	b8 02 00 00 00       	mov    $0x2,%eax
    1e61:	d3 e0                	shl    %cl,%eax
    1e63:	48 8d 34 85 00 00 00 	lea    0x0(,%rax,4),%rsi
    1e6a:	00 
    1e6b:	49 8d 14 36          	lea    (%r14,%rsi,1),%rdx
    1e6f:	49 39 d6             	cmp    %rdx,%r14
    1e72:	0f 84 7d 00 00 00    	je     1ef5 <riscv_dsp_cfft_rd2_q31+0x415>
    1e78:	4c 29 f2             	sub    %r14,%rdx
    1e7b:	4c 89 f0             	mov    %r14,%rax
    1e7e:	48 8d 4a e0          	lea    -0x20(%rdx),%rcx
    1e82:	31 d2                	xor    %edx,%edx
    1e84:	48 c1 e9 05          	shr    $0x5,%rcx
    1e88:	48 83 c1 01          	add    $0x1,%rcx
    1e8c:	0f 1f 40 00          	nopl   0x0(%rax)
    1e90:	f3 0f 6f 10          	movdqu (%rax),%xmm2
    1e94:	f3 0f 6f 20          	movdqu (%rax),%xmm4
    1e98:	48 83 c2 01          	add    $0x1,%rdx
    1e9c:	48 83 c0 20          	add    $0x20,%rax
    1ea0:	f3 0f 6f 68 f0       	movdqu -0x10(%rax),%xmm5
    1ea5:	f3 0f 6f 58 f0       	movdqu -0x10(%rax),%xmm3
    1eaa:	66 0f 70 d2 ee       	pshufd $0xee,%xmm2,%xmm2
    1eaf:	66 0f 70 e4 44       	pshufd $0x44,%xmm4,%xmm4
    1eb4:	66 0f 6f c2          	movdqa %xmm2,%xmm0
    1eb8:	66 0f 70 cd ee       	pshufd $0xee,%xmm5,%xmm1
    1ebd:	66 0f 70 db 44       	pshufd $0x44,%xmm3,%xmm3
    1ec2:	66 0f fe c4          	paddd  %xmm4,%xmm0
    1ec6:	66 0f fa e2          	psubd  %xmm2,%xmm4
    1eca:	0f c6 c4 e4          	shufps $0xe4,%xmm4,%xmm0
    1ece:	66 0f 72 e0 01       	psrad  $0x1,%xmm0
    1ed3:	0f 11 40 e0          	movups %xmm0,-0x20(%rax)
    1ed7:	66 0f 6f c1          	movdqa %xmm1,%xmm0
    1edb:	66 0f fe c3          	paddd  %xmm3,%xmm0
    1edf:	66 0f fa d9          	psubd  %xmm1,%xmm3
    1ee3:	0f c6 c3 e4          	shufps $0xe4,%xmm3,%xmm0
    1ee7:	66 0f 72 e0 01       	psrad  $0x1,%xmm0
    1eec:	0f 11 40 f0          	movups %xmm0,-0x10(%rax)
    1ef0:	48 39 ca             	cmp    %rcx,%rdx
    1ef3:	72 9b                	jb     1e90 <riscv_dsp_cfft_rd2_q31+0x3b0>
    1ef5:	8b 44 24 f4          	mov    -0xc(%rsp),%eax
    1ef9:	41 8b 4e 08          	mov    0x8(%r14),%ecx
    1efd:	49 8d 7c 36 fc       	lea    -0x4(%r14,%rsi,1),%rdi
    1f02:	89 c3                	mov    %eax,%ebx
    1f04:	d1 eb                	shr    %ebx
    1f06:	41 89 d9             	mov    %ebx,%r9d
    1f09:	89 c3                	mov    %eax,%ebx
    1f0b:	83 e0 fe             	and    $0xfffffffe,%eax
    1f0e:	89 c2                	mov    %eax,%edx
    1f10:	83 c0 01             	add    $0x1,%eax
    1f13:	49 8d 14 96          	lea    (%r14,%rdx,4),%rdx
    1f17:	49 8d 04 86          	lea    (%r14,%rax,4),%rax
    1f1b:	8b 32                	mov    (%rdx),%esi
    1f1d:	41 89 76 08          	mov    %esi,0x8(%r14)
    1f21:	89 0a                	mov    %ecx,(%rdx)
    1f23:	8b 08                	mov    (%rax),%ecx
    1f25:	41 8b 56 0c          	mov    0xc(%r14),%edx
    1f29:	41 89 4e 0c          	mov    %ecx,0xc(%r14)
    1f2d:	b9 04 00 00 00       	mov    $0x4,%ecx
    1f32:	89 10                	mov    %edx,(%rax)
    1f34:	89 d8                	mov    %ebx,%eax
    1f36:	c1 eb 02             	shr    $0x2,%ebx
    1f39:	ba 04 00 00 00       	mov    $0x4,%edx
    1f3e:	41 89 da             	mov    %ebx,%r10d
    1f41:	44 89 cb             	mov    %r9d,%ebx
    1f44:	41 89 c3             	mov    %eax,%r11d
    1f47:	44 89 c8             	mov    %r9d,%eax
    1f4a:	44 31 d3             	xor    %r10d,%ebx
    1f4d:	41 c1 eb 03          	shr    $0x3,%r11d
    1f51:	89 dd                	mov    %ebx,%ebp
    1f53:	44 31 dd             	xor    %r11d,%ebp
    1f56:	66 2e 0f 1f 84 00 00 	cs nopw 0x0(%rax,%rax,1)
    1f5d:	00 00 00 
    1f60:	31 d8                	xor    %ebx,%eax
    1f62:	41 85 c2             	test   %eax,%r10d
    1f65:	75 11                	jne    1f78 <riscv_dsp_cfft_rd2_q31+0x498>
    1f67:	44 89 d6             	mov    %r10d,%esi
    1f6a:	66 0f 1f 44 00 00    	nopw   0x0(%rax,%rax,1)
    1f70:	d1 ee                	shr    %esi
    1f72:	31 f0                	xor    %esi,%eax
    1f74:	85 c6                	test   %eax,%esi
    1f76:	74 f8                	je     1f70 <riscv_dsp_cfft_rd2_q31+0x490>
    1f78:	8d 71 fe             	lea    -0x2(%rcx),%esi
    1f7b:	39 f0                	cmp    %esi,%eax
    1f7d:	0f 86 8c 00 00 00    	jbe    200f <riscv_dsp_cfft_rd2_q31+0x52f>
    1f83:	89 d6                	mov    %edx,%esi
    1f85:	44 8d 04 00          	lea    (%rax,%rax,1),%r8d
    1f89:	4d 8d 24 b6          	lea    (%r14,%rsi,4),%r12
    1f8d:	4c 89 c6             	mov    %r8,%rsi
    1f90:	4f 8d 04 86          	lea    (%r14,%r8,4),%r8
    1f94:	45 8b 2c 24          	mov    (%r12),%r13d
    1f98:	45 8b 38             	mov    (%r8),%r15d
    1f9b:	83 c6 01             	add    $0x1,%esi
    1f9e:	49 8d 34 b6          	lea    (%r14,%rsi,4),%rsi
    1fa2:	45 89 3c 24          	mov    %r15d,(%r12)
    1fa6:	45 89 28             	mov    %r13d,(%r8)
    1fa9:	44 8d 42 01          	lea    0x1(%rdx),%r8d
    1fad:	44 8b 2e             	mov    (%rsi),%r13d
    1fb0:	4f 8d 04 86          	lea    (%r14,%r8,4),%r8
    1fb4:	45 8b 20             	mov    (%r8),%r12d
    1fb7:	45 89 28             	mov    %r13d,(%r8)
    1fba:	41 89 d0             	mov    %edx,%r8d
    1fbd:	41 f7 d8             	neg    %r8d
    1fc0:	44 89 26             	mov    %r12d,(%rsi)
    1fc3:	89 c6                	mov    %eax,%esi
    1fc5:	4d 63 c0             	movslq %r8d,%r8
    1fc8:	f7 de                	neg    %esi
    1fca:	49 c1 e0 02          	shl    $0x2,%r8
    1fce:	01 f6                	add    %esi,%esi
    1fd0:	4e 8d 2c 07          	lea    (%rdi,%r8,1),%r13
    1fd4:	4e 8d 44 07 fc       	lea    -0x4(%rdi,%r8,1),%r8
    1fd9:	48 63 f6             	movslq %esi,%rsi
    1fdc:	45 8b 7d 00          	mov    0x0(%r13),%r15d
    1fe0:	48 c1 e6 02          	shl    $0x2,%rsi
    1fe4:	4c 8d 24 37          	lea    (%rdi,%rsi,1),%r12
    1fe8:	44 89 7c 24 d4       	mov    %r15d,-0x2c(%rsp)
    1fed:	48 8d 74 37 fc       	lea    -0x4(%rdi,%rsi,1),%rsi
    1ff2:	45 8b 3c 24          	mov    (%r12),%r15d
    1ff6:	45 89 7d 00          	mov    %r15d,0x0(%r13)
    1ffa:	44 8b 7c 24 d4       	mov    -0x2c(%rsp),%r15d
    1fff:	45 89 3c 24          	mov    %r15d,(%r12)
    2003:	45 8b 20             	mov    (%r8),%r12d
    2006:	44 8b 2e             	mov    (%rsi),%r13d
    2009:	45 89 28             	mov    %r13d,(%r8)
    200c:	44 89 26             	mov    %r12d,(%rsi)
    200f:	44 01 c8             	add    %r9d,%eax
    2012:	8d 72 02             	lea    0x2(%rdx),%esi
    2015:	44 8d 04 00          	lea    (%rax,%rax,1),%r8d
    2019:	4d 8d 24 b6          	lea    (%r14,%rsi,4),%r12
    201d:	4c 89 c6             	mov    %r8,%rsi
    2020:	4f 8d 04 86          	lea    (%r14,%r8,4),%r8
    2024:	45 8b 2c 24          	mov    (%r12),%r13d
    2028:	45 8b 38             	mov    (%r8),%r15d
    202b:	83 c6 01             	add    $0x1,%esi
    202e:	49 8d 34 b6          	lea    (%r14,%rsi,4),%rsi
    2032:	45 89 3c 24          	mov    %r15d,(%r12)
    2036:	45 89 28             	mov    %r13d,(%r8)
    2039:	44 8d 42 03          	lea    0x3(%rdx),%r8d
    203d:	44 8b 2e             	mov    (%rsi),%r13d
    2040:	4f 8d 04 86          	lea    (%r14,%r8,4),%r8
    2044:	45 8b 20             	mov    (%r8),%r12d
    2047:	45 89 28             	mov    %r13d,(%r8)
    204a:	44 89 26             	mov    %r12d,(%rsi)
    204d:	44 39 c9             	cmp    %r9d,%ecx
    2050:	0f 83 a1 01 00 00    	jae    21f7 <riscv_dsp_cfft_rd2_q31+0x717>
    2056:	31 e8                	xor    %ebp,%eax
    2058:	41 85 c3             	test   %eax,%r11d
    205b:	75 0b                	jne    2068 <riscv_dsp_cfft_rd2_q31+0x588>
    205d:	44 89 de             	mov    %r11d,%esi
    2060:	d1 ee                	shr    %esi
    2062:	31 f0                	xor    %esi,%eax
    2064:	85 c6                	test   %eax,%esi
    2066:	74 f8                	je     2060 <riscv_dsp_cfft_rd2_q31+0x580>
    2068:	39 c1                	cmp    %eax,%ecx
    206a:	0f 83 90 00 00 00    	jae    2100 <riscv_dsp_cfft_rd2_q31+0x620>
    2070:	8d 72 04             	lea    0x4(%rdx),%esi
    2073:	44 8d 04 00          	lea    (%rax,%rax,1),%r8d
    2077:	4d 8d 24 b6          	lea    (%r14,%rsi,4),%r12
    207b:	4c 89 c6             	mov    %r8,%rsi
    207e:	4f 8d 04 86          	lea    (%r14,%r8,4),%r8
    2082:	45 8b 2c 24          	mov    (%r12),%r13d
    2086:	45 8b 38             	mov    (%r8),%r15d
    2089:	83 c6 01             	add    $0x1,%esi
    208c:	49 8d 34 b6          	lea    (%r14,%rsi,4),%rsi
    2090:	45 89 3c 24          	mov    %r15d,(%r12)
    2094:	45 89 28             	mov    %r13d,(%r8)
    2097:	44 8d 42 05          	lea    0x5(%rdx),%r8d
    209b:	44 8b 2e             	mov    (%rsi),%r13d
    209e:	4f 8d 04 86          	lea    (%r14,%r8,4),%r8
    20a2:	45 8b 20             	mov    (%r8),%r12d
    20a5:	45 89 28             	mov    %r13d,(%r8)
    20a8:	41 b8 fc ff ff ff    	mov    $0xfffffffc,%r8d
    20ae:	41 29 d0             	sub    %edx,%r8d
    20b1:	44 89 26             	mov    %r12d,(%rsi)
    20b4:	89 c6                	mov    %eax,%esi
    20b6:	4d 63 c0             	movslq %r8d,%r8
    20b9:	f7 de                	neg    %esi
    20bb:	49 c1 e0 02          	shl    $0x2,%r8
    20bf:	01 f6                	add    %esi,%esi
    20c1:	4e 8d 2c 07          	lea    (%rdi,%r8,1),%r13
    20c5:	4e 8d 44 07 fc       	lea    -0x4(%rdi,%r8,1),%r8
    20ca:	48 63 f6             	movslq %esi,%rsi
    20cd:	45 8b 7d 00          	mov    0x0(%r13),%r15d
    20d1:	48 c1 e6 02          	shl    $0x2,%rsi
    20d5:	4c 8d 24 37          	lea    (%rdi,%rsi,1),%r12
    20d9:	44 89 7c 24 d4       	mov    %r15d,-0x2c(%rsp)
    20de:	48 8d 74 37 fc       	lea    -0x4(%rdi,%rsi,1),%rsi
    20e3:	45 8b 3c 24          	mov    (%r12),%r15d
    20e7:	45 89 7d 00          	mov    %r15d,0x0(%r13)
    20eb:	44 8b 7c 24 d4       	mov    -0x2c(%rsp),%r15d
    20f0:	45 89 3c 24          	mov    %r15d,(%r12)
    20f4:	45 8b 20             	mov    (%r8),%r12d
    20f7:	44 8b 2e             	mov    (%rsi),%r13d
    20fa:	45 89 28             	mov    %r13d,(%r8)
    20fd:	44 89 26             	mov    %r12d,(%rsi)
    2100:	44 01 c8             	add    %r9d,%eax
    2103:	8d 72 06             	lea    0x6(%rdx),%esi
    2106:	83 c1 04             	add    $0x4,%ecx
    2109:	44 8d 04 00          	lea    (%rax,%rax,1),%r8d
    210d:	4d 8d 24 b6          	lea    (%r14,%rsi,4),%r12
    2111:	4c 89 c6             	mov    %r8,%rsi
    2114:	4f 8d 04 86          	lea    (%r14,%r8,4),%r8
    2118:	45 8b 2c 24          	mov    (%r12),%r13d
    211c:	45 8b 38             	mov    (%r8),%r15d
    211f:	83 c6 01             	add    $0x1,%esi
    2122:	49 8d 34 b6          	lea    (%r14,%rsi,4),%rsi
    2126:	45 89 3c 24          	mov    %r15d,(%r12)
    212a:	45 89 28             	mov    %r13d,(%r8)
    212d:	44 8d 42 07          	lea    0x7(%rdx),%r8d
    2131:	44 8b 2e             	mov    (%rsi),%r13d
    2134:	83 c2 08             	add    $0x8,%edx
    2137:	4f 8d 04 86          	lea    (%r14,%r8,4),%r8
    213b:	45 8b 20             	mov    (%r8),%r12d
    213e:	45 89 28             	mov    %r13d,(%r8)
    2141:	44 89 26             	mov    %r12d,(%rsi)
    2144:	e9 17 fe ff ff       	jmp    1f60 <riscv_dsp_cfft_rd2_q31+0x480>
    2149:	0f 1f 80 00 00 00 00 	nopl   0x0(%rax)
    2150:	8d 90 00 ff ff ff    	lea    -0x100(%rax),%edx
    2156:	b9 00 01 00 00       	mov    $0x100,%ecx
    215b:	29 d1                	sub    %edx,%ecx
    215d:	85 c9                	test   %ecx,%ecx
    215f:	7e 1f                	jle    2180 <riscv_dsp_cfft_rd2_q31+0x6a0>
    2161:	48 63 c9             	movslq %ecx,%rcx
    2164:	48 63 d2             	movslq %edx,%rdx
    2167:	45 8b 44 8d 00       	mov    0x0(%r13,%rcx,4),%r8d
    216c:	45 8b 4c 95 00       	mov    0x0(%r13,%rdx,4),%r9d
    2171:	41 f7 d8             	neg    %r8d
    2174:	e9 2a fc ff ff       	jmp    1da3 <riscv_dsp_cfft_rd2_q31+0x2c3>
    2179:	0f 1f 80 00 00 00 00 	nopl   0x0(%rax)
    2180:	2d 00 02 00 00       	sub    $0x200,%eax
    2185:	ba 00 01 00 00       	mov    $0x100,%edx
    218a:	29 c2                	sub    %eax,%edx
    218c:	48 98                	cltq   
    218e:	45 8b 4c 85 00       	mov    0x0(%r13,%rax,4),%r9d
    2193:	48 63 ca             	movslq %edx,%rcx
    2196:	45 8b 44 8d 00       	mov    0x0(%r13,%rcx,4),%r8d
    219b:	41 f7 d9             	neg    %r9d
    219e:	85 d2                	test   %edx,%edx
    21a0:	0f 8e fd fb ff ff    	jle    1da3 <riscv_dsp_cfft_rd2_q31+0x2c3>
    21a6:	44 89 c0             	mov    %r8d,%eax
    21a9:	45 89 c8             	mov    %r9d,%r8d
    21ac:	f7 d8                	neg    %eax
    21ae:	41 89 c1             	mov    %eax,%r9d
    21b1:	e9 ed fb ff ff       	jmp    1da3 <riscv_dsp_cfft_rd2_q31+0x2c3>
    21b6:	48 8b 44 24 d8       	mov    -0x28(%rsp),%rax
    21bb:	89 ea                	mov    %ebp,%edx
    21bd:	0f 1f 00             	nopl   (%rax)
    21c0:	f3 42 0f 7e 14 10    	movq   (%rax,%r10,1),%xmm2
    21c6:	f3 0f 7e 00          	movq   (%rax),%xmm0
    21ca:	66 0f 6f ca          	movdqa %xmm2,%xmm1
    21ce:	66 0f fe c8          	paddd  %xmm0,%xmm1
    21d2:	66 0f fa c2          	psubd  %xmm2,%xmm0
    21d6:	66 0f 72 e1 01       	psrad  $0x1,%xmm1
    21db:	66 0f 72 e0 01       	psrad  $0x1,%xmm0
    21e0:	66 0f d6 08          	movq   %xmm1,(%rax)
    21e4:	66 42 0f d6 04 10    	movq   %xmm0,(%rax,%r10,1)
    21ea:	48 01 c8             	add    %rcx,%rax
    21ed:	83 ea 01             	sub    $0x1,%edx
    21f0:	75 ce                	jne    21c0 <riscv_dsp_cfft_rd2_q31+0x6e0>
    21f2:	e9 65 fb ff ff       	jmp    1d5c <riscv_dsp_cfft_rd2_q31+0x27c>
    21f7:	5b                   	pop    %rbx
    21f8:	31 c0                	xor    %eax,%eax
    21fa:	5d                   	pop    %rbp
    21fb:	41 5c                	pop    %r12
    21fd:	41 5d                	pop    %r13
    21ff:	41 5e                	pop    %r14
    2201:	41 5f                	pop    %r15
    2203:	c3                   	ret    
    2204:	66 2e 0f 1f 84 00 00 	cs nopw 0x0(%rax,%rax,1)
    220b:	00 00 00 
    220e:	66 90                	xchg   %ax,%ax

0000000000002210 <riscv_dsp_cifft_rd2_q31>:
    2210:	f3 0f 1e fa          	endbr64 
    2214:	89 f1                	mov    %esi,%ecx
    2216:	b8 01 00 00 00       	mov    $0x1,%eax
    221b:	41 57                	push   %r15
    221d:	d3 e0                	shl    %cl,%eax
    221f:	41 56                	push   %r14
    2221:	49 89 fe             	mov    %rdi,%r14
    2224:	41 89 c2             	mov    %eax,%r10d
    2227:	41 55                	push   %r13
    2229:	49 c1 e2 02          	shl    $0x2,%r10
    222d:	41 54                	push   %r12
    222f:	4e 8d 24 17          	lea    (%rdi,%r10,1),%r12
    2233:	55                   	push   %rbp
    2234:	53                   	push   %rbx
    2235:	41 8b 54 24 04       	mov    0x4(%r12),%edx
    223a:	89 d1                	mov    %edx,%ecx
    223c:	89 74 24 f0          	mov    %esi,-0x10(%rsp)
    2240:	8b 77 04             	mov    0x4(%rdi),%esi
    2243:	f7 d9                	neg    %ecx
    2245:	89 44 24 f4          	mov    %eax,-0xc(%rsp)
    2249:	8b 07                	mov    (%rdi),%eax
    224b:	41 8b 3c 24          	mov    (%r12),%edi
    224f:	29 f1                	sub    %esi,%ecx
    2251:	29 f2                	sub    %esi,%edx
    2253:	66 0f 6e e1          	movd   %ecx,%xmm4
    2257:	8d 1c 38             	lea    (%rax,%rdi,1),%ebx
    225a:	29 f8                	sub    %edi,%eax
    225c:	66 0f 6e c3          	movd   %ebx,%xmm0
    2260:	66 0f 62 c4          	punpckldq %xmm4,%xmm0
    2264:	66 0f 6e e2          	movd   %edx,%xmm4
    2268:	66 41 0f d6 06       	movq   %xmm0,(%r14)
    226d:	66 0f 6e c0          	movd   %eax,%xmm0
    2271:	49 8d 46 08          	lea    0x8(%r14),%rax
    2275:	66 0f 62 c4          	punpckldq %xmm4,%xmm0
    2279:	48 89 44 24 e0       	mov    %rax,-0x20(%rsp)
    227e:	66 41 0f d6 04 24    	movq   %xmm0,(%r12)
    2284:	49 39 c4             	cmp    %rax,%r12
    2287:	0f 84 10 01 00 00    	je     239d <riscv_dsp_cifft_rd2_q31+0x18d>
    228d:	b9 0a 00 00 00       	mov    $0xa,%ecx
    2292:	48 89 c2             	mov    %rax,%rdx
    2295:	2b 4c 24 f0          	sub    -0x10(%rsp),%ecx
    2299:	45 31 db             	xor    %r11d,%r11d
    229c:	48 8d 1d 05 47 00 00 	lea    0x4705(%rip),%rbx        # 69a8 <riscv_dsp_cos_table_q31_1024+0x8>
    22a3:	bd 00 01 00 00       	mov    $0x100,%ebp
    22a8:	e9 8a 00 00 00       	jmp    2337 <riscv_dsp_cifft_rd2_q31+0x127>
    22ad:	48 98                	cltq   
    22af:	48 63 f6             	movslq %esi,%rsi
    22b2:	8b 04 83             	mov    (%rbx,%rax,4),%eax
    22b5:	8b 3c b3             	mov    (%rbx,%rsi,4),%edi
    22b8:	8b 32                	mov    (%rdx),%esi
    22ba:	46 8b 6c 12 04       	mov    0x4(%rdx,%r10,1),%r13d
    22bf:	48 98                	cltq   
    22c1:	48 63 ff             	movslq %edi,%rdi
    22c4:	48 83 c2 08          	add    $0x8,%rdx
    22c8:	41 89 f0             	mov    %esi,%r8d
    22cb:	45 89 e9             	mov    %r13d,%r9d
    22ce:	42 03 74 12 f8       	add    -0x8(%rdx,%r10,1),%esi
    22d3:	46 2b 44 12 f8       	sub    -0x8(%rdx,%r10,1),%r8d
    22d8:	44 2b 4a fc          	sub    -0x4(%rdx),%r9d
    22dc:	41 f7 dd             	neg    %r13d
    22df:	44 2b 6a fc          	sub    -0x4(%rdx),%r13d
    22e3:	4d 63 c0             	movslq %r8d,%r8
    22e6:	66 41 0f 6e e5       	movd   %r13d,%xmm4
    22eb:	4d 63 c9             	movslq %r9d,%r9
    22ee:	66 0f 6e c6          	movd   %esi,%xmm0
    22f2:	49 89 fd             	mov    %rdi,%r13
    22f5:	48 89 c6             	mov    %rax,%rsi
    22f8:	4d 0f af e9          	imul   %r9,%r13
    22fc:	66 0f 62 c4          	punpckldq %xmm4,%xmm0
    2300:	49 0f af f0          	imul   %r8,%rsi
    2304:	66 0f d6 42 f8       	movq   %xmm0,-0x8(%rdx)
    2309:	49 0f af c1          	imul   %r9,%rax
    230d:	49 0f af f8          	imul   %r8,%rdi
    2311:	4c 01 ee             	add    %r13,%rsi
    2314:	48 c1 fe 1f          	sar    $0x1f,%rsi
    2318:	48 29 f8             	sub    %rdi,%rax
    231b:	66 0f 6e c6          	movd   %esi,%xmm0
    231f:	48 c1 f8 1f          	sar    $0x1f,%rax
    2323:	66 0f 6e e0          	movd   %eax,%xmm4
    2327:	66 0f 62 c4          	punpckldq %xmm4,%xmm0
    232b:	66 42 0f d6 44 12 f8 	movq   %xmm0,-0x8(%rdx,%r10,1)
    2332:	49 39 d4             	cmp    %rdx,%r12
    2335:	74 66                	je     239d <riscv_dsp_cifft_rd2_q31+0x18d>
    2337:	41 83 c3 01          	add    $0x1,%r11d
    233b:	89 ee                	mov    %ebp,%esi
    233d:	44 89 d8             	mov    %r11d,%eax
    2340:	d3 e0                	shl    %cl,%eax
    2342:	29 c6                	sub    %eax,%esi
    2344:	85 f6                	test   %esi,%esi
    2346:	0f 8f 61 ff ff ff    	jg     22ad <riscv_dsp_cifft_rd2_q31+0x9d>
    234c:	8d b0 00 ff ff ff    	lea    -0x100(%rax),%esi
    2352:	89 ef                	mov    %ebp,%edi
    2354:	29 f7                	sub    %esi,%edi
    2356:	85 ff                	test   %edi,%edi
    2358:	7e 13                	jle    236d <riscv_dsp_cifft_rd2_q31+0x15d>
    235a:	48 63 ff             	movslq %edi,%rdi
    235d:	48 63 f6             	movslq %esi,%rsi
    2360:	8b 04 bb             	mov    (%rbx,%rdi,4),%eax
    2363:	8b 3c b3             	mov    (%rbx,%rsi,4),%edi
    2366:	f7 d8                	neg    %eax
    2368:	e9 4b ff ff ff       	jmp    22b8 <riscv_dsp_cifft_rd2_q31+0xa8>
    236d:	8d b0 00 fe ff ff    	lea    -0x200(%rax),%esi
    2373:	41 89 e8             	mov    %ebp,%r8d
    2376:	41 29 f0             	sub    %esi,%r8d
    2379:	48 63 f6             	movslq %esi,%rsi
    237c:	8b 3c b3             	mov    (%rbx,%rsi,4),%edi
    237f:	49 63 c0             	movslq %r8d,%rax
    2382:	8b 04 83             	mov    (%rbx,%rax,4),%eax
    2385:	f7 df                	neg    %edi
    2387:	45 85 c0             	test   %r8d,%r8d
    238a:	0f 8e 28 ff ff ff    	jle    22b8 <riscv_dsp_cifft_rd2_q31+0xa8>
    2390:	f7 d8                	neg    %eax
    2392:	89 c6                	mov    %eax,%esi
    2394:	89 f8                	mov    %edi,%eax
    2396:	89 f7                	mov    %esi,%edi
    2398:	e9 1b ff ff ff       	jmp    22b8 <riscv_dsp_cifft_rd2_q31+0xa8>
    239d:	8b 44 24 f4          	mov    -0xc(%rsp),%eax
    23a1:	8b 5c 24 f0          	mov    -0x10(%rsp),%ebx
    23a5:	bd 02 00 00 00       	mov    $0x2,%ebp
    23aa:	89 44 24 e8          	mov    %eax,-0x18(%rsp)
    23ae:	89 d8                	mov    %ebx,%eax
    23b0:	83 e8 02             	sub    $0x2,%eax
    23b3:	89 44 24 ec          	mov    %eax,-0x14(%rsp)
    23b7:	0f 84 b5 01 00 00    	je     2572 <riscv_dsp_cifft_rd2_q31+0x362>
    23bd:	b8 0a 00 00 00       	mov    $0xa,%eax
    23c2:	4c 89 74 24 d8       	mov    %r14,-0x28(%rsp)
    23c7:	4c 8d 2d da 45 00 00 	lea    0x45da(%rip),%r13        # 69a8 <riscv_dsp_cos_table_q31_1024+0x8>
    23ce:	29 d8                	sub    %ebx,%eax
    23d0:	89 44 24 c8          	mov    %eax,-0x38(%rsp)
    23d4:	0f 1f 40 00          	nopl   0x0(%rax)
    23d8:	d1 6c 24 e8          	shrl   -0x18(%rsp)
    23dc:	44 8b 5c 24 e8       	mov    -0x18(%rsp),%r11d
    23e1:	48 8b 44 24 d8       	mov    -0x28(%rsp),%rax
    23e6:	4e 8d 14 9d 00 00 00 	lea    0x0(,%r11,4),%r10
    23ed:	00 
    23ee:	4e 8d 34 10          	lea    (%rax,%r10,1),%r14
    23f2:	85 ed                	test   %ebp,%ebp
    23f4:	0f 84 80 00 00 00    	je     247a <riscv_dsp_cifft_rd2_q31+0x26a>
    23fa:	4d 85 d2             	test   %r10,%r10
    23fd:	4a 8d 0c dd 00 00 00 	lea    0x0(,%r11,8),%rcx
    2404:	00 
    2405:	0f 95 c2             	setne  %dl
    2408:	48 83 f9 07          	cmp    $0x7,%rcx
    240c:	0f 97 c0             	seta   %al
    240f:	84 c2                	test   %al,%dl
    2411:	0f 84 70 0e 00 00    	je     3287 <riscv_dsp_cifft_rd2_q31+0x1077>
    2417:	4b 8d 44 12 04       	lea    0x4(%r10,%r10,1),%rax
    241c:	4c 39 d0             	cmp    %r10,%rax
    241f:	0f 8d 62 0e 00 00    	jge    3287 <riscv_dsp_cifft_rd2_q31+0x1077>
    2425:	41 89 e8             	mov    %ebp,%r8d
    2428:	4c 89 df             	mov    %r11,%rdi
    242b:	48 8b 54 24 d8       	mov    -0x28(%rsp),%rdx
    2430:	4c 89 f0             	mov    %r14,%rax
    2433:	41 d1 e8             	shr    %r8d
    2436:	48 c1 e7 04          	shl    $0x4,%rdi
    243a:	31 f6                	xor    %esi,%esi
    243c:	0f 1f 40 00          	nopl   0x0(%rax)
    2440:	f3 0f 7e 02          	movq   (%rdx),%xmm0
    2444:	f3 0f 7e 08          	movq   (%rax),%xmm1
    2448:	83 c6 01             	add    $0x1,%esi
    244b:	0f 16 04 0a          	movhps (%rdx,%rcx,1),%xmm0
    244f:	0f 16 0c 08          	movhps (%rax,%rcx,1),%xmm1
    2453:	66 0f 6f d0          	movdqa %xmm0,%xmm2
    2457:	66 0f fa c1          	psubd  %xmm1,%xmm0
    245b:	66 0f fe d1          	paddd  %xmm1,%xmm2
    245f:	66 0f d6 12          	movq   %xmm2,(%rdx)
    2463:	0f 17 14 0a          	movhps %xmm2,(%rdx,%rcx,1)
    2467:	48 01 fa             	add    %rdi,%rdx
    246a:	66 0f d6 00          	movq   %xmm0,(%rax)
    246e:	0f 17 04 08          	movhps %xmm0,(%rax,%rcx,1)
    2472:	48 01 f8             	add    %rdi,%rax
    2475:	44 39 c6             	cmp    %r8d,%esi
    2478:	75 c6                	jne    2440 <riscv_dsp_cifft_rd2_q31+0x230>
    247a:	48 8b 44 24 e0       	mov    -0x20(%rsp),%rax
    247f:	49 c1 e3 03          	shl    $0x3,%r11
    2483:	45 31 e4             	xor    %r12d,%r12d
    2486:	48 89 c3             	mov    %rax,%rbx
    2489:	4c 39 f0             	cmp    %r14,%rax
    248c:	0f 84 ce 00 00 00    	je     2560 <riscv_dsp_cifft_rd2_q31+0x350>
    2492:	66 0f 1f 44 00 00    	nopw   0x0(%rax,%rax,1)
    2498:	0f b6 4c 24 c8       	movzbl -0x38(%rsp),%ecx
    249d:	41 01 ec             	add    %ebp,%r12d
    24a0:	ba 00 01 00 00       	mov    $0x100,%edx
    24a5:	44 89 e0             	mov    %r12d,%eax
    24a8:	d3 e0                	shl    %cl,%eax
    24aa:	29 c2                	sub    %eax,%edx
    24ac:	85 d2                	test   %edx,%edx
    24ae:	0f 8e 8c 0c 00 00    	jle    3140 <riscv_dsp_cifft_rd2_q31+0xf30>
    24b4:	48 98                	cltq   
    24b6:	48 63 d2             	movslq %edx,%rdx
    24b9:	45 8b 44 85 00       	mov    0x0(%r13,%rax,4),%r8d
    24be:	45 8b 4c 95 00       	mov    0x0(%r13,%rdx,4),%r9d
    24c3:	85 ed                	test   %ebp,%ebp
    24c5:	0f 84 88 00 00 00    	je     2553 <riscv_dsp_cifft_rd2_q31+0x343>
    24cb:	4d 63 c0             	movslq %r8d,%r8
    24ce:	4d 63 c9             	movslq %r9d,%r9
    24d1:	48 89 de             	mov    %rbx,%rsi
    24d4:	89 ef                	mov    %ebp,%edi
    24d6:	66 2e 0f 1f 84 00 00 	cs nopw 0x0(%rax,%rax,1)
    24dd:	00 00 00 
    24e0:	f3 0f 7e 0e          	movq   (%rsi),%xmm1
    24e4:	f3 42 0f 7e 04 16    	movq   (%rsi,%r10,1),%xmm0
    24ea:	66 0f 7e ca          	movd   %xmm1,%edx
    24ee:	66 0f 7e c0          	movd   %xmm0,%eax
    24f2:	66 0f 70 e8 e5       	pshufd $0xe5,%xmm0,%xmm5
    24f7:	66 0f 70 f1 e5       	pshufd $0xe5,%xmm1,%xmm6
    24fc:	29 c2                	sub    %eax,%edx
    24fe:	66 0f 7e e9          	movd   %xmm5,%ecx
    2502:	66 0f 7e f0          	movd   %xmm6,%eax
    2506:	29 c8                	sub    %ecx,%eax
    2508:	48 63 d2             	movslq %edx,%rdx
    250b:	66 0f fe c1          	paddd  %xmm1,%xmm0
    250f:	48 98                	cltq   
    2511:	48 89 d1             	mov    %rdx,%rcx
    2514:	49 89 c7             	mov    %rax,%r15
    2517:	49 0f af c8          	imul   %r8,%rcx
    251b:	4d 0f af f9          	imul   %r9,%r15
    251f:	66 0f d6 06          	movq   %xmm0,(%rsi)
    2523:	49 0f af c0          	imul   %r8,%rax
    2527:	49 0f af d1          	imul   %r9,%rdx
    252b:	4c 01 f9             	add    %r15,%rcx
    252e:	48 c1 f9 1f          	sar    $0x1f,%rcx
    2532:	48 29 d0             	sub    %rdx,%rax
    2535:	66 0f 6e c1          	movd   %ecx,%xmm0
    2539:	48 c1 f8 1f          	sar    $0x1f,%rax
    253d:	66 0f 6e d8          	movd   %eax,%xmm3
    2541:	66 0f 62 c3          	punpckldq %xmm3,%xmm0
    2545:	66 42 0f d6 04 16    	movq   %xmm0,(%rsi,%r10,1)
    254b:	4c 01 de             	add    %r11,%rsi
    254e:	83 ef 01             	sub    $0x1,%edi
    2551:	75 8d                	jne    24e0 <riscv_dsp_cifft_rd2_q31+0x2d0>
    2553:	48 83 c3 08          	add    $0x8,%rbx
    2557:	49 39 de             	cmp    %rbx,%r14
    255a:	0f 85 38 ff ff ff    	jne    2498 <riscv_dsp_cifft_rd2_q31+0x288>
    2560:	01 ed                	add    %ebp,%ebp
    2562:	83 6c 24 ec 01       	subl   $0x1,-0x14(%rsp)
    2567:	0f 85 6b fe ff ff    	jne    23d8 <riscv_dsp_cifft_rd2_q31+0x1c8>
    256d:	4c 8b 74 24 d8       	mov    -0x28(%rsp),%r14
    2572:	0f b6 4c 24 f0       	movzbl -0x10(%rsp),%ecx
    2577:	b8 02 00 00 00       	mov    $0x2,%eax
    257c:	d3 e0                	shl    %cl,%eax
    257e:	48 8d 1c 85 00 00 00 	lea    0x0(,%rax,4),%rbx
    2585:	00 
    2586:	4d 8d 14 1e          	lea    (%r14,%rbx,1),%r10
    258a:	4d 39 d6             	cmp    %r10,%r14
    258d:	0f 84 4d 09 00 00    	je     2ee0 <riscv_dsp_cifft_rd2_q31+0xcd0>
    2593:	4c 89 d2             	mov    %r10,%rdx
    2596:	4c 89 f0             	mov    %r14,%rax
    2599:	4c 29 f2             	sub    %r14,%rdx
    259c:	48 83 ea 20          	sub    $0x20,%rdx
    25a0:	48 89 d1             	mov    %rdx,%rcx
    25a3:	48 c1 e9 05          	shr    $0x5,%rcx
    25a7:	48 83 c1 01          	add    $0x1,%rcx
    25ab:	48 83 fa 40          	cmp    $0x40,%rdx
    25af:	0f 86 ed 06 00 00    	jbe    2ca2 <riscv_dsp_cifft_rd2_q31+0xa92>
    25b5:	66 44 0f 6f 2d 92 3b 	movdqa 0x3b92(%rip),%xmm13        # 6150 <_IO_stdin_used+0x150>
    25bc:	00 00 
    25be:	48 89 ca             	mov    %rcx,%rdx
    25c1:	48 c1 ea 02          	shr    $0x2,%rdx
    25c5:	48 c1 e2 07          	shl    $0x7,%rdx
    25c9:	4c 01 f2             	add    %r14,%rdx
    25cc:	f3 0f 6f 00          	movdqu (%rax),%xmm0
    25d0:	f3 0f 6f 78 10       	movdqu 0x10(%rax),%xmm7
    25d5:	66 45 0f ef ff       	pxor   %xmm15,%xmm15
    25da:	48 83 e8 80          	sub    $0xffffffffffffff80,%rax
    25de:	f3 0f 6f 60 a0       	movdqu -0x60(%rax),%xmm4
    25e3:	f3 0f 6f 48 c0       	movdqu -0x40(%rax),%xmm1
    25e8:	66 45 0f 6f e7       	movdqa %xmm15,%xmm12
    25ed:	66 0f 6f d8          	movdqa %xmm0,%xmm3
    25f1:	0f c6 c7 dd          	shufps $0xdd,%xmm7,%xmm0
    25f5:	f3 0f 6f 70 d0       	movdqu -0x30(%rax),%xmm6
    25fa:	f3 0f 6f 50 e0       	movdqu -0x20(%rax),%xmm2
    25ff:	0f c6 df 88          	shufps $0x88,%xmm7,%xmm3
    2603:	f3 0f 6f 78 b0       	movdqu -0x50(%rax),%xmm7
    2608:	66 44 0f 6f c4       	movdqa %xmm4,%xmm8
    260d:	66 0f 6f ea          	movdqa %xmm2,%xmm5
    2611:	44 0f c6 c7 88       	shufps $0x88,%xmm7,%xmm8
    2616:	0f c6 e7 dd          	shufps $0xdd,%xmm7,%xmm4
    261a:	66 0f 6f f9          	movdqa %xmm1,%xmm7
    261e:	0f c6 ce dd          	shufps $0xdd,%xmm6,%xmm1
    2622:	0f c6 fe 88          	shufps $0x88,%xmm6,%xmm7
    2626:	f3 0f 6f 70 f0       	movdqu -0x10(%rax),%xmm6
    262b:	0f c6 ee 88          	shufps $0x88,%xmm6,%xmm5
    262f:	0f c6 d6 dd          	shufps $0xdd,%xmm6,%xmm2
    2633:	66 0f 6f f3          	movdqa %xmm3,%xmm6
    2637:	41 0f c6 d8 dd       	shufps $0xdd,%xmm8,%xmm3
    263c:	41 0f c6 f0 88       	shufps $0x88,%xmm8,%xmm6
    2641:	66 44 0f 6f c7       	movdqa %xmm7,%xmm8
    2646:	0f c6 fd dd          	shufps $0xdd,%xmm5,%xmm7
    264a:	66 44 0f 6f ce       	movdqa %xmm6,%xmm9
    264f:	44 0f c6 c5 88       	shufps $0x88,%xmm5,%xmm8
    2654:	66 0f 6f e8          	movdqa %xmm0,%xmm5
    2658:	0f c6 c4 dd          	shufps $0xdd,%xmm4,%xmm0
    265c:	45 0f c6 c8 88       	shufps $0x88,%xmm8,%xmm9
    2661:	0f c6 ec 88          	shufps $0x88,%xmm4,%xmm5
    2665:	66 0f 6f e1          	movdqa %xmm1,%xmm4
    2669:	41 0f c6 f0 dd       	shufps $0xdd,%xmm8,%xmm6
    266e:	0f c6 ca dd          	shufps $0xdd,%xmm2,%xmm1
    2672:	0f c6 e2 88          	shufps $0x88,%xmm2,%xmm4
    2676:	66 44 0f 6f c5       	movdqa %xmm5,%xmm8
    267b:	66 44 0f 6f d3       	movdqa %xmm3,%xmm10
    2680:	66 0f 6f 15 d8 3a 00 	movdqa 0x3ad8(%rip),%xmm2        # 6160 <_IO_stdin_used+0x160>
    2687:	00 
    2688:	44 0f c6 c4 88       	shufps $0x88,%xmm4,%xmm8
    268d:	0f c6 ec dd          	shufps $0xdd,%xmm4,%xmm5
    2691:	44 0f c6 d7 88       	shufps $0x88,%xmm7,%xmm10
    2696:	0f c6 df dd          	shufps $0xdd,%xmm7,%xmm3
    269a:	66 41 0f 6f e5       	movdqa %xmm13,%xmm4
    269f:	66 0f 6f f8          	movdqa %xmm0,%xmm7
    26a3:	66 45 0f 6f f2       	movdqa %xmm10,%xmm14
    26a8:	0f c6 c1 dd          	shufps $0xdd,%xmm1,%xmm0
    26ac:	0f c6 f9 88          	shufps $0x88,%xmm1,%xmm7
    26b0:	66 41 0f fa e2       	psubd  %xmm10,%xmm4
    26b5:	66 41 0f fa d2       	psubd  %xmm10,%xmm2
    26ba:	66 41 0f 6f c9       	movdqa %xmm9,%xmm1
    26bf:	66 45 0f 66 f7       	pcmpgtd %xmm15,%xmm14
    26c4:	66 45 0f 66 e2       	pcmpgtd %xmm10,%xmm12
    26c9:	66 45 0f 6f d9       	movdqa %xmm9,%xmm11
    26ce:	66 41 0f 66 d1       	pcmpgtd %xmm9,%xmm2
    26d3:	66 0f 66 cc          	pcmpgtd %xmm4,%xmm1
    26d7:	66 41 0f 6f e2       	movdqa %xmm10,%xmm4
    26dc:	66 41 0f 72 e3 1f    	psrad  $0x1f,%xmm11
    26e2:	66 41 0f fe e1       	paddd  %xmm9,%xmm4
    26e7:	66 45 0f ef dd       	pxor   %xmm13,%xmm11
    26ec:	44 0f 29 74 24 c8    	movaps %xmm14,-0x38(%rsp)
    26f2:	66 41 0f db ce       	pand   %xmm14,%xmm1
    26f7:	66 41 0f db d4       	pand   %xmm12,%xmm2
    26fc:	66 0f eb d1          	por    %xmm1,%xmm2
    2700:	66 41 0f 6f cb       	movdqa %xmm11,%xmm1
    2705:	66 0f db ca          	pand   %xmm2,%xmm1
    2709:	66 0f df d4          	pandn  %xmm4,%xmm2
    270d:	66 0f 6f 25 4b 3a 00 	movdqa 0x3a4b(%rip),%xmm4        # 6160 <_IO_stdin_used+0x160>
    2714:	00 
    2715:	66 0f eb d1          	por    %xmm1,%xmm2
    2719:	66 41 0f 6f cf       	movdqa %xmm15,%xmm1
    271e:	66 0f fa e7          	psubd  %xmm7,%xmm4
    2722:	66 0f 66 cf          	pcmpgtd %xmm7,%xmm1
    2726:	66 41 0f 66 e0       	pcmpgtd %xmm8,%xmm4
    272b:	66 0f db e1          	pand   %xmm1,%xmm4
    272f:	66 41 0f 6f cd       	movdqa %xmm13,%xmm1
    2734:	66 0f fa cf          	psubd  %xmm7,%xmm1
    2738:	66 44 0f 6f f1       	movdqa %xmm1,%xmm14
    273d:	66 41 0f 6f c8       	movdqa %xmm8,%xmm1
    2742:	66 41 0f 66 ce       	pcmpgtd %xmm14,%xmm1
    2747:	66 44 0f 6f f7       	movdqa %xmm7,%xmm14
    274c:	66 45 0f 66 f7       	pcmpgtd %xmm15,%xmm14
    2751:	66 44 0f 6f ff       	movdqa %xmm7,%xmm15
    2756:	66 45 0f fe f8       	paddd  %xmm8,%xmm15
    275b:	66 41 0f db ce       	pand   %xmm14,%xmm1
    2760:	66 0f eb e1          	por    %xmm1,%xmm4
    2764:	66 41 0f 6f c8       	movdqa %xmm8,%xmm1
    2769:	66 0f 72 e1 1f       	psrad  $0x1f,%xmm1
    276e:	66 41 0f ef cd       	pxor   %xmm13,%xmm1
    2773:	66 0f db cc          	pand   %xmm4,%xmm1
    2777:	66 41 0f df e7       	pandn  %xmm15,%xmm4
    277c:	66 44 0f 6f fa       	movdqa %xmm2,%xmm15
    2781:	66 0f eb e1          	por    %xmm1,%xmm4
    2785:	66 41 0f 72 e7 1f    	psrad  $0x1f,%xmm15
    278b:	66 0f 6f ca          	movdqa %xmm2,%xmm1
    278f:	66 0f 72 f1 01       	pslld  $0x1,%xmm1
    2794:	66 45 0f ef fd       	pxor   %xmm13,%xmm15
    2799:	66 44 0f 6f f1       	movdqa %xmm1,%xmm14
    279e:	66 0f 72 e1 01       	psrad  $0x1,%xmm1
    27a3:	66 0f 76 ca          	pcmpeqd %xmm2,%xmm1
    27a7:	66 0f 6f d4          	movdqa %xmm4,%xmm2
    27ab:	66 0f 72 f2 01       	pslld  $0x1,%xmm2
    27b0:	66 44 0f db f1       	pand   %xmm1,%xmm14
    27b5:	66 41 0f df cf       	pandn  %xmm15,%xmm1
    27ba:	66 44 0f 6f fc       	movdqa %xmm4,%xmm15
    27bf:	66 41 0f eb ce       	por    %xmm14,%xmm1
    27c4:	66 41 0f 72 e7 1f    	psrad  $0x1f,%xmm15
    27ca:	66 44 0f 6f f2       	movdqa %xmm2,%xmm14
    27cf:	66 0f 72 e2 01       	psrad  $0x1,%xmm2
    27d4:	66 45 0f ef fd       	pxor   %xmm13,%xmm15
    27d9:	66 0f 76 d4          	pcmpeqd %xmm4,%xmm2
    27dd:	66 0f ef e4          	pxor   %xmm4,%xmm4
    27e1:	66 44 0f db f2       	pand   %xmm2,%xmm14
    27e6:	66 41 0f df d7       	pandn  %xmm15,%xmm2
    27eb:	66 41 0f eb d6       	por    %xmm14,%xmm2
    27f0:	66 0f fa e2          	psubd  %xmm2,%xmm4
    27f4:	66 41 0f 6f d2       	movdqa %xmm10,%xmm2
    27f9:	66 44 0f 6f fc       	movdqa %xmm4,%xmm15
    27fe:	66 41 0f fe d5       	paddd  %xmm13,%xmm2
    2803:	66 41 0f 6f e1       	movdqa %xmm9,%xmm4
    2808:	66 0f 66 e2          	pcmpgtd %xmm2,%xmm4
    280c:	66 0f 6f 15 4c 39 00 	movdqa 0x394c(%rip),%xmm2        # 6160 <_IO_stdin_used+0x160>
    2813:	00 
    2814:	66 41 0f fe d2       	paddd  %xmm10,%xmm2
    2819:	66 41 0f 66 d1       	pcmpgtd %xmm9,%xmm2
    281e:	66 0f db 54 24 c8    	pand   -0x38(%rsp),%xmm2
    2824:	66 41 0f db e4       	pand   %xmm12,%xmm4
    2829:	66 45 0f fa ca       	psubd  %xmm10,%xmm9
    282e:	66 45 0f ef e4       	pxor   %xmm12,%xmm12
    2833:	66 45 0f 6f d0       	movdqa %xmm8,%xmm10
    2838:	66 0f eb e2          	por    %xmm2,%xmm4
    283c:	66 0f 6f d7          	movdqa %xmm7,%xmm2
    2840:	66 45 0f 6f f4       	movdqa %xmm12,%xmm14
    2845:	66 45 0f 66 d4       	pcmpgtd %xmm12,%xmm10
    284a:	66 44 0f 66 f3       	pcmpgtd %xmm3,%xmm14
    284f:	66 44 0f db dc       	pand   %xmm4,%xmm11
    2854:	66 41 0f df e1       	pandn  %xmm9,%xmm4
    2859:	66 45 0f 6f c8       	movdqa %xmm8,%xmm9
    285e:	66 45 0f fe cd       	paddd  %xmm13,%xmm9
    2863:	66 41 0f eb e3       	por    %xmm11,%xmm4
    2868:	66 44 0f 6f db       	movdqa %xmm3,%xmm11
    286d:	66 41 0f 66 d1       	pcmpgtd %xmm9,%xmm2
    2872:	66 45 0f ef c9       	pxor   %xmm9,%xmm9
    2877:	44 0f 29 74 24 c8    	movaps %xmm14,-0x38(%rsp)
    287d:	66 45 0f 66 c8       	pcmpgtd %xmm8,%xmm9
    2882:	66 45 0f 66 dc       	pcmpgtd %xmm12,%xmm11
    2887:	66 41 0f db d1       	pand   %xmm9,%xmm2
    288c:	66 44 0f 6f 0d cb 38 	movdqa 0x38cb(%rip),%xmm9        # 6160 <_IO_stdin_used+0x160>
    2893:	00 00 
    2895:	66 45 0f fe c8       	paddd  %xmm8,%xmm9
    289a:	66 44 0f 66 cf       	pcmpgtd %xmm7,%xmm9
    289f:	66 45 0f db ca       	pand   %xmm10,%xmm9
    28a4:	66 44 0f 6f d6       	movdqa %xmm6,%xmm10
    28a9:	66 41 0f eb d1       	por    %xmm9,%xmm2
    28ae:	66 41 0f 72 e2 1f    	psrad  $0x1f,%xmm10
    28b4:	66 44 0f 6f cf       	movdqa %xmm7,%xmm9
    28b9:	66 41 0f 72 e1 1f    	psrad  $0x1f,%xmm9
    28bf:	66 41 0f fa f8       	psubd  %xmm8,%xmm7
    28c4:	66 45 0f ef d5       	pxor   %xmm13,%xmm10
    28c9:	66 45 0f ef cd       	pxor   %xmm13,%xmm9
    28ce:	66 45 0f 6f c1       	movdqa %xmm9,%xmm8
    28d3:	66 44 0f db c2       	pand   %xmm2,%xmm8
    28d8:	66 0f df d7          	pandn  %xmm7,%xmm2
    28dc:	66 0f 6f fc          	movdqa %xmm4,%xmm7
    28e0:	66 0f 72 f7 01       	pslld  $0x1,%xmm7
    28e5:	66 41 0f eb d0       	por    %xmm8,%xmm2
    28ea:	66 44 0f 6f c4       	movdqa %xmm4,%xmm8
    28ef:	66 44 0f 6f cf       	movdqa %xmm7,%xmm9
    28f4:	66 41 0f 72 e0 1f    	psrad  $0x1f,%xmm8
    28fa:	66 41 0f 72 e1 01    	psrad  $0x1,%xmm9
    2900:	66 45 0f ef c5       	pxor   %xmm13,%xmm8
    2905:	66 41 0f 76 e1       	pcmpeqd %xmm9,%xmm4
    290a:	66 0f db fc          	pand   %xmm4,%xmm7
    290e:	66 41 0f df e0       	pandn  %xmm8,%xmm4
    2913:	66 44 0f 6f c2       	movdqa %xmm2,%xmm8
    2918:	66 0f eb e7          	por    %xmm7,%xmm4
    291c:	66 41 0f 72 e0 1f    	psrad  $0x1f,%xmm8
    2922:	66 0f 6f fa          	movdqa %xmm2,%xmm7
    2926:	66 0f 72 f7 01       	pslld  $0x1,%xmm7
    292b:	66 45 0f ef c5       	pxor   %xmm13,%xmm8
    2930:	66 44 0f 6f cf       	movdqa %xmm7,%xmm9
    2935:	66 41 0f 72 e1 01    	psrad  $0x1,%xmm9
    293b:	66 41 0f 76 d1       	pcmpeqd %xmm9,%xmm2
    2940:	66 44 0f 6f cb       	movdqa %xmm3,%xmm9
    2945:	66 44 0f fe ce       	paddd  %xmm6,%xmm9
    294a:	66 0f db fa          	pand   %xmm2,%xmm7
    294e:	66 41 0f df d0       	pandn  %xmm8,%xmm2
    2953:	66 44 0f 6f c6       	movdqa %xmm6,%xmm8
    2958:	66 0f eb d7          	por    %xmm7,%xmm2
    295c:	66 41 0f 6f fd       	movdqa %xmm13,%xmm7
    2961:	66 0f fa fb          	psubd  %xmm3,%xmm7
    2965:	66 44 0f 66 c7       	pcmpgtd %xmm7,%xmm8
    296a:	66 0f 6f 3d ee 37 00 	movdqa 0x37ee(%rip),%xmm7        # 6160 <_IO_stdin_used+0x160>
    2971:	00 
    2972:	66 0f fa fb          	psubd  %xmm3,%xmm7
    2976:	66 0f 66 fe          	pcmpgtd %xmm6,%xmm7
    297a:	66 45 0f db c3       	pand   %xmm11,%xmm8
    297f:	66 41 0f db fe       	pand   %xmm14,%xmm7
    2984:	66 44 0f eb c7       	por    %xmm7,%xmm8
    2989:	66 41 0f 6f fa       	movdqa %xmm10,%xmm7
    298e:	66 41 0f db f8       	pand   %xmm8,%xmm7
    2993:	66 45 0f df c1       	pandn  %xmm9,%xmm8
    2998:	66 44 0f 6f cd       	movdqa %xmm5,%xmm9
    299d:	66 44 0f eb c7       	por    %xmm7,%xmm8
    29a2:	66 41 0f 6f fd       	movdqa %xmm13,%xmm7
    29a7:	66 0f fa f8          	psubd  %xmm0,%xmm7
    29ab:	66 45 0f 6f f0       	movdqa %xmm8,%xmm14
    29b0:	66 44 0f 66 cf       	pcmpgtd %xmm7,%xmm9
    29b5:	66 41 0f 72 e6 1f    	psrad  $0x1f,%xmm14
    29bb:	66 0f 6f f8          	movdqa %xmm0,%xmm7
    29bf:	66 41 0f 66 fc       	pcmpgtd %xmm12,%xmm7
    29c4:	66 44 0f 66 e0       	pcmpgtd %xmm0,%xmm12
    29c9:	66 45 0f ef f5       	pxor   %xmm13,%xmm14
    29ce:	66 44 0f db cf       	pand   %xmm7,%xmm9
    29d3:	66 0f 6f 3d 85 37 00 	movdqa 0x3785(%rip),%xmm7        # 6160 <_IO_stdin_used+0x160>
    29da:	00 
    29db:	66 0f fa f8          	psubd  %xmm0,%xmm7
    29df:	66 0f 66 fd          	pcmpgtd %xmm5,%xmm7
    29e3:	66 41 0f db fc       	pand   %xmm12,%xmm7
    29e8:	66 44 0f 6f e0       	movdqa %xmm0,%xmm12
    29ed:	66 41 0f eb f9       	por    %xmm9,%xmm7
    29f2:	66 44 0f 6f cd       	movdqa %xmm5,%xmm9
    29f7:	66 44 0f fe e5       	paddd  %xmm5,%xmm12
    29fc:	66 41 0f 72 e1 1f    	psrad  $0x1f,%xmm9
    2a02:	66 45 0f ef cd       	pxor   %xmm13,%xmm9
    2a07:	66 44 0f db cf       	pand   %xmm7,%xmm9
    2a0c:	66 41 0f df fc       	pandn  %xmm12,%xmm7
    2a11:	66 41 0f eb f9       	por    %xmm9,%xmm7
    2a16:	66 45 0f 6f c8       	movdqa %xmm8,%xmm9
    2a1b:	66 41 0f 72 f1 01    	pslld  $0x1,%xmm9
    2a21:	66 45 0f 6f e1       	movdqa %xmm9,%xmm12
    2a26:	66 41 0f 72 e1 01    	psrad  $0x1,%xmm9
    2a2c:	66 45 0f 76 c8       	pcmpeqd %xmm8,%xmm9
    2a31:	66 45 0f db e1       	pand   %xmm9,%xmm12
    2a36:	66 45 0f df ce       	pandn  %xmm14,%xmm9
    2a3b:	66 44 0f 6f f7       	movdqa %xmm7,%xmm14
    2a40:	66 45 0f 6f c1       	movdqa %xmm9,%xmm8
    2a45:	66 41 0f 72 e6 1f    	psrad  $0x1f,%xmm14
    2a4b:	66 44 0f 6f cf       	movdqa %xmm7,%xmm9
    2a50:	66 41 0f 72 f1 01    	pslld  $0x1,%xmm9
    2a56:	66 45 0f eb c4       	por    %xmm12,%xmm8
    2a5b:	66 45 0f ef f5       	pxor   %xmm13,%xmm14
    2a60:	66 45 0f 6f e1       	movdqa %xmm9,%xmm12
    2a65:	66 41 0f 72 e1 01    	psrad  $0x1,%xmm9
    2a6b:	66 44 0f 76 cf       	pcmpeqd %xmm7,%xmm9
    2a70:	66 0f ef ff          	pxor   %xmm7,%xmm7
    2a74:	66 45 0f db e1       	pand   %xmm9,%xmm12
    2a79:	66 45 0f df ce       	pandn  %xmm14,%xmm9
    2a7e:	66 45 0f eb cc       	por    %xmm12,%xmm9
    2a83:	66 41 0f fa f9       	psubd  %xmm9,%xmm7
    2a88:	66 44 0f 6f 0d cf 36 	movdqa 0x36cf(%rip),%xmm9        # 6160 <_IO_stdin_used+0x160>
    2a8f:	00 00 
    2a91:	66 44 0f fe cb       	paddd  %xmm3,%xmm9
    2a96:	66 44 0f 66 ce       	pcmpgtd %xmm6,%xmm9
    2a9b:	66 45 0f db cb       	pand   %xmm11,%xmm9
    2aa0:	66 44 0f 6f db       	movdqa %xmm3,%xmm11
    2aa5:	66 45 0f fe dd       	paddd  %xmm13,%xmm11
    2aaa:	66 45 0f 6f e3       	movdqa %xmm11,%xmm12
    2aaf:	66 44 0f 6f de       	movdqa %xmm6,%xmm11
    2ab4:	66 0f fa f3          	psubd  %xmm3,%xmm6
    2ab8:	66 45 0f 66 dc       	pcmpgtd %xmm12,%xmm11
    2abd:	66 44 0f db 5c 24 c8 	pand   -0x38(%rsp),%xmm11
    2ac4:	66 0f 6f dd          	movdqa %xmm5,%xmm3
    2ac8:	66 45 0f ef e4       	pxor   %xmm12,%xmm12
    2acd:	66 45 0f eb cb       	por    %xmm11,%xmm9
    2ad2:	66 41 0f 66 dc       	pcmpgtd %xmm12,%xmm3
    2ad7:	66 45 0f db d1       	pand   %xmm9,%xmm10
    2adc:	66 44 0f df ce       	pandn  %xmm6,%xmm9
    2ae1:	66 0f 6f 35 77 36 00 	movdqa 0x3677(%rip),%xmm6        # 6160 <_IO_stdin_used+0x160>
    2ae8:	00 
    2ae9:	66 45 0f eb d1       	por    %xmm9,%xmm10
    2aee:	66 44 0f 6f cd       	movdqa %xmm5,%xmm9
    2af3:	66 0f fe f5          	paddd  %xmm5,%xmm6
    2af7:	66 45 0f fe cd       	paddd  %xmm13,%xmm9
    2afc:	66 0f 66 f0          	pcmpgtd %xmm0,%xmm6
    2b00:	66 0f db f3          	pand   %xmm3,%xmm6
    2b04:	66 0f 6f d8          	movdqa %xmm0,%xmm3
    2b08:	66 41 0f 66 d9       	pcmpgtd %xmm9,%xmm3
    2b0d:	66 45 0f 6f cc       	movdqa %xmm12,%xmm9
    2b12:	66 44 0f 66 cd       	pcmpgtd %xmm5,%xmm9
    2b17:	66 41 0f db d9       	pand   %xmm9,%xmm3
    2b1c:	66 44 0f 6f c8       	movdqa %xmm0,%xmm9
    2b21:	66 41 0f 72 e1 1f    	psrad  $0x1f,%xmm9
    2b27:	66 0f eb f3          	por    %xmm3,%xmm6
    2b2b:	66 0f 6f d8          	movdqa %xmm0,%xmm3
    2b2f:	66 45 0f ef cd       	pxor   %xmm13,%xmm9
    2b34:	66 0f fa dd          	psubd  %xmm5,%xmm3
    2b38:	66 41 0f 6f e9       	movdqa %xmm9,%xmm5
    2b3d:	66 44 0f 6f ca       	movdqa %xmm2,%xmm9
    2b42:	66 0f db ee          	pand   %xmm6,%xmm5
    2b46:	66 0f df f3          	pandn  %xmm3,%xmm6
    2b4a:	66 41 0f 6f da       	movdqa %xmm10,%xmm3
    2b4f:	66 0f 72 f3 01       	pslld  $0x1,%xmm3
    2b54:	66 0f 6f c6          	movdqa %xmm6,%xmm0
    2b58:	66 0f 6f f3          	movdqa %xmm3,%xmm6
    2b5c:	66 0f eb c5          	por    %xmm5,%xmm0
    2b60:	66 41 0f 6f ea       	movdqa %xmm10,%xmm5
    2b65:	66 0f 72 e6 01       	psrad  $0x1,%xmm6
    2b6a:	66 0f 72 e5 1f       	psrad  $0x1f,%xmm5
    2b6f:	66 44 0f 76 d6       	pcmpeqd %xmm6,%xmm10
    2b74:	66 41 0f ef ed       	pxor   %xmm13,%xmm5
    2b79:	66 41 0f db da       	pand   %xmm10,%xmm3
    2b7e:	66 44 0f df d5       	pandn  %xmm5,%xmm10
    2b83:	66 0f 6f e8          	movdqa %xmm0,%xmm5
    2b87:	66 44 0f eb d3       	por    %xmm3,%xmm10
    2b8c:	66 0f 72 e5 1f       	psrad  $0x1f,%xmm5
    2b91:	66 0f 6f d8          	movdqa %xmm0,%xmm3
    2b95:	66 0f 72 f3 01       	pslld  $0x1,%xmm3
    2b9a:	66 41 0f ef ed       	pxor   %xmm13,%xmm5
    2b9f:	66 0f 6f f3          	movdqa %xmm3,%xmm6
    2ba3:	66 0f 72 e6 01       	psrad  $0x1,%xmm6
    2ba8:	66 0f 76 c6          	pcmpeqd %xmm6,%xmm0
    2bac:	66 41 0f 6f f7       	movdqa %xmm15,%xmm6
    2bb1:	66 44 0f 6a ff       	punpckhdq %xmm7,%xmm15
    2bb6:	66 0f 62 f7          	punpckldq %xmm7,%xmm6
    2bba:	66 0f 6f fc          	movdqa %xmm4,%xmm7
    2bbe:	66 41 0f 6a e2       	punpckhdq %xmm10,%xmm4
    2bc3:	66 41 0f 62 fa       	punpckldq %xmm10,%xmm7
    2bc8:	66 0f db d8          	pand   %xmm0,%xmm3
    2bcc:	66 0f df c5          	pandn  %xmm5,%xmm0
    2bd0:	66 0f 6f e9          	movdqa %xmm1,%xmm5
    2bd4:	66 0f eb c3          	por    %xmm3,%xmm0
    2bd8:	66 41 0f 62 e8       	punpckldq %xmm8,%xmm5
    2bdd:	66 41 0f 6a c8       	punpckhdq %xmm8,%xmm1
    2be2:	66 0f 6a d0          	punpckhdq %xmm0,%xmm2
    2be6:	66 0f 6f dd          	movdqa %xmm5,%xmm3
    2bea:	66 44 0f 62 c8       	punpckldq %xmm0,%xmm9
    2bef:	66 44 0f 6f c2       	movdqa %xmm2,%xmm8
    2bf4:	66 0f 6f d5          	movdqa %xmm5,%xmm2
    2bf8:	66 0f 62 df          	punpckldq %xmm7,%xmm3
    2bfc:	66 0f 6a d7          	punpckhdq %xmm7,%xmm2
    2c00:	66 0f 6f fe          	movdqa %xmm6,%xmm7
    2c04:	66 41 0f 6a f1       	punpckhdq %xmm9,%xmm6
    2c09:	66 41 0f 62 f9       	punpckldq %xmm9,%xmm7
    2c0e:	66 0f 6f c6          	movdqa %xmm6,%xmm0
    2c12:	66 0f 6f e9          	movdqa %xmm1,%xmm5
    2c16:	66 0f 6f f3          	movdqa %xmm3,%xmm6
    2c1a:	66 0f 6a df          	punpckhdq %xmm7,%xmm3
    2c1e:	66 0f 62 ec          	punpckldq %xmm4,%xmm5
    2c22:	66 0f 6a cc          	punpckhdq %xmm4,%xmm1
    2c26:	0f 11 58 90          	movups %xmm3,-0x70(%rax)
    2c2a:	66 0f 6f da          	movdqa %xmm2,%xmm3
    2c2e:	66 0f 6a d0          	punpckhdq %xmm0,%xmm2
    2c32:	66 41 0f 6f e7       	movdqa %xmm15,%xmm4
    2c37:	66 0f 62 d8          	punpckldq %xmm0,%xmm3
    2c3b:	66 0f 6f c5          	movdqa %xmm5,%xmm0
    2c3f:	0f 11 50 b0          	movups %xmm2,-0x50(%rax)
    2c43:	66 41 0f 62 e0       	punpckldq %xmm8,%xmm4
    2c48:	66 45 0f 6a f8       	punpckhdq %xmm8,%xmm15
    2c4d:	66 0f 62 f7          	punpckldq %xmm7,%xmm6
    2c51:	0f 11 58 a0          	movups %xmm3,-0x60(%rax)
    2c55:	66 0f 62 c4          	punpckldq %xmm4,%xmm0
    2c59:	66 0f 6a ec          	punpckhdq %xmm4,%xmm5
    2c5d:	0f 11 70 80          	movups %xmm6,-0x80(%rax)
    2c61:	0f 11 40 c0          	movups %xmm0,-0x40(%rax)
    2c65:	66 0f 6f c1          	movdqa %xmm1,%xmm0
    2c69:	66 41 0f 6a cf       	punpckhdq %xmm15,%xmm1
    2c6e:	66 41 0f 62 c7       	punpckldq %xmm15,%xmm0
    2c73:	0f 11 68 d0          	movups %xmm5,-0x30(%rax)
    2c77:	0f 11 40 e0          	movups %xmm0,-0x20(%rax)
    2c7b:	0f 11 48 f0          	movups %xmm1,-0x10(%rax)
    2c7f:	48 39 d0             	cmp    %rdx,%rax
    2c82:	0f 85 44 f9 ff ff    	jne    25cc <riscv_dsp_cifft_rd2_q31+0x3bc>
    2c88:	48 89 ca             	mov    %rcx,%rdx
    2c8b:	48 83 e2 fc          	and    $0xfffffffffffffffc,%rdx
    2c8f:	48 89 d0             	mov    %rdx,%rax
    2c92:	48 c1 e0 05          	shl    $0x5,%rax
    2c96:	4c 01 f0             	add    %r14,%rax
    2c99:	48 39 ca             	cmp    %rcx,%rdx
    2c9c:	0f 84 3e 02 00 00    	je     2ee0 <riscv_dsp_cifft_rd2_q31+0xcd0>
    2ca2:	41 b9 ff ff ff 7f    	mov    $0x7fffffff,%r9d
    2ca8:	41 bb 00 00 00 80    	mov    $0x80000000,%r11d
    2cae:	66 90                	xchg   %ax,%ax
    2cb0:	44 8b 00             	mov    (%rax),%r8d
    2cb3:	8b 50 08             	mov    0x8(%rax),%edx
    2cb6:	8b 48 04             	mov    0x4(%rax),%ecx
    2cb9:	8b 78 0c             	mov    0xc(%rax),%edi
    2cbc:	41 8d 34 10          	lea    (%r8,%rdx,1),%esi
    2cc0:	85 d2                	test   %edx,%edx
    2cc2:	0f 8e 91 05 00 00    	jle    3259 <riscv_dsp_cifft_rd2_q31+0x1049>
    2cc8:	44 89 cd             	mov    %r9d,%ebp
    2ccb:	29 d5                	sub    %edx,%ebp
    2ccd:	44 39 c5             	cmp    %r8d,%ebp
    2cd0:	7d 0c                	jge    2cde <riscv_dsp_cifft_rd2_q31+0xace>
    2cd2:	44 89 c6             	mov    %r8d,%esi
    2cd5:	c1 fe 1f             	sar    $0x1f,%esi
    2cd8:	81 f6 ff ff ff 7f    	xor    $0x7fffffff,%esi
    2cde:	8d 2c 39             	lea    (%rcx,%rdi,1),%ebp
    2ce1:	85 ff                	test   %edi,%edi
    2ce3:	0f 8e 56 05 00 00    	jle    323f <riscv_dsp_cifft_rd2_q31+0x102f>
    2ce9:	45 89 cc             	mov    %r9d,%r12d
    2cec:	41 29 fc             	sub    %edi,%r12d
    2cef:	41 39 cc             	cmp    %ecx,%r12d
    2cf2:	7d 0b                	jge    2cff <riscv_dsp_cifft_rd2_q31+0xaef>
    2cf4:	89 cd                	mov    %ecx,%ebp
    2cf6:	c1 fd 1f             	sar    $0x1f,%ebp
    2cf9:	81 f5 ff ff ff 7f    	xor    $0x7fffffff,%ebp
    2cff:	44 8d 24 36          	lea    (%rsi,%rsi,1),%r12d
    2d03:	41 89 f5             	mov    %esi,%r13d
    2d06:	45 89 e7             	mov    %r12d,%r15d
    2d09:	41 c1 fd 1f          	sar    $0x1f,%r13d
    2d0d:	41 d1 ff             	sar    %r15d
    2d10:	41 81 f5 ff ff ff 7f 	xor    $0x7fffffff,%r13d
    2d17:	44 39 fe             	cmp    %r15d,%esi
    2d1a:	8d 74 2d 00          	lea    0x0(%rbp,%rbp,1),%esi
    2d1e:	45 0f 45 e5          	cmovne %r13d,%r12d
    2d22:	41 89 f5             	mov    %esi,%r13d
    2d25:	41 d1 fd             	sar    %r13d
    2d28:	44 89 20             	mov    %r12d,(%rax)
    2d2b:	41 89 ec             	mov    %ebp,%r12d
    2d2e:	41 c1 fc 1f          	sar    $0x1f,%r12d
    2d32:	41 81 f4 ff ff ff 7f 	xor    $0x7fffffff,%r12d
    2d39:	44 39 ed             	cmp    %r13d,%ebp
    2d3c:	44 89 c5             	mov    %r8d,%ebp
    2d3f:	41 0f 45 f4          	cmovne %r12d,%esi
    2d43:	29 d5                	sub    %edx,%ebp
    2d45:	f7 de                	neg    %esi
    2d47:	89 70 04             	mov    %esi,0x4(%rax)
    2d4a:	85 d2                	test   %edx,%edx
    2d4c:	0f 8e d3 04 00 00    	jle    3225 <riscv_dsp_cifft_rd2_q31+0x1015>
    2d52:	81 c2 00 00 00 80    	add    $0x80000000,%edx
    2d58:	44 39 c2             	cmp    %r8d,%edx
    2d5b:	7e 0d                	jle    2d6a <riscv_dsp_cifft_rd2_q31+0xb5a>
    2d5d:	41 c1 f8 1f          	sar    $0x1f,%r8d
    2d61:	44 89 c5             	mov    %r8d,%ebp
    2d64:	81 f5 ff ff ff 7f    	xor    $0x7fffffff,%ebp
    2d6a:	89 fe                	mov    %edi,%esi
    2d6c:	29 ce                	sub    %ecx,%esi
    2d6e:	85 c9                	test   %ecx,%ecx
    2d70:	0f 8e 96 04 00 00    	jle    320c <riscv_dsp_cifft_rd2_q31+0xffc>
    2d76:	81 c1 00 00 00 80    	add    $0x80000000,%ecx
    2d7c:	39 cf                	cmp    %ecx,%edi
    2d7e:	7d 0b                	jge    2d8b <riscv_dsp_cifft_rd2_q31+0xb7b>
    2d80:	c1 ff 1f             	sar    $0x1f,%edi
    2d83:	89 fe                	mov    %edi,%esi
    2d85:	81 f6 ff ff ff 7f    	xor    $0x7fffffff,%esi
    2d8b:	8d 54 2d 00          	lea    0x0(%rbp,%rbp,1),%edx
    2d8f:	89 e9                	mov    %ebp,%ecx
    2d91:	44 8b 40 10          	mov    0x10(%rax),%r8d
    2d95:	89 d7                	mov    %edx,%edi
    2d97:	c1 f9 1f             	sar    $0x1f,%ecx
    2d9a:	d1 ff                	sar    %edi
    2d9c:	81 f1 ff ff ff 7f    	xor    $0x7fffffff,%ecx
    2da2:	39 fd                	cmp    %edi,%ebp
    2da4:	0f 45 d1             	cmovne %ecx,%edx
    2da7:	89 f1                	mov    %esi,%ecx
    2da9:	c1 f9 1f             	sar    $0x1f,%ecx
    2dac:	89 50 08             	mov    %edx,0x8(%rax)
    2daf:	8d 14 36             	lea    (%rsi,%rsi,1),%edx
    2db2:	81 f1 ff ff ff 7f    	xor    $0x7fffffff,%ecx
    2db8:	89 d7                	mov    %edx,%edi
    2dba:	d1 ff                	sar    %edi
    2dbc:	39 fe                	cmp    %edi,%esi
    2dbe:	8b 78 1c             	mov    0x1c(%rax),%edi
    2dc1:	0f 45 d1             	cmovne %ecx,%edx
    2dc4:	8b 48 14             	mov    0x14(%rax),%ecx
    2dc7:	89 50 0c             	mov    %edx,0xc(%rax)
    2dca:	8b 50 18             	mov    0x18(%rax),%edx
    2dcd:	42 8d 34 02          	lea    (%rdx,%r8,1),%esi
    2dd1:	85 d2                	test   %edx,%edx
    2dd3:	0f 8e 1a 04 00 00    	jle    31f3 <riscv_dsp_cifft_rd2_q31+0xfe3>
    2dd9:	44 89 cd             	mov    %r9d,%ebp
    2ddc:	29 d5                	sub    %edx,%ebp
    2dde:	41 39 e8             	cmp    %ebp,%r8d
    2de1:	7e 0c                	jle    2def <riscv_dsp_cifft_rd2_q31+0xbdf>
    2de3:	44 89 c6             	mov    %r8d,%esi
    2de6:	c1 fe 1f             	sar    $0x1f,%esi
    2de9:	81 f6 ff ff ff 7f    	xor    $0x7fffffff,%esi
    2def:	8d 2c 0f             	lea    (%rdi,%rcx,1),%ebp
    2df2:	85 ff                	test   %edi,%edi
    2df4:	0f 8e df 03 00 00    	jle    31d9 <riscv_dsp_cifft_rd2_q31+0xfc9>
    2dfa:	45 89 cc             	mov    %r9d,%r12d
    2dfd:	41 29 fc             	sub    %edi,%r12d
    2e00:	44 39 e1             	cmp    %r12d,%ecx
    2e03:	7e 0b                	jle    2e10 <riscv_dsp_cifft_rd2_q31+0xc00>
    2e05:	89 cd                	mov    %ecx,%ebp
    2e07:	c1 fd 1f             	sar    $0x1f,%ebp
    2e0a:	81 f5 ff ff ff 7f    	xor    $0x7fffffff,%ebp
    2e10:	44 8d 24 36          	lea    (%rsi,%rsi,1),%r12d
    2e14:	41 89 f5             	mov    %esi,%r13d
    2e17:	45 89 e7             	mov    %r12d,%r15d
    2e1a:	41 c1 fd 1f          	sar    $0x1f,%r13d
    2e1e:	41 d1 ff             	sar    %r15d
    2e21:	41 81 f5 ff ff ff 7f 	xor    $0x7fffffff,%r13d
    2e28:	44 39 fe             	cmp    %r15d,%esi
    2e2b:	8d 74 2d 00          	lea    0x0(%rbp,%rbp,1),%esi
    2e2f:	45 0f 45 e5          	cmovne %r13d,%r12d
    2e33:	41 89 f5             	mov    %esi,%r13d
    2e36:	41 d1 fd             	sar    %r13d
    2e39:	44 89 60 10          	mov    %r12d,0x10(%rax)
    2e3d:	41 89 ec             	mov    %ebp,%r12d
    2e40:	41 c1 fc 1f          	sar    $0x1f,%r12d
    2e44:	41 81 f4 ff ff ff 7f 	xor    $0x7fffffff,%r12d
    2e4b:	41 39 ed             	cmp    %ebp,%r13d
    2e4e:	44 89 c5             	mov    %r8d,%ebp
    2e51:	41 0f 45 f4          	cmovne %r12d,%esi
    2e55:	29 d5                	sub    %edx,%ebp
    2e57:	f7 de                	neg    %esi
    2e59:	89 70 14             	mov    %esi,0x14(%rax)
    2e5c:	85 d2                	test   %edx,%edx
    2e5e:	0f 8e 5b 03 00 00    	jle    31bf <riscv_dsp_cifft_rd2_q31+0xfaf>
    2e64:	81 c2 00 00 00 80    	add    $0x80000000,%edx
    2e6a:	44 39 c2             	cmp    %r8d,%edx
    2e6d:	7e 0d                	jle    2e7c <riscv_dsp_cifft_rd2_q31+0xc6c>
    2e6f:	41 c1 f8 1f          	sar    $0x1f,%r8d
    2e73:	44 89 c5             	mov    %r8d,%ebp
    2e76:	81 f5 ff ff ff 7f    	xor    $0x7fffffff,%ebp
    2e7c:	89 fa                	mov    %edi,%edx
    2e7e:	29 ca                	sub    %ecx,%edx
    2e80:	85 c9                	test   %ecx,%ecx
    2e82:	0f 8e 1e 03 00 00    	jle    31a6 <riscv_dsp_cifft_rd2_q31+0xf96>
    2e88:	81 c1 00 00 00 80    	add    $0x80000000,%ecx
    2e8e:	39 f9                	cmp    %edi,%ecx
    2e90:	7e 0b                	jle    2e9d <riscv_dsp_cifft_rd2_q31+0xc8d>
    2e92:	c1 ff 1f             	sar    $0x1f,%edi
    2e95:	89 fa                	mov    %edi,%edx
    2e97:	81 f2 ff ff ff 7f    	xor    $0x7fffffff,%edx
    2e9d:	8d 4c 2d 00          	lea    0x0(%rbp,%rbp,1),%ecx
    2ea1:	89 ee                	mov    %ebp,%esi
    2ea3:	89 cf                	mov    %ecx,%edi
    2ea5:	c1 fe 1f             	sar    $0x1f,%esi
    2ea8:	d1 ff                	sar    %edi
    2eaa:	81 f6 ff ff ff 7f    	xor    $0x7fffffff,%esi
    2eb0:	39 fd                	cmp    %edi,%ebp
    2eb2:	0f 45 ce             	cmovne %esi,%ecx
    2eb5:	89 48 18             	mov    %ecx,0x18(%rax)
    2eb8:	8d 0c 12             	lea    (%rdx,%rdx,1),%ecx
    2ebb:	89 ce                	mov    %ecx,%esi
    2ebd:	d1 fe                	sar    %esi
    2ebf:	39 f2                	cmp    %esi,%edx
    2ec1:	0f 84 ab 03 00 00    	je     3272 <riscv_dsp_cifft_rd2_q31+0x1062>
    2ec7:	c1 fa 1f             	sar    $0x1f,%edx
    2eca:	48 83 c0 20          	add    $0x20,%rax
    2ece:	81 f2 ff ff ff 7f    	xor    $0x7fffffff,%edx
    2ed4:	89 50 fc             	mov    %edx,-0x4(%rax)
    2ed7:	49 39 c2             	cmp    %rax,%r10
    2eda:	0f 85 d0 fd ff ff    	jne    2cb0 <riscv_dsp_cifft_rd2_q31+0xaa0>
    2ee0:	8b 44 24 f4          	mov    -0xc(%rsp),%eax
    2ee4:	49 8d 7c 1e fc       	lea    -0x4(%r14,%rbx,1),%rdi
    2ee9:	41 8b 4e 08          	mov    0x8(%r14),%ecx
    2eed:	89 c3                	mov    %eax,%ebx
    2eef:	d1 eb                	shr    %ebx
    2ef1:	41 89 d9             	mov    %ebx,%r9d
    2ef4:	89 c3                	mov    %eax,%ebx
    2ef6:	83 e0 fe             	and    $0xfffffffe,%eax
    2ef9:	89 c2                	mov    %eax,%edx
    2efb:	83 c0 01             	add    $0x1,%eax
    2efe:	49 8d 14 96          	lea    (%r14,%rdx,4),%rdx
    2f02:	49 8d 04 86          	lea    (%r14,%rax,4),%rax
    2f06:	8b 32                	mov    (%rdx),%esi
    2f08:	41 89 76 08          	mov    %esi,0x8(%r14)
    2f0c:	89 0a                	mov    %ecx,(%rdx)
    2f0e:	8b 08                	mov    (%rax),%ecx
    2f10:	41 8b 56 0c          	mov    0xc(%r14),%edx
    2f14:	41 89 4e 0c          	mov    %ecx,0xc(%r14)
    2f18:	b9 04 00 00 00       	mov    $0x4,%ecx
    2f1d:	89 10                	mov    %edx,(%rax)
    2f1f:	89 d8                	mov    %ebx,%eax
    2f21:	c1 eb 02             	shr    $0x2,%ebx
    2f24:	ba 04 00 00 00       	mov    $0x4,%edx
    2f29:	41 89 c3             	mov    %eax,%r11d
    2f2c:	41 89 da             	mov    %ebx,%r10d
    2f2f:	44 89 cb             	mov    %r9d,%ebx
    2f32:	44 89 c8             	mov    %r9d,%eax
    2f35:	41 c1 eb 03          	shr    $0x3,%r11d
    2f39:	44 31 d3             	xor    %r10d,%ebx
    2f3c:	44 89 dd             	mov    %r11d,%ebp
    2f3f:	31 dd                	xor    %ebx,%ebp
    2f41:	0f 1f 80 00 00 00 00 	nopl   0x0(%rax)
    2f48:	31 d8                	xor    %ebx,%eax
    2f4a:	41 85 c2             	test   %eax,%r10d
    2f4d:	75 11                	jne    2f60 <riscv_dsp_cifft_rd2_q31+0xd50>
    2f4f:	44 89 d6             	mov    %r10d,%esi
    2f52:	66 0f 1f 44 00 00    	nopw   0x0(%rax,%rax,1)
    2f58:	d1 ee                	shr    %esi
    2f5a:	31 f0                	xor    %esi,%eax
    2f5c:	85 c6                	test   %eax,%esi
    2f5e:	74 f8                	je     2f58 <riscv_dsp_cifft_rd2_q31+0xd48>
    2f60:	8d 71 fe             	lea    -0x2(%rcx),%esi
    2f63:	39 f0                	cmp    %esi,%eax
    2f65:	0f 86 8c 00 00 00    	jbe    2ff7 <riscv_dsp_cifft_rd2_q31+0xde7>
    2f6b:	89 d6                	mov    %edx,%esi
    2f6d:	44 8d 04 00          	lea    (%rax,%rax,1),%r8d
    2f71:	4d 8d 24 b6          	lea    (%r14,%rsi,4),%r12
    2f75:	4c 89 c6             	mov    %r8,%rsi
    2f78:	4f 8d 04 86          	lea    (%r14,%r8,4),%r8
    2f7c:	45 8b 2c 24          	mov    (%r12),%r13d
    2f80:	45 8b 38             	mov    (%r8),%r15d
    2f83:	83 c6 01             	add    $0x1,%esi
    2f86:	49 8d 34 b6          	lea    (%r14,%rsi,4),%rsi
    2f8a:	45 89 3c 24          	mov    %r15d,(%r12)
    2f8e:	45 89 28             	mov    %r13d,(%r8)
    2f91:	44 8d 42 01          	lea    0x1(%rdx),%r8d
    2f95:	44 8b 2e             	mov    (%rsi),%r13d
    2f98:	4f 8d 04 86          	lea    (%r14,%r8,4),%r8
    2f9c:	45 8b 20             	mov    (%r8),%r12d
    2f9f:	45 89 28             	mov    %r13d,(%r8)
    2fa2:	41 89 d0             	mov    %edx,%r8d
    2fa5:	41 f7 d8             	neg    %r8d
    2fa8:	44 89 26             	mov    %r12d,(%rsi)
    2fab:	89 c6                	mov    %eax,%esi
    2fad:	4d 63 c0             	movslq %r8d,%r8
    2fb0:	f7 de                	neg    %esi
    2fb2:	49 c1 e0 02          	shl    $0x2,%r8
    2fb6:	01 f6                	add    %esi,%esi
    2fb8:	4e 8d 2c 07          	lea    (%rdi,%r8,1),%r13
    2fbc:	4e 8d 44 07 fc       	lea    -0x4(%rdi,%r8,1),%r8
    2fc1:	48 63 f6             	movslq %esi,%rsi
    2fc4:	45 8b 7d 00          	mov    0x0(%r13),%r15d
    2fc8:	48 c1 e6 02          	shl    $0x2,%rsi
    2fcc:	4c 8d 24 37          	lea    (%rdi,%rsi,1),%r12
    2fd0:	44 89 7c 24 c8       	mov    %r15d,-0x38(%rsp)
    2fd5:	48 8d 74 37 fc       	lea    -0x4(%rdi,%rsi,1),%rsi
    2fda:	45 8b 3c 24          	mov    (%r12),%r15d
    2fde:	45 89 7d 00          	mov    %r15d,0x0(%r13)
    2fe2:	44 8b 7c 24 c8       	mov    -0x38(%rsp),%r15d
    2fe7:	45 89 3c 24          	mov    %r15d,(%r12)
    2feb:	45 8b 20             	mov    (%r8),%r12d
    2fee:	44 8b 2e             	mov    (%rsi),%r13d
    2ff1:	45 89 28             	mov    %r13d,(%r8)
    2ff4:	44 89 26             	mov    %r12d,(%rsi)
    2ff7:	44 01 c8             	add    %r9d,%eax
    2ffa:	8d 72 02             	lea    0x2(%rdx),%esi
    2ffd:	44 8d 04 00          	lea    (%rax,%rax,1),%r8d
    3001:	4d 8d 24 b6          	lea    (%r14,%rsi,4),%r12
    3005:	4c 89 c6             	mov    %r8,%rsi
    3008:	4f 8d 04 86          	lea    (%r14,%r8,4),%r8
    300c:	45 8b 2c 24          	mov    (%r12),%r13d
    3010:	45 8b 38             	mov    (%r8),%r15d
    3013:	83 c6 01             	add    $0x1,%esi
    3016:	49 8d 34 b6          	lea    (%r14,%rsi,4),%rsi
    301a:	45 89 3c 24          	mov    %r15d,(%r12)
    301e:	45 89 28             	mov    %r13d,(%r8)
    3021:	44 8d 42 03          	lea    0x3(%rdx),%r8d
    3025:	44 8b 2e             	mov    (%rsi),%r13d
    3028:	4f 8d 04 86          	lea    (%r14,%r8,4),%r8
    302c:	45 8b 20             	mov    (%r8),%r12d
    302f:	45 89 28             	mov    %r13d,(%r8)
    3032:	44 89 26             	mov    %r12d,(%rsi)
    3035:	41 39 c9             	cmp    %ecx,%r9d
    3038:	0f 86 7f 02 00 00    	jbe    32bd <riscv_dsp_cifft_rd2_q31+0x10ad>
    303e:	31 e8                	xor    %ebp,%eax
    3040:	41 85 c3             	test   %eax,%r11d
    3043:	75 13                	jne    3058 <riscv_dsp_cifft_rd2_q31+0xe48>
    3045:	44 89 de             	mov    %r11d,%esi
    3048:	0f 1f 84 00 00 00 00 	nopl   0x0(%rax,%rax,1)
    304f:	00 
    3050:	d1 ee                	shr    %esi
    3052:	31 f0                	xor    %esi,%eax
    3054:	85 c6                	test   %eax,%esi
    3056:	74 f8                	je     3050 <riscv_dsp_cifft_rd2_q31+0xe40>
    3058:	39 c8                	cmp    %ecx,%eax
    305a:	0f 86 90 00 00 00    	jbe    30f0 <riscv_dsp_cifft_rd2_q31+0xee0>
    3060:	8d 72 04             	lea    0x4(%rdx),%esi
    3063:	44 8d 04 00          	lea    (%rax,%rax,1),%r8d
    3067:	4d 8d 24 b6          	lea    (%r14,%rsi,4),%r12
    306b:	4c 89 c6             	mov    %r8,%rsi
    306e:	4f 8d 04 86          	lea    (%r14,%r8,4),%r8
    3072:	45 8b 2c 24          	mov    (%r12),%r13d
    3076:	45 8b 38             	mov    (%r8),%r15d
    3079:	83 c6 01             	add    $0x1,%esi
    307c:	49 8d 34 b6          	lea    (%r14,%rsi,4),%rsi
    3080:	45 89 3c 24          	mov    %r15d,(%r12)
    3084:	45 89 28             	mov    %r13d,(%r8)
    3087:	44 8d 42 05          	lea    0x5(%rdx),%r8d
    308b:	44 8b 2e             	mov    (%rsi),%r13d
    308e:	4f 8d 04 86          	lea    (%r14,%r8,4),%r8
    3092:	45 8b 20             	mov    (%r8),%r12d
    3095:	45 89 28             	mov    %r13d,(%r8)
    3098:	41 b8 fc ff ff ff    	mov    $0xfffffffc,%r8d
    309e:	41 29 d0             	sub    %edx,%r8d
    30a1:	44 89 26             	mov    %r12d,(%rsi)
    30a4:	89 c6                	mov    %eax,%esi
    30a6:	4d 63 c0             	movslq %r8d,%r8
    30a9:	f7 de                	neg    %esi
    30ab:	49 c1 e0 02          	shl    $0x2,%r8
    30af:	01 f6                	add    %esi,%esi
    30b1:	4e 8d 2c 07          	lea    (%rdi,%r8,1),%r13
    30b5:	4e 8d 44 07 fc       	lea    -0x4(%rdi,%r8,1),%r8
    30ba:	48 63 f6             	movslq %esi,%rsi
    30bd:	45 8b 7d 00          	mov    0x0(%r13),%r15d
    30c1:	48 c1 e6 02          	shl    $0x2,%rsi
    30c5:	4c 8d 24 37          	lea    (%rdi,%rsi,1),%r12
    30c9:	44 89 7c 24 c8       	mov    %r15d,-0x38(%rsp)
    30ce:	48 8d 74 37 fc       	lea    -0x4(%rdi,%rsi,1),%rsi
    30d3:	45 8b 3c 24          	mov    (%r12),%r15d
    30d7:	45 89 7d 00          	mov    %r15d,0x0(%r13)
    30db:	44 8b 7c 24 c8       	mov    -0x38(%rsp),%r15d
    30e0:	45 89 3c 24          	mov    %r15d,(%r12)
    30e4:	45 8b 20             	mov    (%r8),%r12d
    30e7:	44 8b 2e             	mov    (%rsi),%r13d
    30ea:	45 89 28             	mov    %r13d,(%r8)
    30ed:	44 89 26             	mov    %r12d,(%rsi)
    30f0:	44 01 c8             	add    %r9d,%eax
    30f3:	8d 72 06             	lea    0x6(%rdx),%esi
    30f6:	83 c1 04             	add    $0x4,%ecx
    30f9:	44 8d 04 00          	lea    (%rax,%rax,1),%r8d
    30fd:	4d 8d 24 b6          	lea    (%r14,%rsi,4),%r12
    3101:	4c 89 c6             	mov    %r8,%rsi
    3104:	4f 8d 04 86          	lea    (%r14,%r8,4),%r8
    3108:	45 8b 2c 24          	mov    (%r12),%r13d
    310c:	45 8b 38             	mov    (%r8),%r15d
    310f:	83 c6 01             	add    $0x1,%esi
    3112:	49 8d 34 b6          	lea    (%r14,%rsi,4),%rsi
    3116:	45 89 3c 24          	mov    %r15d,(%r12)
    311a:	45 89 28             	mov    %r13d,(%r8)
    311d:	44 8d 42 07          	lea    0x7(%rdx),%r8d
    3121:	44 8b 2e             	mov    (%rsi),%r13d
    3124:	83 c2 08             	add    $0x8,%edx
    3127:	4f 8d 04 86          	lea    (%r14,%r8,4),%r8
    312b:	45 8b 20             	mov    (%r8),%r12d
    312e:	45 89 28             	mov    %r13d,(%r8)
    3131:	44 89 26             	mov    %r12d,(%rsi)
    3134:	e9 0f fe ff ff       	jmp    2f48 <riscv_dsp_cifft_rd2_q31+0xd38>
    3139:	0f 1f 80 00 00 00 00 	nopl   0x0(%rax)
    3140:	8d 90 00 ff ff ff    	lea    -0x100(%rax),%edx
    3146:	b9 00 01 00 00       	mov    $0x100,%ecx
    314b:	29 d1                	sub    %edx,%ecx
    314d:	85 c9                	test   %ecx,%ecx
    314f:	7e 1f                	jle    3170 <riscv_dsp_cifft_rd2_q31+0xf60>
    3151:	48 63 c9             	movslq %ecx,%rcx
    3154:	48 63 d2             	movslq %edx,%rdx
    3157:	45 8b 44 8d 00       	mov    0x0(%r13,%rcx,4),%r8d
    315c:	45 8b 4c 95 00       	mov    0x0(%r13,%rdx,4),%r9d
    3161:	41 f7 d8             	neg    %r8d
    3164:	e9 5a f3 ff ff       	jmp    24c3 <riscv_dsp_cifft_rd2_q31+0x2b3>
    3169:	0f 1f 80 00 00 00 00 	nopl   0x0(%rax)
    3170:	2d 00 02 00 00       	sub    $0x200,%eax
    3175:	ba 00 01 00 00       	mov    $0x100,%edx
    317a:	29 c2                	sub    %eax,%edx
    317c:	48 98                	cltq   
    317e:	45 8b 4c 85 00       	mov    0x0(%r13,%rax,4),%r9d
    3183:	48 63 ca             	movslq %edx,%rcx
    3186:	45 8b 44 8d 00       	mov    0x0(%r13,%rcx,4),%r8d
    318b:	41 f7 d9             	neg    %r9d
    318e:	85 d2                	test   %edx,%edx
    3190:	0f 8e 2d f3 ff ff    	jle    24c3 <riscv_dsp_cifft_rd2_q31+0x2b3>
    3196:	44 89 c0             	mov    %r8d,%eax
    3199:	45 89 c8             	mov    %r9d,%r8d
    319c:	f7 d8                	neg    %eax
    319e:	41 89 c1             	mov    %eax,%r9d
    31a1:	e9 1d f3 ff ff       	jmp    24c3 <riscv_dsp_cifft_rd2_q31+0x2b3>
    31a6:	0f 84 f1 fc ff ff    	je     2e9d <riscv_dsp_cifft_rd2_q31+0xc8d>
    31ac:	81 c1 ff ff ff 7f    	add    $0x7fffffff,%ecx
    31b2:	39 cf                	cmp    %ecx,%edi
    31b4:	0f 8f d8 fc ff ff    	jg     2e92 <riscv_dsp_cifft_rd2_q31+0xc82>
    31ba:	e9 de fc ff ff       	jmp    2e9d <riscv_dsp_cifft_rd2_q31+0xc8d>
    31bf:	0f 84 b7 fc ff ff    	je     2e7c <riscv_dsp_cifft_rd2_q31+0xc6c>
    31c5:	81 c2 ff ff ff 7f    	add    $0x7fffffff,%edx
    31cb:	44 39 c2             	cmp    %r8d,%edx
    31ce:	0f 8c 9b fc ff ff    	jl     2e6f <riscv_dsp_cifft_rd2_q31+0xc5f>
    31d4:	e9 a3 fc ff ff       	jmp    2e7c <riscv_dsp_cifft_rd2_q31+0xc6c>
    31d9:	0f 84 31 fc ff ff    	je     2e10 <riscv_dsp_cifft_rd2_q31+0xc00>
    31df:	45 89 dc             	mov    %r11d,%r12d
    31e2:	41 29 fc             	sub    %edi,%r12d
    31e5:	44 39 e1             	cmp    %r12d,%ecx
    31e8:	0f 8c 17 fc ff ff    	jl     2e05 <riscv_dsp_cifft_rd2_q31+0xbf5>
    31ee:	e9 1d fc ff ff       	jmp    2e10 <riscv_dsp_cifft_rd2_q31+0xc00>
    31f3:	0f 84 f6 fb ff ff    	je     2def <riscv_dsp_cifft_rd2_q31+0xbdf>
    31f9:	44 89 dd             	mov    %r11d,%ebp
    31fc:	29 d5                	sub    %edx,%ebp
    31fe:	41 39 e8             	cmp    %ebp,%r8d
    3201:	0f 8c dc fb ff ff    	jl     2de3 <riscv_dsp_cifft_rd2_q31+0xbd3>
    3207:	e9 e3 fb ff ff       	jmp    2def <riscv_dsp_cifft_rd2_q31+0xbdf>
    320c:	0f 84 79 fb ff ff    	je     2d8b <riscv_dsp_cifft_rd2_q31+0xb7b>
    3212:	81 c1 ff ff ff 7f    	add    $0x7fffffff,%ecx
    3218:	39 cf                	cmp    %ecx,%edi
    321a:	0f 8f 60 fb ff ff    	jg     2d80 <riscv_dsp_cifft_rd2_q31+0xb70>
    3220:	e9 66 fb ff ff       	jmp    2d8b <riscv_dsp_cifft_rd2_q31+0xb7b>
    3225:	0f 84 3f fb ff ff    	je     2d6a <riscv_dsp_cifft_rd2_q31+0xb5a>
    322b:	81 c2 ff ff ff 7f    	add    $0x7fffffff,%edx
    3231:	44 39 c2             	cmp    %r8d,%edx
    3234:	0f 8c 23 fb ff ff    	jl     2d5d <riscv_dsp_cifft_rd2_q31+0xb4d>
    323a:	e9 2b fb ff ff       	jmp    2d6a <riscv_dsp_cifft_rd2_q31+0xb5a>
    323f:	0f 84 ba fa ff ff    	je     2cff <riscv_dsp_cifft_rd2_q31+0xaef>
    3245:	45 89 dc             	mov    %r11d,%r12d
    3248:	41 29 fc             	sub    %edi,%r12d
    324b:	41 39 cc             	cmp    %ecx,%r12d
    324e:	0f 8f a0 fa ff ff    	jg     2cf4 <riscv_dsp_cifft_rd2_q31+0xae4>
    3254:	e9 a6 fa ff ff       	jmp    2cff <riscv_dsp_cifft_rd2_q31+0xaef>
    3259:	0f 84 7f fa ff ff    	je     2cde <riscv_dsp_cifft_rd2_q31+0xace>
    325f:	44 89 dd             	mov    %r11d,%ebp
    3262:	29 d5                	sub    %edx,%ebp
    3264:	44 39 c5             	cmp    %r8d,%ebp
    3267:	0f 8f 65 fa ff ff    	jg     2cd2 <riscv_dsp_cifft_rd2_q31+0xac2>
    326d:	e9 6c fa ff ff       	jmp    2cde <riscv_dsp_cifft_rd2_q31+0xace>
    3272:	89 48 1c             	mov    %ecx,0x1c(%rax)
    3275:	48 83 c0 20          	add    $0x20,%rax
    3279:	49 39 c2             	cmp    %rax,%r10
    327c:	0f 85 2e fa ff ff    	jne    2cb0 <riscv_dsp_cifft_rd2_q31+0xaa0>
    3282:	e9 59 fc ff ff       	jmp    2ee0 <riscv_dsp_cifft_rd2_q31+0xcd0>
    3287:	48 8b 44 24 d8       	mov    -0x28(%rsp),%rax
    328c:	89 ea                	mov    %ebp,%edx
    328e:	66 90                	xchg   %ax,%ax
    3290:	f3 0f 7e 00          	movq   (%rax),%xmm0
    3294:	f3 42 0f 7e 0c 10    	movq   (%rax,%r10,1),%xmm1
    329a:	66 0f 6f d0          	movdqa %xmm0,%xmm2
    329e:	66 0f fa c1          	psubd  %xmm1,%xmm0
    32a2:	66 0f fe d1          	paddd  %xmm1,%xmm2
    32a6:	66 0f d6 10          	movq   %xmm2,(%rax)
    32aa:	66 42 0f d6 04 10    	movq   %xmm0,(%rax,%r10,1)
    32b0:	48 01 c8             	add    %rcx,%rax
    32b3:	83 ea 01             	sub    $0x1,%edx
    32b6:	75 d8                	jne    3290 <riscv_dsp_cifft_rd2_q31+0x1080>
    32b8:	e9 bd f1 ff ff       	jmp    247a <riscv_dsp_cifft_rd2_q31+0x26a>
    32bd:	5b                   	pop    %rbx
    32be:	31 c0                	xor    %eax,%eax
    32c0:	5d                   	pop    %rbp
    32c1:	41 5c                	pop    %r12
    32c3:	41 5d                	pop    %r13
    32c5:	41 5e                	pop    %r14
    32c7:	41 5f                	pop    %r15
    32c9:	c3                   	ret    
    32ca:	66 0f 1f 44 00 00    	nopw   0x0(%rax,%rax,1)

00000000000032d0 <riscv_dsp_cfft_rd4_q31>:
    32d0:	f3 0f 1e fa          	endbr64 
    32d4:	41 57                	push   %r15
    32d6:	89 f1                	mov    %esi,%ecx
    32d8:	b8 01 00 00 00       	mov    $0x1,%eax
    32dd:	49 89 ff             	mov    %rdi,%r15
    32e0:	41 56                	push   %r14
    32e2:	d3 e0                	shl    %cl,%eax
    32e4:	41 55                	push   %r13
    32e6:	41 54                	push   %r12
    32e8:	55                   	push   %rbp
    32e9:	53                   	push   %rbx
    32ea:	89 44 24 f0          	mov    %eax,-0x10(%rsp)
    32ee:	d1 e8                	shr    %eax
    32f0:	41 89 c4             	mov    %eax,%r12d
    32f3:	48 89 7c 24 d8       	mov    %rdi,-0x28(%rsp)
    32f8:	49 c1 e4 02          	shl    $0x2,%r12
    32fc:	89 44 24 f4          	mov    %eax,-0xc(%rsp)
    3300:	41 8b 07             	mov    (%r15),%eax
    3303:	4e 8d 34 27          	lea    (%rdi,%r12,1),%r14
    3307:	89 74 24 ec          	mov    %esi,-0x14(%rsp)
    330b:	4b 8d 3c 26          	lea    (%r14,%r12,1),%rdi
    330f:	d1 f8                	sar    %eax
    3311:	4c 89 74 24 a0       	mov    %r14,-0x60(%rsp)
    3316:	8b 17                	mov    (%rdi),%edx
    3318:	4e 8d 14 27          	lea    (%rdi,%r12,1),%r10
    331c:	41 8b 0a             	mov    (%r10),%ecx
    331f:	d1 fa                	sar    %edx
    3321:	8d 34 10             	lea    (%rax,%rdx,1),%esi
    3324:	29 d0                	sub    %edx,%eax
    3326:	41 8b 16             	mov    (%r14),%edx
    3329:	d1 f9                	sar    %ecx
    332b:	d1 fe                	sar    %esi
    332d:	d1 f8                	sar    %eax
    332f:	d1 fa                	sar    %edx
    3331:	44 8d 0c 0a          	lea    (%rdx,%rcx,1),%r9d
    3335:	29 ca                	sub    %ecx,%edx
    3337:	41 d1 f9             	sar    %r9d
    333a:	89 d3                	mov    %edx,%ebx
    333c:	42 8d 14 0e          	lea    (%rsi,%r9,1),%edx
    3340:	44 29 ce             	sub    %r9d,%esi
    3343:	d1 fb                	sar    %ebx
    3345:	d1 fa                	sar    %edx
    3347:	d1 fe                	sar    %esi
    3349:	41 89 17             	mov    %edx,(%r15)
    334c:	41 8b 57 04          	mov    0x4(%r15),%edx
    3350:	44 8b 47 04          	mov    0x4(%rdi),%r8d
    3354:	45 8b 5a 04          	mov    0x4(%r10),%r11d
    3358:	d1 fa                	sar    %edx
    335a:	41 d1 f8             	sar    %r8d
    335d:	41 d1 fb             	sar    %r11d
    3360:	42 8d 0c 02          	lea    (%rdx,%r8,1),%ecx
    3364:	44 29 c2             	sub    %r8d,%edx
    3367:	d1 fa                	sar    %edx
    3369:	d1 f9                	sar    %ecx
    336b:	89 d5                	mov    %edx,%ebp
    336d:	41 8b 56 04          	mov    0x4(%r14),%edx
    3371:	89 54 24 90          	mov    %edx,-0x70(%rsp)
    3375:	d1 fa                	sar    %edx
    3377:	46 8d 04 1a          	lea    (%rdx,%r11,1),%r8d
    337b:	44 29 da             	sub    %r11d,%edx
    337e:	41 d1 f8             	sar    %r8d
    3381:	d1 fa                	sar    %edx
    3383:	46 8d 1c 01          	lea    (%rcx,%r8,1),%r11d
    3387:	44 29 c1             	sub    %r8d,%ecx
    338a:	d1 f9                	sar    %ecx
    338c:	41 d1 fb             	sar    %r11d
    338f:	45 89 5f 04          	mov    %r11d,0x4(%r15)
    3393:	41 89 4e 04          	mov    %ecx,0x4(%r14)
    3397:	8d 0c 10             	lea    (%rax,%rdx,1),%ecx
    339a:	d1 f9                	sar    %ecx
    339c:	41 89 36             	mov    %esi,(%r14)
    339f:	89 0f                	mov    %ecx,(%rdi)
    33a1:	89 e9                	mov    %ebp,%ecx
    33a3:	29 d9                	sub    %ebx,%ecx
    33a5:	d1 f9                	sar    %ecx
    33a7:	29 d0                	sub    %edx,%eax
    33a9:	01 eb                	add    %ebp,%ebx
    33ab:	66 0f 6e c0          	movd   %eax,%xmm0
    33af:	66 0f 6e cb          	movd   %ebx,%xmm1
    33b3:	49 8d 47 08          	lea    0x8(%r15),%rax
    33b7:	89 4f 04             	mov    %ecx,0x4(%rdi)
    33ba:	66 0f 62 c1          	punpckldq %xmm1,%xmm0
    33be:	48 89 44 24 e0       	mov    %rax,-0x20(%rsp)
    33c3:	66 0f 72 e0 01       	psrad  $0x1,%xmm0
    33c8:	66 41 0f d6 02       	movq   %xmm0,(%r10)
    33cd:	49 39 c6             	cmp    %rax,%r14
    33d0:	0f 84 2c 03 00 00    	je     3702 <riscv_dsp_cfft_rd4_q31+0x432>
    33d6:	48 89 c6             	mov    %rax,%rsi
    33d9:	b8 0a 00 00 00       	mov    $0xa,%eax
    33de:	2b 44 24 ec          	sub    -0x14(%rsp),%eax
    33e2:	45 31 ff             	xor    %r15d,%r15d
    33e5:	89 44 24 90          	mov    %eax,-0x70(%rsp)
    33e9:	48 8b 44 24 d8       	mov    -0x28(%rsp),%rax
    33ee:	4c 8d 2d b3 35 00 00 	lea    0x35b3(%rip),%r13        # 69a8 <riscv_dsp_cos_table_q31_1024+0x8>
    33f5:	41 be 00 01 00 00    	mov    $0x100,%r14d
    33fb:	4e 8d 5c 60 08       	lea    0x8(%rax,%r12,2),%r11
    3400:	e9 41 01 00 00       	jmp    3546 <riscv_dsp_cfft_rd4_q31+0x276>
    3405:	4d 63 d2             	movslq %r10d,%r10
    3408:	41 8b 4c 8d 00       	mov    0x0(%r13,%rcx,4),%ecx
    340d:	43 8b 5c 95 00       	mov    0x0(%r13,%r10,4),%ebx
    3412:	48 63 c9             	movslq %ecx,%rcx
    3415:	48 63 db             	movslq %ebx,%rbx
    3418:	49 89 ca             	mov    %rcx,%r10
    341b:	49 0f af c9          	imul   %r9,%rcx
    341f:	4d 0f af d0          	imul   %r8,%r10
    3423:	4c 89 54 24 98       	mov    %r10,-0x68(%rsp)
    3428:	49 89 da             	mov    %rbx,%r10
    342b:	49 0f af d8          	imul   %r8,%rbx
    342f:	44 8d 04 38          	lea    (%rax,%rdi,1),%r8d
    3433:	4d 0f af d1          	imul   %r9,%r10
    3437:	29 f8                	sub    %edi,%eax
    3439:	4c 03 54 24 98       	add    -0x68(%rsp),%r10
    343e:	41 89 e9             	mov    %ebp,%r9d
    3441:	49 c1 fa 20          	sar    $0x20,%r10
    3445:	48 63 f8             	movslq %eax,%rdi
    3448:	44 89 f8             	mov    %r15d,%eax
    344b:	41 29 d1             	sub    %edx,%r9d
    344e:	48 29 d9             	sub    %rbx,%rcx
    3451:	66 41 0f 6e c2       	movd   %r10d,%xmm0
    3456:	01 ea                	add    %ebp,%edx
    3458:	4d 63 c0             	movslq %r8d,%r8
    345b:	48 c1 f9 20          	sar    $0x20,%rcx
    345f:	4d 63 c9             	movslq %r9d,%r9
    3462:	48 63 d2             	movslq %edx,%rdx
    3465:	66 0f 6e f1          	movd   %ecx,%xmm6
    3469:	0f b6 4c 24 90       	movzbl -0x70(%rsp),%ecx
    346e:	66 0f 62 c6          	punpckldq %xmm6,%xmm0
    3472:	d3 e0                	shl    %cl,%eax
    3474:	44 89 f1             	mov    %r14d,%ecx
    3477:	66 42 0f d6 04 26    	movq   %xmm0,(%rsi,%r12,1)
    347d:	29 c1                	sub    %eax,%ecx
    347f:	85 c9                	test   %ecx,%ecx
    3481:	0f 8e ab 01 00 00    	jle    3632 <riscv_dsp_cfft_rd4_q31+0x362>
    3487:	48 98                	cltq   
    3489:	48 63 c9             	movslq %ecx,%rcx
    348c:	41 8b 44 85 00       	mov    0x0(%r13,%rax,4),%eax
    3491:	45 8b 54 8d 00       	mov    0x0(%r13,%rcx,4),%r10d
    3496:	48 98                	cltq   
    3498:	4d 63 d2             	movslq %r10d,%r10
    349b:	48 89 c1             	mov    %rax,%rcx
    349e:	49 0f af c1          	imul   %r9,%rax
    34a2:	4c 89 d3             	mov    %r10,%rbx
    34a5:	49 0f af c8          	imul   %r8,%rcx
    34a9:	49 0f af d9          	imul   %r9,%rbx
    34ad:	4d 0f af d0          	imul   %r8,%r10
    34b1:	48 01 d9             	add    %rbx,%rcx
    34b4:	48 c1 f9 20          	sar    $0x20,%rcx
    34b8:	4c 29 d0             	sub    %r10,%rax
    34bb:	48 c1 f8 20          	sar    $0x20,%rax
    34bf:	66 0f 6e c1          	movd   %ecx,%xmm0
    34c3:	0f b6 4c 24 90       	movzbl -0x70(%rsp),%ecx
    34c8:	66 0f 6e e0          	movd   %eax,%xmm4
    34cc:	43 8d 04 7f          	lea    (%r15,%r15,2),%eax
    34d0:	d3 e0                	shl    %cl,%eax
    34d2:	44 89 f1             	mov    %r14d,%ecx
    34d5:	66 0f 62 c4          	punpckldq %xmm4,%xmm0
    34d9:	29 c1                	sub    %eax,%ecx
    34db:	66 41 0f d6 03       	movq   %xmm0,(%r11)
    34e0:	85 c9                	test   %ecx,%ecx
    34e2:	0f 8e 22 01 00 00    	jle    360a <riscv_dsp_cfft_rd4_q31+0x33a>
    34e8:	48 98                	cltq   
    34ea:	48 63 c9             	movslq %ecx,%rcx
    34ed:	41 8b 44 85 00       	mov    0x0(%r13,%rax,4),%eax
    34f2:	45 8b 44 8d 00       	mov    0x0(%r13,%rcx,4),%r8d
    34f7:	48 98                	cltq   
    34f9:	4d 63 c0             	movslq %r8d,%r8
    34fc:	48 83 c6 08          	add    $0x8,%rsi
    3500:	49 83 c3 08          	add    $0x8,%r11
    3504:	48 89 c1             	mov    %rax,%rcx
    3507:	48 0f af c2          	imul   %rdx,%rax
    350b:	4d 89 c1             	mov    %r8,%r9
    350e:	48 0f af cf          	imul   %rdi,%rcx
    3512:	4c 0f af ca          	imul   %rdx,%r9
    3516:	4c 0f af c7          	imul   %rdi,%r8
    351a:	4c 01 c9             	add    %r9,%rcx
    351d:	4c 29 c0             	sub    %r8,%rax
    3520:	48 c1 f9 20          	sar    $0x20,%rcx
    3524:	48 c1 f8 20          	sar    $0x20,%rax
    3528:	66 0f 6e c1          	movd   %ecx,%xmm0
    352c:	66 0f 6e f0          	movd   %eax,%xmm6
    3530:	66 0f 62 c6          	punpckldq %xmm6,%xmm0
    3534:	66 43 0f d6 44 23 f8 	movq   %xmm0,-0x8(%r11,%r12,1)
    353b:	48 39 74 24 a0       	cmp    %rsi,-0x60(%rsp)
    3540:	0f 84 bc 01 00 00    	je     3702 <riscv_dsp_cfft_rd4_q31+0x432>
    3546:	41 8b 13             	mov    (%r11),%edx
    3549:	8b 06                	mov    (%rsi),%eax
    354b:	41 83 c7 01          	add    $0x1,%r15d
    354f:	43 8b 3c 23          	mov    (%r11,%r12,1),%edi
    3553:	d1 fa                	sar    %edx
    3555:	d1 f8                	sar    %eax
    3557:	44 8d 04 10          	lea    (%rax,%rdx,1),%r8d
    355b:	29 d0                	sub    %edx,%eax
    355d:	42 8b 14 26          	mov    (%rsi,%r12,1),%edx
    3561:	d1 ff                	sar    %edi
    3563:	41 d1 f8             	sar    %r8d
    3566:	d1 f8                	sar    %eax
    3568:	d1 fa                	sar    %edx
    356a:	8d 0c 3a             	lea    (%rdx,%rdi,1),%ecx
    356d:	29 fa                	sub    %edi,%edx
    356f:	d1 f9                	sar    %ecx
    3571:	d1 fa                	sar    %edx
    3573:	41 8d 3c 08          	lea    (%r8,%rcx,1),%edi
    3577:	41 29 c8             	sub    %ecx,%r8d
    357a:	8b 4e 04             	mov    0x4(%rsi),%ecx
    357d:	d1 ff                	sar    %edi
    357f:	4d 63 c0             	movslq %r8d,%r8
    3582:	89 3e                	mov    %edi,(%rsi)
    3584:	41 8b 7b 04          	mov    0x4(%r11),%edi
    3588:	d1 f9                	sar    %ecx
    358a:	47 8b 54 23 04       	mov    0x4(%r11,%r12,1),%r10d
    358f:	d1 ff                	sar    %edi
    3591:	44 8d 0c 39          	lea    (%rcx,%rdi,1),%r9d
    3595:	29 f9                	sub    %edi,%ecx
    3597:	42 8b 7c 26 04       	mov    0x4(%rsi,%r12,1),%edi
    359c:	41 d1 fa             	sar    %r10d
    359f:	d1 f9                	sar    %ecx
    35a1:	41 d1 f9             	sar    %r9d
    35a4:	d1 ff                	sar    %edi
    35a6:	89 cd                	mov    %ecx,%ebp
    35a8:	42 8d 0c 17          	lea    (%rdi,%r10,1),%ecx
    35ac:	44 29 d7             	sub    %r10d,%edi
    35af:	d1 f9                	sar    %ecx
    35b1:	d1 ff                	sar    %edi
    35b3:	45 8d 14 09          	lea    (%r9,%rcx,1),%r10d
    35b7:	41 29 c9             	sub    %ecx,%r9d
    35ba:	0f b6 4c 24 90       	movzbl -0x70(%rsp),%ecx
    35bf:	41 d1 fa             	sar    %r10d
    35c2:	4d 63 c9             	movslq %r9d,%r9
    35c5:	44 89 56 04          	mov    %r10d,0x4(%rsi)
    35c9:	47 8d 14 3f          	lea    (%r15,%r15,1),%r10d
    35cd:	41 d3 e2             	shl    %cl,%r10d
    35d0:	49 63 ca             	movslq %r10d,%rcx
    35d3:	45 89 f2             	mov    %r14d,%r10d
    35d6:	41 29 ca             	sub    %ecx,%r10d
    35d9:	45 85 d2             	test   %r10d,%r10d
    35dc:	0f 8f 23 fe ff ff    	jg     3405 <riscv_dsp_cfft_rd4_q31+0x135>
    35e2:	44 8d 91 00 ff ff ff 	lea    -0x100(%rcx),%r10d
    35e9:	44 89 f3             	mov    %r14d,%ebx
    35ec:	44 29 d3             	sub    %r10d,%ebx
    35ef:	85 db                	test   %ebx,%ebx
    35f1:	7e 6b                	jle    365e <riscv_dsp_cfft_rd4_q31+0x38e>
    35f3:	48 63 db             	movslq %ebx,%rbx
    35f6:	4d 63 d2             	movslq %r10d,%r10
    35f9:	41 8b 4c 9d 00       	mov    0x0(%r13,%rbx,4),%ecx
    35fe:	43 8b 5c 95 00       	mov    0x0(%r13,%r10,4),%ebx
    3603:	f7 d9                	neg    %ecx
    3605:	e9 08 fe ff ff       	jmp    3412 <riscv_dsp_cfft_rd4_q31+0x142>
    360a:	8d 88 00 ff ff ff    	lea    -0x100(%rax),%ecx
    3610:	45 89 f0             	mov    %r14d,%r8d
    3613:	41 29 c8             	sub    %ecx,%r8d
    3616:	45 85 c0             	test   %r8d,%r8d
    3619:	7e 79                	jle    3694 <riscv_dsp_cfft_rd4_q31+0x3c4>
    361b:	4d 63 c0             	movslq %r8d,%r8
    361e:	48 63 c9             	movslq %ecx,%rcx
    3621:	43 8b 44 85 00       	mov    0x0(%r13,%r8,4),%eax
    3626:	45 8b 44 8d 00       	mov    0x0(%r13,%rcx,4),%r8d
    362b:	f7 d8                	neg    %eax
    362d:	e9 c5 fe ff ff       	jmp    34f7 <riscv_dsp_cfft_rd4_q31+0x227>
    3632:	8d 88 00 ff ff ff    	lea    -0x100(%rax),%ecx
    3638:	45 89 f2             	mov    %r14d,%r10d
    363b:	41 29 ca             	sub    %ecx,%r10d
    363e:	45 85 d2             	test   %r10d,%r10d
    3641:	0f 8e 84 00 00 00    	jle    36cb <riscv_dsp_cfft_rd4_q31+0x3fb>
    3647:	4d 63 d2             	movslq %r10d,%r10
    364a:	48 63 c9             	movslq %ecx,%rcx
    364d:	43 8b 44 95 00       	mov    0x0(%r13,%r10,4),%eax
    3652:	45 8b 54 8d 00       	mov    0x0(%r13,%rcx,4),%r10d
    3657:	f7 d8                	neg    %eax
    3659:	e9 38 fe ff ff       	jmp    3496 <riscv_dsp_cfft_rd4_q31+0x1c6>
    365e:	8d 99 00 fe ff ff    	lea    -0x200(%rcx),%ebx
    3664:	45 89 f2             	mov    %r14d,%r10d
    3667:	41 29 da             	sub    %ebx,%r10d
    366a:	48 63 db             	movslq %ebx,%rbx
    366d:	41 8b 5c 9d 00       	mov    0x0(%r13,%rbx,4),%ebx
    3672:	49 63 ca             	movslq %r10d,%rcx
    3675:	41 8b 4c 8d 00       	mov    0x0(%r13,%rcx,4),%ecx
    367a:	f7 db                	neg    %ebx
    367c:	45 85 d2             	test   %r10d,%r10d
    367f:	0f 8e 8d fd ff ff    	jle    3412 <riscv_dsp_cfft_rd4_q31+0x142>
    3685:	f7 d9                	neg    %ecx
    3687:	41 89 ca             	mov    %ecx,%r10d
    368a:	89 d9                	mov    %ebx,%ecx
    368c:	44 89 d3             	mov    %r10d,%ebx
    368f:	e9 7e fd ff ff       	jmp    3412 <riscv_dsp_cfft_rd4_q31+0x142>
    3694:	8d 88 00 fe ff ff    	lea    -0x200(%rax),%ecx
    369a:	45 89 f1             	mov    %r14d,%r9d
    369d:	41 29 c9             	sub    %ecx,%r9d
    36a0:	48 63 c9             	movslq %ecx,%rcx
    36a3:	45 8b 44 8d 00       	mov    0x0(%r13,%rcx,4),%r8d
    36a8:	49 63 c1             	movslq %r9d,%rax
    36ab:	41 8b 44 85 00       	mov    0x0(%r13,%rax,4),%eax
    36b0:	41 f7 d8             	neg    %r8d
    36b3:	45 85 c9             	test   %r9d,%r9d
    36b6:	0f 8e 3b fe ff ff    	jle    34f7 <riscv_dsp_cfft_rd4_q31+0x227>
    36bc:	f7 d8                	neg    %eax
    36be:	89 c1                	mov    %eax,%ecx
    36c0:	44 89 c0             	mov    %r8d,%eax
    36c3:	41 89 c8             	mov    %ecx,%r8d
    36c6:	e9 2c fe ff ff       	jmp    34f7 <riscv_dsp_cfft_rd4_q31+0x227>
    36cb:	44 8d 90 00 fe ff ff 	lea    -0x200(%rax),%r10d
    36d2:	44 89 f1             	mov    %r14d,%ecx
    36d5:	44 29 d1             	sub    %r10d,%ecx
    36d8:	4d 63 d2             	movslq %r10d,%r10
    36db:	47 8b 54 95 00       	mov    0x0(%r13,%r10,4),%r10d
    36e0:	48 63 c1             	movslq %ecx,%rax
    36e3:	41 8b 44 85 00       	mov    0x0(%r13,%rax,4),%eax
    36e8:	41 f7 da             	neg    %r10d
    36eb:	85 c9                	test   %ecx,%ecx
    36ed:	0f 8e a3 fd ff ff    	jle    3496 <riscv_dsp_cfft_rd4_q31+0x1c6>
    36f3:	f7 d8                	neg    %eax
    36f5:	89 c1                	mov    %eax,%ecx
    36f7:	44 89 d0             	mov    %r10d,%eax
    36fa:	41 89 ca             	mov    %ecx,%r10d
    36fd:	e9 94 fd ff ff       	jmp    3496 <riscv_dsp_cfft_rd4_q31+0x1c6>
    3702:	8b 5c 24 ec          	mov    -0x14(%rsp),%ebx
    3706:	8b 7c 24 f4          	mov    -0xc(%rsp),%edi
    370a:	c7 44 24 bc 04 00 00 	movl   $0x4,-0x44(%rsp)
    3711:	00 
    3712:	89 d8                	mov    %ebx,%eax
    3714:	89 7c 24 d4          	mov    %edi,-0x2c(%rsp)
    3718:	d1 e8                	shr    %eax
    371a:	83 e8 02             	sub    $0x2,%eax
    371d:	89 44 24 e8          	mov    %eax,-0x18(%rsp)
    3721:	0f 84 96 03 00 00    	je     3abd <riscv_dsp_cfft_rd4_q31+0x7ed>
    3727:	b8 0a 00 00 00       	mov    $0xa,%eax
    372c:	29 d8                	sub    %ebx,%eax
    372e:	89 44 24 d0          	mov    %eax,-0x30(%rsp)
    3732:	66 0f 1f 44 00 00    	nopw   0x0(%rax,%rax,1)
    3738:	48 8b 44 24 d8       	mov    -0x28(%rsp),%rax
    373d:	8b 74 24 bc          	mov    -0x44(%rsp),%esi
    3741:	c1 6c 24 d4 02       	shrl   $0x2,-0x2c(%rsp)
    3746:	44 8b 7c 24 d4       	mov    -0x2c(%rsp),%r15d
    374b:	4e 8d 34 bd 00 00 00 	lea    0x0(,%r15,4),%r14
    3752:	00 
    3753:	4c 01 f0             	add    %r14,%rax
    3756:	48 89 44 24 c0       	mov    %rax,-0x40(%rsp)
    375b:	85 f6                	test   %esi,%esi
    375d:	0f 84 cd 00 00 00    	je     3830 <riscv_dsp_cfft_rd4_q31+0x560>
    3763:	4d 89 fd             	mov    %r15,%r13
    3766:	48 8b 54 24 d8       	mov    -0x28(%rsp),%rdx
    376b:	44 8b 64 24 bc       	mov    -0x44(%rsp),%r12d
    3770:	4a 8d 34 30          	lea    (%rax,%r14,1),%rsi
    3774:	49 c1 e5 04          	shl    $0x4,%r13
    3778:	0f 1f 84 00 00 00 00 	nopl   0x0(%rax,%rax,1)
    377f:	00 
    3780:	8b 02                	mov    (%rdx),%eax
    3782:	42 8b 0c 32          	mov    (%rdx,%r14,1),%ecx
    3786:	42 8b 1c 36          	mov    (%rsi,%r14,1),%ebx
    378a:	44 8b 06             	mov    (%rsi),%r8d
    378d:	44 8b 4a 04          	mov    0x4(%rdx),%r9d
    3791:	41 01 c0             	add    %eax,%r8d
    3794:	01 cb                	add    %ecx,%ebx
    3796:	2b 06                	sub    (%rsi),%eax
    3798:	42 2b 0c 36          	sub    (%rsi,%r14,1),%ecx
    379c:	41 d1 f8             	sar    %r8d
    379f:	d1 fb                	sar    %ebx
    37a1:	41 8d 3c 18          	lea    (%r8,%rbx,1),%edi
    37a5:	d1 f8                	sar    %eax
    37a7:	41 29 d8             	sub    %ebx,%r8d
    37aa:	d1 f9                	sar    %ecx
    37ac:	d1 ff                	sar    %edi
    37ae:	41 d1 f8             	sar    %r8d
    37b1:	89 3a                	mov    %edi,(%rdx)
    37b3:	46 8b 54 32 04       	mov    0x4(%rdx,%r14,1),%r10d
    37b8:	46 8b 5c 36 04       	mov    0x4(%rsi,%r14,1),%r11d
    37bd:	8b 7e 04             	mov    0x4(%rsi),%edi
    37c0:	45 01 d3             	add    %r10d,%r11d
    37c3:	44 01 cf             	add    %r9d,%edi
    37c6:	46 2b 54 36 04       	sub    0x4(%rsi,%r14,1),%r10d
    37cb:	44 2b 4e 04          	sub    0x4(%rsi),%r9d
    37cf:	d1 ff                	sar    %edi
    37d1:	41 d1 fb             	sar    %r11d
    37d4:	42 8d 2c 1f          	lea    (%rdi,%r11,1),%ebp
    37d8:	41 d1 fa             	sar    %r10d
    37db:	44 29 df             	sub    %r11d,%edi
    37de:	41 d1 f9             	sar    %r9d
    37e1:	d1 ff                	sar    %edi
    37e3:	d1 fd                	sar    %ebp
    37e5:	89 6a 04             	mov    %ebp,0x4(%rdx)
    37e8:	42 89 7c 32 04       	mov    %edi,0x4(%rdx,%r14,1)
    37ed:	42 8d 3c 10          	lea    (%rax,%r10,1),%edi
    37f1:	44 29 d0             	sub    %r10d,%eax
    37f4:	d1 ff                	sar    %edi
    37f6:	46 89 04 32          	mov    %r8d,(%rdx,%r14,1)
    37fa:	66 0f 6e c0          	movd   %eax,%xmm0
    37fe:	4c 01 ea             	add    %r13,%rdx
    3801:	89 3e                	mov    %edi,(%rsi)
    3803:	44 89 cf             	mov    %r9d,%edi
    3806:	29 cf                	sub    %ecx,%edi
    3808:	44 01 c9             	add    %r9d,%ecx
    380b:	66 0f 6e d9          	movd   %ecx,%xmm3
    380f:	d1 ff                	sar    %edi
    3811:	66 0f 62 c3          	punpckldq %xmm3,%xmm0
    3815:	89 7e 04             	mov    %edi,0x4(%rsi)
    3818:	66 0f 72 e0 01       	psrad  $0x1,%xmm0
    381d:	66 42 0f d6 04 36    	movq   %xmm0,(%rsi,%r14,1)
    3823:	4c 01 ee             	add    %r13,%rsi
    3826:	41 83 ec 01          	sub    $0x1,%r12d
    382a:	0f 85 50 ff ff ff    	jne    3780 <riscv_dsp_cfft_rd4_q31+0x4b0>
    3830:	48 8b 5c 24 c0       	mov    -0x40(%rsp),%rbx
    3835:	48 39 5c 24 e0       	cmp    %rbx,-0x20(%rsp)
    383a:	0f 84 6d 02 00 00    	je     3aad <riscv_dsp_cfft_rd4_q31+0x7dd>
    3840:	4a 8d 04 fd 00 00 00 	lea    0x0(,%r15,8),%rax
    3847:	00 
    3848:	c7 44 24 b8 00 00 00 	movl   $0x0,-0x48(%rsp)
    384f:	00 
    3850:	4c 89 fb             	mov    %r15,%rbx
    3853:	48 89 44 24 c8       	mov    %rax,-0x38(%rsp)
    3858:	48 8b 44 24 e0       	mov    -0x20(%rsp),%rax
    385d:	48 c1 e3 04          	shl    $0x4,%rbx
    3861:	48 89 44 24 b0       	mov    %rax,-0x50(%rsp)
    3866:	66 2e 0f 1f 84 00 00 	cs nopw 0x0(%rax,%rax,1)
    386d:	00 00 00 
    3870:	8b 7c 24 bc          	mov    -0x44(%rsp),%edi
    3874:	0f b6 4c 24 d0       	movzbl -0x30(%rsp),%ecx
    3879:	ba 00 01 00 00       	mov    $0x100,%edx
    387e:	01 7c 24 b8          	add    %edi,-0x48(%rsp)
    3882:	8b 44 24 b8          	mov    -0x48(%rsp),%eax
    3886:	d3 e0                	shl    %cl,%eax
    3888:	29 c2                	sub    %eax,%edx
    388a:	85 d2                	test   %edx,%edx
    388c:	0f 8e 76 0b 00 00    	jle    4408 <riscv_dsp_cfft_rd4_q31+0x1138>
    3892:	48 8d 3d 0f 31 00 00 	lea    0x310f(%rip),%rdi        # 69a8 <riscv_dsp_cos_table_q31_1024+0x8>
    3899:	48 98                	cltq   
    389b:	48 63 d2             	movslq %edx,%rdx
    389e:	8b 04 87             	mov    (%rdi,%rax,4),%eax
    38a1:	44 8b 2c 97          	mov    (%rdi,%rdx,4),%r13d
    38a5:	8b 7c 24 b8          	mov    -0x48(%rsp),%edi
    38a9:	0f b6 4c 24 d0       	movzbl -0x30(%rsp),%ecx
    38ae:	8d 14 3f             	lea    (%rdi,%rdi,1),%edx
    38b1:	d3 e2                	shl    %cl,%edx
    38b3:	b9 00 01 00 00       	mov    $0x100,%ecx
    38b8:	29 d1                	sub    %edx,%ecx
    38ba:	85 c9                	test   %ecx,%ecx
    38bc:	0f 8e d6 0a 00 00    	jle    4398 <riscv_dsp_cfft_rd4_q31+0x10c8>
    38c2:	48 63 d2             	movslq %edx,%rdx
    38c5:	48 8d 3d dc 30 00 00 	lea    0x30dc(%rip),%rdi        # 69a8 <riscv_dsp_cos_table_q31_1024+0x8>
    38cc:	48 63 c9             	movslq %ecx,%rcx
    38cf:	8b 34 97             	mov    (%rdi,%rdx,4),%esi
    38d2:	8b 14 8f             	mov    (%rdi,%rcx,4),%edx
    38d5:	8b 7c 24 b8          	mov    -0x48(%rsp),%edi
    38d9:	0f b6 4c 24 d0       	movzbl -0x30(%rsp),%ecx
    38de:	8d 3c 7f             	lea    (%rdi,%rdi,2),%edi
    38e1:	d3 e7                	shl    %cl,%edi
    38e3:	48 63 cf             	movslq %edi,%rcx
    38e6:	bf 00 01 00 00       	mov    $0x100,%edi
    38eb:	29 cf                	sub    %ecx,%edi
    38ed:	85 ff                	test   %edi,%edi
    38ef:	0f 8e db 0a 00 00    	jle    43d0 <riscv_dsp_cfft_rd4_q31+0x1100>
    38f5:	4c 8d 15 ac 30 00 00 	lea    0x30ac(%rip),%r10        # 69a8 <riscv_dsp_cos_table_q31_1024+0x8>
    38fc:	48 63 ff             	movslq %edi,%rdi
    38ff:	41 8b 2c 8a          	mov    (%r10,%rcx,4),%ebp
    3903:	45 8b 24 ba          	mov    (%r10,%rdi,4),%r12d
    3907:	8b 4c 24 bc          	mov    -0x44(%rsp),%ecx
    390b:	85 c9                	test   %ecx,%ecx
    390d:	0f 84 84 01 00 00    	je     3a97 <riscv_dsp_cfft_rd4_q31+0x7c7>
    3913:	48 98                	cltq   
    3915:	48 63 fe             	movslq %esi,%rdi
    3918:	4c 8b 44 24 c8       	mov    -0x38(%rsp),%r8
    391d:	4d 63 ed             	movslq %r13d,%r13
    3920:	48 89 44 24 a8       	mov    %rax,-0x58(%rsp)
    3925:	8b 44 24 bc          	mov    -0x44(%rsp),%eax
    3929:	48 63 ed             	movslq %ebp,%rbp
    392c:	4d 63 e4             	movslq %r12d,%r12
    392f:	48 89 7c 24 90       	mov    %rdi,-0x70(%rsp)
    3934:	48 63 fa             	movslq %edx,%rdi
    3937:	48 89 7c 24 98       	mov    %rdi,-0x68(%rsp)
    393c:	48 8b 7c 24 b0       	mov    -0x50(%rsp),%rdi
    3941:	89 44 24 a0          	mov    %eax,-0x60(%rsp)
    3945:	49 01 f8             	add    %rdi,%r8
    3948:	0f 1f 84 00 00 00 00 	nopl   0x0(%rax,%rax,1)
    394f:	00 
    3950:	42 8b 04 37          	mov    (%rdi,%r14,1),%eax
    3954:	8b 0f                	mov    (%rdi),%ecx
    3956:	41 8b 30             	mov    (%r8),%esi
    3959:	43 8b 14 30          	mov    (%r8,%r14,1),%edx
    395d:	01 ce                	add    %ecx,%esi
    395f:	01 c2                	add    %eax,%edx
    3961:	41 2b 08             	sub    (%r8),%ecx
    3964:	43 2b 04 30          	sub    (%r8,%r14,1),%eax
    3968:	d1 fa                	sar    %edx
    396a:	d1 fe                	sar    %esi
    396c:	44 8d 0c 16          	lea    (%rsi,%rdx,1),%r9d
    3970:	d1 f8                	sar    %eax
    3972:	29 d6                	sub    %edx,%esi
    3974:	d1 f9                	sar    %ecx
    3976:	41 d1 f9             	sar    %r9d
    3979:	48 63 f6             	movslq %esi,%rsi
    397c:	44 89 0f             	mov    %r9d,(%rdi)
    397f:	44 8b 4f 04          	mov    0x4(%rdi),%r9d
    3983:	46 8b 54 37 04       	mov    0x4(%rdi,%r14,1),%r10d
    3988:	41 8b 50 04          	mov    0x4(%r8),%edx
    398c:	47 8b 5c 30 04       	mov    0x4(%r8,%r14,1),%r11d
    3991:	44 01 ca             	add    %r9d,%edx
    3994:	45 2b 48 04          	sub    0x4(%r8),%r9d
    3998:	d1 fa                	sar    %edx
    399a:	45 01 d3             	add    %r10d,%r11d
    399d:	47 2b 54 30 04       	sub    0x4(%r8,%r14,1),%r10d
    39a2:	41 d1 f9             	sar    %r9d
    39a5:	41 d1 fb             	sar    %r11d
    39a8:	41 d1 fa             	sar    %r10d
    39ab:	46 8d 3c 1a          	lea    (%rdx,%r11,1),%r15d
    39af:	44 29 da             	sub    %r11d,%edx
    39b2:	4c 8b 5c 24 90       	mov    -0x70(%rsp),%r11
    39b7:	41 d1 ff             	sar    %r15d
    39ba:	48 63 d2             	movslq %edx,%rdx
    39bd:	44 89 7f 04          	mov    %r15d,0x4(%rdi)
    39c1:	4c 8b 7c 24 98       	mov    -0x68(%rsp),%r15
    39c6:	4c 0f af de          	imul   %rsi,%r11
    39ca:	48 0f af 74 24 98    	imul   -0x68(%rsp),%rsi
    39d0:	4c 0f af fa          	imul   %rdx,%r15
    39d4:	48 0f af 54 24 90    	imul   -0x70(%rsp),%rdx
    39da:	4d 01 fb             	add    %r15,%r11
    39dd:	4c 8b 7c 24 a8       	mov    -0x58(%rsp),%r15
    39e2:	48 29 f2             	sub    %rsi,%rdx
    39e5:	44 89 ce             	mov    %r9d,%esi
    39e8:	49 c1 fb 20          	sar    $0x20,%r11
    39ec:	48 c1 fa 20          	sar    $0x20,%rdx
    39f0:	29 c6                	sub    %eax,%esi
    39f2:	66 41 0f 6e c3       	movd   %r11d,%xmm0
    39f7:	44 01 c8             	add    %r9d,%eax
    39fa:	66 0f 6e ea          	movd   %edx,%xmm5
    39fe:	48 63 f6             	movslq %esi,%rsi
    3a01:	42 8d 14 11          	lea    (%rcx,%r10,1),%edx
    3a05:	4d 89 f9             	mov    %r15,%r9
    3a08:	44 29 d1             	sub    %r10d,%ecx
    3a0b:	48 63 d2             	movslq %edx,%rdx
    3a0e:	49 89 f2             	mov    %rsi,%r10
    3a11:	48 98                	cltq   
    3a13:	4c 0f af ca          	imul   %rdx,%r9
    3a17:	48 63 c9             	movslq %ecx,%rcx
    3a1a:	66 0f 62 c5          	punpckldq %xmm5,%xmm0
    3a1e:	4d 0f af d5          	imul   %r13,%r10
    3a22:	66 42 0f d6 04 37    	movq   %xmm0,(%rdi,%r14,1)
    3a28:	48 01 df             	add    %rbx,%rdi
    3a2b:	49 0f af d5          	imul   %r13,%rdx
    3a2f:	49 0f af f7          	imul   %r15,%rsi
    3a33:	4d 01 d1             	add    %r10,%r9
    3a36:	49 c1 f9 20          	sar    $0x20,%r9
    3a3a:	48 29 d6             	sub    %rdx,%rsi
    3a3d:	48 89 ca             	mov    %rcx,%rdx
    3a40:	66 41 0f 6e c1       	movd   %r9d,%xmm0
    3a45:	48 c1 fe 20          	sar    $0x20,%rsi
    3a49:	48 0f af d5          	imul   %rbp,%rdx
    3a4d:	66 0f 6e fe          	movd   %esi,%xmm7
    3a51:	49 0f af cc          	imul   %r12,%rcx
    3a55:	48 89 c6             	mov    %rax,%rsi
    3a58:	49 0f af f4          	imul   %r12,%rsi
    3a5c:	66 0f 62 c7          	punpckldq %xmm7,%xmm0
    3a60:	48 0f af c5          	imul   %rbp,%rax
    3a64:	66 41 0f d6 00       	movq   %xmm0,(%r8)
    3a69:	48 01 f2             	add    %rsi,%rdx
    3a6c:	48 29 c8             	sub    %rcx,%rax
    3a6f:	48 c1 fa 20          	sar    $0x20,%rdx
    3a73:	48 c1 f8 20          	sar    $0x20,%rax
    3a77:	66 0f 6e c2          	movd   %edx,%xmm0
    3a7b:	66 0f 6e d0          	movd   %eax,%xmm2
    3a7f:	66 0f 62 c2          	punpckldq %xmm2,%xmm0
    3a83:	66 43 0f d6 04 30    	movq   %xmm0,(%r8,%r14,1)
    3a89:	49 01 d8             	add    %rbx,%r8
    3a8c:	83 6c 24 a0 01       	subl   $0x1,-0x60(%rsp)
    3a91:	0f 85 b9 fe ff ff    	jne    3950 <riscv_dsp_cfft_rd4_q31+0x680>
    3a97:	48 83 44 24 b0 08    	addq   $0x8,-0x50(%rsp)
    3a9d:	48 8b 44 24 b0       	mov    -0x50(%rsp),%rax
    3aa2:	48 39 44 24 c0       	cmp    %rax,-0x40(%rsp)
    3aa7:	0f 85 c3 fd ff ff    	jne    3870 <riscv_dsp_cfft_rd4_q31+0x5a0>
    3aad:	c1 64 24 bc 02       	shll   $0x2,-0x44(%rsp)
    3ab2:	83 6c 24 e8 01       	subl   $0x1,-0x18(%rsp)
    3ab7:	0f 85 7b fc ff ff    	jne    3738 <riscv_dsp_cfft_rd4_q31+0x468>
    3abd:	8b 44 24 f0          	mov    -0x10(%rsp),%eax
    3ac1:	01 c0                	add    %eax,%eax
    3ac3:	48 c1 e0 02          	shl    $0x2,%rax
    3ac7:	48 89 c2             	mov    %rax,%rdx
    3aca:	0f 84 6e 06 00 00    	je     413e <riscv_dsp_cfft_rd4_q31+0xe6e>
    3ad0:	48 83 ea 20          	sub    $0x20,%rdx
    3ad4:	48 8b 5c 24 d8       	mov    -0x28(%rsp),%rbx
    3ad9:	48 89 d6             	mov    %rdx,%rsi
    3adc:	48 c1 ee 05          	shr    $0x5,%rsi
    3ae0:	48 89 d8             	mov    %rbx,%rax
    3ae3:	48 8d 4e 01          	lea    0x1(%rsi),%rcx
    3ae7:	48 83 fa 40          	cmp    $0x40,%rdx
    3aeb:	0f 86 17 0a 00 00    	jbe    4508 <riscv_dsp_cfft_rd4_q31+0x1238>
    3af1:	48 89 ca             	mov    %rcx,%rdx
    3af4:	48 c1 ea 02          	shr    $0x2,%rdx
    3af8:	48 c1 e2 07          	shl    $0x7,%rdx
    3afc:	48 01 da             	add    %rbx,%rdx
    3aff:	f3 0f 6f 08          	movdqu (%rax),%xmm1
    3b03:	f3 0f 6f 70 10       	movdqu 0x10(%rax),%xmm6
    3b08:	48 83 e8 80          	sub    $0xffffffffffffff80,%rax
    3b0c:	f3 0f 6f 60 a0       	movdqu -0x60(%rax),%xmm4
    3b11:	f3 0f 6f 50 c0       	movdqu -0x40(%rax),%xmm2
    3b16:	66 0f 6f c1          	movdqa %xmm1,%xmm0
    3b1a:	0f c6 ce dd          	shufps $0xdd,%xmm6,%xmm1
    3b1e:	f3 0f 6f 68 d0       	movdqu -0x30(%rax),%xmm5
    3b23:	f3 0f 6f 58 e0       	movdqu -0x20(%rax),%xmm3
    3b28:	0f c6 c6 88          	shufps $0x88,%xmm6,%xmm0
    3b2c:	f3 0f 6f 70 b0       	movdqu -0x50(%rax),%xmm6
    3b31:	66 44 0f 6f c4       	movdqa %xmm4,%xmm8
    3b36:	66 0f 6f fb          	movdqa %xmm3,%xmm7
    3b3a:	44 0f c6 c6 88       	shufps $0x88,%xmm6,%xmm8
    3b3f:	0f c6 e6 dd          	shufps $0xdd,%xmm6,%xmm4
    3b43:	66 0f 6f f2          	movdqa %xmm2,%xmm6
    3b47:	0f c6 d5 dd          	shufps $0xdd,%xmm5,%xmm2
    3b4b:	0f c6 f5 88          	shufps $0x88,%xmm5,%xmm6
    3b4f:	f3 0f 6f 68 f0       	movdqu -0x10(%rax),%xmm5
    3b54:	66 44 0f 6f ce       	movdqa %xmm6,%xmm9
    3b59:	0f c6 fd 88          	shufps $0x88,%xmm5,%xmm7
    3b5d:	0f c6 dd dd          	shufps $0xdd,%xmm5,%xmm3
    3b61:	66 0f 6f e8          	movdqa %xmm0,%xmm5
    3b65:	0f c6 f7 dd          	shufps $0xdd,%xmm7,%xmm6
    3b69:	44 0f c6 cf 88       	shufps $0x88,%xmm7,%xmm9
    3b6e:	41 0f c6 e8 88       	shufps $0x88,%xmm8,%xmm5
    3b73:	41 0f c6 c0 dd       	shufps $0xdd,%xmm8,%xmm0
    3b78:	66 0f 6f fa          	movdqa %xmm2,%xmm7
    3b7c:	66 44 0f 6f c1       	movdqa %xmm1,%xmm8
    3b81:	0f c6 fb 88          	shufps $0x88,%xmm3,%xmm7
    3b85:	0f c6 d3 dd          	shufps $0xdd,%xmm3,%xmm2
    3b89:	0f c6 cc dd          	shufps $0xdd,%xmm4,%xmm1
    3b8d:	44 0f c6 c4 88       	shufps $0x88,%xmm4,%xmm8
    3b92:	66 0f 6f d8          	movdqa %xmm0,%xmm3
    3b96:	66 0f 6f e5          	movdqa %xmm5,%xmm4
    3b9a:	0f c6 c6 dd          	shufps $0xdd,%xmm6,%xmm0
    3b9e:	41 0f c6 e9 dd       	shufps $0xdd,%xmm9,%xmm5
    3ba3:	41 0f c6 e1 88       	shufps $0x88,%xmm9,%xmm4
    3ba8:	0f c6 de 88          	shufps $0x88,%xmm6,%xmm3
    3bac:	66 45 0f 6f d8       	movdqa %xmm8,%xmm11
    3bb1:	66 44 0f 6f d1       	movdqa %xmm1,%xmm10
    3bb6:	66 44 0f 6f c8       	movdqa %xmm0,%xmm9
    3bbb:	0f c6 ca dd          	shufps $0xdd,%xmm2,%xmm1
    3bbf:	66 0f 6f f1          	movdqa %xmm1,%xmm6
    3bc3:	44 0f c6 df 88       	shufps $0x88,%xmm7,%xmm11
    3bc8:	44 0f c6 c7 dd       	shufps $0xdd,%xmm7,%xmm8
    3bcd:	44 0f c6 d2 88       	shufps $0x88,%xmm2,%xmm10
    3bd2:	66 0f 6f fd          	movdqa %xmm5,%xmm7
    3bd6:	66 44 0f fe cb       	paddd  %xmm3,%xmm9
    3bdb:	66 41 0f fe f2       	paddd  %xmm10,%xmm6
    3be0:	66 41 0f 6f d3       	movdqa %xmm11,%xmm2
    3be5:	66 0f fa d8          	psubd  %xmm0,%xmm3
    3be9:	66 44 0f fa d1       	psubd  %xmm1,%xmm10
    3bee:	66 41 0f 6f c0       	movdqa %xmm8,%xmm0
    3bf3:	66 41 0f 72 e1 01    	psrad  $0x1,%xmm9
    3bf9:	66 0f 72 e6 01       	psrad  $0x1,%xmm6
    3bfe:	66 0f fe fc          	paddd  %xmm4,%xmm7
    3c02:	66 41 0f fe c3       	paddd  %xmm11,%xmm0
    3c07:	66 41 0f 6f ca       	movdqa %xmm10,%xmm1
    3c0c:	66 0f fa e5          	psubd  %xmm5,%xmm4
    3c10:	66 0f 72 e1 01       	psrad  $0x1,%xmm1
    3c15:	66 0f 72 e7 01       	psrad  $0x1,%xmm7
    3c1a:	66 0f 6f eb          	movdqa %xmm3,%xmm5
    3c1e:	66 0f 72 e0 01       	psrad  $0x1,%xmm0
    3c23:	66 41 0f 6f d9       	movdqa %xmm9,%xmm3
    3c28:	66 41 0f fa d0       	psubd  %xmm8,%xmm2
    3c2d:	66 44 0f 6f c6       	movdqa %xmm6,%xmm8
    3c32:	66 0f 72 e2 01       	psrad  $0x1,%xmm2
    3c37:	66 0f fe df          	paddd  %xmm7,%xmm3
    3c3b:	66 0f 72 e4 01       	psrad  $0x1,%xmm4
    3c40:	66 44 0f fe c0       	paddd  %xmm0,%xmm8
    3c45:	66 0f fa c6          	psubd  %xmm6,%xmm0
    3c49:	66 0f 6f f1          	movdqa %xmm1,%xmm6
    3c4d:	66 0f 72 e5 01       	psrad  $0x1,%xmm5
    3c52:	66 41 0f fa f9       	psubd  %xmm9,%xmm7
    3c57:	66 0f 72 e3 01       	psrad  $0x1,%xmm3
    3c5c:	66 0f fe f4          	paddd  %xmm4,%xmm6
    3c60:	66 44 0f 6f ca       	movdqa %xmm2,%xmm9
    3c65:	66 0f fa e1          	psubd  %xmm1,%xmm4
    3c69:	66 0f 6f ca          	movdqa %xmm2,%xmm1
    3c6d:	66 44 0f fa cd       	psubd  %xmm5,%xmm9
    3c72:	66 0f 72 e7 01       	psrad  $0x1,%xmm7
    3c77:	66 0f 72 e6 01       	psrad  $0x1,%xmm6
    3c7c:	66 0f fe cd          	paddd  %xmm5,%xmm1
    3c80:	66 41 0f 72 e0 01    	psrad  $0x1,%xmm8
    3c86:	66 0f 6f eb          	movdqa %xmm3,%xmm5
    3c8a:	66 44 0f 6f df       	movdqa %xmm7,%xmm11
    3c8f:	66 41 0f 72 e1 01    	psrad  $0x1,%xmm9
    3c95:	66 0f 72 e4 01       	psrad  $0x1,%xmm4
    3c9a:	66 0f 6a de          	punpckhdq %xmm6,%xmm3
    3c9e:	66 0f 72 e0 01       	psrad  $0x1,%xmm0
    3ca3:	66 0f 62 ee          	punpckldq %xmm6,%xmm5
    3ca7:	66 45 0f 6f d0       	movdqa %xmm8,%xmm10
    3cac:	66 0f 6f d7          	movdqa %xmm7,%xmm2
    3cb0:	66 0f 72 e1 01       	psrad  $0x1,%xmm1
    3cb5:	66 45 0f 62 d1       	punpckldq %xmm9,%xmm10
    3cba:	66 0f 6a d4          	punpckhdq %xmm4,%xmm2
    3cbe:	66 45 0f 6a c1       	punpckhdq %xmm9,%xmm8
    3cc3:	66 44 0f 62 dc       	punpckldq %xmm4,%xmm11
    3cc8:	66 44 0f 6f c8       	movdqa %xmm0,%xmm9
    3ccd:	66 0f 6f f5          	movdqa %xmm5,%xmm6
    3cd1:	66 0f 6f e3          	movdqa %xmm3,%xmm4
    3cd5:	66 0f 6a c1          	punpckhdq %xmm1,%xmm0
    3cd9:	66 44 0f 62 c9       	punpckldq %xmm1,%xmm9
    3cde:	66 0f 62 e2          	punpckldq %xmm2,%xmm4
    3ce2:	66 0f 6a da          	punpckhdq %xmm2,%xmm3
    3ce6:	66 41 0f 62 f3       	punpckldq %xmm11,%xmm6
    3ceb:	66 41 0f 6f d0       	movdqa %xmm8,%xmm2
    3cf0:	66 41 0f 6f fa       	movdqa %xmm10,%xmm7
    3cf5:	66 0f 62 d0          	punpckldq %xmm0,%xmm2
    3cf9:	66 44 0f 6a c0       	punpckhdq %xmm0,%xmm8
    3cfe:	66 41 0f 62 f9       	punpckldq %xmm9,%xmm7
    3d03:	66 0f 6f c6          	movdqa %xmm6,%xmm0
    3d07:	66 41 0f 6a eb       	punpckhdq %xmm11,%xmm5
    3d0c:	66 0f 62 c7          	punpckldq %xmm7,%xmm0
    3d10:	66 41 0f 6f ca       	movdqa %xmm10,%xmm1
    3d15:	66 0f 6a f7          	punpckhdq %xmm7,%xmm6
    3d19:	66 41 0f 6a c9       	punpckhdq %xmm9,%xmm1
    3d1e:	0f 11 40 80          	movups %xmm0,-0x80(%rax)
    3d22:	66 0f 6f c5          	movdqa %xmm5,%xmm0
    3d26:	66 0f 62 c1          	punpckldq %xmm1,%xmm0
    3d2a:	66 0f 6a e9          	punpckhdq %xmm1,%xmm5
    3d2e:	0f 11 70 90          	movups %xmm6,-0x70(%rax)
    3d32:	0f 11 40 a0          	movups %xmm0,-0x60(%rax)
    3d36:	66 0f 6f c4          	movdqa %xmm4,%xmm0
    3d3a:	66 0f 6a e2          	punpckhdq %xmm2,%xmm4
    3d3e:	66 0f 62 c2          	punpckldq %xmm2,%xmm0
    3d42:	0f 11 68 b0          	movups %xmm5,-0x50(%rax)
    3d46:	0f 11 40 c0          	movups %xmm0,-0x40(%rax)
    3d4a:	66 0f 6f c3          	movdqa %xmm3,%xmm0
    3d4e:	66 41 0f 6a d8       	punpckhdq %xmm8,%xmm3
    3d53:	66 41 0f 62 c0       	punpckldq %xmm8,%xmm0
    3d58:	0f 11 60 d0          	movups %xmm4,-0x30(%rax)
    3d5c:	0f 11 40 e0          	movups %xmm0,-0x20(%rax)
    3d60:	0f 11 58 f0          	movups %xmm3,-0x10(%rax)
    3d64:	48 39 d0             	cmp    %rdx,%rax
    3d67:	0f 85 92 fd ff ff    	jne    3aff <riscv_dsp_cfft_rd4_q31+0x82f>
    3d6d:	48 89 c8             	mov    %rcx,%rax
    3d70:	48 83 e0 fc          	and    $0xfffffffffffffffc,%rax
    3d74:	48 89 c2             	mov    %rax,%rdx
    3d77:	48 c1 e2 05          	shl    $0x5,%rdx
    3d7b:	48 03 54 24 d8       	add    -0x28(%rsp),%rdx
    3d80:	48 39 c8             	cmp    %rcx,%rax
    3d83:	0f 84 b5 03 00 00    	je     413e <riscv_dsp_cfft_rd4_q31+0xe6e>
    3d89:	48 29 c1             	sub    %rax,%rcx
    3d8c:	48 39 f0             	cmp    %rsi,%rax
    3d8f:	0f 84 fb 02 00 00    	je     4090 <riscv_dsp_cfft_rd4_q31+0xdc0>
    3d95:	48 c1 e0 05          	shl    $0x5,%rax
    3d99:	48 03 44 24 d8       	add    -0x28(%rsp),%rax
    3d9e:	f3 0f 7e 10          	movq   (%rax),%xmm2
    3da2:	f3 0f 7e 48 20       	movq   0x20(%rax),%xmm1
    3da7:	f3 0f 7e 78 08       	movq   0x8(%rax),%xmm7
    3dac:	f3 0f 7e 70 28       	movq   0x28(%rax),%xmm6
    3db1:	f3 0f 7e 68 10       	movq   0x10(%rax),%xmm5
    3db6:	f3 0f 7e 60 30       	movq   0x30(%rax),%xmm4
    3dbb:	66 0f 6f c2          	movdqa %xmm2,%xmm0
    3dbf:	66 0f 6f da          	movdqa %xmm2,%xmm3
    3dc3:	f3 44 0f 7e 48 18    	movq   0x18(%rax),%xmm9
    3dc9:	66 0f 6f d1          	movdqa %xmm1,%xmm2
    3dcd:	66 0f 62 c7          	punpckldq %xmm7,%xmm0
    3dd1:	66 0f 62 df          	punpckldq %xmm7,%xmm3
    3dd5:	f3 44 0f 7e 40 38    	movq   0x38(%rax),%xmm8
    3ddb:	66 0f 62 d6          	punpckldq %xmm6,%xmm2
    3ddf:	66 0f 6f fd          	movdqa %xmm5,%xmm7
    3de3:	66 0f 62 ce          	punpckldq %xmm6,%xmm1
    3de7:	66 0f 6f f4          	movdqa %xmm4,%xmm6
    3deb:	66 41 0f 62 f9       	punpckldq %xmm9,%xmm7
    3df0:	66 41 0f 62 e9       	punpckldq %xmm9,%xmm5
    3df5:	66 41 0f 62 f0       	punpckldq %xmm8,%xmm6
    3dfa:	66 44 0f 6f c8       	movdqa %xmm0,%xmm9
    3dff:	66 44 0f 6f d2       	movdqa %xmm2,%xmm10
    3e04:	66 44 0f 62 d6       	punpckldq %xmm6,%xmm10
    3e09:	66 44 0f 62 cf       	punpckldq %xmm7,%xmm9
    3e0e:	66 0f 70 db 0e       	pshufd $0xe,%xmm3,%xmm3
    3e13:	66 0f 70 c9 0e       	pshufd $0xe,%xmm1,%xmm1
    3e18:	66 41 0f 62 e0       	punpckldq %xmm8,%xmm4
    3e1d:	66 0f 62 c7          	punpckldq %xmm7,%xmm0
    3e21:	66 0f 62 d6          	punpckldq %xmm6,%xmm2
    3e25:	66 0f 70 ed 0e       	pshufd $0xe,%xmm5,%xmm5
    3e2a:	66 0f 70 e4 0e       	pshufd $0xe,%xmm4,%xmm4
    3e2f:	66 0f 70 d2 0e       	pshufd $0xe,%xmm2,%xmm2
    3e34:	66 0f 70 c0 0e       	pshufd $0xe,%xmm0,%xmm0
    3e39:	66 44 0f 6f c3       	movdqa %xmm3,%xmm8
    3e3e:	66 0f 6f f9          	movdqa %xmm1,%xmm7
    3e42:	66 41 0f 6f f1       	movdqa %xmm9,%xmm6
    3e47:	66 45 0f 62 ca       	punpckldq %xmm10,%xmm9
    3e4c:	66 0f 62 fc          	punpckldq %xmm4,%xmm7
    3e50:	66 45 0f 70 c9 0e    	pshufd $0xe,%xmm9,%xmm9
    3e56:	66 44 0f 62 c5       	punpckldq %xmm5,%xmm8
    3e5b:	66 0f 62 dd          	punpckldq %xmm5,%xmm3
    3e5f:	66 0f 62 cc          	punpckldq %xmm4,%xmm1
    3e63:	66 0f 6f e0          	movdqa %xmm0,%xmm4
    3e67:	66 0f 62 c2          	punpckldq %xmm2,%xmm0
    3e6b:	66 0f 70 c9 0e       	pshufd $0xe,%xmm1,%xmm1
    3e70:	66 41 0f 62 f2       	punpckldq %xmm10,%xmm6
    3e75:	66 0f 62 e2          	punpckldq %xmm2,%xmm4
    3e79:	66 0f 70 c0 0e       	pshufd $0xe,%xmm0,%xmm0
    3e7e:	66 0f 70 db 0e       	pshufd $0xe,%xmm3,%xmm3
    3e83:	66 41 0f 6f e8       	movdqa %xmm8,%xmm5
    3e88:	66 41 0f 6f d1       	movdqa %xmm9,%xmm2
    3e8d:	66 44 0f 62 c7       	punpckldq %xmm7,%xmm8
    3e92:	66 0f 62 ef          	punpckldq %xmm7,%xmm5
    3e96:	66 45 0f 70 c0 0e    	pshufd $0xe,%xmm8,%xmm8
    3e9c:	66 0f fe d6          	paddd  %xmm6,%xmm2
    3ea0:	66 0f 6f fb          	movdqa %xmm3,%xmm7
    3ea4:	66 41 0f fa f1       	psubd  %xmm9,%xmm6
    3ea9:	66 0f 62 d9          	punpckldq %xmm1,%xmm3
    3ead:	66 44 0f 6f c8       	movdqa %xmm0,%xmm9
    3eb2:	66 0f 70 db 0e       	pshufd $0xe,%xmm3,%xmm3
    3eb7:	66 0f 62 f9          	punpckldq %xmm1,%xmm7
    3ebb:	66 44 0f fe cc       	paddd  %xmm4,%xmm9
    3ec0:	66 0f fa e0          	psubd  %xmm0,%xmm4
    3ec4:	66 41 0f 6f c0       	movdqa %xmm8,%xmm0
    3ec9:	66 0f 72 e2 01       	psrad  $0x1,%xmm2
    3ece:	66 0f 72 e6 01       	psrad  $0x1,%xmm6
    3ed3:	66 0f fe c5          	paddd  %xmm5,%xmm0
    3ed7:	66 41 0f fa e8       	psubd  %xmm8,%xmm5
    3edc:	66 44 0f 6f c3       	movdqa %xmm3,%xmm8
    3ee1:	66 41 0f 72 e1 01    	psrad  $0x1,%xmm9
    3ee7:	66 0f 72 e4 01       	psrad  $0x1,%xmm4
    3eec:	66 44 0f fe c7       	paddd  %xmm7,%xmm8
    3ef1:	66 0f fa fb          	psubd  %xmm3,%xmm7
    3ef5:	66 0f 72 e0 01       	psrad  $0x1,%xmm0
    3efa:	66 41 0f 6f c9       	movdqa %xmm9,%xmm1
    3eff:	66 0f 72 e5 01       	psrad  $0x1,%xmm5
    3f04:	66 0f fe ca          	paddd  %xmm2,%xmm1
    3f08:	66 41 0f fa d1       	psubd  %xmm9,%xmm2
    3f0d:	66 41 0f 72 e0 01    	psrad  $0x1,%xmm8
    3f13:	66 0f 72 e7 01       	psrad  $0x1,%xmm7
    3f18:	66 41 0f 6f d8       	movdqa %xmm8,%xmm3
    3f1d:	66 0f fe d8          	paddd  %xmm0,%xmm3
    3f21:	66 44 0f 6f cf       	movdqa %xmm7,%xmm9
    3f26:	66 41 0f fa c0       	psubd  %xmm8,%xmm0
    3f2b:	66 44 0f 6f c5       	movdqa %xmm5,%xmm8
    3f30:	66 44 0f fe ce       	paddd  %xmm6,%xmm9
    3f35:	66 0f fe ec          	paddd  %xmm4,%xmm5
    3f39:	66 44 0f fa c4       	psubd  %xmm4,%xmm8
    3f3e:	66 0f fa f7          	psubd  %xmm7,%xmm6
    3f42:	66 0f 72 e1 01       	psrad  $0x1,%xmm1
    3f47:	66 0f 72 e3 01       	psrad  $0x1,%xmm3
    3f4c:	66 0f 72 e2 01       	psrad  $0x1,%xmm2
    3f51:	66 0f 6f e1          	movdqa %xmm1,%xmm4
    3f55:	66 41 0f 72 e1 01    	psrad  $0x1,%xmm9
    3f5b:	66 0f 72 e5 01       	psrad  $0x1,%xmm5
    3f60:	66 0f 6f fb          	movdqa %xmm3,%xmm7
    3f64:	66 41 0f 72 e0 01    	psrad  $0x1,%xmm8
    3f6a:	66 0f 72 e6 01       	psrad  $0x1,%xmm6
    3f6f:	66 41 0f 62 e1       	punpckldq %xmm9,%xmm4
    3f74:	66 0f 72 e0 01       	psrad  $0x1,%xmm0
    3f79:	66 41 0f 62 c9       	punpckldq %xmm9,%xmm1
    3f7e:	66 41 0f 62 d8       	punpckldq %xmm8,%xmm3
    3f83:	66 44 0f 6f ca       	movdqa %xmm2,%xmm9
    3f88:	66 41 0f 62 f8       	punpckldq %xmm8,%xmm7
    3f8d:	66 0f 70 db 0e       	pshufd $0xe,%xmm3,%xmm3
    3f92:	66 44 0f 62 ce       	punpckldq %xmm6,%xmm9
    3f97:	66 44 0f 6f d0       	movdqa %xmm0,%xmm10
    3f9c:	66 44 0f 6f c4       	movdqa %xmm4,%xmm8
    3fa1:	66 0f 62 c5          	punpckldq %xmm5,%xmm0
    3fa5:	66 44 0f 62 d5       	punpckldq %xmm5,%xmm10
    3faa:	66 45 0f 62 c1       	punpckldq %xmm9,%xmm8
    3faf:	66 0f 70 c0 0e       	pshufd $0xe,%xmm0,%xmm0
    3fb4:	66 41 0f 62 e1       	punpckldq %xmm9,%xmm4
    3fb9:	66 0f 6f ef          	movdqa %xmm7,%xmm5
    3fbd:	66 44 0f 6f cf       	movdqa %xmm7,%xmm9
    3fc2:	66 0f 6f fb          	movdqa %xmm3,%xmm7
    3fc6:	66 0f 62 d8          	punpckldq %xmm0,%xmm3
    3fca:	66 0f 62 f8          	punpckldq %xmm0,%xmm7
    3fce:	66 45 0f 62 ca       	punpckldq %xmm10,%xmm9
    3fd3:	66 41 0f 6f c0       	movdqa %xmm8,%xmm0
    3fd8:	66 0f 70 c9 0e       	pshufd $0xe,%xmm1,%xmm1
    3fdd:	66 0f 62 d6          	punpckldq %xmm6,%xmm2
    3fe1:	66 0f 70 e4 0e       	pshufd $0xe,%xmm4,%xmm4
    3fe6:	66 41 0f 62 c1       	punpckldq %xmm9,%xmm0
    3feb:	66 41 0f 62 ea       	punpckldq %xmm10,%xmm5
    3ff0:	66 0f 70 d2 0e       	pshufd $0xe,%xmm2,%xmm2
    3ff5:	66 0f 6f f1          	movdqa %xmm1,%xmm6
    3ff9:	66 0f 70 ed 0e       	pshufd $0xe,%xmm5,%xmm5
    3ffe:	66 0f d6 00          	movq   %xmm0,(%rax)
    4002:	66 0f 6f c4          	movdqa %xmm4,%xmm0
    4006:	66 0f 62 f2          	punpckldq %xmm2,%xmm6
    400a:	66 0f 62 c5          	punpckldq %xmm5,%xmm0
    400e:	66 0f 62 ca          	punpckldq %xmm2,%xmm1
    4012:	66 0f d6 40 10       	movq   %xmm0,0x10(%rax)
    4017:	66 0f 6f c6          	movdqa %xmm6,%xmm0
    401b:	66 0f 70 c9 0e       	pshufd $0xe,%xmm1,%xmm1
    4020:	66 0f 70 db 0e       	pshufd $0xe,%xmm3,%xmm3
    4025:	66 0f 62 c7          	punpckldq %xmm7,%xmm0
    4029:	66 45 0f 62 c1       	punpckldq %xmm9,%xmm8
    402e:	66 0f 62 e5          	punpckldq %xmm5,%xmm4
    4032:	66 0f d6 40 20       	movq   %xmm0,0x20(%rax)
    4037:	66 0f 62 f7          	punpckldq %xmm7,%xmm6
    403b:	66 0f 6f c1          	movdqa %xmm1,%xmm0
    403f:	66 0f 62 cb          	punpckldq %xmm3,%xmm1
    4043:	66 45 0f 70 c0 0e    	pshufd $0xe,%xmm8,%xmm8
    4049:	66 0f 70 e4 0e       	pshufd $0xe,%xmm4,%xmm4
    404e:	66 0f 70 f6 0e       	pshufd $0xe,%xmm6,%xmm6
    4053:	66 0f 62 c3          	punpckldq %xmm3,%xmm0
    4057:	66 0f 70 c9 0e       	pshufd $0xe,%xmm1,%xmm1
    405c:	66 44 0f d6 40 08    	movq   %xmm8,0x8(%rax)
    4062:	66 0f d6 60 18       	movq   %xmm4,0x18(%rax)
    4067:	66 0f d6 70 28       	movq   %xmm6,0x28(%rax)
    406c:	66 0f d6 40 30       	movq   %xmm0,0x30(%rax)
    4071:	66 0f d6 48 38       	movq   %xmm1,0x38(%rax)
    4076:	48 89 c8             	mov    %rcx,%rax
    4079:	48 83 e0 fe          	and    $0xfffffffffffffffe,%rax
    407d:	48 89 c6             	mov    %rax,%rsi
    4080:	48 c1 e6 05          	shl    $0x5,%rsi
    4084:	48 01 f2             	add    %rsi,%rdx
    4087:	48 39 c8             	cmp    %rcx,%rax
    408a:	0f 84 ae 00 00 00    	je     413e <riscv_dsp_cfft_rd4_q31+0xe6e>
    4090:	44 8b 02             	mov    (%rdx),%r8d
    4093:	8b 72 08             	mov    0x8(%rdx),%esi
    4096:	8b 42 10             	mov    0x10(%rdx),%eax
    4099:	44 8b 5a 18          	mov    0x18(%rdx),%r11d
    409d:	8b 4a 04             	mov    0x4(%rdx),%ecx
    40a0:	8b 7a 0c             	mov    0xc(%rdx),%edi
    40a3:	44 8b 4a 14          	mov    0x14(%rdx),%r9d
    40a7:	44 8b 52 1c          	mov    0x1c(%rdx),%r10d
    40ab:	44 01 c0             	add    %r8d,%eax
    40ae:	41 01 f3             	add    %esi,%r11d
    40b1:	d1 f8                	sar    %eax
    40b3:	41 d1 fb             	sar    %r11d
    40b6:	44 2b 42 10          	sub    0x10(%rdx),%r8d
    40ba:	2b 72 18             	sub    0x18(%rdx),%esi
    40bd:	41 01 c9             	add    %ecx,%r9d
    40c0:	41 01 fa             	add    %edi,%r10d
    40c3:	41 8d 1c 03          	lea    (%r11,%rax,1),%ebx
    40c7:	44 29 d8             	sub    %r11d,%eax
    40ca:	41 d1 f9             	sar    %r9d
    40cd:	41 d1 fa             	sar    %r10d
    40d0:	66 0f 6e c3          	movd   %ebx,%xmm0
    40d4:	66 0f 6e c8          	movd   %eax,%xmm1
    40d8:	43 8d 1c 0a          	lea    (%r10,%r9,1),%ebx
    40dc:	45 29 d1             	sub    %r10d,%r9d
    40df:	2b 7a 1c             	sub    0x1c(%rdx),%edi
    40e2:	41 d1 f8             	sar    %r8d
    40e5:	d1 ff                	sar    %edi
    40e7:	66 41 0f 6e e1       	movd   %r9d,%xmm4
    40ec:	2b 4a 14             	sub    0x14(%rdx),%ecx
    40ef:	d1 fe                	sar    %esi
    40f1:	66 0f 62 cc          	punpckldq %xmm4,%xmm1
    40f5:	66 0f 6e e3          	movd   %ebx,%xmm4
    40f9:	42 8d 04 07          	lea    (%rdi,%r8,1),%eax
    40fd:	d1 f9                	sar    %ecx
    40ff:	66 0f 62 c4          	punpckldq %xmm4,%xmm0
    4103:	41 29 f8             	sub    %edi,%r8d
    4106:	66 0f 6c c1          	punpcklqdq %xmm1,%xmm0
    410a:	66 41 0f 6e c8       	movd   %r8d,%xmm1
    410f:	66 0f 72 e0 01       	psrad  $0x1,%xmm0
    4114:	0f 11 02             	movups %xmm0,(%rdx)
    4117:	66 0f 6e c0          	movd   %eax,%xmm0
    411b:	89 c8                	mov    %ecx,%eax
    411d:	01 f1                	add    %esi,%ecx
    411f:	66 0f 6e e1          	movd   %ecx,%xmm4
    4123:	29 f0                	sub    %esi,%eax
    4125:	66 0f 62 cc          	punpckldq %xmm4,%xmm1
    4129:	66 0f 6e e0          	movd   %eax,%xmm4
    412d:	66 0f 62 c4          	punpckldq %xmm4,%xmm0
    4131:	66 0f 6c c1          	punpcklqdq %xmm1,%xmm0
    4135:	66 0f 72 e0 01       	psrad  $0x1,%xmm0
    413a:	0f 11 42 10          	movups %xmm0,0x10(%rdx)
    413e:	44 8b 64 24 f4       	mov    -0xc(%rsp),%r12d
    4143:	0f b6 4c 24 ec       	movzbl -0x14(%rsp),%ecx
    4148:	b8 02 00 00 00       	mov    $0x2,%eax
    414d:	48 8b 5c 24 d8       	mov    -0x28(%rsp),%rbx
    4152:	d3 e0                	shl    %cl,%eax
    4154:	43 8d 14 24          	lea    (%r12,%r12,1),%edx
    4158:	45 89 e6             	mov    %r12d,%r14d
    415b:	48 8d 7c 83 fc       	lea    -0x4(%rbx,%rax,4),%rdi
    4160:	48 89 d0             	mov    %rdx,%rax
    4163:	48 8d 14 93          	lea    (%rbx,%rdx,4),%rdx
    4167:	8b 4b 08             	mov    0x8(%rbx),%ecx
    416a:	8b 32                	mov    (%rdx),%esi
    416c:	83 c0 01             	add    $0x1,%eax
    416f:	48 8d 04 83          	lea    (%rbx,%rax,4),%rax
    4173:	89 73 08             	mov    %esi,0x8(%rbx)
    4176:	48 89 de             	mov    %rbx,%rsi
    4179:	89 0a                	mov    %ecx,(%rdx)
    417b:	8b 08                	mov    (%rax),%ecx
    417d:	8b 53 0c             	mov    0xc(%rbx),%edx
    4180:	89 4b 0c             	mov    %ecx,0xc(%rbx)
    4183:	8b 5c 24 f0          	mov    -0x10(%rsp),%ebx
    4187:	b9 04 00 00 00       	mov    $0x4,%ecx
    418c:	89 10                	mov    %edx,(%rax)
    418e:	44 89 e0             	mov    %r12d,%eax
    4191:	ba 04 00 00 00       	mov    $0x4,%edx
    4196:	41 89 d9             	mov    %ebx,%r9d
    4199:	c1 eb 03             	shr    $0x3,%ebx
    419c:	41 c1 e9 02          	shr    $0x2,%r9d
    41a0:	41 89 da             	mov    %ebx,%r10d
    41a3:	45 31 ce             	xor    %r9d,%r14d
    41a6:	44 31 f3             	xor    %r14d,%ebx
    41a9:	45 89 f3             	mov    %r14d,%r11d
    41ac:	89 5c 24 90          	mov    %ebx,-0x70(%rsp)
    41b0:	44 31 d8             	xor    %r11d,%eax
    41b3:	41 85 c1             	test   %eax,%r9d
    41b6:	75 13                	jne    41cb <riscv_dsp_cfft_rd4_q31+0xefb>
    41b8:	45 89 c8             	mov    %r9d,%r8d
    41bb:	0f 1f 44 00 00       	nopl   0x0(%rax,%rax,1)
    41c0:	41 d1 e8             	shr    %r8d
    41c3:	44 31 c0             	xor    %r8d,%eax
    41c6:	41 85 c0             	test   %eax,%r8d
    41c9:	74 f5                	je     41c0 <riscv_dsp_cfft_rd4_q31+0xef0>
    41cb:	44 8d 41 fe          	lea    -0x2(%rcx),%r8d
    41cf:	44 39 c0             	cmp    %r8d,%eax
    41d2:	0f 86 81 00 00 00    	jbe    4259 <riscv_dsp_cfft_rd4_q31+0xf89>
    41d8:	41 89 d0             	mov    %edx,%r8d
    41db:	8d 1c 00             	lea    (%rax,%rax,1),%ebx
    41de:	4e 8d 2c 86          	lea    (%rsi,%r8,4),%r13
    41e2:	49 89 d8             	mov    %rbx,%r8
    41e5:	48 8d 1c 9e          	lea    (%rsi,%rbx,4),%rbx
    41e9:	45 8b 75 00          	mov    0x0(%r13),%r14d
    41ed:	44 8b 3b             	mov    (%rbx),%r15d
    41f0:	41 83 c0 01          	add    $0x1,%r8d
    41f4:	4e 8d 04 86          	lea    (%rsi,%r8,4),%r8
    41f8:	45 89 7d 00          	mov    %r15d,0x0(%r13)
    41fc:	44 89 33             	mov    %r14d,(%rbx)
    41ff:	8d 5a 01             	lea    0x1(%rdx),%ebx
    4202:	45 8b 30             	mov    (%r8),%r14d
    4205:	48 8d 1c 9e          	lea    (%rsi,%rbx,4),%rbx
    4209:	44 8b 2b             	mov    (%rbx),%r13d
    420c:	44 89 33             	mov    %r14d,(%rbx)
    420f:	89 d3                	mov    %edx,%ebx
    4211:	f7 db                	neg    %ebx
    4213:	45 89 28             	mov    %r13d,(%r8)
    4216:	41 89 c0             	mov    %eax,%r8d
    4219:	48 63 db             	movslq %ebx,%rbx
    421c:	41 f7 d8             	neg    %r8d
    421f:	48 c1 e3 02          	shl    $0x2,%rbx
    4223:	45 01 c0             	add    %r8d,%r8d
    4226:	4c 8d 34 1f          	lea    (%rdi,%rbx,1),%r14
    422a:	48 8d 5c 1f fc       	lea    -0x4(%rdi,%rbx,1),%rbx
    422f:	4d 63 c0             	movslq %r8d,%r8
    4232:	45 8b 3e             	mov    (%r14),%r15d
    4235:	49 c1 e0 02          	shl    $0x2,%r8
    4239:	4e 8d 2c 07          	lea    (%rdi,%r8,1),%r13
    423d:	4e 8d 44 07 fc       	lea    -0x4(%rdi,%r8,1),%r8
    4242:	41 8b 6d 00          	mov    0x0(%r13),%ebp
    4246:	41 89 2e             	mov    %ebp,(%r14)
    4249:	45 89 7d 00          	mov    %r15d,0x0(%r13)
    424d:	44 8b 2b             	mov    (%rbx),%r13d
    4250:	45 8b 30             	mov    (%r8),%r14d
    4253:	44 89 33             	mov    %r14d,(%rbx)
    4256:	45 89 28             	mov    %r13d,(%r8)
    4259:	44 01 e0             	add    %r12d,%eax
    425c:	44 8d 42 02          	lea    0x2(%rdx),%r8d
    4260:	8d 1c 00             	lea    (%rax,%rax,1),%ebx
    4263:	4e 8d 2c 86          	lea    (%rsi,%r8,4),%r13
    4267:	49 89 d8             	mov    %rbx,%r8
    426a:	48 8d 1c 9e          	lea    (%rsi,%rbx,4),%rbx
    426e:	45 8b 75 00          	mov    0x0(%r13),%r14d
    4272:	44 8b 3b             	mov    (%rbx),%r15d
    4275:	41 83 c0 01          	add    $0x1,%r8d
    4279:	4e 8d 04 86          	lea    (%rsi,%r8,4),%r8
    427d:	45 89 7d 00          	mov    %r15d,0x0(%r13)
    4281:	44 89 33             	mov    %r14d,(%rbx)
    4284:	8d 5a 03             	lea    0x3(%rdx),%ebx
    4287:	45 8b 30             	mov    (%r8),%r14d
    428a:	48 8d 1c 9e          	lea    (%rsi,%rbx,4),%rbx
    428e:	44 8b 2b             	mov    (%rbx),%r13d
    4291:	44 89 33             	mov    %r14d,(%rbx)
    4294:	45 89 28             	mov    %r13d,(%r8)
    4297:	41 39 cc             	cmp    %ecx,%r12d
    429a:	0f 86 5b 02 00 00    	jbe    44fb <riscv_dsp_cfft_rd4_q31+0x122b>
    42a0:	33 44 24 90          	xor    -0x70(%rsp),%eax
    42a4:	41 85 c2             	test   %eax,%r10d
    42a7:	75 12                	jne    42bb <riscv_dsp_cfft_rd4_q31+0xfeb>
    42a9:	45 89 d0             	mov    %r10d,%r8d
    42ac:	0f 1f 40 00          	nopl   0x0(%rax)
    42b0:	41 d1 e8             	shr    %r8d
    42b3:	44 31 c0             	xor    %r8d,%eax
    42b6:	41 85 c0             	test   %eax,%r8d
    42b9:	74 f5                	je     42b0 <riscv_dsp_cfft_rd4_q31+0xfe0>
    42bb:	39 c8                	cmp    %ecx,%eax
    42bd:	0f 86 85 00 00 00    	jbe    4348 <riscv_dsp_cfft_rd4_q31+0x1078>
    42c3:	44 8d 42 04          	lea    0x4(%rdx),%r8d
    42c7:	8d 1c 00             	lea    (%rax,%rax,1),%ebx
    42ca:	4e 8d 2c 86          	lea    (%rsi,%r8,4),%r13
    42ce:	49 89 d8             	mov    %rbx,%r8
    42d1:	48 8d 1c 9e          	lea    (%rsi,%rbx,4),%rbx
    42d5:	45 8b 75 00          	mov    0x0(%r13),%r14d
    42d9:	44 8b 3b             	mov    (%rbx),%r15d
    42dc:	41 83 c0 01          	add    $0x1,%r8d
    42e0:	4e 8d 04 86          	lea    (%rsi,%r8,4),%r8
    42e4:	45 89 7d 00          	mov    %r15d,0x0(%r13)
    42e8:	44 89 33             	mov    %r14d,(%rbx)
    42eb:	8d 5a 05             	lea    0x5(%rdx),%ebx
    42ee:	45 8b 30             	mov    (%r8),%r14d
    42f1:	48 8d 1c 9e          	lea    (%rsi,%rbx,4),%rbx
    42f5:	44 8b 2b             	mov    (%rbx),%r13d
    42f8:	44 89 33             	mov    %r14d,(%rbx)
    42fb:	bb fc ff ff ff       	mov    $0xfffffffc,%ebx
    4300:	29 d3                	sub    %edx,%ebx
    4302:	45 89 28             	mov    %r13d,(%r8)
    4305:	41 89 c0             	mov    %eax,%r8d
    4308:	48 63 db             	movslq %ebx,%rbx
    430b:	41 f7 d8             	neg    %r8d
    430e:	48 c1 e3 02          	shl    $0x2,%rbx
    4312:	45 01 c0             	add    %r8d,%r8d
    4315:	4c 8d 34 1f          	lea    (%rdi,%rbx,1),%r14
    4319:	48 8d 5c 1f fc       	lea    -0x4(%rdi,%rbx,1),%rbx
    431e:	4d 63 c0             	movslq %r8d,%r8
    4321:	45 8b 3e             	mov    (%r14),%r15d
    4324:	49 c1 e0 02          	shl    $0x2,%r8
    4328:	4e 8d 2c 07          	lea    (%rdi,%r8,1),%r13
    432c:	4e 8d 44 07 fc       	lea    -0x4(%rdi,%r8,1),%r8
    4331:	41 8b 6d 00          	mov    0x0(%r13),%ebp
    4335:	41 89 2e             	mov    %ebp,(%r14)
    4338:	45 89 7d 00          	mov    %r15d,0x0(%r13)
    433c:	44 8b 2b             	mov    (%rbx),%r13d
    433f:	45 8b 30             	mov    (%r8),%r14d
    4342:	44 89 33             	mov    %r14d,(%rbx)
    4345:	45 89 28             	mov    %r13d,(%r8)
    4348:	44 01 e0             	add    %r12d,%eax
    434b:	44 8d 42 06          	lea    0x6(%rdx),%r8d
    434f:	83 c1 04             	add    $0x4,%ecx
    4352:	8d 1c 00             	lea    (%rax,%rax,1),%ebx
    4355:	4e 8d 2c 86          	lea    (%rsi,%r8,4),%r13
    4359:	49 89 d8             	mov    %rbx,%r8
    435c:	48 8d 1c 9e          	lea    (%rsi,%rbx,4),%rbx
    4360:	45 8b 75 00          	mov    0x0(%r13),%r14d
    4364:	44 8b 3b             	mov    (%rbx),%r15d
    4367:	41 83 c0 01          	add    $0x1,%r8d
    436b:	4e 8d 04 86          	lea    (%rsi,%r8,4),%r8
    436f:	45 89 7d 00          	mov    %r15d,0x0(%r13)
    4373:	44 89 33             	mov    %r14d,(%rbx)
    4376:	8d 5a 07             	lea    0x7(%rdx),%ebx
    4379:	45 8b 30             	mov    (%r8),%r14d
    437c:	83 c2 08             	add    $0x8,%edx
    437f:	48 8d 1c 9e          	lea    (%rsi,%rbx,4),%rbx
    4383:	44 8b 2b             	mov    (%rbx),%r13d
    4386:	44 89 33             	mov    %r14d,(%rbx)
    4389:	45 89 28             	mov    %r13d,(%r8)
    438c:	e9 1f fe ff ff       	jmp    41b0 <riscv_dsp_cfft_rd4_q31+0xee0>
    4391:	0f 1f 80 00 00 00 00 	nopl   0x0(%rax)
    4398:	8d 8a 00 ff ff ff    	lea    -0x100(%rdx),%ecx
    439e:	be 00 01 00 00       	mov    $0x100,%esi
    43a3:	29 ce                	sub    %ecx,%esi
    43a5:	85 f6                	test   %esi,%esi
    43a7:	0f 8e 93 00 00 00    	jle    4440 <riscv_dsp_cfft_rd4_q31+0x1170>
    43ad:	48 8d 3d f4 25 00 00 	lea    0x25f4(%rip),%rdi        # 69a8 <riscv_dsp_cos_table_q31_1024+0x8>
    43b4:	48 63 f6             	movslq %esi,%rsi
    43b7:	48 63 c9             	movslq %ecx,%rcx
    43ba:	8b 34 b7             	mov    (%rdi,%rsi,4),%esi
    43bd:	8b 14 8f             	mov    (%rdi,%rcx,4),%edx
    43c0:	f7 de                	neg    %esi
    43c2:	e9 0e f5 ff ff       	jmp    38d5 <riscv_dsp_cfft_rd4_q31+0x605>
    43c7:	66 0f 1f 84 00 00 00 	nopw   0x0(%rax,%rax,1)
    43ce:	00 00 
    43d0:	8d b9 00 ff ff ff    	lea    -0x100(%rcx),%edi
    43d6:	41 b8 00 01 00 00    	mov    $0x100,%r8d
    43dc:	41 29 f8             	sub    %edi,%r8d
    43df:	45 85 c0             	test   %r8d,%r8d
    43e2:	0f 8e 98 00 00 00    	jle    4480 <riscv_dsp_cfft_rd4_q31+0x11b0>
    43e8:	48 8d 0d b9 25 00 00 	lea    0x25b9(%rip),%rcx        # 69a8 <riscv_dsp_cos_table_q31_1024+0x8>
    43ef:	4d 63 c0             	movslq %r8d,%r8
    43f2:	48 63 ff             	movslq %edi,%rdi
    43f5:	42 8b 2c 81          	mov    (%rcx,%r8,4),%ebp
    43f9:	44 8b 24 b9          	mov    (%rcx,%rdi,4),%r12d
    43fd:	f7 dd                	neg    %ebp
    43ff:	e9 03 f5 ff ff       	jmp    3907 <riscv_dsp_cfft_rd4_q31+0x637>
    4404:	0f 1f 40 00          	nopl   0x0(%rax)
    4408:	8d 90 00 ff ff ff    	lea    -0x100(%rax),%edx
    440e:	b9 00 01 00 00       	mov    $0x100,%ecx
    4413:	29 d1                	sub    %edx,%ecx
    4415:	85 c9                	test   %ecx,%ecx
    4417:	0f 8e a3 00 00 00    	jle    44c0 <riscv_dsp_cfft_rd4_q31+0x11f0>
    441d:	48 8d 3d 84 25 00 00 	lea    0x2584(%rip),%rdi        # 69a8 <riscv_dsp_cos_table_q31_1024+0x8>
    4424:	48 63 c9             	movslq %ecx,%rcx
    4427:	48 63 d2             	movslq %edx,%rdx
    442a:	8b 04 8f             	mov    (%rdi,%rcx,4),%eax
    442d:	44 8b 2c 97          	mov    (%rdi,%rdx,4),%r13d
    4431:	f7 d8                	neg    %eax
    4433:	e9 6d f4 ff ff       	jmp    38a5 <riscv_dsp_cfft_rd4_q31+0x5d5>
    4438:	0f 1f 84 00 00 00 00 	nopl   0x0(%rax,%rax,1)
    443f:	00 
    4440:	81 ea 00 02 00 00    	sub    $0x200,%edx
    4446:	b9 00 01 00 00       	mov    $0x100,%ecx
    444b:	48 8d 3d 56 25 00 00 	lea    0x2556(%rip),%rdi        # 69a8 <riscv_dsp_cos_table_q31_1024+0x8>
    4452:	29 d1                	sub    %edx,%ecx
    4454:	48 63 d2             	movslq %edx,%rdx
    4457:	8b 14 97             	mov    (%rdi,%rdx,4),%edx
    445a:	48 63 f1             	movslq %ecx,%rsi
    445d:	8b 34 b7             	mov    (%rdi,%rsi,4),%esi
    4460:	f7 da                	neg    %edx
    4462:	85 c9                	test   %ecx,%ecx
    4464:	0f 8e 6b f4 ff ff    	jle    38d5 <riscv_dsp_cfft_rd4_q31+0x605>
    446a:	89 f1                	mov    %esi,%ecx
    446c:	89 d6                	mov    %edx,%esi
    446e:	f7 d9                	neg    %ecx
    4470:	89 ca                	mov    %ecx,%edx
    4472:	e9 5e f4 ff ff       	jmp    38d5 <riscv_dsp_cfft_rd4_q31+0x605>
    4477:	66 0f 1f 84 00 00 00 	nopw   0x0(%rax,%rax,1)
    447e:	00 00 
    4480:	81 e9 00 02 00 00    	sub    $0x200,%ecx
    4486:	bf 00 01 00 00       	mov    $0x100,%edi
    448b:	4c 8d 15 16 25 00 00 	lea    0x2516(%rip),%r10        # 69a8 <riscv_dsp_cos_table_q31_1024+0x8>
    4492:	29 cf                	sub    %ecx,%edi
    4494:	48 63 c9             	movslq %ecx,%rcx
    4497:	45 8b 24 8a          	mov    (%r10,%rcx,4),%r12d
    449b:	4c 63 c7             	movslq %edi,%r8
    449e:	43 8b 2c 82          	mov    (%r10,%r8,4),%ebp
    44a2:	41 f7 dc             	neg    %r12d
    44a5:	85 ff                	test   %edi,%edi
    44a7:	0f 8e 5a f4 ff ff    	jle    3907 <riscv_dsp_cfft_rd4_q31+0x637>
    44ad:	89 e9                	mov    %ebp,%ecx
    44af:	44 89 e5             	mov    %r12d,%ebp
    44b2:	f7 d9                	neg    %ecx
    44b4:	41 89 cc             	mov    %ecx,%r12d
    44b7:	e9 4b f4 ff ff       	jmp    3907 <riscv_dsp_cfft_rd4_q31+0x637>
    44bc:	0f 1f 40 00          	nopl   0x0(%rax)
    44c0:	8d 90 00 fe ff ff    	lea    -0x200(%rax),%edx
    44c6:	b9 00 01 00 00       	mov    $0x100,%ecx
    44cb:	48 8d 3d d6 24 00 00 	lea    0x24d6(%rip),%rdi        # 69a8 <riscv_dsp_cos_table_q31_1024+0x8>
    44d2:	29 d1                	sub    %edx,%ecx
    44d4:	48 63 d2             	movslq %edx,%rdx
    44d7:	44 8b 2c 97          	mov    (%rdi,%rdx,4),%r13d
    44db:	48 63 c1             	movslq %ecx,%rax
    44de:	8b 04 87             	mov    (%rdi,%rax,4),%eax
    44e1:	41 f7 dd             	neg    %r13d
    44e4:	85 c9                	test   %ecx,%ecx
    44e6:	0f 8e b9 f3 ff ff    	jle    38a5 <riscv_dsp_cfft_rd4_q31+0x5d5>
    44ec:	f7 d8                	neg    %eax
    44ee:	89 c2                	mov    %eax,%edx
    44f0:	44 89 e8             	mov    %r13d,%eax
    44f3:	41 89 d5             	mov    %edx,%r13d
    44f6:	e9 aa f3 ff ff       	jmp    38a5 <riscv_dsp_cfft_rd4_q31+0x5d5>
    44fb:	5b                   	pop    %rbx
    44fc:	31 c0                	xor    %eax,%eax
    44fe:	5d                   	pop    %rbp
    44ff:	41 5c                	pop    %r12
    4501:	41 5d                	pop    %r13
    4503:	41 5e                	pop    %r14
    4505:	41 5f                	pop    %r15
    4507:	c3                   	ret    
    4508:	48 89 da             	mov    %rbx,%rdx
    450b:	31 c0                	xor    %eax,%eax
    450d:	e9 77 f8 ff ff       	jmp    3d89 <riscv_dsp_cfft_rd4_q31+0xab9>
    4512:	66 2e 0f 1f 84 00 00 	cs nopw 0x0(%rax,%rax,1)
    4519:	00 00 00 
    451c:	0f 1f 40 00          	nopl   0x0(%rax)

0000000000004520 <riscv_dsp_cifft_rd4_q31>:
    4520:	f3 0f 1e fa          	endbr64 
    4524:	41 57                	push   %r15
    4526:	89 f1                	mov    %esi,%ecx
    4528:	b8 01 00 00 00       	mov    $0x1,%eax
    452d:	49 89 ff             	mov    %rdi,%r15
    4530:	41 56                	push   %r14
    4532:	d3 e0                	shl    %cl,%eax
    4534:	41 55                	push   %r13
    4536:	41 54                	push   %r12
    4538:	55                   	push   %rbp
    4539:	53                   	push   %rbx
    453a:	48 83 ec 20          	sub    $0x20,%rsp
    453e:	89 44 24 10          	mov    %eax,0x10(%rsp)
    4542:	d1 e8                	shr    %eax
    4544:	89 c3                	mov    %eax,%ebx
    4546:	89 44 24 14          	mov    %eax,0x14(%rsp)
    454a:	8b 07                	mov    (%rdi),%eax
    454c:	48 c1 e3 02          	shl    $0x2,%rbx
    4550:	89 74 24 0c          	mov    %esi,0xc(%rsp)
    4554:	4c 8d 34 1f          	lea    (%rdi,%rbx,1),%r14
    4558:	48 89 7c 24 f8       	mov    %rdi,-0x8(%rsp)
    455d:	4d 8d 04 1e          	lea    (%r14,%rbx,1),%r8
    4561:	41 8b 16             	mov    (%r14),%edx
    4564:	4c 89 74 24 a8       	mov    %r14,-0x58(%rsp)
    4569:	4d 8d 1c 18          	lea    (%r8,%rbx,1),%r11
    456d:	45 8b 10             	mov    (%r8),%r10d
    4570:	41 8b 2b             	mov    (%r11),%ebp
    4573:	41 01 c2             	add    %eax,%r10d
    4576:	41 2b 00             	sub    (%r8),%eax
    4579:	01 d5                	add    %edx,%ebp
    457b:	41 2b 13             	sub    (%r11),%edx
    457e:	41 8d 0c 2a          	lea    (%r10,%rbp,1),%ecx
    4582:	41 29 ea             	sub    %ebp,%r10d
    4585:	89 0f                	mov    %ecx,(%rdi)
    4587:	41 8b 70 04          	mov    0x4(%r8),%esi
    458b:	8b 7f 04             	mov    0x4(%rdi),%edi
    458e:	45 8b 4e 04          	mov    0x4(%r14),%r9d
    4592:	89 f1                	mov    %esi,%ecx
    4594:	f7 d9                	neg    %ecx
    4596:	29 fe                	sub    %edi,%esi
    4598:	44 89 4c 24 88       	mov    %r9d,-0x78(%rsp)
    459d:	29 f9                	sub    %edi,%ecx
    459f:	41 8b 7b 04          	mov    0x4(%r11),%edi
    45a3:	41 89 f9             	mov    %edi,%r9d
    45a6:	2b 7c 24 88          	sub    -0x78(%rsp),%edi
    45aa:	41 f7 d9             	neg    %r9d
    45ad:	44 2b 4c 24 88       	sub    -0x78(%rsp),%r9d
    45b2:	46 8d 24 09          	lea    (%rcx,%r9,1),%r12d
    45b6:	44 29 c9             	sub    %r9d,%ecx
    45b9:	45 89 67 04          	mov    %r12d,0x4(%r15)
    45bd:	41 89 4e 04          	mov    %ecx,0x4(%r14)
    45c1:	8d 0c 38             	lea    (%rax,%rdi,1),%ecx
    45c4:	29 f8                	sub    %edi,%eax
    45c6:	66 0f 6e c1          	movd   %ecx,%xmm0
    45ca:	89 f1                	mov    %esi,%ecx
    45cc:	45 89 16             	mov    %r10d,(%r14)
    45cf:	29 d1                	sub    %edx,%ecx
    45d1:	01 f2                	add    %esi,%edx
    45d3:	66 0f 6e e1          	movd   %ecx,%xmm4
    45d7:	66 0f 62 c4          	punpckldq %xmm4,%xmm0
    45db:	66 0f 6e e2          	movd   %edx,%xmm4
    45df:	66 41 0f d6 00       	movq   %xmm0,(%r8)
    45e4:	66 0f 6e c0          	movd   %eax,%xmm0
    45e8:	49 8d 47 08          	lea    0x8(%r15),%rax
    45ec:	66 0f 62 c4          	punpckldq %xmm4,%xmm0
    45f0:	48 89 04 24          	mov    %rax,(%rsp)
    45f4:	66 41 0f d6 03       	movq   %xmm0,(%r11)
    45f9:	49 39 c6             	cmp    %rax,%r14
    45fc:	0f 84 00 03 00 00    	je     4902 <riscv_dsp_cifft_rd4_q31+0x3e2>
    4602:	48 89 c7             	mov    %rax,%rdi
    4605:	b8 0a 00 00 00       	mov    $0xa,%eax
    460a:	2b 44 24 0c          	sub    0xc(%rsp),%eax
    460e:	45 31 ff             	xor    %r15d,%r15d
    4611:	89 44 24 88          	mov    %eax,-0x78(%rsp)
    4615:	48 8b 44 24 f8       	mov    -0x8(%rsp),%rax
    461a:	48 8d 2d 87 23 00 00 	lea    0x2387(%rip),%rbp        # 69a8 <riscv_dsp_cos_table_q31_1024+0x8>
    4621:	41 be 00 01 00 00    	mov    $0x100,%r14d
    4627:	4c 8d 4c 58 08       	lea    0x8(%rax,%rbx,2),%r9
    462c:	e9 3f 01 00 00       	jmp    4770 <riscv_dsp_cifft_rd4_q31+0x250>
    4631:	48 98                	cltq   
    4633:	48 63 c9             	movslq %ecx,%rcx
    4636:	8b 44 85 00          	mov    0x0(%rbp,%rax,4),%eax
    463a:	44 8b 5c 8d 00       	mov    0x0(%rbp,%rcx,4),%r11d
    463f:	48 98                	cltq   
    4641:	4d 63 db             	movslq %r11d,%r11
    4644:	48 89 c1             	mov    %rax,%rcx
    4647:	49 0f af c0          	imul   %r8,%rax
    464b:	49 0f af ca          	imul   %r10,%rcx
    464f:	48 89 4c 24 98       	mov    %rcx,-0x68(%rsp)
    4654:	4c 89 d9             	mov    %r11,%rcx
    4657:	4d 0f af da          	imul   %r10,%r11
    465b:	45 89 ea             	mov    %r13d,%r10d
    465e:	49 0f af c8          	imul   %r8,%rcx
    4662:	48 03 4c 24 98       	add    -0x68(%rsp),%rcx
    4667:	46 8d 04 22          	lea    (%rdx,%r12,1),%r8d
    466b:	41 29 f2             	sub    %esi,%r10d
    466e:	48 c1 f9 1f          	sar    $0x1f,%rcx
    4672:	44 29 e2             	sub    %r12d,%edx
    4675:	44 01 ee             	add    %r13d,%esi
    4678:	4d 63 c0             	movslq %r8d,%r8
    467b:	4c 29 d8             	sub    %r11,%rax
    467e:	66 0f 6e c1          	movd   %ecx,%xmm0
    4682:	0f b6 4c 24 88       	movzbl -0x78(%rsp),%ecx
    4687:	48 63 d2             	movslq %edx,%rdx
    468a:	48 c1 f8 1f          	sar    $0x1f,%rax
    468e:	4d 63 d2             	movslq %r10d,%r10
    4691:	48 63 f6             	movslq %esi,%rsi
    4694:	66 0f 6e e0          	movd   %eax,%xmm4
    4698:	44 89 f8             	mov    %r15d,%eax
    469b:	d3 e0                	shl    %cl,%eax
    469d:	44 89 f1             	mov    %r14d,%ecx
    46a0:	66 0f 62 c4          	punpckldq %xmm4,%xmm0
    46a4:	29 c1                	sub    %eax,%ecx
    46a6:	66 0f d6 04 1f       	movq   %xmm0,(%rdi,%rbx,1)
    46ab:	85 c9                	test   %ecx,%ecx
    46ad:	0f 8e 81 01 00 00    	jle    4834 <riscv_dsp_cifft_rd4_q31+0x314>
    46b3:	48 98                	cltq   
    46b5:	48 63 c9             	movslq %ecx,%rcx
    46b8:	8b 44 85 00          	mov    0x0(%rbp,%rax,4),%eax
    46bc:	44 8b 5c 8d 00       	mov    0x0(%rbp,%rcx,4),%r11d
    46c1:	48 98                	cltq   
    46c3:	4d 63 db             	movslq %r11d,%r11
    46c6:	48 89 c1             	mov    %rax,%rcx
    46c9:	49 0f af c2          	imul   %r10,%rax
    46cd:	4d 89 dc             	mov    %r11,%r12
    46d0:	49 0f af c8          	imul   %r8,%rcx
    46d4:	4d 0f af e2          	imul   %r10,%r12
    46d8:	4d 0f af d8          	imul   %r8,%r11
    46dc:	4c 01 e1             	add    %r12,%rcx
    46df:	48 c1 f9 1f          	sar    $0x1f,%rcx
    46e3:	4c 29 d8             	sub    %r11,%rax
    46e6:	48 c1 f8 1f          	sar    $0x1f,%rax
    46ea:	66 0f 6e c1          	movd   %ecx,%xmm0
    46ee:	0f b6 4c 24 88       	movzbl -0x78(%rsp),%ecx
    46f3:	66 0f 6e e0          	movd   %eax,%xmm4
    46f7:	43 8d 04 7f          	lea    (%r15,%r15,2),%eax
    46fb:	d3 e0                	shl    %cl,%eax
    46fd:	44 89 f1             	mov    %r14d,%ecx
    4700:	66 0f 62 c4          	punpckldq %xmm4,%xmm0
    4704:	29 c1                	sub    %eax,%ecx
    4706:	66 41 0f d6 01       	movq   %xmm0,(%r9)
    470b:	85 c9                	test   %ecx,%ecx
    470d:	0f 8e f9 00 00 00    	jle    480c <riscv_dsp_cifft_rd4_q31+0x2ec>
    4713:	48 98                	cltq   
    4715:	48 63 c9             	movslq %ecx,%rcx
    4718:	8b 44 85 00          	mov    0x0(%rbp,%rax,4),%eax
    471c:	44 8b 44 8d 00       	mov    0x0(%rbp,%rcx,4),%r8d
    4721:	48 98                	cltq   
    4723:	4d 63 c0             	movslq %r8d,%r8
    4726:	48 83 c7 08          	add    $0x8,%rdi
    472a:	49 83 c1 08          	add    $0x8,%r9
    472e:	48 89 c1             	mov    %rax,%rcx
    4731:	48 0f af c6          	imul   %rsi,%rax
    4735:	4d 89 c2             	mov    %r8,%r10
    4738:	48 0f af ca          	imul   %rdx,%rcx
    473c:	4c 0f af d6          	imul   %rsi,%r10
    4740:	4c 0f af c2          	imul   %rdx,%r8
    4744:	4c 01 d1             	add    %r10,%rcx
    4747:	4c 29 c0             	sub    %r8,%rax
    474a:	48 c1 f9 1f          	sar    $0x1f,%rcx
    474e:	48 c1 f8 1f          	sar    $0x1f,%rax
    4752:	66 0f 6e c1          	movd   %ecx,%xmm0
    4756:	66 0f 6e f8          	movd   %eax,%xmm7
    475a:	66 0f 62 c7          	punpckldq %xmm7,%xmm0
    475e:	66 41 0f d6 44 19 f8 	movq   %xmm0,-0x8(%r9,%rbx,1)
    4765:	48 39 7c 24 a8       	cmp    %rdi,-0x58(%rsp)
    476a:	0f 84 92 01 00 00    	je     4902 <riscv_dsp_cifft_rd4_q31+0x3e2>
    4770:	8b 34 1f             	mov    (%rdi,%rbx,1),%esi
    4773:	8b 17                	mov    (%rdi),%edx
    4775:	41 83 c7 01          	add    $0x1,%r15d
    4779:	45 8b 11             	mov    (%r9),%r10d
    477c:	41 8b 04 19          	mov    (%r9,%rbx,1),%eax
    4780:	41 01 d2             	add    %edx,%r10d
    4783:	01 f0                	add    %esi,%eax
    4785:	41 2b 11             	sub    (%r9),%edx
    4788:	41 2b 34 19          	sub    (%r9,%rbx,1),%esi
    478c:	41 8d 0c 02          	lea    (%r10,%rax,1),%ecx
    4790:	41 29 c2             	sub    %eax,%r10d
    4793:	89 0f                	mov    %ecx,(%rdi)
    4795:	41 8b 41 04          	mov    0x4(%r9),%eax
    4799:	4d 63 d2             	movslq %r10d,%r10
    479c:	45 8b 64 19 04       	mov    0x4(%r9,%rbx,1),%r12d
    47a1:	41 89 c0             	mov    %eax,%r8d
    47a4:	2b 47 04             	sub    0x4(%rdi),%eax
    47a7:	41 89 c5             	mov    %eax,%r13d
    47aa:	44 89 e0             	mov    %r12d,%eax
    47ad:	41 f7 d8             	neg    %r8d
    47b0:	44 2b 47 04          	sub    0x4(%rdi),%r8d
    47b4:	f7 d8                	neg    %eax
    47b6:	2b 44 1f 04          	sub    0x4(%rdi,%rbx,1),%eax
    47ba:	44 2b 64 1f 04       	sub    0x4(%rdi,%rbx,1),%r12d
    47bf:	41 8d 0c 00          	lea    (%r8,%rax,1),%ecx
    47c3:	41 29 c0             	sub    %eax,%r8d
    47c6:	43 8d 04 3f          	lea    (%r15,%r15,1),%eax
    47ca:	89 4f 04             	mov    %ecx,0x4(%rdi)
    47cd:	0f b6 4c 24 88       	movzbl -0x78(%rsp),%ecx
    47d2:	4d 63 c0             	movslq %r8d,%r8
    47d5:	d3 e0                	shl    %cl,%eax
    47d7:	44 89 f1             	mov    %r14d,%ecx
    47da:	29 c1                	sub    %eax,%ecx
    47dc:	85 c9                	test   %ecx,%ecx
    47de:	0f 8f 4d fe ff ff    	jg     4631 <riscv_dsp_cifft_rd4_q31+0x111>
    47e4:	8d 88 00 ff ff ff    	lea    -0x100(%rax),%ecx
    47ea:	45 89 f3             	mov    %r14d,%r11d
    47ed:	41 29 cb             	sub    %ecx,%r11d
    47f0:	45 85 db             	test   %r11d,%r11d
    47f3:	7e 6b                	jle    4860 <riscv_dsp_cifft_rd4_q31+0x340>
    47f5:	4d 63 db             	movslq %r11d,%r11
    47f8:	48 63 c9             	movslq %ecx,%rcx
    47fb:	42 8b 44 9d 00       	mov    0x0(%rbp,%r11,4),%eax
    4800:	44 8b 5c 8d 00       	mov    0x0(%rbp,%rcx,4),%r11d
    4805:	f7 d8                	neg    %eax
    4807:	e9 33 fe ff ff       	jmp    463f <riscv_dsp_cifft_rd4_q31+0x11f>
    480c:	8d 88 00 ff ff ff    	lea    -0x100(%rax),%ecx
    4812:	45 89 f0             	mov    %r14d,%r8d
    4815:	41 29 c8             	sub    %ecx,%r8d
    4818:	45 85 c0             	test   %r8d,%r8d
    481b:	7e 79                	jle    4896 <riscv_dsp_cifft_rd4_q31+0x376>
    481d:	4d 63 c0             	movslq %r8d,%r8
    4820:	48 63 c9             	movslq %ecx,%rcx
    4823:	42 8b 44 85 00       	mov    0x0(%rbp,%r8,4),%eax
    4828:	44 8b 44 8d 00       	mov    0x0(%rbp,%rcx,4),%r8d
    482d:	f7 d8                	neg    %eax
    482f:	e9 ed fe ff ff       	jmp    4721 <riscv_dsp_cifft_rd4_q31+0x201>
    4834:	8d 88 00 ff ff ff    	lea    -0x100(%rax),%ecx
    483a:	45 89 f3             	mov    %r14d,%r11d
    483d:	41 29 cb             	sub    %ecx,%r11d
    4840:	45 85 db             	test   %r11d,%r11d
    4843:	0f 8e 83 00 00 00    	jle    48cc <riscv_dsp_cifft_rd4_q31+0x3ac>
    4849:	4d 63 db             	movslq %r11d,%r11
    484c:	48 63 c9             	movslq %ecx,%rcx
    484f:	42 8b 44 9d 00       	mov    0x0(%rbp,%r11,4),%eax
    4854:	44 8b 5c 8d 00       	mov    0x0(%rbp,%rcx,4),%r11d
    4859:	f7 d8                	neg    %eax
    485b:	e9 61 fe ff ff       	jmp    46c1 <riscv_dsp_cifft_rd4_q31+0x1a1>
    4860:	44 8d 98 00 fe ff ff 	lea    -0x200(%rax),%r11d
    4867:	44 89 f1             	mov    %r14d,%ecx
    486a:	44 29 d9             	sub    %r11d,%ecx
    486d:	4d 63 db             	movslq %r11d,%r11
    4870:	46 8b 5c 9d 00       	mov    0x0(%rbp,%r11,4),%r11d
    4875:	48 63 c1             	movslq %ecx,%rax
    4878:	8b 44 85 00          	mov    0x0(%rbp,%rax,4),%eax
    487c:	41 f7 db             	neg    %r11d
    487f:	85 c9                	test   %ecx,%ecx
    4881:	0f 8e b8 fd ff ff    	jle    463f <riscv_dsp_cifft_rd4_q31+0x11f>
    4887:	f7 d8                	neg    %eax
    4889:	89 c1                	mov    %eax,%ecx
    488b:	44 89 d8             	mov    %r11d,%eax
    488e:	41 89 cb             	mov    %ecx,%r11d
    4891:	e9 a9 fd ff ff       	jmp    463f <riscv_dsp_cifft_rd4_q31+0x11f>
    4896:	8d 88 00 fe ff ff    	lea    -0x200(%rax),%ecx
    489c:	45 89 f2             	mov    %r14d,%r10d
    489f:	41 29 ca             	sub    %ecx,%r10d
    48a2:	48 63 c9             	movslq %ecx,%rcx
    48a5:	44 8b 44 8d 00       	mov    0x0(%rbp,%rcx,4),%r8d
    48aa:	49 63 c2             	movslq %r10d,%rax
    48ad:	8b 44 85 00          	mov    0x0(%rbp,%rax,4),%eax
    48b1:	41 f7 d8             	neg    %r8d
    48b4:	45 85 d2             	test   %r10d,%r10d
    48b7:	0f 8e 64 fe ff ff    	jle    4721 <riscv_dsp_cifft_rd4_q31+0x201>
    48bd:	f7 d8                	neg    %eax
    48bf:	89 c1                	mov    %eax,%ecx
    48c1:	44 89 c0             	mov    %r8d,%eax
    48c4:	41 89 c8             	mov    %ecx,%r8d
    48c7:	e9 55 fe ff ff       	jmp    4721 <riscv_dsp_cifft_rd4_q31+0x201>
    48cc:	44 8d 98 00 fe ff ff 	lea    -0x200(%rax),%r11d
    48d3:	44 89 f1             	mov    %r14d,%ecx
    48d6:	44 29 d9             	sub    %r11d,%ecx
    48d9:	4d 63 db             	movslq %r11d,%r11
    48dc:	46 8b 5c 9d 00       	mov    0x0(%rbp,%r11,4),%r11d
    48e1:	48 63 c1             	movslq %ecx,%rax
    48e4:	8b 44 85 00          	mov    0x0(%rbp,%rax,4),%eax
    48e8:	41 f7 db             	neg    %r11d
    48eb:	85 c9                	test   %ecx,%ecx
    48ed:	0f 8e ce fd ff ff    	jle    46c1 <riscv_dsp_cifft_rd4_q31+0x1a1>
    48f3:	f7 d8                	neg    %eax
    48f5:	89 c1                	mov    %eax,%ecx
    48f7:	44 89 d8             	mov    %r11d,%eax
    48fa:	41 89 cb             	mov    %ecx,%r11d
    48fd:	e9 bf fd ff ff       	jmp    46c1 <riscv_dsp_cifft_rd4_q31+0x1a1>
    4902:	8b 5c 24 0c          	mov    0xc(%rsp),%ebx
    4906:	8b 7c 24 14          	mov    0x14(%rsp),%edi
    490a:	c7 44 24 dc 04 00 00 	movl   $0x4,-0x24(%rsp)
    4911:	00 
    4912:	89 d8                	mov    %ebx,%eax
    4914:	89 7c 24 f4          	mov    %edi,-0xc(%rsp)
    4918:	d1 e8                	shr    %eax
    491a:	83 e8 02             	sub    $0x2,%eax
    491d:	89 44 24 08          	mov    %eax,0x8(%rsp)
    4921:	0f 84 4d 03 00 00    	je     4c74 <riscv_dsp_cifft_rd4_q31+0x754>
    4927:	b8 0a 00 00 00       	mov    $0xa,%eax
    492c:	29 d8                	sub    %ebx,%eax
    492e:	89 44 24 f0          	mov    %eax,-0x10(%rsp)
    4932:	66 0f 1f 44 00 00    	nopw   0x0(%rax,%rax,1)
    4938:	48 8b 44 24 f8       	mov    -0x8(%rsp),%rax
    493d:	8b 74 24 dc          	mov    -0x24(%rsp),%esi
    4941:	c1 6c 24 f4 02       	shrl   $0x2,-0xc(%rsp)
    4946:	44 8b 7c 24 f4       	mov    -0xc(%rsp),%r15d
    494b:	4e 8d 34 bd 00 00 00 	lea    0x0(,%r15,4),%r14
    4952:	00 
    4953:	4c 01 f0             	add    %r14,%rax
    4956:	48 89 44 24 e0       	mov    %rax,-0x20(%rsp)
    495b:	85 f6                	test   %esi,%esi
    495d:	0f 84 a9 00 00 00    	je     4a0c <riscv_dsp_cifft_rd4_q31+0x4ec>
    4963:	4d 89 fc             	mov    %r15,%r12
    4966:	4a 8d 0c 30          	lea    (%rax,%r14,1),%rcx
    496a:	44 8b 5c 24 dc       	mov    -0x24(%rsp),%r11d
    496f:	48 8b 44 24 f8       	mov    -0x8(%rsp),%rax
    4974:	49 c1 e4 04          	shl    $0x4,%r12
    4978:	0f 1f 84 00 00 00 00 	nopl   0x0(%rax,%rax,1)
    497f:	00 
    4980:	8b 10                	mov    (%rax),%edx
    4982:	42 8b 34 30          	mov    (%rax,%r14,1),%esi
    4986:	42 8b 2c 31          	mov    (%rcx,%r14,1),%ebp
    498a:	44 8b 11             	mov    (%rcx),%r10d
    498d:	01 f5                	add    %esi,%ebp
    498f:	41 01 d2             	add    %edx,%r10d
    4992:	42 2b 34 31          	sub    (%rcx,%r14,1),%esi
    4996:	2b 11                	sub    (%rcx),%edx
    4998:	41 8d 3c 2a          	lea    (%r10,%rbp,1),%edi
    499c:	41 29 ea             	sub    %ebp,%r10d
    499f:	89 38                	mov    %edi,(%rax)
    49a1:	8b 78 04             	mov    0x4(%rax),%edi
    49a4:	46 8b 44 30 04       	mov    0x4(%rax,%r14,1),%r8d
    49a9:	42 8b 5c 31 04       	mov    0x4(%rcx,%r14,1),%ebx
    49ae:	44 8b 49 04          	mov    0x4(%rcx),%r9d
    49b2:	44 01 c3             	add    %r8d,%ebx
    49b5:	46 2b 44 31 04       	sub    0x4(%rcx,%r14,1),%r8d
    49ba:	41 01 f9             	add    %edi,%r9d
    49bd:	2b 79 04             	sub    0x4(%rcx),%edi
    49c0:	45 8d 2c 19          	lea    (%r9,%rbx,1),%r13d
    49c4:	41 29 d9             	sub    %ebx,%r9d
    49c7:	44 89 68 04          	mov    %r13d,0x4(%rax)
    49cb:	46 89 4c 30 04       	mov    %r9d,0x4(%rax,%r14,1)
    49d0:	46 8d 0c 02          	lea    (%rdx,%r8,1),%r9d
    49d4:	44 29 c2             	sub    %r8d,%edx
    49d7:	46 89 14 30          	mov    %r10d,(%rax,%r14,1)
    49db:	66 0f 6e c2          	movd   %edx,%xmm0
    49df:	4c 01 e0             	add    %r12,%rax
    49e2:	44 89 09             	mov    %r9d,(%rcx)
    49e5:	41 89 f9             	mov    %edi,%r9d
    49e8:	41 29 f1             	sub    %esi,%r9d
    49eb:	01 fe                	add    %edi,%esi
    49ed:	66 0f 6e f6          	movd   %esi,%xmm6
    49f1:	44 89 49 04          	mov    %r9d,0x4(%rcx)
    49f5:	66 0f 62 c6          	punpckldq %xmm6,%xmm0
    49f9:	66 42 0f d6 04 31    	movq   %xmm0,(%rcx,%r14,1)
    49ff:	4c 01 e1             	add    %r12,%rcx
    4a02:	41 83 eb 01          	sub    $0x1,%r11d
    4a06:	0f 85 74 ff ff ff    	jne    4980 <riscv_dsp_cifft_rd4_q31+0x460>
    4a0c:	48 8b 5c 24 e0       	mov    -0x20(%rsp),%rbx
    4a11:	48 39 1c 24          	cmp    %rbx,(%rsp)
    4a15:	0f 84 49 02 00 00    	je     4c64 <riscv_dsp_cifft_rd4_q31+0x744>
    4a1b:	4a 8d 04 fd 00 00 00 	lea    0x0(,%r15,8),%rax
    4a22:	00 
    4a23:	c7 44 24 d8 00 00 00 	movl   $0x0,-0x28(%rsp)
    4a2a:	00 
    4a2b:	4c 89 fb             	mov    %r15,%rbx
    4a2e:	48 89 44 24 e8       	mov    %rax,-0x18(%rsp)
    4a33:	48 8b 04 24          	mov    (%rsp),%rax
    4a37:	48 c1 e3 04          	shl    $0x4,%rbx
    4a3b:	48 89 44 24 d0       	mov    %rax,-0x30(%rsp)
    4a40:	8b 7c 24 dc          	mov    -0x24(%rsp),%edi
    4a44:	0f b6 4c 24 f0       	movzbl -0x10(%rsp),%ecx
    4a49:	ba 00 01 00 00       	mov    $0x100,%edx
    4a4e:	01 7c 24 d8          	add    %edi,-0x28(%rsp)
    4a52:	8b 44 24 d8          	mov    -0x28(%rsp),%eax
    4a56:	d3 e0                	shl    %cl,%eax
    4a58:	29 c2                	sub    %eax,%edx
    4a5a:	85 d2                	test   %edx,%edx
    4a5c:	0f 8e d6 0e 00 00    	jle    5938 <riscv_dsp_cifft_rd4_q31+0x1418>
    4a62:	48 8d 3d 3f 1f 00 00 	lea    0x1f3f(%rip),%rdi        # 69a8 <riscv_dsp_cos_table_q31_1024+0x8>
    4a69:	48 98                	cltq   
    4a6b:	48 63 d2             	movslq %edx,%rdx
    4a6e:	8b 04 87             	mov    (%rdi,%rax,4),%eax
    4a71:	44 8b 2c 97          	mov    (%rdi,%rdx,4),%r13d
    4a75:	8b 7c 24 d8          	mov    -0x28(%rsp),%edi
    4a79:	0f b6 4c 24 f0       	movzbl -0x10(%rsp),%ecx
    4a7e:	8d 14 3f             	lea    (%rdi,%rdi,1),%edx
    4a81:	d3 e2                	shl    %cl,%edx
    4a83:	b9 00 01 00 00       	mov    $0x100,%ecx
    4a88:	29 d1                	sub    %edx,%ecx
    4a8a:	85 c9                	test   %ecx,%ecx
    4a8c:	0f 8e 3e 0e 00 00    	jle    58d0 <riscv_dsp_cifft_rd4_q31+0x13b0>
    4a92:	48 63 d2             	movslq %edx,%rdx
    4a95:	48 8d 3d 0c 1f 00 00 	lea    0x1f0c(%rip),%rdi        # 69a8 <riscv_dsp_cos_table_q31_1024+0x8>
    4a9c:	48 63 c9             	movslq %ecx,%rcx
    4a9f:	8b 34 97             	mov    (%rdi,%rdx,4),%esi
    4aa2:	8b 14 8f             	mov    (%rdi,%rcx,4),%edx
    4aa5:	8b 7c 24 d8          	mov    -0x28(%rsp),%edi
    4aa9:	0f b6 4c 24 f0       	movzbl -0x10(%rsp),%ecx
    4aae:	8d 3c 7f             	lea    (%rdi,%rdi,2),%edi
    4ab1:	d3 e7                	shl    %cl,%edi
    4ab3:	48 63 cf             	movslq %edi,%rcx
    4ab6:	bf 00 01 00 00       	mov    $0x100,%edi
    4abb:	29 cf                	sub    %ecx,%edi
    4abd:	85 ff                	test   %edi,%edi
    4abf:	0f 8e 3b 0e 00 00    	jle    5900 <riscv_dsp_cifft_rd4_q31+0x13e0>
    4ac5:	4c 8d 3d dc 1e 00 00 	lea    0x1edc(%rip),%r15        # 69a8 <riscv_dsp_cos_table_q31_1024+0x8>
    4acc:	48 63 ff             	movslq %edi,%rdi
    4acf:	41 8b 2c 8f          	mov    (%r15,%rcx,4),%ebp
    4ad3:	45 8b 24 bf          	mov    (%r15,%rdi,4),%r12d
    4ad7:	8b 4c 24 dc          	mov    -0x24(%rsp),%ecx
    4adb:	85 c9                	test   %ecx,%ecx
    4add:	0f 84 6b 01 00 00    	je     4c4e <riscv_dsp_cifft_rd4_q31+0x72e>
    4ae3:	48 98                	cltq   
    4ae5:	48 63 fe             	movslq %esi,%rdi
    4ae8:	4c 8b 44 24 e8       	mov    -0x18(%rsp),%r8
    4aed:	4d 63 ed             	movslq %r13d,%r13
    4af0:	48 89 44 24 b8       	mov    %rax,-0x48(%rsp)
    4af5:	8b 44 24 dc          	mov    -0x24(%rsp),%eax
    4af9:	48 63 ed             	movslq %ebp,%rbp
    4afc:	4d 63 e4             	movslq %r12d,%r12
    4aff:	48 89 7c 24 88       	mov    %rdi,-0x78(%rsp)
    4b04:	48 63 fa             	movslq %edx,%rdi
    4b07:	48 89 7c 24 98       	mov    %rdi,-0x68(%rsp)
    4b0c:	48 8b 7c 24 d0       	mov    -0x30(%rsp),%rdi
    4b11:	89 44 24 a8          	mov    %eax,-0x58(%rsp)
    4b15:	49 01 f8             	add    %rdi,%r8
    4b18:	0f 1f 84 00 00 00 00 	nopl   0x0(%rax,%rax,1)
    4b1f:	00 
    4b20:	42 8b 04 37          	mov    (%rdi,%r14,1),%eax
    4b24:	8b 0f                	mov    (%rdi),%ecx
    4b26:	41 8b 30             	mov    (%r8),%esi
    4b29:	43 8b 14 30          	mov    (%r8,%r14,1),%edx
    4b2d:	44 8b 57 04          	mov    0x4(%rdi),%r10d
    4b31:	01 c2                	add    %eax,%edx
    4b33:	01 ce                	add    %ecx,%esi
    4b35:	43 2b 04 30          	sub    (%r8,%r14,1),%eax
    4b39:	41 2b 08             	sub    (%r8),%ecx
    4b3c:	44 8d 0c 16          	lea    (%rsi,%rdx,1),%r9d
    4b40:	29 d6                	sub    %edx,%esi
    4b42:	44 89 0f             	mov    %r9d,(%rdi)
    4b45:	46 8b 5c 37 04       	mov    0x4(%rdi,%r14,1),%r11d
    4b4a:	48 63 f6             	movslq %esi,%rsi
    4b4d:	41 8b 50 04          	mov    0x4(%r8),%edx
    4b51:	47 8b 4c 30 04       	mov    0x4(%r8,%r14,1),%r9d
    4b56:	44 01 d2             	add    %r10d,%edx
    4b59:	45 01 d9             	add    %r11d,%r9d
    4b5c:	45 2b 50 04          	sub    0x4(%r8),%r10d
    4b60:	47 2b 5c 30 04       	sub    0x4(%r8,%r14,1),%r11d
    4b65:	46 8d 3c 0a          	lea    (%rdx,%r9,1),%r15d
    4b69:	44 29 ca             	sub    %r9d,%edx
    4b6c:	4c 8b 4c 24 88       	mov    -0x78(%rsp),%r9
    4b71:	44 89 7f 04          	mov    %r15d,0x4(%rdi)
    4b75:	4c 8b 7c 24 98       	mov    -0x68(%rsp),%r15
    4b7a:	48 63 d2             	movslq %edx,%rdx
    4b7d:	4c 0f af ce          	imul   %rsi,%r9
    4b81:	4c 0f af fa          	imul   %rdx,%r15
    4b85:	48 0f af 74 24 98    	imul   -0x68(%rsp),%rsi
    4b8b:	48 0f af 54 24 88    	imul   -0x78(%rsp),%rdx
    4b91:	4d 01 f9             	add    %r15,%r9
    4b94:	49 c1 f9 1f          	sar    $0x1f,%r9
    4b98:	48 29 f2             	sub    %rsi,%rdx
    4b9b:	44 89 d6             	mov    %r10d,%esi
    4b9e:	66 41 0f 6e c1       	movd   %r9d,%xmm0
    4ba3:	48 c1 fa 1f          	sar    $0x1f,%rdx
    4ba7:	29 c6                	sub    %eax,%esi
    4ba9:	44 01 d0             	add    %r10d,%eax
    4bac:	66 0f 6e da          	movd   %edx,%xmm3
    4bb0:	42 8d 14 19          	lea    (%rcx,%r11,1),%edx
    4bb4:	44 29 d9             	sub    %r11d,%ecx
    4bb7:	4c 8b 5c 24 b8       	mov    -0x48(%rsp),%r11
    4bbc:	48 63 d2             	movslq %edx,%rdx
    4bbf:	48 63 f6             	movslq %esi,%rsi
    4bc2:	48 63 c9             	movslq %ecx,%rcx
    4bc5:	48 98                	cltq   
    4bc7:	4d 89 d9             	mov    %r11,%r9
    4bca:	49 89 f2             	mov    %rsi,%r10
    4bcd:	66 0f 62 c3          	punpckldq %xmm3,%xmm0
    4bd1:	4c 0f af ca          	imul   %rdx,%r9
    4bd5:	66 42 0f d6 04 37    	movq   %xmm0,(%rdi,%r14,1)
    4bdb:	49 0f af d5          	imul   %r13,%rdx
    4bdf:	49 0f af f3          	imul   %r11,%rsi
    4be3:	4d 0f af d5          	imul   %r13,%r10
    4be7:	48 29 d6             	sub    %rdx,%rsi
    4bea:	48 89 ca             	mov    %rcx,%rdx
    4bed:	48 c1 fe 1f          	sar    $0x1f,%rsi
    4bf1:	48 0f af d5          	imul   %rbp,%rdx
    4bf5:	4d 01 d1             	add    %r10,%r9
    4bf8:	66 0f 6e ce          	movd   %esi,%xmm1
    4bfc:	48 89 c6             	mov    %rax,%rsi
    4bff:	49 c1 f9 1f          	sar    $0x1f,%r9
    4c03:	49 0f af f4          	imul   %r12,%rsi
    4c07:	66 41 0f 6e c1       	movd   %r9d,%xmm0
    4c0c:	66 0f 62 c1          	punpckldq %xmm1,%xmm0
    4c10:	66 41 0f d6 00       	movq   %xmm0,(%r8)
    4c15:	48 01 f2             	add    %rsi,%rdx
    4c18:	48 c1 fa 1f          	sar    $0x1f,%rdx
    4c1c:	48 0f af c5          	imul   %rbp,%rax
    4c20:	48 01 df             	add    %rbx,%rdi
    4c23:	49 0f af cc          	imul   %r12,%rcx
    4c27:	66 0f 6e c2          	movd   %edx,%xmm0
    4c2b:	48 29 c8             	sub    %rcx,%rax
    4c2e:	48 c1 f8 1f          	sar    $0x1f,%rax
    4c32:	66 0f 6e d0          	movd   %eax,%xmm2
    4c36:	66 0f 62 c2          	punpckldq %xmm2,%xmm0
    4c3a:	66 43 0f d6 04 30    	movq   %xmm0,(%r8,%r14,1)
    4c40:	49 01 d8             	add    %rbx,%r8
    4c43:	83 6c 24 a8 01       	subl   $0x1,-0x58(%rsp)
    4c48:	0f 85 d2 fe ff ff    	jne    4b20 <riscv_dsp_cifft_rd4_q31+0x600>
    4c4e:	48 83 44 24 d0 08    	addq   $0x8,-0x30(%rsp)
    4c54:	48 8b 44 24 d0       	mov    -0x30(%rsp),%rax
    4c59:	48 39 44 24 e0       	cmp    %rax,-0x20(%rsp)
    4c5e:	0f 85 dc fd ff ff    	jne    4a40 <riscv_dsp_cifft_rd4_q31+0x520>
    4c64:	c1 64 24 dc 02       	shll   $0x2,-0x24(%rsp)
    4c69:	83 6c 24 08 01       	subl   $0x1,0x8(%rsp)
    4c6e:	0f 85 c4 fc ff ff    	jne    4938 <riscv_dsp_cifft_rd4_q31+0x418>
    4c74:	8b 44 24 10          	mov    0x10(%rsp),%eax
    4c78:	48 8b 5c 24 f8       	mov    -0x8(%rsp),%rbx
    4c7d:	01 c0                	add    %eax,%eax
    4c7f:	4c 8d 3c 83          	lea    (%rbx,%rax,4),%r15
    4c83:	4c 39 fb             	cmp    %r15,%rbx
    4c86:	0f 84 e2 09 00 00    	je     566e <riscv_dsp_cifft_rd4_q31+0x114e>
    4c8c:	4c 89 fa             	mov    %r15,%rdx
    4c8f:	48 89 d8             	mov    %rbx,%rax
    4c92:	48 29 da             	sub    %rbx,%rdx
    4c95:	48 83 ea 20          	sub    $0x20,%rdx
    4c99:	48 89 d1             	mov    %rdx,%rcx
    4c9c:	48 c1 e9 05          	shr    $0x5,%rcx
    4ca0:	48 83 c1 01          	add    $0x1,%rcx
    4ca4:	48 83 fa 40          	cmp    $0x40,%rdx
    4ca8:	0f 86 35 07 00 00    	jbe    53e3 <riscv_dsp_cifft_rd4_q31+0xec3>
    4cae:	66 44 0f 6f 25 99 14 	movdqa 0x1499(%rip),%xmm12        # 6150 <_IO_stdin_used+0x150>
    4cb5:	00 00 
    4cb7:	48 89 ca             	mov    %rcx,%rdx
    4cba:	48 c1 ea 02          	shr    $0x2,%rdx
    4cbe:	48 c1 e2 07          	shl    $0x7,%rdx
    4cc2:	48 01 da             	add    %rbx,%rdx
    4cc5:	f3 44 0f 6f 08       	movdqu (%rax),%xmm9
    4cca:	f3 0f 6f 60 10       	movdqu 0x10(%rax),%xmm4
    4ccf:	66 45 0f ef ff       	pxor   %xmm15,%xmm15
    4cd4:	66 45 0f 6f dc       	movdqa %xmm12,%xmm11
    4cd9:	f3 0f 6f 50 20       	movdqu 0x20(%rax),%xmm2
    4cde:	f3 0f 6f 68 40       	movdqu 0x40(%rax),%xmm5
    4ce3:	66 45 0f 6f f7       	movdqa %xmm15,%xmm14
    4ce8:	48 83 e8 80          	sub    $0xffffffffffffff80,%rax
    4cec:	66 41 0f 6f c1       	movdqa %xmm9,%xmm0
    4cf1:	44 0f c6 cc dd       	shufps $0xdd,%xmm4,%xmm9
    4cf6:	f3 0f 6f 78 d0       	movdqu -0x30(%rax),%xmm7
    4cfb:	f3 0f 6f 48 e0       	movdqu -0x20(%rax),%xmm1
    4d00:	0f c6 c4 88          	shufps $0x88,%xmm4,%xmm0
    4d04:	f3 0f 6f 60 b0       	movdqu -0x50(%rax),%xmm4
    4d09:	66 0f 6f f2          	movdqa %xmm2,%xmm6
    4d0d:	66 45 0f 6f d1       	movdqa %xmm9,%xmm10
    4d12:	66 0f 6f d9          	movdqa %xmm1,%xmm3
    4d16:	0f c6 f4 88          	shufps $0x88,%xmm4,%xmm6
    4d1a:	0f c6 d4 dd          	shufps $0xdd,%xmm4,%xmm2
    4d1e:	66 0f 6f e5          	movdqa %xmm5,%xmm4
    4d22:	0f c6 ef dd          	shufps $0xdd,%xmm7,%xmm5
    4d26:	0f c6 e7 88          	shufps $0x88,%xmm7,%xmm4
    4d2a:	f3 0f 6f 78 f0       	movdqu -0x10(%rax),%xmm7
    4d2f:	44 0f c6 d2 88       	shufps $0x88,%xmm2,%xmm10
    4d34:	44 0f c6 ca dd       	shufps $0xdd,%xmm2,%xmm9
    4d39:	0f c6 df 88          	shufps $0x88,%xmm7,%xmm3
    4d3d:	0f c6 cf dd          	shufps $0xdd,%xmm7,%xmm1
    4d41:	66 0f 6f f8          	movdqa %xmm0,%xmm7
    4d45:	0f c6 c6 dd          	shufps $0xdd,%xmm6,%xmm0
    4d49:	0f c6 fe 88          	shufps $0x88,%xmm6,%xmm7
    4d4d:	66 0f 6f f4          	movdqa %xmm4,%xmm6
    4d51:	0f c6 e3 dd          	shufps $0xdd,%xmm3,%xmm4
    4d55:	66 0f 6f d7          	movdqa %xmm7,%xmm2
    4d59:	0f c6 f3 88          	shufps $0x88,%xmm3,%xmm6
    4d5d:	66 0f 6f dd          	movdqa %xmm5,%xmm3
    4d61:	0f c6 e9 dd          	shufps $0xdd,%xmm1,%xmm5
    4d65:	0f c6 d6 88          	shufps $0x88,%xmm6,%xmm2
    4d69:	0f c6 d9 88          	shufps $0x88,%xmm1,%xmm3
    4d6d:	66 41 0f 6f ca       	movdqa %xmm10,%xmm1
    4d72:	44 0f c6 d3 dd       	shufps $0xdd,%xmm3,%xmm10
    4d77:	0f c6 fe dd          	shufps $0xdd,%xmm6,%xmm7
    4d7b:	0f c6 cb 88          	shufps $0x88,%xmm3,%xmm1
    4d7f:	66 0f 6f d8          	movdqa %xmm0,%xmm3
    4d83:	0f c6 c4 dd          	shufps $0xdd,%xmm4,%xmm0
    4d87:	66 0f 6f f7          	movdqa %xmm7,%xmm6
    4d8b:	66 44 0f 6f c0       	movdqa %xmm0,%xmm8
    4d90:	0f c6 dc 88          	shufps $0x88,%xmm4,%xmm3
    4d94:	66 0f fe f2          	paddd  %xmm2,%xmm6
    4d98:	66 41 0f 6f e1       	movdqa %xmm9,%xmm4
    4d9d:	66 44 0f fe c3       	paddd  %xmm3,%xmm8
    4da2:	66 0f fa d8          	psubd  %xmm0,%xmm3
    4da6:	66 0f 6f 05 b2 13 00 	movdqa 0x13b2(%rip),%xmm0        # 6160 <_IO_stdin_used+0x160>
    4dad:	00 
    4dae:	0f c6 e5 88          	shufps $0x88,%xmm5,%xmm4
    4db2:	66 0f fa d7          	psubd  %xmm7,%xmm2
    4db6:	44 0f c6 cd dd       	shufps $0xdd,%xmm5,%xmm9
    4dbb:	66 41 0f 6f f9       	movdqa %xmm9,%xmm7
    4dc0:	66 45 0f fa d8       	psubd  %xmm8,%xmm11
    4dc5:	66 0f fe fc          	paddd  %xmm4,%xmm7
    4dc9:	66 45 0f 6f e8       	movdqa %xmm8,%xmm13
    4dce:	66 41 0f fa e1       	psubd  %xmm9,%xmm4
    4dd3:	66 41 0f fa c0       	psubd  %xmm8,%xmm0
    4dd8:	66 44 0f 6f ce       	movdqa %xmm6,%xmm9
    4ddd:	66 41 0f 6f ea       	movdqa %xmm10,%xmm5
    4de2:	66 45 0f 66 ef       	pcmpgtd %xmm15,%xmm13
    4de7:	66 45 0f 66 f0       	pcmpgtd %xmm8,%xmm14
    4dec:	66 0f fe e9          	paddd  %xmm1,%xmm5
    4df0:	66 0f 66 c6          	pcmpgtd %xmm6,%xmm0
    4df4:	66 45 0f 66 cb       	pcmpgtd %xmm11,%xmm9
    4df9:	66 41 0f fa ca       	psubd  %xmm10,%xmm1
    4dfe:	66 44 0f 6f d6       	movdqa %xmm6,%xmm10
    4e03:	66 45 0f 6f d8       	movdqa %xmm8,%xmm11
    4e08:	66 41 0f 72 e2 1f    	psrad  $0x1f,%xmm10
    4e0e:	66 44 0f fe de       	paddd  %xmm6,%xmm11
    4e13:	44 0f 29 6c 24 88    	movaps %xmm13,-0x78(%rsp)
    4e19:	66 45 0f db cd       	pand   %xmm13,%xmm9
    4e1e:	66 45 0f ef d4       	pxor   %xmm12,%xmm10
    4e23:	66 41 0f db c6       	pand   %xmm14,%xmm0
    4e28:	66 41 0f eb c1       	por    %xmm9,%xmm0
    4e2d:	66 45 0f 6f ca       	movdqa %xmm10,%xmm9
    4e32:	66 44 0f db c8       	pand   %xmm0,%xmm9
    4e37:	66 41 0f df c3       	pandn  %xmm11,%xmm0
    4e3c:	66 41 0f eb c1       	por    %xmm9,%xmm0
    4e41:	66 44 0f 6f d8       	movdqa %xmm0,%xmm11
    4e46:	66 41 0f 72 f3 01    	pslld  $0x1,%xmm11
    4e4c:	66 45 0f 6f cb       	movdqa %xmm11,%xmm9
    4e51:	66 41 0f 72 e1 01    	psrad  $0x1,%xmm9
    4e57:	66 45 0f 6f e9       	movdqa %xmm9,%xmm13
    4e5c:	66 44 0f 6f c8       	movdqa %xmm0,%xmm9
    4e61:	66 41 0f 76 c5       	pcmpeqd %xmm13,%xmm0
    4e66:	66 41 0f 72 e1 1f    	psrad  $0x1f,%xmm9
    4e6c:	66 45 0f ef cc       	pxor   %xmm12,%xmm9
    4e71:	66 44 0f db d8       	pand   %xmm0,%xmm11
    4e76:	66 41 0f df c1       	pandn  %xmm9,%xmm0
    4e7b:	66 44 0f 6f cf       	movdqa %xmm7,%xmm9
    4e80:	66 41 0f eb c3       	por    %xmm11,%xmm0
    4e85:	66 45 0f 66 cf       	pcmpgtd %xmm15,%xmm9
    4e8a:	66 44 0f 6f 1d cd 12 	movdqa 0x12cd(%rip),%xmm11        # 6160 <_IO_stdin_used+0x160>
    4e91:	00 00 
    4e93:	0f 29 44 24 98       	movaps %xmm0,-0x68(%rsp)
    4e98:	66 0f ef c0          	pxor   %xmm0,%xmm0
    4e9c:	66 44 0f fa df       	psubd  %xmm7,%xmm11
    4ea1:	66 0f 66 c7          	pcmpgtd %xmm7,%xmm0
    4ea5:	66 44 0f 66 dd       	pcmpgtd %xmm5,%xmm11
    4eaa:	66 45 0f 6f f9       	movdqa %xmm9,%xmm15
    4eaf:	66 44 0f 6f cd       	movdqa %xmm5,%xmm9
    4eb4:	66 41 0f 72 e1 1f    	psrad  $0x1f,%xmm9
    4eba:	44 0f 29 7c 24 a8    	movaps %xmm15,-0x58(%rsp)
    4ec0:	0f 29 44 24 b8       	movaps %xmm0,-0x48(%rsp)
    4ec5:	66 45 0f ef cc       	pxor   %xmm12,%xmm9
    4eca:	66 44 0f db d8       	pand   %xmm0,%xmm11
    4ecf:	66 41 0f 6f c4       	movdqa %xmm12,%xmm0
    4ed4:	66 0f fa c7          	psubd  %xmm7,%xmm0
    4ed8:	66 44 0f 6f e8       	movdqa %xmm0,%xmm13
    4edd:	66 0f 6f c5          	movdqa %xmm5,%xmm0
    4ee1:	66 41 0f 66 c5       	pcmpgtd %xmm13,%xmm0
    4ee6:	66 41 0f db c7       	pand   %xmm15,%xmm0
    4eeb:	66 41 0f eb c3       	por    %xmm11,%xmm0
    4ef0:	66 44 0f 6f df       	movdqa %xmm7,%xmm11
    4ef5:	66 44 0f fe dd       	paddd  %xmm5,%xmm11
    4efa:	66 45 0f 6f eb       	movdqa %xmm11,%xmm13
    4eff:	66 45 0f 6f d9       	movdqa %xmm9,%xmm11
    4f04:	66 44 0f db d8       	pand   %xmm0,%xmm11
    4f09:	66 41 0f df c5       	pandn  %xmm13,%xmm0
    4f0e:	66 41 0f eb c3       	por    %xmm11,%xmm0
    4f13:	66 44 0f 6f d8       	movdqa %xmm0,%xmm11
    4f18:	66 44 0f 6f e8       	movdqa %xmm0,%xmm13
    4f1d:	66 41 0f 72 f3 01    	pslld  $0x1,%xmm11
    4f23:	66 41 0f 72 e5 1f    	psrad  $0x1f,%xmm13
    4f29:	66 45 0f 6f fb       	movdqa %xmm11,%xmm15
    4f2e:	66 45 0f ef ec       	pxor   %xmm12,%xmm13
    4f33:	66 41 0f 72 e7 01    	psrad  $0x1,%xmm15
    4f39:	66 41 0f 76 c7       	pcmpeqd %xmm15,%xmm0
    4f3e:	66 44 0f db d8       	pand   %xmm0,%xmm11
    4f43:	66 41 0f df c5       	pandn  %xmm13,%xmm0
    4f48:	66 41 0f eb c3       	por    %xmm11,%xmm0
    4f4d:	66 45 0f ef db       	pxor   %xmm11,%xmm11
    4f52:	66 44 0f fa d8       	psubd  %xmm0,%xmm11
    4f57:	66 0f 6f c6          	movdqa %xmm6,%xmm0
    4f5b:	66 45 0f 6f fb       	movdqa %xmm11,%xmm15
    4f60:	66 45 0f 6f d8       	movdqa %xmm8,%xmm11
    4f65:	66 45 0f fe dc       	paddd  %xmm12,%xmm11
    4f6a:	66 41 0f 66 c3       	pcmpgtd %xmm11,%xmm0
    4f6f:	66 44 0f 6f 1d e8 11 	movdqa 0x11e8(%rip),%xmm11        # 6160 <_IO_stdin_used+0x160>
    4f76:	00 00 
    4f78:	66 45 0f fe d8       	paddd  %xmm8,%xmm11
    4f7d:	66 44 0f 66 de       	pcmpgtd %xmm6,%xmm11
    4f82:	66 41 0f db c6       	pand   %xmm14,%xmm0
    4f87:	66 41 0f fa f0       	psubd  %xmm8,%xmm6
    4f8c:	66 44 0f db 5c 24 88 	pand   -0x78(%rsp),%xmm11
    4f93:	66 44 0f 6f f4       	movdqa %xmm4,%xmm14
    4f98:	66 44 0f eb d8       	por    %xmm0,%xmm11
    4f9d:	66 45 0f db d3       	pand   %xmm11,%xmm10
    4fa2:	66 44 0f df de       	pandn  %xmm6,%xmm11
    4fa7:	66 45 0f eb da       	por    %xmm10,%xmm11
    4fac:	66 45 0f 6f c3       	movdqa %xmm11,%xmm8
    4fb1:	66 45 0f 6f d3       	movdqa %xmm11,%xmm10
    4fb6:	66 41 0f 72 f0 01    	pslld  $0x1,%xmm8
    4fbc:	66 41 0f 72 e2 1f    	psrad  $0x1f,%xmm10
    4fc2:	66 41 0f 6f f0       	movdqa %xmm8,%xmm6
    4fc7:	66 41 0f 6f c2       	movdqa %xmm10,%xmm0
    4fcc:	66 44 0f 6f d5       	movdqa %xmm5,%xmm10
    4fd1:	66 0f 72 e6 01       	psrad  $0x1,%xmm6
    4fd6:	66 41 0f ef c4       	pxor   %xmm12,%xmm0
    4fdb:	66 41 0f 76 f3       	pcmpeqd %xmm11,%xmm6
    4fe0:	66 45 0f ef db       	pxor   %xmm11,%xmm11
    4fe5:	66 45 0f 6f eb       	movdqa %xmm11,%xmm13
    4fea:	66 45 0f 66 f3       	pcmpgtd %xmm11,%xmm14
    4fef:	66 44 0f 66 ec       	pcmpgtd %xmm4,%xmm13
    4ff4:	66 44 0f db c6       	pand   %xmm6,%xmm8
    4ff9:	66 0f df f0          	pandn  %xmm0,%xmm6
    4ffd:	66 0f 6f 44 24 b8    	movdqa -0x48(%rsp),%xmm0
    5003:	66 41 0f eb f0       	por    %xmm8,%xmm6
    5008:	66 44 0f 6f c7       	movdqa %xmm7,%xmm8
    500d:	66 45 0f fe c4       	paddd  %xmm12,%xmm8
    5012:	66 45 0f 66 d0       	pcmpgtd %xmm8,%xmm10
    5017:	66 44 0f 6f 05 40 11 	movdqa 0x1140(%rip),%xmm8        # 6160 <_IO_stdin_used+0x160>
    501e:	00 00 
    5020:	66 44 0f fe c7       	paddd  %xmm7,%xmm8
    5025:	66 44 0f 66 c5       	pcmpgtd %xmm5,%xmm8
    502a:	66 44 0f db 44 24 a8 	pand   -0x58(%rsp),%xmm8
    5031:	66 41 0f db c2       	pand   %xmm10,%xmm0
    5036:	66 0f fa ef          	psubd  %xmm7,%xmm5
    503a:	66 41 0f eb c0       	por    %xmm8,%xmm0
    503f:	66 45 0f ef c0       	pxor   %xmm8,%xmm8
    5044:	66 44 0f db c8       	pand   %xmm0,%xmm9
    5049:	66 0f df c5          	pandn  %xmm5,%xmm0
    504d:	66 44 0f eb c8       	por    %xmm0,%xmm9
    5052:	66 41 0f 6f e9       	movdqa %xmm9,%xmm5
    5057:	66 0f 72 f5 01       	pslld  $0x1,%xmm5
    505c:	66 0f 6f fd          	movdqa %xmm5,%xmm7
    5060:	66 0f 72 e7 01       	psrad  $0x1,%xmm7
    5065:	66 0f 6f c7          	movdqa %xmm7,%xmm0
    5069:	66 41 0f 6f f9       	movdqa %xmm9,%xmm7
    506e:	66 41 0f 76 c1       	pcmpeqd %xmm9,%xmm0
    5073:	66 0f 72 e7 1f       	psrad  $0x1f,%xmm7
    5078:	66 45 0f 6f cc       	movdqa %xmm12,%xmm9
    507d:	66 41 0f ef fc       	pxor   %xmm12,%xmm7
    5082:	66 44 0f fa cc       	psubd  %xmm4,%xmm9
    5087:	66 0f db e8          	pand   %xmm0,%xmm5
    508b:	66 0f df c7          	pandn  %xmm7,%xmm0
    508f:	66 0f 6f fa          	movdqa %xmm2,%xmm7
    5093:	66 0f eb c5          	por    %xmm5,%xmm0
    5097:	66 0f 6f 2d c1 10 00 	movdqa 0x10c1(%rip),%xmm5        # 6160 <_IO_stdin_used+0x160>
    509e:	00 
    509f:	66 0f 72 e7 1f       	psrad  $0x1f,%xmm7
    50a4:	66 44 0f fa c0       	psubd  %xmm0,%xmm8
    50a9:	66 41 0f ef fc       	pxor   %xmm12,%xmm7
    50ae:	66 0f fa ec          	psubd  %xmm4,%xmm5
    50b2:	66 0f 6f c5          	movdqa %xmm5,%xmm0
    50b6:	66 0f 6f ea          	movdqa %xmm2,%xmm5
    50ba:	66 0f 66 c2          	pcmpgtd %xmm2,%xmm0
    50be:	66 41 0f 66 e9       	pcmpgtd %xmm9,%xmm5
    50c3:	66 44 0f 6f cc       	movdqa %xmm4,%xmm9
    50c8:	66 44 0f fe ca       	paddd  %xmm2,%xmm9
    50cd:	66 41 0f db ee       	pand   %xmm14,%xmm5
    50d2:	66 41 0f db c5       	pand   %xmm13,%xmm0
    50d7:	66 0f eb c5          	por    %xmm5,%xmm0
    50db:	66 0f 6f ef          	movdqa %xmm7,%xmm5
    50df:	66 0f db e8          	pand   %xmm0,%xmm5
    50e3:	66 41 0f df c1       	pandn  %xmm9,%xmm0
    50e8:	66 0f eb c5          	por    %xmm5,%xmm0
    50ec:	66 44 0f 6f c8       	movdqa %xmm0,%xmm9
    50f1:	66 0f 6f e8          	movdqa %xmm0,%xmm5
    50f5:	66 41 0f 72 f1 01    	pslld  $0x1,%xmm9
    50fb:	66 0f 72 e5 1f       	psrad  $0x1f,%xmm5
    5100:	66 45 0f 6f d1       	movdqa %xmm9,%xmm10
    5105:	66 41 0f ef ec       	pxor   %xmm12,%xmm5
    510a:	66 41 0f 72 e2 01    	psrad  $0x1,%xmm10
    5110:	66 41 0f 76 c2       	pcmpeqd %xmm10,%xmm0
    5115:	66 44 0f 6f d3       	movdqa %xmm3,%xmm10
    511a:	66 45 0f 66 d3       	pcmpgtd %xmm11,%xmm10
    511f:	66 44 0f 66 db       	pcmpgtd %xmm3,%xmm11
    5124:	66 44 0f db c8       	pand   %xmm0,%xmm9
    5129:	66 0f df c5          	pandn  %xmm5,%xmm0
    512d:	66 0f 6f e8          	movdqa %xmm0,%xmm5
    5131:	66 0f 6f c1          	movdqa %xmm1,%xmm0
    5135:	44 0f 29 54 24 a8    	movaps %xmm10,-0x58(%rsp)
    513b:	66 41 0f eb e9       	por    %xmm9,%xmm5
    5140:	66 44 0f 6f cb       	movdqa %xmm3,%xmm9
    5145:	66 45 0f fe cc       	paddd  %xmm12,%xmm9
    514a:	0f 29 6c 24 88       	movaps %xmm5,-0x78(%rsp)
    514f:	66 0f 6f e9          	movdqa %xmm1,%xmm5
    5153:	66 41 0f 66 c1       	pcmpgtd %xmm9,%xmm0
    5158:	66 0f 72 e5 1f       	psrad  $0x1f,%xmm5
    515d:	66 44 0f 6f 0d fa 0f 	movdqa 0xffa(%rip),%xmm9        # 6160 <_IO_stdin_used+0x160>
    5164:	00 00 
    5166:	66 41 0f ef ec       	pxor   %xmm12,%xmm5
    516b:	66 44 0f fe cb       	paddd  %xmm3,%xmm9
    5170:	66 44 0f 66 c9       	pcmpgtd %xmm1,%xmm9
    5175:	66 41 0f db c3       	pand   %xmm11,%xmm0
    517a:	66 45 0f db ca       	pand   %xmm10,%xmm9
    517f:	66 41 0f eb c1       	por    %xmm9,%xmm0
    5184:	66 44 0f 6f c9       	movdqa %xmm1,%xmm9
    5189:	66 44 0f fa cb       	psubd  %xmm3,%xmm9
    518e:	66 45 0f 6f d1       	movdqa %xmm9,%xmm10
    5193:	66 44 0f 6f cd       	movdqa %xmm5,%xmm9
    5198:	66 44 0f db c8       	pand   %xmm0,%xmm9
    519d:	66 41 0f df c2       	pandn  %xmm10,%xmm0
    51a2:	66 41 0f eb c1       	por    %xmm9,%xmm0
    51a7:	66 44 0f 6f c8       	movdqa %xmm0,%xmm9
    51ac:	66 41 0f 72 f1 01    	pslld  $0x1,%xmm9
    51b2:	66 45 0f 6f d1       	movdqa %xmm9,%xmm10
    51b7:	66 41 0f 72 e2 01    	psrad  $0x1,%xmm10
    51bd:	44 0f 29 54 24 b8    	movaps %xmm10,-0x48(%rsp)
    51c3:	66 44 0f 6f d0       	movdqa %xmm0,%xmm10
    51c8:	66 0f 76 44 24 b8    	pcmpeqd -0x48(%rsp),%xmm0
    51ce:	66 41 0f 72 e2 1f    	psrad  $0x1f,%xmm10
    51d4:	66 45 0f ef d4       	pxor   %xmm12,%xmm10
    51d9:	66 44 0f db c8       	pand   %xmm0,%xmm9
    51de:	66 41 0f df c2       	pandn  %xmm10,%xmm0
    51e3:	66 41 0f eb c1       	por    %xmm9,%xmm0
    51e8:	66 45 0f ef c9       	pxor   %xmm9,%xmm9
    51ed:	66 44 0f fa c8       	psubd  %xmm0,%xmm9
    51f2:	66 0f 6f c2          	movdqa %xmm2,%xmm0
    51f6:	66 45 0f 6f d1       	movdqa %xmm9,%xmm10
    51fb:	66 44 0f 6f 0d 5c 0f 	movdqa 0xf5c(%rip),%xmm9        # 6160 <_IO_stdin_used+0x160>
    5202:	00 00 
    5204:	66 44 0f fe cc       	paddd  %xmm4,%xmm9
    5209:	66 44 0f 66 ca       	pcmpgtd %xmm2,%xmm9
    520e:	66 0f fa d4          	psubd  %xmm4,%xmm2
    5212:	66 45 0f db ce       	pand   %xmm14,%xmm9
    5217:	66 44 0f 6f f4       	movdqa %xmm4,%xmm14
    521c:	66 45 0f fe f4       	paddd  %xmm12,%xmm14
    5221:	66 41 0f 66 c6       	pcmpgtd %xmm14,%xmm0
    5226:	66 41 0f db c5       	pand   %xmm13,%xmm0
    522b:	66 41 0f eb c1       	por    %xmm9,%xmm0
    5230:	66 45 0f 6f c8       	movdqa %xmm8,%xmm9
    5235:	66 0f db f8          	pand   %xmm0,%xmm7
    5239:	66 0f df c2          	pandn  %xmm2,%xmm0
    523d:	66 0f eb c7          	por    %xmm7,%xmm0
    5241:	66 0f 6f e0          	movdqa %xmm0,%xmm4
    5245:	66 0f 6f d0          	movdqa %xmm0,%xmm2
    5249:	66 0f 72 f4 01       	pslld  $0x1,%xmm4
    524e:	66 0f 72 e2 1f       	psrad  $0x1f,%xmm2
    5253:	66 0f 6f fc          	movdqa %xmm4,%xmm7
    5257:	66 41 0f ef d4       	pxor   %xmm12,%xmm2
    525c:	66 0f 72 e7 01       	psrad  $0x1,%xmm7
    5261:	66 0f 76 c7          	pcmpeqd %xmm7,%xmm0
    5265:	66 41 0f 6f fc       	movdqa %xmm12,%xmm7
    526a:	66 0f fa fb          	psubd  %xmm3,%xmm7
    526e:	66 0f db e0          	pand   %xmm0,%xmm4
    5272:	66 0f df c2          	pandn  %xmm2,%xmm0
    5276:	66 0f 6f d0          	movdqa %xmm0,%xmm2
    527a:	66 0f 6f 05 de 0e 00 	movdqa 0xede(%rip),%xmm0        # 6160 <_IO_stdin_used+0x160>
    5281:	00 
    5282:	66 0f eb d4          	por    %xmm4,%xmm2
    5286:	66 0f 6f e1          	movdqa %xmm1,%xmm4
    528a:	66 0f fa c3          	psubd  %xmm3,%xmm0
    528e:	66 0f 66 e7          	pcmpgtd %xmm7,%xmm4
    5292:	66 0f db 64 24 a8    	pand   -0x58(%rsp),%xmm4
    5298:	66 0f 6f 7c 24 88    	movdqa -0x78(%rsp),%xmm7
    529e:	66 0f 66 c1          	pcmpgtd %xmm1,%xmm0
    52a2:	66 0f fe cb          	paddd  %xmm3,%xmm1
    52a6:	66 41 0f db c3       	pand   %xmm11,%xmm0
    52ab:	66 0f eb c4          	por    %xmm4,%xmm0
    52af:	66 0f 6f 64 24 98    	movdqa -0x68(%rsp),%xmm4
    52b5:	66 0f db e8          	pand   %xmm0,%xmm5
    52b9:	66 0f df c1          	pandn  %xmm1,%xmm0
    52bd:	66 0f eb e8          	por    %xmm0,%xmm5
    52c1:	66 0f 6f cd          	movdqa %xmm5,%xmm1
    52c5:	66 0f 72 f1 01       	pslld  $0x1,%xmm1
    52ca:	66 0f 6f d9          	movdqa %xmm1,%xmm3
    52ce:	66 0f 6f c1          	movdqa %xmm1,%xmm0
    52d2:	66 0f 6f cd          	movdqa %xmm5,%xmm1
    52d6:	66 0f 72 e3 01       	psrad  $0x1,%xmm3
    52db:	66 0f 72 e1 1f       	psrad  $0x1f,%xmm1
    52e0:	66 0f 76 eb          	pcmpeqd %xmm3,%xmm5
    52e4:	66 41 0f ef cc       	pxor   %xmm12,%xmm1
    52e9:	66 0f ef db          	pxor   %xmm3,%xmm3
    52ed:	66 0f db c5          	pand   %xmm5,%xmm0
    52f1:	66 0f df e9          	pandn  %xmm1,%xmm5
    52f5:	66 0f 6f cc          	movdqa %xmm4,%xmm1
    52f9:	66 0f eb e8          	por    %xmm0,%xmm5
    52fd:	66 0f 62 cf          	punpckldq %xmm7,%xmm1
    5301:	66 0f 6a e7          	punpckhdq %xmm7,%xmm4
    5305:	66 0f fa dd          	psubd  %xmm5,%xmm3
    5309:	66 0f 6f fe          	movdqa %xmm6,%xmm7
    530d:	66 41 0f 6f c7       	movdqa %xmm15,%xmm0
    5312:	66 0f 62 fa          	punpckldq %xmm2,%xmm7
    5316:	66 0f 6a f2          	punpckhdq %xmm2,%xmm6
    531a:	66 44 0f 6a c3       	punpckhdq %xmm3,%xmm8
    531f:	66 44 0f 62 cb       	punpckldq %xmm3,%xmm9
    5324:	66 41 0f 62 c2       	punpckldq %xmm10,%xmm0
    5329:	66 0f 6f d9          	movdqa %xmm1,%xmm3
    532d:	66 0f 6f d1          	movdqa %xmm1,%xmm2
    5331:	66 41 0f 6f ef       	movdqa %xmm15,%xmm5
    5336:	66 0f 62 df          	punpckldq %xmm7,%xmm3
    533a:	66 0f 6a d7          	punpckhdq %xmm7,%xmm2
    533e:	66 41 0f 6a ea       	punpckhdq %xmm10,%xmm5
    5343:	66 0f 6f cc          	movdqa %xmm4,%xmm1
    5347:	66 0f 6f f8          	movdqa %xmm0,%xmm7
    534b:	66 0f 62 ce          	punpckldq %xmm6,%xmm1
    534f:	66 0f 6a e6          	punpckhdq %xmm6,%xmm4
    5353:	66 41 0f 62 f9       	punpckldq %xmm9,%xmm7
    5358:	66 0f 6f f5          	movdqa %xmm5,%xmm6
    535c:	66 41 0f 6a e8       	punpckhdq %xmm8,%xmm5
    5361:	66 41 0f 62 f0       	punpckldq %xmm8,%xmm6
    5366:	66 44 0f 6f c3       	movdqa %xmm3,%xmm8
    536b:	66 0f 6a df          	punpckhdq %xmm7,%xmm3
    536f:	66 41 0f 6a c1       	punpckhdq %xmm9,%xmm0
    5374:	0f 11 58 90          	movups %xmm3,-0x70(%rax)
    5378:	66 0f 6f da          	movdqa %xmm2,%xmm3
    537c:	66 44 0f 62 c7       	punpckldq %xmm7,%xmm8
    5381:	66 0f 62 d8          	punpckldq %xmm0,%xmm3
    5385:	66 0f 6a d0          	punpckhdq %xmm0,%xmm2
    5389:	66 0f 6f c1          	movdqa %xmm1,%xmm0
    538d:	44 0f 11 40 80       	movups %xmm8,-0x80(%rax)
    5392:	66 0f 62 c6          	punpckldq %xmm6,%xmm0
    5396:	0f 11 58 a0          	movups %xmm3,-0x60(%rax)
    539a:	66 0f 6a ce          	punpckhdq %xmm6,%xmm1
    539e:	0f 11 40 c0          	movups %xmm0,-0x40(%rax)
    53a2:	66 0f 6f c4          	movdqa %xmm4,%xmm0
    53a6:	66 0f 6a e5          	punpckhdq %xmm5,%xmm4
    53aa:	66 0f 62 c5          	punpckldq %xmm5,%xmm0
    53ae:	0f 11 50 b0          	movups %xmm2,-0x50(%rax)
    53b2:	0f 11 48 d0          	movups %xmm1,-0x30(%rax)
    53b6:	0f 11 40 e0          	movups %xmm0,-0x20(%rax)
    53ba:	0f 11 60 f0          	movups %xmm4,-0x10(%rax)
    53be:	48 39 d0             	cmp    %rdx,%rax
    53c1:	0f 85 fe f8 ff ff    	jne    4cc5 <riscv_dsp_cifft_rd4_q31+0x7a5>
    53c7:	48 89 ca             	mov    %rcx,%rdx
    53ca:	48 83 e2 fc          	and    $0xfffffffffffffffc,%rdx
    53ce:	48 89 d0             	mov    %rdx,%rax
    53d1:	48 c1 e0 05          	shl    $0x5,%rax
    53d5:	48 03 44 24 f8       	add    -0x8(%rsp),%rax
    53da:	48 39 ca             	cmp    %rcx,%rdx
    53dd:	0f 84 8b 02 00 00    	je     566e <riscv_dsp_cifft_rd4_q31+0x114e>
    53e3:	41 be ff ff ff 7f    	mov    $0x7fffffff,%r14d
    53e9:	0f 1f 80 00 00 00 00 	nopl   0x0(%rax)
    53f0:	8b 30                	mov    (%rax),%esi
    53f2:	8b 48 08             	mov    0x8(%rax),%ecx
    53f5:	44 8b 58 10          	mov    0x10(%rax),%r11d
    53f9:	44 8b 40 18          	mov    0x18(%rax),%r8d
    53fd:	8b 78 04             	mov    0x4(%rax),%edi
    5400:	8b 50 0c             	mov    0xc(%rax),%edx
    5403:	8b 58 14             	mov    0x14(%rax),%ebx
    5406:	44 8b 48 1c          	mov    0x1c(%rax),%r9d
    540a:	41 01 f3             	add    %esi,%r11d
    540d:	41 01 c8             	add    %ecx,%r8d
    5410:	2b 70 10             	sub    0x10(%rax),%esi
    5413:	2b 48 18             	sub    0x18(%rax),%ecx
    5416:	47 8d 14 03          	lea    (%r11,%r8,1),%r10d
    541a:	01 fb                	add    %edi,%ebx
    541c:	41 01 d1             	add    %edx,%r9d
    541f:	2b 78 14             	sub    0x14(%rax),%edi
    5422:	2b 50 1c             	sub    0x1c(%rax),%edx
    5425:	45 85 c0             	test   %r8d,%r8d
    5428:	0f 8e c9 06 00 00    	jle    5af7 <riscv_dsp_cifft_rd4_q31+0x15d7>
    542e:	44 89 f5             	mov    %r14d,%ebp
    5431:	44 29 c5             	sub    %r8d,%ebp
    5434:	44 39 dd             	cmp    %r11d,%ebp
    5437:	7d 0e                	jge    5447 <riscv_dsp_cifft_rd4_q31+0xf27>
    5439:	45 89 da             	mov    %r11d,%r10d
    543c:	41 c1 fa 1f          	sar    $0x1f,%r10d
    5440:	41 81 f2 ff ff ff 7f 	xor    $0x7fffffff,%r10d
    5447:	43 8d 2c 12          	lea    (%r10,%r10,1),%ebp
    544b:	45 89 d4             	mov    %r10d,%r12d
    544e:	41 89 ed             	mov    %ebp,%r13d
    5451:	41 c1 fc 1f          	sar    $0x1f,%r12d
    5455:	41 d1 fd             	sar    %r13d
    5458:	41 81 f4 ff ff ff 7f 	xor    $0x7fffffff,%r12d
    545f:	45 39 d5             	cmp    %r10d,%r13d
    5462:	41 0f 45 ec          	cmovne %r12d,%ebp
    5466:	89 28                	mov    %ebp,(%rax)
    5468:	42 8d 2c 0b          	lea    (%rbx,%r9,1),%ebp
    546c:	45 85 c9             	test   %r9d,%r9d
    546f:	0f 8e 9e 06 00 00    	jle    5b13 <riscv_dsp_cifft_rd4_q31+0x15f3>
    5475:	45 89 f2             	mov    %r14d,%r10d
    5478:	45 29 ca             	sub    %r9d,%r10d
    547b:	44 39 d3             	cmp    %r10d,%ebx
    547e:	7e 0b                	jle    548b <riscv_dsp_cifft_rd4_q31+0xf6b>
    5480:	89 dd                	mov    %ebx,%ebp
    5482:	c1 fd 1f             	sar    $0x1f,%ebp
    5485:	81 f5 ff ff ff 7f    	xor    $0x7fffffff,%ebp
    548b:	44 8d 54 2d 00       	lea    0x0(%rbp,%rbp,1),%r10d
    5490:	41 89 ec             	mov    %ebp,%r12d
    5493:	45 89 d5             	mov    %r10d,%r13d
    5496:	41 c1 fc 1f          	sar    $0x1f,%r12d
    549a:	41 d1 fd             	sar    %r13d
    549d:	41 81 f4 ff ff ff 7f 	xor    $0x7fffffff,%r12d
    54a4:	41 39 ed             	cmp    %ebp,%r13d
    54a7:	45 0f 45 d4          	cmovne %r12d,%r10d
    54ab:	41 f7 da             	neg    %r10d
    54ae:	44 89 50 04          	mov    %r10d,0x4(%rax)
    54b2:	45 89 da             	mov    %r11d,%r10d
    54b5:	45 29 c2             	sub    %r8d,%r10d
    54b8:	45 85 c0             	test   %r8d,%r8d
    54bb:	0f 8e 1b 06 00 00    	jle    5adc <riscv_dsp_cifft_rd4_q31+0x15bc>
    54c1:	41 81 c0 00 00 00 80 	add    $0x80000000,%r8d
    54c8:	45 39 c3             	cmp    %r8d,%r11d
    54cb:	7d 0e                	jge    54db <riscv_dsp_cifft_rd4_q31+0xfbb>
    54cd:	41 c1 fb 1f          	sar    $0x1f,%r11d
    54d1:	45 89 da             	mov    %r11d,%r10d
    54d4:	41 81 f2 ff ff ff 7f 	xor    $0x7fffffff,%r10d
    54db:	47 8d 04 12          	lea    (%r10,%r10,1),%r8d
    54df:	45 89 d3             	mov    %r10d,%r11d
    54e2:	44 89 c5             	mov    %r8d,%ebp
    54e5:	41 c1 fb 1f          	sar    $0x1f,%r11d
    54e9:	d1 fd                	sar    %ebp
    54eb:	41 81 f3 ff ff ff 7f 	xor    $0x7fffffff,%r11d
    54f2:	44 39 d5             	cmp    %r10d,%ebp
    54f5:	41 89 da             	mov    %ebx,%r10d
    54f8:	45 0f 45 c3          	cmovne %r11d,%r8d
    54fc:	45 29 ca             	sub    %r9d,%r10d
    54ff:	44 89 40 08          	mov    %r8d,0x8(%rax)
    5503:	45 85 c9             	test   %r9d,%r9d
    5506:	0f 8e b5 05 00 00    	jle    5ac1 <riscv_dsp_cifft_rd4_q31+0x15a1>
    550c:	41 81 c1 00 00 00 80 	add    $0x80000000,%r9d
    5513:	41 39 d9             	cmp    %ebx,%r9d
    5516:	7e 0d                	jle    5525 <riscv_dsp_cifft_rd4_q31+0x1005>
    5518:	c1 fb 1f             	sar    $0x1f,%ebx
    551b:	41 89 da             	mov    %ebx,%r10d
    551e:	41 81 f2 ff ff ff 7f 	xor    $0x7fffffff,%r10d
    5525:	47 8d 04 12          	lea    (%r10,%r10,1),%r8d
    5529:	45 89 d1             	mov    %r10d,%r9d
    552c:	45 89 c3             	mov    %r8d,%r11d
    552f:	41 c1 f9 1f          	sar    $0x1f,%r9d
    5533:	41 d1 fb             	sar    %r11d
    5536:	41 81 f1 ff ff ff 7f 	xor    $0x7fffffff,%r9d
    553d:	45 39 d3             	cmp    %r10d,%r11d
    5540:	45 0f 45 c1          	cmovne %r9d,%r8d
    5544:	41 f7 d8             	neg    %r8d
    5547:	44 89 40 0c          	mov    %r8d,0xc(%rax)
    554b:	44 8d 04 16          	lea    (%rsi,%rdx,1),%r8d
    554f:	85 d2                	test   %edx,%edx
    5551:	0f 8e 4d 05 00 00    	jle    5aa4 <riscv_dsp_cifft_rd4_q31+0x1584>
    5557:	45 89 f1             	mov    %r14d,%r9d
    555a:	41 29 d1             	sub    %edx,%r9d
    555d:	44 39 ce             	cmp    %r9d,%esi
    5560:	7e 0e                	jle    5570 <riscv_dsp_cifft_rd4_q31+0x1050>
    5562:	41 89 f0             	mov    %esi,%r8d
    5565:	41 c1 f8 1f          	sar    $0x1f,%r8d
    5569:	41 81 f0 ff ff ff 7f 	xor    $0x7fffffff,%r8d
    5570:	47 8d 0c 00          	lea    (%r8,%r8,1),%r9d
    5574:	45 89 c2             	mov    %r8d,%r10d
    5577:	45 89 cb             	mov    %r9d,%r11d
    557a:	41 c1 fa 1f          	sar    $0x1f,%r10d
    557e:	41 d1 fb             	sar    %r11d
    5581:	41 81 f2 ff ff ff 7f 	xor    $0x7fffffff,%r10d
    5588:	45 39 c3             	cmp    %r8d,%r11d
    558b:	45 0f 45 ca          	cmovne %r10d,%r9d
    558f:	44 89 48 10          	mov    %r9d,0x10(%rax)
    5593:	41 89 f9             	mov    %edi,%r9d
    5596:	41 29 c9             	sub    %ecx,%r9d
    5599:	85 c9                	test   %ecx,%ecx
    559b:	0f 8e e8 04 00 00    	jle    5a89 <riscv_dsp_cifft_rd4_q31+0x1569>
    55a1:	44 8d 81 00 00 00 80 	lea    -0x80000000(%rcx),%r8d
    55a8:	44 39 c7             	cmp    %r8d,%edi
    55ab:	7d 0e                	jge    55bb <riscv_dsp_cifft_rd4_q31+0x109b>
    55ad:	41 89 f9             	mov    %edi,%r9d
    55b0:	41 c1 f9 1f          	sar    $0x1f,%r9d
    55b4:	41 81 f1 ff ff ff 7f 	xor    $0x7fffffff,%r9d
    55bb:	47 8d 04 09          	lea    (%r9,%r9,1),%r8d
    55bf:	45 89 ca             	mov    %r9d,%r10d
    55c2:	45 89 c3             	mov    %r8d,%r11d
    55c5:	41 c1 fa 1f          	sar    $0x1f,%r10d
    55c9:	41 d1 fb             	sar    %r11d
    55cc:	41 81 f2 ff ff ff 7f 	xor    $0x7fffffff,%r10d
    55d3:	45 39 cb             	cmp    %r9d,%r11d
    55d6:	45 0f 45 c2          	cmovne %r10d,%r8d
    55da:	41 f7 d8             	neg    %r8d
    55dd:	44 89 40 14          	mov    %r8d,0x14(%rax)
    55e1:	41 89 f0             	mov    %esi,%r8d
    55e4:	41 29 d0             	sub    %edx,%r8d
    55e7:	85 d2                	test   %edx,%edx
    55e9:	0f 8e 81 04 00 00    	jle    5a70 <riscv_dsp_cifft_rd4_q31+0x1550>
    55ef:	81 c2 00 00 00 80    	add    $0x80000000,%edx
    55f5:	39 d6                	cmp    %edx,%esi
    55f7:	7d 0d                	jge    5606 <riscv_dsp_cifft_rd4_q31+0x10e6>
    55f9:	c1 fe 1f             	sar    $0x1f,%esi
    55fc:	41 89 f0             	mov    %esi,%r8d
    55ff:	41 81 f0 ff ff ff 7f 	xor    $0x7fffffff,%r8d
    5606:	43 8d 14 00          	lea    (%r8,%r8,1),%edx
    560a:	44 89 c6             	mov    %r8d,%esi
    560d:	41 89 d1             	mov    %edx,%r9d
    5610:	c1 fe 1f             	sar    $0x1f,%esi
    5613:	41 d1 f9             	sar    %r9d
    5616:	81 f6 ff ff ff 7f    	xor    $0x7fffffff,%esi
    561c:	45 39 c1             	cmp    %r8d,%r9d
    561f:	0f 45 d6             	cmovne %esi,%edx
    5622:	89 50 18             	mov    %edx,0x18(%rax)
    5625:	8d 14 39             	lea    (%rcx,%rdi,1),%edx
    5628:	85 c9                	test   %ecx,%ecx
    562a:	0f 8e fb 03 00 00    	jle    5a2b <riscv_dsp_cifft_rd4_q31+0x150b>
    5630:	44 89 f6             	mov    %r14d,%esi
    5633:	29 ce                	sub    %ecx,%esi
    5635:	39 f7                	cmp    %esi,%edi
    5637:	7e 0b                	jle    5644 <riscv_dsp_cifft_rd4_q31+0x1124>
    5639:	c1 ff 1f             	sar    $0x1f,%edi
    563c:	89 fa                	mov    %edi,%edx
    563e:	81 f2 ff ff ff 7f    	xor    $0x7fffffff,%edx
    5644:	8d 0c 12             	lea    (%rdx,%rdx,1),%ecx
    5647:	89 ce                	mov    %ecx,%esi
    5649:	d1 fe                	sar    %esi
    564b:	39 f2                	cmp    %esi,%edx
    564d:	0f 84 fc 03 00 00    	je     5a4f <riscv_dsp_cifft_rd4_q31+0x152f>
    5653:	c1 fa 1f             	sar    $0x1f,%edx
    5656:	48 83 c0 20          	add    $0x20,%rax
    565a:	81 f2 ff ff ff 7f    	xor    $0x7fffffff,%edx
    5660:	f7 da                	neg    %edx
    5662:	89 50 fc             	mov    %edx,-0x4(%rax)
    5665:	49 39 c7             	cmp    %rax,%r15
    5668:	0f 85 82 fd ff ff    	jne    53f0 <riscv_dsp_cifft_rd4_q31+0xed0>
    566e:	44 8b 64 24 14       	mov    0x14(%rsp),%r12d
    5673:	0f b6 4c 24 0c       	movzbl 0xc(%rsp),%ecx
    5678:	b8 02 00 00 00       	mov    $0x2,%eax
    567d:	48 8b 5c 24 f8       	mov    -0x8(%rsp),%rbx
    5682:	d3 e0                	shl    %cl,%eax
    5684:	43 8d 14 24          	lea    (%r12,%r12,1),%edx
    5688:	45 89 e6             	mov    %r12d,%r14d
    568b:	48 8d 7c 83 fc       	lea    -0x4(%rbx,%rax,4),%rdi
    5690:	48 89 d0             	mov    %rdx,%rax
    5693:	48 8d 14 93          	lea    (%rbx,%rdx,4),%rdx
    5697:	8b 4b 08             	mov    0x8(%rbx),%ecx
    569a:	8b 32                	mov    (%rdx),%esi
    569c:	83 c0 01             	add    $0x1,%eax
    569f:	48 8d 04 83          	lea    (%rbx,%rax,4),%rax
    56a3:	89 73 08             	mov    %esi,0x8(%rbx)
    56a6:	48 89 de             	mov    %rbx,%rsi
    56a9:	89 0a                	mov    %ecx,(%rdx)
    56ab:	8b 08                	mov    (%rax),%ecx
    56ad:	8b 53 0c             	mov    0xc(%rbx),%edx
    56b0:	89 4b 0c             	mov    %ecx,0xc(%rbx)
    56b3:	8b 5c 24 10          	mov    0x10(%rsp),%ebx
    56b7:	b9 04 00 00 00       	mov    $0x4,%ecx
    56bc:	89 10                	mov    %edx,(%rax)
    56be:	44 89 e0             	mov    %r12d,%eax
    56c1:	ba 04 00 00 00       	mov    $0x4,%edx
    56c6:	41 89 d9             	mov    %ebx,%r9d
    56c9:	c1 eb 03             	shr    $0x3,%ebx
    56cc:	41 c1 e9 02          	shr    $0x2,%r9d
    56d0:	41 89 da             	mov    %ebx,%r10d
    56d3:	45 31 ce             	xor    %r9d,%r14d
    56d6:	44 89 f3             	mov    %r14d,%ebx
    56d9:	45 89 f3             	mov    %r14d,%r11d
    56dc:	44 31 d3             	xor    %r10d,%ebx
    56df:	89 5c 24 88          	mov    %ebx,-0x78(%rsp)
    56e3:	0f 1f 44 00 00       	nopl   0x0(%rax,%rax,1)
    56e8:	44 31 d8             	xor    %r11d,%eax
    56eb:	41 85 c1             	test   %eax,%r9d
    56ee:	75 13                	jne    5703 <riscv_dsp_cifft_rd4_q31+0x11e3>
    56f0:	45 89 c8             	mov    %r9d,%r8d
    56f3:	0f 1f 44 00 00       	nopl   0x0(%rax,%rax,1)
    56f8:	41 d1 e8             	shr    %r8d
    56fb:	44 31 c0             	xor    %r8d,%eax
    56fe:	41 85 c0             	test   %eax,%r8d
    5701:	74 f5                	je     56f8 <riscv_dsp_cifft_rd4_q31+0x11d8>
    5703:	44 8d 41 fe          	lea    -0x2(%rcx),%r8d
    5707:	41 39 c0             	cmp    %eax,%r8d
    570a:	0f 83 81 00 00 00    	jae    5791 <riscv_dsp_cifft_rd4_q31+0x1271>
    5710:	41 89 d0             	mov    %edx,%r8d
    5713:	8d 1c 00             	lea    (%rax,%rax,1),%ebx
    5716:	4e 8d 2c 86          	lea    (%rsi,%r8,4),%r13
    571a:	49 89 d8             	mov    %rbx,%r8
    571d:	48 8d 1c 9e          	lea    (%rsi,%rbx,4),%rbx
    5721:	45 8b 75 00          	mov    0x0(%r13),%r14d
    5725:	44 8b 3b             	mov    (%rbx),%r15d
    5728:	41 83 c0 01          	add    $0x1,%r8d
    572c:	4e 8d 04 86          	lea    (%rsi,%r8,4),%r8
    5730:	45 89 7d 00          	mov    %r15d,0x0(%r13)
    5734:	44 89 33             	mov    %r14d,(%rbx)
    5737:	8d 5a 01             	lea    0x1(%rdx),%ebx
    573a:	45 8b 30             	mov    (%r8),%r14d
    573d:	48 8d 1c 9e          	lea    (%rsi,%rbx,4),%rbx
    5741:	44 8b 2b             	mov    (%rbx),%r13d
    5744:	44 89 33             	mov    %r14d,(%rbx)
    5747:	89 d3                	mov    %edx,%ebx
    5749:	f7 db                	neg    %ebx
    574b:	45 89 28             	mov    %r13d,(%r8)
