
t_rotation2quaternion_f32:     file format elf64-x86-64


Disassembly of section .init:

0000000000001000 <_init>:
    1000:	f3 0f 1e fa          	endbr64 
    1004:	48 83 ec 08          	sub    $0x8,%rsp
    1008:	48 8b 05 d9 2f 00 00 	mov    0x2fd9(%rip),%rax        # 3fe8 <__gmon_start__@Base>
    100f:	48 85 c0             	test   %rax,%rax
    1012:	74 02                	je     1016 <_init+0x16>
    1014:	ff d0                	call   *%rax
    1016:	48 83 c4 08          	add    $0x8,%rsp
    101a:	c3                   	ret    

Disassembly of section .plt:

0000000000001020 <.plt>:
    1020:	ff 35 52 2f 00 00    	push   0x2f52(%rip)        # 3f78 <_GLOBAL_OFFSET_TABLE_+0x8>
    1026:	f2 ff 25 53 2f 00 00 	bnd jmp *0x2f53(%rip)        # 3f80 <_GLOBAL_OFFSET_TABLE_+0x10>
    102d:	0f 1f 00             	nopl   (%rax)
    1030:	f3 0f 1e fa          	endbr64 
    1034:	68 00 00 00 00       	push   $0x0
    1039:	f2 e9 e1 ff ff ff    	bnd jmp 1020 <_init+0x20>
    103f:	90                   	nop
    1040:	f3 0f 1e fa          	endbr64 
    1044:	68 01 00 00 00       	push   $0x1
    1049:	f2 e9 d1 ff ff ff    	bnd jmp 1020 <_init+0x20>
    104f:	90                   	nop
    1050:	f3 0f 1e fa          	endbr64 
    1054:	68 02 00 00 00       	push   $0x2
    1059:	f2 e9 c1 ff ff ff    	bnd jmp 1020 <_init+0x20>
    105f:	90                   	nop
    1060:	f3 0f 1e fa          	endbr64 
    1064:	68 03 00 00 00       	push   $0x3
    1069:	f2 e9 b1 ff ff ff    	bnd jmp 1020 <_init+0x20>
    106f:	90                   	nop
    1070:	f3 0f 1e fa          	endbr64 
    1074:	68 04 00 00 00       	push   $0x4
    1079:	f2 e9 a1 ff ff ff    	bnd jmp 1020 <_init+0x20>
    107f:	90                   	nop
    1080:	f3 0f 1e fa          	endbr64 
    1084:	68 05 00 00 00       	push   $0x5
    1089:	f2 e9 91 ff ff ff    	bnd jmp 1020 <_init+0x20>
    108f:	90                   	nop
    1090:	f3 0f 1e fa          	endbr64 
    1094:	68 06 00 00 00       	push   $0x6
    1099:	f2 e9 81 ff ff ff    	bnd jmp 1020 <_init+0x20>
    109f:	90                   	nop
    10a0:	f3 0f 1e fa          	endbr64 
    10a4:	68 07 00 00 00       	push   $0x7
    10a9:	f2 e9 71 ff ff ff    	bnd jmp 1020 <_init+0x20>
    10af:	90                   	nop
    10b0:	f3 0f 1e fa          	endbr64 
    10b4:	68 08 00 00 00       	push   $0x8
    10b9:	f2 e9 61 ff ff ff    	bnd jmp 1020 <_init+0x20>
    10bf:	90                   	nop
    10c0:	f3 0f 1e fa          	endbr64 
    10c4:	68 09 00 00 00       	push   $0x9
    10c9:	f2 e9 51 ff ff ff    	bnd jmp 1020 <_init+0x20>
    10cf:	90                   	nop

Disassembly of section .plt.got:

00000000000010d0 <__cxa_finalize@plt>:
    10d0:	f3 0f 1e fa          	endbr64 
    10d4:	f2 ff 25 1d 2f 00 00 	bnd jmp *0x2f1d(%rip)        # 3ff8 <__cxa_finalize@GLIBC_2.2.5>
    10db:	0f 1f 44 00 00       	nopl   0x0(%rax,%rax,1)

Disassembly of section .plt.sec:

00000000000010e0 <puts@plt>:
    10e0:	f3 0f 1e fa          	endbr64 
    10e4:	f2 ff 25 9d 2e 00 00 	bnd jmp *0x2e9d(%rip)        # 3f88 <puts@GLIBC_2.2.5>
    10eb:	0f 1f 44 00 00       	nopl   0x0(%rax,%rax,1)

00000000000010f0 <fread@plt>:
    10f0:	f3 0f 1e fa          	endbr64 
    10f4:	f2 ff 25 95 2e 00 00 	bnd jmp *0x2e95(%rip)        # 3f90 <fread@GLIBC_2.2.5>
    10fb:	0f 1f 44 00 00       	nopl   0x0(%rax,%rax,1)

0000000000001100 <fclose@plt>:
    1100:	f3 0f 1e fa          	endbr64 
    1104:	f2 ff 25 8d 2e 00 00 	bnd jmp *0x2e8d(%rip)        # 3f98 <fclose@GLIBC_2.2.5>
    110b:	0f 1f 44 00 00       	nopl   0x0(%rax,%rax,1)

0000000000001110 <__stack_chk_fail@plt>:
    1110:	f3 0f 1e fa          	endbr64 
    1114:	f2 ff 25 85 2e 00 00 	bnd jmp *0x2e85(%rip)        # 3fa0 <__stack_chk_fail@GLIBC_2.4>
    111b:	0f 1f 44 00 00       	nopl   0x0(%rax,%rax,1)

0000000000001120 <log10f@plt>:
    1120:	f3 0f 1e fa          	endbr64 
    1124:	f2 ff 25 7d 2e 00 00 	bnd jmp *0x2e7d(%rip)        # 3fa8 <log10f@GLIBC_2.2.5>
    112b:	0f 1f 44 00 00       	nopl   0x0(%rax,%rax,1)

0000000000001130 <sqrtf@plt>:
    1130:	f3 0f 1e fa          	endbr64 
    1134:	f2 ff 25 75 2e 00 00 	bnd jmp *0x2e75(%rip)        # 3fb0 <sqrtf@GLIBC_2.2.5>
    113b:	0f 1f 44 00 00       	nopl   0x0(%rax,%rax,1)

0000000000001140 <__printf_chk@plt>:
    1140:	f3 0f 1e fa          	endbr64 
    1144:	f2 ff 25 6d 2e 00 00 	bnd jmp *0x2e6d(%rip)        # 3fb8 <__printf_chk@GLIBC_2.3.4>
    114b:	0f 1f 44 00 00       	nopl   0x0(%rax,%rax,1)

0000000000001150 <fopen@plt>:
    1150:	f3 0f 1e fa          	endbr64 
    1154:	f2 ff 25 65 2e 00 00 	bnd jmp *0x2e65(%rip)        # 3fc0 <fopen@GLIBC_2.2.5>
    115b:	0f 1f 44 00 00       	nopl   0x0(%rax,%rax,1)

0000000000001160 <sqrt@plt>:
    1160:	f3 0f 1e fa          	endbr64 
    1164:	f2 ff 25 5d 2e 00 00 	bnd jmp *0x2e5d(%rip)        # 3fc8 <sqrt@GLIBC_2.2.5>
    116b:	0f 1f 44 00 00       	nopl   0x0(%rax,%rax,1)

0000000000001170 <__sprintf_chk@plt>:
    1170:	f3 0f 1e fa          	endbr64 
    1174:	f2 ff 25 55 2e 00 00 	bnd jmp *0x2e55(%rip)        # 3fd0 <__sprintf_chk@GLIBC_2.3.4>
    117b:	0f 1f 44 00 00       	nopl   0x0(%rax,%rax,1)

Disassembly of section .text:

0000000000001180 <main>:
    1180:	f3 0f 1e fa          	endbr64 
    1184:	55                   	push   %rbp
    1185:	48 89 e5             	mov    %rsp,%rbp
    1188:	41 56                	push   %r14
    118a:	41 55                	push   %r13
    118c:	41 54                	push   %r12
    118e:	53                   	push   %rbx
    118f:	48 83 ec 30          	sub    $0x30,%rsp
    1193:	64 48 8b 04 25 28 00 	mov    %fs:0x28,%rax
    119a:	00 00 
    119c:	48 89 45 d8          	mov    %rax,-0x28(%rbp)
    11a0:	31 c0                	xor    %eax,%eax
    11a2:	48 89 e3             	mov    %rsp,%rbx
    11a5:	48 39 dc             	cmp    %rbx,%rsp
    11a8:	74 15                	je     11bf <main+0x3f>
    11aa:	48 81 ec 00 10 00 00 	sub    $0x1000,%rsp
    11b1:	48 83 8c 24 f8 0f 00 	orq    $0x0,0xff8(%rsp)
    11b8:	00 00 
    11ba:	48 39 dc             	cmp    %rbx,%rsp
    11bd:	75 eb                	jne    11aa <main+0x2a>
    11bf:	48 81 ec 40 06 00 00 	sub    $0x640,%rsp
    11c6:	48 83 8c 24 38 06 00 	orq    $0x0,0x638(%rsp)
    11cd:	00 00 
    11cf:	49 89 e4             	mov    %rsp,%r12
    11d2:	48 89 e0             	mov    %rsp,%rax
    11d5:	48 39 c4             	cmp    %rax,%rsp
    11d8:	74 12                	je     11ec <main+0x6c>
    11da:	48 81 ec 00 10 00 00 	sub    $0x1000,%rsp
    11e1:	48 83 8c 24 f8 0f 00 	orq    $0x0,0xff8(%rsp)
    11e8:	00 00 
    11ea:	eb e9                	jmp    11d5 <main+0x55>
    11ec:	48 81 ec 10 0e 00 00 	sub    $0xe10,%rsp
    11f3:	48 83 8c 24 08 0e 00 	orq    $0x0,0xe08(%rsp)
    11fa:	00 00 
    11fc:	49 89 e6             	mov    %rsp,%r14
    11ff:	48 89 e0             	mov    %rsp,%rax
    1202:	48 39 c4             	cmp    %rax,%rsp
    1205:	74 12                	je     1219 <main+0x99>
    1207:	48 81 ec 00 10 00 00 	sub    $0x1000,%rsp
    120e:	48 83 8c 24 f8 0f 00 	orq    $0x0,0xff8(%rsp)
    1215:	00 00 
    1217:	eb e9                	jmp    1202 <main+0x82>
    1219:	48 81 ec 40 06 00 00 	sub    $0x640,%rsp
    1220:	48 83 8c 24 38 06 00 	orq    $0x0,0x638(%rsp)
    1227:	00 00 
    1229:	ba 84 03 00 00       	mov    $0x384,%edx
    122e:	48 8d 3d 13 0e 00 00 	lea    0xe13(%rip),%rdi        # 2048 <_IO_stdin_used+0x48>
    1235:	4c 89 f6             	mov    %r14,%rsi
    1238:	49 89 e5             	mov    %rsp,%r13
    123b:	e8 50 04 00 00       	call   1690 <read_write_buffer.constprop.0>
    1240:	ba 64 00 00 00       	mov    $0x64,%edx
    1245:	4c 89 e6             	mov    %r12,%rsi
    1248:	4c 89 f7             	mov    %r14,%rdi
    124b:	e8 b0 04 00 00       	call   1700 <riscv_dsp_rotation2quaternion_f32>
    1250:	ba 90 01 00 00       	mov    $0x190,%edx
    1255:	4c 89 ee             	mov    %r13,%rsi
    1258:	48 8d 3d 11 0e 00 00 	lea    0xe11(%rip),%rdi        # 2070 <_IO_stdin_used+0x70>
    125f:	e8 2c 04 00 00       	call   1690 <read_write_buffer.constprop.0>
    1264:	31 c0                	xor    %eax,%eax
    1266:	66 0f ef c0          	pxor   %xmm0,%xmm0
    126a:	f3 0f 10 2d 0e 0f 00 	movss  0xf0e(%rip),%xmm5        # 2180 <_IO_stdin_used+0x180>
    1271:	00 
    1272:	66 0f 1f 44 00 00    	nopw   0x0(%rax,%rax,1)
    1278:	f3 41 0f 10 0c 04    	movss  (%r12,%rax,1),%xmm1
    127e:	f3 41 0f 5c 4c 05 00 	subss  0x0(%r13,%rax,1),%xmm1
    1285:	48 83 c0 04          	add    $0x4,%rax
    1289:	0f 54 cd             	andps  %xmm5,%xmm1
    128c:	f3 0f 5f c8          	maxss  %xmm0,%xmm1
    1290:	0f 28 c1             	movaps %xmm1,%xmm0
    1293:	48 3d 40 06 00 00    	cmp    $0x640,%rax
    1299:	75 dd                	jne    1278 <main+0xf8>
    129b:	66 0f ef c0          	pxor   %xmm0,%xmm0
    129f:	bf 01 00 00 00       	mov    $0x1,%edi
    12a4:	b8 01 00 00 00       	mov    $0x1,%eax
    12a9:	48 8d 35 84 0e 00 00 	lea    0xe84(%rip),%rsi        # 2134 <_IO_stdin_used+0x134>
    12b0:	f3 0f 5a c1          	cvtss2sd %xmm1,%xmm0
    12b4:	e8 87 fe ff ff       	call   1140 <__printf_chk@plt>
    12b9:	66 0f ef db          	pxor   %xmm3,%xmm3
    12bd:	66 45 0f ef c0       	pxor   %xmm8,%xmm8
    12c2:	31 c0                	xor    %eax,%eax
    12c4:	66 41 0f 28 f0       	movapd %xmm8,%xmm6
    12c9:	0f 28 c3             	movaps %xmm3,%xmm0
    12cc:	44 0f 28 cb          	movaps %xmm3,%xmm9
    12d0:	0f 28 fb             	movaps %xmm3,%xmm7
    12d3:	f3 0f 10 2d a5 0e 00 	movss  0xea5(%rip),%xmm5        # 2180 <_IO_stdin_used+0x180>
    12da:	00 
    12db:	0f 1f 44 00 00       	nopl   0x0(%rax,%rax,1)
    12e0:	f3 41 0f 10 0c 04    	movss  (%r12,%rax,1),%xmm1
    12e6:	f3 41 0f 10 54 05 00 	movss  0x0(%r13,%rax,1),%xmm2
    12ed:	66 0f 7e c9          	movd   %xmm1,%ecx
    12f1:	81 f9 00 00 c0 7f    	cmp    $0x7fc00000,%ecx
    12f7:	0f 84 63 01 00 00    	je     1460 <main+0x2e0>
    12fd:	0f 28 e2             	movaps %xmm2,%xmm4
    1300:	f3 0f 5c ca          	subss  %xmm2,%xmm1
    1304:	48 83 c0 04          	add    $0x4,%rax
    1308:	f3 0f 5f e7          	maxss  %xmm7,%xmm4
    130c:	0f 28 fc             	movaps %xmm4,%xmm7
    130f:	0f 28 e2             	movaps %xmm2,%xmm4
    1312:	f3 41 0f 5d e1       	minss  %xmm9,%xmm4
    1317:	f3 0f 59 d2          	mulss  %xmm2,%xmm2
    131b:	44 0f 28 cc          	movaps %xmm4,%xmm9
    131f:	0f 28 e1             	movaps %xmm1,%xmm4
    1322:	f3 0f 59 c9          	mulss  %xmm1,%xmm1
    1326:	0f 54 e5             	andps  %xmm5,%xmm4
    1329:	f3 0f 58 c4          	addss  %xmm4,%xmm0
    132d:	f3 0f 5f e3          	maxss  %xmm3,%xmm4
    1331:	f3 0f 5a d2          	cvtss2sd %xmm2,%xmm2
    1335:	f2 44 0f 58 c2       	addsd  %xmm2,%xmm8
    133a:	0f 28 dc             	movaps %xmm4,%xmm3
    133d:	f3 0f 5a c9          	cvtss2sd %xmm1,%xmm1
    1341:	f2 0f 58 f1          	addsd  %xmm1,%xmm6
    1345:	48 3d 40 06 00 00    	cmp    $0x640,%rax
    134b:	75 93                	jne    12e0 <main+0x160>
    134d:	66 48 0f 7e f0       	movq   %xmm6,%rax
    1352:	f3 0f 11 65 bc       	movss  %xmm4,-0x44(%rbp)
    1357:	f3 44 0f 11 4d c0    	movss  %xmm9,-0x40(%rbp)
    135d:	f3 0f 11 7d c4       	movss  %xmm7,-0x3c(%rbp)
    1362:	f2 44 0f 11 45 c8    	movsd  %xmm8,-0x38(%rbp)
    1368:	3d 00 00 c0 7f       	cmp    $0x7fc00000,%eax
    136d:	0f 84 ed 00 00 00    	je     1460 <main+0x2e0>
    1373:	f3 0f 5e 05 fd 0d 00 	divss  0xdfd(%rip),%xmm0        # 2178 <_IO_stdin_used+0x178>
    137a:	00 
    137b:	f2 0f 11 75 b0       	movsd  %xmm6,-0x50(%rbp)
    1380:	66 41 0f 7e c4       	movd   %xmm0,%r12d
    1385:	66 0f 28 c6          	movapd %xmm6,%xmm0
    1389:	f2 0f 5e 05 ff 0d 00 	divsd  0xdff(%rip),%xmm0        # 2190 <_IO_stdin_used+0x190>
    1390:	00 
    1391:	e8 ca fd ff ff       	call   1160 <sqrt@plt>
    1396:	f3 0f 10 7d c4       	movss  -0x3c(%rbp),%xmm7
    139b:	f3 44 0f 10 4d c0    	movss  -0x40(%rbp),%xmm9
    13a1:	66 0f ef c9          	pxor   %xmm1,%xmm1
    13a5:	66 0f ef ed          	pxor   %xmm5,%xmm5
    13a9:	f2 44 0f 10 45 c8    	movsd  -0x38(%rbp),%xmm8
    13af:	f3 0f 10 5d bc       	movss  -0x44(%rbp),%xmm3
    13b4:	f3 41 0f 5c f9       	subss  %xmm9,%xmm7
    13b9:	f2 0f 5a c8          	cvtsd2ss %xmm0,%xmm1
    13bd:	0f 28 f1             	movaps %xmm1,%xmm6
    13c0:	f3 0f 5e f7          	divss  %xmm7,%xmm6
    13c4:	66 41 0f 7e f5       	movd   %xmm6,%r13d
    13c9:	f2 0f 10 75 b0       	movsd  -0x50(%rbp),%xmm6
    13ce:	66 0f 2e f5          	ucomisd %xmm5,%xmm6
    13d2:	0f 8a c3 00 00 00    	jp     149b <main+0x31b>
    13d8:	f3 0f 10 25 94 0d 00 	movss  0xd94(%rip),%xmm4        # 2174 <_IO_stdin_used+0x174>
    13df:	00 
    13e0:	0f 85 b5 00 00 00    	jne    149b <main+0x31b>
    13e6:	48 8d 3d 5a 0d 00 00 	lea    0xd5a(%rip),%rdi        # 2147 <_IO_stdin_used+0x147>
    13ed:	f3 0f 11 5d c0       	movss  %xmm3,-0x40(%rbp)
    13f2:	f3 0f 11 65 c8       	movss  %xmm4,-0x38(%rbp)
    13f7:	f3 0f 11 4d c4       	movss  %xmm1,-0x3c(%rbp)
    13fc:	e8 df fc ff ff       	call   10e0 <puts@plt>
    1401:	f3 0f 10 65 c8       	movss  -0x38(%rbp),%xmm4
    1406:	f3 0f 10 5d c0       	movss  -0x40(%rbp),%xmm3
    140b:	66 41 0f 6e f5       	movd   %r13d,%xmm6
    1410:	f3 0f 10 4d c4       	movss  -0x3c(%rbp),%xmm1
    1415:	66 0f ef d2          	pxor   %xmm2,%xmm2
    1419:	66 0f ef c0          	pxor   %xmm0,%xmm0
    141d:	48 8d 35 74 0c 00 00 	lea    0xc74(%rip),%rsi        # 2098 <_IO_stdin_used+0x98>
    1424:	f3 0f 5a d6          	cvtss2sd %xmm6,%xmm2
    1428:	bf 01 00 00 00       	mov    $0x1,%edi
    142d:	f3 0f 5a e4          	cvtss2sd %xmm4,%xmm4
    1431:	f3 0f 5a db          	cvtss2sd %xmm3,%xmm3
    1435:	66 41 0f 6e f4       	movd   %r12d,%xmm6
    143a:	b8 05 00 00 00       	mov    $0x5,%eax
    143f:	f2 0f 11 55 c8       	movsd  %xmm2,-0x38(%rbp)
    1444:	f3 0f 5a c9          	cvtss2sd %xmm1,%xmm1
    1448:	f3 0f 5a c6          	cvtss2sd %xmm6,%xmm0
    144c:	e8 ef fc ff ff       	call   1140 <__printf_chk@plt>
    1451:	f2 0f 10 55 c8       	movsd  -0x38(%rbp),%xmm2
    1456:	66 0f 2f 15 3a 0d 00 	comisd 0xd3a(%rip),%xmm2        # 2198 <_IO_stdin_used+0x198>
    145d:	00 
    145e:	77 72                	ja     14d2 <main+0x352>
    1460:	48 8d 15 89 0c 00 00 	lea    0xc89(%rip),%rdx        # 20f0 <_IO_stdin_used+0xf0>
    1467:	48 8d 35 f9 0c 00 00 	lea    0xcf9(%rip),%rsi        # 2167 <_IO_stdin_used+0x167>
    146e:	bf 01 00 00 00       	mov    $0x1,%edi
    1473:	31 c0                	xor    %eax,%eax
    1475:	e8 c6 fc ff ff       	call   1140 <__printf_chk@plt>
    147a:	31 c0                	xor    %eax,%eax
    147c:	48 89 dc             	mov    %rbx,%rsp
    147f:	48 8b 55 d8          	mov    -0x28(%rbp),%rdx
    1483:	64 48 2b 14 25 28 00 	sub    %fs:0x28,%rdx
    148a:	00 00 
    148c:	75 66                	jne    14f4 <main+0x374>
    148e:	48 8d 65 e0          	lea    -0x20(%rbp),%rsp
    1492:	5b                   	pop    %rbx
    1493:	41 5c                	pop    %r12
    1495:	41 5d                	pop    %r13
    1497:	41 5e                	pop    %r14
    1499:	5d                   	pop    %rbp
    149a:	c3                   	ret    
    149b:	f2 44 0f 5e c6       	divsd  %xmm6,%xmm8
    14a0:	66 0f ef c0          	pxor   %xmm0,%xmm0
    14a4:	f3 0f 11 5d c4       	movss  %xmm3,-0x3c(%rbp)
    14a9:	f3 0f 11 4d c8       	movss  %xmm1,-0x38(%rbp)
    14ae:	f2 41 0f 5a c0       	cvtsd2ss %xmm8,%xmm0
    14b3:	e8 68 fc ff ff       	call   1120 <log10f@plt>
    14b8:	f3 0f 10 5d c4       	movss  -0x3c(%rbp),%xmm3
    14bd:	f3 0f 59 05 b7 0c 00 	mulss  0xcb7(%rip),%xmm0        # 217c <_IO_stdin_used+0x17c>
    14c4:	00 
    14c5:	f3 0f 10 4d c8       	movss  -0x38(%rbp),%xmm1
    14ca:	0f 28 e0             	movaps %xmm0,%xmm4
    14cd:	e9 14 ff ff ff       	jmp    13e6 <main+0x266>
    14d2:	48 8d 15 17 0c 00 00 	lea    0xc17(%rip),%rdx        # 20f0 <_IO_stdin_used+0xf0>
    14d9:	48 8d 35 7c 0c 00 00 	lea    0xc7c(%rip),%rsi        # 215c <_IO_stdin_used+0x15c>
    14e0:	bf 01 00 00 00       	mov    $0x1,%edi
    14e5:	31 c0                	xor    %eax,%eax
    14e7:	e8 54 fc ff ff       	call   1140 <__printf_chk@plt>
    14ec:	83 c8 ff             	or     $0xffffffff,%eax
    14ef:	48 89 dc             	mov    %rbx,%rsp
    14f2:	eb 8b                	jmp    147f <main+0x2ff>
    14f4:	e8 17 fc ff ff       	call   1110 <__stack_chk_fail@plt>
    14f9:	0f 1f 80 00 00 00 00 	nopl   0x0(%rax)

0000000000001500 <_start>:
    1500:	f3 0f 1e fa          	endbr64 
    1504:	31 ed                	xor    %ebp,%ebp
    1506:	49 89 d1             	mov    %rdx,%r9
    1509:	5e                   	pop    %rsi
    150a:	48 89 e2             	mov    %rsp,%rdx
    150d:	48 83 e4 f0          	and    $0xfffffffffffffff0,%rsp
    1511:	50                   	push   %rax
    1512:	54                   	push   %rsp
    1513:	45 31 c0             	xor    %r8d,%r8d
    1516:	31 c9                	xor    %ecx,%ecx
    1518:	48 8d 3d 61 fc ff ff 	lea    -0x39f(%rip),%rdi        # 1180 <main>
    151f:	ff 15 b3 2a 00 00    	call   *0x2ab3(%rip)        # 3fd8 <__libc_start_main@GLIBC_2.34>
    1525:	f4                   	hlt    
    1526:	66 2e 0f 1f 84 00 00 	cs nopw 0x0(%rax,%rax,1)
    152d:	00 00 00 

0000000000001530 <deregister_tm_clones>:
    1530:	48 8d 3d d9 2a 00 00 	lea    0x2ad9(%rip),%rdi        # 4010 <__TMC_END__>
    1537:	48 8d 05 d2 2a 00 00 	lea    0x2ad2(%rip),%rax        # 4010 <__TMC_END__>
    153e:	48 39 f8             	cmp    %rdi,%rax
    1541:	74 15                	je     1558 <deregister_tm_clones+0x28>
    1543:	48 8b 05 96 2a 00 00 	mov    0x2a96(%rip),%rax        # 3fe0 <_ITM_deregisterTMCloneTable@Base>
    154a:	48 85 c0             	test   %rax,%rax
    154d:	74 09                	je     1558 <deregister_tm_clones+0x28>
    154f:	ff e0                	jmp    *%rax
    1551:	0f 1f 80 00 00 00 00 	nopl   0x0(%rax)
    1558:	c3                   	ret    
    1559:	0f 1f 80 00 00 00 00 	nopl   0x0(%rax)

0000000000001560 <register_tm_clones>:
    1560:	48 8d 3d a9 2a 00 00 	lea    0x2aa9(%rip),%rdi        # 4010 <__TMC_END__>
    1567:	48 8d 35 a2 2a 00 00 	lea    0x2aa2(%rip),%rsi        # 4010 <__TMC_END__>
    156e:	48 29 fe             	sub    %rdi,%rsi
    1571:	48 89 f0             	mov    %rsi,%rax
    1574:	48 c1 ee 3f          	shr    $0x3f,%rsi
    1578:	48 c1 f8 03          	sar    $0x3,%rax
    157c:	48 01 c6             	add    %rax,%rsi
    157f:	48 d1 fe             	sar    %rsi
    1582:	74 14                	je     1598 <register_tm_clones+0x38>
    1584:	48 8b 05 65 2a 00 00 	mov    0x2a65(%rip),%rax        # 3ff0 <_ITM_registerTMCloneTable@Base>
    158b:	48 85 c0             	test   %rax,%rax
    158e:	74 08                	je     1598 <register_tm_clones+0x38>
    1590:	ff e0                	jmp    *%rax
    1592:	66 0f 1f 44 00 00    	nopw   0x0(%rax,%rax,1)
    1598:	c3                   	ret    
    1599:	0f 1f 80 00 00 00 00 	nopl   0x0(%rax)

00000000000015a0 <__do_global_dtors_aux>:
    15a0:	f3 0f 1e fa          	endbr64 
    15a4:	80 3d 65 2a 00 00 00 	cmpb   $0x0,0x2a65(%rip)        # 4010 <__TMC_END__>
    15ab:	75 2b                	jne    15d8 <__do_global_dtors_aux+0x38>
    15ad:	55                   	push   %rbp
    15ae:	48 83 3d 42 2a 00 00 	cmpq   $0x0,0x2a42(%rip)        # 3ff8 <__cxa_finalize@GLIBC_2.2.5>
    15b5:	00 
    15b6:	48 89 e5             	mov    %rsp,%rbp
    15b9:	74 0c                	je     15c7 <__do_global_dtors_aux+0x27>
    15bb:	48 8b 3d 46 2a 00 00 	mov    0x2a46(%rip),%rdi        # 4008 <__dso_handle>
    15c2:	e8 09 fb ff ff       	call   10d0 <__cxa_finalize@plt>
    15c7:	e8 64 ff ff ff       	call   1530 <deregister_tm_clones>
    15cc:	c6 05 3d 2a 00 00 01 	movb   $0x1,0x2a3d(%rip)        # 4010 <__TMC_END__>
    15d3:	5d                   	pop    %rbp
    15d4:	c3                   	ret    
    15d5:	0f 1f 00             	nopl   (%rax)
    15d8:	c3                   	ret    
    15d9:	0f 1f 80 00 00 00 00 	nopl   0x0(%rax)

00000000000015e0 <frame_dummy>:
    15e0:	f3 0f 1e fa          	endbr64 
    15e4:	e9 77 ff ff ff       	jmp    1560 <register_tm_clones>
    15e9:	0f 1f 80 00 00 00 00 	nopl   0x0(%rax)

00000000000015f0 <test_Fopen.constprop.0.isra.0>:
    15f0:	41 54                	push   %r12
    15f2:	49 89 f9             	mov    %rdi,%r9
    15f5:	49 89 fc             	mov    %rdi,%r12
    15f8:	4c 8d 05 09 0a 00 00 	lea    0xa09(%rip),%r8        # 2008 <_IO_stdin_used+0x8>
    15ff:	55                   	push   %rbp
    1600:	48 8d 0d 0b 0b 00 00 	lea    0xb0b(%rip),%rcx        # 2112 <_IO_stdin_used+0x112>
    1607:	ba 00 04 00 00       	mov    $0x400,%edx
    160c:	53                   	push   %rbx
    160d:	48 89 f3             	mov    %rsi,%rbx
    1610:	be 01 00 00 00       	mov    $0x1,%esi
    1615:	48 81 ec 10 04 00 00 	sub    $0x410,%rsp
    161c:	64 48 8b 04 25 28 00 	mov    %fs:0x28,%rax
    1623:	00 00 
    1625:	48 89 84 24 08 04 00 	mov    %rax,0x408(%rsp)
    162c:	00 
    162d:	31 c0                	xor    %eax,%eax
    162f:	48 89 e5             	mov    %rsp,%rbp
    1632:	48 89 ef             	mov    %rbp,%rdi
    1635:	e8 36 fb ff ff       	call   1170 <__sprintf_chk@plt>
    163a:	48 8d 35 d7 0a 00 00 	lea    0xad7(%rip),%rsi        # 2118 <_IO_stdin_used+0x118>
    1641:	48 89 ef             	mov    %rbp,%rdi
    1644:	e8 07 fb ff ff       	call   1150 <fopen@plt>
    1649:	48 89 03             	mov    %rax,(%rbx)
    164c:	48 85 c0             	test   %rax,%rax
    164f:	74 1f                	je     1670 <test_Fopen.constprop.0.isra.0+0x80>
    1651:	48 8b 84 24 08 04 00 	mov    0x408(%rsp),%rax
    1658:	00 
    1659:	64 48 2b 04 25 28 00 	sub    %fs:0x28,%rax
    1660:	00 00 
    1662:	75 22                	jne    1686 <test_Fopen.constprop.0.isra.0+0x96>
    1664:	48 81 c4 10 04 00 00 	add    $0x410,%rsp
    166b:	5b                   	pop    %rbx
    166c:	5d                   	pop    %rbp
    166d:	41 5c                	pop    %r12
    166f:	c3                   	ret    
    1670:	4c 89 e2             	mov    %r12,%rdx
    1673:	48 8d 35 a1 0a 00 00 	lea    0xaa1(%rip),%rsi        # 211b <_IO_stdin_used+0x11b>
    167a:	bf 01 00 00 00       	mov    $0x1,%edi
    167f:	e8 bc fa ff ff       	call   1140 <__printf_chk@plt>
    1684:	eb cb                	jmp    1651 <test_Fopen.constprop.0.isra.0+0x61>
    1686:	e8 85 fa ff ff       	call   1110 <__stack_chk_fail@plt>
    168b:	0f 1f 44 00 00       	nopl   0x0(%rax,%rax,1)

0000000000001690 <read_write_buffer.constprop.0>:
    1690:	41 54                	push   %r12
    1692:	55                   	push   %rbp
    1693:	48 89 f5             	mov    %rsi,%rbp
    1696:	53                   	push   %rbx
    1697:	89 d3                	mov    %edx,%ebx
    1699:	48 83 ec 10          	sub    $0x10,%rsp
    169d:	64 48 8b 04 25 28 00 	mov    %fs:0x28,%rax
    16a4:	00 00 
    16a6:	48 89 44 24 08       	mov    %rax,0x8(%rsp)
    16ab:	31 c0                	xor    %eax,%eax
    16ad:	48 89 e6             	mov    %rsp,%rsi
    16b0:	48 c7 04 24 00 00 00 	movq   $0x0,(%rsp)
    16b7:	00 
    16b8:	e8 33 ff ff ff       	call   15f0 <test_Fopen.constprop.0.isra.0>
    16bd:	4c 8b 24 24          	mov    (%rsp),%r12
    16c1:	89 da                	mov    %ebx,%edx
    16c3:	be 04 00 00 00       	mov    $0x4,%esi
    16c8:	48 89 ef             	mov    %rbp,%rdi
    16cb:	4c 89 e1             	mov    %r12,%rcx
    16ce:	e8 1d fa ff ff       	call   10f0 <fread@plt>
    16d3:	48 8b 44 24 08       	mov    0x8(%rsp),%rax
    16d8:	64 48 2b 04 25 28 00 	sub    %fs:0x28,%rax
    16df:	00 00 
    16e1:	75 10                	jne    16f3 <read_write_buffer.constprop.0+0x63>
    16e3:	48 83 c4 10          	add    $0x10,%rsp
    16e7:	4c 89 e7             	mov    %r12,%rdi
    16ea:	5b                   	pop    %rbx
    16eb:	5d                   	pop    %rbp
    16ec:	41 5c                	pop    %r12
    16ee:	e9 0d fa ff ff       	jmp    1100 <fclose@plt>
    16f3:	e8 18 fa ff ff       	call   1110 <__stack_chk_fail@plt>
    16f8:	0f 1f 84 00 00 00 00 	nopl   0x0(%rax,%rax,1)
    16ff:	00 

0000000000001700 <riscv_dsp_rotation2quaternion_f32>:
    1700:	f3 0f 1e fa          	endbr64 
    1704:	85 d2                	test   %edx,%edx
    1706:	0f 84 5c 02 00 00    	je     1968 <riscv_dsp_rotation2quaternion_f32+0x268>
    170c:	41 54                	push   %r12
    170e:	66 0f ef d2          	pxor   %xmm2,%xmm2
    1712:	55                   	push   %rbp
    1713:	31 ed                	xor    %ebp,%ebp
    1715:	53                   	push   %rbx
    1716:	48 83 ec 20          	sub    $0x20,%rsp
    171a:	f3 0f 10 1d 7e 0a 00 	movss  0xa7e(%rip),%xmm3        # 21a0 <_IO_stdin_used+0x1a0>
    1721:	00 
    1722:	f3 0f 10 25 7a 0a 00 	movss  0xa7a(%rip),%xmm4        # 21a4 <_IO_stdin_used+0x1a4>
    1729:	00 
    172a:	e9 9c 00 00 00       	jmp    17cb <riscv_dsp_rotation2quaternion_f32+0xcb>
    172f:	90                   	nop
    1730:	0f 2f f1             	comiss %xmm1,%xmm6
    1733:	76 09                	jbe    173e <riscv_dsp_rotation2quaternion_f32+0x3e>
    1735:	0f 2f f5             	comiss %xmm5,%xmm6
    1738:	0f 87 ba 01 00 00    	ja     18f8 <riscv_dsp_rotation2quaternion_f32+0x1f8>
    173e:	0f 2f cd             	comiss %xmm5,%xmm1
    1741:	0f 86 31 01 00 00    	jbe    1878 <riscv_dsp_rotation2quaternion_f32+0x178>
    1747:	f3 0f 58 cb          	addss  %xmm3,%xmm1
    174b:	0f 28 c1             	movaps %xmm1,%xmm0
    174e:	f3 0f 5c c6          	subss  %xmm6,%xmm0
    1752:	f3 0f 5c c5          	subss  %xmm5,%xmm0
    1756:	0f 2e d0             	ucomiss %xmm0,%xmm2
    1759:	0f 87 7e 02 00 00    	ja     19dd <riscv_dsp_rotation2quaternion_f32+0x2dd>
    175f:	f3 0f 51 c0          	sqrtss %xmm0,%xmm0
    1763:	f3 0f 58 c0          	addss  %xmm0,%xmm0
    1767:	0f 28 f3             	movaps %xmm3,%xmm6
    176a:	f3 0f 7e 6b 04       	movq   0x4(%rbx),%xmm5
    176f:	f3 0f 10 7b 0c       	movss  0xc(%rbx),%xmm7
    1774:	f3 0f 10 4b 18       	movss  0x18(%rbx),%xmm1
    1779:	0f c6 ed e1          	shufps $0xe1,%xmm5,%xmm5
    177d:	f3 0f 5e f0          	divss  %xmm0,%xmm6
    1781:	0f 14 cf             	unpcklps %xmm7,%xmm1
    1784:	0f 28 fd             	movaps %xmm5,%xmm7
    1787:	f3 0f 59 c4          	mulss  %xmm4,%xmm0
    178b:	0f 5c f9             	subps  %xmm1,%xmm7
    178e:	0f 58 cd             	addps  %xmm5,%xmm1
    1791:	f3 0f 10 cf          	movss  %xmm7,%xmm1
    1795:	f3 41 0f 11 44 24 08 	movss  %xmm0,0x8(%r12)
    179c:	f3 0f 10 43 14       	movss  0x14(%rbx),%xmm0
    17a1:	f3 0f 58 43 1c       	addss  0x1c(%rbx),%xmm0
    17a6:	f3 0f 59 c6          	mulss  %xmm6,%xmm0
    17aa:	0f 28 ee             	movaps %xmm6,%xmm5
    17ad:	0f c6 ed e0          	shufps $0xe0,%xmm5,%xmm5
    17b1:	0f 59 cd             	mulps  %xmm5,%xmm1
    17b4:	41 0f 13 0c 24       	movlps %xmm1,(%r12)
    17b9:	83 c5 01             	add    $0x1,%ebp
    17bc:	f3 41 0f 11 44 24 0c 	movss  %xmm0,0xc(%r12)
    17c3:	39 ea                	cmp    %ebp,%edx
    17c5:	0f 84 a0 00 00 00    	je     186b <riscv_dsp_rotation2quaternion_f32+0x16b>
    17cb:	8d 44 ed 00          	lea    0x0(%rbp,%rbp,8),%eax
    17cf:	48 8d 1c 87          	lea    (%rdi,%rax,4),%rbx
    17d3:	8d 04 ad 00 00 00 00 	lea    0x0(,%rbp,4),%eax
    17da:	f3 0f 10 33          	movss  (%rbx),%xmm6
    17de:	f3 0f 10 4b 10       	movss  0x10(%rbx),%xmm1
    17e3:	4c 8d 24 86          	lea    (%rsi,%rax,4),%r12
    17e7:	f3 0f 10 6b 20       	movss  0x20(%rbx),%xmm5
    17ec:	0f 28 c6             	movaps %xmm6,%xmm0
    17ef:	f3 0f 58 c1          	addss  %xmm1,%xmm0
    17f3:	f3 0f 58 c5          	addss  %xmm5,%xmm0
    17f7:	0f 2f c2             	comiss %xmm2,%xmm0
    17fa:	0f 86 30 ff ff ff    	jbe    1730 <riscv_dsp_rotation2quaternion_f32+0x30>
    1800:	f3 0f 58 c3          	addss  %xmm3,%xmm0
    1804:	0f 2e d0             	ucomiss %xmm0,%xmm2
    1807:	0f 87 5c 01 00 00    	ja     1969 <riscv_dsp_rotation2quaternion_f32+0x269>
    180d:	f3 0f 51 c0          	sqrtss %xmm0,%xmm0
    1811:	f3 0f 58 c0          	addss  %xmm0,%xmm0
    1815:	0f 28 eb             	movaps %xmm3,%xmm5
    1818:	f3 0f 10 4b 1c       	movss  0x1c(%rbx),%xmm1
    181d:	83 c5 01             	add    $0x1,%ebp
    1820:	f3 0f 5c 4b 14       	subss  0x14(%rbx),%xmm1
    1825:	f3 0f 5e e8          	divss  %xmm0,%xmm5
    1829:	f3 0f 59 c4          	mulss  %xmm4,%xmm0
    182d:	f3 0f 59 cd          	mulss  %xmm5,%xmm1
    1831:	0f 14 c1             	unpcklps %xmm1,%xmm0
    1834:	41 0f 13 04 24       	movlps %xmm0,(%r12)
    1839:	f3 0f 10 43 08       	movss  0x8(%rbx),%xmm0
    183e:	f3 0f 5c 43 18       	subss  0x18(%rbx),%xmm0
    1843:	f3 0f 59 c5          	mulss  %xmm5,%xmm0
    1847:	f3 41 0f 11 44 24 08 	movss  %xmm0,0x8(%r12)
    184e:	f3 0f 10 43 0c       	movss  0xc(%rbx),%xmm0
    1853:	f3 0f 5c 43 04       	subss  0x4(%rbx),%xmm0
    1858:	f3 0f 59 c5          	mulss  %xmm5,%xmm0
    185c:	f3 41 0f 11 44 24 0c 	movss  %xmm0,0xc(%r12)
    1863:	39 ea                	cmp    %ebp,%edx
    1865:	0f 85 60 ff ff ff    	jne    17cb <riscv_dsp_rotation2quaternion_f32+0xcb>
    186b:	48 83 c4 20          	add    $0x20,%rsp
    186f:	5b                   	pop    %rbx
    1870:	5d                   	pop    %rbp
    1871:	41 5c                	pop    %r12
    1873:	c3                   	ret    
    1874:	0f 1f 40 00          	nopl   0x0(%rax)
    1878:	f3 0f 58 eb          	addss  %xmm3,%xmm5
    187c:	0f 28 c5             	movaps %xmm5,%xmm0
    187f:	f3 0f 5c c6          	subss  %xmm6,%xmm0
    1883:	f3 0f 5c c1          	subss  %xmm1,%xmm0
    1887:	0f 2e d0             	ucomiss %xmm0,%xmm2
    188a:	0f 87 13 01 00 00    	ja     19a3 <riscv_dsp_rotation2quaternion_f32+0x2a3>
    1890:	f3 0f 51 c0          	sqrtss %xmm0,%xmm0
    1894:	f3 0f 58 c0          	addss  %xmm0,%xmm0
    1898:	0f 28 eb             	movaps %xmm3,%xmm5
    189b:	f3 0f 7e 7b 04       	movq   0x4(%rbx),%xmm7
    18a0:	f3 0f 7e 4b 0c       	movq   0xc(%rbx),%xmm1
    18a5:	0f 28 f7             	movaps %xmm7,%xmm6
    18a8:	f3 0f 5e e8          	divss  %xmm0,%xmm5
    18ac:	f3 0f 10 f1          	movss  %xmm1,%xmm6
    18b0:	f3 0f 7e 4b 14       	movq   0x14(%rbx),%xmm1
    18b5:	f3 0f 59 c4          	mulss  %xmm4,%xmm0
    18b9:	f3 0f 10 cf          	movss  %xmm7,%xmm1
    18bd:	0f 28 fe             	movaps %xmm6,%xmm7
    18c0:	0f 5c f9             	subps  %xmm1,%xmm7
    18c3:	0f 58 ce             	addps  %xmm6,%xmm1
    18c6:	f3 0f 10 cf          	movss  %xmm7,%xmm1
    18ca:	0f 28 f5             	movaps %xmm5,%xmm6
    18cd:	0f c6 f6 e0          	shufps $0xe0,%xmm6,%xmm6
    18d1:	0f 59 ce             	mulps  %xmm6,%xmm1
    18d4:	41 0f 13 0c 24       	movlps %xmm1,(%r12)
    18d9:	f3 0f 10 4b 14       	movss  0x14(%rbx),%xmm1
    18de:	f3 0f 58 4b 1c       	addss  0x1c(%rbx),%xmm1
    18e3:	f3 0f 59 cd          	mulss  %xmm5,%xmm1
    18e7:	f3 41 0f 11 4c 24 08 	movss  %xmm1,0x8(%r12)
    18ee:	e9 c6 fe ff ff       	jmp    17b9 <riscv_dsp_rotation2quaternion_f32+0xb9>
    18f3:	0f 1f 44 00 00       	nopl   0x0(%rax,%rax,1)
    18f8:	f3 0f 58 f3          	addss  %xmm3,%xmm6
    18fc:	0f 28 c6             	movaps %xmm6,%xmm0
    18ff:	f3 0f 5c c1          	subss  %xmm1,%xmm0
    1903:	f3 0f 5c c5          	subss  %xmm5,%xmm0
    1907:	0f 2e d0             	ucomiss %xmm0,%xmm2
    190a:	0f 87 07 01 00 00    	ja     1a17 <riscv_dsp_rotation2quaternion_f32+0x317>
    1910:	f3 0f 51 c0          	sqrtss %xmm0,%xmm0
    1914:	f3 0f 58 c0          	addss  %xmm0,%xmm0
    1918:	0f 28 eb             	movaps %xmm3,%xmm5
    191b:	f3 0f 10 4b 1c       	movss  0x1c(%rbx),%xmm1
    1920:	f3 0f 5c 4b 14       	subss  0x14(%rbx),%xmm1
    1925:	f3 0f 5e e8          	divss  %xmm0,%xmm5
    1929:	f3 0f 59 c4          	mulss  %xmm4,%xmm0
    192d:	f3 0f 59 cd          	mulss  %xmm5,%xmm1
    1931:	0f 14 c8             	unpcklps %xmm0,%xmm1
    1934:	f3 0f 10 43 04       	movss  0x4(%rbx),%xmm0
    1939:	f3 0f 58 43 0c       	addss  0xc(%rbx),%xmm0
    193e:	41 0f 13 0c 24       	movlps %xmm1,(%r12)
    1943:	f3 0f 59 c5          	mulss  %xmm5,%xmm0
    1947:	f3 41 0f 11 44 24 08 	movss  %xmm0,0x8(%r12)
    194e:	f3 0f 10 43 08       	movss  0x8(%rbx),%xmm0
    1953:	f3 0f 58 43 18       	addss  0x18(%rbx),%xmm0
    1958:	f3 0f 59 c5          	mulss  %xmm5,%xmm0
    195c:	e9 58 fe ff ff       	jmp    17b9 <riscv_dsp_rotation2quaternion_f32+0xb9>
    1961:	0f 1f 80 00 00 00 00 	nopl   0x0(%rax)
    1968:	c3                   	ret    
    1969:	89 54 24 1c          	mov    %edx,0x1c(%rsp)
    196d:	48 89 74 24 10       	mov    %rsi,0x10(%rsp)
    1972:	48 89 7c 24 08       	mov    %rdi,0x8(%rsp)
    1977:	e8 b4 f7 ff ff       	call   1130 <sqrtf@plt>
    197c:	8b 54 24 1c          	mov    0x1c(%rsp),%edx
    1980:	48 8b 74 24 10       	mov    0x10(%rsp),%rsi
    1985:	66 0f ef d2          	pxor   %xmm2,%xmm2
    1989:	f3 0f 10 25 13 08 00 	movss  0x813(%rip),%xmm4        # 21a4 <_IO_stdin_used+0x1a4>
    1990:	00 
    1991:	f3 0f 10 1d 07 08 00 	movss  0x807(%rip),%xmm3        # 21a0 <_IO_stdin_used+0x1a0>
    1998:	00 
    1999:	48 8b 7c 24 08       	mov    0x8(%rsp),%rdi
    199e:	e9 6e fe ff ff       	jmp    1811 <riscv_dsp_rotation2quaternion_f32+0x111>
    19a3:	89 54 24 1c          	mov    %edx,0x1c(%rsp)
    19a7:	48 89 74 24 10       	mov    %rsi,0x10(%rsp)
    19ac:	48 89 7c 24 08       	mov    %rdi,0x8(%rsp)
    19b1:	e8 7a f7 ff ff       	call   1130 <sqrtf@plt>
    19b6:	8b 54 24 1c          	mov    0x1c(%rsp),%edx
    19ba:	48 8b 74 24 10       	mov    0x10(%rsp),%rsi
    19bf:	66 0f ef d2          	pxor   %xmm2,%xmm2
    19c3:	f3 0f 10 25 d9 07 00 	movss  0x7d9(%rip),%xmm4        # 21a4 <_IO_stdin_used+0x1a4>
    19ca:	00 
    19cb:	f3 0f 10 1d cd 07 00 	movss  0x7cd(%rip),%xmm3        # 21a0 <_IO_stdin_used+0x1a0>
    19d2:	00 
    19d3:	48 8b 7c 24 08       	mov    0x8(%rsp),%rdi
    19d8:	e9 b7 fe ff ff       	jmp    1894 <riscv_dsp_rotation2quaternion_f32+0x194>
    19dd:	89 54 24 1c          	mov    %edx,0x1c(%rsp)
    19e1:	48 89 74 24 10       	mov    %rsi,0x10(%rsp)
    19e6:	48 89 7c 24 08       	mov    %rdi,0x8(%rsp)
    19eb:	e8 40 f7 ff ff       	call   1130 <sqrtf@plt>
    19f0:	8b 54 24 1c          	mov    0x1c(%rsp),%edx
    19f4:	48 8b 74 24 10       	mov    0x10(%rsp),%rsi
    19f9:	66 0f ef d2          	pxor   %xmm2,%xmm2
    19fd:	f3 0f 10 25 9f 07 00 	movss  0x79f(%rip),%xmm4        # 21a4 <_IO_stdin_used+0x1a4>
    1a04:	00 
    1a05:	f3 0f 10 1d 93 07 00 	movss  0x793(%rip),%xmm3        # 21a0 <_IO_stdin_used+0x1a0>
    1a0c:	00 
    1a0d:	48 8b 7c 24 08       	mov    0x8(%rsp),%rdi
    1a12:	e9 4c fd ff ff       	jmp    1763 <riscv_dsp_rotation2quaternion_f32+0x63>
    1a17:	89 54 24 1c          	mov    %edx,0x1c(%rsp)
    1a1b:	48 89 74 24 10       	mov    %rsi,0x10(%rsp)
    1a20:	48 89 7c 24 08       	mov    %rdi,0x8(%rsp)
    1a25:	e8 06 f7 ff ff       	call   1130 <sqrtf@plt>
    1a2a:	8b 54 24 1c          	mov    0x1c(%rsp),%edx
    1a2e:	48 8b 74 24 10       	mov    0x10(%rsp),%rsi
    1a33:	66 0f ef d2          	pxor   %xmm2,%xmm2
    1a37:	f3 0f 10 25 65 07 00 	movss  0x765(%rip),%xmm4        # 21a4 <_IO_stdin_used+0x1a4>
    1a3e:	00 
    1a3f:	f3 0f 10 1d 59 07 00 	movss  0x759(%rip),%xmm3        # 21a0 <_IO_stdin_used+0x1a0>
    1a46:	00 
    1a47:	48 8b 7c 24 08       	mov    0x8(%rsp),%rdi
    1a4c:	e9 c3 fe ff ff       	jmp    1914 <riscv_dsp_rotation2quaternion_f32+0x214>

Disassembly of section .fini:

0000000000001a54 <_fini>:
    1a54:	f3 0f 1e fa          	endbr64 
    1a58:	48 83 ec 08          	sub    $0x8,%rsp
    1a5c:	48 83 c4 08          	add    $0x8,%rsp
    1a60:	c3                   	ret    
