
t_scale_q31:     file format elf64-x86-64


Disassembly of section .init:

0000000000001000 <_init>:
    1000:	f3 0f 1e fa          	endbr64 
    1004:	48 83 ec 08          	sub    $0x8,%rsp
    1008:	48 8b 05 d9 2f 00 00 	mov    0x2fd9(%rip),%rax        # 3fe8 <__gmon_start__@Base>
    100f:	48 85 c0             	test   %rax,%rax
    1012:	74 02                	je     1016 <_init+0x16>
    1014:	ff d0                	call   *%rax
    1016:	48 83 c4 08          	add    $0x8,%rsp
    101a:	c3                   	ret    

Disassembly of section .plt:

0000000000001020 <.plt>:
    1020:	ff 35 52 2f 00 00    	push   0x2f52(%rip)        # 3f78 <_GLOBAL_OFFSET_TABLE_+0x8>
    1026:	f2 ff 25 53 2f 00 00 	bnd jmp *0x2f53(%rip)        # 3f80 <_GLOBAL_OFFSET_TABLE_+0x10>
    102d:	0f 1f 00             	nopl   (%rax)
    1030:	f3 0f 1e fa          	endbr64 
    1034:	68 00 00 00 00       	push   $0x0
    1039:	f2 e9 e1 ff ff ff    	bnd jmp 1020 <_init+0x20>
    103f:	90                   	nop
    1040:	f3 0f 1e fa          	endbr64 
    1044:	68 01 00 00 00       	push   $0x1
    1049:	f2 e9 d1 ff ff ff    	bnd jmp 1020 <_init+0x20>
    104f:	90                   	nop
    1050:	f3 0f 1e fa          	endbr64 
    1054:	68 02 00 00 00       	push   $0x2
    1059:	f2 e9 c1 ff ff ff    	bnd jmp 1020 <_init+0x20>
    105f:	90                   	nop
    1060:	f3 0f 1e fa          	endbr64 
    1064:	68 03 00 00 00       	push   $0x3
    1069:	f2 e9 b1 ff ff ff    	bnd jmp 1020 <_init+0x20>
    106f:	90                   	nop
    1070:	f3 0f 1e fa          	endbr64 
    1074:	68 04 00 00 00       	push   $0x4
    1079:	f2 e9 a1 ff ff ff    	bnd jmp 1020 <_init+0x20>
    107f:	90                   	nop
    1080:	f3 0f 1e fa          	endbr64 
    1084:	68 05 00 00 00       	push   $0x5
    1089:	f2 e9 91 ff ff ff    	bnd jmp 1020 <_init+0x20>
    108f:	90                   	nop
    1090:	f3 0f 1e fa          	endbr64 
    1094:	68 06 00 00 00       	push   $0x6
    1099:	f2 e9 81 ff ff ff    	bnd jmp 1020 <_init+0x20>
    109f:	90                   	nop
    10a0:	f3 0f 1e fa          	endbr64 
    10a4:	68 07 00 00 00       	push   $0x7
    10a9:	f2 e9 71 ff ff ff    	bnd jmp 1020 <_init+0x20>
    10af:	90                   	nop
    10b0:	f3 0f 1e fa          	endbr64 
    10b4:	68 08 00 00 00       	push   $0x8
    10b9:	f2 e9 61 ff ff ff    	bnd jmp 1020 <_init+0x20>
    10bf:	90                   	nop
    10c0:	f3 0f 1e fa          	endbr64 
    10c4:	68 09 00 00 00       	push   $0x9
    10c9:	f2 e9 51 ff ff ff    	bnd jmp 1020 <_init+0x20>
    10cf:	90                   	nop

Disassembly of section .plt.got:

00000000000010d0 <__cxa_finalize@plt>:
    10d0:	f3 0f 1e fa          	endbr64 
    10d4:	f2 ff 25 1d 2f 00 00 	bnd jmp *0x2f1d(%rip)        # 3ff8 <__cxa_finalize@GLIBC_2.2.5>
    10db:	0f 1f 44 00 00       	nopl   0x0(%rax,%rax,1)

Disassembly of section .plt.sec:

00000000000010e0 <puts@plt>:
    10e0:	f3 0f 1e fa          	endbr64 
    10e4:	f2 ff 25 9d 2e 00 00 	bnd jmp *0x2e9d(%rip)        # 3f88 <puts@GLIBC_2.2.5>
    10eb:	0f 1f 44 00 00       	nopl   0x0(%rax,%rax,1)

00000000000010f0 <fread@plt>:
    10f0:	f3 0f 1e fa          	endbr64 
    10f4:	f2 ff 25 95 2e 00 00 	bnd jmp *0x2e95(%rip)        # 3f90 <fread@GLIBC_2.2.5>
    10fb:	0f 1f 44 00 00       	nopl   0x0(%rax,%rax,1)

0000000000001100 <fclose@plt>:
    1100:	f3 0f 1e fa          	endbr64 
    1104:	f2 ff 25 8d 2e 00 00 	bnd jmp *0x2e8d(%rip)        # 3f98 <fclose@GLIBC_2.2.5>
    110b:	0f 1f 44 00 00       	nopl   0x0(%rax,%rax,1)

0000000000001110 <__stack_chk_fail@plt>:
    1110:	f3 0f 1e fa          	endbr64 
    1114:	f2 ff 25 85 2e 00 00 	bnd jmp *0x2e85(%rip)        # 3fa0 <__stack_chk_fail@GLIBC_2.4>
    111b:	0f 1f 44 00 00       	nopl   0x0(%rax,%rax,1)

0000000000001120 <log10f@plt>:
    1120:	f3 0f 1e fa          	endbr64 
    1124:	f2 ff 25 7d 2e 00 00 	bnd jmp *0x2e7d(%rip)        # 3fa8 <log10f@GLIBC_2.2.5>
    112b:	0f 1f 44 00 00       	nopl   0x0(%rax,%rax,1)

0000000000001130 <memcpy@plt>:
    1130:	f3 0f 1e fa          	endbr64 
    1134:	f2 ff 25 75 2e 00 00 	bnd jmp *0x2e75(%rip)        # 3fb0 <memcpy@GLIBC_2.14>
    113b:	0f 1f 44 00 00       	nopl   0x0(%rax,%rax,1)

0000000000001140 <__printf_chk@plt>:
    1140:	f3 0f 1e fa          	endbr64 
    1144:	f2 ff 25 6d 2e 00 00 	bnd jmp *0x2e6d(%rip)        # 3fb8 <__printf_chk@GLIBC_2.3.4>
    114b:	0f 1f 44 00 00       	nopl   0x0(%rax,%rax,1)

0000000000001150 <fopen@plt>:
    1150:	f3 0f 1e fa          	endbr64 
    1154:	f2 ff 25 65 2e 00 00 	bnd jmp *0x2e65(%rip)        # 3fc0 <fopen@GLIBC_2.2.5>
    115b:	0f 1f 44 00 00       	nopl   0x0(%rax,%rax,1)

0000000000001160 <sqrt@plt>:
    1160:	f3 0f 1e fa          	endbr64 
    1164:	f2 ff 25 5d 2e 00 00 	bnd jmp *0x2e5d(%rip)        # 3fc8 <sqrt@GLIBC_2.2.5>
    116b:	0f 1f 44 00 00       	nopl   0x0(%rax,%rax,1)

0000000000001170 <__sprintf_chk@plt>:
    1170:	f3 0f 1e fa          	endbr64 
    1174:	f2 ff 25 55 2e 00 00 	bnd jmp *0x2e55(%rip)        # 3fd0 <__sprintf_chk@GLIBC_2.3.4>
    117b:	0f 1f 44 00 00       	nopl   0x0(%rax,%rax,1)

Disassembly of section .text:

0000000000001180 <main>:
    1180:	f3 0f 1e fa          	endbr64 
    1184:	55                   	push   %rbp
    1185:	48 89 e5             	mov    %rsp,%rbp
    1188:	41 57                	push   %r15
    118a:	41 56                	push   %r14
    118c:	41 55                	push   %r13
    118e:	41 54                	push   %r12
    1190:	53                   	push   %rbx
    1191:	48 81 ec 08 03 00 00 	sub    $0x308,%rsp
    1198:	64 48 8b 04 25 28 00 	mov    %fs:0x28,%rax
    119f:	00 00 
    11a1:	48 89 45 c8          	mov    %rax,-0x38(%rbp)
    11a5:	31 c0                	xor    %eax,%eax
    11a7:	48 8d 84 24 00 00 fe 	lea    -0x20000(%rsp),%rax
    11ae:	ff 
    11af:	48 39 c4             	cmp    %rax,%rsp
    11b2:	74 15                	je     11c9 <main+0x49>
    11b4:	48 81 ec 00 10 00 00 	sub    $0x1000,%rsp
    11bb:	48 83 8c 24 f8 0f 00 	orq    $0x0,0xff8(%rsp)
    11c2:	00 00 
    11c4:	48 39 c4             	cmp    %rax,%rsp
    11c7:	75 eb                	jne    11b4 <main+0x34>
    11c9:	49 89 e6             	mov    %rsp,%r14
    11cc:	48 8d 84 24 00 00 fe 	lea    -0x20000(%rsp),%rax
    11d3:	ff 
    11d4:	48 39 c4             	cmp    %rax,%rsp
    11d7:	74 12                	je     11eb <main+0x6b>
    11d9:	48 81 ec 00 10 00 00 	sub    $0x1000,%rsp
    11e0:	48 83 8c 24 f8 0f 00 	orq    $0x0,0xff8(%rsp)
    11e7:	00 00 
    11e9:	eb e9                	jmp    11d4 <main+0x54>
    11eb:	48 89 a5 f8 fc ff ff 	mov    %rsp,-0x308(%rbp)
    11f2:	48 8d 84 24 00 00 fe 	lea    -0x20000(%rsp),%rax
    11f9:	ff 
    11fa:	48 39 c4             	cmp    %rax,%rsp
    11fd:	74 12                	je     1211 <main+0x91>
    11ff:	48 81 ec 00 10 00 00 	sub    $0x1000,%rsp
    1206:	48 83 8c 24 f8 0f 00 	orq    $0x0,0xff8(%rsp)
    120d:	00 00 
    120f:	eb e9                	jmp    11fa <main+0x7a>
    1211:	48 89 a5 f0 fc ff ff 	mov    %rsp,-0x310(%rbp)
    1218:	48 8d 84 24 00 00 fc 	lea    -0x40000(%rsp),%rax
    121f:	ff 
    1220:	48 39 c4             	cmp    %rax,%rsp
    1223:	74 12                	je     1237 <main+0xb7>
    1225:	48 81 ec 00 10 00 00 	sub    $0x1000,%rsp
    122c:	48 83 8c 24 f8 0f 00 	orq    $0x0,0xff8(%rsp)
    1233:	00 00 
    1235:	eb e9                	jmp    1220 <main+0xa0>
    1237:	56                   	push   %rsi
    1238:	56                   	push   %rsi
    1239:	48 83 4c 24 08 00    	orq    $0x0,0x8(%rsp)
    123f:	4c 8d 05 c2 0d 00 00 	lea    0xdc2(%rip),%r8        # 2008 <_IO_stdin_used+0x8>
    1246:	ba 00 02 00 00       	mov    $0x200,%edx
    124b:	31 c0                	xor    %eax,%eax
    124d:	48 8d 0d 46 0e 00 00 	lea    0xe46(%rip),%rcx        # 209a <_IO_stdin_used+0x9a>
    1254:	be 01 00 00 00       	mov    $0x1,%esi
    1259:	4c 8d 25 4b 0e 00 00 	lea    0xe4b(%rip),%r12        # 20ab <_IO_stdin_used+0xab>
    1260:	48 8d 9d c0 fd ff ff 	lea    -0x240(%rbp),%rbx
    1267:	49 89 e7             	mov    %rsp,%r15
    126a:	48 89 df             	mov    %rbx,%rdi
    126d:	e8 fe fe ff ff       	call   1170 <__sprintf_chk@plt>
    1272:	4c 89 e6             	mov    %r12,%rsi
    1275:	48 89 df             	mov    %rbx,%rdi
    1278:	e8 d3 fe ff ff       	call   1150 <fopen@plt>
    127d:	49 89 c5             	mov    %rax,%r13
    1280:	48 85 c0             	test   %rax,%rax
    1283:	0f 84 5f 06 00 00    	je     18e8 <main+0x768>
    1289:	ba 00 02 00 00       	mov    $0x200,%edx
    128e:	be 01 00 00 00       	mov    $0x1,%esi
    1293:	48 89 df             	mov    %rbx,%rdi
    1296:	31 c0                	xor    %eax,%eax
    1298:	4c 8d 05 69 0d 00 00 	lea    0xd69(%rip),%r8        # 2008 <_IO_stdin_used+0x8>
    129f:	48 8d 0d 07 0e 00 00 	lea    0xe07(%rip),%rcx        # 20ad <_IO_stdin_used+0xad>
    12a6:	e8 c5 fe ff ff       	call   1170 <__sprintf_chk@plt>
    12ab:	4c 89 e6             	mov    %r12,%rsi
    12ae:	48 89 df             	mov    %rbx,%rdi
    12b1:	e8 9a fe ff ff       	call   1150 <fopen@plt>
    12b6:	49 89 c4             	mov    %rax,%r12
    12b9:	48 85 c0             	test   %rax,%rax
    12bc:	0f 84 26 06 00 00    	je     18e8 <main+0x768>
    12c2:	4c 89 ea             	mov    %r13,%rdx
    12c5:	be ff 7f 00 00       	mov    $0x7fff,%esi
    12ca:	4c 89 f7             	mov    %r14,%rdi
    12cd:	e8 1e 07 00 00       	call   19f0 <test_Fread.constprop.0.isra.0>
    12d2:	4c 89 e2             	mov    %r12,%rdx
    12d5:	be 04 00 01 00       	mov    $0x10004,%esi
    12da:	4c 89 ff             	mov    %r15,%rdi
    12dd:	e8 0e 07 00 00       	call   19f0 <test_Fread.constprop.0.isra.0>
    12e2:	48 8b 8d f8 fc ff ff 	mov    -0x308(%rbp),%rcx
    12e9:	41 b8 ff 7f 00 00    	mov    $0x7fff,%r8d
    12ef:	4c 89 f7             	mov    %r14,%rdi
    12f2:	ba fb ff ff ff       	mov    $0xfffffffb,%edx
    12f7:	be 00 10 04 00       	mov    $0x41000,%esi
    12fc:	e8 bf 07 00 00       	call   1ac0 <riscv_dsp_scale_q31>
    1301:	48 8b 8d f0 fc ff ff 	mov    -0x310(%rbp),%rcx
    1308:	41 b8 ff 7f 00 00    	mov    $0x7fff,%r8d
    130e:	4c 89 f7             	mov    %r14,%rdi
    1311:	ba 05 00 00 00       	mov    $0x5,%edx
    1316:	be 00 10 04 00       	mov    $0x41000,%esi
    131b:	e8 a0 07 00 00       	call   1ac0 <riscv_dsp_scale_q31>
    1320:	66 0f 6f 05 e8 0d 00 	movdqa 0xde8(%rip),%xmm0        # 2110 <_IO_stdin_used+0x110>
    1327:	00 
    1328:	48 8b 05 e1 0d 00 00 	mov    0xde1(%rip),%rax        # 2110 <_IO_stdin_used+0x110>
    132f:	48 8d 8d 40 fd ff ff 	lea    -0x2c0(%rbp),%rcx
    1336:	41 b8 06 00 00 00    	mov    $0x6,%r8d
    133c:	ba 05 00 00 00       	mov    $0x5,%edx
    1341:	be f0 ff ff 7f       	mov    $0x7ffffff0,%esi
    1346:	48 8d bd 20 fd ff ff 	lea    -0x2e0(%rbp),%rdi
    134d:	0f 29 85 20 fd ff ff 	movaps %xmm0,-0x2e0(%rbp)
    1354:	48 89 85 30 fd ff ff 	mov    %rax,-0x2d0(%rbp)
    135b:	e8 60 07 00 00       	call   1ac0 <riscv_dsp_scale_q31>
    1360:	41 b8 03 00 00 00    	mov    $0x3,%r8d
    1366:	ba 05 00 00 00       	mov    $0x5,%edx
    136b:	48 8b 05 de 0d 00 00 	mov    0xdde(%rip),%rax        # 2150 <_IO_stdin_used+0x150>
    1372:	48 8d 8d 10 fd ff ff 	lea    -0x2f0(%rbp),%rcx
    1379:	be 00 00 00 70       	mov    $0x70000000,%esi
    137e:	48 8d bd 00 fd ff ff 	lea    -0x300(%rbp),%rdi
    1385:	c7 85 08 fd ff ff 00 	movl   $0x8f000000,-0x2f8(%rbp)
    138c:	00 00 8f 
    138f:	48 89 85 00 fd ff ff 	mov    %rax,-0x300(%rbp)
    1396:	e8 25 07 00 00       	call   1ac0 <riscv_dsp_scale_q31>
    139b:	66 0f 6f 05 7d 0d 00 	movdqa 0xd7d(%rip),%xmm0        # 2120 <_IO_stdin_used+0x120>
    13a2:	00 
    13a3:	31 d2                	xor    %edx,%edx
    13a5:	48 8d 8d 90 fd ff ff 	lea    -0x270(%rbp),%rcx
    13ac:	48 8d bd 60 fd ff ff 	lea    -0x2a0(%rbp),%rdi
    13b3:	41 b8 09 00 00 00    	mov    $0x9,%r8d
    13b9:	be eb 51 b8 7e       	mov    $0x7eb851eb,%esi
    13be:	c7 85 80 fd ff ff 68 	movl   $0x2b894868,-0x280(%rbp)
    13c5:	48 89 2b 
    13c8:	0f 29 85 60 fd ff ff 	movaps %xmm0,-0x2a0(%rbp)
    13cf:	66 0f 6f 05 59 0d 00 	movdqa 0xd59(%rip),%xmm0        # 2130 <_IO_stdin_used+0x130>
    13d6:	00 
    13d7:	0f 29 85 70 fd ff ff 	movaps %xmm0,-0x290(%rbp)
    13de:	e8 dd 06 00 00       	call   1ac0 <riscv_dsp_scale_q31>
    13e3:	81 bd 90 fd ff ff b1 	cmpl   $0x576fdab1,-0x270(%rbp)
    13ea:	da 6f 57 
    13ed:	74 0c                	je     13fb <main+0x27b>
    13ef:	48 8d 3d cf 0c 00 00 	lea    0xccf(%rip),%rdi        # 20c5 <_IO_stdin_used+0xc5>
    13f6:	e8 e5 fc ff ff       	call   10e0 <puts@plt>
    13fb:	81 bd 94 fd ff ff 3d 	cmpl   $0x400bef3d,-0x26c(%rbp)
    1402:	ef 0b 40 
    1405:	74 0c                	je     1413 <main+0x293>
    1407:	48 8d 3d b7 0c 00 00 	lea    0xcb7(%rip),%rdi        # 20c5 <_IO_stdin_used+0xc5>
    140e:	e8 cd fc ff ff       	call   10e0 <puts@plt>
    1413:	81 bd 98 fd ff ff 73 	cmpl   $0x4af42473,-0x268(%rbp)
    141a:	24 f4 4a 
    141d:	74 0c                	je     142b <main+0x2ab>
    141f:	48 8d 3d 9f 0c 00 00 	lea    0xc9f(%rip),%rdi        # 20c5 <_IO_stdin_used+0xc5>
    1426:	e8 b5 fc ff ff       	call   10e0 <puts@plt>
    142b:	81 bd 9c fd ff ff 6d 	cmpl   $0x464d666d,-0x264(%rbp)
    1432:	66 4d 46 
    1435:	74 0c                	je     1443 <main+0x2c3>
    1437:	48 8d 3d 87 0c 00 00 	lea    0xc87(%rip),%rdi        # 20c5 <_IO_stdin_used+0xc5>
    143e:	e8 9d fc ff ff       	call   10e0 <puts@plt>
    1443:	81 bd a0 fd ff ff 1a 	cmpl   $0x2ff45a1a,-0x260(%rbp)
    144a:	5a f4 2f 
    144d:	74 0c                	je     145b <main+0x2db>
    144f:	48 8d 3d 6f 0c 00 00 	lea    0xc6f(%rip),%rdi        # 20c5 <_IO_stdin_used+0xc5>
    1456:	e8 85 fc ff ff       	call   10e0 <puts@plt>
    145b:	81 bd a4 fd ff ff 90 	cmpl   $0x20a8e990,-0x25c(%rbp)
    1462:	e9 a8 20 
    1465:	74 0c                	je     1473 <main+0x2f3>
    1467:	48 8d 3d 57 0c 00 00 	lea    0xc57(%rip),%rdi        # 20c5 <_IO_stdin_used+0xc5>
    146e:	e8 6d fc ff ff       	call   10e0 <puts@plt>
    1473:	81 bd a8 fd ff ff fe 	cmpl   $0x1a478afe,-0x258(%rbp)
    147a:	8a 47 1a 
    147d:	74 0c                	je     148b <main+0x30b>
    147f:	48 8d 3d 3f 0c 00 00 	lea    0xc3f(%rip),%rdi        # 20c5 <_IO_stdin_used+0xc5>
    1486:	e8 55 fc ff ff       	call   10e0 <puts@plt>
    148b:	81 bd ac fd ff ff 2f 	cmpl   $0x4f5c232f,-0x254(%rbp)
    1492:	23 5c 4f 
    1495:	74 0c                	je     14a3 <main+0x323>
    1497:	48 8d 3d 27 0c 00 00 	lea    0xc27(%rip),%rdi        # 20c5 <_IO_stdin_used+0xc5>
    149e:	e8 3d fc ff ff       	call   10e0 <puts@plt>
    14a3:	81 bd b0 fd ff ff 7b 	cmpl   $0x2b19d47b,-0x250(%rbp)
    14aa:	d4 19 2b 
    14ad:	74 0c                	je     14bb <main+0x33b>
    14af:	48 8d 3d 0f 0c 00 00 	lea    0xc0f(%rip),%rdi        # 20c5 <_IO_stdin_used+0xc5>
    14b6:	e8 25 fc ff ff       	call   10e0 <puts@plt>
    14bb:	48 8d 84 24 00 00 fc 	lea    -0x40000(%rsp),%rax
    14c2:	ff 
    14c3:	48 39 c4             	cmp    %rax,%rsp
    14c6:	74 15                	je     14dd <main+0x35d>
    14c8:	48 81 ec 00 10 00 00 	sub    $0x1000,%rsp
    14cf:	48 83 8c 24 f8 0f 00 	orq    $0x0,0xff8(%rsp)
    14d6:	00 00 
    14d8:	48 39 c4             	cmp    %rax,%rsp
    14db:	75 eb                	jne    14c8 <main+0x348>
    14dd:	51                   	push   %rcx
    14de:	51                   	push   %rcx
    14df:	48 83 4c 24 08 00    	orq    $0x0,0x8(%rsp)
    14e5:	48 89 e3             	mov    %rsp,%rbx
    14e8:	48 8d 84 24 00 00 fc 	lea    -0x40000(%rsp),%rax
    14ef:	ff 
    14f0:	48 39 c4             	cmp    %rax,%rsp
    14f3:	74 12                	je     1507 <main+0x387>
    14f5:	48 81 ec 00 10 00 00 	sub    $0x1000,%rsp
    14fc:	48 83 8c 24 f8 0f 00 	orq    $0x0,0xff8(%rsp)
    1503:	00 00 
    1505:	eb e9                	jmp    14f0 <main+0x370>
    1507:	52                   	push   %rdx
    1508:	52                   	push   %rdx
    1509:	48 83 4c 24 08 00    	orq    $0x0,0x8(%rsp)
    150f:	49 89 e6             	mov    %rsp,%r14
    1512:	48 8d 84 24 00 00 fc 	lea    -0x40000(%rsp),%rax
    1519:	ff 
    151a:	48 39 c4             	cmp    %rax,%rsp
    151d:	74 12                	je     1531 <main+0x3b1>
    151f:	48 81 ec 00 10 00 00 	sub    $0x1000,%rsp
    1526:	48 83 8c 24 f8 0f 00 	orq    $0x0,0xff8(%rsp)
    152d:	00 00 
    152f:	eb e9                	jmp    151a <main+0x39a>
    1531:	50                   	push   %rax
    1532:	50                   	push   %rax
    1533:	48 83 4c 24 08 00    	orq    $0x0,0x8(%rsp)
    1539:	ba fc ff 01 00       	mov    $0x1fffc,%edx
    153e:	48 8b b5 f8 fc ff ff 	mov    -0x308(%rbp),%rsi
    1545:	4c 8d 44 24 03       	lea    0x3(%rsp),%r8
    154a:	4d 89 c2             	mov    %r8,%r10
    154d:	49 83 e0 fc          	and    $0xfffffffffffffffc,%r8
    1551:	4c 89 c7             	mov    %r8,%rdi
    1554:	49 c1 ea 02          	shr    $0x2,%r10
    1558:	4c 89 95 e8 fc ff ff 	mov    %r10,-0x318(%rbp)
    155f:	e8 cc fb ff ff       	call   1130 <memcpy@plt>
    1564:	48 8b b5 f0 fc ff ff 	mov    -0x310(%rbp),%rsi
    156b:	ba fc ff 01 00       	mov    $0x1fffc,%edx
    1570:	48 8d b8 fc ff 01 00 	lea    0x1fffc(%rax),%rdi
    1577:	48 89 85 f8 fc ff ff 	mov    %rax,-0x308(%rbp)
    157e:	e8 ad fb ff ff       	call   1130 <memcpy@plt>
    1583:	66 0f 6e a5 10 fd ff 	movd   -0x2f0(%rbp),%xmm4
    158a:	ff 
    158b:	4c 89 ef             	mov    %r13,%rdi
    158e:	66 0f 6e 8d 48 fd ff 	movd   -0x2b8(%rbp),%xmm1
    1595:	ff 
    1596:	4c 8b 95 e8 fc ff ff 	mov    -0x318(%rbp),%r10
    159d:	66 0f 6e 85 40 fd ff 	movd   -0x2c0(%rbp),%xmm0
    15a4:	ff 
    15a5:	66 0f 62 cc          	punpckldq %xmm4,%xmm1
    15a9:	48 8b 85 14 fd ff ff 	mov    -0x2ec(%rbp),%rax
    15b0:	66 0f 6e a5 44 fd ff 	movd   -0x2bc(%rbp),%xmm4
    15b7:	ff 
    15b8:	4a 89 04 95 08 00 04 	mov    %rax,0x40008(,%r10,4)
    15bf:	00 
    15c0:	66 0f 62 c4          	punpckldq %xmm4,%xmm0
    15c4:	66 0f 6c c1          	punpcklqdq %xmm1,%xmm0
    15c8:	42 0f 11 04 95 f8 ff 	movups %xmm0,0x3fff8(,%r10,4)
    15cf:	03 00 
    15d1:	e8 2a fb ff ff       	call   1100 <fclose@plt>
    15d6:	4c 89 e7             	mov    %r12,%rdi
    15d9:	e8 22 fb ff ff       	call   1100 <fclose@plt>
    15de:	ba 04 00 01 00       	mov    $0x10004,%edx
    15e3:	48 89 de             	mov    %rbx,%rsi
    15e6:	4c 89 ff             	mov    %r15,%rdi
    15e9:	e8 12 04 00 00       	call   1a00 <riscv_dsp_convert_q31_f32>
    15ee:	48 8b bd f8 fc ff ff 	mov    -0x308(%rbp),%rdi
    15f5:	ba 04 00 01 00       	mov    $0x10004,%edx
    15fa:	4c 89 f6             	mov    %r14,%rsi
    15fd:	e8 fe 03 00 00       	call   1a00 <riscv_dsp_convert_q31_f32>
    1602:	4c 8b 85 f8 fc ff ff 	mov    -0x308(%rbp),%r8
    1609:	31 c0                	xor    %eax,%eax
    160b:	66 0f ef d2          	pxor   %xmm2,%xmm2
    160f:	90                   	nop
    1610:	f3 41 0f 6f 04 07    	movdqu (%r15,%rax,1),%xmm0
    1616:	f3 41 0f 6f 3c 00    	movdqu (%r8,%rax,1),%xmm7
    161c:	48 83 c0 10          	add    $0x10,%rax
    1620:	66 0f fa c7          	psubd  %xmm7,%xmm0
    1624:	66 0f 6f c8          	movdqa %xmm0,%xmm1
    1628:	66 0f 72 e1 1f       	psrad  $0x1f,%xmm1
    162d:	66 0f ef c1          	pxor   %xmm1,%xmm0
    1631:	66 0f fa c1          	psubd  %xmm1,%xmm0
    1635:	66 0f 6f c8          	movdqa %xmm0,%xmm1
    1639:	66 0f 66 ca          	pcmpgtd %xmm2,%xmm1
    163d:	66 0f db c1          	pand   %xmm1,%xmm0
    1641:	66 0f df ca          	pandn  %xmm2,%xmm1
    1645:	66 0f 6f d1          	movdqa %xmm1,%xmm2
    1649:	66 0f eb d0          	por    %xmm0,%xmm2
    164d:	48 3d 10 00 04 00    	cmp    $0x40010,%rax
    1653:	75 bb                	jne    1610 <main+0x490>
    1655:	66 0f 6f c2          	movdqa %xmm2,%xmm0
    1659:	48 8d 35 76 0a 00 00 	lea    0xa76(%rip),%rsi        # 20d6 <_IO_stdin_used+0xd6>
    1660:	bf 01 00 00 00       	mov    $0x1,%edi
    1665:	31 c0                	xor    %eax,%eax
    1667:	66 0f 73 d8 08       	psrldq $0x8,%xmm0
    166c:	66 0f 6f c8          	movdqa %xmm0,%xmm1
    1670:	66 0f 66 ca          	pcmpgtd %xmm2,%xmm1
    1674:	66 0f db c1          	pand   %xmm1,%xmm0
    1678:	66 0f df ca          	pandn  %xmm2,%xmm1
    167c:	66 0f eb c8          	por    %xmm0,%xmm1
    1680:	66 0f 6f d1          	movdqa %xmm1,%xmm2
    1684:	66 0f 73 da 04       	psrldq $0x4,%xmm2
    1689:	66 0f 6f c2          	movdqa %xmm2,%xmm0
    168d:	66 0f 66 c1          	pcmpgtd %xmm1,%xmm0
    1691:	66 0f db d0          	pand   %xmm0,%xmm2
    1695:	66 0f df c1          	pandn  %xmm1,%xmm0
    1699:	66 0f eb c2          	por    %xmm2,%xmm0
    169d:	66 0f 7e c2          	movd   %xmm0,%edx
    16a1:	e8 9a fa ff ff       	call   1140 <__printf_chk@plt>
    16a6:	66 0f ef db          	pxor   %xmm3,%xmm3
    16aa:	66 0f ef ff          	pxor   %xmm7,%xmm7
    16ae:	31 c0                	xor    %eax,%eax
    16b0:	66 0f 28 ef          	movapd %xmm7,%xmm5
    16b4:	0f 28 e3             	movaps %xmm3,%xmm4
    16b7:	44 0f 28 c3          	movaps %xmm3,%xmm8
    16bb:	f3 44 0f 10 0d 7c 0a 	movss  0xa7c(%rip),%xmm9        # 2140 <_IO_stdin_used+0x140>
    16c2:	00 00 
    16c4:	0f 28 f3             	movaps %xmm3,%xmm6
    16c7:	66 0f 1f 84 00 00 00 	nopw   0x0(%rax,%rax,1)
    16ce:	00 00 
    16d0:	f3 41 0f 10 04 06    	movss  (%r14,%rax,1),%xmm0
    16d6:	f3 0f 10 0c 03       	movss  (%rbx,%rax,1),%xmm1
    16db:	66 0f 7e c2          	movd   %xmm0,%edx
    16df:	81 fa 00 00 c0 7f    	cmp    $0x7fc00000,%edx
    16e5:	0f 84 b7 01 00 00    	je     18a2 <main+0x722>
    16eb:	0f 28 d1             	movaps %xmm1,%xmm2
    16ee:	f3 0f 5c c1          	subss  %xmm1,%xmm0
    16f2:	48 83 c0 04          	add    $0x4,%rax
    16f6:	f3 0f 5f d6          	maxss  %xmm6,%xmm2
    16fa:	0f 28 f2             	movaps %xmm2,%xmm6
    16fd:	0f 28 d1             	movaps %xmm1,%xmm2
    1700:	f3 41 0f 5d d0       	minss  %xmm8,%xmm2
    1705:	f3 0f 59 c9          	mulss  %xmm1,%xmm1
    1709:	44 0f 28 c2          	movaps %xmm2,%xmm8
    170d:	0f 28 d0             	movaps %xmm0,%xmm2
    1710:	f3 0f 59 c0          	mulss  %xmm0,%xmm0
    1714:	41 0f 54 d1          	andps  %xmm9,%xmm2
    1718:	f3 0f 58 e2          	addss  %xmm2,%xmm4
    171c:	f3 0f 5f d3          	maxss  %xmm3,%xmm2
    1720:	f3 0f 5a c9          	cvtss2sd %xmm1,%xmm1
    1724:	f2 0f 58 f9          	addsd  %xmm1,%xmm7
    1728:	0f 28 da             	movaps %xmm2,%xmm3
    172b:	f3 0f 5a c0          	cvtss2sd %xmm0,%xmm0
    172f:	f2 0f 58 e8          	addsd  %xmm0,%xmm5
    1733:	48 3d 10 00 04 00    	cmp    $0x40010,%rax
    1739:	75 95                	jne    16d0 <main+0x550>
    173b:	66 48 0f 7e e8       	movq   %xmm5,%rax
    1740:	f3 0f 11 95 e4 fc ff 	movss  %xmm2,-0x31c(%rbp)
    1747:	ff 
    1748:	f3 44 0f 11 85 e8 fc 	movss  %xmm8,-0x318(%rbp)
    174f:	ff ff 
    1751:	f3 0f 11 b5 f0 fc ff 	movss  %xmm6,-0x310(%rbp)
    1758:	ff 
    1759:	f2 0f 11 bd f8 fc ff 	movsd  %xmm7,-0x308(%rbp)
    1760:	ff 
    1761:	3d 00 00 c0 7f       	cmp    $0x7fc00000,%eax
    1766:	0f 84 36 01 00 00    	je     18a2 <main+0x722>
    176c:	66 0f 28 c5          	movapd %xmm5,%xmm0
    1770:	f3 0f 5e 25 8c 09 00 	divss  0x98c(%rip),%xmm4        # 2104 <_IO_stdin_used+0x104>
    1777:	00 
    1778:	f2 0f 11 ad d8 fc ff 	movsd  %xmm5,-0x328(%rbp)
    177f:	ff 
    1780:	66 0f 7e e3          	movd   %xmm4,%ebx
    1784:	f2 0f 5e 05 cc 09 00 	divsd  0x9cc(%rip),%xmm0        # 2158 <_IO_stdin_used+0x158>
    178b:	00 
    178c:	e8 cf f9 ff ff       	call   1160 <sqrt@plt>
    1791:	f3 0f 10 b5 f0 fc ff 	movss  -0x310(%rbp),%xmm6
    1798:	ff 
    1799:	f3 44 0f 10 85 e8 fc 	movss  -0x318(%rbp),%xmm8
    17a0:	ff ff 
    17a2:	66 0f ef c9          	pxor   %xmm1,%xmm1
    17a6:	66 0f ef e4          	pxor   %xmm4,%xmm4
    17aa:	f2 0f 10 bd f8 fc ff 	movsd  -0x308(%rbp),%xmm7
    17b1:	ff 
    17b2:	f3 0f 10 9d e4 fc ff 	movss  -0x31c(%rbp),%xmm3
    17b9:	ff 
    17ba:	f3 41 0f 5c f0       	subss  %xmm8,%xmm6
    17bf:	f2 0f 5a c8          	cvtsd2ss %xmm0,%xmm1
    17c3:	0f 28 e9             	movaps %xmm1,%xmm5
    17c6:	f3 0f 5e ee          	divss  %xmm6,%xmm5
    17ca:	66 41 0f 7e ec       	movd   %xmm5,%r12d
    17cf:	f2 0f 10 ad d8 fc ff 	movsd  -0x328(%rbp),%xmm5
    17d6:	ff 
    17d7:	66 0f 2e ec          	ucomisd %xmm4,%xmm5
    17db:	0f 8a c5 00 00 00    	jp     18a6 <main+0x726>
    17e1:	f3 0f 10 25 17 09 00 	movss  0x917(%rip),%xmm4        # 2100 <_IO_stdin_used+0x100>
    17e8:	00 
    17e9:	0f 85 b7 00 00 00    	jne    18a6 <main+0x726>
    17ef:	48 8d 3d f3 08 00 00 	lea    0x8f3(%rip),%rdi        # 20e9 <_IO_stdin_used+0xe9>
    17f6:	f3 0f 11 9d e8 fc ff 	movss  %xmm3,-0x318(%rbp)
    17fd:	ff 
    17fe:	f3 0f 11 a5 f8 fc ff 	movss  %xmm4,-0x308(%rbp)
    1805:	ff 
    1806:	f3 0f 11 8d f0 fc ff 	movss  %xmm1,-0x310(%rbp)
    180d:	ff 
    180e:	e8 cd f8 ff ff       	call   10e0 <puts@plt>
    1813:	66 41 0f 6e ec       	movd   %r12d,%xmm5
    1818:	66 0f ef d2          	pxor   %xmm2,%xmm2
    181c:	f3 0f 10 a5 f8 fc ff 	movss  -0x308(%rbp),%xmm4
    1823:	ff 
    1824:	f3 0f 10 9d e8 fc ff 	movss  -0x318(%rbp),%xmm3
    182b:	ff 
    182c:	f3 0f 10 8d f0 fc ff 	movss  -0x310(%rbp),%xmm1
    1833:	ff 
    1834:	f3 0f 5a d5          	cvtss2sd %xmm5,%xmm2
    1838:	66 0f ef c0          	pxor   %xmm0,%xmm0
    183c:	66 0f 6e eb          	movd   %ebx,%xmm5
    1840:	48 8d 35 01 08 00 00 	lea    0x801(%rip),%rsi        # 2048 <_IO_stdin_used+0x48>
    1847:	bf 01 00 00 00       	mov    $0x1,%edi
    184c:	b8 05 00 00 00       	mov    $0x5,%eax
    1851:	f3 0f 5a c5          	cvtss2sd %xmm5,%xmm0
    1855:	f3 0f 5a e4          	cvtss2sd %xmm4,%xmm4
    1859:	f3 0f 5a db          	cvtss2sd %xmm3,%xmm3
    185d:	f3 0f 5a c9          	cvtss2sd %xmm1,%xmm1
    1861:	f2 0f 11 95 f8 fc ff 	movsd  %xmm2,-0x308(%rbp)
    1868:	ff 
    1869:	e8 d2 f8 ff ff       	call   1140 <__printf_chk@plt>
    186e:	f2 0f 10 05 ea 08 00 	movsd  0x8ea(%rip),%xmm0        # 2160 <_IO_stdin_used+0x160>
    1875:	00 
    1876:	f2 0f 10 95 f8 fc ff 	movsd  -0x308(%rbp),%xmm2
    187d:	ff 
    187e:	66 0f 2f c2          	comisd %xmm2,%xmm0
    1882:	19 c0                	sbb    %eax,%eax
    1884:	48 8b 55 c8          	mov    -0x38(%rbp),%rdx
    1888:	64 48 2b 14 25 28 00 	sub    %fs:0x28,%rdx
    188f:	00 00 
    1891:	75 5a                	jne    18ed <main+0x76d>
    1893:	48 8d 65 d8          	lea    -0x28(%rbp),%rsp
    1897:	5b                   	pop    %rbx
    1898:	41 5c                	pop    %r12
    189a:	41 5d                	pop    %r13
    189c:	41 5e                	pop    %r14
    189e:	41 5f                	pop    %r15
    18a0:	5d                   	pop    %rbp
    18a1:	c3                   	ret    
    18a2:	31 c0                	xor    %eax,%eax
    18a4:	eb de                	jmp    1884 <main+0x704>
    18a6:	f2 0f 5e fd          	divsd  %xmm5,%xmm7
    18aa:	66 0f ef c0          	pxor   %xmm0,%xmm0
    18ae:	f3 0f 11 9d f0 fc ff 	movss  %xmm3,-0x310(%rbp)
    18b5:	ff 
    18b6:	f3 0f 11 8d f8 fc ff 	movss  %xmm1,-0x308(%rbp)
    18bd:	ff 
    18be:	f2 0f 5a c7          	cvtsd2ss %xmm7,%xmm0
    18c2:	e8 59 f8 ff ff       	call   1120 <log10f@plt>
    18c7:	f3 0f 10 25 39 08 00 	movss  0x839(%rip),%xmm4        # 2108 <_IO_stdin_used+0x108>
    18ce:	00 
    18cf:	f3 0f 10 9d f0 fc ff 	movss  -0x310(%rbp),%xmm3
    18d6:	ff 
    18d7:	f3 0f 10 8d f8 fc ff 	movss  -0x308(%rbp),%xmm1
    18de:	ff 
    18df:	f3 0f 59 e0          	mulss  %xmm0,%xmm4
    18e3:	e9 07 ff ff ff       	jmp    17ef <main+0x66f>
    18e8:	83 c8 ff             	or     $0xffffffff,%eax
    18eb:	eb 97                	jmp    1884 <main+0x704>
    18ed:	e8 1e f8 ff ff       	call   1110 <__stack_chk_fail@plt>
    18f2:	66 2e 0f 1f 84 00 00 	cs nopw 0x0(%rax,%rax,1)
    18f9:	00 00 00 
    18fc:	0f 1f 40 00          	nopl   0x0(%rax)

0000000000001900 <_start>:
    1900:	f3 0f 1e fa          	endbr64 
    1904:	31 ed                	xor    %ebp,%ebp
    1906:	49 89 d1             	mov    %rdx,%r9
    1909:	5e                   	pop    %rsi
    190a:	48 89 e2             	mov    %rsp,%rdx
    190d:	48 83 e4 f0          	and    $0xfffffffffffffff0,%rsp
    1911:	50                   	push   %rax
    1912:	54                   	push   %rsp
    1913:	45 31 c0             	xor    %r8d,%r8d
    1916:	31 c9                	xor    %ecx,%ecx
    1918:	48 8d 3d 61 f8 ff ff 	lea    -0x79f(%rip),%rdi        # 1180 <main>
    191f:	ff 15 b3 26 00 00    	call   *0x26b3(%rip)        # 3fd8 <__libc_start_main@GLIBC_2.34>
    1925:	f4                   	hlt    
    1926:	66 2e 0f 1f 84 00 00 	cs nopw 0x0(%rax,%rax,1)
    192d:	00 00 00 

0000000000001930 <deregister_tm_clones>:
    1930:	48 8d 3d d9 26 00 00 	lea    0x26d9(%rip),%rdi        # 4010 <__TMC_END__>
    1937:	48 8d 05 d2 26 00 00 	lea    0x26d2(%rip),%rax        # 4010 <__TMC_END__>
    193e:	48 39 f8             	cmp    %rdi,%rax
    1941:	74 15                	je     1958 <deregister_tm_clones+0x28>
    1943:	48 8b 05 96 26 00 00 	mov    0x2696(%rip),%rax        # 3fe0 <_ITM_deregisterTMCloneTable@Base>
    194a:	48 85 c0             	test   %rax,%rax
    194d:	74 09                	je     1958 <deregister_tm_clones+0x28>
    194f:	ff e0                	jmp    *%rax
    1951:	0f 1f 80 00 00 00 00 	nopl   0x0(%rax)
    1958:	c3                   	ret    
    1959:	0f 1f 80 00 00 00 00 	nopl   0x0(%rax)

0000000000001960 <register_tm_clones>:
    1960:	48 8d 3d a9 26 00 00 	lea    0x26a9(%rip),%rdi        # 4010 <__TMC_END__>
    1967:	48 8d 35 a2 26 00 00 	lea    0x26a2(%rip),%rsi        # 4010 <__TMC_END__>
    196e:	48 29 fe             	sub    %rdi,%rsi
    1971:	48 89 f0             	mov    %rsi,%rax
    1974:	48 c1 ee 3f          	shr    $0x3f,%rsi
    1978:	48 c1 f8 03          	sar    $0x3,%rax
    197c:	48 01 c6             	add    %rax,%rsi
    197f:	48 d1 fe             	sar    %rsi
    1982:	74 14                	je     1998 <register_tm_clones+0x38>
    1984:	48 8b 05 65 26 00 00 	mov    0x2665(%rip),%rax        # 3ff0 <_ITM_registerTMCloneTable@Base>
    198b:	48 85 c0             	test   %rax,%rax
    198e:	74 08                	je     1998 <register_tm_clones+0x38>
    1990:	ff e0                	jmp    *%rax
    1992:	66 0f 1f 44 00 00    	nopw   0x0(%rax,%rax,1)
    1998:	c3                   	ret    
    1999:	0f 1f 80 00 00 00 00 	nopl   0x0(%rax)

00000000000019a0 <__do_global_dtors_aux>:
    19a0:	f3 0f 1e fa          	endbr64 
    19a4:	80 3d 65 26 00 00 00 	cmpb   $0x0,0x2665(%rip)        # 4010 <__TMC_END__>
    19ab:	75 2b                	jne    19d8 <__do_global_dtors_aux+0x38>
    19ad:	55                   	push   %rbp
    19ae:	48 83 3d 42 26 00 00 	cmpq   $0x0,0x2642(%rip)        # 3ff8 <__cxa_finalize@GLIBC_2.2.5>
    19b5:	00 
    19b6:	48 89 e5             	mov    %rsp,%rbp
    19b9:	74 0c                	je     19c7 <__do_global_dtors_aux+0x27>
    19bb:	48 8b 3d 46 26 00 00 	mov    0x2646(%rip),%rdi        # 4008 <__dso_handle>
    19c2:	e8 09 f7 ff ff       	call   10d0 <__cxa_finalize@plt>
    19c7:	e8 64 ff ff ff       	call   1930 <deregister_tm_clones>
    19cc:	c6 05 3d 26 00 00 01 	movb   $0x1,0x263d(%rip)        # 4010 <__TMC_END__>
    19d3:	5d                   	pop    %rbp
    19d4:	c3                   	ret    
    19d5:	0f 1f 00             	nopl   (%rax)
    19d8:	c3                   	ret    
    19d9:	0f 1f 80 00 00 00 00 	nopl   0x0(%rax)

00000000000019e0 <frame_dummy>:
    19e0:	f3 0f 1e fa          	endbr64 
    19e4:	e9 77 ff ff ff       	jmp    1960 <register_tm_clones>
    19e9:	0f 1f 80 00 00 00 00 	nopl   0x0(%rax)

00000000000019f0 <test_Fread.constprop.0.isra.0>:
    19f0:	48 89 d1             	mov    %rdx,%rcx
    19f3:	89 f2                	mov    %esi,%edx
    19f5:	be 04 00 00 00       	mov    $0x4,%esi
    19fa:	e9 f1 f6 ff ff       	jmp    10f0 <fread@plt>
    19ff:	90                   	nop

0000000000001a00 <riscv_dsp_convert_q31_f32>:
    1a00:	f3 0f 1e fa          	endbr64 
    1a04:	48 89 f1             	mov    %rsi,%rcx
    1a07:	85 d2                	test   %edx,%edx
    1a09:	0f 84 97 00 00 00    	je     1aa6 <riscv_dsp_convert_q31_f32+0xa6>
    1a0f:	8d 42 ff             	lea    -0x1(%rdx),%eax
    1a12:	83 f8 02             	cmp    $0x2,%eax
    1a15:	0f 86 96 00 00 00    	jbe    1ab1 <riscv_dsp_convert_q31_f32+0xb1>
    1a1b:	89 d6                	mov    %edx,%esi
    1a1d:	0f 28 0d 4c 07 00 00 	movaps 0x74c(%rip),%xmm1        # 2170 <_IO_stdin_used+0x170>
    1a24:	31 c0                	xor    %eax,%eax
    1a26:	c1 ee 02             	shr    $0x2,%esi
    1a29:	48 c1 e6 04          	shl    $0x4,%rsi
    1a2d:	0f 1f 00             	nopl   (%rax)
    1a30:	f3 0f 6f 14 07       	movdqu (%rdi,%rax,1),%xmm2
    1a35:	0f 5b c2             	cvtdq2ps %xmm2,%xmm0
    1a38:	0f 59 c1             	mulps  %xmm1,%xmm0
    1a3b:	0f 11 04 01          	movups %xmm0,(%rcx,%rax,1)
    1a3f:	48 83 c0 10          	add    $0x10,%rax
    1a43:	48 39 f0             	cmp    %rsi,%rax
    1a46:	75 e8                	jne    1a30 <riscv_dsp_convert_q31_f32+0x30>
    1a48:	89 d6                	mov    %edx,%esi
    1a4a:	83 e6 fc             	and    $0xfffffffc,%esi
    1a4d:	89 f0                	mov    %esi,%eax
    1a4f:	48 c1 e0 02          	shl    $0x2,%rax
    1a53:	4c 8d 04 07          	lea    (%rdi,%rax,1),%r8
    1a57:	48 01 c8             	add    %rcx,%rax
    1a5a:	39 f2                	cmp    %esi,%edx
    1a5c:	74 52                	je     1ab0 <riscv_dsp_convert_q31_f32+0xb0>
    1a5e:	29 f2                	sub    %esi,%edx
    1a60:	83 fa 01             	cmp    $0x1,%edx
    1a63:	74 2c                	je     1a91 <riscv_dsp_convert_q31_f32+0x91>
    1a65:	f3 0f 7e 0d 03 07 00 	movq   0x703(%rip),%xmm1        # 2170 <_IO_stdin_used+0x170>
    1a6c:	00 
    1a6d:	f3 0f 7e 04 b7       	movq   (%rdi,%rsi,4),%xmm0
    1a72:	0f 5b c0             	cvtdq2ps %xmm0,%xmm0
    1a75:	0f 59 c1             	mulps  %xmm1,%xmm0
    1a78:	0f 13 04 b1          	movlps %xmm0,(%rcx,%rsi,4)
    1a7c:	89 d6                	mov    %edx,%esi
    1a7e:	83 e6 fe             	and    $0xfffffffe,%esi
    1a81:	89 f1                	mov    %esi,%ecx
    1a83:	48 c1 e1 02          	shl    $0x2,%rcx
    1a87:	49 01 c8             	add    %rcx,%r8
    1a8a:	48 01 c8             	add    %rcx,%rax
    1a8d:	39 f2                	cmp    %esi,%edx
    1a8f:	74 15                	je     1aa6 <riscv_dsp_convert_q31_f32+0xa6>
    1a91:	66 0f ef c0          	pxor   %xmm0,%xmm0
    1a95:	f3 41 0f 2a 00       	cvtsi2ssl (%r8),%xmm0
    1a9a:	f3 0f 59 05 ce 06 00 	mulss  0x6ce(%rip),%xmm0        # 2170 <_IO_stdin_used+0x170>
    1aa1:	00 
    1aa2:	f3 0f 11 00          	movss  %xmm0,(%rax)
    1aa6:	c3                   	ret    
    1aa7:	66 0f 1f 84 00 00 00 	nopw   0x0(%rax,%rax,1)
    1aae:	00 00 
    1ab0:	c3                   	ret    
    1ab1:	48 89 f0             	mov    %rsi,%rax
    1ab4:	49 89 f8             	mov    %rdi,%r8
    1ab7:	31 f6                	xor    %esi,%esi
    1ab9:	eb a3                	jmp    1a5e <riscv_dsp_convert_q31_f32+0x5e>
    1abb:	0f 1f 44 00 00       	nopl   0x0(%rax,%rax,1)

0000000000001ac0 <riscv_dsp_scale_q31>:
    1ac0:	f3 0f 1e fa          	endbr64 
    1ac4:	41 57                	push   %r15
    1ac6:	49 89 f9             	mov    %rdi,%r9
    1ac9:	49 89 ca             	mov    %rcx,%r10
    1acc:	0f be c2             	movsbl %dl,%eax
    1acf:	41 56                	push   %r14
    1ad1:	41 55                	push   %r13
    1ad3:	41 54                	push   %r12
    1ad5:	55                   	push   %rbp
    1ad6:	48 63 ee             	movslq %esi,%rbp
    1ad9:	53                   	push   %rbx
    1ada:	80 fa ff             	cmp    $0xff,%dl
    1add:	0f 8c 1d 01 00 00    	jl     1c00 <riscv_dsp_scale_q31+0x140>
    1ae3:	41 bb 1f 00 00 00    	mov    $0x1f,%r11d
    1ae9:	b9 1e 00 00 00       	mov    $0x1e,%ecx
    1aee:	44 89 c3             	mov    %r8d,%ebx
    1af1:	29 c1                	sub    %eax,%ecx
    1af3:	41 29 c3             	sub    %eax,%r11d
    1af6:	b8 01 00 00 00       	mov    $0x1,%eax
    1afb:	83 e3 01             	and    $0x1,%ebx
    1afe:	48 d3 e0             	shl    %cl,%rax
    1b01:	89 5c 24 f4          	mov    %ebx,-0xc(%rsp)
    1b05:	41 89 c6             	mov    %eax,%r14d
    1b08:	48 89 44 24 f8       	mov    %rax,-0x8(%rsp)
    1b0d:	41 89 c4             	mov    %eax,%r12d
    1b10:	41 f7 de             	neg    %r14d
    1b13:	41 d1 e8             	shr    %r8d
    1b16:	0f 84 a1 00 00 00    	je     1bbd <riscv_dsp_scale_q31+0xfd>
    1b1c:	48 63 dd             	movslq %ebp,%rbx
    1b1f:	45 89 c0             	mov    %r8d,%r8d
    1b22:	31 f6                	xor    %esi,%esi
    1b24:	41 bf 00 00 00 80    	mov    $0x80000000,%r15d
    1b2a:	41 bd ff ff ff 7f    	mov    $0x7fffffff,%r13d
    1b30:	44 89 d9             	mov    %r11d,%ecx
    1b33:	eb 2a                	jmp    1b5f <riscv_dsp_scale_q31+0x9f>
    1b35:	0f 1f 00             	nopl   (%rax)
    1b38:	48 c1 f8 20          	sar    $0x20,%rax
    1b3c:	41 39 c4             	cmp    %eax,%r12d
    1b3f:	45 0f 4e dd          	cmovle %r13d,%r11d
    1b43:	66 0f 6e c7          	movd   %edi,%xmm0
    1b47:	66 41 0f 6e cb       	movd   %r11d,%xmm1
    1b4c:	66 0f 62 c1          	punpckldq %xmm1,%xmm0
    1b50:	66 41 0f d6 04 f2    	movq   %xmm0,(%r10,%rsi,8)
    1b56:	48 83 c6 01          	add    $0x1,%rsi
    1b5a:	4c 39 c6             	cmp    %r8,%rsi
    1b5d:	74 51                	je     1bb0 <riscv_dsp_scale_q31+0xf0>
    1b5f:	49 63 14 f1          	movslq (%r9,%rsi,8),%rdx
    1b63:	49 63 44 f1 04       	movslq 0x4(%r9,%rsi,8),%rax
    1b68:	48 0f af d3          	imul   %rbx,%rdx
    1b6c:	48 0f af c3          	imul   %rbx,%rax
    1b70:	48 89 d7             	mov    %rdx,%rdi
    1b73:	49 89 c3             	mov    %rax,%r11
    1b76:	48 d3 ff             	sar    %cl,%rdi
    1b79:	49 d3 fb             	sar    %cl,%r11
    1b7c:	48 85 d2             	test   %rdx,%rdx
    1b7f:	7e 1f                	jle    1ba0 <riscv_dsp_scale_q31+0xe0>
    1b81:	48 c1 fa 20          	sar    $0x20,%rdx
    1b85:	41 39 d4             	cmp    %edx,%r12d
    1b88:	41 0f 4e fd          	cmovle %r13d,%edi
    1b8c:	48 85 c0             	test   %rax,%rax
    1b8f:	7f a7                	jg     1b38 <riscv_dsp_scale_q31+0x78>
    1b91:	74 b0                	je     1b43 <riscv_dsp_scale_q31+0x83>
    1b93:	48 c1 f8 20          	sar    $0x20,%rax
    1b97:	41 39 c6             	cmp    %eax,%r14d
    1b9a:	45 0f 4d df          	cmovge %r15d,%r11d
    1b9e:	eb a3                	jmp    1b43 <riscv_dsp_scale_q31+0x83>
    1ba0:	74 ea                	je     1b8c <riscv_dsp_scale_q31+0xcc>
    1ba2:	48 c1 fa 20          	sar    $0x20,%rdx
    1ba6:	41 39 d6             	cmp    %edx,%r14d
    1ba9:	41 0f 4d ff          	cmovge %r15d,%edi
    1bad:	eb dd                	jmp    1b8c <riscv_dsp_scale_q31+0xcc>
    1baf:	90                   	nop
    1bb0:	48 c1 e6 03          	shl    $0x3,%rsi
    1bb4:	41 89 cb             	mov    %ecx,%r11d
    1bb7:	49 01 f1             	add    %rsi,%r9
    1bba:	49 01 f2             	add    %rsi,%r10
    1bbd:	8b 44 24 f4          	mov    -0xc(%rsp),%eax
    1bc1:	85 c0                	test   %eax,%eax
    1bc3:	74 28                	je     1bed <riscv_dsp_scale_q31+0x12d>
    1bc5:	49 63 01             	movslq (%r9),%rax
    1bc8:	44 89 d9             	mov    %r11d,%ecx
    1bcb:	48 0f af e8          	imul   %rax,%rbp
    1bcf:	48 89 e8             	mov    %rbp,%rax
    1bd2:	48 d3 f8             	sar    %cl,%rax
    1bd5:	48 85 ed             	test   %rbp,%rbp
    1bd8:	7e 66                	jle    1c40 <riscv_dsp_scale_q31+0x180>
    1bda:	48 c1 fd 20          	sar    $0x20,%rbp
    1bde:	ba ff ff ff 7f       	mov    $0x7fffffff,%edx
    1be3:	39 6c 24 f8          	cmp    %ebp,-0x8(%rsp)
    1be7:	0f 4e c2             	cmovle %edx,%eax
    1bea:	41 89 02             	mov    %eax,(%r10)
    1bed:	5b                   	pop    %rbx
    1bee:	5d                   	pop    %rbp
    1bef:	41 5c                	pop    %r12
    1bf1:	41 5d                	pop    %r13
    1bf3:	41 5e                	pop    %r14
    1bf5:	41 5f                	pop    %r15
    1bf7:	c3                   	ret    
    1bf8:	0f 1f 84 00 00 00 00 	nopl   0x0(%rax,%rax,1)
    1bff:	00 
    1c00:	45 85 c0             	test   %r8d,%r8d
    1c03:	74 e8                	je     1bed <riscv_dsp_scale_q31+0x12d>
    1c05:	f7 d0                	not    %eax
    1c07:	45 89 c0             	mov    %r8d,%r8d
    1c0a:	31 d2                	xor    %edx,%edx
    1c0c:	89 c1                	mov    %eax,%ecx
    1c0e:	66 90                	xchg   %ax,%ax
    1c10:	49 63 04 91          	movslq (%r9,%rdx,4),%rax
    1c14:	48 0f af c5          	imul   %rbp,%rax
    1c18:	48 c1 f8 20          	sar    $0x20,%rax
    1c1c:	d3 f8                	sar    %cl,%eax
    1c1e:	41 89 04 92          	mov    %eax,(%r10,%rdx,4)
    1c22:	48 83 c2 01          	add    $0x1,%rdx
    1c26:	4c 39 c2             	cmp    %r8,%rdx
    1c29:	75 e5                	jne    1c10 <riscv_dsp_scale_q31+0x150>
    1c2b:	5b                   	pop    %rbx
    1c2c:	5d                   	pop    %rbp
    1c2d:	41 5c                	pop    %r12
    1c2f:	41 5d                	pop    %r13
    1c31:	41 5e                	pop    %r14
    1c33:	41 5f                	pop    %r15
    1c35:	c3                   	ret    
    1c36:	66 2e 0f 1f 84 00 00 	cs nopw 0x0(%rax,%rax,1)
    1c3d:	00 00 00 
    1c40:	74 a8                	je     1bea <riscv_dsp_scale_q31+0x12a>
    1c42:	48 c1 fd 20          	sar    $0x20,%rbp
    1c46:	ba 00 00 00 80       	mov    $0x80000000,%edx
    1c4b:	41 39 ee             	cmp    %ebp,%r14d
    1c4e:	0f 4d c2             	cmovge %edx,%eax
    1c51:	eb 97                	jmp    1bea <riscv_dsp_scale_q31+0x12a>

Disassembly of section .fini:

0000000000001c54 <_fini>:
    1c54:	f3 0f 1e fa          	endbr64 
    1c58:	48 83 ec 08          	sub    $0x8,%rsp
    1c5c:	48 83 c4 08          	add    $0x8,%rsp
    1c60:	c3                   	ret    
