
t_spafir_q7:     file format elf64-x86-64


Disassembly of section .init:

0000000000001000 <_init>:
    1000:	f3 0f 1e fa          	endbr64 
    1004:	48 83 ec 08          	sub    $0x8,%rsp
    1008:	48 8b 05 d9 3f 00 00 	mov    0x3fd9(%rip),%rax        # 4fe8 <__gmon_start__@Base>
    100f:	48 85 c0             	test   %rax,%rax
    1012:	74 02                	je     1016 <_init+0x16>
    1014:	ff d0                	call   *%rax
    1016:	48 83 c4 08          	add    $0x8,%rsp
    101a:	c3                   	ret    

Disassembly of section .plt:

0000000000001020 <.plt>:
    1020:	ff 35 4a 3f 00 00    	push   0x3f4a(%rip)        # 4f70 <_GLOBAL_OFFSET_TABLE_+0x8>
    1026:	f2 ff 25 4b 3f 00 00 	bnd jmp *0x3f4b(%rip)        # 4f78 <_GLOBAL_OFFSET_TABLE_+0x10>
    102d:	0f 1f 00             	nopl   (%rax)
    1030:	f3 0f 1e fa          	endbr64 
    1034:	68 00 00 00 00       	push   $0x0
    1039:	f2 e9 e1 ff ff ff    	bnd jmp 1020 <_init+0x20>
    103f:	90                   	nop
    1040:	f3 0f 1e fa          	endbr64 
    1044:	68 01 00 00 00       	push   $0x1
    1049:	f2 e9 d1 ff ff ff    	bnd jmp 1020 <_init+0x20>
    104f:	90                   	nop
    1050:	f3 0f 1e fa          	endbr64 
    1054:	68 02 00 00 00       	push   $0x2
    1059:	f2 e9 c1 ff ff ff    	bnd jmp 1020 <_init+0x20>
    105f:	90                   	nop
    1060:	f3 0f 1e fa          	endbr64 
    1064:	68 03 00 00 00       	push   $0x3
    1069:	f2 e9 b1 ff ff ff    	bnd jmp 1020 <_init+0x20>
    106f:	90                   	nop
    1070:	f3 0f 1e fa          	endbr64 
    1074:	68 04 00 00 00       	push   $0x4
    1079:	f2 e9 a1 ff ff ff    	bnd jmp 1020 <_init+0x20>
    107f:	90                   	nop
    1080:	f3 0f 1e fa          	endbr64 
    1084:	68 05 00 00 00       	push   $0x5
    1089:	f2 e9 91 ff ff ff    	bnd jmp 1020 <_init+0x20>
    108f:	90                   	nop
    1090:	f3 0f 1e fa          	endbr64 
    1094:	68 06 00 00 00       	push   $0x6
    1099:	f2 e9 81 ff ff ff    	bnd jmp 1020 <_init+0x20>
    109f:	90                   	nop
    10a0:	f3 0f 1e fa          	endbr64 
    10a4:	68 07 00 00 00       	push   $0x7
    10a9:	f2 e9 71 ff ff ff    	bnd jmp 1020 <_init+0x20>
    10af:	90                   	nop
    10b0:	f3 0f 1e fa          	endbr64 
    10b4:	68 08 00 00 00       	push   $0x8
    10b9:	f2 e9 61 ff ff ff    	bnd jmp 1020 <_init+0x20>
    10bf:	90                   	nop
    10c0:	f3 0f 1e fa          	endbr64 
    10c4:	68 09 00 00 00       	push   $0x9
    10c9:	f2 e9 51 ff ff ff    	bnd jmp 1020 <_init+0x20>
    10cf:	90                   	nop
    10d0:	f3 0f 1e fa          	endbr64 
    10d4:	68 0a 00 00 00       	push   $0xa
    10d9:	f2 e9 41 ff ff ff    	bnd jmp 1020 <_init+0x20>
    10df:	90                   	nop

Disassembly of section .plt.got:

00000000000010e0 <__cxa_finalize@plt>:
    10e0:	f3 0f 1e fa          	endbr64 
    10e4:	f2 ff 25 0d 3f 00 00 	bnd jmp *0x3f0d(%rip)        # 4ff8 <__cxa_finalize@GLIBC_2.2.5>
    10eb:	0f 1f 44 00 00       	nopl   0x0(%rax,%rax,1)

Disassembly of section .plt.sec:

00000000000010f0 <free@plt>:
    10f0:	f3 0f 1e fa          	endbr64 
    10f4:	f2 ff 25 85 3e 00 00 	bnd jmp *0x3e85(%rip)        # 4f80 <free@GLIBC_2.2.5>
    10fb:	0f 1f 44 00 00       	nopl   0x0(%rax,%rax,1)

0000000000001100 <puts@plt>:
    1100:	f3 0f 1e fa          	endbr64 
    1104:	f2 ff 25 7d 3e 00 00 	bnd jmp *0x3e7d(%rip)        # 4f88 <puts@GLIBC_2.2.5>
    110b:	0f 1f 44 00 00       	nopl   0x0(%rax,%rax,1)

0000000000001110 <fread@plt>:
    1110:	f3 0f 1e fa          	endbr64 
    1114:	f2 ff 25 75 3e 00 00 	bnd jmp *0x3e75(%rip)        # 4f90 <fread@GLIBC_2.2.5>
    111b:	0f 1f 44 00 00       	nopl   0x0(%rax,%rax,1)

0000000000001120 <fclose@plt>:
    1120:	f3 0f 1e fa          	endbr64 
    1124:	f2 ff 25 6d 3e 00 00 	bnd jmp *0x3e6d(%rip)        # 4f98 <fclose@GLIBC_2.2.5>
    112b:	0f 1f 44 00 00       	nopl   0x0(%rax,%rax,1)

0000000000001130 <__stack_chk_fail@plt>:
    1130:	f3 0f 1e fa          	endbr64 
    1134:	f2 ff 25 65 3e 00 00 	bnd jmp *0x3e65(%rip)        # 4fa0 <__stack_chk_fail@GLIBC_2.4>
    113b:	0f 1f 44 00 00       	nopl   0x0(%rax,%rax,1)

0000000000001140 <calloc@plt>:
    1140:	f3 0f 1e fa          	endbr64 
    1144:	f2 ff 25 5d 3e 00 00 	bnd jmp *0x3e5d(%rip)        # 4fa8 <calloc@GLIBC_2.2.5>
    114b:	0f 1f 44 00 00       	nopl   0x0(%rax,%rax,1)

0000000000001150 <log10f@plt>:
    1150:	f3 0f 1e fa          	endbr64 
    1154:	f2 ff 25 55 3e 00 00 	bnd jmp *0x3e55(%rip)        # 4fb0 <log10f@GLIBC_2.2.5>
    115b:	0f 1f 44 00 00       	nopl   0x0(%rax,%rax,1)

0000000000001160 <__printf_chk@plt>:
    1160:	f3 0f 1e fa          	endbr64 
    1164:	f2 ff 25 4d 3e 00 00 	bnd jmp *0x3e4d(%rip)        # 4fb8 <__printf_chk@GLIBC_2.3.4>
    116b:	0f 1f 44 00 00       	nopl   0x0(%rax,%rax,1)

0000000000001170 <fopen@plt>:
    1170:	f3 0f 1e fa          	endbr64 
    1174:	f2 ff 25 45 3e 00 00 	bnd jmp *0x3e45(%rip)        # 4fc0 <fopen@GLIBC_2.2.5>
    117b:	0f 1f 44 00 00       	nopl   0x0(%rax,%rax,1)

0000000000001180 <sqrt@plt>:
    1180:	f3 0f 1e fa          	endbr64 
    1184:	f2 ff 25 3d 3e 00 00 	bnd jmp *0x3e3d(%rip)        # 4fc8 <sqrt@GLIBC_2.2.5>
    118b:	0f 1f 44 00 00       	nopl   0x0(%rax,%rax,1)

0000000000001190 <__sprintf_chk@plt>:
    1190:	f3 0f 1e fa          	endbr64 
    1194:	f2 ff 25 35 3e 00 00 	bnd jmp *0x3e35(%rip)        # 4fd0 <__sprintf_chk@GLIBC_2.3.4>
    119b:	0f 1f 44 00 00       	nopl   0x0(%rax,%rax,1)

Disassembly of section .text:

00000000000011a0 <main>:
    11a0:	f3 0f 1e fa          	endbr64 
    11a4:	55                   	push   %rbp
    11a5:	be 04 00 00 00       	mov    $0x4,%esi
    11aa:	bf 11 00 00 00       	mov    $0x11,%edi
    11af:	48 89 e5             	mov    %rsp,%rbp
    11b2:	41 57                	push   %r15
    11b4:	41 56                	push   %r14
    11b6:	41 55                	push   %r13
    11b8:	41 54                	push   %r12
    11ba:	53                   	push   %rbx
    11bb:	48 81 ec 98 02 00 00 	sub    $0x298,%rsp
    11c2:	64 48 8b 04 25 28 00 	mov    %fs:0x28,%rax
    11c9:	00 00 
    11cb:	48 89 45 c8          	mov    %rax,-0x38(%rbp)
    11cf:	31 c0                	xor    %eax,%eax
    11d1:	e8 6a ff ff ff       	call   1140 <calloc@plt>
    11d6:	be 01 00 00 00       	mov    $0x1,%esi
    11db:	bf 02 04 00 00       	mov    $0x402,%edi
    11e0:	49 89 c5             	mov    %rax,%r13
    11e3:	e8 58 ff ff ff       	call   1140 <calloc@plt>
    11e8:	be 01 00 00 00       	mov    $0x1,%esi
    11ed:	bf 11 00 00 00       	mov    $0x11,%edi
    11f2:	48 89 c3             	mov    %rax,%rbx
    11f5:	48 89 85 80 fd ff ff 	mov    %rax,-0x280(%rbp)
    11fc:	e8 3f ff ff ff       	call   1140 <calloc@plt>
    1201:	66 48 0f 6e c3       	movq   %rbx,%xmm0
    1206:	c7 85 90 fd ff ff 11 	movl   $0x11,-0x270(%rbp)
    120d:	00 00 00 
    1210:	66 48 0f 6e e8       	movq   %rax,%xmm5
    1215:	49 89 c2             	mov    %rax,%r10
    1218:	b8 03 00 00 00       	mov    $0x3,%eax
    121d:	4c 89 ad b0 fd ff ff 	mov    %r13,-0x250(%rbp)
    1224:	66 89 85 a8 fd ff ff 	mov    %ax,-0x258(%rbp)
    122b:	66 0f 6c c5          	punpcklqdq %xmm5,%xmm0
    122f:	48 89 e0             	mov    %rsp,%rax
    1232:	0f 11 85 98 fd ff ff 	movups %xmm0,-0x268(%rbp)
    1239:	48 39 c4             	cmp    %rax,%rsp
    123c:	74 15                	je     1253 <main+0xb3>
    123e:	48 81 ec 00 10 00 00 	sub    $0x1000,%rsp
    1245:	48 83 8c 24 f8 0f 00 	orq    $0x0,0xff8(%rsp)
    124c:	00 00 
    124e:	48 39 c4             	cmp    %rax,%rsp
    1251:	75 eb                	jne    123e <main+0x9e>
    1253:	48 81 ec 00 04 00 00 	sub    $0x400,%rsp
    125a:	48 83 8c 24 f8 03 00 	orq    $0x0,0x3f8(%rsp)
    1261:	00 00 
    1263:	48 89 e3             	mov    %rsp,%rbx
    1266:	48 89 e0             	mov    %rsp,%rax
    1269:	48 39 c4             	cmp    %rax,%rsp
    126c:	74 12                	je     1280 <main+0xe0>
    126e:	48 81 ec 00 10 00 00 	sub    $0x1000,%rsp
    1275:	48 83 8c 24 f8 0f 00 	orq    $0x0,0xff8(%rsp)
    127c:	00 00 
    127e:	eb e9                	jmp    1269 <main+0xc9>
    1280:	48 81 ec 00 04 00 00 	sub    $0x400,%rsp
    1287:	48 83 8c 24 f8 03 00 	orq    $0x0,0x3f8(%rsp)
    128e:	00 00 
    1290:	48 8d 44 24 03       	lea    0x3(%rsp),%rax
    1295:	49 89 c3             	mov    %rax,%r11
    1298:	48 83 e0 fc          	and    $0xfffffffffffffffc,%rax
    129c:	49 89 c7             	mov    %rax,%r15
    129f:	49 c1 eb 02          	shr    $0x2,%r11
    12a3:	48 89 e0             	mov    %rsp,%rax
    12a6:	48 39 c4             	cmp    %rax,%rsp
    12a9:	74 12                	je     12bd <main+0x11d>
    12ab:	48 81 ec 00 10 00 00 	sub    $0x1000,%rsp
    12b2:	48 83 8c 24 f8 0f 00 	orq    $0x0,0xff8(%rsp)
    12b9:	00 00 
    12bb:	eb e9                	jmp    12a6 <main+0x106>
    12bd:	48 81 ec 00 04 00 00 	sub    $0x400,%rsp
    12c4:	48 83 8c 24 f8 03 00 	orq    $0x0,0x3f8(%rsp)
    12cb:	00 00 
    12cd:	48 89 a5 60 fd ff ff 	mov    %rsp,-0x2a0(%rbp)
    12d4:	48 89 e0             	mov    %rsp,%rax
    12d7:	48 39 c4             	cmp    %rax,%rsp
    12da:	74 12                	je     12ee <main+0x14e>
    12dc:	48 81 ec 00 10 00 00 	sub    $0x1000,%rsp
    12e3:	48 83 8c 24 f8 0f 00 	orq    $0x0,0xff8(%rsp)
    12ea:	00 00 
    12ec:	eb e9                	jmp    12d7 <main+0x137>
    12ee:	48 81 ec 00 04 00 00 	sub    $0x400,%rsp
    12f5:	48 83 8c 24 f8 03 00 	orq    $0x0,0x3f8(%rsp)
    12fc:	00 00 
    12fe:	49 89 e4             	mov    %rsp,%r12
    1301:	48 8d 84 24 00 f0 ff 	lea    -0x1000(%rsp),%rax
    1308:	ff 
    1309:	48 39 c4             	cmp    %rax,%rsp
    130c:	74 12                	je     1320 <main+0x180>
    130e:	48 81 ec 00 10 00 00 	sub    $0x1000,%rsp
    1315:	48 83 8c 24 f8 0f 00 	orq    $0x0,0xff8(%rsp)
    131c:	00 00 
    131e:	eb e9                	jmp    1309 <main+0x169>
    1320:	4c 89 95 68 fd ff ff 	mov    %r10,-0x298(%rbp)
    1327:	4c 89 9d 70 fd ff ff 	mov    %r11,-0x290(%rbp)
    132e:	4c 8d 05 d3 1c 00 00 	lea    0x1cd3(%rip),%r8        # 3008 <_IO_stdin_used+0x8>
    1335:	ba 00 02 00 00       	mov    $0x200,%edx
    133a:	31 c0                	xor    %eax,%eax
    133c:	48 8d 0d 67 1d 00 00 	lea    0x1d67(%rip),%rcx        # 30aa <_IO_stdin_used+0xaa>
    1343:	be 01 00 00 00       	mov    $0x1,%esi
    1348:	4c 8d 35 6b 1d 00 00 	lea    0x1d6b(%rip),%r14        # 30ba <_IO_stdin_used+0xba>
    134f:	48 8d bd c0 fd ff ff 	lea    -0x240(%rbp),%rdi
    1356:	48 89 a5 58 fd ff ff 	mov    %rsp,-0x2a8(%rbp)
    135d:	48 89 bd 88 fd ff ff 	mov    %rdi,-0x278(%rbp)
    1364:	e8 27 fe ff ff       	call   1190 <__sprintf_chk@plt>
    1369:	48 8b bd 88 fd ff ff 	mov    -0x278(%rbp),%rdi
    1370:	4c 89 f6             	mov    %r14,%rsi
    1373:	48 89 bd 78 fd ff ff 	mov    %rdi,-0x288(%rbp)
    137a:	e8 f1 fd ff ff       	call   1170 <fopen@plt>
    137f:	48 8b bd 78 fd ff ff 	mov    -0x288(%rbp),%rdi
    1386:	4c 8b 9d 70 fd ff ff 	mov    -0x290(%rbp),%r11
    138d:	48 85 c0             	test   %rax,%rax
    1390:	48 89 85 88 fd ff ff 	mov    %rax,-0x278(%rbp)
    1397:	4c 8b 95 68 fd ff ff 	mov    -0x298(%rbp),%r10
    139e:	0f 84 0d 07 00 00    	je     1ab1 <main+0x911>
    13a4:	4c 8d 05 5d 1c 00 00 	lea    0x1c5d(%rip),%r8        # 3008 <_IO_stdin_used+0x8>
    13ab:	48 8d 0d 0a 1d 00 00 	lea    0x1d0a(%rip),%rcx        # 30bc <_IO_stdin_used+0xbc>
    13b2:	ba 00 02 00 00       	mov    $0x200,%edx
    13b7:	31 c0                	xor    %eax,%eax
    13b9:	be 01 00 00 00       	mov    $0x1,%esi
    13be:	4c 89 9d 68 fd ff ff 	mov    %r11,-0x298(%rbp)
    13c5:	4c 89 95 70 fd ff ff 	mov    %r10,-0x290(%rbp)
    13cc:	48 89 bd 78 fd ff ff 	mov    %rdi,-0x288(%rbp)
    13d3:	e8 b8 fd ff ff       	call   1190 <__sprintf_chk@plt>
    13d8:	48 8b bd 78 fd ff ff 	mov    -0x288(%rbp),%rdi
    13df:	4c 89 f6             	mov    %r14,%rsi
    13e2:	e8 89 fd ff ff       	call   1170 <fopen@plt>
    13e7:	49 89 c6             	mov    %rax,%r14
    13ea:	48 85 c0             	test   %rax,%rax
    13ed:	0f 84 be 06 00 00    	je     1ab1 <main+0x911>
    13f3:	4c 8b 95 70 fd ff ff 	mov    -0x290(%rbp),%r10
    13fa:	4c 8b 9d 68 fd ff ff 	mov    -0x298(%rbp),%r11
    1401:	31 c0                	xor    %eax,%eax
    1403:	eb 1a                	jmp    141f <main+0x27f>
    1405:	0f 1f 00             	nopl   (%rax)
    1408:	83 f8 0b             	cmp    $0xb,%eax
    140b:	77 43                	ja     1450 <main+0x2b0>
    140d:	41 c6 04 02 02       	movb   $0x2,(%r10,%rax,1)
    1412:	41 c7 44 85 00 00 00 	movl   $0x0,0x0(%r13,%rax,4)
    1419:	00 00 
    141b:	48 83 c0 01          	add    $0x1,%rax
    141f:	48 83 f8 03          	cmp    $0x3,%rax
    1423:	76 1b                	jbe    1440 <main+0x2a0>
    1425:	83 f8 07             	cmp    $0x7,%eax
    1428:	77 de                	ja     1408 <main+0x268>
    142a:	41 c6 04 02 08       	movb   $0x8,(%r10,%rax,1)
    142f:	41 c7 44 85 00 02 00 	movl   $0x2,0x0(%r13,%rax,4)
    1436:	00 00 
    1438:	eb e1                	jmp    141b <main+0x27b>
    143a:	66 0f 1f 44 00 00    	nopw   0x0(%rax,%rax,1)
    1440:	41 c6 04 02 04       	movb   $0x4,(%r10,%rax,1)
    1445:	41 c7 44 85 00 03 00 	movl   $0x3,0x0(%r13,%rax,4)
    144c:	00 00 
    144e:	eb cb                	jmp    141b <main+0x27b>
    1450:	41 c6 04 02 20       	movb   $0x20,(%r10,%rax,1)
    1455:	41 c7 44 85 00 01 00 	movl   $0x1,0x0(%r13,%rax,4)
    145c:	00 00 
    145e:	83 f8 10             	cmp    $0x10,%eax
    1461:	75 b8                	jne    141b <main+0x27b>
    1463:	48 8b b5 88 fd ff ff 	mov    -0x278(%rbp),%rsi
    146a:	48 89 df             	mov    %rbx,%rdi
    146d:	4c 89 95 70 fd ff ff 	mov    %r10,-0x290(%rbp)
    1474:	4c 89 9d 78 fd ff ff 	mov    %r11,-0x288(%rbp)
    147b:	e8 30 07 00 00       	call   1bb0 <test_Fread.constprop.0.isra.0>
    1480:	4c 89 f6             	mov    %r14,%rsi
    1483:	4c 89 e7             	mov    %r12,%rdi
    1486:	e8 25 07 00 00       	call   1bb0 <test_Fread.constprop.0.isra.0>
    148b:	4c 8b 85 58 fd ff ff 	mov    -0x2a8(%rbp),%r8
    1492:	4c 89 fa             	mov    %r15,%rdx
    1495:	48 8b 8d 60 fd ff ff 	mov    -0x2a0(%rbp),%rcx
    149c:	48 8d bd 90 fd ff ff 	lea    -0x270(%rbp),%rdi
    14a3:	41 b9 ff 03 00 00    	mov    $0x3ff,%r9d
    14a9:	48 89 de             	mov    %rbx,%rsi
    14ac:	e8 af 09 00 00       	call   1e60 <riscv_dsp_spafir_q7>
    14b1:	66 0f ef d2          	pxor   %xmm2,%xmm2
    14b5:	4c 8b 95 70 fd ff ff 	mov    -0x290(%rbp),%r10
    14bc:	31 c0                	xor    %eax,%eax
    14be:	4c 8b 9d 78 fd ff ff 	mov    -0x288(%rbp),%r11
    14c5:	66 0f 6f da          	movdqa %xmm2,%xmm3
    14c9:	0f 1f 80 00 00 00 00 	nopl   0x0(%rax)
    14d0:	f3 41 0f 6f 0c 07    	movdqu (%r15,%rax,1),%xmm1
    14d6:	f3 41 0f 6f 3c 04    	movdqu (%r12,%rax,1),%xmm7
    14dc:	66 0f 6f c3          	movdqa %xmm3,%xmm0
    14e0:	48 83 c0 10          	add    $0x10,%rax
    14e4:	66 0f f8 cf          	psubb  %xmm7,%xmm1
    14e8:	66 0f f8 c1          	psubb  %xmm1,%xmm0
    14ec:	66 0f da c1          	pminub %xmm1,%xmm0
    14f0:	66 0f 6f c8          	movdqa %xmm0,%xmm1
    14f4:	66 0f 64 ca          	pcmpgtb %xmm2,%xmm1
    14f8:	66 0f db c1          	pand   %xmm1,%xmm0
    14fc:	66 0f df ca          	pandn  %xmm2,%xmm1
    1500:	66 0f 6f d1          	movdqa %xmm1,%xmm2
    1504:	66 0f eb d0          	por    %xmm0,%xmm2
    1508:	48 3d f0 03 00 00    	cmp    $0x3f0,%rax
    150e:	75 c0                	jne    14d0 <main+0x330>
    1510:	42 0f b6 04 9d f0 03 	movzbl 0x3f0(,%r11,4),%eax
    1517:	00 00 
    1519:	41 2a 84 24 f0 03 00 	sub    0x3f0(%r12),%al
    1520:	00 
    1521:	66 0f 6f ca          	movdqa %xmm2,%xmm1
    1525:	4c 89 95 48 fd ff ff 	mov    %r10,-0x2b8(%rbp)
    152c:	41 89 c1             	mov    %eax,%r9d
    152f:	66 0f 73 d9 08       	psrldq $0x8,%xmm1
    1534:	42 0f b6 14 9d f1 03 	movzbl 0x3f1(,%r11,4),%edx
    153b:	00 00 
    153d:	41 f6 d9             	neg    %r9b
    1540:	66 0f 6f c1          	movdqa %xmm1,%xmm0
    1544:	44 0f 48 c8          	cmovs  %eax,%r9d
    1548:	66 0f 64 c2          	pcmpgtb %xmm2,%xmm0
    154c:	41 2a 94 24 f1 03 00 	sub    0x3f1(%r12),%dl
    1553:	00 
    1554:	89 d0                	mov    %edx,%eax
    1556:	f6 d8                	neg    %al
    1558:	0f 48 c2             	cmovs  %edx,%eax
    155b:	66 0f db c8          	pand   %xmm0,%xmm1
    155f:	66 0f df c2          	pandn  %xmm2,%xmm0
    1563:	42 0f b6 14 9d f2 03 	movzbl 0x3f2(,%r11,4),%edx
    156a:	00 00 
    156c:	41 2a 94 24 f2 03 00 	sub    0x3f2(%r12),%dl
    1573:	00 
    1574:	66 0f eb c1          	por    %xmm1,%xmm0
    1578:	89 d1                	mov    %edx,%ecx
    157a:	66 0f 6f d0          	movdqa %xmm0,%xmm2
    157e:	f6 d9                	neg    %cl
    1580:	66 0f 73 da 04       	psrldq $0x4,%xmm2
    1585:	0f 49 d1             	cmovns %ecx,%edx
    1588:	66 0f 6f ca          	movdqa %xmm2,%xmm1
    158c:	66 0f 64 c8          	pcmpgtb %xmm0,%xmm1
    1590:	41 89 d2             	mov    %edx,%r10d
    1593:	42 0f b6 14 9d f3 03 	movzbl 0x3f3(,%r11,4),%edx
    159a:	00 00 
    159c:	41 2a 94 24 f3 03 00 	sub    0x3f3(%r12),%dl
    15a3:	00 
    15a4:	89 d1                	mov    %edx,%ecx
    15a6:	f6 d9                	neg    %cl
    15a8:	66 0f db d1          	pand   %xmm1,%xmm2
    15ac:	66 0f df c8          	pandn  %xmm0,%xmm1
    15b0:	0f 49 d1             	cmovns %ecx,%edx
    15b3:	66 0f eb ca          	por    %xmm2,%xmm1
    15b7:	66 0f 6f d1          	movdqa %xmm1,%xmm2
    15bb:	88 95 78 fd ff ff    	mov    %dl,-0x288(%rbp)
    15c1:	66 0f 73 da 02       	psrldq $0x2,%xmm2
    15c6:	42 0f b6 14 9d f4 03 	movzbl 0x3f4(,%r11,4),%edx
    15cd:	00 00 
    15cf:	41 2a 94 24 f4 03 00 	sub    0x3f4(%r12),%dl
    15d6:	00 
    15d7:	66 0f 6f c2          	movdqa %xmm2,%xmm0
    15db:	89 d1                	mov    %edx,%ecx
    15dd:	66 0f 64 c1          	pcmpgtb %xmm1,%xmm0
    15e1:	89 d3                	mov    %edx,%ebx
    15e3:	42 0f b6 14 9d f5 03 	movzbl 0x3f5(,%r11,4),%edx
    15ea:	00 00 
    15ec:	f6 d9                	neg    %cl
    15ee:	0f 49 d9             	cmovns %ecx,%ebx
    15f1:	41 2a 94 24 f5 03 00 	sub    0x3f5(%r12),%dl
    15f8:	00 
    15f9:	89 d1                	mov    %edx,%ecx
    15fb:	66 0f db d0          	pand   %xmm0,%xmm2
    15ff:	89 d7                	mov    %edx,%edi
    1601:	42 0f b6 14 9d f6 03 	movzbl 0x3f6(,%r11,4),%edx
    1608:	00 00 
    160a:	f6 d9                	neg    %cl
    160c:	88 9d 70 fd ff ff    	mov    %bl,-0x290(%rbp)
    1612:	66 0f df c1          	pandn  %xmm1,%xmm0
    1616:	0f 49 f9             	cmovns %ecx,%edi
    1619:	41 2a 94 24 f6 03 00 	sub    0x3f6(%r12),%dl
    1620:	00 
    1621:	66 0f eb c2          	por    %xmm2,%xmm0
    1625:	89 d1                	mov    %edx,%ecx
    1627:	66 0f 6f d0          	movdqa %xmm0,%xmm2
    162b:	89 d6                	mov    %edx,%esi
    162d:	42 0f b6 14 9d f7 03 	movzbl 0x3f7(,%r11,4),%edx
    1634:	00 00 
    1636:	f6 d9                	neg    %cl
    1638:	66 0f 73 da 01       	psrldq $0x1,%xmm2
    163d:	40 88 bd 68 fd ff ff 	mov    %dil,-0x298(%rbp)
    1644:	0f 49 f1             	cmovns %ecx,%esi
    1647:	41 2a 94 24 f7 03 00 	sub    0x3f7(%r12),%dl
    164e:	00 
    164f:	66 0f 6f ca          	movdqa %xmm2,%xmm1
    1653:	66 0f 64 c8          	pcmpgtb %xmm0,%xmm1
    1657:	89 d1                	mov    %edx,%ecx
    1659:	41 89 d0             	mov    %edx,%r8d
    165c:	42 0f b6 14 9d f8 03 	movzbl 0x3f8(,%r11,4),%edx
    1663:	00 00 
    1665:	f6 d9                	neg    %cl
    1667:	40 88 b5 60 fd ff ff 	mov    %sil,-0x2a0(%rbp)
    166e:	44 0f 49 c1          	cmovns %ecx,%r8d
    1672:	41 2a 94 24 f8 03 00 	sub    0x3f8(%r12),%dl
    1679:	00 
    167a:	89 d1                	mov    %edx,%ecx
    167c:	66 0f db d1          	pand   %xmm1,%xmm2
    1680:	89 d3                	mov    %edx,%ebx
    1682:	42 0f b6 14 9d f9 03 	movzbl 0x3f9(,%r11,4),%edx
    1689:	00 00 
    168b:	f6 d9                	neg    %cl
    168d:	44 88 85 58 fd ff ff 	mov    %r8b,-0x2a8(%rbp)
    1694:	66 0f df c8          	pandn  %xmm0,%xmm1
    1698:	0f 49 d9             	cmovns %ecx,%ebx
    169b:	41 2a 94 24 f9 03 00 	sub    0x3f9(%r12),%dl
    16a2:	00 
    16a3:	66 0f eb ca          	por    %xmm2,%xmm1
    16a7:	89 d1                	mov    %edx,%ecx
    16a9:	66 0f 7e 8d 50 fd ff 	movd   %xmm1,-0x2b0(%rbp)
    16b0:	ff 
    16b1:	f6 d9                	neg    %cl
    16b3:	88 9d 57 fd ff ff    	mov    %bl,-0x2a9(%rbp)
    16b9:	41 89 c8             	mov    %ecx,%r8d
    16bc:	44 0f 48 c2          	cmovs  %edx,%r8d
    16c0:	42 0f b6 14 9d fa 03 	movzbl 0x3fa(,%r11,4),%edx
    16c7:	00 00 
    16c9:	41 2a 94 24 fa 03 00 	sub    0x3fa(%r12),%dl
    16d0:	00 
    16d1:	89 d7                	mov    %edx,%edi
    16d3:	40 f6 df             	neg    %dil
    16d6:	0f 48 fa             	cmovs  %edx,%edi
    16d9:	42 0f b6 14 9d fb 03 	movzbl 0x3fb(,%r11,4),%edx
    16e0:	00 00 
    16e2:	41 2a 94 24 fb 03 00 	sub    0x3fb(%r12),%dl
    16e9:	00 
    16ea:	89 d6                	mov    %edx,%esi
    16ec:	40 f6 de             	neg    %sil
    16ef:	0f 48 f2             	cmovs  %edx,%esi
    16f2:	42 0f b6 14 9d fc 03 	movzbl 0x3fc(,%r11,4),%edx
    16f9:	00 00 
    16fb:	41 2a 94 24 fc 03 00 	sub    0x3fc(%r12),%dl
    1702:	00 
    1703:	89 d1                	mov    %edx,%ecx
    1705:	f6 d9                	neg    %cl
    1707:	0f 48 ca             	cmovs  %edx,%ecx
    170a:	42 0f b6 14 9d fd 03 	movzbl 0x3fd(,%r11,4),%edx
    1711:	00 00 
    1713:	41 2a 94 24 fd 03 00 	sub    0x3fd(%r12),%dl
    171a:	00 
    171b:	89 d3                	mov    %edx,%ebx
    171d:	f6 db                	neg    %bl
    171f:	0f 48 da             	cmovs  %edx,%ebx
    1722:	42 0f b6 14 9d fe 03 	movzbl 0x3fe(,%r11,4),%edx
    1729:	00 00 
    172b:	41 2a 94 24 fe 03 00 	sub    0x3fe(%r12),%dl
    1732:	00 
    1733:	41 89 d3             	mov    %edx,%r11d
    1736:	41 f6 db             	neg    %r11b
    1739:	44 0f 48 da          	cmovs  %edx,%r11d
    173d:	44 38 c8             	cmp    %r9b,%al
    1740:	0f b6 95 78 fd ff ff 	movzbl -0x288(%rbp),%edx
    1747:	41 0f 4c c1          	cmovl  %r9d,%eax
    174b:	44 38 d0             	cmp    %r10b,%al
    174e:	41 0f 4c c2          	cmovl  %r10d,%eax
    1752:	38 d0                	cmp    %dl,%al
    1754:	0f 4c c2             	cmovl  %edx,%eax
    1757:	0f b6 95 70 fd ff ff 	movzbl -0x290(%rbp),%edx
    175e:	38 d0                	cmp    %dl,%al
    1760:	0f 4c c2             	cmovl  %edx,%eax
    1763:	0f b6 95 68 fd ff ff 	movzbl -0x298(%rbp),%edx
    176a:	38 d0                	cmp    %dl,%al
    176c:	0f 4c c2             	cmovl  %edx,%eax
    176f:	0f b6 95 60 fd ff ff 	movzbl -0x2a0(%rbp),%edx
    1776:	38 d0                	cmp    %dl,%al
    1778:	0f 4c c2             	cmovl  %edx,%eax
    177b:	0f b6 95 58 fd ff ff 	movzbl -0x2a8(%rbp),%edx
    1782:	38 d0                	cmp    %dl,%al
    1784:	0f 4c c2             	cmovl  %edx,%eax
    1787:	0f b6 95 57 fd ff ff 	movzbl -0x2a9(%rbp),%edx
    178e:	38 d0                	cmp    %dl,%al
    1790:	0f 4c c2             	cmovl  %edx,%eax
    1793:	0f b6 95 50 fd ff ff 	movzbl -0x2b0(%rbp),%edx
    179a:	44 38 c0             	cmp    %r8b,%al
    179d:	41 0f 4c c0          	cmovl  %r8d,%eax
    17a1:	40 38 f8             	cmp    %dil,%al
    17a4:	0f 4c c7             	cmovl  %edi,%eax
    17a7:	bf 01 00 00 00       	mov    $0x1,%edi
    17ac:	40 38 f0             	cmp    %sil,%al
    17af:	0f 4c c6             	cmovl  %esi,%eax
    17b2:	48 8d 35 1f 19 00 00 	lea    0x191f(%rip),%rsi        # 30d8 <_IO_stdin_used+0xd8>
    17b9:	38 c8                	cmp    %cl,%al
    17bb:	0f 4c c1             	cmovl  %ecx,%eax
    17be:	38 d8                	cmp    %bl,%al
    17c0:	0f 4c c3             	cmovl  %ebx,%eax
    17c3:	44 38 d8             	cmp    %r11b,%al
    17c6:	41 0f 4c c3          	cmovl  %r11d,%eax
    17ca:	38 d0                	cmp    %dl,%al
    17cc:	0f 4c c2             	cmovl  %edx,%eax
    17cf:	0f be d0             	movsbl %al,%edx
    17d2:	31 c0                	xor    %eax,%eax
    17d4:	e8 87 f9 ff ff       	call   1160 <__printf_chk@plt>
    17d9:	48 8b bd 80 fd ff ff 	mov    -0x280(%rbp),%rdi
    17e0:	e8 0b f9 ff ff       	call   10f0 <free@plt>
    17e5:	48 8b bd 48 fd ff ff 	mov    -0x2b8(%rbp),%rdi
    17ec:	e8 ff f8 ff ff       	call   10f0 <free@plt>
    17f1:	4c 89 ef             	mov    %r13,%rdi
    17f4:	e8 f7 f8 ff ff       	call   10f0 <free@plt>
    17f9:	48 8b bd 88 fd ff ff 	mov    -0x278(%rbp),%rdi
    1800:	e8 1b f9 ff ff       	call   1120 <fclose@plt>
    1805:	4c 89 f7             	mov    %r14,%rdi
    1808:	e8 13 f9 ff ff       	call   1120 <fclose@plt>
    180d:	48 8d 84 24 00 f0 ff 	lea    -0x1000(%rsp),%rax
    1814:	ff 
    1815:	48 39 c4             	cmp    %rax,%rsp
    1818:	74 15                	je     182f <main+0x68f>
    181a:	48 81 ec 00 10 00 00 	sub    $0x1000,%rsp
    1821:	48 83 8c 24 f8 0f 00 	orq    $0x0,0xff8(%rsp)
    1828:	00 00 
    182a:	48 39 c4             	cmp    %rax,%rsp
    182d:	75 eb                	jne    181a <main+0x67a>
    182f:	48 89 e3             	mov    %rsp,%rbx
    1832:	48 8d 84 24 00 f0 ff 	lea    -0x1000(%rsp),%rax
    1839:	ff 
    183a:	48 39 c4             	cmp    %rax,%rsp
    183d:	74 12                	je     1851 <main+0x6b1>
    183f:	48 81 ec 00 10 00 00 	sub    $0x1000,%rsp
    1846:	48 83 8c 24 f8 0f 00 	orq    $0x0,0xff8(%rsp)
    184d:	00 00 
    184f:	eb e9                	jmp    183a <main+0x69a>
    1851:	ba ff 03 00 00       	mov    $0x3ff,%edx
    1856:	48 89 de             	mov    %rbx,%rsi
    1859:	4c 89 e7             	mov    %r12,%rdi
    185c:	49 89 e5             	mov    %rsp,%r13
    185f:	e8 6c 03 00 00       	call   1bd0 <riscv_dsp_convert_q7_f32>
    1864:	ba ff 03 00 00       	mov    $0x3ff,%edx
    1869:	4c 89 ee             	mov    %r13,%rsi
    186c:	4c 89 ff             	mov    %r15,%rdi
    186f:	e8 5c 03 00 00       	call   1bd0 <riscv_dsp_convert_q7_f32>
    1874:	66 0f ef db          	pxor   %xmm3,%xmm3
    1878:	66 0f ef ff          	pxor   %xmm7,%xmm7
    187c:	31 c0                	xor    %eax,%eax
    187e:	66 0f 28 ef          	movapd %xmm7,%xmm5
    1882:	0f 28 e3             	movaps %xmm3,%xmm4
    1885:	44 0f 28 c3          	movaps %xmm3,%xmm8
    1889:	f3 44 0f 10 0d 7e 18 	movss  0x187e(%rip),%xmm9        # 3110 <_IO_stdin_used+0x110>
    1890:	00 00 
    1892:	0f 28 f3             	movaps %xmm3,%xmm6
    1895:	0f 1f 00             	nopl   (%rax)
    1898:	f3 41 0f 10 44 05 00 	movss  0x0(%r13,%rax,1),%xmm0
    189f:	f3 0f 10 0c 03       	movss  (%rbx,%rax,1),%xmm1
    18a4:	66 0f 7e c6          	movd   %xmm0,%esi
    18a8:	81 fe 00 00 c0 7f    	cmp    $0x7fc00000,%esi
    18ae:	0f 84 b7 01 00 00    	je     1a6b <main+0x8cb>
    18b4:	0f 28 d1             	movaps %xmm1,%xmm2
    18b7:	f3 0f 5c c1          	subss  %xmm1,%xmm0
    18bb:	48 83 c0 04          	add    $0x4,%rax
    18bf:	f3 0f 5f d6          	maxss  %xmm6,%xmm2
    18c3:	0f 28 f2             	movaps %xmm2,%xmm6
    18c6:	0f 28 d1             	movaps %xmm1,%xmm2
    18c9:	f3 41 0f 5d d0       	minss  %xmm8,%xmm2
    18ce:	f3 0f 59 c9          	mulss  %xmm1,%xmm1
    18d2:	44 0f 28 c2          	movaps %xmm2,%xmm8
    18d6:	0f 28 d0             	movaps %xmm0,%xmm2
    18d9:	f3 0f 59 c0          	mulss  %xmm0,%xmm0
    18dd:	41 0f 54 d1          	andps  %xmm9,%xmm2
    18e1:	f3 0f 58 e2          	addss  %xmm2,%xmm4
    18e5:	f3 0f 5f d3          	maxss  %xmm3,%xmm2
    18e9:	f3 0f 5a c9          	cvtss2sd %xmm1,%xmm1
    18ed:	f2 0f 58 f9          	addsd  %xmm1,%xmm7
    18f1:	0f 28 da             	movaps %xmm2,%xmm3
    18f4:	f3 0f 5a c0          	cvtss2sd %xmm0,%xmm0
    18f8:	f2 0f 58 e8          	addsd  %xmm0,%xmm5
    18fc:	48 3d fc 0f 00 00    	cmp    $0xffc,%rax
    1902:	75 94                	jne    1898 <main+0x6f8>
    1904:	66 48 0f 7e e8       	movq   %xmm5,%rax
    1909:	f3 0f 11 95 70 fd ff 	movss  %xmm2,-0x290(%rbp)
    1910:	ff 
    1911:	f3 44 0f 11 85 78 fd 	movss  %xmm8,-0x288(%rbp)
    1918:	ff ff 
    191a:	f3 0f 11 b5 80 fd ff 	movss  %xmm6,-0x280(%rbp)
    1921:	ff 
    1922:	f2 0f 11 bd 88 fd ff 	movsd  %xmm7,-0x278(%rbp)
    1929:	ff 
    192a:	3d 00 00 c0 7f       	cmp    $0x7fc00000,%eax
    192f:	0f 84 36 01 00 00    	je     1a6b <main+0x8cb>
    1935:	66 0f 28 c5          	movapd %xmm5,%xmm0
    1939:	f3 0f 5e 25 c3 17 00 	divss  0x17c3(%rip),%xmm4        # 3104 <_IO_stdin_used+0x104>
    1940:	00 
    1941:	f2 0f 11 ad 68 fd ff 	movsd  %xmm5,-0x298(%rbp)
    1948:	ff 
    1949:	66 0f 7e e3          	movd   %xmm4,%ebx
    194d:	f2 0f 5e 05 cb 17 00 	divsd  0x17cb(%rip),%xmm0        # 3120 <_IO_stdin_used+0x120>
    1954:	00 
    1955:	e8 26 f8 ff ff       	call   1180 <sqrt@plt>
    195a:	f3 0f 10 b5 80 fd ff 	movss  -0x280(%rbp),%xmm6
    1961:	ff 
    1962:	f3 44 0f 10 85 78 fd 	movss  -0x288(%rbp),%xmm8
    1969:	ff ff 
    196b:	66 0f ef c9          	pxor   %xmm1,%xmm1
    196f:	66 0f ef e4          	pxor   %xmm4,%xmm4
    1973:	f2 0f 10 bd 88 fd ff 	movsd  -0x278(%rbp),%xmm7
    197a:	ff 
    197b:	f3 0f 10 9d 70 fd ff 	movss  -0x290(%rbp),%xmm3
    1982:	ff 
    1983:	f3 41 0f 5c f0       	subss  %xmm8,%xmm6
    1988:	f2 0f 5a c8          	cvtsd2ss %xmm0,%xmm1
    198c:	0f 28 e9             	movaps %xmm1,%xmm5
    198f:	f3 0f 5e ee          	divss  %xmm6,%xmm5
    1993:	66 41 0f 7e ec       	movd   %xmm5,%r12d
    1998:	f2 0f 10 ad 68 fd ff 	movsd  -0x298(%rbp),%xmm5
    199f:	ff 
    19a0:	66 0f 2e ec          	ucomisd %xmm4,%xmm5
    19a4:	0f 8a c5 00 00 00    	jp     1a6f <main+0x8cf>
    19aa:	f3 0f 10 25 4e 17 00 	movss  0x174e(%rip),%xmm4        # 3100 <_IO_stdin_used+0x100>
    19b1:	00 
    19b2:	0f 85 b7 00 00 00    	jne    1a6f <main+0x8cf>
    19b8:	48 8d 3d 2c 17 00 00 	lea    0x172c(%rip),%rdi        # 30eb <_IO_stdin_used+0xeb>
    19bf:	f3 0f 11 9d 78 fd ff 	movss  %xmm3,-0x288(%rbp)
    19c6:	ff 
    19c7:	f3 0f 11 a5 88 fd ff 	movss  %xmm4,-0x278(%rbp)
    19ce:	ff 
    19cf:	f3 0f 11 8d 80 fd ff 	movss  %xmm1,-0x280(%rbp)
    19d6:	ff 
    19d7:	e8 24 f7 ff ff       	call   1100 <puts@plt>
    19dc:	66 41 0f 6e e4       	movd   %r12d,%xmm4
    19e1:	66 0f ef d2          	pxor   %xmm2,%xmm2
    19e5:	f3 0f 10 9d 78 fd ff 	movss  -0x288(%rbp),%xmm3
    19ec:	ff 
    19ed:	f3 0f 5a d4          	cvtss2sd %xmm4,%xmm2
    19f1:	f3 0f 10 8d 80 fd ff 	movss  -0x280(%rbp),%xmm1
    19f8:	ff 
    19f9:	66 0f 6e eb          	movd   %ebx,%xmm5
    19fd:	f3 0f 10 a5 88 fd ff 	movss  -0x278(%rbp),%xmm4
    1a04:	ff 
    1a05:	66 0f ef c0          	pxor   %xmm0,%xmm0
    1a09:	48 8d 35 48 16 00 00 	lea    0x1648(%rip),%rsi        # 3058 <_IO_stdin_used+0x58>
    1a10:	bf 01 00 00 00       	mov    $0x1,%edi
    1a15:	b8 05 00 00 00       	mov    $0x5,%eax
    1a1a:	f3 0f 5a c5          	cvtss2sd %xmm5,%xmm0
    1a1e:	f3 0f 5a e4          	cvtss2sd %xmm4,%xmm4
    1a22:	f3 0f 5a db          	cvtss2sd %xmm3,%xmm3
    1a26:	f3 0f 5a c9          	cvtss2sd %xmm1,%xmm1
    1a2a:	f2 0f 11 95 88 fd ff 	movsd  %xmm2,-0x278(%rbp)
    1a31:	ff 
    1a32:	e8 29 f7 ff ff       	call   1160 <__printf_chk@plt>
    1a37:	f2 0f 10 05 e9 16 00 	movsd  0x16e9(%rip),%xmm0        # 3128 <_IO_stdin_used+0x128>
    1a3e:	00 
    1a3f:	f2 0f 10 95 88 fd ff 	movsd  -0x278(%rbp),%xmm2
    1a46:	ff 
    1a47:	66 0f 2f c2          	comisd %xmm2,%xmm0
    1a4b:	19 c0                	sbb    %eax,%eax
    1a4d:	48 8b 55 c8          	mov    -0x38(%rbp),%rdx
    1a51:	64 48 2b 14 25 28 00 	sub    %fs:0x28,%rdx
    1a58:	00 00 
    1a5a:	75 5a                	jne    1ab6 <main+0x916>
    1a5c:	48 8d 65 d8          	lea    -0x28(%rbp),%rsp
    1a60:	5b                   	pop    %rbx
    1a61:	41 5c                	pop    %r12
    1a63:	41 5d                	pop    %r13
    1a65:	41 5e                	pop    %r14
    1a67:	41 5f                	pop    %r15
    1a69:	5d                   	pop    %rbp
    1a6a:	c3                   	ret    
    1a6b:	31 c0                	xor    %eax,%eax
    1a6d:	eb de                	jmp    1a4d <main+0x8ad>
    1a6f:	f2 0f 5e fd          	divsd  %xmm5,%xmm7
    1a73:	66 0f ef c0          	pxor   %xmm0,%xmm0
    1a77:	f3 0f 11 9d 80 fd ff 	movss  %xmm3,-0x280(%rbp)
    1a7e:	ff 
    1a7f:	f3 0f 11 8d 88 fd ff 	movss  %xmm1,-0x278(%rbp)
    1a86:	ff 
    1a87:	f2 0f 5a c7          	cvtsd2ss %xmm7,%xmm0
    1a8b:	e8 c0 f6 ff ff       	call   1150 <log10f@plt>
    1a90:	f3 0f 10 25 70 16 00 	movss  0x1670(%rip),%xmm4        # 3108 <_IO_stdin_used+0x108>
    1a97:	00 
    1a98:	f3 0f 10 9d 80 fd ff 	movss  -0x280(%rbp),%xmm3
    1a9f:	ff 
    1aa0:	f3 0f 10 8d 88 fd ff 	movss  -0x278(%rbp),%xmm1
    1aa7:	ff 
    1aa8:	f3 0f 59 e0          	mulss  %xmm0,%xmm4
    1aac:	e9 07 ff ff ff       	jmp    19b8 <main+0x818>
    1ab1:	83 c8 ff             	or     $0xffffffff,%eax
    1ab4:	eb 97                	jmp    1a4d <main+0x8ad>
    1ab6:	e8 75 f6 ff ff       	call   1130 <__stack_chk_fail@plt>
    1abb:	0f 1f 44 00 00       	nopl   0x0(%rax,%rax,1)

0000000000001ac0 <_start>:
    1ac0:	f3 0f 1e fa          	endbr64 
    1ac4:	31 ed                	xor    %ebp,%ebp
    1ac6:	49 89 d1             	mov    %rdx,%r9
    1ac9:	5e                   	pop    %rsi
    1aca:	48 89 e2             	mov    %rsp,%rdx
    1acd:	48 83 e4 f0          	and    $0xfffffffffffffff0,%rsp
    1ad1:	50                   	push   %rax
    1ad2:	54                   	push   %rsp
    1ad3:	45 31 c0             	xor    %r8d,%r8d
    1ad6:	31 c9                	xor    %ecx,%ecx
    1ad8:	48 8d 3d c1 f6 ff ff 	lea    -0x93f(%rip),%rdi        # 11a0 <main>
    1adf:	ff 15 f3 34 00 00    	call   *0x34f3(%rip)        # 4fd8 <__libc_start_main@GLIBC_2.34>
    1ae5:	f4                   	hlt    
    1ae6:	66 2e 0f 1f 84 00 00 	cs nopw 0x0(%rax,%rax,1)
    1aed:	00 00 00 

0000000000001af0 <deregister_tm_clones>:
    1af0:	48 8d 3d 19 35 00 00 	lea    0x3519(%rip),%rdi        # 5010 <__TMC_END__>
    1af7:	48 8d 05 12 35 00 00 	lea    0x3512(%rip),%rax        # 5010 <__TMC_END__>
    1afe:	48 39 f8             	cmp    %rdi,%rax
    1b01:	74 15                	je     1b18 <deregister_tm_clones+0x28>
    1b03:	48 8b 05 d6 34 00 00 	mov    0x34d6(%rip),%rax        # 4fe0 <_ITM_deregisterTMCloneTable@Base>
    1b0a:	48 85 c0             	test   %rax,%rax
    1b0d:	74 09                	je     1b18 <deregister_tm_clones+0x28>
    1b0f:	ff e0                	jmp    *%rax
    1b11:	0f 1f 80 00 00 00 00 	nopl   0x0(%rax)
    1b18:	c3                   	ret    
    1b19:	0f 1f 80 00 00 00 00 	nopl   0x0(%rax)

0000000000001b20 <register_tm_clones>:
    1b20:	48 8d 3d e9 34 00 00 	lea    0x34e9(%rip),%rdi        # 5010 <__TMC_END__>
    1b27:	48 8d 35 e2 34 00 00 	lea    0x34e2(%rip),%rsi        # 5010 <__TMC_END__>
    1b2e:	48 29 fe             	sub    %rdi,%rsi
    1b31:	48 89 f0             	mov    %rsi,%rax
    1b34:	48 c1 ee 3f          	shr    $0x3f,%rsi
    1b38:	48 c1 f8 03          	sar    $0x3,%rax
    1b3c:	48 01 c6             	add    %rax,%rsi
    1b3f:	48 d1 fe             	sar    %rsi
    1b42:	74 14                	je     1b58 <register_tm_clones+0x38>
    1b44:	48 8b 05 a5 34 00 00 	mov    0x34a5(%rip),%rax        # 4ff0 <_ITM_registerTMCloneTable@Base>
    1b4b:	48 85 c0             	test   %rax,%rax
    1b4e:	74 08                	je     1b58 <register_tm_clones+0x38>
    1b50:	ff e0                	jmp    *%rax
    1b52:	66 0f 1f 44 00 00    	nopw   0x0(%rax,%rax,1)
    1b58:	c3                   	ret    
    1b59:	0f 1f 80 00 00 00 00 	nopl   0x0(%rax)

0000000000001b60 <__do_global_dtors_aux>:
    1b60:	f3 0f 1e fa          	endbr64 
    1b64:	80 3d a5 34 00 00 00 	cmpb   $0x0,0x34a5(%rip)        # 5010 <__TMC_END__>
    1b6b:	75 2b                	jne    1b98 <__do_global_dtors_aux+0x38>
    1b6d:	55                   	push   %rbp
    1b6e:	48 83 3d 82 34 00 00 	cmpq   $0x0,0x3482(%rip)        # 4ff8 <__cxa_finalize@GLIBC_2.2.5>
    1b75:	00 
    1b76:	48 89 e5             	mov    %rsp,%rbp
    1b79:	74 0c                	je     1b87 <__do_global_dtors_aux+0x27>
    1b7b:	48 8b 3d 86 34 00 00 	mov    0x3486(%rip),%rdi        # 5008 <__dso_handle>
    1b82:	e8 59 f5 ff ff       	call   10e0 <__cxa_finalize@plt>
    1b87:	e8 64 ff ff ff       	call   1af0 <deregister_tm_clones>
    1b8c:	c6 05 7d 34 00 00 01 	movb   $0x1,0x347d(%rip)        # 5010 <__TMC_END__>
    1b93:	5d                   	pop    %rbp
    1b94:	c3                   	ret    
    1b95:	0f 1f 00             	nopl   (%rax)
    1b98:	c3                   	ret    
    1b99:	0f 1f 80 00 00 00 00 	nopl   0x0(%rax)

0000000000001ba0 <frame_dummy>:
    1ba0:	f3 0f 1e fa          	endbr64 
    1ba4:	e9 77 ff ff ff       	jmp    1b20 <register_tm_clones>
    1ba9:	0f 1f 80 00 00 00 00 	nopl   0x0(%rax)

0000000000001bb0 <test_Fread.constprop.0.isra.0>:
    1bb0:	48 89 f1             	mov    %rsi,%rcx
    1bb3:	ba ff 03 00 00       	mov    $0x3ff,%edx
    1bb8:	be 01 00 00 00       	mov    $0x1,%esi
    1bbd:	e9 4e f5 ff ff       	jmp    1110 <fread@plt>
    1bc2:	66 2e 0f 1f 84 00 00 	cs nopw 0x0(%rax,%rax,1)
    1bc9:	00 00 00 
    1bcc:	0f 1f 40 00          	nopl   0x0(%rax)

0000000000001bd0 <riscv_dsp_convert_q7_f32>:
    1bd0:	f3 0f 1e fa          	endbr64 
    1bd4:	85 d2                	test   %edx,%edx
    1bd6:	0f 84 76 02 00 00    	je     1e52 <riscv_dsp_convert_q7_f32+0x282>
    1bdc:	8d 42 ff             	lea    -0x1(%rdx),%eax
    1bdf:	83 f8 0e             	cmp    $0xe,%eax
    1be2:	0f 86 6b 02 00 00    	jbe    1e53 <riscv_dsp_convert_q7_f32+0x283>
    1be8:	41 89 d0             	mov    %edx,%r8d
    1beb:	0f 28 1d 3e 15 00 00 	movaps 0x153e(%rip),%xmm3        # 3130 <_IO_stdin_used+0x130>
    1bf2:	48 89 f9             	mov    %rdi,%rcx
    1bf5:	48 89 f0             	mov    %rsi,%rax
    1bf8:	41 c1 e8 04          	shr    $0x4,%r8d
    1bfc:	66 0f ef ed          	pxor   %xmm5,%xmm5
    1c00:	66 0f ef e4          	pxor   %xmm4,%xmm4
    1c04:	41 83 e8 01          	sub    $0x1,%r8d
    1c08:	49 c1 e0 04          	shl    $0x4,%r8
    1c0c:	4e 8d 44 07 10       	lea    0x10(%rdi,%r8,1),%r8
    1c11:	0f 1f 80 00 00 00 00 	nopl   0x0(%rax)
    1c18:	f3 0f 6f 01          	movdqu (%rcx),%xmm0
    1c1c:	66 0f 6f d5          	movdqa %xmm5,%xmm2
    1c20:	66 0f 6f f4          	movdqa %xmm4,%xmm6
    1c24:	48 83 c1 10          	add    $0x10,%rcx
    1c28:	48 83 c0 40          	add    $0x40,%rax
    1c2c:	66 0f 64 d0          	pcmpgtb %xmm0,%xmm2
    1c30:	66 0f 6f c8          	movdqa %xmm0,%xmm1
    1c34:	66 0f 60 ca          	punpcklbw %xmm2,%xmm1
    1c38:	66 0f 68 c2          	punpckhbw %xmm2,%xmm0
    1c3c:	66 0f 65 f1          	pcmpgtw %xmm1,%xmm6
    1c40:	66 0f 6f d1          	movdqa %xmm1,%xmm2
    1c44:	66 0f 61 d6          	punpcklwd %xmm6,%xmm2
    1c48:	66 0f 69 ce          	punpckhwd %xmm6,%xmm1
    1c4c:	0f 5b d2             	cvtdq2ps %xmm2,%xmm2
    1c4f:	0f 59 d3             	mulps  %xmm3,%xmm2
    1c52:	0f 5b c9             	cvtdq2ps %xmm1,%xmm1
    1c55:	0f 59 cb             	mulps  %xmm3,%xmm1
    1c58:	0f 11 50 c0          	movups %xmm2,-0x40(%rax)
    1c5c:	66 0f 6f d4          	movdqa %xmm4,%xmm2
    1c60:	66 0f 65 d0          	pcmpgtw %xmm0,%xmm2
    1c64:	0f 11 48 d0          	movups %xmm1,-0x30(%rax)
    1c68:	66 0f 6f c8          	movdqa %xmm0,%xmm1
    1c6c:	66 0f 61 ca          	punpcklwd %xmm2,%xmm1
    1c70:	66 0f 69 c2          	punpckhwd %xmm2,%xmm0
    1c74:	0f 5b c9             	cvtdq2ps %xmm1,%xmm1
    1c77:	0f 5b c0             	cvtdq2ps %xmm0,%xmm0
    1c7a:	0f 59 cb             	mulps  %xmm3,%xmm1
    1c7d:	0f 59 c3             	mulps  %xmm3,%xmm0
    1c80:	0f 11 48 e0          	movups %xmm1,-0x20(%rax)
    1c84:	0f 11 40 f0          	movups %xmm0,-0x10(%rax)
    1c88:	4c 39 c1             	cmp    %r8,%rcx
    1c8b:	75 8b                	jne    1c18 <riscv_dsp_convert_q7_f32+0x48>
    1c8d:	89 d1                	mov    %edx,%ecx
    1c8f:	83 e1 f0             	and    $0xfffffff0,%ecx
    1c92:	89 c8                	mov    %ecx,%eax
    1c94:	48 01 c7             	add    %rax,%rdi
    1c97:	48 8d 34 86          	lea    (%rsi,%rax,4),%rsi
    1c9b:	89 d0                	mov    %edx,%eax
    1c9d:	29 c8                	sub    %ecx,%eax
    1c9f:	39 ca                	cmp    %ecx,%edx
    1ca1:	0f 84 b3 01 00 00    	je     1e5a <riscv_dsp_convert_q7_f32+0x28a>
    1ca7:	0f be 17             	movsbl (%rdi),%edx
    1caa:	66 0f ef c9          	pxor   %xmm1,%xmm1
    1cae:	f3 0f 10 05 7a 14 00 	movss  0x147a(%rip),%xmm0        # 3130 <_IO_stdin_used+0x130>
    1cb5:	00 
    1cb6:	f3 0f 2a ca          	cvtsi2ss %edx,%xmm1
    1cba:	f3 0f 59 c8          	mulss  %xmm0,%xmm1
    1cbe:	f3 0f 11 0e          	movss  %xmm1,(%rsi)
    1cc2:	83 f8 01             	cmp    $0x1,%eax
    1cc5:	0f 84 87 01 00 00    	je     1e52 <riscv_dsp_convert_q7_f32+0x282>
    1ccb:	0f be 57 01          	movsbl 0x1(%rdi),%edx
    1ccf:	66 0f ef c9          	pxor   %xmm1,%xmm1
    1cd3:	f3 0f 2a ca          	cvtsi2ss %edx,%xmm1
    1cd7:	f3 0f 59 c8          	mulss  %xmm0,%xmm1
    1cdb:	f3 0f 11 4e 04       	movss  %xmm1,0x4(%rsi)
    1ce0:	83 f8 02             	cmp    $0x2,%eax
    1ce3:	0f 84 69 01 00 00    	je     1e52 <riscv_dsp_convert_q7_f32+0x282>
    1ce9:	0f be 57 02          	movsbl 0x2(%rdi),%edx
    1ced:	66 0f ef c9          	pxor   %xmm1,%xmm1
    1cf1:	f3 0f 2a ca          	cvtsi2ss %edx,%xmm1
    1cf5:	f3 0f 59 c8          	mulss  %xmm0,%xmm1
    1cf9:	f3 0f 11 4e 08       	movss  %xmm1,0x8(%rsi)
    1cfe:	83 f8 03             	cmp    $0x3,%eax
    1d01:	0f 84 4b 01 00 00    	je     1e52 <riscv_dsp_convert_q7_f32+0x282>
    1d07:	0f be 57 03          	movsbl 0x3(%rdi),%edx
    1d0b:	66 0f ef c9          	pxor   %xmm1,%xmm1
    1d0f:	f3 0f 2a ca          	cvtsi2ss %edx,%xmm1
    1d13:	f3 0f 59 c8          	mulss  %xmm0,%xmm1
    1d17:	f3 0f 11 4e 0c       	movss  %xmm1,0xc(%rsi)
    1d1c:	83 f8 04             	cmp    $0x4,%eax
    1d1f:	0f 84 2d 01 00 00    	je     1e52 <riscv_dsp_convert_q7_f32+0x282>
    1d25:	0f be 57 04          	movsbl 0x4(%rdi),%edx
    1d29:	66 0f ef c9          	pxor   %xmm1,%xmm1
    1d2d:	f3 0f 2a ca          	cvtsi2ss %edx,%xmm1
    1d31:	f3 0f 59 c8          	mulss  %xmm0,%xmm1
    1d35:	f3 0f 11 4e 10       	movss  %xmm1,0x10(%rsi)
    1d3a:	83 f8 05             	cmp    $0x5,%eax
    1d3d:	0f 84 0f 01 00 00    	je     1e52 <riscv_dsp_convert_q7_f32+0x282>
    1d43:	0f be 57 05          	movsbl 0x5(%rdi),%edx
    1d47:	66 0f ef c9          	pxor   %xmm1,%xmm1
    1d4b:	f3 0f 2a ca          	cvtsi2ss %edx,%xmm1
    1d4f:	f3 0f 59 c8          	mulss  %xmm0,%xmm1
    1d53:	f3 0f 11 4e 14       	movss  %xmm1,0x14(%rsi)
    1d58:	83 f8 06             	cmp    $0x6,%eax
    1d5b:	0f 84 f1 00 00 00    	je     1e52 <riscv_dsp_convert_q7_f32+0x282>
    1d61:	0f be 57 06          	movsbl 0x6(%rdi),%edx
    1d65:	66 0f ef c9          	pxor   %xmm1,%xmm1
    1d69:	f3 0f 2a ca          	cvtsi2ss %edx,%xmm1
    1d6d:	f3 0f 59 c8          	mulss  %xmm0,%xmm1
    1d71:	f3 0f 11 4e 18       	movss  %xmm1,0x18(%rsi)
    1d76:	83 f8 07             	cmp    $0x7,%eax
    1d79:	0f 84 d3 00 00 00    	je     1e52 <riscv_dsp_convert_q7_f32+0x282>
    1d7f:	0f be 57 07          	movsbl 0x7(%rdi),%edx
    1d83:	66 0f ef c9          	pxor   %xmm1,%xmm1
    1d87:	f3 0f 2a ca          	cvtsi2ss %edx,%xmm1
    1d8b:	f3 0f 59 c8          	mulss  %xmm0,%xmm1
    1d8f:	f3 0f 11 4e 1c       	movss  %xmm1,0x1c(%rsi)
    1d94:	83 f8 08             	cmp    $0x8,%eax
    1d97:	0f 84 b5 00 00 00    	je     1e52 <riscv_dsp_convert_q7_f32+0x282>
    1d9d:	0f be 57 08          	movsbl 0x8(%rdi),%edx
    1da1:	66 0f ef c9          	pxor   %xmm1,%xmm1
    1da5:	f3 0f 2a ca          	cvtsi2ss %edx,%xmm1
    1da9:	f3 0f 59 c8          	mulss  %xmm0,%xmm1
    1dad:	f3 0f 11 4e 20       	movss  %xmm1,0x20(%rsi)
    1db2:	83 f8 09             	cmp    $0x9,%eax
    1db5:	0f 84 97 00 00 00    	je     1e52 <riscv_dsp_convert_q7_f32+0x282>
    1dbb:	0f be 57 09          	movsbl 0x9(%rdi),%edx
    1dbf:	66 0f ef c9          	pxor   %xmm1,%xmm1
    1dc3:	f3 0f 2a ca          	cvtsi2ss %edx,%xmm1
    1dc7:	f3 0f 59 c8          	mulss  %xmm0,%xmm1
    1dcb:	f3 0f 11 4e 24       	movss  %xmm1,0x24(%rsi)
    1dd0:	83 f8 0a             	cmp    $0xa,%eax
    1dd3:	74 7d                	je     1e52 <riscv_dsp_convert_q7_f32+0x282>
    1dd5:	0f be 57 0a          	movsbl 0xa(%rdi),%edx
    1dd9:	66 0f ef c9          	pxor   %xmm1,%xmm1
    1ddd:	f3 0f 2a ca          	cvtsi2ss %edx,%xmm1
    1de1:	f3 0f 59 c8          	mulss  %xmm0,%xmm1
    1de5:	f3 0f 11 4e 28       	movss  %xmm1,0x28(%rsi)
    1dea:	83 f8 0b             	cmp    $0xb,%eax
    1ded:	74 63                	je     1e52 <riscv_dsp_convert_q7_f32+0x282>
    1def:	0f be 57 0b          	movsbl 0xb(%rdi),%edx
    1df3:	66 0f ef c9          	pxor   %xmm1,%xmm1
    1df7:	f3 0f 2a ca          	cvtsi2ss %edx,%xmm1
    1dfb:	f3 0f 59 c8          	mulss  %xmm0,%xmm1
    1dff:	f3 0f 11 4e 2c       	movss  %xmm1,0x2c(%rsi)
    1e04:	83 f8 0c             	cmp    $0xc,%eax
    1e07:	74 49                	je     1e52 <riscv_dsp_convert_q7_f32+0x282>
    1e09:	0f be 57 0c          	movsbl 0xc(%rdi),%edx
    1e0d:	66 0f ef c9          	pxor   %xmm1,%xmm1
    1e11:	f3 0f 2a ca          	cvtsi2ss %edx,%xmm1
    1e15:	f3 0f 59 c8          	mulss  %xmm0,%xmm1
    1e19:	f3 0f 11 4e 30       	movss  %xmm1,0x30(%rsi)
    1e1e:	83 f8 0d             	cmp    $0xd,%eax
    1e21:	74 2f                	je     1e52 <riscv_dsp_convert_q7_f32+0x282>
    1e23:	0f be 57 0d          	movsbl 0xd(%rdi),%edx
    1e27:	66 0f ef c9          	pxor   %xmm1,%xmm1
    1e2b:	f3 0f 2a ca          	cvtsi2ss %edx,%xmm1
    1e2f:	f3 0f 59 c8          	mulss  %xmm0,%xmm1
    1e33:	f3 0f 11 4e 34       	movss  %xmm1,0x34(%rsi)
    1e38:	83 f8 0e             	cmp    $0xe,%eax
    1e3b:	74 15                	je     1e52 <riscv_dsp_convert_q7_f32+0x282>
    1e3d:	0f be 47 0e          	movsbl 0xe(%rdi),%eax
    1e41:	66 0f ef c9          	pxor   %xmm1,%xmm1
    1e45:	f3 0f 2a c8          	cvtsi2ss %eax,%xmm1
    1e49:	f3 0f 59 c8          	mulss  %xmm0,%xmm1
    1e4d:	f3 0f 11 4e 38       	movss  %xmm1,0x38(%rsi)
    1e52:	c3                   	ret    
    1e53:	89 d0                	mov    %edx,%eax
    1e55:	e9 4d fe ff ff       	jmp    1ca7 <riscv_dsp_convert_q7_f32+0xd7>
    1e5a:	c3                   	ret    
    1e5b:	0f 1f 44 00 00       	nopl   0x0(%rax,%rax,1)

0000000000001e60 <riscv_dsp_spafir_q7>:
    1e60:	f3 0f 1e fa          	endbr64 
    1e64:	48 89 f8             	mov    %rdi,%rax
    1e67:	41 57                	push   %r15
    1e69:	48 89 f7             	mov    %rsi,%rdi
    1e6c:	49 89 cb             	mov    %rcx,%r11
    1e6f:	41 56                	push   %r14
    1e71:	4d 89 c6             	mov    %r8,%r14
    1e74:	41 55                	push   %r13
    1e76:	41 54                	push   %r12
    1e78:	55                   	push   %rbp
    1e79:	44 89 cd             	mov    %r9d,%ebp
    1e7c:	53                   	push   %rbx
    1e7d:	0f b7 70 18          	movzwl 0x18(%rax),%esi
    1e81:	4c 8b 40 08          	mov    0x8(%rax),%r8
    1e85:	4c 8b 68 10          	mov    0x10(%rax),%r13
    1e89:	44 01 ce             	add    %r9d,%esi
    1e8c:	45 8d 49 ff          	lea    -0x1(%r9),%r9d
    1e90:	0f b7 18             	movzwl (%rax),%ebx
    1e93:	0f b7 48 02          	movzwl 0x2(%rax),%ecx
    1e97:	44 89 4c 24 cc       	mov    %r9d,-0x34(%rsp)
    1e9c:	4e 8d 54 0f 01       	lea    0x1(%rdi,%r9,1),%r10
    1ea1:	48 89 54 24 f0       	mov    %rdx,-0x10(%rsp)
    1ea6:	48 8b 50 20          	mov    0x20(%rax),%rdx
    1eaa:	66 0f 1f 44 00 00    	nopw   0x0(%rax,%rax,1)
    1eb0:	44 0f b6 27          	movzbl (%rdi),%r12d
    1eb4:	4c 63 c9             	movslq %ecx,%r9
    1eb7:	83 c1 01             	add    $0x1,%ecx
    1eba:	48 83 c7 01          	add    $0x1,%rdi
    1ebe:	47 88 24 08          	mov    %r12b,(%r8,%r9,1)
    1ec2:	41 89 c9             	mov    %ecx,%r9d
    1ec5:	41 29 f1             	sub    %esi,%r9d
    1ec8:	39 ce                	cmp    %ecx,%esi
    1eca:	41 0f 4e c9          	cmovle %r9d,%ecx
    1ece:	49 39 fa             	cmp    %rdi,%r10
    1ed1:	75 dd                	jne    1eb0 <riscv_dsp_spafir_q7+0x50>
    1ed3:	66 89 48 02          	mov    %cx,0x2(%rax)
    1ed7:	0f b7 c3             	movzwl %bx,%eax
    1eda:	0f b7 d9             	movzwl %cx,%ebx
    1edd:	4c 63 cd             	movslq %ebp,%r9
    1ee0:	29 eb                	sub    %ebp,%ebx
    1ee2:	89 44 24 d0          	mov    %eax,-0x30(%rsp)
    1ee6:	89 ef                	mov    %ebp,%edi
    1ee8:	89 d8                	mov    %ebx,%eax
    1eea:	2b 02                	sub    (%rdx),%eax
    1eec:	8d 0c 30             	lea    (%rax,%rsi,1),%ecx
    1eef:	0f 48 c1             	cmovs  %ecx,%eax
    1ef2:	4d 01 d9             	add    %r11,%r9
    1ef5:	4c 89 d9             	mov    %r11,%rcx
    1ef8:	0f 1f 84 00 00 00 00 	nopl   0x0(%rax,%rax,1)
    1eff:	00 
    1f00:	4c 63 d0             	movslq %eax,%r10
    1f03:	48 83 c1 01          	add    $0x1,%rcx
    1f07:	47 0f b6 14 10       	movzbl (%r8,%r10,1),%r10d
    1f0c:	44 88 51 ff          	mov    %r10b,-0x1(%rcx)
    1f10:	49 39 c9             	cmp    %rcx,%r9
    1f13:	49 0f 44 cb          	cmove  %r11,%rcx
    1f17:	83 c0 01             	add    $0x1,%eax
    1f1a:	41 89 c2             	mov    %eax,%r10d
    1f1d:	41 29 f2             	sub    %esi,%r10d
    1f20:	39 c6                	cmp    %eax,%esi
    1f22:	41 0f 4e c2          	cmovle %r10d,%eax
    1f26:	83 ef 01             	sub    $0x1,%edi
    1f29:	75 d5                	jne    1f00 <riscv_dsp_spafir_q7+0xa0>
    1f2b:	41 0f b6 45 00       	movzbl 0x0(%r13),%eax
    1f30:	85 ed                	test   %ebp,%ebp
    1f32:	0f 84 18 02 00 00    	je     2150 <riscv_dsp_spafir_q7+0x2f0>
    1f38:	83 7c 24 cc 0e       	cmpl   $0xe,-0x34(%rsp)
    1f3d:	0f be c8             	movsbl %al,%ecx
    1f40:	0f 86 d5 08 00 00    	jbe    281b <riscv_dsp_spafir_q7+0x9bb>
    1f46:	66 0f 6e d0          	movd   %eax,%xmm2
    1f4a:	66 0f ef ed          	pxor   %xmm5,%xmm5
    1f4e:	41 89 ea             	mov    %ebp,%r10d
    1f51:	4c 89 df             	mov    %r11,%rdi
    1f54:	66 0f 60 d2          	punpcklbw %xmm2,%xmm2
    1f58:	66 0f 6f c5          	movdqa %xmm5,%xmm0
    1f5c:	41 c1 ea 04          	shr    $0x4,%r10d
    1f60:	4c 89 f0             	mov    %r14,%rax
    1f63:	66 0f 61 d2          	punpcklwd %xmm2,%xmm2
    1f67:	41 83 ea 01          	sub    $0x1,%r10d
    1f6b:	66 0f ef e4          	pxor   %xmm4,%xmm4
    1f6f:	66 0f 70 d2 00       	pshufd $0x0,%xmm2,%xmm2
    1f74:	49 c1 e2 04          	shl    $0x4,%r10
    1f78:	66 0f 64 c2          	pcmpgtb %xmm2,%xmm0
    1f7c:	66 0f 6f f2          	movdqa %xmm2,%xmm6
    1f80:	4f 8d 54 13 10       	lea    0x10(%r11,%r10,1),%r10
    1f85:	66 0f 60 f0          	punpcklbw %xmm0,%xmm6
    1f89:	66 0f 68 d0          	punpckhbw %xmm0,%xmm2
    1f8d:	0f 1f 00             	nopl   (%rax)
    1f90:	f3 0f 6f 07          	movdqu (%rdi),%xmm0
    1f94:	66 0f 6f dd          	movdqa %xmm5,%xmm3
    1f98:	48 83 c7 10          	add    $0x10,%rdi
    1f9c:	48 83 c0 40          	add    $0x40,%rax
    1fa0:	66 0f 64 d8          	pcmpgtb %xmm0,%xmm3
    1fa4:	66 0f 6f c8          	movdqa %xmm0,%xmm1
    1fa8:	66 0f 60 cb          	punpcklbw %xmm3,%xmm1
    1fac:	66 0f 68 c3          	punpckhbw %xmm3,%xmm0
    1fb0:	66 0f 6f dc          	movdqa %xmm4,%xmm3
    1fb4:	66 0f d5 ce          	pmullw %xmm6,%xmm1
    1fb8:	66 0f d5 c2          	pmullw %xmm2,%xmm0
    1fbc:	66 0f 65 d9          	pcmpgtw %xmm1,%xmm3
    1fc0:	66 0f 6f f9          	movdqa %xmm1,%xmm7
    1fc4:	66 0f 69 cb          	punpckhwd %xmm3,%xmm1
    1fc8:	66 0f 61 fb          	punpcklwd %xmm3,%xmm7
    1fcc:	66 0f 6f d8          	movdqa %xmm0,%xmm3
    1fd0:	0f 11 48 d0          	movups %xmm1,-0x30(%rax)
    1fd4:	66 0f 6f cc          	movdqa %xmm4,%xmm1
    1fd8:	66 0f 65 c8          	pcmpgtw %xmm0,%xmm1
    1fdc:	0f 11 78 c0          	movups %xmm7,-0x40(%rax)
    1fe0:	66 0f 61 d9          	punpcklwd %xmm1,%xmm3
    1fe4:	66 0f 69 c1          	punpckhwd %xmm1,%xmm0
    1fe8:	0f 11 58 e0          	movups %xmm3,-0x20(%rax)
    1fec:	0f 11 40 f0          	movups %xmm0,-0x10(%rax)
    1ff0:	49 39 fa             	cmp    %rdi,%r10
    1ff3:	75 9b                	jne    1f90 <riscv_dsp_spafir_q7+0x130>
    1ff5:	41 89 ec             	mov    %ebp,%r12d
    1ff8:	41 89 ea             	mov    %ebp,%r10d
    1ffb:	41 83 e4 f0          	and    $0xfffffff0,%r12d
    1fff:	44 89 e0             	mov    %r12d,%eax
    2002:	45 29 e2             	sub    %r12d,%r10d
    2005:	49 8d 3c 86          	lea    (%r14,%rax,4),%rdi
    2009:	4c 01 d8             	add    %r11,%rax
    200c:	44 39 e5             	cmp    %r12d,%ebp
    200f:	0f 84 3b 01 00 00    	je     2150 <riscv_dsp_spafir_q7+0x2f0>
    2015:	44 0f be 20          	movsbl (%rax),%r12d
    2019:	44 0f af e1          	imul   %ecx,%r12d
    201d:	44 89 27             	mov    %r12d,(%rdi)
    2020:	41 83 fa 01          	cmp    $0x1,%r10d
    2024:	0f 84 26 01 00 00    	je     2150 <riscv_dsp_spafir_q7+0x2f0>
    202a:	44 0f be 60 01       	movsbl 0x1(%rax),%r12d
    202f:	44 0f af e1          	imul   %ecx,%r12d
    2033:	44 89 67 04          	mov    %r12d,0x4(%rdi)
    2037:	41 83 fa 02          	cmp    $0x2,%r10d
    203b:	0f 84 0f 01 00 00    	je     2150 <riscv_dsp_spafir_q7+0x2f0>
    2041:	44 0f be 60 02       	movsbl 0x2(%rax),%r12d
    2046:	44 0f af e1          	imul   %ecx,%r12d
    204a:	44 89 67 08          	mov    %r12d,0x8(%rdi)
    204e:	41 83 fa 03          	cmp    $0x3,%r10d
    2052:	0f 84 f8 00 00 00    	je     2150 <riscv_dsp_spafir_q7+0x2f0>
    2058:	44 0f be 60 03       	movsbl 0x3(%rax),%r12d
    205d:	44 0f af e1          	imul   %ecx,%r12d
    2061:	44 89 67 0c          	mov    %r12d,0xc(%rdi)
    2065:	41 83 fa 04          	cmp    $0x4,%r10d
    2069:	0f 84 e1 00 00 00    	je     2150 <riscv_dsp_spafir_q7+0x2f0>
    206f:	44 0f be 60 04       	movsbl 0x4(%rax),%r12d
    2074:	44 0f af e1          	imul   %ecx,%r12d
    2078:	44 89 67 10          	mov    %r12d,0x10(%rdi)
    207c:	41 83 fa 05          	cmp    $0x5,%r10d
    2080:	0f 84 ca 00 00 00    	je     2150 <riscv_dsp_spafir_q7+0x2f0>
    2086:	44 0f be 60 05       	movsbl 0x5(%rax),%r12d
    208b:	44 0f af e1          	imul   %ecx,%r12d
    208f:	44 89 67 14          	mov    %r12d,0x14(%rdi)
    2093:	41 83 fa 06          	cmp    $0x6,%r10d
    2097:	0f 84 b3 00 00 00    	je     2150 <riscv_dsp_spafir_q7+0x2f0>
    209d:	44 0f be 60 06       	movsbl 0x6(%rax),%r12d
    20a2:	44 0f af e1          	imul   %ecx,%r12d
    20a6:	44 89 67 18          	mov    %r12d,0x18(%rdi)
    20aa:	41 83 fa 07          	cmp    $0x7,%r10d
    20ae:	0f 84 9c 00 00 00    	je     2150 <riscv_dsp_spafir_q7+0x2f0>
    20b4:	44 0f be 60 07       	movsbl 0x7(%rax),%r12d
    20b9:	44 0f af e1          	imul   %ecx,%r12d
    20bd:	44 89 67 1c          	mov    %r12d,0x1c(%rdi)
    20c1:	41 83 fa 08          	cmp    $0x8,%r10d
    20c5:	0f 84 85 00 00 00    	je     2150 <riscv_dsp_spafir_q7+0x2f0>
    20cb:	44 0f be 60 08       	movsbl 0x8(%rax),%r12d
    20d0:	44 0f af e1          	imul   %ecx,%r12d
    20d4:	44 89 67 20          	mov    %r12d,0x20(%rdi)
    20d8:	41 83 fa 09          	cmp    $0x9,%r10d
    20dc:	74 72                	je     2150 <riscv_dsp_spafir_q7+0x2f0>
    20de:	44 0f be 60 09       	movsbl 0x9(%rax),%r12d
    20e3:	44 0f af e1          	imul   %ecx,%r12d
    20e7:	44 89 67 24          	mov    %r12d,0x24(%rdi)
    20eb:	41 83 fa 0a          	cmp    $0xa,%r10d
    20ef:	74 5f                	je     2150 <riscv_dsp_spafir_q7+0x2f0>
    20f1:	44 0f be 60 0a       	movsbl 0xa(%rax),%r12d
    20f6:	44 0f af e1          	imul   %ecx,%r12d
    20fa:	44 89 67 28          	mov    %r12d,0x28(%rdi)
    20fe:	41 83 fa 0b          	cmp    $0xb,%r10d
    2102:	74 4c                	je     2150 <riscv_dsp_spafir_q7+0x2f0>
    2104:	44 0f be 60 0b       	movsbl 0xb(%rax),%r12d
    2109:	44 0f af e1          	imul   %ecx,%r12d
    210d:	44 89 67 2c          	mov    %r12d,0x2c(%rdi)
    2111:	41 83 fa 0c          	cmp    $0xc,%r10d
    2115:	74 39                	je     2150 <riscv_dsp_spafir_q7+0x2f0>
    2117:	44 0f be 60 0c       	movsbl 0xc(%rax),%r12d
    211c:	44 0f af e1          	imul   %ecx,%r12d
    2120:	44 89 67 30          	mov    %r12d,0x30(%rdi)
    2124:	41 83 fa 0d          	cmp    $0xd,%r10d
    2128:	74 26                	je     2150 <riscv_dsp_spafir_q7+0x2f0>
    212a:	44 0f be 60 0d       	movsbl 0xd(%rax),%r12d
    212f:	44 0f af e1          	imul   %ecx,%r12d
    2133:	44 89 67 34          	mov    %r12d,0x34(%rdi)
    2137:	41 83 fa 0e          	cmp    $0xe,%r10d
    213b:	74 13                	je     2150 <riscv_dsp_spafir_q7+0x2f0>
    213d:	0f be 40 0e          	movsbl 0xe(%rax),%eax
    2141:	0f af c1             	imul   %ecx,%eax
    2144:	89 47 38             	mov    %eax,0x38(%rdi)
    2147:	66 0f 1f 84 00 00 00 	nopw   0x0(%rax,%rax,1)
    214e:	00 00 
    2150:	89 d8                	mov    %ebx,%eax
    2152:	2b 42 04             	sub    0x4(%rdx),%eax
    2155:	45 0f b6 55 01       	movzbl 0x1(%r13),%r10d
    215a:	4d 8d 7d 02          	lea    0x2(%r13),%r15
    215e:	8d 0c 30             	lea    (%rax,%rsi,1),%ecx
    2161:	4c 8d 6a 08          	lea    0x8(%rdx),%r13
    2165:	0f 48 c1             	cmovs  %ecx,%eax
    2168:	83 7c 24 d0 01       	cmpl   $0x1,-0x30(%rsp)
    216d:	0f 84 c1 02 00 00    	je     2434 <riscv_dsp_spafir_q7+0x5d4>
    2173:	8b 4c 24 d0          	mov    -0x30(%rsp),%ecx
    2177:	66 45 0f ef c0       	pxor   %xmm8,%xmm8
    217c:	66 0f ef ff          	pxor   %xmm7,%xmm7
    2180:	83 e9 02             	sub    $0x2,%ecx
    2183:	48 8d 54 8a 0c       	lea    0xc(%rdx,%rcx,4),%rdx
    2188:	89 e9                	mov    %ebp,%ecx
    218a:	48 89 54 24 d0       	mov    %rdx,-0x30(%rsp)
    218f:	89 ea                	mov    %ebp,%edx
    2191:	83 e1 f0             	and    $0xfffffff0,%ecx
    2194:	c1 ea 04             	shr    $0x4,%edx
    2197:	89 4c 24 e8          	mov    %ecx,-0x18(%rsp)
    219b:	83 ea 01             	sub    $0x1,%edx
    219e:	48 c1 e2 04          	shl    $0x4,%rdx
    21a2:	4d 8d 64 13 10       	lea    0x10(%r11,%rdx,1),%r12
    21a7:	89 ca                	mov    %ecx,%edx
    21a9:	49 8d 3c 96          	lea    (%r14,%rdx,4),%rdi
    21ad:	4c 01 da             	add    %r11,%rdx
    21b0:	48 89 54 24 e0       	mov    %rdx,-0x20(%rsp)
    21b5:	89 ea                	mov    %ebp,%edx
    21b7:	29 ca                	sub    %ecx,%edx
    21b9:	48 89 7c 24 d8       	mov    %rdi,-0x28(%rsp)
    21be:	89 54 24 ec          	mov    %edx,-0x14(%rsp)
    21c2:	66 0f 1f 44 00 00    	nopw   0x0(%rax,%rax,1)
    21c8:	89 e9                	mov    %ebp,%ecx
    21ca:	4c 89 da             	mov    %r11,%rdx
    21cd:	0f 1f 00             	nopl   (%rax)
    21d0:	48 63 f8             	movslq %eax,%rdi
    21d3:	48 83 c2 01          	add    $0x1,%rdx
    21d7:	41 0f b6 3c 38       	movzbl (%r8,%rdi,1),%edi
    21dc:	40 88 7a ff          	mov    %dil,-0x1(%rdx)
    21e0:	49 39 d1             	cmp    %rdx,%r9
    21e3:	49 0f 44 d3          	cmove  %r11,%rdx
    21e7:	83 c0 01             	add    $0x1,%eax
    21ea:	89 c7                	mov    %eax,%edi
    21ec:	29 f7                	sub    %esi,%edi
    21ee:	39 c6                	cmp    %eax,%esi
    21f0:	0f 4e c7             	cmovle %edi,%eax
    21f3:	83 e9 01             	sub    $0x1,%ecx
    21f6:	75 d8                	jne    21d0 <riscv_dsp_spafir_q7+0x370>
    21f8:	85 ed                	test   %ebp,%ebp
    21fa:	0f 84 10 02 00 00    	je     2410 <riscv_dsp_spafir_q7+0x5b0>
    2200:	83 7c 24 cc 0e       	cmpl   $0xe,-0x34(%rsp)
    2205:	41 0f be d2          	movsbl %r10b,%edx
    2209:	0f 86 ff 05 00 00    	jbe    280e <riscv_dsp_spafir_q7+0x9ae>
    220f:	66 41 0f 6e e2       	movd   %r10d,%xmm4
    2214:	66 41 0f 6f c0       	movdqa %xmm8,%xmm0
    2219:	4c 89 f0             	mov    %r14,%rax
    221c:	4c 89 d9             	mov    %r11,%rcx
    221f:	66 0f 60 e4          	punpcklbw %xmm4,%xmm4
    2223:	66 0f 61 e4          	punpcklwd %xmm4,%xmm4
    2227:	66 0f 70 e4 00       	pshufd $0x0,%xmm4,%xmm4
    222c:	66 0f 64 c4          	pcmpgtb %xmm4,%xmm0
    2230:	66 44 0f 6f cc       	movdqa %xmm4,%xmm9
    2235:	66 44 0f 60 c8       	punpcklbw %xmm0,%xmm9
    223a:	66 0f 68 e0          	punpckhbw %xmm0,%xmm4
    223e:	66 90                	xchg   %ax,%ax
    2240:	f3 0f 6f 01          	movdqu (%rcx),%xmm0
    2244:	66 0f 6f ef          	movdqa %xmm7,%xmm5
    2248:	66 0f 6f f7          	movdqa %xmm7,%xmm6
    224c:	48 83 c1 10          	add    $0x10,%rcx
    2250:	66 41 0f 6f d0       	movdqa %xmm8,%xmm2
    2255:	f3 0f 6f 58 10       	movdqu 0x10(%rax),%xmm3
    225a:	f3 44 0f 6f 50 20    	movdqu 0x20(%rax),%xmm10
    2260:	48 83 c0 40          	add    $0x40,%rax
    2264:	66 0f 64 d0          	pcmpgtb %xmm0,%xmm2
    2268:	66 0f 6f c8          	movdqa %xmm0,%xmm1
    226c:	66 0f 60 ca          	punpcklbw %xmm2,%xmm1
    2270:	66 0f 68 c2          	punpckhbw %xmm2,%xmm0
    2274:	66 41 0f d5 c9       	pmullw %xmm9,%xmm1
    2279:	66 0f d5 c4          	pmullw %xmm4,%xmm0
    227d:	66 0f 65 e9          	pcmpgtw %xmm1,%xmm5
    2281:	66 0f 65 f0          	pcmpgtw %xmm0,%xmm6
    2285:	66 0f 6f d1          	movdqa %xmm1,%xmm2
    2289:	66 0f 69 d5          	punpckhwd %xmm5,%xmm2
    228d:	66 0f 61 cd          	punpcklwd %xmm5,%xmm1
    2291:	f3 0f 6f 68 c0       	movdqu -0x40(%rax),%xmm5
    2296:	66 0f fe da          	paddd  %xmm2,%xmm3
    229a:	66 0f 6f d0          	movdqa %xmm0,%xmm2
    229e:	66 0f 69 c6          	punpckhwd %xmm6,%xmm0
    22a2:	66 0f 61 d6          	punpcklwd %xmm6,%xmm2
    22a6:	f3 0f 6f 70 f0       	movdqu -0x10(%rax),%xmm6
    22ab:	66 0f fe cd          	paddd  %xmm5,%xmm1
    22af:	0f 11 58 d0          	movups %xmm3,-0x30(%rax)
    22b3:	66 41 0f fe d2       	paddd  %xmm10,%xmm2
    22b8:	0f 11 48 c0          	movups %xmm1,-0x40(%rax)
    22bc:	66 0f fe c6          	paddd  %xmm6,%xmm0
    22c0:	0f 11 50 e0          	movups %xmm2,-0x20(%rax)
    22c4:	0f 11 40 f0          	movups %xmm0,-0x10(%rax)
    22c8:	4c 39 e1             	cmp    %r12,%rcx
    22cb:	0f 85 6f ff ff ff    	jne    2240 <riscv_dsp_spafir_q7+0x3e0>
    22d1:	3b 6c 24 e8          	cmp    -0x18(%rsp),%ebp
    22d5:	0f 84 35 01 00 00    	je     2410 <riscv_dsp_spafir_q7+0x5b0>
    22db:	8b 7c 24 ec          	mov    -0x14(%rsp),%edi
    22df:	48 8b 4c 24 e0       	mov    -0x20(%rsp),%rcx
    22e4:	48 8b 44 24 d8       	mov    -0x28(%rsp),%rax
    22e9:	44 0f be 11          	movsbl (%rcx),%r10d
    22ed:	44 0f af d2          	imul   %edx,%r10d
    22f1:	44 01 10             	add    %r10d,(%rax)
    22f4:	83 ff 01             	cmp    $0x1,%edi
    22f7:	0f 84 13 01 00 00    	je     2410 <riscv_dsp_spafir_q7+0x5b0>
    22fd:	44 0f be 51 01       	movsbl 0x1(%rcx),%r10d
    2302:	44 0f af d2          	imul   %edx,%r10d
    2306:	44 01 50 04          	add    %r10d,0x4(%rax)
    230a:	83 ff 02             	cmp    $0x2,%edi
    230d:	0f 84 fd 00 00 00    	je     2410 <riscv_dsp_spafir_q7+0x5b0>
    2313:	44 0f be 51 02       	movsbl 0x2(%rcx),%r10d
    2318:	44 0f af d2          	imul   %edx,%r10d
    231c:	44 01 50 08          	add    %r10d,0x8(%rax)
    2320:	83 ff 03             	cmp    $0x3,%edi
    2323:	0f 84 e7 00 00 00    	je     2410 <riscv_dsp_spafir_q7+0x5b0>
    2329:	44 0f be 51 03       	movsbl 0x3(%rcx),%r10d
    232e:	44 0f af d2          	imul   %edx,%r10d
    2332:	44 01 50 0c          	add    %r10d,0xc(%rax)
    2336:	83 ff 04             	cmp    $0x4,%edi
    2339:	0f 84 d1 00 00 00    	je     2410 <riscv_dsp_spafir_q7+0x5b0>
    233f:	44 0f be 51 04       	movsbl 0x4(%rcx),%r10d
    2344:	44 0f af d2          	imul   %edx,%r10d
    2348:	44 01 50 10          	add    %r10d,0x10(%rax)
    234c:	83 ff 05             	cmp    $0x5,%edi
    234f:	0f 84 bb 00 00 00    	je     2410 <riscv_dsp_spafir_q7+0x5b0>
    2355:	44 0f be 51 05       	movsbl 0x5(%rcx),%r10d
    235a:	44 0f af d2          	imul   %edx,%r10d
    235e:	44 01 50 14          	add    %r10d,0x14(%rax)
    2362:	83 ff 06             	cmp    $0x6,%edi
    2365:	0f 84 a5 00 00 00    	je     2410 <riscv_dsp_spafir_q7+0x5b0>
    236b:	44 0f be 51 06       	movsbl 0x6(%rcx),%r10d
    2370:	44 0f af d2          	imul   %edx,%r10d
    2374:	44 01 50 18          	add    %r10d,0x18(%rax)
    2378:	83 ff 07             	cmp    $0x7,%edi
    237b:	0f 84 8f 00 00 00    	je     2410 <riscv_dsp_spafir_q7+0x5b0>
    2381:	44 0f be 51 07       	movsbl 0x7(%rcx),%r10d
    2386:	44 0f af d2          	imul   %edx,%r10d
    238a:	44 01 50 1c          	add    %r10d,0x1c(%rax)
    238e:	83 ff 08             	cmp    $0x8,%edi
    2391:	74 7d                	je     2410 <riscv_dsp_spafir_q7+0x5b0>
    2393:	44 0f be 51 08       	movsbl 0x8(%rcx),%r10d
    2398:	44 0f af d2          	imul   %edx,%r10d
    239c:	44 01 50 20          	add    %r10d,0x20(%rax)
    23a0:	83 ff 09             	cmp    $0x9,%edi
    23a3:	74 6b                	je     2410 <riscv_dsp_spafir_q7+0x5b0>
    23a5:	44 0f be 51 09       	movsbl 0x9(%rcx),%r10d
    23aa:	44 0f af d2          	imul   %edx,%r10d
    23ae:	44 01 50 24          	add    %r10d,0x24(%rax)
    23b2:	83 ff 0a             	cmp    $0xa,%edi
    23b5:	74 59                	je     2410 <riscv_dsp_spafir_q7+0x5b0>
    23b7:	44 0f be 51 0a       	movsbl 0xa(%rcx),%r10d
    23bc:	44 0f af d2          	imul   %edx,%r10d
    23c0:	44 01 50 28          	add    %r10d,0x28(%rax)
    23c4:	83 ff 0b             	cmp    $0xb,%edi
    23c7:	74 47                	je     2410 <riscv_dsp_spafir_q7+0x5b0>
    23c9:	44 0f be 51 0b       	movsbl 0xb(%rcx),%r10d
    23ce:	44 0f af d2          	imul   %edx,%r10d
    23d2:	44 01 50 2c          	add    %r10d,0x2c(%rax)
    23d6:	83 ff 0c             	cmp    $0xc,%edi
    23d9:	74 35                	je     2410 <riscv_dsp_spafir_q7+0x5b0>
    23db:	44 0f be 51 0c       	movsbl 0xc(%rcx),%r10d
    23e0:	44 0f af d2          	imul   %edx,%r10d
    23e4:	44 01 50 30          	add    %r10d,0x30(%rax)
    23e8:	83 ff 0d             	cmp    $0xd,%edi
    23eb:	74 23                	je     2410 <riscv_dsp_spafir_q7+0x5b0>
    23ed:	44 0f be 51 0d       	movsbl 0xd(%rcx),%r10d
    23f2:	44 0f af d2          	imul   %edx,%r10d
    23f6:	44 01 50 34          	add    %r10d,0x34(%rax)
    23fa:	83 ff 0e             	cmp    $0xe,%edi
    23fd:	74 11                	je     2410 <riscv_dsp_spafir_q7+0x5b0>
    23ff:	0f be 49 0e          	movsbl 0xe(%rcx),%ecx
    2403:	0f af ca             	imul   %edx,%ecx
    2406:	01 48 38             	add    %ecx,0x38(%rax)
    2409:	0f 1f 80 00 00 00 00 	nopl   0x0(%rax)
    2410:	49 83 c5 04          	add    $0x4,%r13
    2414:	49 83 c7 01          	add    $0x1,%r15
    2418:	89 d8                	mov    %ebx,%eax
    241a:	45 0f b6 57 ff       	movzbl -0x1(%r15),%r10d
    241f:	41 2b 45 fc          	sub    -0x4(%r13),%eax
    2423:	8d 14 30             	lea    (%rax,%rsi,1),%edx
    2426:	0f 48 c2             	cmovs  %edx,%eax
    2429:	4c 3b 6c 24 d0       	cmp    -0x30(%rsp),%r13
    242e:	0f 85 94 fd ff ff    	jne    21c8 <riscv_dsp_spafir_q7+0x368>
    2434:	85 ed                	test   %ebp,%ebp
    2436:	0f 84 c7 03 00 00    	je     2803 <riscv_dsp_spafir_q7+0x9a3>
    243c:	83 7c 24 cc 0e       	cmpl   $0xe,-0x34(%rsp)
    2441:	0f 86 e2 03 00 00    	jbe    2829 <riscv_dsp_spafir_q7+0x9c9>
    2447:	89 e9                	mov    %ebp,%ecx
    2449:	48 8b 5c 24 f0       	mov    -0x10(%rsp),%rbx
    244e:	66 0f 6f 25 ea 0c 00 	movdqa 0xcea(%rip),%xmm4        # 3140 <_IO_stdin_used+0x140>
    2455:	00 
    2456:	4c 89 f0             	mov    %r14,%rax
    2459:	c1 e9 04             	shr    $0x4,%ecx
    245c:	66 0f 6f 1d ec 0c 00 	movdqa 0xcec(%rip),%xmm3        # 3150 <_IO_stdin_used+0x150>
    2463:	00 
    2464:	66 0f 6f 2d f4 0c 00 	movdqa 0xcf4(%rip),%xmm5        # 3160 <_IO_stdin_used+0x160>
    246b:	00 
    246c:	83 e9 01             	sub    $0x1,%ecx
    246f:	48 89 da             	mov    %rbx,%rdx
    2472:	48 c1 e1 04          	shl    $0x4,%rcx
    2476:	48 8d 4c 0b 10       	lea    0x10(%rbx,%rcx,1),%rcx
    247b:	0f 1f 44 00 00       	nopl   0x0(%rax,%rax,1)
    2480:	f3 0f 6f 00          	movdqu (%rax),%xmm0
    2484:	66 0f 6f d3          	movdqa %xmm3,%xmm2
    2488:	66 0f 6f f3          	movdqa %xmm3,%xmm6
    248c:	66 0f 6f fb          	movdqa %xmm3,%xmm7
    2490:	48 83 c2 10          	add    $0x10,%rdx
    2494:	48 83 c0 40          	add    $0x40,%rax
    2498:	66 0f 72 e0 07       	psrad  $0x7,%xmm0
    249d:	66 0f 6f c8          	movdqa %xmm0,%xmm1
    24a1:	66 0f 66 cc          	pcmpgtd %xmm4,%xmm1
    24a5:	66 0f db c1          	pand   %xmm1,%xmm0
    24a9:	66 0f df cc          	pandn  %xmm4,%xmm1
    24ad:	66 0f eb c8          	por    %xmm0,%xmm1
    24b1:	66 0f 6f c1          	movdqa %xmm1,%xmm0
    24b5:	66 0f 66 c3          	pcmpgtd %xmm3,%xmm0
    24b9:	66 0f db d0          	pand   %xmm0,%xmm2
    24bd:	66 0f df c1          	pandn  %xmm1,%xmm0
    24c1:	f3 0f 6f 48 d0       	movdqu -0x30(%rax),%xmm1
    24c6:	66 0f eb c2          	por    %xmm2,%xmm0
    24ca:	66 0f 72 e1 07       	psrad  $0x7,%xmm1
    24cf:	66 0f 6f d1          	movdqa %xmm1,%xmm2
    24d3:	66 0f 66 d4          	pcmpgtd %xmm4,%xmm2
    24d7:	66 0f db ca          	pand   %xmm2,%xmm1
    24db:	66 0f df d4          	pandn  %xmm4,%xmm2
    24df:	66 0f eb d1          	por    %xmm1,%xmm2
    24e3:	66 0f 6f ca          	movdqa %xmm2,%xmm1
    24e7:	66 0f 66 cb          	pcmpgtd %xmm3,%xmm1
    24eb:	66 0f db f1          	pand   %xmm1,%xmm6
    24ef:	66 0f df ca          	pandn  %xmm2,%xmm1
    24f3:	66 0f 6f d0          	movdqa %xmm0,%xmm2
    24f7:	66 0f eb ce          	por    %xmm6,%xmm1
    24fb:	66 0f 6f f3          	movdqa %xmm3,%xmm6
    24ff:	66 0f 61 c1          	punpcklwd %xmm1,%xmm0
    2503:	66 0f 69 d1          	punpckhwd %xmm1,%xmm2
    2507:	66 0f 6f c8          	movdqa %xmm0,%xmm1
    250b:	66 0f 61 c2          	punpcklwd %xmm2,%xmm0
    250f:	66 0f 69 ca          	punpckhwd %xmm2,%xmm1
    2513:	66 0f 61 c1          	punpcklwd %xmm1,%xmm0
    2517:	f3 0f 6f 48 e0       	movdqu -0x20(%rax),%xmm1
    251c:	66 0f db c5          	pand   %xmm5,%xmm0
    2520:	66 0f 72 e1 07       	psrad  $0x7,%xmm1
    2525:	66 0f 6f d1          	movdqa %xmm1,%xmm2
    2529:	66 0f 66 d4          	pcmpgtd %xmm4,%xmm2
    252d:	66 0f db ca          	pand   %xmm2,%xmm1
    2531:	66 0f df d4          	pandn  %xmm4,%xmm2
    2535:	66 0f eb d1          	por    %xmm1,%xmm2
    2539:	66 0f 6f ca          	movdqa %xmm2,%xmm1
    253d:	66 0f 66 cb          	pcmpgtd %xmm3,%xmm1
    2541:	66 0f db f1          	pand   %xmm1,%xmm6
    2545:	66 0f df ca          	pandn  %xmm2,%xmm1
    2549:	f3 0f 6f 50 f0       	movdqu -0x10(%rax),%xmm2
    254e:	66 0f eb ce          	por    %xmm6,%xmm1
    2552:	66 0f 72 e2 07       	psrad  $0x7,%xmm2
    2557:	66 0f 6f f2          	movdqa %xmm2,%xmm6
    255b:	66 0f 66 f4          	pcmpgtd %xmm4,%xmm6
    255f:	66 0f db d6          	pand   %xmm6,%xmm2
    2563:	66 0f df f4          	pandn  %xmm4,%xmm6
    2567:	66 0f eb f2          	por    %xmm2,%xmm6
    256b:	66 0f 6f d6          	movdqa %xmm6,%xmm2
    256f:	66 0f 66 d3          	pcmpgtd %xmm3,%xmm2
    2573:	66 0f db fa          	pand   %xmm2,%xmm7
    2577:	66 0f df d6          	pandn  %xmm6,%xmm2
    257b:	66 0f 6f f1          	movdqa %xmm1,%xmm6
    257f:	66 0f eb d7          	por    %xmm7,%xmm2
    2583:	66 0f 61 ca          	punpcklwd %xmm2,%xmm1
    2587:	66 0f 69 f2          	punpckhwd %xmm2,%xmm6
    258b:	66 0f 6f d1          	movdqa %xmm1,%xmm2
    258f:	66 0f 61 ce          	punpcklwd %xmm6,%xmm1
    2593:	66 0f 69 d6          	punpckhwd %xmm6,%xmm2
    2597:	66 0f 61 ca          	punpcklwd %xmm2,%xmm1
    259b:	66 0f db cd          	pand   %xmm5,%xmm1
    259f:	66 0f 67 c1          	packuswb %xmm1,%xmm0
    25a3:	0f 11 42 f0          	movups %xmm0,-0x10(%rdx)
    25a7:	48 39 ca             	cmp    %rcx,%rdx
    25aa:	0f 85 d0 fe ff ff    	jne    2480 <riscv_dsp_spafir_q7+0x620>
    25b0:	89 e8                	mov    %ebp,%eax
    25b2:	89 ea                	mov    %ebp,%edx
    25b4:	83 e0 f0             	and    $0xfffffff0,%eax
    25b7:	89 c1                	mov    %eax,%ecx
    25b9:	29 c2                	sub    %eax,%edx
    25bb:	48 01 4c 24 f0       	add    %rcx,-0x10(%rsp)
    25c0:	4d 8d 34 8e          	lea    (%r14,%rcx,4),%r14
    25c4:	39 c5                	cmp    %eax,%ebp
    25c6:	0f 84 37 02 00 00    	je     2803 <riscv_dsp_spafir_q7+0x9a3>
    25cc:	41 8b 06             	mov    (%r14),%eax
    25cf:	b9 80 ff ff ff       	mov    $0xffffff80,%ecx
    25d4:	48 8b 5c 24 f0       	mov    -0x10(%rsp),%rbx
    25d9:	c1 f8 07             	sar    $0x7,%eax
    25dc:	39 c8                	cmp    %ecx,%eax
    25de:	0f 4c c1             	cmovl  %ecx,%eax
    25e1:	b9 7f 00 00 00       	mov    $0x7f,%ecx
    25e6:	39 c8                	cmp    %ecx,%eax
    25e8:	0f 4f c1             	cmovg  %ecx,%eax
    25eb:	88 03                	mov    %al,(%rbx)
    25ed:	83 fa 01             	cmp    $0x1,%edx
    25f0:	0f 84 0d 02 00 00    	je     2803 <riscv_dsp_spafir_q7+0x9a3>
    25f6:	41 8b 46 04          	mov    0x4(%r14),%eax
    25fa:	b9 80 ff ff ff       	mov    $0xffffff80,%ecx
    25ff:	c1 f8 07             	sar    $0x7,%eax
    2602:	39 c8                	cmp    %ecx,%eax
    2604:	0f 4c c1             	cmovl  %ecx,%eax
    2607:	b9 7f 00 00 00       	mov    $0x7f,%ecx
    260c:	39 c8                	cmp    %ecx,%eax
    260e:	0f 4f c1             	cmovg  %ecx,%eax
    2611:	88 43 01             	mov    %al,0x1(%rbx)
    2614:	83 fa 02             	cmp    $0x2,%edx
    2617:	0f 84 e6 01 00 00    	je     2803 <riscv_dsp_spafir_q7+0x9a3>
    261d:	41 8b 46 08          	mov    0x8(%r14),%eax
    2621:	b9 80 ff ff ff       	mov    $0xffffff80,%ecx
    2626:	c1 f8 07             	sar    $0x7,%eax
    2629:	39 c8                	cmp    %ecx,%eax
    262b:	0f 4c c1             	cmovl  %ecx,%eax
    262e:	b9 7f 00 00 00       	mov    $0x7f,%ecx
    2633:	39 c8                	cmp    %ecx,%eax
    2635:	0f 4f c1             	cmovg  %ecx,%eax
    2638:	88 43 02             	mov    %al,0x2(%rbx)
    263b:	83 fa 03             	cmp    $0x3,%edx
    263e:	0f 84 bf 01 00 00    	je     2803 <riscv_dsp_spafir_q7+0x9a3>
    2644:	41 8b 46 0c          	mov    0xc(%r14),%eax
    2648:	b9 80 ff ff ff       	mov    $0xffffff80,%ecx
    264d:	c1 f8 07             	sar    $0x7,%eax
    2650:	39 c8                	cmp    %ecx,%eax
    2652:	0f 4c c1             	cmovl  %ecx,%eax
    2655:	b9 7f 00 00 00       	mov    $0x7f,%ecx
    265a:	39 c8                	cmp    %ecx,%eax
    265c:	0f 4f c1             	cmovg  %ecx,%eax
    265f:	88 43 03             	mov    %al,0x3(%rbx)
    2662:	83 fa 04             	cmp    $0x4,%edx
    2665:	0f 84 98 01 00 00    	je     2803 <riscv_dsp_spafir_q7+0x9a3>
    266b:	41 8b 46 10          	mov    0x10(%r14),%eax
    266f:	b9 80 ff ff ff       	mov    $0xffffff80,%ecx
    2674:	c1 f8 07             	sar    $0x7,%eax
    2677:	39 c8                	cmp    %ecx,%eax
    2679:	0f 4c c1             	cmovl  %ecx,%eax
    267c:	b9 7f 00 00 00       	mov    $0x7f,%ecx
    2681:	39 c8                	cmp    %ecx,%eax
    2683:	0f 4f c1             	cmovg  %ecx,%eax
    2686:	88 43 04             	mov    %al,0x4(%rbx)
    2689:	83 fa 05             	cmp    $0x5,%edx
    268c:	0f 84 71 01 00 00    	je     2803 <riscv_dsp_spafir_q7+0x9a3>
    2692:	41 8b 46 14          	mov    0x14(%r14),%eax
    2696:	b9 80 ff ff ff       	mov    $0xffffff80,%ecx
    269b:	c1 f8 07             	sar    $0x7,%eax
    269e:	39 c8                	cmp    %ecx,%eax
    26a0:	0f 4c c1             	cmovl  %ecx,%eax
    26a3:	b9 7f 00 00 00       	mov    $0x7f,%ecx
    26a8:	39 c8                	cmp    %ecx,%eax
    26aa:	0f 4f c1             	cmovg  %ecx,%eax
    26ad:	88 43 05             	mov    %al,0x5(%rbx)
    26b0:	83 fa 06             	cmp    $0x6,%edx
    26b3:	0f 84 4a 01 00 00    	je     2803 <riscv_dsp_spafir_q7+0x9a3>
    26b9:	41 8b 46 18          	mov    0x18(%r14),%eax
    26bd:	b9 80 ff ff ff       	mov    $0xffffff80,%ecx
    26c2:	c1 f8 07             	sar    $0x7,%eax
    26c5:	39 c8                	cmp    %ecx,%eax
    26c7:	0f 4c c1             	cmovl  %ecx,%eax
    26ca:	b9 7f 00 00 00       	mov    $0x7f,%ecx
    26cf:	39 c8                	cmp    %ecx,%eax
    26d1:	0f 4f c1             	cmovg  %ecx,%eax
    26d4:	88 43 06             	mov    %al,0x6(%rbx)
    26d7:	83 fa 07             	cmp    $0x7,%edx
    26da:	0f 84 23 01 00 00    	je     2803 <riscv_dsp_spafir_q7+0x9a3>
    26e0:	41 8b 46 1c          	mov    0x1c(%r14),%eax
    26e4:	b9 80 ff ff ff       	mov    $0xffffff80,%ecx
    26e9:	c1 f8 07             	sar    $0x7,%eax
    26ec:	39 c8                	cmp    %ecx,%eax
    26ee:	0f 4c c1             	cmovl  %ecx,%eax
    26f1:	b9 7f 00 00 00       	mov    $0x7f,%ecx
    26f6:	39 c8                	cmp    %ecx,%eax
    26f8:	0f 4f c1             	cmovg  %ecx,%eax
    26fb:	88 43 07             	mov    %al,0x7(%rbx)
    26fe:	83 fa 08             	cmp    $0x8,%edx
    2701:	0f 84 fc 00 00 00    	je     2803 <riscv_dsp_spafir_q7+0x9a3>
    2707:	41 8b 46 20          	mov    0x20(%r14),%eax
    270b:	b9 80 ff ff ff       	mov    $0xffffff80,%ecx
    2710:	c1 f8 07             	sar    $0x7,%eax
    2713:	39 c8                	cmp    %ecx,%eax
    2715:	0f 4c c1             	cmovl  %ecx,%eax
    2718:	b9 7f 00 00 00       	mov    $0x7f,%ecx
    271d:	39 c8                	cmp    %ecx,%eax
    271f:	0f 4f c1             	cmovg  %ecx,%eax
    2722:	88 43 08             	mov    %al,0x8(%rbx)
    2725:	83 fa 09             	cmp    $0x9,%edx
    2728:	0f 84 d5 00 00 00    	je     2803 <riscv_dsp_spafir_q7+0x9a3>
    272e:	41 8b 46 24          	mov    0x24(%r14),%eax
    2732:	b9 80 ff ff ff       	mov    $0xffffff80,%ecx
    2737:	c1 f8 07             	sar    $0x7,%eax
    273a:	39 c8                	cmp    %ecx,%eax
    273c:	0f 4c c1             	cmovl  %ecx,%eax
    273f:	b9 7f 00 00 00       	mov    $0x7f,%ecx
    2744:	39 c8                	cmp    %ecx,%eax
    2746:	0f 4f c1             	cmovg  %ecx,%eax
    2749:	88 43 09             	mov    %al,0x9(%rbx)
    274c:	83 fa 0a             	cmp    $0xa,%edx
    274f:	0f 84 ae 00 00 00    	je     2803 <riscv_dsp_spafir_q7+0x9a3>
    2755:	41 8b 46 28          	mov    0x28(%r14),%eax
    2759:	b9 80 ff ff ff       	mov    $0xffffff80,%ecx
    275e:	c1 f8 07             	sar    $0x7,%eax
    2761:	39 c8                	cmp    %ecx,%eax
    2763:	0f 4c c1             	cmovl  %ecx,%eax
    2766:	b9 7f 00 00 00       	mov    $0x7f,%ecx
    276b:	39 c8                	cmp    %ecx,%eax
    276d:	0f 4f c1             	cmovg  %ecx,%eax
    2770:	88 43 0a             	mov    %al,0xa(%rbx)
    2773:	83 fa 0b             	cmp    $0xb,%edx
    2776:	0f 84 87 00 00 00    	je     2803 <riscv_dsp_spafir_q7+0x9a3>
    277c:	41 8b 46 2c          	mov    0x2c(%r14),%eax
    2780:	b9 80 ff ff ff       	mov    $0xffffff80,%ecx
    2785:	c1 f8 07             	sar    $0x7,%eax
    2788:	39 c8                	cmp    %ecx,%eax
    278a:	0f 4c c1             	cmovl  %ecx,%eax
    278d:	b9 7f 00 00 00       	mov    $0x7f,%ecx
    2792:	39 c8                	cmp    %ecx,%eax
    2794:	0f 4f c1             	cmovg  %ecx,%eax
    2797:	88 43 0b             	mov    %al,0xb(%rbx)
    279a:	83 fa 0c             	cmp    $0xc,%edx
    279d:	74 64                	je     2803 <riscv_dsp_spafir_q7+0x9a3>
    279f:	41 8b 46 30          	mov    0x30(%r14),%eax
    27a3:	b9 80 ff ff ff       	mov    $0xffffff80,%ecx
    27a8:	c1 f8 07             	sar    $0x7,%eax
    27ab:	39 c8                	cmp    %ecx,%eax
    27ad:	0f 4c c1             	cmovl  %ecx,%eax
    27b0:	b9 7f 00 00 00       	mov    $0x7f,%ecx
    27b5:	39 c8                	cmp    %ecx,%eax
    27b7:	0f 4f c1             	cmovg  %ecx,%eax
    27ba:	88 43 0c             	mov    %al,0xc(%rbx)
    27bd:	83 fa 0d             	cmp    $0xd,%edx
    27c0:	74 41                	je     2803 <riscv_dsp_spafir_q7+0x9a3>
    27c2:	41 8b 46 34          	mov    0x34(%r14),%eax
    27c6:	b9 80 ff ff ff       	mov    $0xffffff80,%ecx
    27cb:	c1 f8 07             	sar    $0x7,%eax
    27ce:	39 c8                	cmp    %ecx,%eax
    27d0:	0f 4c c1             	cmovl  %ecx,%eax
    27d3:	b9 7f 00 00 00       	mov    $0x7f,%ecx
    27d8:	39 c8                	cmp    %ecx,%eax
    27da:	0f 4f c1             	cmovg  %ecx,%eax
    27dd:	88 43 0d             	mov    %al,0xd(%rbx)
    27e0:	83 fa 0e             	cmp    $0xe,%edx
    27e3:	74 1e                	je     2803 <riscv_dsp_spafir_q7+0x9a3>
    27e5:	41 8b 46 38          	mov    0x38(%r14),%eax
    27e9:	ba 80 ff ff ff       	mov    $0xffffff80,%edx
    27ee:	c1 f8 07             	sar    $0x7,%eax
    27f1:	39 d0                	cmp    %edx,%eax
    27f3:	0f 4c c2             	cmovl  %edx,%eax
    27f6:	ba 7f 00 00 00       	mov    $0x7f,%edx
    27fb:	39 d0                	cmp    %edx,%eax
    27fd:	0f 4f c2             	cmovg  %edx,%eax
    2800:	88 43 0e             	mov    %al,0xe(%rbx)
    2803:	5b                   	pop    %rbx
    2804:	5d                   	pop    %rbp
    2805:	41 5c                	pop    %r12
    2807:	41 5d                	pop    %r13
    2809:	41 5e                	pop    %r14
    280b:	41 5f                	pop    %r15
    280d:	c3                   	ret    
    280e:	89 ef                	mov    %ebp,%edi
    2810:	4c 89 d9             	mov    %r11,%rcx
    2813:	4c 89 f0             	mov    %r14,%rax
    2816:	e9 ce fa ff ff       	jmp    22e9 <riscv_dsp_spafir_q7+0x489>
    281b:	41 89 ea             	mov    %ebp,%r10d
    281e:	4c 89 d8             	mov    %r11,%rax
    2821:	4c 89 f7             	mov    %r14,%rdi
    2824:	e9 ec f7 ff ff       	jmp    2015 <riscv_dsp_spafir_q7+0x1b5>
    2829:	89 ea                	mov    %ebp,%edx
    282b:	e9 9c fd ff ff       	jmp    25cc <riscv_dsp_spafir_q7+0x76c>

Disassembly of section .fini:

0000000000002830 <_fini>:
    2830:	f3 0f 1e fa          	endbr64 
    2834:	48 83 ec 08          	sub    $0x8,%rsp
    2838:	48 83 c4 08          	add    $0x8,%rsp
    283c:	c3                   	ret    
