
t_sub_f32:     file format elf64-x86-64


Disassembly of section .init:

0000000000001000 <_init>:
    1000:	f3 0f 1e fa          	endbr64 
    1004:	48 83 ec 08          	sub    $0x8,%rsp
    1008:	48 8b 05 d9 2f 00 00 	mov    0x2fd9(%rip),%rax        # 3fe8 <__gmon_start__@Base>
    100f:	48 85 c0             	test   %rax,%rax
    1012:	74 02                	je     1016 <_init+0x16>
    1014:	ff d0                	call   *%rax
    1016:	48 83 c4 08          	add    $0x8,%rsp
    101a:	c3                   	ret    

Disassembly of section .plt:

0000000000001020 <.plt>:
    1020:	ff 35 5a 2f 00 00    	push   0x2f5a(%rip)        # 3f80 <_GLOBAL_OFFSET_TABLE_+0x8>
    1026:	f2 ff 25 5b 2f 00 00 	bnd jmp *0x2f5b(%rip)        # 3f88 <_GLOBAL_OFFSET_TABLE_+0x10>
    102d:	0f 1f 00             	nopl   (%rax)
    1030:	f3 0f 1e fa          	endbr64 
    1034:	68 00 00 00 00       	push   $0x0
    1039:	f2 e9 e1 ff ff ff    	bnd jmp 1020 <_init+0x20>
    103f:	90                   	nop
    1040:	f3 0f 1e fa          	endbr64 
    1044:	68 01 00 00 00       	push   $0x1
    1049:	f2 e9 d1 ff ff ff    	bnd jmp 1020 <_init+0x20>
    104f:	90                   	nop
    1050:	f3 0f 1e fa          	endbr64 
    1054:	68 02 00 00 00       	push   $0x2
    1059:	f2 e9 c1 ff ff ff    	bnd jmp 1020 <_init+0x20>
    105f:	90                   	nop
    1060:	f3 0f 1e fa          	endbr64 
    1064:	68 03 00 00 00       	push   $0x3
    1069:	f2 e9 b1 ff ff ff    	bnd jmp 1020 <_init+0x20>
    106f:	90                   	nop
    1070:	f3 0f 1e fa          	endbr64 
    1074:	68 04 00 00 00       	push   $0x4
    1079:	f2 e9 a1 ff ff ff    	bnd jmp 1020 <_init+0x20>
    107f:	90                   	nop
    1080:	f3 0f 1e fa          	endbr64 
    1084:	68 05 00 00 00       	push   $0x5
    1089:	f2 e9 91 ff ff ff    	bnd jmp 1020 <_init+0x20>
    108f:	90                   	nop
    1090:	f3 0f 1e fa          	endbr64 
    1094:	68 06 00 00 00       	push   $0x6
    1099:	f2 e9 81 ff ff ff    	bnd jmp 1020 <_init+0x20>
    109f:	90                   	nop
    10a0:	f3 0f 1e fa          	endbr64 
    10a4:	68 07 00 00 00       	push   $0x7
    10a9:	f2 e9 71 ff ff ff    	bnd jmp 1020 <_init+0x20>
    10af:	90                   	nop
    10b0:	f3 0f 1e fa          	endbr64 
    10b4:	68 08 00 00 00       	push   $0x8
    10b9:	f2 e9 61 ff ff ff    	bnd jmp 1020 <_init+0x20>
    10bf:	90                   	nop

Disassembly of section .plt.got:

00000000000010c0 <__cxa_finalize@plt>:
    10c0:	f3 0f 1e fa          	endbr64 
    10c4:	f2 ff 25 2d 2f 00 00 	bnd jmp *0x2f2d(%rip)        # 3ff8 <__cxa_finalize@GLIBC_2.2.5>
    10cb:	0f 1f 44 00 00       	nopl   0x0(%rax,%rax,1)

Disassembly of section .plt.sec:

00000000000010d0 <puts@plt>:
    10d0:	f3 0f 1e fa          	endbr64 
    10d4:	f2 ff 25 b5 2e 00 00 	bnd jmp *0x2eb5(%rip)        # 3f90 <puts@GLIBC_2.2.5>
    10db:	0f 1f 44 00 00       	nopl   0x0(%rax,%rax,1)

00000000000010e0 <fread@plt>:
    10e0:	f3 0f 1e fa          	endbr64 
    10e4:	f2 ff 25 ad 2e 00 00 	bnd jmp *0x2ead(%rip)        # 3f98 <fread@GLIBC_2.2.5>
    10eb:	0f 1f 44 00 00       	nopl   0x0(%rax,%rax,1)

00000000000010f0 <fclose@plt>:
    10f0:	f3 0f 1e fa          	endbr64 
    10f4:	f2 ff 25 a5 2e 00 00 	bnd jmp *0x2ea5(%rip)        # 3fa0 <fclose@GLIBC_2.2.5>
    10fb:	0f 1f 44 00 00       	nopl   0x0(%rax,%rax,1)

0000000000001100 <__stack_chk_fail@plt>:
    1100:	f3 0f 1e fa          	endbr64 
    1104:	f2 ff 25 9d 2e 00 00 	bnd jmp *0x2e9d(%rip)        # 3fa8 <__stack_chk_fail@GLIBC_2.4>
    110b:	0f 1f 44 00 00       	nopl   0x0(%rax,%rax,1)

0000000000001110 <log10f@plt>:
    1110:	f3 0f 1e fa          	endbr64 
    1114:	f2 ff 25 95 2e 00 00 	bnd jmp *0x2e95(%rip)        # 3fb0 <log10f@GLIBC_2.2.5>
    111b:	0f 1f 44 00 00       	nopl   0x0(%rax,%rax,1)

0000000000001120 <__printf_chk@plt>:
    1120:	f3 0f 1e fa          	endbr64 
    1124:	f2 ff 25 8d 2e 00 00 	bnd jmp *0x2e8d(%rip)        # 3fb8 <__printf_chk@GLIBC_2.3.4>
    112b:	0f 1f 44 00 00       	nopl   0x0(%rax,%rax,1)

0000000000001130 <fopen@plt>:
    1130:	f3 0f 1e fa          	endbr64 
    1134:	f2 ff 25 85 2e 00 00 	bnd jmp *0x2e85(%rip)        # 3fc0 <fopen@GLIBC_2.2.5>
    113b:	0f 1f 44 00 00       	nopl   0x0(%rax,%rax,1)

0000000000001140 <sqrt@plt>:
    1140:	f3 0f 1e fa          	endbr64 
    1144:	f2 ff 25 7d 2e 00 00 	bnd jmp *0x2e7d(%rip)        # 3fc8 <sqrt@GLIBC_2.2.5>
    114b:	0f 1f 44 00 00       	nopl   0x0(%rax,%rax,1)

0000000000001150 <__sprintf_chk@plt>:
    1150:	f3 0f 1e fa          	endbr64 
    1154:	f2 ff 25 75 2e 00 00 	bnd jmp *0x2e75(%rip)        # 3fd0 <__sprintf_chk@GLIBC_2.3.4>
    115b:	0f 1f 44 00 00       	nopl   0x0(%rax,%rax,1)

Disassembly of section .text:

0000000000001160 <main>:
    1160:	f3 0f 1e fa          	endbr64 
    1164:	55                   	push   %rbp
    1165:	48 89 e5             	mov    %rsp,%rbp
    1168:	41 57                	push   %r15
    116a:	41 56                	push   %r14
    116c:	41 55                	push   %r13
    116e:	41 54                	push   %r12
    1170:	53                   	push   %rbx
    1171:	48 81 ec 38 02 00 00 	sub    $0x238,%rsp
    1178:	64 48 8b 04 25 28 00 	mov    %fs:0x28,%rax
    117f:	00 00 
    1181:	48 89 45 c8          	mov    %rax,-0x38(%rbp)
    1185:	31 c0                	xor    %eax,%eax
    1187:	48 8d 84 24 00 00 fc 	lea    -0x40000(%rsp),%rax
    118e:	ff 
    118f:	48 39 c4             	cmp    %rax,%rsp
    1192:	74 15                	je     11a9 <main+0x49>
    1194:	48 81 ec 00 10 00 00 	sub    $0x1000,%rsp
    119b:	48 83 8c 24 f8 0f 00 	orq    $0x0,0xff8(%rsp)
    11a2:	00 00 
    11a4:	48 39 c4             	cmp    %rax,%rsp
    11a7:	75 eb                	jne    1194 <main+0x34>
    11a9:	49 89 e6             	mov    %rsp,%r14
    11ac:	48 8d 84 24 00 00 fc 	lea    -0x40000(%rsp),%rax
    11b3:	ff 
    11b4:	48 39 c4             	cmp    %rax,%rsp
    11b7:	74 12                	je     11cb <main+0x6b>
    11b9:	48 81 ec 00 10 00 00 	sub    $0x1000,%rsp
    11c0:	48 83 8c 24 f8 0f 00 	orq    $0x0,0xff8(%rsp)
    11c7:	00 00 
    11c9:	eb e9                	jmp    11b4 <main+0x54>
    11cb:	48 89 a5 b8 fd ff ff 	mov    %rsp,-0x248(%rbp)
    11d2:	48 8d 84 24 00 00 fc 	lea    -0x40000(%rsp),%rax
    11d9:	ff 
    11da:	48 39 c4             	cmp    %rax,%rsp
    11dd:	74 12                	je     11f1 <main+0x91>
    11df:	48 81 ec 00 10 00 00 	sub    $0x1000,%rsp
    11e6:	48 83 8c 24 f8 0f 00 	orq    $0x0,0xff8(%rsp)
    11ed:	00 00 
    11ef:	eb e9                	jmp    11da <main+0x7a>
    11f1:	48 89 e3             	mov    %rsp,%rbx
    11f4:	48 8d 84 24 00 00 fc 	lea    -0x40000(%rsp),%rax
    11fb:	ff 
    11fc:	48 39 c4             	cmp    %rax,%rsp
    11ff:	74 12                	je     1213 <main+0xb3>
    1201:	48 81 ec 00 10 00 00 	sub    $0x1000,%rsp
    1208:	48 83 8c 24 f8 0f 00 	orq    $0x0,0xff8(%rsp)
    120f:	00 00 
    1211:	eb e9                	jmp    11fc <main+0x9c>
    1213:	4c 8d 05 ee 0d 00 00 	lea    0xdee(%rip),%r8        # 2008 <_IO_stdin_used+0x8>
    121a:	ba 00 02 00 00       	mov    $0x200,%edx
    121f:	31 c0                	xor    %eax,%eax
    1221:	48 8d 0d 7a 0e 00 00 	lea    0xe7a(%rip),%rcx        # 20a2 <_IO_stdin_used+0xa2>
    1228:	be 01 00 00 00       	mov    $0x1,%esi
    122d:	4c 8d a5 c0 fd ff ff 	lea    -0x240(%rbp),%r12
    1234:	49 89 e7             	mov    %rsp,%r15
    1237:	4c 89 e7             	mov    %r12,%rdi
    123a:	e8 11 ff ff ff       	call   1150 <__sprintf_chk@plt>
    123f:	48 8d 35 6f 0e 00 00 	lea    0xe6f(%rip),%rsi        # 20b5 <_IO_stdin_used+0xb5>
    1246:	4c 89 e7             	mov    %r12,%rdi
    1249:	e8 e2 fe ff ff       	call   1130 <fopen@plt>
    124e:	48 89 85 b0 fd ff ff 	mov    %rax,-0x250(%rbp)
    1255:	48 85 c0             	test   %rax,%rax
    1258:	0f 84 13 03 00 00    	je     1571 <main+0x411>
    125e:	ba 00 02 00 00       	mov    $0x200,%edx
    1263:	4c 89 e7             	mov    %r12,%rdi
    1266:	be 01 00 00 00       	mov    $0x1,%esi
    126b:	31 c0                	xor    %eax,%eax
    126d:	4c 8d 05 94 0d 00 00 	lea    0xd94(%rip),%r8        # 2008 <_IO_stdin_used+0x8>
    1274:	48 8d 0d 3c 0e 00 00 	lea    0xe3c(%rip),%rcx        # 20b7 <_IO_stdin_used+0xb7>
    127b:	e8 d0 fe ff ff       	call   1150 <__sprintf_chk@plt>
    1280:	4c 89 e7             	mov    %r12,%rdi
    1283:	48 8d 35 2b 0e 00 00 	lea    0xe2b(%rip),%rsi        # 20b5 <_IO_stdin_used+0xb5>
    128a:	e8 a1 fe ff ff       	call   1130 <fopen@plt>
    128f:	4c 89 e7             	mov    %r12,%rdi
    1292:	ba 00 02 00 00       	mov    $0x200,%edx
    1297:	4c 8d 05 6a 0d 00 00 	lea    0xd6a(%rip),%r8        # 2008 <_IO_stdin_used+0x8>
    129e:	48 8d 0d 25 0e 00 00 	lea    0xe25(%rip),%rcx        # 20ca <_IO_stdin_used+0xca>
    12a5:	be 01 00 00 00       	mov    $0x1,%esi
    12aa:	49 89 c5             	mov    %rax,%r13
    12ad:	31 c0                	xor    %eax,%eax
    12af:	e8 9c fe ff ff       	call   1150 <__sprintf_chk@plt>
    12b4:	4c 89 e7             	mov    %r12,%rdi
    12b7:	48 8d 35 f7 0d 00 00 	lea    0xdf7(%rip),%rsi        # 20b5 <_IO_stdin_used+0xb5>
    12be:	e8 6d fe ff ff       	call   1130 <fopen@plt>
    12c3:	49 89 c4             	mov    %rax,%r12
    12c6:	48 85 c0             	test   %rax,%rax
    12c9:	0f 84 a2 02 00 00    	je     1571 <main+0x411>
    12cf:	48 8b b5 b0 fd ff ff 	mov    -0x250(%rbp),%rsi
    12d6:	4c 89 f7             	mov    %r14,%rdi
    12d9:	e8 c2 03 00 00       	call   16a0 <test_Fread.constprop.0.isra.0>
    12de:	48 8b bd b8 fd ff ff 	mov    -0x248(%rbp),%rdi
    12e5:	4c 89 ee             	mov    %r13,%rsi
    12e8:	e8 b3 03 00 00       	call   16a0 <test_Fread.constprop.0.isra.0>
    12ed:	4c 89 e6             	mov    %r12,%rsi
    12f0:	4c 89 ff             	mov    %r15,%rdi
    12f3:	e8 a8 03 00 00       	call   16a0 <test_Fread.constprop.0.isra.0>
    12f8:	b9 00 00 01 00       	mov    $0x10000,%ecx
    12fd:	48 89 da             	mov    %rbx,%rdx
    1300:	4c 89 f7             	mov    %r14,%rdi
    1303:	48 8b b5 b8 fd ff ff 	mov    -0x248(%rbp),%rsi
    130a:	e8 b1 03 00 00       	call   16c0 <riscv_dsp_sub_f32>
    130f:	66 0f ef ed          	pxor   %xmm5,%xmm5
    1313:	31 c0                	xor    %eax,%eax
    1315:	f3 0f 10 35 03 0e 00 	movss  0xe03(%rip),%xmm6        # 2120 <_IO_stdin_used+0x120>
    131c:	00 
    131d:	0f 28 c5             	movaps %xmm5,%xmm0
    1320:	f3 0f 10 0c 03       	movss  (%rbx,%rax,1),%xmm1
    1325:	f3 41 0f 5c 0c 07    	subss  (%r15,%rax,1),%xmm1
    132b:	48 83 c0 04          	add    $0x4,%rax
    132f:	0f 54 ce             	andps  %xmm6,%xmm1
    1332:	f3 0f 5f c8          	maxss  %xmm0,%xmm1
    1336:	0f 28 c1             	movaps %xmm1,%xmm0
    1339:	48 3d 00 00 04 00    	cmp    $0x40000,%rax
    133f:	75 df                	jne    1320 <main+0x1c0>
    1341:	48 8d 35 98 0d 00 00 	lea    0xd98(%rip),%rsi        # 20e0 <_IO_stdin_used+0xe0>
    1348:	bf 01 00 00 00       	mov    $0x1,%edi
    134d:	66 0f ef c0          	pxor   %xmm0,%xmm0
    1351:	b8 01 00 00 00       	mov    $0x1,%eax
    1356:	f3 0f 5a c1          	cvtss2sd %xmm1,%xmm0
    135a:	e8 c1 fd ff ff       	call   1120 <__printf_chk@plt>
    135f:	48 8b bd b0 fd ff ff 	mov    -0x250(%rbp),%rdi
    1366:	e8 85 fd ff ff       	call   10f0 <fclose@plt>
    136b:	4c 89 e7             	mov    %r12,%rdi
    136e:	e8 7d fd ff ff       	call   10f0 <fclose@plt>
    1373:	4c 89 ef             	mov    %r13,%rdi
    1376:	e8 75 fd ff ff       	call   10f0 <fclose@plt>
    137b:	66 0f ef ed          	pxor   %xmm5,%xmm5
    137f:	66 45 0f ef c9       	pxor   %xmm9,%xmm9
    1384:	31 c0                	xor    %eax,%eax
    1386:	66 41 0f 28 f9       	movapd %xmm9,%xmm7
    138b:	0f 28 dd             	movaps %xmm5,%xmm3
    138e:	0f 28 c5             	movaps %xmm5,%xmm0
    1391:	44 0f 28 d5          	movaps %xmm5,%xmm10
    1395:	44 0f 28 c5          	movaps %xmm5,%xmm8
    1399:	f3 0f 10 35 7f 0d 00 	movss  0xd7f(%rip),%xmm6        # 2120 <_IO_stdin_used+0x120>
    13a0:	00 
    13a1:	0f 1f 80 00 00 00 00 	nopl   0x0(%rax)
    13a8:	f3 0f 10 0c 03       	movss  (%rbx,%rax,1),%xmm1
    13ad:	f3 41 0f 10 14 07    	movss  (%r15,%rax,1),%xmm2
    13b3:	66 0f 7e ca          	movd   %xmm1,%edx
    13b7:	81 fa 00 00 c0 7f    	cmp    $0x7fc00000,%edx
    13bd:	0f 84 ae 01 00 00    	je     1571 <main+0x411>
    13c3:	0f 28 e2             	movaps %xmm2,%xmm4
    13c6:	f3 0f 5c ca          	subss  %xmm2,%xmm1
    13ca:	48 83 c0 04          	add    $0x4,%rax
    13ce:	f3 41 0f 5f e0       	maxss  %xmm8,%xmm4
    13d3:	44 0f 28 c4          	movaps %xmm4,%xmm8
    13d7:	0f 28 e2             	movaps %xmm2,%xmm4
    13da:	f3 41 0f 5d e2       	minss  %xmm10,%xmm4
    13df:	f3 0f 59 d2          	mulss  %xmm2,%xmm2
    13e3:	44 0f 28 d4          	movaps %xmm4,%xmm10
    13e7:	0f 28 e1             	movaps %xmm1,%xmm4
    13ea:	f3 0f 59 c9          	mulss  %xmm1,%xmm1
    13ee:	0f 54 e6             	andps  %xmm6,%xmm4
    13f1:	f3 0f 58 c4          	addss  %xmm4,%xmm0
    13f5:	f3 0f 5f e3          	maxss  %xmm3,%xmm4
    13f9:	f3 0f 5a d2          	cvtss2sd %xmm2,%xmm2
    13fd:	f2 44 0f 58 ca       	addsd  %xmm2,%xmm9
    1402:	0f 28 dc             	movaps %xmm4,%xmm3
    1405:	f3 0f 5a c9          	cvtss2sd %xmm1,%xmm1
    1409:	f2 0f 58 f9          	addsd  %xmm1,%xmm7
    140d:	48 3d 00 00 04 00    	cmp    $0x40000,%rax
    1413:	75 93                	jne    13a8 <main+0x248>
    1415:	66 48 0f 7e f8       	movq   %xmm7,%rax
    141a:	f3 0f 11 a5 a8 fd ff 	movss  %xmm4,-0x258(%rbp)
    1421:	ff 
    1422:	f3 44 0f 11 95 ac fd 	movss  %xmm10,-0x254(%rbp)
    1429:	ff ff 
    142b:	f3 44 0f 11 85 b0 fd 	movss  %xmm8,-0x250(%rbp)
    1432:	ff ff 
    1434:	f2 44 0f 11 8d b8 fd 	movsd  %xmm9,-0x248(%rbp)
    143b:	ff ff 
    143d:	3d 00 00 c0 7f       	cmp    $0x7fc00000,%eax
    1442:	0f 84 29 01 00 00    	je     1571 <main+0x411>
    1448:	f3 0f 59 05 bc 0c 00 	mulss  0xcbc(%rip),%xmm0        # 210c <_IO_stdin_used+0x10c>
    144f:	00 
    1450:	f2 0f 11 bd a0 fd ff 	movsd  %xmm7,-0x260(%rbp)
    1457:	ff 
    1458:	66 41 0f 7e c5       	movd   %xmm0,%r13d
    145d:	66 0f 28 c7          	movapd %xmm7,%xmm0
    1461:	f2 0f 59 05 c7 0c 00 	mulsd  0xcc7(%rip),%xmm0        # 2130 <_IO_stdin_used+0x130>
    1468:	00 
    1469:	e8 d2 fc ff ff       	call   1140 <sqrt@plt>
    146e:	66 0f ef ed          	pxor   %xmm5,%xmm5
    1472:	f3 44 0f 10 85 b0 fd 	movss  -0x250(%rbp),%xmm8
    1479:	ff ff 
    147b:	f3 44 0f 10 95 ac fd 	movss  -0x254(%rbp),%xmm10
    1482:	ff ff 
    1484:	f2 0f 5a e8          	cvtsd2ss %xmm0,%xmm5
    1488:	66 0f 7e eb          	movd   %xmm5,%ebx
    148c:	f2 0f 10 bd a0 fd ff 	movsd  -0x260(%rbp),%xmm7
    1493:	ff 
    1494:	f2 44 0f 10 8d b8 fd 	movsd  -0x248(%rbp),%xmm9
    149b:	ff ff 
    149d:	f3 45 0f 5c c2       	subss  %xmm10,%xmm8
    14a2:	f3 0f 10 9d a8 fd ff 	movss  -0x258(%rbp),%xmm3
    14a9:	ff 
    14aa:	f3 41 0f 5e e8       	divss  %xmm8,%xmm5
    14af:	66 41 0f 7e ec       	movd   %xmm5,%r12d
    14b4:	66 0f ef ed          	pxor   %xmm5,%xmm5
    14b8:	66 0f 2e fd          	ucomisd %xmm5,%xmm7
    14bc:	0f 8a b4 00 00 00    	jp     1576 <main+0x416>
    14c2:	44 8b 35 3f 0c 00 00 	mov    0xc3f(%rip),%r14d        # 2108 <_IO_stdin_used+0x108>
    14c9:	0f 85 a7 00 00 00    	jne    1576 <main+0x416>
    14cf:	48 8d 3d 1d 0c 00 00 	lea    0xc1d(%rip),%rdi        # 20f3 <_IO_stdin_used+0xf3>
    14d6:	f3 0f 11 9d b8 fd ff 	movss  %xmm3,-0x248(%rbp)
    14dd:	ff 
    14de:	e8 ed fb ff ff       	call   10d0 <puts@plt>
    14e3:	66 41 0f 6e fd       	movd   %r13d,%xmm7
    14e8:	66 41 0f 6e ee       	movd   %r14d,%xmm5
    14ed:	f3 0f 10 9d b8 fd ff 	movss  -0x248(%rbp),%xmm3
    14f4:	ff 
    14f5:	66 0f ef c0          	pxor   %xmm0,%xmm0
    14f9:	66 0f ef e4          	pxor   %xmm4,%xmm4
    14fd:	66 0f ef d2          	pxor   %xmm2,%xmm2
    1501:	bf 01 00 00 00       	mov    $0x1,%edi
    1506:	f3 0f 5a c7          	cvtss2sd %xmm7,%xmm0
    150a:	f3 0f 5a e5          	cvtss2sd %xmm5,%xmm4
    150e:	66 0f ef c9          	pxor   %xmm1,%xmm1
    1512:	66 41 0f 6e fc       	movd   %r12d,%xmm7
    1517:	66 0f 6e eb          	movd   %ebx,%xmm5
    151b:	48 8d 35 2e 0b 00 00 	lea    0xb2e(%rip),%rsi        # 2050 <_IO_stdin_used+0x50>
    1522:	f3 0f 5a d7          	cvtss2sd %xmm7,%xmm2
    1526:	f3 0f 5a db          	cvtss2sd %xmm3,%xmm3
    152a:	b8 05 00 00 00       	mov    $0x5,%eax
    152f:	f3 0f 5a cd          	cvtss2sd %xmm5,%xmm1
    1533:	e8 e8 fb ff ff       	call   1120 <__printf_chk@plt>
    1538:	66 41 0f 6e fc       	movd   %r12d,%xmm7
    153d:	66 0f ef ed          	pxor   %xmm5,%xmm5
    1541:	31 c0                	xor    %eax,%eax
    1543:	0f 2e fd             	ucomiss %xmm5,%xmm7
    1546:	ba 01 00 00 00       	mov    $0x1,%edx
    154b:	0f 9a c0             	setp   %al
    154e:	0f 45 c2             	cmovne %edx,%eax
    1551:	f7 d8                	neg    %eax
    1553:	48 8b 55 c8          	mov    -0x38(%rbp),%rdx
    1557:	64 48 2b 14 25 28 00 	sub    %fs:0x28,%rdx
    155e:	00 00 
    1560:	75 49                	jne    15ab <main+0x44b>
    1562:	48 8d 65 d8          	lea    -0x28(%rbp),%rsp
    1566:	5b                   	pop    %rbx
    1567:	41 5c                	pop    %r12
    1569:	41 5d                	pop    %r13
    156b:	41 5e                	pop    %r14
    156d:	41 5f                	pop    %r15
    156f:	5d                   	pop    %rbp
    1570:	c3                   	ret    
    1571:	83 c8 ff             	or     $0xffffffff,%eax
    1574:	eb dd                	jmp    1553 <main+0x3f3>
    1576:	f2 44 0f 5e cf       	divsd  %xmm7,%xmm9
    157b:	66 0f ef c0          	pxor   %xmm0,%xmm0
    157f:	f3 0f 11 9d b8 fd ff 	movss  %xmm3,-0x248(%rbp)
    1586:	ff 
    1587:	f2 41 0f 5a c1       	cvtsd2ss %xmm9,%xmm0
    158c:	e8 7f fb ff ff       	call   1110 <log10f@plt>
    1591:	f3 0f 59 05 77 0b 00 	mulss  0xb77(%rip),%xmm0        # 2110 <_IO_stdin_used+0x110>
    1598:	00 
    1599:	f3 0f 10 9d b8 fd ff 	movss  -0x248(%rbp),%xmm3
    15a0:	ff 
    15a1:	66 41 0f 7e c6       	movd   %xmm0,%r14d
    15a6:	e9 24 ff ff ff       	jmp    14cf <main+0x36f>
    15ab:	e8 50 fb ff ff       	call   1100 <__stack_chk_fail@plt>

00000000000015b0 <_start>:
    15b0:	f3 0f 1e fa          	endbr64 
    15b4:	31 ed                	xor    %ebp,%ebp
    15b6:	49 89 d1             	mov    %rdx,%r9
    15b9:	5e                   	pop    %rsi
    15ba:	48 89 e2             	mov    %rsp,%rdx
    15bd:	48 83 e4 f0          	and    $0xfffffffffffffff0,%rsp
    15c1:	50                   	push   %rax
    15c2:	54                   	push   %rsp
    15c3:	45 31 c0             	xor    %r8d,%r8d
    15c6:	31 c9                	xor    %ecx,%ecx
    15c8:	48 8d 3d 91 fb ff ff 	lea    -0x46f(%rip),%rdi        # 1160 <main>
    15cf:	ff 15 03 2a 00 00    	call   *0x2a03(%rip)        # 3fd8 <__libc_start_main@GLIBC_2.34>
    15d5:	f4                   	hlt    
    15d6:	66 2e 0f 1f 84 00 00 	cs nopw 0x0(%rax,%rax,1)
    15dd:	00 00 00 

00000000000015e0 <deregister_tm_clones>:
    15e0:	48 8d 3d 29 2a 00 00 	lea    0x2a29(%rip),%rdi        # 4010 <__TMC_END__>
    15e7:	48 8d 05 22 2a 00 00 	lea    0x2a22(%rip),%rax        # 4010 <__TMC_END__>
    15ee:	48 39 f8             	cmp    %rdi,%rax
    15f1:	74 15                	je     1608 <deregister_tm_clones+0x28>
    15f3:	48 8b 05 e6 29 00 00 	mov    0x29e6(%rip),%rax        # 3fe0 <_ITM_deregisterTMCloneTable@Base>
    15fa:	48 85 c0             	test   %rax,%rax
    15fd:	74 09                	je     1608 <deregister_tm_clones+0x28>
    15ff:	ff e0                	jmp    *%rax
    1601:	0f 1f 80 00 00 00 00 	nopl   0x0(%rax)
    1608:	c3                   	ret    
    1609:	0f 1f 80 00 00 00 00 	nopl   0x0(%rax)

0000000000001610 <register_tm_clones>:
    1610:	48 8d 3d f9 29 00 00 	lea    0x29f9(%rip),%rdi        # 4010 <__TMC_END__>
    1617:	48 8d 35 f2 29 00 00 	lea    0x29f2(%rip),%rsi        # 4010 <__TMC_END__>
    161e:	48 29 fe             	sub    %rdi,%rsi
    1621:	48 89 f0             	mov    %rsi,%rax
    1624:	48 c1 ee 3f          	shr    $0x3f,%rsi
    1628:	48 c1 f8 03          	sar    $0x3,%rax
    162c:	48 01 c6             	add    %rax,%rsi
    162f:	48 d1 fe             	sar    %rsi
    1632:	74 14                	je     1648 <register_tm_clones+0x38>
    1634:	48 8b 05 b5 29 00 00 	mov    0x29b5(%rip),%rax        # 3ff0 <_ITM_registerTMCloneTable@Base>
    163b:	48 85 c0             	test   %rax,%rax
    163e:	74 08                	je     1648 <register_tm_clones+0x38>
    1640:	ff e0                	jmp    *%rax
    1642:	66 0f 1f 44 00 00    	nopw   0x0(%rax,%rax,1)
    1648:	c3                   	ret    
    1649:	0f 1f 80 00 00 00 00 	nopl   0x0(%rax)

0000000000001650 <__do_global_dtors_aux>:
    1650:	f3 0f 1e fa          	endbr64 
    1654:	80 3d b5 29 00 00 00 	cmpb   $0x0,0x29b5(%rip)        # 4010 <__TMC_END__>
    165b:	75 2b                	jne    1688 <__do_global_dtors_aux+0x38>
    165d:	55                   	push   %rbp
    165e:	48 83 3d 92 29 00 00 	cmpq   $0x0,0x2992(%rip)        # 3ff8 <__cxa_finalize@GLIBC_2.2.5>
    1665:	00 
    1666:	48 89 e5             	mov    %rsp,%rbp
    1669:	74 0c                	je     1677 <__do_global_dtors_aux+0x27>
    166b:	48 8b 3d 96 29 00 00 	mov    0x2996(%rip),%rdi        # 4008 <__dso_handle>
    1672:	e8 49 fa ff ff       	call   10c0 <__cxa_finalize@plt>
    1677:	e8 64 ff ff ff       	call   15e0 <deregister_tm_clones>
    167c:	c6 05 8d 29 00 00 01 	movb   $0x1,0x298d(%rip)        # 4010 <__TMC_END__>
    1683:	5d                   	pop    %rbp
    1684:	c3                   	ret    
    1685:	0f 1f 00             	nopl   (%rax)
    1688:	c3                   	ret    
    1689:	0f 1f 80 00 00 00 00 	nopl   0x0(%rax)

0000000000001690 <frame_dummy>:
    1690:	f3 0f 1e fa          	endbr64 
    1694:	e9 77 ff ff ff       	jmp    1610 <register_tm_clones>
    1699:	0f 1f 80 00 00 00 00 	nopl   0x0(%rax)

00000000000016a0 <test_Fread.constprop.0.isra.0>:
    16a0:	48 89 f1             	mov    %rsi,%rcx
    16a3:	ba 00 00 01 00       	mov    $0x10000,%edx
    16a8:	be 04 00 00 00       	mov    $0x4,%esi
    16ad:	e9 2e fa ff ff       	jmp    10e0 <fread@plt>
    16b2:	66 2e 0f 1f 84 00 00 	cs nopw 0x0(%rax,%rax,1)
    16b9:	00 00 00 
    16bc:	0f 1f 40 00          	nopl   0x0(%rax)

00000000000016c0 <riscv_dsp_sub_f32>:
    16c0:	f3 0f 1e fa          	endbr64 
    16c4:	85 c9                	test   %ecx,%ecx
    16c6:	0f 84 94 00 00 00    	je     1760 <riscv_dsp_sub_f32+0xa0>
    16cc:	8d 41 ff             	lea    -0x1(%rcx),%eax
    16cf:	83 f8 02             	cmp    $0x2,%eax
    16d2:	0f 86 91 00 00 00    	jbe    1769 <riscv_dsp_sub_f32+0xa9>
    16d8:	41 89 c8             	mov    %ecx,%r8d
    16db:	31 c0                	xor    %eax,%eax
    16dd:	41 c1 e8 02          	shr    $0x2,%r8d
    16e1:	49 c1 e0 04          	shl    $0x4,%r8
    16e5:	0f 1f 00             	nopl   (%rax)
    16e8:	0f 10 04 07          	movups (%rdi,%rax,1),%xmm0
    16ec:	0f 10 14 06          	movups (%rsi,%rax,1),%xmm2
    16f0:	0f 5c c2             	subps  %xmm2,%xmm0
    16f3:	0f 11 04 02          	movups %xmm0,(%rdx,%rax,1)
    16f7:	48 83 c0 10          	add    $0x10,%rax
    16fb:	4c 39 c0             	cmp    %r8,%rax
    16fe:	75 e8                	jne    16e8 <riscv_dsp_sub_f32+0x28>
    1700:	41 89 c8             	mov    %ecx,%r8d
    1703:	41 83 e0 fc          	and    $0xfffffffc,%r8d
    1707:	44 89 c0             	mov    %r8d,%eax
    170a:	48 c1 e0 02          	shl    $0x2,%rax
    170e:	4c 8d 14 07          	lea    (%rdi,%rax,1),%r10
    1712:	4c 8d 0c 06          	lea    (%rsi,%rax,1),%r9
    1716:	48 01 d0             	add    %rdx,%rax
    1719:	44 39 c1             	cmp    %r8d,%ecx
    171c:	74 4a                	je     1768 <riscv_dsp_sub_f32+0xa8>
    171e:	44 29 c1             	sub    %r8d,%ecx
    1721:	83 f9 01             	cmp    $0x1,%ecx
    1724:	74 2c                	je     1752 <riscv_dsp_sub_f32+0x92>
    1726:	f3 42 0f 7e 0c 86    	movq   (%rsi,%r8,4),%xmm1
    172c:	f3 42 0f 7e 04 87    	movq   (%rdi,%r8,4),%xmm0
    1732:	89 ce                	mov    %ecx,%esi
    1734:	83 e6 fe             	and    $0xfffffffe,%esi
    1737:	0f 5c c1             	subps  %xmm1,%xmm0
    173a:	42 0f 13 04 82       	movlps %xmm0,(%rdx,%r8,4)
    173f:	89 f2                	mov    %esi,%edx
    1741:	48 c1 e2 02          	shl    $0x2,%rdx
    1745:	49 01 d2             	add    %rdx,%r10
    1748:	49 01 d1             	add    %rdx,%r9
    174b:	48 01 d0             	add    %rdx,%rax
    174e:	39 f1                	cmp    %esi,%ecx
    1750:	74 0e                	je     1760 <riscv_dsp_sub_f32+0xa0>
    1752:	f3 41 0f 10 02       	movss  (%r10),%xmm0
    1757:	f3 41 0f 5c 01       	subss  (%r9),%xmm0
    175c:	f3 0f 11 00          	movss  %xmm0,(%rax)
    1760:	c3                   	ret    
    1761:	0f 1f 80 00 00 00 00 	nopl   0x0(%rax)
    1768:	c3                   	ret    
    1769:	48 89 d0             	mov    %rdx,%rax
    176c:	49 89 f1             	mov    %rsi,%r9
    176f:	49 89 fa             	mov    %rdi,%r10
    1772:	45 31 c0             	xor    %r8d,%r8d
    1775:	eb a7                	jmp    171e <riscv_dsp_sub_f32+0x5e>

Disassembly of section .fini:

0000000000001778 <_fini>:
    1778:	f3 0f 1e fa          	endbr64 
    177c:	48 83 ec 08          	sub    $0x8,%rsp
    1780:	48 83 c4 08          	add    $0x8,%rsp
    1784:	c3                   	ret    
