
t_sub_q31:     file format elf64-x86-64


Disassembly of section .init:

0000000000001000 <_init>:
    1000:	f3 0f 1e fa          	endbr64 
    1004:	48 83 ec 08          	sub    $0x8,%rsp
    1008:	48 8b 05 d9 2f 00 00 	mov    0x2fd9(%rip),%rax        # 3fe8 <__gmon_start__@Base>
    100f:	48 85 c0             	test   %rax,%rax
    1012:	74 02                	je     1016 <_init+0x16>
    1014:	ff d0                	call   *%rax
    1016:	48 83 c4 08          	add    $0x8,%rsp
    101a:	c3                   	ret    

Disassembly of section .plt:

0000000000001020 <.plt>:
    1020:	ff 35 5a 2f 00 00    	push   0x2f5a(%rip)        # 3f80 <_GLOBAL_OFFSET_TABLE_+0x8>
    1026:	f2 ff 25 5b 2f 00 00 	bnd jmp *0x2f5b(%rip)        # 3f88 <_GLOBAL_OFFSET_TABLE_+0x10>
    102d:	0f 1f 00             	nopl   (%rax)
    1030:	f3 0f 1e fa          	endbr64 
    1034:	68 00 00 00 00       	push   $0x0
    1039:	f2 e9 e1 ff ff ff    	bnd jmp 1020 <_init+0x20>
    103f:	90                   	nop
    1040:	f3 0f 1e fa          	endbr64 
    1044:	68 01 00 00 00       	push   $0x1
    1049:	f2 e9 d1 ff ff ff    	bnd jmp 1020 <_init+0x20>
    104f:	90                   	nop
    1050:	f3 0f 1e fa          	endbr64 
    1054:	68 02 00 00 00       	push   $0x2
    1059:	f2 e9 c1 ff ff ff    	bnd jmp 1020 <_init+0x20>
    105f:	90                   	nop
    1060:	f3 0f 1e fa          	endbr64 
    1064:	68 03 00 00 00       	push   $0x3
    1069:	f2 e9 b1 ff ff ff    	bnd jmp 1020 <_init+0x20>
    106f:	90                   	nop
    1070:	f3 0f 1e fa          	endbr64 
    1074:	68 04 00 00 00       	push   $0x4
    1079:	f2 e9 a1 ff ff ff    	bnd jmp 1020 <_init+0x20>
    107f:	90                   	nop
    1080:	f3 0f 1e fa          	endbr64 
    1084:	68 05 00 00 00       	push   $0x5
    1089:	f2 e9 91 ff ff ff    	bnd jmp 1020 <_init+0x20>
    108f:	90                   	nop
    1090:	f3 0f 1e fa          	endbr64 
    1094:	68 06 00 00 00       	push   $0x6
    1099:	f2 e9 81 ff ff ff    	bnd jmp 1020 <_init+0x20>
    109f:	90                   	nop
    10a0:	f3 0f 1e fa          	endbr64 
    10a4:	68 07 00 00 00       	push   $0x7
    10a9:	f2 e9 71 ff ff ff    	bnd jmp 1020 <_init+0x20>
    10af:	90                   	nop
    10b0:	f3 0f 1e fa          	endbr64 
    10b4:	68 08 00 00 00       	push   $0x8
    10b9:	f2 e9 61 ff ff ff    	bnd jmp 1020 <_init+0x20>
    10bf:	90                   	nop

Disassembly of section .plt.got:

00000000000010c0 <__cxa_finalize@plt>:
    10c0:	f3 0f 1e fa          	endbr64 
    10c4:	f2 ff 25 2d 2f 00 00 	bnd jmp *0x2f2d(%rip)        # 3ff8 <__cxa_finalize@GLIBC_2.2.5>
    10cb:	0f 1f 44 00 00       	nopl   0x0(%rax,%rax,1)

Disassembly of section .plt.sec:

00000000000010d0 <puts@plt>:
    10d0:	f3 0f 1e fa          	endbr64 
    10d4:	f2 ff 25 b5 2e 00 00 	bnd jmp *0x2eb5(%rip)        # 3f90 <puts@GLIBC_2.2.5>
    10db:	0f 1f 44 00 00       	nopl   0x0(%rax,%rax,1)

00000000000010e0 <fread@plt>:
    10e0:	f3 0f 1e fa          	endbr64 
    10e4:	f2 ff 25 ad 2e 00 00 	bnd jmp *0x2ead(%rip)        # 3f98 <fread@GLIBC_2.2.5>
    10eb:	0f 1f 44 00 00       	nopl   0x0(%rax,%rax,1)

00000000000010f0 <fclose@plt>:
    10f0:	f3 0f 1e fa          	endbr64 
    10f4:	f2 ff 25 a5 2e 00 00 	bnd jmp *0x2ea5(%rip)        # 3fa0 <fclose@GLIBC_2.2.5>
    10fb:	0f 1f 44 00 00       	nopl   0x0(%rax,%rax,1)

0000000000001100 <__stack_chk_fail@plt>:
    1100:	f3 0f 1e fa          	endbr64 
    1104:	f2 ff 25 9d 2e 00 00 	bnd jmp *0x2e9d(%rip)        # 3fa8 <__stack_chk_fail@GLIBC_2.4>
    110b:	0f 1f 44 00 00       	nopl   0x0(%rax,%rax,1)

0000000000001110 <log10f@plt>:
    1110:	f3 0f 1e fa          	endbr64 
    1114:	f2 ff 25 95 2e 00 00 	bnd jmp *0x2e95(%rip)        # 3fb0 <log10f@GLIBC_2.2.5>
    111b:	0f 1f 44 00 00       	nopl   0x0(%rax,%rax,1)

0000000000001120 <__printf_chk@plt>:
    1120:	f3 0f 1e fa          	endbr64 
    1124:	f2 ff 25 8d 2e 00 00 	bnd jmp *0x2e8d(%rip)        # 3fb8 <__printf_chk@GLIBC_2.3.4>
    112b:	0f 1f 44 00 00       	nopl   0x0(%rax,%rax,1)

0000000000001130 <fopen@plt>:
    1130:	f3 0f 1e fa          	endbr64 
    1134:	f2 ff 25 85 2e 00 00 	bnd jmp *0x2e85(%rip)        # 3fc0 <fopen@GLIBC_2.2.5>
    113b:	0f 1f 44 00 00       	nopl   0x0(%rax,%rax,1)

0000000000001140 <sqrt@plt>:
    1140:	f3 0f 1e fa          	endbr64 
    1144:	f2 ff 25 7d 2e 00 00 	bnd jmp *0x2e7d(%rip)        # 3fc8 <sqrt@GLIBC_2.2.5>
    114b:	0f 1f 44 00 00       	nopl   0x0(%rax,%rax,1)

0000000000001150 <__sprintf_chk@plt>:
    1150:	f3 0f 1e fa          	endbr64 
    1154:	f2 ff 25 75 2e 00 00 	bnd jmp *0x2e75(%rip)        # 3fd0 <__sprintf_chk@GLIBC_2.3.4>
    115b:	0f 1f 44 00 00       	nopl   0x0(%rax,%rax,1)

Disassembly of section .text:

0000000000001160 <main>:
    1160:	f3 0f 1e fa          	endbr64 
    1164:	55                   	push   %rbp
    1165:	48 89 e5             	mov    %rsp,%rbp
    1168:	41 57                	push   %r15
    116a:	41 56                	push   %r14
    116c:	41 55                	push   %r13
    116e:	41 54                	push   %r12
    1170:	53                   	push   %rbx
    1171:	48 81 ec 48 02 00 00 	sub    $0x248,%rsp
    1178:	64 48 8b 04 25 28 00 	mov    %fs:0x28,%rax
    117f:	00 00 
    1181:	48 89 45 c8          	mov    %rax,-0x38(%rbp)
    1185:	31 c0                	xor    %eax,%eax
    1187:	48 8d 84 24 00 00 fe 	lea    -0x20000(%rsp),%rax
    118e:	ff 
    118f:	48 39 c4             	cmp    %rax,%rsp
    1192:	74 15                	je     11a9 <main+0x49>
    1194:	48 81 ec 00 10 00 00 	sub    $0x1000,%rsp
    119b:	48 83 8c 24 f8 0f 00 	orq    $0x0,0xff8(%rsp)
    11a2:	00 00 
    11a4:	48 39 c4             	cmp    %rax,%rsp
    11a7:	75 eb                	jne    1194 <main+0x34>
    11a9:	48 89 a5 b8 fd ff ff 	mov    %rsp,-0x248(%rbp)
    11b0:	48 8d 84 24 00 00 fe 	lea    -0x20000(%rsp),%rax
    11b7:	ff 
    11b8:	48 39 c4             	cmp    %rax,%rsp
    11bb:	74 12                	je     11cf <main+0x6f>
    11bd:	48 81 ec 00 10 00 00 	sub    $0x1000,%rsp
    11c4:	48 83 8c 24 f8 0f 00 	orq    $0x0,0xff8(%rsp)
    11cb:	00 00 
    11cd:	eb e9                	jmp    11b8 <main+0x58>
    11cf:	48 89 a5 b0 fd ff ff 	mov    %rsp,-0x250(%rbp)
    11d6:	48 8d 84 24 00 00 fe 	lea    -0x20000(%rsp),%rax
    11dd:	ff 
    11de:	48 39 c4             	cmp    %rax,%rsp
    11e1:	74 12                	je     11f5 <main+0x95>
    11e3:	48 81 ec 00 10 00 00 	sub    $0x1000,%rsp
    11ea:	48 83 8c 24 f8 0f 00 	orq    $0x0,0xff8(%rsp)
    11f1:	00 00 
    11f3:	eb e9                	jmp    11de <main+0x7e>
    11f5:	4c 8d 4c 24 03       	lea    0x3(%rsp),%r9
    11fa:	4c 89 c8             	mov    %r9,%rax
    11fd:	49 83 e1 fc          	and    $0xfffffffffffffffc,%r9
    1201:	48 c1 e8 02          	shr    $0x2,%rax
    1205:	4d 89 cf             	mov    %r9,%r15
    1208:	48 89 85 a0 fd ff ff 	mov    %rax,-0x260(%rbp)
    120f:	48 8d 84 24 00 00 fe 	lea    -0x20000(%rsp),%rax
    1216:	ff 
    1217:	48 39 c4             	cmp    %rax,%rsp
    121a:	74 12                	je     122e <main+0xce>
    121c:	48 81 ec 00 10 00 00 	sub    $0x1000,%rsp
    1223:	48 83 8c 24 f8 0f 00 	orq    $0x0,0xff8(%rsp)
    122a:	00 00 
    122c:	eb e9                	jmp    1217 <main+0xb7>
    122e:	4c 8d 05 d3 0d 00 00 	lea    0xdd3(%rip),%r8        # 2008 <_IO_stdin_used+0x8>
    1235:	ba 00 02 00 00       	mov    $0x200,%edx
    123a:	31 c0                	xor    %eax,%eax
    123c:	48 8d 0d 5f 0e 00 00 	lea    0xe5f(%rip),%rcx        # 20a2 <_IO_stdin_used+0xa2>
    1243:	be 01 00 00 00       	mov    $0x1,%esi
    1248:	4c 8d 54 24 03       	lea    0x3(%rsp),%r10
    124d:	4c 8d a5 c0 fd ff ff 	lea    -0x240(%rbp),%r12
    1254:	4c 89 d3             	mov    %r10,%rbx
    1257:	4c 89 e7             	mov    %r12,%rdi
    125a:	49 83 e2 fc          	and    $0xfffffffffffffffc,%r10
    125e:	4d 89 d6             	mov    %r10,%r14
    1261:	48 c1 eb 02          	shr    $0x2,%rbx
    1265:	e8 e6 fe ff ff       	call   1150 <__sprintf_chk@plt>
    126a:	48 8d 35 44 0e 00 00 	lea    0xe44(%rip),%rsi        # 20b5 <_IO_stdin_used+0xb5>
    1271:	4c 89 e7             	mov    %r12,%rdi
    1274:	e8 b7 fe ff ff       	call   1130 <fopen@plt>
    1279:	48 89 85 a8 fd ff ff 	mov    %rax,-0x258(%rbp)
    1280:	48 85 c0             	test   %rax,%rax
    1283:	0f 84 12 02 00 00    	je     149b <main+0x33b>
    1289:	ba 00 02 00 00       	mov    $0x200,%edx
    128e:	4c 89 e7             	mov    %r12,%rdi
    1291:	be 01 00 00 00       	mov    $0x1,%esi
    1296:	31 c0                	xor    %eax,%eax
    1298:	4c 8d 05 69 0d 00 00 	lea    0xd69(%rip),%r8        # 2008 <_IO_stdin_used+0x8>
    129f:	48 8d 0d 11 0e 00 00 	lea    0xe11(%rip),%rcx        # 20b7 <_IO_stdin_used+0xb7>
    12a6:	e8 a5 fe ff ff       	call   1150 <__sprintf_chk@plt>
    12ab:	4c 89 e7             	mov    %r12,%rdi
    12ae:	48 8d 35 00 0e 00 00 	lea    0xe00(%rip),%rsi        # 20b5 <_IO_stdin_used+0xb5>
    12b5:	e8 76 fe ff ff       	call   1130 <fopen@plt>
    12ba:	4c 89 e7             	mov    %r12,%rdi
    12bd:	ba 00 02 00 00       	mov    $0x200,%edx
    12c2:	4c 8d 05 3f 0d 00 00 	lea    0xd3f(%rip),%r8        # 2008 <_IO_stdin_used+0x8>
    12c9:	48 8d 0d fa 0d 00 00 	lea    0xdfa(%rip),%rcx        # 20ca <_IO_stdin_used+0xca>
    12d0:	be 01 00 00 00       	mov    $0x1,%esi
    12d5:	49 89 c5             	mov    %rax,%r13
    12d8:	31 c0                	xor    %eax,%eax
    12da:	e8 71 fe ff ff       	call   1150 <__sprintf_chk@plt>
    12df:	4c 89 e7             	mov    %r12,%rdi
    12e2:	48 8d 35 cc 0d 00 00 	lea    0xdcc(%rip),%rsi        # 20b5 <_IO_stdin_used+0xb5>
    12e9:	e8 42 fe ff ff       	call   1130 <fopen@plt>
    12ee:	49 89 c4             	mov    %rax,%r12
    12f1:	48 85 c0             	test   %rax,%rax
    12f4:	0f 84 a1 01 00 00    	je     149b <main+0x33b>
    12fa:	48 8b b5 a8 fd ff ff 	mov    -0x258(%rbp),%rsi
    1301:	48 8b bd b8 fd ff ff 	mov    -0x248(%rbp),%rdi
    1308:	e8 d3 04 00 00       	call   17e0 <test_Fread.constprop.0.isra.0>
    130d:	48 8b bd b0 fd ff ff 	mov    -0x250(%rbp),%rdi
    1314:	4c 89 ee             	mov    %r13,%rsi
    1317:	e8 c4 04 00 00       	call   17e0 <test_Fread.constprop.0.isra.0>
    131c:	4c 89 e6             	mov    %r12,%rsi
    131f:	4c 89 f7             	mov    %r14,%rdi
    1322:	e8 b9 04 00 00       	call   17e0 <test_Fread.constprop.0.isra.0>
    1327:	48 8b b5 b0 fd ff ff 	mov    -0x250(%rbp),%rsi
    132e:	b9 ff 7f 00 00       	mov    $0x7fff,%ecx
    1333:	4c 89 fa             	mov    %r15,%rdx
    1336:	48 8b bd b8 fd ff ff 	mov    -0x248(%rbp),%rdi
    133d:	e8 7e 05 00 00       	call   18c0 <riscv_dsp_sub_q31>
    1342:	31 c0                	xor    %eax,%eax
    1344:	66 0f ef d2          	pxor   %xmm2,%xmm2
    1348:	0f 1f 84 00 00 00 00 	nopl   0x0(%rax,%rax,1)
    134f:	00 
    1350:	f3 41 0f 6f 04 06    	movdqu (%r14,%rax,1),%xmm0
    1356:	f3 41 0f 6f 3c 07    	movdqu (%r15,%rax,1),%xmm7
    135c:	48 83 c0 10          	add    $0x10,%rax
    1360:	66 0f fa c7          	psubd  %xmm7,%xmm0
    1364:	66 0f 6f c8          	movdqa %xmm0,%xmm1
    1368:	66 0f 72 e1 1f       	psrad  $0x1f,%xmm1
    136d:	66 0f ef c1          	pxor   %xmm1,%xmm0
    1371:	66 0f fa c1          	psubd  %xmm1,%xmm0
    1375:	66 0f 6f c8          	movdqa %xmm0,%xmm1
    1379:	66 0f 66 ca          	pcmpgtd %xmm2,%xmm1
    137d:	66 0f db c1          	pand   %xmm1,%xmm0
    1381:	66 0f df ca          	pandn  %xmm2,%xmm1
    1385:	66 0f 6f d1          	movdqa %xmm1,%xmm2
    1389:	66 0f eb d0          	por    %xmm0,%xmm2
    138d:	48 3d f0 ff 01 00    	cmp    $0x1fff0,%rax
    1393:	75 bb                	jne    1350 <main+0x1f0>
    1395:	48 8b 95 a0 fd ff ff 	mov    -0x260(%rbp),%rdx
    139c:	66 0f 6f ca          	movdqa %xmm2,%xmm1
    13a0:	8b 0c 9d f0 ff 01 00 	mov    0x1fff0(,%rbx,4),%ecx
    13a7:	66 0f 73 d9 08       	psrldq $0x8,%xmm1
    13ac:	8b 3c 9d f4 ff 01 00 	mov    0x1fff4(,%rbx,4),%edi
    13b3:	8b 34 9d f8 ff 01 00 	mov    0x1fff8(,%rbx,4),%esi
    13ba:	2b 0c 95 f0 ff 01 00 	sub    0x1fff0(,%rdx,4),%ecx
    13c1:	66 0f 6f c1          	movdqa %xmm1,%xmm0
    13c5:	2b 3c 95 f4 ff 01 00 	sub    0x1fff4(,%rdx,4),%edi
    13cc:	2b 34 95 f8 ff 01 00 	sub    0x1fff8(,%rdx,4),%esi
    13d3:	66 0f 66 c2          	pcmpgtd %xmm2,%xmm0
    13d7:	89 ca                	mov    %ecx,%edx
    13d9:	f7 da                	neg    %edx
    13db:	0f 48 d1             	cmovs  %ecx,%edx
    13de:	89 f9                	mov    %edi,%ecx
    13e0:	66 0f db c8          	pand   %xmm0,%xmm1
    13e4:	66 0f df c2          	pandn  %xmm2,%xmm0
    13e8:	f7 d9                	neg    %ecx
    13ea:	66 0f eb c1          	por    %xmm1,%xmm0
    13ee:	0f 48 cf             	cmovs  %edi,%ecx
    13f1:	bf 01 00 00 00       	mov    $0x1,%edi
    13f6:	66 0f 6f d0          	movdqa %xmm0,%xmm2
    13fa:	39 ca                	cmp    %ecx,%edx
    13fc:	66 0f 73 da 04       	psrldq $0x4,%xmm2
    1401:	0f 4c d1             	cmovl  %ecx,%edx
    1404:	66 0f 6f ca          	movdqa %xmm2,%xmm1
    1408:	89 f1                	mov    %esi,%ecx
    140a:	66 0f 66 c8          	pcmpgtd %xmm0,%xmm1
    140e:	f7 d9                	neg    %ecx
    1410:	0f 48 ce             	cmovs  %esi,%ecx
    1413:	48 8d 35 c6 0c 00 00 	lea    0xcc6(%rip),%rsi        # 20e0 <_IO_stdin_used+0xe0>
    141a:	66 0f db d1          	pand   %xmm1,%xmm2
    141e:	39 ca                	cmp    %ecx,%edx
    1420:	66 0f df c8          	pandn  %xmm0,%xmm1
    1424:	0f 4c d1             	cmovl  %ecx,%edx
    1427:	66 0f eb ca          	por    %xmm2,%xmm1
    142b:	66 0f 7e c8          	movd   %xmm1,%eax
    142f:	39 c2                	cmp    %eax,%edx
    1431:	0f 4c d0             	cmovl  %eax,%edx
    1434:	31 c0                	xor    %eax,%eax
    1436:	e8 e5 fc ff ff       	call   1120 <__printf_chk@plt>
    143b:	48 8b bd a8 fd ff ff 	mov    -0x258(%rbp),%rdi
    1442:	e8 a9 fc ff ff       	call   10f0 <fclose@plt>
    1447:	4c 89 ef             	mov    %r13,%rdi
    144a:	e8 a1 fc ff ff       	call   10f0 <fclose@plt>
    144f:	4c 89 e7             	mov    %r12,%rdi
    1452:	e8 99 fc ff ff       	call   10f0 <fclose@plt>
    1457:	48 8d 84 24 00 00 fe 	lea    -0x20000(%rsp),%rax
    145e:	ff 
    145f:	48 39 c4             	cmp    %rax,%rsp
    1462:	74 15                	je     1479 <main+0x319>
    1464:	48 81 ec 00 10 00 00 	sub    $0x1000,%rsp
    146b:	48 83 8c 24 f8 0f 00 	orq    $0x0,0xff8(%rsp)
    1472:	00 00 
    1474:	48 39 c4             	cmp    %rax,%rsp
    1477:	75 eb                	jne    1464 <main+0x304>
    1479:	48 89 e3             	mov    %rsp,%rbx
    147c:	48 8d 84 24 00 00 fe 	lea    -0x20000(%rsp),%rax
    1483:	ff 
    1484:	48 39 c4             	cmp    %rax,%rsp
    1487:	74 37                	je     14c0 <main+0x360>
    1489:	48 81 ec 00 10 00 00 	sub    $0x1000,%rsp
    1490:	48 83 8c 24 f8 0f 00 	orq    $0x0,0xff8(%rsp)
    1497:	00 00 
    1499:	eb e9                	jmp    1484 <main+0x324>
    149b:	83 c8 ff             	or     $0xffffffff,%eax
    149e:	48 8b 55 c8          	mov    -0x38(%rbp),%rdx
    14a2:	64 48 2b 14 25 28 00 	sub    %fs:0x28,%rdx
    14a9:	00 00 
    14ab:	0f 85 37 02 00 00    	jne    16e8 <main+0x588>
    14b1:	48 8d 65 d8          	lea    -0x28(%rbp),%rsp
    14b5:	5b                   	pop    %rbx
    14b6:	41 5c                	pop    %r12
    14b8:	41 5d                	pop    %r13
    14ba:	41 5e                	pop    %r14
    14bc:	41 5f                	pop    %r15
    14be:	5d                   	pop    %rbp
    14bf:	c3                   	ret    
    14c0:	ba ff 7f 00 00       	mov    $0x7fff,%edx
    14c5:	48 89 de             	mov    %rbx,%rsi
    14c8:	4c 89 f7             	mov    %r14,%rdi
    14cb:	49 89 e4             	mov    %rsp,%r12
    14ce:	e8 2d 03 00 00       	call   1800 <riscv_dsp_convert_q31_f32>
    14d3:	ba ff 7f 00 00       	mov    $0x7fff,%edx
    14d8:	4c 89 e6             	mov    %r12,%rsi
    14db:	4c 89 ff             	mov    %r15,%rdi
    14de:	e8 1d 03 00 00       	call   1800 <riscv_dsp_convert_q31_f32>
    14e3:	66 0f ef db          	pxor   %xmm3,%xmm3
    14e7:	66 0f ef ff          	pxor   %xmm7,%xmm7
    14eb:	31 c0                	xor    %eax,%eax
    14ed:	66 0f 28 f7          	movapd %xmm7,%xmm6
    14f1:	0f 28 c3             	movaps %xmm3,%xmm0
    14f4:	44 0f 28 c3          	movaps %xmm3,%xmm8
    14f8:	f3 44 0f 10 0d 1f 0c 	movss  0xc1f(%rip),%xmm9        # 2120 <_IO_stdin_used+0x120>
    14ff:	00 00 
    1501:	0f 28 eb             	movaps %xmm3,%xmm5
    1504:	0f 1f 40 00          	nopl   0x0(%rax)
    1508:	f3 41 0f 10 0c 04    	movss  (%r12,%rax,1),%xmm1
    150e:	f3 0f 10 14 03       	movss  (%rbx,%rax,1),%xmm2
    1513:	66 0f 7e ce          	movd   %xmm1,%esi
    1517:	81 fe 00 00 c0 7f    	cmp    $0x7fc00000,%esi
    151d:	0f 84 78 ff ff ff    	je     149b <main+0x33b>
    1523:	0f 28 e2             	movaps %xmm2,%xmm4
    1526:	f3 0f 5c ca          	subss  %xmm2,%xmm1
    152a:	48 83 c0 04          	add    $0x4,%rax
    152e:	f3 0f 5f e5          	maxss  %xmm5,%xmm4
    1532:	0f 28 ec             	movaps %xmm4,%xmm5
    1535:	0f 28 e2             	movaps %xmm2,%xmm4
    1538:	f3 41 0f 5d e0       	minss  %xmm8,%xmm4
    153d:	f3 0f 59 d2          	mulss  %xmm2,%xmm2
    1541:	44 0f 28 c4          	movaps %xmm4,%xmm8
    1545:	0f 28 e1             	movaps %xmm1,%xmm4
    1548:	f3 0f 59 c9          	mulss  %xmm1,%xmm1
    154c:	41 0f 54 e1          	andps  %xmm9,%xmm4
    1550:	f3 0f 58 c4          	addss  %xmm4,%xmm0
    1554:	f3 0f 5f e3          	maxss  %xmm3,%xmm4
    1558:	f3 0f 5a d2          	cvtss2sd %xmm2,%xmm2
    155c:	f2 0f 58 fa          	addsd  %xmm2,%xmm7
    1560:	0f 28 dc             	movaps %xmm4,%xmm3
    1563:	f3 0f 5a c9          	cvtss2sd %xmm1,%xmm1
    1567:	f2 0f 58 f1          	addsd  %xmm1,%xmm6
    156b:	48 3d fc ff 01 00    	cmp    $0x1fffc,%rax
    1571:	75 95                	jne    1508 <main+0x3a8>
    1573:	66 48 0f 7e f0       	movq   %xmm6,%rax
    1578:	f3 0f 11 a5 a0 fd ff 	movss  %xmm4,-0x260(%rbp)
    157f:	ff 
    1580:	f3 44 0f 11 85 a8 fd 	movss  %xmm8,-0x258(%rbp)
    1587:	ff ff 
    1589:	f3 0f 11 ad b0 fd ff 	movss  %xmm5,-0x250(%rbp)
    1590:	ff 
    1591:	f2 0f 11 bd b8 fd ff 	movsd  %xmm7,-0x248(%rbp)
    1598:	ff 
    1599:	3d 00 00 c0 7f       	cmp    $0x7fc00000,%eax
    159e:	0f 84 f7 fe ff ff    	je     149b <main+0x33b>
    15a4:	f3 0f 5e 05 60 0b 00 	divss  0xb60(%rip),%xmm0        # 210c <_IO_stdin_used+0x10c>
    15ab:	00 
    15ac:	f2 0f 11 b5 98 fd ff 	movsd  %xmm6,-0x268(%rbp)
    15b3:	ff 
    15b4:	66 41 0f 7e c5       	movd   %xmm0,%r13d
    15b9:	66 0f 28 c6          	movapd %xmm6,%xmm0
    15bd:	f2 0f 5e 05 6b 0b 00 	divsd  0xb6b(%rip),%xmm0        # 2130 <_IO_stdin_used+0x130>
    15c4:	00 
    15c5:	e8 76 fb ff ff       	call   1140 <sqrt@plt>
    15ca:	66 0f ef ed          	pxor   %xmm5,%xmm5
    15ce:	f3 44 0f 10 85 a8 fd 	movss  -0x258(%rbp),%xmm8
    15d5:	ff ff 
    15d7:	f2 0f 5a e8          	cvtsd2ss %xmm0,%xmm5
    15db:	66 0f 7e eb          	movd   %xmm5,%ebx
    15df:	f3 0f 10 ad b0 fd ff 	movss  -0x250(%rbp),%xmm5
    15e6:	ff 
    15e7:	f2 0f 10 bd b8 fd ff 	movsd  -0x248(%rbp),%xmm7
    15ee:	ff 
    15ef:	66 0f 6e f3          	movd   %ebx,%xmm6
    15f3:	f3 0f 10 9d a0 fd ff 	movss  -0x260(%rbp),%xmm3
    15fa:	ff 
    15fb:	f3 41 0f 5c e8       	subss  %xmm8,%xmm5
    1600:	f3 0f 5e f5          	divss  %xmm5,%xmm6
    1604:	66 0f ef ed          	pxor   %xmm5,%xmm5
    1608:	66 41 0f 7e f4       	movd   %xmm6,%r12d
    160d:	f2 0f 10 b5 98 fd ff 	movsd  -0x268(%rbp),%xmm6
    1614:	ff 
    1615:	66 0f 2e f5          	ucomisd %xmm5,%xmm6
    1619:	0f 8a 96 00 00 00    	jp     16b5 <main+0x555>
    161f:	44 8b 35 e2 0a 00 00 	mov    0xae2(%rip),%r14d        # 2108 <_IO_stdin_used+0x108>
    1626:	0f 85 89 00 00 00    	jne    16b5 <main+0x555>
    162c:	48 8d 3d c0 0a 00 00 	lea    0xac0(%rip),%rdi        # 20f3 <_IO_stdin_used+0xf3>
    1633:	f3 0f 11 9d b8 fd ff 	movss  %xmm3,-0x248(%rbp)
    163a:	ff 
    163b:	e8 90 fa ff ff       	call   10d0 <puts@plt>
    1640:	66 41 0f 6e f5       	movd   %r13d,%xmm6
    1645:	66 0f ef c0          	pxor   %xmm0,%xmm0
    1649:	66 0f ef e4          	pxor   %xmm4,%xmm4
    164d:	f3 0f 5a c6          	cvtss2sd %xmm6,%xmm0
    1651:	66 41 0f 6e f6       	movd   %r14d,%xmm6
    1656:	66 0f ef d2          	pxor   %xmm2,%xmm2
    165a:	f3 0f 10 9d b8 fd ff 	movss  -0x248(%rbp),%xmm3
    1661:	ff 
    1662:	f3 0f 5a e6          	cvtss2sd %xmm6,%xmm4
    1666:	66 41 0f 6e f4       	movd   %r12d,%xmm6
    166b:	66 0f ef c9          	pxor   %xmm1,%xmm1
    166f:	48 8d 35 da 09 00 00 	lea    0x9da(%rip),%rsi        # 2050 <_IO_stdin_used+0x50>
    1676:	f3 0f 5a d6          	cvtss2sd %xmm6,%xmm2
    167a:	bf 01 00 00 00       	mov    $0x1,%edi
    167f:	66 0f 6e f3          	movd   %ebx,%xmm6
    1683:	f3 0f 5a db          	cvtss2sd %xmm3,%xmm3
    1687:	b8 05 00 00 00       	mov    $0x5,%eax
    168c:	f3 0f 5a ce          	cvtss2sd %xmm6,%xmm1
    1690:	e8 8b fa ff ff       	call   1120 <__printf_chk@plt>
    1695:	66 41 0f 6e f4       	movd   %r12d,%xmm6
    169a:	66 0f ef ed          	pxor   %xmm5,%xmm5
    169e:	31 c0                	xor    %eax,%eax
    16a0:	0f 2e f5             	ucomiss %xmm5,%xmm6
    16a3:	ba 01 00 00 00       	mov    $0x1,%edx
    16a8:	0f 9a c0             	setp   %al
    16ab:	0f 45 c2             	cmovne %edx,%eax
    16ae:	f7 d8                	neg    %eax
    16b0:	e9 e9 fd ff ff       	jmp    149e <main+0x33e>
    16b5:	f2 0f 5e fe          	divsd  %xmm6,%xmm7
    16b9:	66 0f ef c0          	pxor   %xmm0,%xmm0
    16bd:	f3 0f 11 9d b8 fd ff 	movss  %xmm3,-0x248(%rbp)
    16c4:	ff 
    16c5:	f2 0f 5a c7          	cvtsd2ss %xmm7,%xmm0
    16c9:	e8 42 fa ff ff       	call   1110 <log10f@plt>
    16ce:	f3 0f 59 05 3a 0a 00 	mulss  0xa3a(%rip),%xmm0        # 2110 <_IO_stdin_used+0x110>
    16d5:	00 
    16d6:	f3 0f 10 9d b8 fd ff 	movss  -0x248(%rbp),%xmm3
    16dd:	ff 
    16de:	66 41 0f 7e c6       	movd   %xmm0,%r14d
    16e3:	e9 44 ff ff ff       	jmp    162c <main+0x4cc>
    16e8:	e8 13 fa ff ff       	call   1100 <__stack_chk_fail@plt>
    16ed:	0f 1f 00             	nopl   (%rax)

00000000000016f0 <_start>:
    16f0:	f3 0f 1e fa          	endbr64 
    16f4:	31 ed                	xor    %ebp,%ebp
    16f6:	49 89 d1             	mov    %rdx,%r9
    16f9:	5e                   	pop    %rsi
    16fa:	48 89 e2             	mov    %rsp,%rdx
    16fd:	48 83 e4 f0          	and    $0xfffffffffffffff0,%rsp
    1701:	50                   	push   %rax
    1702:	54                   	push   %rsp
    1703:	45 31 c0             	xor    %r8d,%r8d
    1706:	31 c9                	xor    %ecx,%ecx
    1708:	48 8d 3d 51 fa ff ff 	lea    -0x5af(%rip),%rdi        # 1160 <main>
    170f:	ff 15 c3 28 00 00    	call   *0x28c3(%rip)        # 3fd8 <__libc_start_main@GLIBC_2.34>
    1715:	f4                   	hlt    
    1716:	66 2e 0f 1f 84 00 00 	cs nopw 0x0(%rax,%rax,1)
    171d:	00 00 00 

0000000000001720 <deregister_tm_clones>:
    1720:	48 8d 3d e9 28 00 00 	lea    0x28e9(%rip),%rdi        # 4010 <__TMC_END__>
    1727:	48 8d 05 e2 28 00 00 	lea    0x28e2(%rip),%rax        # 4010 <__TMC_END__>
    172e:	48 39 f8             	cmp    %rdi,%rax
    1731:	74 15                	je     1748 <deregister_tm_clones+0x28>
    1733:	48 8b 05 a6 28 00 00 	mov    0x28a6(%rip),%rax        # 3fe0 <_ITM_deregisterTMCloneTable@Base>
    173a:	48 85 c0             	test   %rax,%rax
    173d:	74 09                	je     1748 <deregister_tm_clones+0x28>
    173f:	ff e0                	jmp    *%rax
    1741:	0f 1f 80 00 00 00 00 	nopl   0x0(%rax)
    1748:	c3                   	ret    
    1749:	0f 1f 80 00 00 00 00 	nopl   0x0(%rax)

0000000000001750 <register_tm_clones>:
    1750:	48 8d 3d b9 28 00 00 	lea    0x28b9(%rip),%rdi        # 4010 <__TMC_END__>
    1757:	48 8d 35 b2 28 00 00 	lea    0x28b2(%rip),%rsi        # 4010 <__TMC_END__>
    175e:	48 29 fe             	sub    %rdi,%rsi
    1761:	48 89 f0             	mov    %rsi,%rax
    1764:	48 c1 ee 3f          	shr    $0x3f,%rsi
    1768:	48 c1 f8 03          	sar    $0x3,%rax
    176c:	48 01 c6             	add    %rax,%rsi
    176f:	48 d1 fe             	sar    %rsi
    1772:	74 14                	je     1788 <register_tm_clones+0x38>
    1774:	48 8b 05 75 28 00 00 	mov    0x2875(%rip),%rax        # 3ff0 <_ITM_registerTMCloneTable@Base>
    177b:	48 85 c0             	test   %rax,%rax
    177e:	74 08                	je     1788 <register_tm_clones+0x38>
    1780:	ff e0                	jmp    *%rax
    1782:	66 0f 1f 44 00 00    	nopw   0x0(%rax,%rax,1)
    1788:	c3                   	ret    
    1789:	0f 1f 80 00 00 00 00 	nopl   0x0(%rax)

0000000000001790 <__do_global_dtors_aux>:
    1790:	f3 0f 1e fa          	endbr64 
    1794:	80 3d 75 28 00 00 00 	cmpb   $0x0,0x2875(%rip)        # 4010 <__TMC_END__>
    179b:	75 2b                	jne    17c8 <__do_global_dtors_aux+0x38>
    179d:	55                   	push   %rbp
    179e:	48 83 3d 52 28 00 00 	cmpq   $0x0,0x2852(%rip)        # 3ff8 <__cxa_finalize@GLIBC_2.2.5>
    17a5:	00 
    17a6:	48 89 e5             	mov    %rsp,%rbp
    17a9:	74 0c                	je     17b7 <__do_global_dtors_aux+0x27>
    17ab:	48 8b 3d 56 28 00 00 	mov    0x2856(%rip),%rdi        # 4008 <__dso_handle>
    17b2:	e8 09 f9 ff ff       	call   10c0 <__cxa_finalize@plt>
    17b7:	e8 64 ff ff ff       	call   1720 <deregister_tm_clones>
    17bc:	c6 05 4d 28 00 00 01 	movb   $0x1,0x284d(%rip)        # 4010 <__TMC_END__>
    17c3:	5d                   	pop    %rbp
    17c4:	c3                   	ret    
    17c5:	0f 1f 00             	nopl   (%rax)
    17c8:	c3                   	ret    
    17c9:	0f 1f 80 00 00 00 00 	nopl   0x0(%rax)

00000000000017d0 <frame_dummy>:
    17d0:	f3 0f 1e fa          	endbr64 
    17d4:	e9 77 ff ff ff       	jmp    1750 <register_tm_clones>
    17d9:	0f 1f 80 00 00 00 00 	nopl   0x0(%rax)

00000000000017e0 <test_Fread.constprop.0.isra.0>:
    17e0:	48 89 f1             	mov    %rsi,%rcx
    17e3:	ba ff 7f 00 00       	mov    $0x7fff,%edx
    17e8:	be 04 00 00 00       	mov    $0x4,%esi
    17ed:	e9 ee f8 ff ff       	jmp    10e0 <fread@plt>
    17f2:	66 2e 0f 1f 84 00 00 	cs nopw 0x0(%rax,%rax,1)
    17f9:	00 00 00 
    17fc:	0f 1f 40 00          	nopl   0x0(%rax)

0000000000001800 <riscv_dsp_convert_q31_f32>:
    1800:	f3 0f 1e fa          	endbr64 
    1804:	48 89 f1             	mov    %rsi,%rcx
    1807:	85 d2                	test   %edx,%edx
    1809:	0f 84 97 00 00 00    	je     18a6 <riscv_dsp_convert_q31_f32+0xa6>
    180f:	8d 42 ff             	lea    -0x1(%rdx),%eax
    1812:	83 f8 02             	cmp    $0x2,%eax
    1815:	0f 86 96 00 00 00    	jbe    18b1 <riscv_dsp_convert_q31_f32+0xb1>
    181b:	89 d6                	mov    %edx,%esi
    181d:	0f 28 0d 1c 09 00 00 	movaps 0x91c(%rip),%xmm1        # 2140 <_IO_stdin_used+0x140>
    1824:	31 c0                	xor    %eax,%eax
    1826:	c1 ee 02             	shr    $0x2,%esi
    1829:	48 c1 e6 04          	shl    $0x4,%rsi
    182d:	0f 1f 00             	nopl   (%rax)
    1830:	f3 0f 6f 14 07       	movdqu (%rdi,%rax,1),%xmm2
    1835:	0f 5b c2             	cvtdq2ps %xmm2,%xmm0
    1838:	0f 59 c1             	mulps  %xmm1,%xmm0
    183b:	0f 11 04 01          	movups %xmm0,(%rcx,%rax,1)
    183f:	48 83 c0 10          	add    $0x10,%rax
    1843:	48 39 f0             	cmp    %rsi,%rax
    1846:	75 e8                	jne    1830 <riscv_dsp_convert_q31_f32+0x30>
    1848:	89 d6                	mov    %edx,%esi
    184a:	83 e6 fc             	and    $0xfffffffc,%esi
    184d:	89 f0                	mov    %esi,%eax
    184f:	48 c1 e0 02          	shl    $0x2,%rax
    1853:	4c 8d 04 07          	lea    (%rdi,%rax,1),%r8
    1857:	48 01 c8             	add    %rcx,%rax
    185a:	39 f2                	cmp    %esi,%edx
    185c:	74 52                	je     18b0 <riscv_dsp_convert_q31_f32+0xb0>
    185e:	29 f2                	sub    %esi,%edx
    1860:	83 fa 01             	cmp    $0x1,%edx
    1863:	74 2c                	je     1891 <riscv_dsp_convert_q31_f32+0x91>
    1865:	f3 0f 7e 0d d3 08 00 	movq   0x8d3(%rip),%xmm1        # 2140 <_IO_stdin_used+0x140>
    186c:	00 
    186d:	f3 0f 7e 04 b7       	movq   (%rdi,%rsi,4),%xmm0
    1872:	0f 5b c0             	cvtdq2ps %xmm0,%xmm0
    1875:	0f 59 c1             	mulps  %xmm1,%xmm0
    1878:	0f 13 04 b1          	movlps %xmm0,(%rcx,%rsi,4)
    187c:	89 d6                	mov    %edx,%esi
    187e:	83 e6 fe             	and    $0xfffffffe,%esi
    1881:	89 f1                	mov    %esi,%ecx
    1883:	48 c1 e1 02          	shl    $0x2,%rcx
    1887:	49 01 c8             	add    %rcx,%r8
    188a:	48 01 c8             	add    %rcx,%rax
    188d:	39 f2                	cmp    %esi,%edx
    188f:	74 15                	je     18a6 <riscv_dsp_convert_q31_f32+0xa6>
    1891:	66 0f ef c0          	pxor   %xmm0,%xmm0
    1895:	f3 41 0f 2a 00       	cvtsi2ssl (%r8),%xmm0
    189a:	f3 0f 59 05 9e 08 00 	mulss  0x89e(%rip),%xmm0        # 2140 <_IO_stdin_used+0x140>
    18a1:	00 
    18a2:	f3 0f 11 00          	movss  %xmm0,(%rax)
    18a6:	c3                   	ret    
    18a7:	66 0f 1f 84 00 00 00 	nopw   0x0(%rax,%rax,1)
    18ae:	00 00 
    18b0:	c3                   	ret    
    18b1:	48 89 f0             	mov    %rsi,%rax
    18b4:	49 89 f8             	mov    %rdi,%r8
    18b7:	31 f6                	xor    %esi,%esi
    18b9:	eb a3                	jmp    185e <riscv_dsp_convert_q31_f32+0x5e>
    18bb:	0f 1f 44 00 00       	nopl   0x0(%rax,%rax,1)

00000000000018c0 <riscv_dsp_sub_q31>:
    18c0:	f3 0f 1e fa          	endbr64 
    18c4:	85 c9                	test   %ecx,%ecx
    18c6:	0f 84 44 01 00 00    	je     1a10 <riscv_dsp_sub_q31+0x150>
    18cc:	8d 41 ff             	lea    -0x1(%rcx),%eax
    18cf:	83 f8 02             	cmp    $0x2,%eax
    18d2:	0f 86 81 01 00 00    	jbe    1a59 <riscv_dsp_sub_q31+0x199>
    18d8:	41 89 c8             	mov    %ecx,%r8d
    18db:	66 0f 6f 35 6d 08 00 	movdqa 0x86d(%rip),%xmm6        # 2150 <_IO_stdin_used+0x150>
    18e2:	00 
    18e3:	31 c0                	xor    %eax,%eax
    18e5:	66 0f ef e4          	pxor   %xmm4,%xmm4
    18e9:	41 c1 e8 02          	shr    $0x2,%r8d
    18ed:	66 0f 6f 2d 6b 08 00 	movdqa 0x86b(%rip),%xmm5        # 2160 <_IO_stdin_used+0x160>
    18f4:	00 
    18f5:	49 c1 e0 04          	shl    $0x4,%r8
    18f9:	0f 1f 80 00 00 00 00 	nopl   0x0(%rax)
    1900:	f3 0f 6f 1c 06       	movdqu (%rsi,%rax,1),%xmm3
    1905:	f3 0f 6f 0c 07       	movdqu (%rdi,%rax,1),%xmm1
    190a:	66 0f 6f c3          	movdqa %xmm3,%xmm0
    190e:	66 0f 6f d3          	movdqa %xmm3,%xmm2
    1912:	66 0f 6f fb          	movdqa %xmm3,%xmm7
    1916:	66 0f fe c6          	paddd  %xmm6,%xmm0
    191a:	66 0f 66 d4          	pcmpgtd %xmm4,%xmm2
    191e:	66 0f fe fd          	paddd  %xmm5,%xmm7
    1922:	66 0f 66 c1          	pcmpgtd %xmm1,%xmm0
    1926:	66 0f db c2          	pand   %xmm2,%xmm0
    192a:	66 0f 6f d1          	movdqa %xmm1,%xmm2
    192e:	66 0f 66 d7          	pcmpgtd %xmm7,%xmm2
    1932:	66 0f 6f fc          	movdqa %xmm4,%xmm7
    1936:	66 0f 66 fb          	pcmpgtd %xmm3,%xmm7
    193a:	66 0f db d7          	pand   %xmm7,%xmm2
    193e:	66 0f eb c2          	por    %xmm2,%xmm0
    1942:	66 0f 6f d1          	movdqa %xmm1,%xmm2
    1946:	66 0f fa cb          	psubd  %xmm3,%xmm1
    194a:	66 0f 72 e2 1f       	psrad  $0x1f,%xmm2
    194f:	66 0f ef d5          	pxor   %xmm5,%xmm2
    1953:	66 0f db d0          	pand   %xmm0,%xmm2
    1957:	66 0f df c1          	pandn  %xmm1,%xmm0
    195b:	66 0f eb c2          	por    %xmm2,%xmm0
    195f:	0f 11 04 02          	movups %xmm0,(%rdx,%rax,1)
    1963:	48 83 c0 10          	add    $0x10,%rax
    1967:	49 39 c0             	cmp    %rax,%r8
    196a:	75 94                	jne    1900 <riscv_dsp_sub_q31+0x40>
    196c:	41 89 c8             	mov    %ecx,%r8d
    196f:	41 89 c9             	mov    %ecx,%r9d
    1972:	41 83 e0 fc          	and    $0xfffffffc,%r8d
    1976:	44 89 c0             	mov    %r8d,%eax
    1979:	45 29 c1             	sub    %r8d,%r9d
    197c:	48 c1 e0 02          	shl    $0x2,%rax
    1980:	48 01 c7             	add    %rax,%rdi
    1983:	48 01 c6             	add    %rax,%rsi
    1986:	48 01 c2             	add    %rax,%rdx
    1989:	44 39 c1             	cmp    %r8d,%ecx
    198c:	0f 84 c6 00 00 00    	je     1a58 <riscv_dsp_sub_q31+0x198>
    1992:	8b 0f                	mov    (%rdi),%ecx
    1994:	8b 06                	mov    (%rsi),%eax
    1996:	41 89 c8             	mov    %ecx,%r8d
    1999:	41 29 c0             	sub    %eax,%r8d
    199c:	85 c0                	test   %eax,%eax
    199e:	7e 78                	jle    1a18 <riscv_dsp_sub_q31+0x158>
    19a0:	05 00 00 00 80       	add    $0x80000000,%eax
    19a5:	39 c1                	cmp    %eax,%ecx
    19a7:	7d 0c                	jge    19b5 <riscv_dsp_sub_q31+0xf5>
    19a9:	c1 f9 1f             	sar    $0x1f,%ecx
    19ac:	81 f1 ff ff ff 7f    	xor    $0x7fffffff,%ecx
    19b2:	41 89 c8             	mov    %ecx,%r8d
    19b5:	44 89 02             	mov    %r8d,(%rdx)
    19b8:	41 83 f9 01          	cmp    $0x1,%r9d
    19bc:	74 52                	je     1a10 <riscv_dsp_sub_q31+0x150>
    19be:	8b 4f 04             	mov    0x4(%rdi),%ecx
    19c1:	8b 46 04             	mov    0x4(%rsi),%eax
    19c4:	41 89 c8             	mov    %ecx,%r8d
    19c7:	41 29 c0             	sub    %eax,%r8d
    19ca:	85 c0                	test   %eax,%eax
    19cc:	7e 5a                	jle    1a28 <riscv_dsp_sub_q31+0x168>
    19ce:	05 00 00 00 80       	add    $0x80000000,%eax
    19d3:	39 c1                	cmp    %eax,%ecx
    19d5:	7c 5c                	jl     1a33 <riscv_dsp_sub_q31+0x173>
    19d7:	44 89 42 04          	mov    %r8d,0x4(%rdx)
    19db:	41 83 f9 02          	cmp    $0x2,%r9d
    19df:	74 2f                	je     1a10 <riscv_dsp_sub_q31+0x150>
    19e1:	8b 4f 08             	mov    0x8(%rdi),%ecx
    19e4:	8b 46 08             	mov    0x8(%rsi),%eax
    19e7:	89 ce                	mov    %ecx,%esi
    19e9:	29 c6                	sub    %eax,%esi
    19eb:	85 c0                	test   %eax,%eax
    19ed:	7e 59                	jle    1a48 <riscv_dsp_sub_q31+0x188>
    19ef:	05 00 00 00 80       	add    $0x80000000,%eax
    19f4:	39 c1                	cmp    %eax,%ecx
    19f6:	7d 0b                	jge    1a03 <riscv_dsp_sub_q31+0x143>
    19f8:	c1 f9 1f             	sar    $0x1f,%ecx
    19fb:	89 ce                	mov    %ecx,%esi
    19fd:	81 f6 ff ff ff 7f    	xor    $0x7fffffff,%esi
    1a03:	89 72 08             	mov    %esi,0x8(%rdx)
    1a06:	c3                   	ret    
    1a07:	66 0f 1f 84 00 00 00 	nopw   0x0(%rax,%rax,1)
    1a0e:	00 00 
    1a10:	c3                   	ret    
    1a11:	0f 1f 80 00 00 00 00 	nopl   0x0(%rax)
    1a18:	74 9b                	je     19b5 <riscv_dsp_sub_q31+0xf5>
    1a1a:	05 ff ff ff 7f       	add    $0x7fffffff,%eax
    1a1f:	39 c1                	cmp    %eax,%ecx
    1a21:	7e 92                	jle    19b5 <riscv_dsp_sub_q31+0xf5>
    1a23:	eb 84                	jmp    19a9 <riscv_dsp_sub_q31+0xe9>
    1a25:	0f 1f 00             	nopl   (%rax)
    1a28:	74 ad                	je     19d7 <riscv_dsp_sub_q31+0x117>
    1a2a:	05 ff ff ff 7f       	add    $0x7fffffff,%eax
    1a2f:	39 c1                	cmp    %eax,%ecx
    1a31:	7e a4                	jle    19d7 <riscv_dsp_sub_q31+0x117>
    1a33:	c1 f9 1f             	sar    $0x1f,%ecx
    1a36:	81 f1 ff ff ff 7f    	xor    $0x7fffffff,%ecx
    1a3c:	41 89 c8             	mov    %ecx,%r8d
    1a3f:	eb 96                	jmp    19d7 <riscv_dsp_sub_q31+0x117>
    1a41:	0f 1f 80 00 00 00 00 	nopl   0x0(%rax)
    1a48:	74 b9                	je     1a03 <riscv_dsp_sub_q31+0x143>
    1a4a:	05 ff ff ff 7f       	add    $0x7fffffff,%eax
    1a4f:	39 c1                	cmp    %eax,%ecx
    1a51:	7f a5                	jg     19f8 <riscv_dsp_sub_q31+0x138>
    1a53:	eb ae                	jmp    1a03 <riscv_dsp_sub_q31+0x143>
    1a55:	0f 1f 00             	nopl   (%rax)
    1a58:	c3                   	ret    
    1a59:	41 89 c9             	mov    %ecx,%r9d
    1a5c:	e9 31 ff ff ff       	jmp    1992 <riscv_dsp_sub_q31+0xd2>

Disassembly of section .fini:

0000000000001a64 <_fini>:
    1a64:	f3 0f 1e fa          	endbr64 
    1a68:	48 83 ec 08          	sub    $0x8,%rsp
    1a6c:	48 83 c4 08          	add    $0x8,%rsp
    1a70:	c3                   	ret    
