
t_svm_sigmoid_est_f32:     file format elf64-x86-64


Disassembly of section .init:

0000000000001000 <_init>:
    1000:	f3 0f 1e fa          	endbr64 
    1004:	48 83 ec 08          	sub    $0x8,%rsp
    1008:	48 8b 05 d9 2f 00 00 	mov    0x2fd9(%rip),%rax        # 3fe8 <__gmon_start__@Base>
    100f:	48 85 c0             	test   %rax,%rax
    1012:	74 02                	je     1016 <_init+0x16>
    1014:	ff d0                	call   *%rax
    1016:	48 83 c4 08          	add    $0x8,%rsp
    101a:	c3                   	ret    

Disassembly of section .plt:

0000000000001020 <.plt>:
    1020:	ff 35 6a 2f 00 00    	push   0x2f6a(%rip)        # 3f90 <_GLOBAL_OFFSET_TABLE_+0x8>
    1026:	f2 ff 25 6b 2f 00 00 	bnd jmp *0x2f6b(%rip)        # 3f98 <_GLOBAL_OFFSET_TABLE_+0x10>
    102d:	0f 1f 00             	nopl   (%rax)
    1030:	f3 0f 1e fa          	endbr64 
    1034:	68 00 00 00 00       	push   $0x0
    1039:	f2 e9 e1 ff ff ff    	bnd jmp 1020 <_init+0x20>
    103f:	90                   	nop
    1040:	f3 0f 1e fa          	endbr64 
    1044:	68 01 00 00 00       	push   $0x1
    1049:	f2 e9 d1 ff ff ff    	bnd jmp 1020 <_init+0x20>
    104f:	90                   	nop
    1050:	f3 0f 1e fa          	endbr64 
    1054:	68 02 00 00 00       	push   $0x2
    1059:	f2 e9 c1 ff ff ff    	bnd jmp 1020 <_init+0x20>
    105f:	90                   	nop
    1060:	f3 0f 1e fa          	endbr64 
    1064:	68 03 00 00 00       	push   $0x3
    1069:	f2 e9 b1 ff ff ff    	bnd jmp 1020 <_init+0x20>
    106f:	90                   	nop
    1070:	f3 0f 1e fa          	endbr64 
    1074:	68 04 00 00 00       	push   $0x4
    1079:	f2 e9 a1 ff ff ff    	bnd jmp 1020 <_init+0x20>
    107f:	90                   	nop
    1080:	f3 0f 1e fa          	endbr64 
    1084:	68 05 00 00 00       	push   $0x5
    1089:	f2 e9 91 ff ff ff    	bnd jmp 1020 <_init+0x20>
    108f:	90                   	nop
    1090:	f3 0f 1e fa          	endbr64 
    1094:	68 06 00 00 00       	push   $0x6
    1099:	f2 e9 81 ff ff ff    	bnd jmp 1020 <_init+0x20>
    109f:	90                   	nop

Disassembly of section .plt.got:

00000000000010a0 <__cxa_finalize@plt>:
    10a0:	f3 0f 1e fa          	endbr64 
    10a4:	f2 ff 25 4d 2f 00 00 	bnd jmp *0x2f4d(%rip)        # 3ff8 <__cxa_finalize@GLIBC_2.2.5>
    10ab:	0f 1f 44 00 00       	nopl   0x0(%rax,%rax,1)

Disassembly of section .plt.sec:

00000000000010b0 <puts@plt>:
    10b0:	f3 0f 1e fa          	endbr64 
    10b4:	f2 ff 25 e5 2e 00 00 	bnd jmp *0x2ee5(%rip)        # 3fa0 <puts@GLIBC_2.2.5>
    10bb:	0f 1f 44 00 00       	nopl   0x0(%rax,%rax,1)

00000000000010c0 <fread@plt>:
    10c0:	f3 0f 1e fa          	endbr64 
    10c4:	f2 ff 25 dd 2e 00 00 	bnd jmp *0x2edd(%rip)        # 3fa8 <fread@GLIBC_2.2.5>
    10cb:	0f 1f 44 00 00       	nopl   0x0(%rax,%rax,1)

00000000000010d0 <fclose@plt>:
    10d0:	f3 0f 1e fa          	endbr64 
    10d4:	f2 ff 25 d5 2e 00 00 	bnd jmp *0x2ed5(%rip)        # 3fb0 <fclose@GLIBC_2.2.5>
    10db:	0f 1f 44 00 00       	nopl   0x0(%rax,%rax,1)

00000000000010e0 <__stack_chk_fail@plt>:
    10e0:	f3 0f 1e fa          	endbr64 
    10e4:	f2 ff 25 cd 2e 00 00 	bnd jmp *0x2ecd(%rip)        # 3fb8 <__stack_chk_fail@GLIBC_2.4>
    10eb:	0f 1f 44 00 00       	nopl   0x0(%rax,%rax,1)

00000000000010f0 <tanhf@plt>:
    10f0:	f3 0f 1e fa          	endbr64 
    10f4:	f2 ff 25 c5 2e 00 00 	bnd jmp *0x2ec5(%rip)        # 3fc0 <tanhf@GLIBC_2.2.5>
    10fb:	0f 1f 44 00 00       	nopl   0x0(%rax,%rax,1)

0000000000001100 <fopen@plt>:
    1100:	f3 0f 1e fa          	endbr64 
    1104:	f2 ff 25 bd 2e 00 00 	bnd jmp *0x2ebd(%rip)        # 3fc8 <fopen@GLIBC_2.2.5>
    110b:	0f 1f 44 00 00       	nopl   0x0(%rax,%rax,1)

0000000000001110 <__sprintf_chk@plt>:
    1110:	f3 0f 1e fa          	endbr64 
    1114:	f2 ff 25 b5 2e 00 00 	bnd jmp *0x2eb5(%rip)        # 3fd0 <__sprintf_chk@GLIBC_2.3.4>
    111b:	0f 1f 44 00 00       	nopl   0x0(%rax,%rax,1)

Disassembly of section .text:

0000000000001120 <main>:
    1120:	f3 0f 1e fa          	endbr64 
    1124:	41 57                	push   %r15
    1126:	48 8d 15 eb 0f 00 00 	lea    0xfeb(%rip),%rdx        # 2118 <dualcoe>
    112d:	be 01 00 00 00       	mov    $0x1,%esi
    1132:	4c 8d 05 cf 0e 00 00 	lea    0xecf(%rip),%r8        # 2008 <_IO_stdin_used+0x8>
    1139:	41 56                	push   %r14
    113b:	66 48 0f 6e c2       	movq   %rdx,%xmm0
    1140:	48 8d 0d 27 0f 00 00 	lea    0xf27(%rip),%rcx        # 206e <_IO_stdin_used+0x6e>
    1147:	ba 00 02 00 00       	mov    $0x200,%edx
    114c:	41 55                	push   %r13
    114e:	4c 8d 2d 2a 0f 00 00 	lea    0xf2a(%rip),%r13        # 207f <_IO_stdin_used+0x7f>
    1155:	41 54                	push   %r12
    1157:	55                   	push   %rbp
    1158:	53                   	push   %rbx
    1159:	48 81 ec 88 03 00 00 	sub    $0x388,%rsp
    1160:	64 48 8b 04 25 28 00 	mov    %fs:0x28,%rax
    1167:	00 00 
    1169:	48 89 84 24 78 03 00 	mov    %rax,0x378(%rsp)
    1170:	00 
    1171:	31 c0                	xor    %eax,%eax
    1173:	48 8b 05 ae 0f 00 00 	mov    0xfae(%rip),%rax        # 2128 <dualcoe+0x10>
    117a:	4c 8d a4 24 70 01 00 	lea    0x170(%rsp),%r12
    1181:	00 
    1182:	c7 44 24 18 9a 99 99 	movl   $0x3e99999a,0x18(%rsp)
    1189:	3e 
    118a:	4c 89 e7             	mov    %r12,%rdi
    118d:	48 89 44 24 10       	mov    %rax,0x10(%rsp)
    1192:	48 8d 05 07 0f 00 00 	lea    0xf07(%rip),%rax        # 20a0 <vec>
    1199:	66 48 0f 6e c8       	movq   %rax,%xmm1
    119e:	48 8d 05 6b 2e 00 00 	lea    0x2e6b(%rip),%rax        # 4010 <pclass>
    11a5:	48 89 44 24 30       	mov    %rax,0x30(%rsp)
    11aa:	48 8b 05 7f 0f 00 00 	mov    0xf7f(%rip),%rax        # 2130 <dualcoe+0x18>
    11b1:	66 0f 6c c1          	punpcklqdq %xmm1,%xmm0
    11b5:	0f 29 44 24 20       	movaps %xmm0,0x20(%rsp)
    11ba:	48 89 44 24 38       	mov    %rax,0x38(%rsp)
    11bf:	31 c0                	xor    %eax,%eax
    11c1:	e8 4a ff ff ff       	call   1110 <__sprintf_chk@plt>
    11c6:	4c 89 ee             	mov    %r13,%rsi
    11c9:	4c 89 e7             	mov    %r12,%rdi
    11cc:	e8 2f ff ff ff       	call   1100 <fopen@plt>
    11d1:	48 85 c0             	test   %rax,%rax
    11d4:	0f 84 d9 00 00 00    	je     12b3 <main+0x193>
    11da:	ba 00 02 00 00       	mov    $0x200,%edx
    11df:	be 01 00 00 00       	mov    $0x1,%esi
    11e4:	4c 89 e7             	mov    %r12,%rdi
    11e7:	48 89 c5             	mov    %rax,%rbp
    11ea:	48 8d 0d 57 0e 00 00 	lea    0xe57(%rip),%rcx        # 2048 <_IO_stdin_used+0x48>
    11f1:	4c 8d 05 10 0e 00 00 	lea    0xe10(%rip),%r8        # 2008 <_IO_stdin_used+0x8>
    11f8:	31 c0                	xor    %eax,%eax
    11fa:	e8 11 ff ff ff       	call   1110 <__sprintf_chk@plt>
    11ff:	4c 89 ee             	mov    %r13,%rsi
    1202:	4c 89 e7             	mov    %r12,%rdi
    1205:	e8 f6 fe ff ff       	call   1100 <fopen@plt>
    120a:	48 89 44 24 08       	mov    %rax,0x8(%rsp)
    120f:	48 89 c1             	mov    %rax,%rcx
    1212:	48 85 c0             	test   %rax,%rax
    1215:	0f 84 98 00 00 00    	je     12b3 <main+0x193>
    121b:	ba 1e 00 00 00       	mov    $0x1e,%edx
    1220:	4c 8d b4 24 f0 00 00 	lea    0xf0(%rsp),%r14
    1227:	00 
    1228:	be 04 00 00 00       	mov    $0x4,%esi
    122d:	4c 89 f7             	mov    %r14,%rdi
    1230:	48 8d 5c 24 40       	lea    0x40(%rsp),%rbx
    1235:	4c 8d 64 24 10       	lea    0x10(%rsp),%r12
    123a:	e8 81 fe ff ff       	call   10c0 <fread@plt>
    123f:	48 8d 44 24 70       	lea    0x70(%rsp),%rax
    1244:	4c 8d ac 24 e8 00 00 	lea    0xe8(%rsp),%r13
    124b:	00 
    124c:	48 89 04 24          	mov    %rax,(%rsp)
    1250:	49 89 c7             	mov    %rax,%r15
    1253:	0f 1f 44 00 00       	nopl   0x0(%rax,%rax,1)
    1258:	48 89 e9             	mov    %rbp,%rcx
    125b:	ba 0a 00 00 00       	mov    $0xa,%edx
    1260:	be 04 00 00 00       	mov    $0x4,%esi
    1265:	48 89 df             	mov    %rbx,%rdi
    1268:	e8 53 fe ff ff       	call   10c0 <fread@plt>
    126d:	4c 89 fa             	mov    %r15,%rdx
    1270:	48 89 de             	mov    %rbx,%rsi
    1273:	4c 89 e7             	mov    %r12,%rdi
    1276:	e8 85 01 00 00       	call   1400 <riscv_dsp_svm_sigmoid_est_f32>
    127b:	49 83 c7 04          	add    $0x4,%r15
    127f:	4d 39 fd             	cmp    %r15,%r13
    1282:	75 d4                	jne    1258 <main+0x138>
    1284:	31 c0                	xor    %eax,%eax
    1286:	eb 12                	jmp    129a <main+0x17a>
    1288:	0f 1f 84 00 00 00 00 	nopl   0x0(%rax,%rax,1)
    128f:	00 
    1290:	48 83 c0 04          	add    $0x4,%rax
    1294:	48 83 f8 78          	cmp    $0x78,%rax
    1298:	74 41                	je     12db <main+0x1bb>
    129a:	48 8b 0c 24          	mov    (%rsp),%rcx
    129e:	41 8b 1c 06          	mov    (%r14,%rax,1),%ebx
    12a2:	39 1c 01             	cmp    %ebx,(%rcx,%rax,1)
    12a5:	74 e9                	je     1290 <main+0x170>
    12a7:	48 8d 3d d3 0d 00 00 	lea    0xdd3(%rip),%rdi        # 2081 <_IO_stdin_used+0x81>
    12ae:	e8 fd fd ff ff       	call   10b0 <puts@plt>
    12b3:	83 c8 ff             	or     $0xffffffff,%eax
    12b6:	48 8b 94 24 78 03 00 	mov    0x378(%rsp),%rdx
    12bd:	00 
    12be:	64 48 2b 14 25 28 00 	sub    %fs:0x28,%rdx
    12c5:	00 00 
    12c7:	75 34                	jne    12fd <main+0x1dd>
    12c9:	48 81 c4 88 03 00 00 	add    $0x388,%rsp
    12d0:	5b                   	pop    %rbx
    12d1:	5d                   	pop    %rbp
    12d2:	41 5c                	pop    %r12
    12d4:	41 5d                	pop    %r13
    12d6:	41 5e                	pop    %r14
    12d8:	41 5f                	pop    %r15
    12da:	c3                   	ret    
    12db:	48 8d 3d ad 0d 00 00 	lea    0xdad(%rip),%rdi        # 208f <_IO_stdin_used+0x8f>
    12e2:	e8 c9 fd ff ff       	call   10b0 <puts@plt>
    12e7:	48 89 ef             	mov    %rbp,%rdi
    12ea:	e8 e1 fd ff ff       	call   10d0 <fclose@plt>
    12ef:	48 8b 7c 24 08       	mov    0x8(%rsp),%rdi
    12f4:	e8 d7 fd ff ff       	call   10d0 <fclose@plt>
    12f9:	31 c0                	xor    %eax,%eax
    12fb:	eb b9                	jmp    12b6 <main+0x196>
    12fd:	e8 de fd ff ff       	call   10e0 <__stack_chk_fail@plt>
    1302:	66 2e 0f 1f 84 00 00 	cs nopw 0x0(%rax,%rax,1)
    1309:	00 00 00 
    130c:	0f 1f 40 00          	nopl   0x0(%rax)

0000000000001310 <_start>:
    1310:	f3 0f 1e fa          	endbr64 
    1314:	31 ed                	xor    %ebp,%ebp
    1316:	49 89 d1             	mov    %rdx,%r9
    1319:	5e                   	pop    %rsi
    131a:	48 89 e2             	mov    %rsp,%rdx
    131d:	48 83 e4 f0          	and    $0xfffffffffffffff0,%rsp
    1321:	50                   	push   %rax
    1322:	54                   	push   %rsp
    1323:	45 31 c0             	xor    %r8d,%r8d
    1326:	31 c9                	xor    %ecx,%ecx
    1328:	48 8d 3d f1 fd ff ff 	lea    -0x20f(%rip),%rdi        # 1120 <main>
    132f:	ff 15 a3 2c 00 00    	call   *0x2ca3(%rip)        # 3fd8 <__libc_start_main@GLIBC_2.34>
    1335:	f4                   	hlt    
    1336:	66 2e 0f 1f 84 00 00 	cs nopw 0x0(%rax,%rax,1)
    133d:	00 00 00 

0000000000001340 <deregister_tm_clones>:
    1340:	48 8d 3d d1 2c 00 00 	lea    0x2cd1(%rip),%rdi        # 4018 <__TMC_END__>
    1347:	48 8d 05 ca 2c 00 00 	lea    0x2cca(%rip),%rax        # 4018 <__TMC_END__>
    134e:	48 39 f8             	cmp    %rdi,%rax
    1351:	74 15                	je     1368 <deregister_tm_clones+0x28>
    1353:	48 8b 05 86 2c 00 00 	mov    0x2c86(%rip),%rax        # 3fe0 <_ITM_deregisterTMCloneTable@Base>
    135a:	48 85 c0             	test   %rax,%rax
    135d:	74 09                	je     1368 <deregister_tm_clones+0x28>
    135f:	ff e0                	jmp    *%rax
    1361:	0f 1f 80 00 00 00 00 	nopl   0x0(%rax)
    1368:	c3                   	ret    
    1369:	0f 1f 80 00 00 00 00 	nopl   0x0(%rax)

0000000000001370 <register_tm_clones>:
    1370:	48 8d 3d a1 2c 00 00 	lea    0x2ca1(%rip),%rdi        # 4018 <__TMC_END__>
    1377:	48 8d 35 9a 2c 00 00 	lea    0x2c9a(%rip),%rsi        # 4018 <__TMC_END__>
    137e:	48 29 fe             	sub    %rdi,%rsi
    1381:	48 89 f0             	mov    %rsi,%rax
    1384:	48 c1 ee 3f          	shr    $0x3f,%rsi
    1388:	48 c1 f8 03          	sar    $0x3,%rax
    138c:	48 01 c6             	add    %rax,%rsi
    138f:	48 d1 fe             	sar    %rsi
    1392:	74 14                	je     13a8 <register_tm_clones+0x38>
    1394:	48 8b 05 55 2c 00 00 	mov    0x2c55(%rip),%rax        # 3ff0 <_ITM_registerTMCloneTable@Base>
    139b:	48 85 c0             	test   %rax,%rax
    139e:	74 08                	je     13a8 <register_tm_clones+0x38>
    13a0:	ff e0                	jmp    *%rax
    13a2:	66 0f 1f 44 00 00    	nopw   0x0(%rax,%rax,1)
    13a8:	c3                   	ret    
    13a9:	0f 1f 80 00 00 00 00 	nopl   0x0(%rax)

00000000000013b0 <__do_global_dtors_aux>:
    13b0:	f3 0f 1e fa          	endbr64 
    13b4:	80 3d 5d 2c 00 00 00 	cmpb   $0x0,0x2c5d(%rip)        # 4018 <__TMC_END__>
    13bb:	75 2b                	jne    13e8 <__do_global_dtors_aux+0x38>
    13bd:	55                   	push   %rbp
    13be:	48 83 3d 32 2c 00 00 	cmpq   $0x0,0x2c32(%rip)        # 3ff8 <__cxa_finalize@GLIBC_2.2.5>
    13c5:	00 
    13c6:	48 89 e5             	mov    %rsp,%rbp
    13c9:	74 0c                	je     13d7 <__do_global_dtors_aux+0x27>
    13cb:	48 8b 3d 36 2c 00 00 	mov    0x2c36(%rip),%rdi        # 4008 <__dso_handle>
    13d2:	e8 c9 fc ff ff       	call   10a0 <__cxa_finalize@plt>
    13d7:	e8 64 ff ff ff       	call   1340 <deregister_tm_clones>
    13dc:	c6 05 35 2c 00 00 01 	movb   $0x1,0x2c35(%rip)        # 4018 <__TMC_END__>
    13e3:	5d                   	pop    %rbp
    13e4:	c3                   	ret    
    13e5:	0f 1f 00             	nopl   (%rax)
    13e8:	c3                   	ret    
    13e9:	0f 1f 80 00 00 00 00 	nopl   0x0(%rax)

00000000000013f0 <frame_dummy>:
    13f0:	f3 0f 1e fa          	endbr64 
    13f4:	e9 77 ff ff ff       	jmp    1370 <register_tm_clones>
    13f9:	0f 1f 80 00 00 00 00 	nopl   0x0(%rax)

0000000000001400 <riscv_dsp_svm_sigmoid_est_f32>:
    1400:	f3 0f 1e fa          	endbr64 
    1404:	41 57                	push   %r15
    1406:	41 56                	push   %r14
    1408:	41 55                	push   %r13
    140a:	41 54                	push   %r12
    140c:	55                   	push   %rbp
    140d:	53                   	push   %rbx
    140e:	48 83 ec 48          	sub    $0x48,%rsp
    1412:	f3 0f 10 7f 2c       	movss  0x2c(%rdi),%xmm7
    1417:	8b 07                	mov    (%rdi),%eax
    1419:	f3 0f 10 5f 08       	movss  0x8(%rdi),%xmm3
    141e:	48 8b 6f 18          	mov    0x18(%rdi),%rbp
    1422:	48 89 7c 24 30       	mov    %rdi,0x30(%rsp)
    1427:	f3 0f 11 7c 24 0c    	movss  %xmm7,0xc(%rsp)
    142d:	f3 0f 10 7f 28       	movss  0x28(%rdi),%xmm7
    1432:	44 8b 77 04          	mov    0x4(%rdi),%r14d
    1436:	48 89 54 24 38       	mov    %rdx,0x38(%rsp)
    143b:	4c 8b 7f 10          	mov    0x10(%rdi),%r15
    143f:	f3 0f 11 7c 24 18    	movss  %xmm7,0x18(%rsp)
    1445:	85 c0                	test   %eax,%eax
    1447:	0f 84 8a 01 00 00    	je     15d7 <riscv_dsp_svm_sigmoid_est_f32+0x1d7>
    144d:	49 8d 04 87          	lea    (%r15,%rax,4),%rax
    1451:	44 89 f3             	mov    %r14d,%ebx
    1454:	41 8d 56 ff          	lea    -0x1(%r14),%edx
    1458:	49 89 f4             	mov    %rsi,%r12
    145b:	48 89 44 24 10       	mov    %rax,0x10(%rsp)
    1460:	44 89 f0             	mov    %r14d,%eax
    1463:	83 e3 fc             	and    $0xfffffffc,%ebx
    1466:	66 0f ef ff          	pxor   %xmm7,%xmm7
    146a:	c1 e8 02             	shr    $0x2,%eax
    146d:	89 54 24 1c          	mov    %edx,0x1c(%rsp)
    1471:	8d 70 ff             	lea    -0x1(%rax),%esi
    1474:	89 d8                	mov    %ebx,%eax
    1476:	f3 0f 11 7c 24 08    	movss  %xmm7,0x8(%rsp)
    147c:	48 c1 e0 02          	shl    $0x2,%rax
    1480:	48 83 c6 01          	add    $0x1,%rsi
    1484:	48 89 44 24 28       	mov    %rax,0x28(%rsp)
    1489:	89 d0                	mov    %edx,%eax
    148b:	48 c1 e6 04          	shl    $0x4,%rsi
    148f:	48 8d 04 85 04 00 00 	lea    0x4(,%rax,4),%rax
    1496:	00 
    1497:	48 89 44 24 20       	mov    %rax,0x20(%rsp)
    149c:	4c 89 e0             	mov    %r12,%rax
    149f:	45 89 f4             	mov    %r14d,%r12d
    14a2:	4d 89 fe             	mov    %r15,%r14
    14a5:	49 89 c5             	mov    %rax,%r13
    14a8:	49 89 ef             	mov    %rbp,%r15
    14ab:	48 89 f5             	mov    %rsi,%rbp
    14ae:	66 90                	xchg   %ax,%ax
    14b0:	66 0f ef c0          	pxor   %xmm0,%xmm0
    14b4:	45 85 e4             	test   %r12d,%r12d
    14b7:	0f 84 a6 00 00 00    	je     1563 <riscv_dsp_svm_sigmoid_est_f32+0x163>
    14bd:	83 7c 24 1c 02       	cmpl   $0x2,0x1c(%rsp)
    14c2:	0f 86 01 01 00 00    	jbe    15c9 <riscv_dsp_svm_sigmoid_est_f32+0x1c9>
    14c8:	31 c0                	xor    %eax,%eax
    14ca:	66 0f ef c0          	pxor   %xmm0,%xmm0
    14ce:	66 90                	xchg   %ax,%ax
    14d0:	41 0f 10 14 07       	movups (%r15,%rax,1),%xmm2
    14d5:	41 0f 10 64 05 00    	movups 0x0(%r13,%rax,1),%xmm4
    14db:	48 83 c0 10          	add    $0x10,%rax
    14df:	0f 59 d4             	mulps  %xmm4,%xmm2
    14e2:	f3 0f 58 c2          	addss  %xmm2,%xmm0
    14e6:	0f 28 ca             	movaps %xmm2,%xmm1
    14e9:	0f c6 ca 55          	shufps $0x55,%xmm2,%xmm1
    14ed:	f3 0f 58 c8          	addss  %xmm0,%xmm1
    14f1:	0f 28 c2             	movaps %xmm2,%xmm0
    14f4:	0f 15 c2             	unpckhps %xmm2,%xmm0
    14f7:	0f c6 d2 ff          	shufps $0xff,%xmm2,%xmm2
    14fb:	f3 0f 58 c1          	addss  %xmm1,%xmm0
    14ff:	f3 0f 58 c2          	addss  %xmm2,%xmm0
    1503:	48 39 e8             	cmp    %rbp,%rax
    1506:	75 c8                	jne    14d0 <riscv_dsp_svm_sigmoid_est_f32+0xd0>
    1508:	48 8b 44 24 28       	mov    0x28(%rsp),%rax
    150d:	4d 8d 0c 07          	lea    (%r15,%rax,1),%r9
    1511:	89 d8                	mov    %ebx,%eax
    1513:	41 39 dc             	cmp    %ebx,%r12d
    1516:	74 46                	je     155e <riscv_dsp_svm_sigmoid_est_f32+0x15e>
    1518:	41 89 c0             	mov    %eax,%r8d
    151b:	f3 43 0f 10 4c 85 00 	movss  0x0(%r13,%r8,4),%xmm1
    1522:	f3 41 0f 59 09       	mulss  (%r9),%xmm1
    1527:	44 8d 40 01          	lea    0x1(%rax),%r8d
    152b:	f3 0f 58 c1          	addss  %xmm1,%xmm0
    152f:	45 39 c4             	cmp    %r8d,%r12d
    1532:	76 2a                	jbe    155e <riscv_dsp_svm_sigmoid_est_f32+0x15e>
    1534:	f3 43 0f 10 4c 85 00 	movss  0x0(%r13,%r8,4),%xmm1
    153b:	f3 41 0f 59 49 04    	mulss  0x4(%r9),%xmm1
    1541:	83 c0 02             	add    $0x2,%eax
    1544:	f3 0f 58 c1          	addss  %xmm1,%xmm0
    1548:	41 39 c4             	cmp    %eax,%r12d
    154b:	76 11                	jbe    155e <riscv_dsp_svm_sigmoid_est_f32+0x15e>
    154d:	f3 41 0f 10 4c 85 00 	movss  0x0(%r13,%rax,4),%xmm1
    1554:	f3 41 0f 59 49 08    	mulss  0x8(%r9),%xmm1
    155a:	f3 0f 58 c1          	addss  %xmm1,%xmm0
    155e:	4c 03 7c 24 20       	add    0x20(%rsp),%r15
    1563:	f3 0f 59 44 24 0c    	mulss  0xc(%rsp),%xmm0
    1569:	49 83 c6 04          	add    $0x4,%r14
    156d:	f3 0f 11 5c 24 04    	movss  %xmm3,0x4(%rsp)
    1573:	f3 0f 58 44 24 18    	addss  0x18(%rsp),%xmm0
    1579:	e8 72 fb ff ff       	call   10f0 <tanhf@plt>
    157e:	f3 41 0f 59 46 fc    	mulss  -0x4(%r14),%xmm0
    1584:	f3 0f 10 5c 24 04    	movss  0x4(%rsp),%xmm3
    158a:	f3 0f 58 d8          	addss  %xmm0,%xmm3
    158e:	4c 3b 74 24 10       	cmp    0x10(%rsp),%r14
    1593:	0f 85 17 ff ff ff    	jne    14b0 <riscv_dsp_svm_sigmoid_est_f32+0xb0>
    1599:	f3 0f 10 7c 24 08    	movss  0x8(%rsp),%xmm7
    159f:	48 8b 44 24 30       	mov    0x30(%rsp),%rax
    15a4:	31 d2                	xor    %edx,%edx
    15a6:	48 8b 7c 24 38       	mov    0x38(%rsp),%rdi
    15ab:	0f 2f fb             	comiss %xmm3,%xmm7
    15ae:	48 8b 40 20          	mov    0x20(%rax),%rax
    15b2:	0f 92 c2             	setb   %dl
    15b5:	8b 04 90             	mov    (%rax,%rdx,4),%eax
    15b8:	89 07                	mov    %eax,(%rdi)
    15ba:	48 83 c4 48          	add    $0x48,%rsp
    15be:	5b                   	pop    %rbx
    15bf:	5d                   	pop    %rbp
    15c0:	41 5c                	pop    %r12
    15c2:	41 5d                	pop    %r13
    15c4:	41 5e                	pop    %r14
    15c6:	41 5f                	pop    %r15
    15c8:	c3                   	ret    
    15c9:	4d 89 f9             	mov    %r15,%r9
    15cc:	31 c0                	xor    %eax,%eax
    15ce:	66 0f ef c0          	pxor   %xmm0,%xmm0
    15d2:	e9 41 ff ff ff       	jmp    1518 <riscv_dsp_svm_sigmoid_est_f32+0x118>
    15d7:	66 0f ef ff          	pxor   %xmm7,%xmm7
    15db:	f3 0f 11 7c 24 08    	movss  %xmm7,0x8(%rsp)
    15e1:	eb b6                	jmp    1599 <riscv_dsp_svm_sigmoid_est_f32+0x199>

Disassembly of section .fini:

00000000000015e4 <_fini>:
    15e4:	f3 0f 1e fa          	endbr64 
    15e8:	48 83 ec 08          	sub    $0x8,%rsp
    15ec:	48 83 c4 08          	add    $0x8,%rsp
    15f0:	c3                   	ret    
