
t_svm_rbf_est_f32:     file format elf64-x86-64


Disassembly of section .init:

0000000000001000 <_init>:
    1000:	f3 0f 1e fa          	endbr64 
    1004:	48 83 ec 08          	sub    $0x8,%rsp
    1008:	48 8b 05 d9 2f 00 00 	mov    0x2fd9(%rip),%rax        # 3fe8 <__gmon_start__@Base>
    100f:	48 85 c0             	test   %rax,%rax
    1012:	74 02                	je     1016 <_init+0x16>
    1014:	ff d0                	call   *%rax
    1016:	48 83 c4 08          	add    $0x8,%rsp
    101a:	c3                   	ret    

Disassembly of section .plt:

0000000000001020 <.plt>:
    1020:	ff 35 6a 2f 00 00    	push   0x2f6a(%rip)        # 3f90 <_GLOBAL_OFFSET_TABLE_+0x8>
    1026:	f2 ff 25 6b 2f 00 00 	bnd jmp *0x2f6b(%rip)        # 3f98 <_GLOBAL_OFFSET_TABLE_+0x10>
    102d:	0f 1f 00             	nopl   (%rax)
    1030:	f3 0f 1e fa          	endbr64 
    1034:	68 00 00 00 00       	push   $0x0
    1039:	f2 e9 e1 ff ff ff    	bnd jmp 1020 <_init+0x20>
    103f:	90                   	nop
    1040:	f3 0f 1e fa          	endbr64 
    1044:	68 01 00 00 00       	push   $0x1
    1049:	f2 e9 d1 ff ff ff    	bnd jmp 1020 <_init+0x20>
    104f:	90                   	nop
    1050:	f3 0f 1e fa          	endbr64 
    1054:	68 02 00 00 00       	push   $0x2
    1059:	f2 e9 c1 ff ff ff    	bnd jmp 1020 <_init+0x20>
    105f:	90                   	nop
    1060:	f3 0f 1e fa          	endbr64 
    1064:	68 03 00 00 00       	push   $0x3
    1069:	f2 e9 b1 ff ff ff    	bnd jmp 1020 <_init+0x20>
    106f:	90                   	nop
    1070:	f3 0f 1e fa          	endbr64 
    1074:	68 04 00 00 00       	push   $0x4
    1079:	f2 e9 a1 ff ff ff    	bnd jmp 1020 <_init+0x20>
    107f:	90                   	nop
    1080:	f3 0f 1e fa          	endbr64 
    1084:	68 05 00 00 00       	push   $0x5
    1089:	f2 e9 91 ff ff ff    	bnd jmp 1020 <_init+0x20>
    108f:	90                   	nop
    1090:	f3 0f 1e fa          	endbr64 
    1094:	68 06 00 00 00       	push   $0x6
    1099:	f2 e9 81 ff ff ff    	bnd jmp 1020 <_init+0x20>
    109f:	90                   	nop

Disassembly of section .plt.got:

00000000000010a0 <__cxa_finalize@plt>:
    10a0:	f3 0f 1e fa          	endbr64 
    10a4:	f2 ff 25 4d 2f 00 00 	bnd jmp *0x2f4d(%rip)        # 3ff8 <__cxa_finalize@GLIBC_2.2.5>
    10ab:	0f 1f 44 00 00       	nopl   0x0(%rax,%rax,1)

Disassembly of section .plt.sec:

00000000000010b0 <puts@plt>:
    10b0:	f3 0f 1e fa          	endbr64 
    10b4:	f2 ff 25 e5 2e 00 00 	bnd jmp *0x2ee5(%rip)        # 3fa0 <puts@GLIBC_2.2.5>
    10bb:	0f 1f 44 00 00       	nopl   0x0(%rax,%rax,1)

00000000000010c0 <expf@plt>:
    10c0:	f3 0f 1e fa          	endbr64 
    10c4:	f2 ff 25 dd 2e 00 00 	bnd jmp *0x2edd(%rip)        # 3fa8 <expf@GLIBC_2.27>
    10cb:	0f 1f 44 00 00       	nopl   0x0(%rax,%rax,1)

00000000000010d0 <fread@plt>:
    10d0:	f3 0f 1e fa          	endbr64 
    10d4:	f2 ff 25 d5 2e 00 00 	bnd jmp *0x2ed5(%rip)        # 3fb0 <fread@GLIBC_2.2.5>
    10db:	0f 1f 44 00 00       	nopl   0x0(%rax,%rax,1)

00000000000010e0 <fclose@plt>:
    10e0:	f3 0f 1e fa          	endbr64 
    10e4:	f2 ff 25 cd 2e 00 00 	bnd jmp *0x2ecd(%rip)        # 3fb8 <fclose@GLIBC_2.2.5>
    10eb:	0f 1f 44 00 00       	nopl   0x0(%rax,%rax,1)

00000000000010f0 <__stack_chk_fail@plt>:
    10f0:	f3 0f 1e fa          	endbr64 
    10f4:	f2 ff 25 c5 2e 00 00 	bnd jmp *0x2ec5(%rip)        # 3fc0 <__stack_chk_fail@GLIBC_2.4>
    10fb:	0f 1f 44 00 00       	nopl   0x0(%rax,%rax,1)

0000000000001100 <fopen@plt>:
    1100:	f3 0f 1e fa          	endbr64 
    1104:	f2 ff 25 bd 2e 00 00 	bnd jmp *0x2ebd(%rip)        # 3fc8 <fopen@GLIBC_2.2.5>
    110b:	0f 1f 44 00 00       	nopl   0x0(%rax,%rax,1)

0000000000001110 <__sprintf_chk@plt>:
    1110:	f3 0f 1e fa          	endbr64 
    1114:	f2 ff 25 b5 2e 00 00 	bnd jmp *0x2eb5(%rip)        # 3fd0 <__sprintf_chk@GLIBC_2.3.4>
    111b:	0f 1f 44 00 00       	nopl   0x0(%rax,%rax,1)

Disassembly of section .text:

0000000000001120 <main>:
    1120:	f3 0f 1e fa          	endbr64 
    1124:	41 57                	push   %r15
    1126:	48 8d 15 eb 0f 00 00 	lea    0xfeb(%rip),%rdx        # 2118 <dualcoe>
    112d:	be 01 00 00 00       	mov    $0x1,%esi
    1132:	4c 8d 05 cf 0e 00 00 	lea    0xecf(%rip),%r8        # 2008 <_IO_stdin_used+0x8>
    1139:	41 56                	push   %r14
    113b:	66 48 0f 6e c2       	movq   %rdx,%xmm0
    1140:	48 8d 0d 23 0f 00 00 	lea    0xf23(%rip),%rcx        # 206a <_IO_stdin_used+0x6a>
    1147:	ba 00 02 00 00       	mov    $0x200,%edx
    114c:	41 55                	push   %r13
    114e:	4c 8d 2d 26 0f 00 00 	lea    0xf26(%rip),%r13        # 207b <_IO_stdin_used+0x7b>
    1155:	41 54                	push   %r12
    1157:	55                   	push   %rbp
    1158:	53                   	push   %rbx
    1159:	48 81 ec 88 03 00 00 	sub    $0x388,%rsp
    1160:	64 48 8b 04 25 28 00 	mov    %fs:0x28,%rax
    1167:	00 00 
    1169:	48 89 84 24 78 03 00 	mov    %rax,0x378(%rsp)
    1170:	00 
    1171:	31 c0                	xor    %eax,%eax
    1173:	48 8b 05 ae 0f 00 00 	mov    0xfae(%rip),%rax        # 2128 <dualcoe+0x10>
    117a:	4c 8d a4 24 70 01 00 	lea    0x170(%rsp),%r12
    1181:	00 
    1182:	c7 44 24 18 cd cc cc 	movl   $0x3ecccccd,0x18(%rsp)
    1189:	3e 
    118a:	4c 89 e7             	mov    %r12,%rdi
    118d:	c7 44 24 38 cd cc 4c 	movl   $0x3e4ccccd,0x38(%rsp)
    1194:	3e 
    1195:	48 89 44 24 10       	mov    %rax,0x10(%rsp)
    119a:	48 8d 05 ff 0e 00 00 	lea    0xeff(%rip),%rax        # 20a0 <vec>
    11a1:	66 48 0f 6e c8       	movq   %rax,%xmm1
    11a6:	48 8d 05 63 2e 00 00 	lea    0x2e63(%rip),%rax        # 4010 <pclass>
    11ad:	48 89 44 24 30       	mov    %rax,0x30(%rsp)
    11b2:	66 0f 6c c1          	punpcklqdq %xmm1,%xmm0
    11b6:	31 c0                	xor    %eax,%eax
    11b8:	0f 29 44 24 20       	movaps %xmm0,0x20(%rsp)
    11bd:	e8 4e ff ff ff       	call   1110 <__sprintf_chk@plt>
    11c2:	4c 89 ee             	mov    %r13,%rsi
    11c5:	4c 89 e7             	mov    %r12,%rdi
    11c8:	e8 33 ff ff ff       	call   1100 <fopen@plt>
    11cd:	48 85 c0             	test   %rax,%rax
    11d0:	0f 84 cd 00 00 00    	je     12a3 <main+0x183>
    11d6:	ba 00 02 00 00       	mov    $0x200,%edx
    11db:	be 01 00 00 00       	mov    $0x1,%esi
    11e0:	4c 89 e7             	mov    %r12,%rdi
    11e3:	48 89 c5             	mov    %rax,%rbp
    11e6:	48 8d 0d 5b 0e 00 00 	lea    0xe5b(%rip),%rcx        # 2048 <_IO_stdin_used+0x48>
    11ed:	4c 8d 05 14 0e 00 00 	lea    0xe14(%rip),%r8        # 2008 <_IO_stdin_used+0x8>
    11f4:	31 c0                	xor    %eax,%eax
    11f6:	e8 15 ff ff ff       	call   1110 <__sprintf_chk@plt>
    11fb:	4c 89 ee             	mov    %r13,%rsi
    11fe:	4c 89 e7             	mov    %r12,%rdi
    1201:	e8 fa fe ff ff       	call   1100 <fopen@plt>
    1206:	48 89 44 24 08       	mov    %rax,0x8(%rsp)
    120b:	48 89 c1             	mov    %rax,%rcx
    120e:	48 85 c0             	test   %rax,%rax
    1211:	0f 84 8c 00 00 00    	je     12a3 <main+0x183>
    1217:	ba 1e 00 00 00       	mov    $0x1e,%edx
    121c:	4c 8d b4 24 f0 00 00 	lea    0xf0(%rsp),%r14
    1223:	00 
    1224:	be 04 00 00 00       	mov    $0x4,%esi
    1229:	4c 89 f7             	mov    %r14,%rdi
    122c:	48 8d 5c 24 40       	lea    0x40(%rsp),%rbx
    1231:	4c 8d 64 24 10       	lea    0x10(%rsp),%r12
    1236:	e8 95 fe ff ff       	call   10d0 <fread@plt>
    123b:	48 8d 44 24 70       	lea    0x70(%rsp),%rax
    1240:	4c 8d ac 24 e8 00 00 	lea    0xe8(%rsp),%r13
    1247:	00 
    1248:	48 89 04 24          	mov    %rax,(%rsp)
    124c:	49 89 c7             	mov    %rax,%r15
    124f:	90                   	nop
    1250:	48 89 e9             	mov    %rbp,%rcx
    1253:	ba 0a 00 00 00       	mov    $0xa,%edx
    1258:	be 04 00 00 00       	mov    $0x4,%esi
    125d:	48 89 df             	mov    %rbx,%rdi
    1260:	e8 6b fe ff ff       	call   10d0 <fread@plt>
    1265:	4c 89 fa             	mov    %r15,%rdx
    1268:	48 89 de             	mov    %rbx,%rsi
    126b:	4c 89 e7             	mov    %r12,%rdi
    126e:	e8 7d 01 00 00       	call   13f0 <riscv_dsp_svm_rbf_est_f32>
    1273:	49 83 c7 04          	add    $0x4,%r15
    1277:	4d 39 ef             	cmp    %r13,%r15
    127a:	75 d4                	jne    1250 <main+0x130>
    127c:	31 c0                	xor    %eax,%eax
    127e:	eb 0a                	jmp    128a <main+0x16a>
    1280:	48 83 c0 04          	add    $0x4,%rax
    1284:	48 83 f8 78          	cmp    $0x78,%rax
    1288:	74 41                	je     12cb <main+0x1ab>
    128a:	48 8b 0c 24          	mov    (%rsp),%rcx
    128e:	41 8b 1c 06          	mov    (%r14,%rax,1),%ebx
    1292:	39 1c 01             	cmp    %ebx,(%rcx,%rax,1)
    1295:	74 e9                	je     1280 <main+0x160>
    1297:	48 8d 3d df 0d 00 00 	lea    0xddf(%rip),%rdi        # 207d <_IO_stdin_used+0x7d>
    129e:	e8 0d fe ff ff       	call   10b0 <puts@plt>
    12a3:	83 c8 ff             	or     $0xffffffff,%eax
    12a6:	48 8b 94 24 78 03 00 	mov    0x378(%rsp),%rdx
    12ad:	00 
    12ae:	64 48 2b 14 25 28 00 	sub    %fs:0x28,%rdx
    12b5:	00 00 
    12b7:	75 34                	jne    12ed <main+0x1cd>
    12b9:	48 81 c4 88 03 00 00 	add    $0x388,%rsp
    12c0:	5b                   	pop    %rbx
    12c1:	5d                   	pop    %rbp
    12c2:	41 5c                	pop    %r12
    12c4:	41 5d                	pop    %r13
    12c6:	41 5e                	pop    %r14
    12c8:	41 5f                	pop    %r15
    12ca:	c3                   	ret    
    12cb:	48 8d 3d b9 0d 00 00 	lea    0xdb9(%rip),%rdi        # 208b <_IO_stdin_used+0x8b>
    12d2:	e8 d9 fd ff ff       	call   10b0 <puts@plt>
    12d7:	48 8b 7c 24 08       	mov    0x8(%rsp),%rdi
    12dc:	e8 ff fd ff ff       	call   10e0 <fclose@plt>
    12e1:	48 89 ef             	mov    %rbp,%rdi
    12e4:	e8 f7 fd ff ff       	call   10e0 <fclose@plt>
    12e9:	31 c0                	xor    %eax,%eax
    12eb:	eb b9                	jmp    12a6 <main+0x186>
    12ed:	e8 fe fd ff ff       	call   10f0 <__stack_chk_fail@plt>
    12f2:	66 2e 0f 1f 84 00 00 	cs nopw 0x0(%rax,%rax,1)
    12f9:	00 00 00 
    12fc:	0f 1f 40 00          	nopl   0x0(%rax)

0000000000001300 <_start>:
    1300:	f3 0f 1e fa          	endbr64 
    1304:	31 ed                	xor    %ebp,%ebp
    1306:	49 89 d1             	mov    %rdx,%r9
    1309:	5e                   	pop    %rsi
    130a:	48 89 e2             	mov    %rsp,%rdx
    130d:	48 83 e4 f0          	and    $0xfffffffffffffff0,%rsp
    1311:	50                   	push   %rax
    1312:	54                   	push   %rsp
    1313:	45 31 c0             	xor    %r8d,%r8d
    1316:	31 c9                	xor    %ecx,%ecx
    1318:	48 8d 3d 01 fe ff ff 	lea    -0x1ff(%rip),%rdi        # 1120 <main>
    131f:	ff 15 b3 2c 00 00    	call   *0x2cb3(%rip)        # 3fd8 <__libc_start_main@GLIBC_2.34>
    1325:	f4                   	hlt    
    1326:	66 2e 0f 1f 84 00 00 	cs nopw 0x0(%rax,%rax,1)
    132d:	00 00 00 

0000000000001330 <deregister_tm_clones>:
    1330:	48 8d 3d e1 2c 00 00 	lea    0x2ce1(%rip),%rdi        # 4018 <__TMC_END__>
    1337:	48 8d 05 da 2c 00 00 	lea    0x2cda(%rip),%rax        # 4018 <__TMC_END__>
    133e:	48 39 f8             	cmp    %rdi,%rax
    1341:	74 15                	je     1358 <deregister_tm_clones+0x28>
    1343:	48 8b 05 96 2c 00 00 	mov    0x2c96(%rip),%rax        # 3fe0 <_ITM_deregisterTMCloneTable@Base>
    134a:	48 85 c0             	test   %rax,%rax
    134d:	74 09                	je     1358 <deregister_tm_clones+0x28>
    134f:	ff e0                	jmp    *%rax
    1351:	0f 1f 80 00 00 00 00 	nopl   0x0(%rax)
    1358:	c3                   	ret    
    1359:	0f 1f 80 00 00 00 00 	nopl   0x0(%rax)

0000000000001360 <register_tm_clones>:
    1360:	48 8d 3d b1 2c 00 00 	lea    0x2cb1(%rip),%rdi        # 4018 <__TMC_END__>
    1367:	48 8d 35 aa 2c 00 00 	lea    0x2caa(%rip),%rsi        # 4018 <__TMC_END__>
    136e:	48 29 fe             	sub    %rdi,%rsi
    1371:	48 89 f0             	mov    %rsi,%rax
    1374:	48 c1 ee 3f          	shr    $0x3f,%rsi
    1378:	48 c1 f8 03          	sar    $0x3,%rax
    137c:	48 01 c6             	add    %rax,%rsi
    137f:	48 d1 fe             	sar    %rsi
    1382:	74 14                	je     1398 <register_tm_clones+0x38>
    1384:	48 8b 05 65 2c 00 00 	mov    0x2c65(%rip),%rax        # 3ff0 <_ITM_registerTMCloneTable@Base>
    138b:	48 85 c0             	test   %rax,%rax
    138e:	74 08                	je     1398 <register_tm_clones+0x38>
    1390:	ff e0                	jmp    *%rax
    1392:	66 0f 1f 44 00 00    	nopw   0x0(%rax,%rax,1)
    1398:	c3                   	ret    
    1399:	0f 1f 80 00 00 00 00 	nopl   0x0(%rax)

00000000000013a0 <__do_global_dtors_aux>:
    13a0:	f3 0f 1e fa          	endbr64 
    13a4:	80 3d 6d 2c 00 00 00 	cmpb   $0x0,0x2c6d(%rip)        # 4018 <__TMC_END__>
    13ab:	75 2b                	jne    13d8 <__do_global_dtors_aux+0x38>
    13ad:	55                   	push   %rbp
    13ae:	48 83 3d 42 2c 00 00 	cmpq   $0x0,0x2c42(%rip)        # 3ff8 <__cxa_finalize@GLIBC_2.2.5>
    13b5:	00 
    13b6:	48 89 e5             	mov    %rsp,%rbp
    13b9:	74 0c                	je     13c7 <__do_global_dtors_aux+0x27>
    13bb:	48 8b 3d 46 2c 00 00 	mov    0x2c46(%rip),%rdi        # 4008 <__dso_handle>
    13c2:	e8 d9 fc ff ff       	call   10a0 <__cxa_finalize@plt>
    13c7:	e8 64 ff ff ff       	call   1330 <deregister_tm_clones>
    13cc:	c6 05 45 2c 00 00 01 	movb   $0x1,0x2c45(%rip)        # 4018 <__TMC_END__>
    13d3:	5d                   	pop    %rbp
    13d4:	c3                   	ret    
    13d5:	0f 1f 00             	nopl   (%rax)
    13d8:	c3                   	ret    
    13d9:	0f 1f 80 00 00 00 00 	nopl   0x0(%rax)

00000000000013e0 <frame_dummy>:
    13e0:	f3 0f 1e fa          	endbr64 
    13e4:	e9 77 ff ff ff       	jmp    1360 <register_tm_clones>
    13e9:	0f 1f 80 00 00 00 00 	nopl   0x0(%rax)

00000000000013f0 <riscv_dsp_svm_rbf_est_f32>:
    13f0:	f3 0f 1e fa          	endbr64 
    13f4:	41 57                	push   %r15
    13f6:	41 56                	push   %r14
    13f8:	41 55                	push   %r13
    13fa:	41 54                	push   %r12
    13fc:	55                   	push   %rbp
    13fd:	53                   	push   %rbx
    13fe:	48 83 ec 48          	sub    $0x48,%rsp
    1402:	8b 07                	mov    (%rdi),%eax
    1404:	f3 0f 10 5f 08       	movss  0x8(%rdi),%xmm3
    1409:	4c 8b 77 18          	mov    0x18(%rdi),%r14
    140d:	44 8b 6f 04          	mov    0x4(%rdi),%r13d
    1411:	48 89 7c 24 30       	mov    %rdi,0x30(%rsp)
    1416:	48 8b 6f 10          	mov    0x10(%rdi),%rbp
    141a:	f3 0f 10 47 28       	movss  0x28(%rdi),%xmm0
    141f:	48 89 54 24 38       	mov    %rdx,0x38(%rsp)
    1424:	85 c0                	test   %eax,%eax
    1426:	0f 84 cf 01 00 00    	je     15fb <riscv_dsp_svm_rbf_est_f32+0x20b>
    142c:	48 8d 44 85 00       	lea    0x0(%rbp,%rax,4),%rax
    1431:	44 89 eb             	mov    %r13d,%ebx
    1434:	49 89 f7             	mov    %rsi,%r15
    1437:	45 89 ec             	mov    %r13d,%r12d
    143a:	48 89 44 24 10       	mov    %rax,0x10(%rsp)
    143f:	44 89 e8             	mov    %r13d,%eax
    1442:	83 e3 fc             	and    $0xfffffffc,%ebx
    1445:	41 8d 55 ff          	lea    -0x1(%r13),%edx
    1449:	c1 e8 02             	shr    $0x2,%eax
    144c:	0f 57 05 dd 0c 00 00 	xorps  0xcdd(%rip),%xmm0        # 2130 <dualcoe+0x18>
    1453:	89 54 24 1c          	mov    %edx,0x1c(%rsp)
    1457:	66 0f ef ff          	pxor   %xmm7,%xmm7
    145b:	8d 70 ff             	lea    -0x1(%rax),%esi
    145e:	89 d8                	mov    %ebx,%eax
    1460:	f3 0f 11 7c 24 0c    	movss  %xmm7,0xc(%rsp)
    1466:	48 c1 e0 02          	shl    $0x2,%rax
    146a:	48 83 c6 01          	add    $0x1,%rsi
    146e:	f3 0f 11 44 24 18    	movss  %xmm0,0x18(%rsp)
    1474:	48 89 44 24 28       	mov    %rax,0x28(%rsp)
    1479:	89 d0                	mov    %edx,%eax
    147b:	48 c1 e6 04          	shl    $0x4,%rsi
    147f:	4c 89 f2             	mov    %r14,%rdx
    1482:	48 8d 04 85 04 00 00 	lea    0x4(,%rax,4),%rax
    1489:	00 
    148a:	49 89 ee             	mov    %rbp,%r14
    148d:	49 89 f5             	mov    %rsi,%r13
    1490:	48 89 d5             	mov    %rdx,%rbp
    1493:	48 89 44 24 20       	mov    %rax,0x20(%rsp)
    1498:	0f 1f 84 00 00 00 00 	nopl   0x0(%rax,%rax,1)
    149f:	00 
    14a0:	66 0f ef c9          	pxor   %xmm1,%xmm1
    14a4:	45 85 e4             	test   %r12d,%r12d
    14a7:	0f 84 d2 00 00 00    	je     157f <riscv_dsp_svm_rbf_est_f32+0x18f>
    14ad:	83 7c 24 1c 02       	cmpl   $0x2,0x1c(%rsp)
    14b2:	0f 86 35 01 00 00    	jbe    15ed <riscv_dsp_svm_rbf_est_f32+0x1fd>
    14b8:	31 c0                	xor    %eax,%eax
    14ba:	66 0f ef c9          	pxor   %xmm1,%xmm1
    14be:	66 90                	xchg   %ax,%ax
    14c0:	0f 10 6c 05 00       	movups 0x0(%rbp,%rax,1),%xmm5
    14c5:	41 0f 10 14 07       	movups (%r15,%rax,1),%xmm2
    14ca:	41 0f 10 04 07       	movups (%r15,%rax,1),%xmm0
    14cf:	48 83 c0 10          	add    $0x10,%rax
    14d3:	0f 59 d5             	mulps  %xmm5,%xmm2
    14d6:	0f 5c c2             	subps  %xmm2,%xmm0
    14d9:	0f 5c c5             	subps  %xmm5,%xmm0
    14dc:	f3 0f 58 c8          	addss  %xmm0,%xmm1
    14e0:	0f 28 d0             	movaps %xmm0,%xmm2
    14e3:	0f c6 d0 55          	shufps $0x55,%xmm0,%xmm2
    14e7:	f3 0f 58 ca          	addss  %xmm2,%xmm1
    14eb:	0f 28 d0             	movaps %xmm0,%xmm2
    14ee:	0f 15 d0             	unpckhps %xmm0,%xmm2
    14f1:	0f c6 c0 ff          	shufps $0xff,%xmm0,%xmm0
    14f5:	f3 0f 58 ca          	addss  %xmm2,%xmm1
    14f9:	f3 0f 58 c8          	addss  %xmm0,%xmm1
    14fd:	4c 39 e8             	cmp    %r13,%rax
    1500:	75 be                	jne    14c0 <riscv_dsp_svm_rbf_est_f32+0xd0>
    1502:	48 8b 44 24 28       	mov    0x28(%rsp),%rax
    1507:	48 8d 4c 05 00       	lea    0x0(%rbp,%rax,1),%rcx
    150c:	89 d8                	mov    %ebx,%eax
    150e:	41 39 dc             	cmp    %ebx,%r12d
    1511:	74 67                	je     157a <riscv_dsp_svm_rbf_est_f32+0x18a>
    1513:	45 89 e1             	mov    %r12d,%r9d
    1516:	41 29 c1             	sub    %eax,%r9d
    1519:	41 83 f9 01          	cmp    $0x1,%r9d
    151d:	74 3e                	je     155d <riscv_dsp_svm_rbf_est_f32+0x16d>
    151f:	41 89 c2             	mov    %eax,%r10d
    1522:	f3 43 0f 7e 04 97    	movq   (%r15,%r10,4),%xmm0
    1528:	f3 42 0f 7e 54 95 00 	movq   0x0(%rbp,%r10,4),%xmm2
    152f:	45 89 ca             	mov    %r9d,%r10d
    1532:	41 83 e2 fe          	and    $0xfffffffe,%r10d
    1536:	0f 28 e0             	movaps %xmm0,%xmm4
    1539:	45 89 d3             	mov    %r10d,%r11d
    153c:	44 01 d0             	add    %r10d,%eax
    153f:	0f 59 e2             	mulps  %xmm2,%xmm4
    1542:	4a 8d 0c 99          	lea    (%rcx,%r11,4),%rcx
    1546:	0f 5c c4             	subps  %xmm4,%xmm0
    1549:	0f 5c c2             	subps  %xmm2,%xmm0
    154c:	f3 0f 58 c8          	addss  %xmm0,%xmm1
    1550:	0f c6 c0 e5          	shufps $0xe5,%xmm0,%xmm0
    1554:	f3 0f 58 c8          	addss  %xmm0,%xmm1
    1558:	45 39 d1             	cmp    %r10d,%r9d
    155b:	74 1d                	je     157a <riscv_dsp_svm_rbf_est_f32+0x18a>
    155d:	f3 41 0f 10 04 87    	movss  (%r15,%rax,4),%xmm0
    1563:	f3 0f 10 11          	movss  (%rcx),%xmm2
    1567:	0f 28 e0             	movaps %xmm0,%xmm4
    156a:	f3 0f 59 e2          	mulss  %xmm2,%xmm4
    156e:	f3 0f 5c c4          	subss  %xmm4,%xmm0
    1572:	f3 0f 5c c2          	subss  %xmm2,%xmm0
    1576:	f3 0f 58 c8          	addss  %xmm0,%xmm1
    157a:	48 03 6c 24 20       	add    0x20(%rsp),%rbp
    157f:	f3 0f 59 4c 24 18    	mulss  0x18(%rsp),%xmm1
    1585:	f3 41 0f 10 3e       	movss  (%r14),%xmm7
    158a:	f3 0f 11 5c 24 08    	movss  %xmm3,0x8(%rsp)
    1590:	49 83 c6 04          	add    $0x4,%r14
    1594:	f3 0f 11 7c 24 04    	movss  %xmm7,0x4(%rsp)
    159a:	0f 28 c1             	movaps %xmm1,%xmm0
    159d:	e8 1e fb ff ff       	call   10c0 <expf@plt>
    15a2:	f3 0f 59 44 24 04    	mulss  0x4(%rsp),%xmm0
    15a8:	f3 0f 10 5c 24 08    	movss  0x8(%rsp),%xmm3
    15ae:	f3 0f 58 d8          	addss  %xmm0,%xmm3
    15b2:	4c 3b 74 24 10       	cmp    0x10(%rsp),%r14
    15b7:	0f 85 e3 fe ff ff    	jne    14a0 <riscv_dsp_svm_rbf_est_f32+0xb0>
    15bd:	f3 0f 10 7c 24 0c    	movss  0xc(%rsp),%xmm7
    15c3:	48 8b 44 24 30       	mov    0x30(%rsp),%rax
    15c8:	31 d2                	xor    %edx,%edx
    15ca:	48 8b 74 24 38       	mov    0x38(%rsp),%rsi
    15cf:	0f 2f fb             	comiss %xmm3,%xmm7
    15d2:	48 8b 40 20          	mov    0x20(%rax),%rax
    15d6:	0f 92 c2             	setb   %dl
    15d9:	8b 04 90             	mov    (%rax,%rdx,4),%eax
    15dc:	89 06                	mov    %eax,(%rsi)
    15de:	48 83 c4 48          	add    $0x48,%rsp
    15e2:	5b                   	pop    %rbx
    15e3:	5d                   	pop    %rbp
    15e4:	41 5c                	pop    %r12
    15e6:	41 5d                	pop    %r13
    15e8:	41 5e                	pop    %r14
    15ea:	41 5f                	pop    %r15
    15ec:	c3                   	ret    
    15ed:	48 89 e9             	mov    %rbp,%rcx
    15f0:	31 c0                	xor    %eax,%eax
    15f2:	66 0f ef c9          	pxor   %xmm1,%xmm1
    15f6:	e9 18 ff ff ff       	jmp    1513 <riscv_dsp_svm_rbf_est_f32+0x123>
    15fb:	66 0f ef ff          	pxor   %xmm7,%xmm7
    15ff:	f3 0f 11 7c 24 0c    	movss  %xmm7,0xc(%rsp)
    1605:	eb b6                	jmp    15bd <riscv_dsp_svm_rbf_est_f32+0x1cd>

Disassembly of section .fini:

0000000000001608 <_fini>:
    1608:	f3 0f 1e fa          	endbr64 
    160c:	48 83 ec 08          	sub    $0x8,%rsp
    1610:	48 83 c4 08          	add    $0x8,%rsp
    1614:	c3                   	ret    
