
t_upsplfir_q15:     file format elf64-x86-64


Disassembly of section .init:

0000000000001000 <_init>:
    1000:	f3 0f 1e fa          	endbr64 
    1004:	48 83 ec 08          	sub    $0x8,%rsp
    1008:	48 8b 05 d9 2f 00 00 	mov    0x2fd9(%rip),%rax        # 3fe8 <__gmon_start__@Base>
    100f:	48 85 c0             	test   %rax,%rax
    1012:	74 02                	je     1016 <_init+0x16>
    1014:	ff d0                	call   *%rax
    1016:	48 83 c4 08          	add    $0x8,%rsp
    101a:	c3                   	ret    

Disassembly of section .plt:

0000000000001020 <.plt>:
    1020:	ff 35 4a 2f 00 00    	push   0x2f4a(%rip)        # 3f70 <_GLOBAL_OFFSET_TABLE_+0x8>
    1026:	f2 ff 25 4b 2f 00 00 	bnd jmp *0x2f4b(%rip)        # 3f78 <_GLOBAL_OFFSET_TABLE_+0x10>
    102d:	0f 1f 00             	nopl   (%rax)
    1030:	f3 0f 1e fa          	endbr64 
    1034:	68 00 00 00 00       	push   $0x0
    1039:	f2 e9 e1 ff ff ff    	bnd jmp 1020 <_init+0x20>
    103f:	90                   	nop
    1040:	f3 0f 1e fa          	endbr64 
    1044:	68 01 00 00 00       	push   $0x1
    1049:	f2 e9 d1 ff ff ff    	bnd jmp 1020 <_init+0x20>
    104f:	90                   	nop
    1050:	f3 0f 1e fa          	endbr64 
    1054:	68 02 00 00 00       	push   $0x2
    1059:	f2 e9 c1 ff ff ff    	bnd jmp 1020 <_init+0x20>
    105f:	90                   	nop
    1060:	f3 0f 1e fa          	endbr64 
    1064:	68 03 00 00 00       	push   $0x3
    1069:	f2 e9 b1 ff ff ff    	bnd jmp 1020 <_init+0x20>
    106f:	90                   	nop
    1070:	f3 0f 1e fa          	endbr64 
    1074:	68 04 00 00 00       	push   $0x4
    1079:	f2 e9 a1 ff ff ff    	bnd jmp 1020 <_init+0x20>
    107f:	90                   	nop
    1080:	f3 0f 1e fa          	endbr64 
    1084:	68 05 00 00 00       	push   $0x5
    1089:	f2 e9 91 ff ff ff    	bnd jmp 1020 <_init+0x20>
    108f:	90                   	nop
    1090:	f3 0f 1e fa          	endbr64 
    1094:	68 06 00 00 00       	push   $0x6
    1099:	f2 e9 81 ff ff ff    	bnd jmp 1020 <_init+0x20>
    109f:	90                   	nop
    10a0:	f3 0f 1e fa          	endbr64 
    10a4:	68 07 00 00 00       	push   $0x7
    10a9:	f2 e9 71 ff ff ff    	bnd jmp 1020 <_init+0x20>
    10af:	90                   	nop
    10b0:	f3 0f 1e fa          	endbr64 
    10b4:	68 08 00 00 00       	push   $0x8
    10b9:	f2 e9 61 ff ff ff    	bnd jmp 1020 <_init+0x20>
    10bf:	90                   	nop
    10c0:	f3 0f 1e fa          	endbr64 
    10c4:	68 09 00 00 00       	push   $0x9
    10c9:	f2 e9 51 ff ff ff    	bnd jmp 1020 <_init+0x20>
    10cf:	90                   	nop
    10d0:	f3 0f 1e fa          	endbr64 
    10d4:	68 0a 00 00 00       	push   $0xa
    10d9:	f2 e9 41 ff ff ff    	bnd jmp 1020 <_init+0x20>
    10df:	90                   	nop

Disassembly of section .plt.got:

00000000000010e0 <__cxa_finalize@plt>:
    10e0:	f3 0f 1e fa          	endbr64 
    10e4:	f2 ff 25 0d 2f 00 00 	bnd jmp *0x2f0d(%rip)        # 3ff8 <__cxa_finalize@GLIBC_2.2.5>
    10eb:	0f 1f 44 00 00       	nopl   0x0(%rax,%rax,1)

Disassembly of section .plt.sec:

00000000000010f0 <free@plt>:
    10f0:	f3 0f 1e fa          	endbr64 
    10f4:	f2 ff 25 85 2e 00 00 	bnd jmp *0x2e85(%rip)        # 3f80 <free@GLIBC_2.2.5>
    10fb:	0f 1f 44 00 00       	nopl   0x0(%rax,%rax,1)

0000000000001100 <puts@plt>:
    1100:	f3 0f 1e fa          	endbr64 
    1104:	f2 ff 25 7d 2e 00 00 	bnd jmp *0x2e7d(%rip)        # 3f88 <puts@GLIBC_2.2.5>
    110b:	0f 1f 44 00 00       	nopl   0x0(%rax,%rax,1)

0000000000001110 <fread@plt>:
    1110:	f3 0f 1e fa          	endbr64 
    1114:	f2 ff 25 75 2e 00 00 	bnd jmp *0x2e75(%rip)        # 3f90 <fread@GLIBC_2.2.5>
    111b:	0f 1f 44 00 00       	nopl   0x0(%rax,%rax,1)

0000000000001120 <fclose@plt>:
    1120:	f3 0f 1e fa          	endbr64 
    1124:	f2 ff 25 6d 2e 00 00 	bnd jmp *0x2e6d(%rip)        # 3f98 <fclose@GLIBC_2.2.5>
    112b:	0f 1f 44 00 00       	nopl   0x0(%rax,%rax,1)

0000000000001130 <__stack_chk_fail@plt>:
    1130:	f3 0f 1e fa          	endbr64 
    1134:	f2 ff 25 65 2e 00 00 	bnd jmp *0x2e65(%rip)        # 3fa0 <__stack_chk_fail@GLIBC_2.4>
    113b:	0f 1f 44 00 00       	nopl   0x0(%rax,%rax,1)

0000000000001140 <calloc@plt>:
    1140:	f3 0f 1e fa          	endbr64 
    1144:	f2 ff 25 5d 2e 00 00 	bnd jmp *0x2e5d(%rip)        # 3fa8 <calloc@GLIBC_2.2.5>
    114b:	0f 1f 44 00 00       	nopl   0x0(%rax,%rax,1)

0000000000001150 <log10f@plt>:
    1150:	f3 0f 1e fa          	endbr64 
    1154:	f2 ff 25 55 2e 00 00 	bnd jmp *0x2e55(%rip)        # 3fb0 <log10f@GLIBC_2.2.5>
    115b:	0f 1f 44 00 00       	nopl   0x0(%rax,%rax,1)

0000000000001160 <__printf_chk@plt>:
    1160:	f3 0f 1e fa          	endbr64 
    1164:	f2 ff 25 4d 2e 00 00 	bnd jmp *0x2e4d(%rip)        # 3fb8 <__printf_chk@GLIBC_2.3.4>
    116b:	0f 1f 44 00 00       	nopl   0x0(%rax,%rax,1)

0000000000001170 <fopen@plt>:
    1170:	f3 0f 1e fa          	endbr64 
    1174:	f2 ff 25 45 2e 00 00 	bnd jmp *0x2e45(%rip)        # 3fc0 <fopen@GLIBC_2.2.5>
    117b:	0f 1f 44 00 00       	nopl   0x0(%rax,%rax,1)

0000000000001180 <sqrt@plt>:
    1180:	f3 0f 1e fa          	endbr64 
    1184:	f2 ff 25 3d 2e 00 00 	bnd jmp *0x2e3d(%rip)        # 3fc8 <sqrt@GLIBC_2.2.5>
    118b:	0f 1f 44 00 00       	nopl   0x0(%rax,%rax,1)

0000000000001190 <__sprintf_chk@plt>:
    1190:	f3 0f 1e fa          	endbr64 
    1194:	f2 ff 25 35 2e 00 00 	bnd jmp *0x2e35(%rip)        # 3fd0 <__sprintf_chk@GLIBC_2.3.4>
    119b:	0f 1f 44 00 00       	nopl   0x0(%rax,%rax,1)

Disassembly of section .text:

00000000000011a0 <main>:
    11a0:	f3 0f 1e fa          	endbr64 
    11a4:	55                   	push   %rbp
    11a5:	be 02 00 00 00       	mov    $0x2,%esi
    11aa:	bf 04 04 00 00       	mov    $0x404,%edi
    11af:	48 89 e5             	mov    %rsp,%rbp
    11b2:	41 57                	push   %r15
    11b4:	41 56                	push   %r14
    11b6:	41 55                	push   %r13
    11b8:	41 54                	push   %r12
    11ba:	53                   	push   %rbx
    11bb:	48 81 ec 68 02 00 00 	sub    $0x268,%rsp
    11c2:	64 48 8b 04 25 28 00 	mov    %fs:0x28,%rax
    11c9:	00 00 
    11cb:	48 89 45 c8          	mov    %rax,-0x38(%rbp)
    11cf:	31 c0                	xor    %eax,%eax
    11d1:	e8 6a ff ff ff       	call   1140 <calloc@plt>
    11d6:	be 02 00 00 00       	mov    $0x2,%esi
    11db:	bf 0f 00 00 00       	mov    $0xf,%edi
    11e0:	48 89 85 90 fd ff ff 	mov    %rax,-0x270(%rbp)
    11e7:	e8 54 ff ff ff       	call   1140 <calloc@plt>
    11ec:	48 89 c3             	mov    %rax,%rbx
    11ef:	48 8b 05 4a 0f 00 00 	mov    0xf4a(%rip),%rax        # 2140 <_IO_stdin_used+0x140>
    11f6:	66 48 0f 6e c3       	movq   %rbx,%xmm0
    11fb:	48 89 85 a0 fd ff ff 	mov    %rax,-0x260(%rbp)
    1202:	0f 16 85 90 fd ff ff 	movhps -0x270(%rbp),%xmm0
    1209:	48 89 e0             	mov    %rsp,%rax
    120c:	0f 11 85 a8 fd ff ff 	movups %xmm0,-0x258(%rbp)
    1213:	48 39 c4             	cmp    %rax,%rsp
    1216:	74 15                	je     122d <main+0x8d>
    1218:	48 81 ec 00 10 00 00 	sub    $0x1000,%rsp
    121f:	48 83 8c 24 f8 0f 00 	orq    $0x0,0xff8(%rsp)
    1226:	00 00 
    1228:	48 39 c4             	cmp    %rax,%rsp
    122b:	75 eb                	jne    1218 <main+0x78>
    122d:	48 81 ec 00 08 00 00 	sub    $0x800,%rsp
    1234:	48 83 8c 24 f8 07 00 	orq    $0x0,0x7f8(%rsp)
    123b:	00 00 
    123d:	49 89 e5             	mov    %rsp,%r13
    1240:	48 8d 84 24 00 f0 ff 	lea    -0x1000(%rsp),%rax
    1247:	ff 
    1248:	48 39 c4             	cmp    %rax,%rsp
    124b:	74 12                	je     125f <main+0xbf>
    124d:	48 81 ec 00 10 00 00 	sub    $0x1000,%rsp
    1254:	48 83 8c 24 f8 0f 00 	orq    $0x0,0xff8(%rsp)
    125b:	00 00 
    125d:	eb e9                	jmp    1248 <main+0xa8>
    125f:	48 81 ec 00 08 00 00 	sub    $0x800,%rsp
    1266:	48 83 8c 24 f8 07 00 	orq    $0x0,0x7f8(%rsp)
    126d:	00 00 
    126f:	49 89 e6             	mov    %rsp,%r14
    1272:	48 8d 84 24 00 f0 ff 	lea    -0x1000(%rsp),%rax
    1279:	ff 
    127a:	48 39 c4             	cmp    %rax,%rsp
    127d:	74 12                	je     1291 <main+0xf1>
    127f:	48 81 ec 00 10 00 00 	sub    $0x1000,%rsp
    1286:	48 83 8c 24 f8 0f 00 	orq    $0x0,0xff8(%rsp)
    128d:	00 00 
    128f:	eb e9                	jmp    127a <main+0xda>
    1291:	48 81 ec 00 08 00 00 	sub    $0x800,%rsp
    1298:	48 83 8c 24 f8 07 00 	orq    $0x0,0x7f8(%rsp)
    129f:	00 00 
    12a1:	49 89 e7             	mov    %rsp,%r15
    12a4:	48 89 e0             	mov    %rsp,%rax
    12a7:	48 39 c4             	cmp    %rax,%rsp
    12aa:	74 12                	je     12be <main+0x11e>
    12ac:	48 81 ec 00 10 00 00 	sub    $0x1000,%rsp
    12b3:	48 83 8c 24 f8 0f 00 	orq    $0x0,0xff8(%rsp)
    12ba:	00 00 
    12bc:	eb e9                	jmp    12a7 <main+0x107>
    12be:	48 81 ec 10 08 00 00 	sub    $0x810,%rsp
    12c5:	48 83 8c 24 08 08 00 	orq    $0x0,0x808(%rsp)
    12cc:	00 00 
    12ce:	4c 8d 05 6b 0d 00 00 	lea    0xd6b(%rip),%r8        # 2040 <_IO_stdin_used+0x40>
    12d5:	ba 00 02 00 00       	mov    $0x200,%edx
    12da:	31 c0                	xor    %eax,%eax
    12dc:	48 8d 0d 34 0d 00 00 	lea    0xd34(%rip),%rcx        # 2017 <_IO_stdin_used+0x17>
    12e3:	be 01 00 00 00       	mov    $0x1,%esi
    12e8:	48 8d bd c0 fd ff ff 	lea    -0x240(%rbp),%rdi
    12ef:	48 89 a5 98 fd ff ff 	mov    %rsp,-0x268(%rbp)
    12f6:	48 89 bd 88 fd ff ff 	mov    %rdi,-0x278(%rbp)
    12fd:	e8 8e fe ff ff       	call   1190 <__sprintf_chk@plt>
    1302:	48 8b bd 88 fd ff ff 	mov    -0x278(%rbp),%rdi
    1309:	48 8d 35 18 0d 00 00 	lea    0xd18(%rip),%rsi        # 2028 <_IO_stdin_used+0x28>
    1310:	e8 5b fe ff ff       	call   1170 <fopen@plt>
    1315:	48 8b bd 88 fd ff ff 	mov    -0x278(%rbp),%rdi
    131c:	48 85 c0             	test   %rax,%rax
    131f:	48 89 85 80 fd ff ff 	mov    %rax,-0x280(%rbp)
    1326:	0f 84 04 04 00 00    	je     1730 <main+0x590>
    132c:	4c 8d 05 0d 0d 00 00 	lea    0xd0d(%rip),%r8        # 2040 <_IO_stdin_used+0x40>
    1333:	48 8d 0d 56 0d 00 00 	lea    0xd56(%rip),%rcx        # 2090 <_IO_stdin_used+0x90>
    133a:	ba 00 02 00 00       	mov    $0x200,%edx
    133f:	31 c0                	xor    %eax,%eax
    1341:	be 01 00 00 00       	mov    $0x1,%esi
    1346:	48 89 bd 88 fd ff ff 	mov    %rdi,-0x278(%rbp)
    134d:	e8 3e fe ff ff       	call   1190 <__sprintf_chk@plt>
    1352:	48 8b bd 88 fd ff ff 	mov    -0x278(%rbp),%rdi
    1359:	48 8d 35 c8 0c 00 00 	lea    0xcc8(%rip),%rsi        # 2028 <_IO_stdin_used+0x28>
    1360:	e8 0b fe ff ff       	call   1170 <fopen@plt>
    1365:	49 89 c4             	mov    %rax,%r12
    1368:	48 85 c0             	test   %rax,%rax
    136b:	0f 84 bf 03 00 00    	je     1730 <main+0x590>
    1371:	48 8b bd 88 fd ff ff 	mov    -0x278(%rbp),%rdi
    1378:	4c 8d 05 c1 0c 00 00 	lea    0xcc1(%rip),%r8        # 2040 <_IO_stdin_used+0x40>
    137f:	ba 00 02 00 00       	mov    $0x200,%edx
    1384:	31 c0                	xor    %eax,%eax
    1386:	48 8d 0d 2b 0d 00 00 	lea    0xd2b(%rip),%rcx        # 20b8 <_IO_stdin_used+0xb8>
    138d:	be 01 00 00 00       	mov    $0x1,%esi
    1392:	e8 f9 fd ff ff       	call   1190 <__sprintf_chk@plt>
    1397:	48 8b bd 88 fd ff ff 	mov    -0x278(%rbp),%rdi
    139e:	48 8d 35 83 0c 00 00 	lea    0xc83(%rip),%rsi        # 2028 <_IO_stdin_used+0x28>
    13a5:	e8 c6 fd ff ff       	call   1170 <fopen@plt>
    13aa:	48 85 c0             	test   %rax,%rax
    13ad:	48 89 85 88 fd ff ff 	mov    %rax,-0x278(%rbp)
    13b4:	0f 84 76 03 00 00    	je     1730 <main+0x590>
    13ba:	48 8b 05 9f 0d 00 00 	mov    0xd9f(%rip),%rax        # 2160 <_IO_stdin_used+0x160>
    13c1:	4c 89 ef             	mov    %r13,%rdi
    13c4:	be 00 04 00 00       	mov    $0x400,%esi
    13c9:	66 0f 6f 05 8f 0d 00 	movdqa 0xd8f(%rip),%xmm0        # 2160 <_IO_stdin_used+0x160>
    13d0:	00 
    13d1:	c7 43 18 00 08 00 08 	movl   $0x8000800,0x18(%rbx)
    13d8:	48 8b 95 80 fd ff ff 	mov    -0x280(%rbp),%rdx
    13df:	48 89 43 10          	mov    %rax,0x10(%rbx)
    13e3:	b8 00 08 00 00       	mov    $0x800,%eax
    13e8:	66 89 43 1c          	mov    %ax,0x1c(%rbx)
    13ec:	0f 11 03             	movups %xmm0,(%rbx)
    13ef:	e8 cc 05 00 00       	call   19c0 <test_Fread.constprop.0.isra.0>
    13f4:	4c 89 e2             	mov    %r12,%rdx
    13f7:	be 00 0c 00 00       	mov    $0xc00,%esi
    13fc:	4c 89 ff             	mov    %r15,%rdi
    13ff:	e8 bc 05 00 00       	call   19c0 <test_Fread.constprop.0.isra.0>
    1404:	48 8b 95 88 fd ff ff 	mov    -0x278(%rbp),%rdx
    140b:	be 04 04 00 00       	mov    $0x404,%esi
    1410:	48 8b bd 98 fd ff ff 	mov    -0x268(%rbp),%rdi
    1417:	e8 a4 05 00 00       	call   19c0 <test_Fread.constprop.0.isra.0>
    141c:	4c 89 ee             	mov    %r13,%rsi
    141f:	b9 00 04 00 00       	mov    $0x400,%ecx
    1424:	4c 89 f2             	mov    %r14,%rdx
    1427:	48 8d bd a0 fd ff ff 	lea    -0x260(%rbp),%rdi
    142e:	e8 fd 06 00 00       	call   1b30 <riscv_dsp_upsplfir_q15>
    1433:	ba 00 0c 00 00       	mov    $0xc00,%edx
    1438:	4c 89 f6             	mov    %r14,%rsi
    143b:	4c 89 ff             	mov    %r15,%rdi
    143e:	e8 ed 03 00 00       	call   1830 <dump2_q15>
    1443:	4c 8b ad 90 fd ff ff 	mov    -0x270(%rbp),%r13
    144a:	ba 04 04 00 00       	mov    $0x404,%edx
    144f:	48 8b bd 98 fd ff ff 	mov    -0x268(%rbp),%rdi
    1456:	4c 89 ee             	mov    %r13,%rsi
    1459:	e8 d2 03 00 00       	call   1830 <dump2_q15>
    145e:	66 85 c0             	test   %ax,%ax
    1461:	0f 8f c9 02 00 00    	jg     1730 <main+0x590>
    1467:	4c 89 ef             	mov    %r13,%rdi
    146a:	e8 81 fc ff ff       	call   10f0 <free@plt>
    146f:	48 89 df             	mov    %rbx,%rdi
    1472:	e8 79 fc ff ff       	call   10f0 <free@plt>
    1477:	48 8b bd 80 fd ff ff 	mov    -0x280(%rbp),%rdi
    147e:	e8 9d fc ff ff       	call   1120 <fclose@plt>
    1483:	4c 89 e7             	mov    %r12,%rdi
    1486:	e8 95 fc ff ff       	call   1120 <fclose@plt>
    148b:	48 8d 84 24 00 d0 ff 	lea    -0x3000(%rsp),%rax
    1492:	ff 
    1493:	48 39 c4             	cmp    %rax,%rsp
    1496:	74 15                	je     14ad <main+0x30d>
    1498:	48 81 ec 00 10 00 00 	sub    $0x1000,%rsp
    149f:	48 83 8c 24 f8 0f 00 	orq    $0x0,0xff8(%rsp)
    14a6:	00 00 
    14a8:	48 39 c4             	cmp    %rax,%rsp
    14ab:	75 eb                	jne    1498 <main+0x2f8>
    14ad:	48 89 e3             	mov    %rsp,%rbx
    14b0:	48 8d 84 24 00 d0 ff 	lea    -0x3000(%rsp),%rax
    14b7:	ff 
    14b8:	48 39 c4             	cmp    %rax,%rsp
    14bb:	74 12                	je     14cf <main+0x32f>
    14bd:	48 81 ec 00 10 00 00 	sub    $0x1000,%rsp
    14c4:	48 83 8c 24 f8 0f 00 	orq    $0x0,0xff8(%rsp)
    14cb:	00 00 
    14cd:	eb e9                	jmp    14b8 <main+0x318>
    14cf:	ba 00 0c 00 00       	mov    $0xc00,%edx
    14d4:	48 89 de             	mov    %rbx,%rsi
    14d7:	4c 89 ff             	mov    %r15,%rdi
    14da:	49 89 e4             	mov    %rsp,%r12
    14dd:	e8 ee 04 00 00       	call   19d0 <riscv_dsp_convert_q15_f32>
    14e2:	ba 00 0c 00 00       	mov    $0xc00,%edx
    14e7:	4c 89 e6             	mov    %r12,%rsi
    14ea:	4c 89 f7             	mov    %r14,%rdi
    14ed:	e8 de 04 00 00       	call   19d0 <riscv_dsp_convert_q15_f32>
    14f2:	66 0f ef db          	pxor   %xmm3,%xmm3
    14f6:	66 0f ef ff          	pxor   %xmm7,%xmm7
    14fa:	31 c0                	xor    %eax,%eax
    14fc:	66 0f 28 ef          	movapd %xmm7,%xmm5
    1500:	0f 28 e3             	movaps %xmm3,%xmm4
    1503:	44 0f 28 c3          	movaps %xmm3,%xmm8
    1507:	f3 44 0f 10 0d 60 0c 	movss  0xc60(%rip),%xmm9        # 2170 <_IO_stdin_used+0x170>
    150e:	00 00 
    1510:	0f 28 f3             	movaps %xmm3,%xmm6
    1513:	0f 1f 44 00 00       	nopl   0x0(%rax,%rax,1)
    1518:	f3 41 0f 10 04 04    	movss  (%r12,%rax,1),%xmm0
    151e:	f3 0f 10 0c 03       	movss  (%rbx,%rax,1),%xmm1
    1523:	66 0f 7e c1          	movd   %xmm0,%ecx
    1527:	81 f9 00 00 c0 7f    	cmp    $0x7fc00000,%ecx
    152d:	0f 84 b7 01 00 00    	je     16ea <main+0x54a>
    1533:	0f 28 d1             	movaps %xmm1,%xmm2
    1536:	f3 0f 5c c1          	subss  %xmm1,%xmm0
    153a:	48 83 c0 04          	add    $0x4,%rax
    153e:	f3 0f 5f d6          	maxss  %xmm6,%xmm2
    1542:	0f 28 f2             	movaps %xmm2,%xmm6
    1545:	0f 28 d1             	movaps %xmm1,%xmm2
    1548:	f3 41 0f 5d d0       	minss  %xmm8,%xmm2
    154d:	f3 0f 59 c9          	mulss  %xmm1,%xmm1
    1551:	44 0f 28 c2          	movaps %xmm2,%xmm8
    1555:	0f 28 d0             	movaps %xmm0,%xmm2
    1558:	f3 0f 59 c0          	mulss  %xmm0,%xmm0
    155c:	41 0f 54 d1          	andps  %xmm9,%xmm2
    1560:	f3 0f 58 e2          	addss  %xmm2,%xmm4
    1564:	f3 0f 5f d3          	maxss  %xmm3,%xmm2
    1568:	f3 0f 5a c9          	cvtss2sd %xmm1,%xmm1
    156c:	f2 0f 58 f9          	addsd  %xmm1,%xmm7
    1570:	0f 28 da             	movaps %xmm2,%xmm3
    1573:	f3 0f 5a c0          	cvtss2sd %xmm0,%xmm0
    1577:	f2 0f 58 e8          	addsd  %xmm0,%xmm5
    157b:	48 3d 00 30 00 00    	cmp    $0x3000,%rax
    1581:	75 95                	jne    1518 <main+0x378>
    1583:	66 48 0f 7e e8       	movq   %xmm5,%rax
    1588:	f3 0f 11 95 80 fd ff 	movss  %xmm2,-0x280(%rbp)
    158f:	ff 
    1590:	f3 44 0f 11 85 88 fd 	movss  %xmm8,-0x278(%rbp)
    1597:	ff ff 
    1599:	f3 0f 11 b5 90 fd ff 	movss  %xmm6,-0x270(%rbp)
    15a0:	ff 
    15a1:	f2 0f 11 bd 98 fd ff 	movsd  %xmm7,-0x268(%rbp)
    15a8:	ff 
    15a9:	3d 00 00 c0 7f       	cmp    $0x7fc00000,%eax
    15ae:	0f 84 36 01 00 00    	je     16ea <main+0x54a>
    15b4:	66 0f 28 c5          	movapd %xmm5,%xmm0
    15b8:	f2 0f 11 ad 78 fd ff 	movsd  %xmm5,-0x288(%rbp)
    15bf:	ff 
    15c0:	f3 0f 5e 25 70 0b 00 	divss  0xb70(%rip),%xmm4        # 2138 <_IO_stdin_used+0x138>
    15c7:	00 
    15c8:	f2 0f 5e 05 78 0b 00 	divsd  0xb78(%rip),%xmm0        # 2148 <_IO_stdin_used+0x148>
    15cf:	00 
    15d0:	66 0f 7e e3          	movd   %xmm4,%ebx
    15d4:	e8 a7 fb ff ff       	call   1180 <sqrt@plt>
    15d9:	f3 0f 10 b5 90 fd ff 	movss  -0x270(%rbp),%xmm6
    15e0:	ff 
    15e1:	f3 44 0f 10 85 88 fd 	movss  -0x278(%rbp),%xmm8
    15e8:	ff ff 
    15ea:	66 0f ef c9          	pxor   %xmm1,%xmm1
    15ee:	f2 0f 5a c8          	cvtsd2ss %xmm0,%xmm1
    15f2:	0f 28 f9             	movaps %xmm1,%xmm7
    15f5:	f2 0f 10 ad 78 fd ff 	movsd  -0x288(%rbp),%xmm5
    15fc:	ff 
    15fd:	f3 0f 10 9d 80 fd ff 	movss  -0x280(%rbp),%xmm3
    1604:	ff 
    1605:	f3 41 0f 5c f0       	subss  %xmm8,%xmm6
    160a:	f3 0f 5e fe          	divss  %xmm6,%xmm7
    160e:	66 41 0f 7e fc       	movd   %xmm7,%r12d
    1613:	66 0f ef ff          	pxor   %xmm7,%xmm7
    1617:	66 0f 2e ef          	ucomisd %xmm7,%xmm5
    161b:	f2 0f 10 bd 98 fd ff 	movsd  -0x268(%rbp),%xmm7
    1622:	ff 
    1623:	0f 8a c5 00 00 00    	jp     16ee <main+0x54e>
    1629:	f3 0f 10 25 03 0b 00 	movss  0xb03(%rip),%xmm4        # 2134 <_IO_stdin_used+0x134>
    1630:	00 
    1631:	0f 85 b7 00 00 00    	jne    16ee <main+0x54e>
    1637:	48 8d 3d ec 09 00 00 	lea    0x9ec(%rip),%rdi        # 202a <_IO_stdin_used+0x2a>
    163e:	f3 0f 11 9d 88 fd ff 	movss  %xmm3,-0x278(%rbp)
    1645:	ff 
    1646:	f3 0f 11 a5 98 fd ff 	movss  %xmm4,-0x268(%rbp)
    164d:	ff 
    164e:	f3 0f 11 8d 90 fd ff 	movss  %xmm1,-0x270(%rbp)
    1655:	ff 
    1656:	e8 a5 fa ff ff       	call   1100 <puts@plt>
    165b:	66 41 0f 6e ec       	movd   %r12d,%xmm5
    1660:	66 0f ef d2          	pxor   %xmm2,%xmm2
    1664:	f3 0f 10 a5 98 fd ff 	movss  -0x268(%rbp),%xmm4
    166b:	ff 
    166c:	f3 0f 10 9d 88 fd ff 	movss  -0x278(%rbp),%xmm3
    1673:	ff 
    1674:	f3 0f 10 8d 90 fd ff 	movss  -0x270(%rbp),%xmm1
    167b:	ff 
    167c:	f3 0f 5a d5          	cvtss2sd %xmm5,%xmm2
    1680:	66 0f ef c0          	pxor   %xmm0,%xmm0
    1684:	66 0f 6e eb          	movd   %ebx,%xmm5
    1688:	48 8d 35 51 0a 00 00 	lea    0xa51(%rip),%rsi        # 20e0 <_IO_stdin_used+0xe0>
    168f:	bf 01 00 00 00       	mov    $0x1,%edi
    1694:	b8 05 00 00 00       	mov    $0x5,%eax
    1699:	f3 0f 5a c5          	cvtss2sd %xmm5,%xmm0
    169d:	f3 0f 5a e4          	cvtss2sd %xmm4,%xmm4
    16a1:	f3 0f 5a db          	cvtss2sd %xmm3,%xmm3
    16a5:	f3 0f 5a c9          	cvtss2sd %xmm1,%xmm1
    16a9:	f2 0f 11 95 98 fd ff 	movsd  %xmm2,-0x268(%rbp)
    16b0:	ff 
    16b1:	e8 aa fa ff ff       	call   1160 <__printf_chk@plt>
    16b6:	f2 0f 10 05 92 0a 00 	movsd  0xa92(%rip),%xmm0        # 2150 <_IO_stdin_used+0x150>
    16bd:	00 
    16be:	f2 0f 10 95 98 fd ff 	movsd  -0x268(%rbp),%xmm2
    16c5:	ff 
    16c6:	66 0f 2f c2          	comisd %xmm2,%xmm0
    16ca:	19 c0                	sbb    %eax,%eax
    16cc:	48 8b 55 c8          	mov    -0x38(%rbp),%rdx
    16d0:	64 48 2b 14 25 28 00 	sub    %fs:0x28,%rdx
    16d7:	00 00 
    16d9:	75 5a                	jne    1735 <main+0x595>
    16db:	48 8d 65 d8          	lea    -0x28(%rbp),%rsp
    16df:	5b                   	pop    %rbx
    16e0:	41 5c                	pop    %r12
    16e2:	41 5d                	pop    %r13
    16e4:	41 5e                	pop    %r14
    16e6:	41 5f                	pop    %r15
    16e8:	5d                   	pop    %rbp
    16e9:	c3                   	ret    
    16ea:	31 c0                	xor    %eax,%eax
    16ec:	eb de                	jmp    16cc <main+0x52c>
    16ee:	f2 0f 5e fd          	divsd  %xmm5,%xmm7
    16f2:	66 0f ef c0          	pxor   %xmm0,%xmm0
    16f6:	f3 0f 11 9d 90 fd ff 	movss  %xmm3,-0x270(%rbp)
    16fd:	ff 
    16fe:	f3 0f 11 8d 98 fd ff 	movss  %xmm1,-0x268(%rbp)
    1705:	ff 
    1706:	f2 0f 5a c7          	cvtsd2ss %xmm7,%xmm0
    170a:	e8 41 fa ff ff       	call   1150 <log10f@plt>
    170f:	f3 0f 10 25 25 0a 00 	movss  0xa25(%rip),%xmm4        # 213c <_IO_stdin_used+0x13c>
    1716:	00 
    1717:	f3 0f 10 9d 90 fd ff 	movss  -0x270(%rbp),%xmm3
    171e:	ff 
    171f:	f3 0f 10 8d 98 fd ff 	movss  -0x268(%rbp),%xmm1
    1726:	ff 
    1727:	f3 0f 59 e0          	mulss  %xmm0,%xmm4
    172b:	e9 07 ff ff ff       	jmp    1637 <main+0x497>
    1730:	83 c8 ff             	or     $0xffffffff,%eax
    1733:	eb 97                	jmp    16cc <main+0x52c>
    1735:	e8 f6 f9 ff ff       	call   1130 <__stack_chk_fail@plt>
    173a:	66 0f 1f 44 00 00    	nopw   0x0(%rax,%rax,1)

0000000000001740 <_start>:
    1740:	f3 0f 1e fa          	endbr64 
    1744:	31 ed                	xor    %ebp,%ebp
    1746:	49 89 d1             	mov    %rdx,%r9
    1749:	5e                   	pop    %rsi
    174a:	48 89 e2             	mov    %rsp,%rdx
    174d:	48 83 e4 f0          	and    $0xfffffffffffffff0,%rsp
    1751:	50                   	push   %rax
    1752:	54                   	push   %rsp
    1753:	45 31 c0             	xor    %r8d,%r8d
    1756:	31 c9                	xor    %ecx,%ecx
    1758:	48 8d 3d 41 fa ff ff 	lea    -0x5bf(%rip),%rdi        # 11a0 <main>
    175f:	ff 15 73 28 00 00    	call   *0x2873(%rip)        # 3fd8 <__libc_start_main@GLIBC_2.34>
    1765:	f4                   	hlt    
    1766:	66 2e 0f 1f 84 00 00 	cs nopw 0x0(%rax,%rax,1)
    176d:	00 00 00 

0000000000001770 <deregister_tm_clones>:
    1770:	48 8d 3d 99 28 00 00 	lea    0x2899(%rip),%rdi        # 4010 <__TMC_END__>
    1777:	48 8d 05 92 28 00 00 	lea    0x2892(%rip),%rax        # 4010 <__TMC_END__>
    177e:	48 39 f8             	cmp    %rdi,%rax
    1781:	74 15                	je     1798 <deregister_tm_clones+0x28>
    1783:	48 8b 05 56 28 00 00 	mov    0x2856(%rip),%rax        # 3fe0 <_ITM_deregisterTMCloneTable@Base>
    178a:	48 85 c0             	test   %rax,%rax
    178d:	74 09                	je     1798 <deregister_tm_clones+0x28>
    178f:	ff e0                	jmp    *%rax
    1791:	0f 1f 80 00 00 00 00 	nopl   0x0(%rax)
    1798:	c3                   	ret    
    1799:	0f 1f 80 00 00 00 00 	nopl   0x0(%rax)

00000000000017a0 <register_tm_clones>:
    17a0:	48 8d 3d 69 28 00 00 	lea    0x2869(%rip),%rdi        # 4010 <__TMC_END__>
    17a7:	48 8d 35 62 28 00 00 	lea    0x2862(%rip),%rsi        # 4010 <__TMC_END__>
    17ae:	48 29 fe             	sub    %rdi,%rsi
    17b1:	48 89 f0             	mov    %rsi,%rax
    17b4:	48 c1 ee 3f          	shr    $0x3f,%rsi
    17b8:	48 c1 f8 03          	sar    $0x3,%rax
    17bc:	48 01 c6             	add    %rax,%rsi
    17bf:	48 d1 fe             	sar    %rsi
    17c2:	74 14                	je     17d8 <register_tm_clones+0x38>
    17c4:	48 8b 05 25 28 00 00 	mov    0x2825(%rip),%rax        # 3ff0 <_ITM_registerTMCloneTable@Base>
    17cb:	48 85 c0             	test   %rax,%rax
    17ce:	74 08                	je     17d8 <register_tm_clones+0x38>
    17d0:	ff e0                	jmp    *%rax
    17d2:	66 0f 1f 44 00 00    	nopw   0x0(%rax,%rax,1)
    17d8:	c3                   	ret    
    17d9:	0f 1f 80 00 00 00 00 	nopl   0x0(%rax)

00000000000017e0 <__do_global_dtors_aux>:
    17e0:	f3 0f 1e fa          	endbr64 
    17e4:	80 3d 25 28 00 00 00 	cmpb   $0x0,0x2825(%rip)        # 4010 <__TMC_END__>
    17eb:	75 2b                	jne    1818 <__do_global_dtors_aux+0x38>
    17ed:	55                   	push   %rbp
    17ee:	48 83 3d 02 28 00 00 	cmpq   $0x0,0x2802(%rip)        # 3ff8 <__cxa_finalize@GLIBC_2.2.5>
    17f5:	00 
    17f6:	48 89 e5             	mov    %rsp,%rbp
    17f9:	74 0c                	je     1807 <__do_global_dtors_aux+0x27>
    17fb:	48 8b 3d 06 28 00 00 	mov    0x2806(%rip),%rdi        # 4008 <__dso_handle>
    1802:	e8 d9 f8 ff ff       	call   10e0 <__cxa_finalize@plt>
    1807:	e8 64 ff ff ff       	call   1770 <deregister_tm_clones>
    180c:	c6 05 fd 27 00 00 01 	movb   $0x1,0x27fd(%rip)        # 4010 <__TMC_END__>
    1813:	5d                   	pop    %rbp
    1814:	c3                   	ret    
    1815:	0f 1f 00             	nopl   (%rax)
    1818:	c3                   	ret    
    1819:	0f 1f 80 00 00 00 00 	nopl   0x0(%rax)

0000000000001820 <frame_dummy>:
    1820:	f3 0f 1e fa          	endbr64 
    1824:	e9 77 ff ff ff       	jmp    17a0 <register_tm_clones>
    1829:	0f 1f 80 00 00 00 00 	nopl   0x0(%rax)

0000000000001830 <dump2_q15>:
    1830:	41 54                	push   %r12
    1832:	89 d1                	mov    %edx,%ecx
    1834:	66 0f ef d2          	pxor   %xmm2,%xmm2
    1838:	c1 ea 03             	shr    $0x3,%edx
    183b:	48 c1 e2 04          	shl    $0x4,%rdx
    183f:	31 c0                	xor    %eax,%eax
    1841:	66 0f 6f da          	movdqa %xmm2,%xmm3
    1845:	0f 1f 00             	nopl   (%rax)
    1848:	f3 0f 6f 04 06       	movdqu (%rsi,%rax,1),%xmm0
    184d:	f3 0f 6f 24 07       	movdqu (%rdi,%rax,1),%xmm4
    1852:	66 0f 6f cb          	movdqa %xmm3,%xmm1
    1856:	48 83 c0 10          	add    $0x10,%rax
    185a:	66 0f f9 c4          	psubw  %xmm4,%xmm0
    185e:	66 0f f9 c8          	psubw  %xmm0,%xmm1
    1862:	66 0f ee c1          	pmaxsw %xmm1,%xmm0
    1866:	66 0f ee d0          	pmaxsw %xmm0,%xmm2
    186a:	48 39 d0             	cmp    %rdx,%rax
    186d:	75 d9                	jne    1848 <dump2_q15+0x18>
    186f:	66 0f 6f c2          	movdqa %xmm2,%xmm0
    1873:	89 c8                	mov    %ecx,%eax
    1875:	66 0f 73 d8 08       	psrldq $0x8,%xmm0
    187a:	83 e0 f8             	and    $0xfffffff8,%eax
    187d:	66 0f ee d0          	pmaxsw %xmm0,%xmm2
    1881:	89 c2                	mov    %eax,%edx
    1883:	66 0f 6f c2          	movdqa %xmm2,%xmm0
    1887:	48 01 d2             	add    %rdx,%rdx
    188a:	66 0f 73 d8 04       	psrldq $0x4,%xmm0
    188f:	48 01 d7             	add    %rdx,%rdi
    1892:	48 01 d6             	add    %rdx,%rsi
    1895:	66 0f ee d0          	pmaxsw %xmm0,%xmm2
    1899:	66 0f 6f c2          	movdqa %xmm2,%xmm0
    189d:	66 0f 73 d8 02       	psrldq $0x2,%xmm0
    18a2:	66 0f ee d0          	pmaxsw %xmm0,%xmm2
    18a6:	66 44 0f c5 e2 00    	pextrw $0x0,%xmm2,%r12d
    18ac:	39 c1                	cmp    %eax,%ecx
    18ae:	0f 84 ea 00 00 00    	je     199e <dump2_q15+0x16e>
    18b4:	0f b7 16             	movzwl (%rsi),%edx
    18b7:	66 2b 17             	sub    (%rdi),%dx
    18ba:	41 89 d0             	mov    %edx,%r8d
    18bd:	66 41 f7 d8          	neg    %r8w
    18c1:	41 0f 49 d0          	cmovns %r8d,%edx
    18c5:	66 41 39 d4          	cmp    %dx,%r12w
    18c9:	44 0f 4c e2          	cmovl  %edx,%r12d
    18cd:	8d 50 01             	lea    0x1(%rax),%edx
    18d0:	39 d1                	cmp    %edx,%ecx
    18d2:	0f 86 c6 00 00 00    	jbe    199e <dump2_q15+0x16e>
    18d8:	0f b7 56 02          	movzwl 0x2(%rsi),%edx
    18dc:	66 2b 57 02          	sub    0x2(%rdi),%dx
    18e0:	41 89 d0             	mov    %edx,%r8d
    18e3:	66 41 f7 d8          	neg    %r8w
    18e7:	41 0f 49 d0          	cmovns %r8d,%edx
    18eb:	66 41 39 d4          	cmp    %dx,%r12w
    18ef:	44 0f 4c e2          	cmovl  %edx,%r12d
    18f3:	8d 50 02             	lea    0x2(%rax),%edx
    18f6:	39 d1                	cmp    %edx,%ecx
    18f8:	0f 86 a0 00 00 00    	jbe    199e <dump2_q15+0x16e>
    18fe:	0f b7 56 04          	movzwl 0x4(%rsi),%edx
    1902:	66 2b 57 04          	sub    0x4(%rdi),%dx
    1906:	41 89 d0             	mov    %edx,%r8d
    1909:	66 41 f7 d8          	neg    %r8w
    190d:	41 0f 49 d0          	cmovns %r8d,%edx
    1911:	66 41 39 d4          	cmp    %dx,%r12w
    1915:	44 0f 4c e2          	cmovl  %edx,%r12d
    1919:	8d 50 03             	lea    0x3(%rax),%edx
    191c:	39 d1                	cmp    %edx,%ecx
    191e:	76 7e                	jbe    199e <dump2_q15+0x16e>
    1920:	0f b7 56 06          	movzwl 0x6(%rsi),%edx
    1924:	66 2b 57 06          	sub    0x6(%rdi),%dx
    1928:	41 89 d0             	mov    %edx,%r8d
    192b:	66 41 f7 d8          	neg    %r8w
    192f:	41 0f 49 d0          	cmovns %r8d,%edx
    1933:	66 41 39 d4          	cmp    %dx,%r12w
    1937:	44 0f 4c e2          	cmovl  %edx,%r12d
    193b:	8d 50 04             	lea    0x4(%rax),%edx
    193e:	39 d1                	cmp    %edx,%ecx
    1940:	76 5c                	jbe    199e <dump2_q15+0x16e>
    1942:	0f b7 56 08          	movzwl 0x8(%rsi),%edx
    1946:	66 2b 57 08          	sub    0x8(%rdi),%dx
    194a:	41 89 d0             	mov    %edx,%r8d
    194d:	66 41 f7 d8          	neg    %r8w
    1951:	41 0f 49 d0          	cmovns %r8d,%edx
    1955:	66 41 39 d4          	cmp    %dx,%r12w
    1959:	44 0f 4c e2          	cmovl  %edx,%r12d
    195d:	8d 50 05             	lea    0x5(%rax),%edx
    1960:	39 d1                	cmp    %edx,%ecx
    1962:	76 3a                	jbe    199e <dump2_q15+0x16e>
    1964:	0f b7 56 0a          	movzwl 0xa(%rsi),%edx
    1968:	66 2b 57 0a          	sub    0xa(%rdi),%dx
    196c:	41 89 d0             	mov    %edx,%r8d
    196f:	66 41 f7 d8          	neg    %r8w
    1973:	41 0f 49 d0          	cmovns %r8d,%edx
    1977:	66 41 39 d4          	cmp    %dx,%r12w
    197b:	44 0f 4c e2          	cmovl  %edx,%r12d
    197f:	83 c0 06             	add    $0x6,%eax
    1982:	39 c1                	cmp    %eax,%ecx
    1984:	76 18                	jbe    199e <dump2_q15+0x16e>
    1986:	0f b7 46 0c          	movzwl 0xc(%rsi),%eax
    198a:	66 2b 47 0c          	sub    0xc(%rdi),%ax
    198e:	89 c2                	mov    %eax,%edx
    1990:	66 f7 da             	neg    %dx
    1993:	0f 49 c2             	cmovns %edx,%eax
    1996:	66 41 39 c4          	cmp    %ax,%r12w
    199a:	44 0f 4c e0          	cmovl  %eax,%r12d
    199e:	41 0f bf d4          	movswl %r12w,%edx
    19a2:	48 8d 35 5b 06 00 00 	lea    0x65b(%rip),%rsi        # 2004 <_IO_stdin_used+0x4>
    19a9:	bf 01 00 00 00       	mov    $0x1,%edi
    19ae:	31 c0                	xor    %eax,%eax
    19b0:	e8 ab f7 ff ff       	call   1160 <__printf_chk@plt>
    19b5:	44 89 e0             	mov    %r12d,%eax
    19b8:	41 5c                	pop    %r12
    19ba:	c3                   	ret    
    19bb:	0f 1f 44 00 00       	nopl   0x0(%rax,%rax,1)

00000000000019c0 <test_Fread.constprop.0.isra.0>:
    19c0:	48 89 d1             	mov    %rdx,%rcx
    19c3:	89 f2                	mov    %esi,%edx
    19c5:	be 02 00 00 00       	mov    $0x2,%esi
    19ca:	e9 41 f7 ff ff       	jmp    1110 <fread@plt>
    19cf:	90                   	nop

00000000000019d0 <riscv_dsp_convert_q15_f32>:
    19d0:	f3 0f 1e fa          	endbr64 
    19d4:	48 89 f1             	mov    %rsi,%rcx
    19d7:	85 d2                	test   %edx,%edx
    19d9:	0f 84 36 01 00 00    	je     1b15 <riscv_dsp_convert_q15_f32+0x145>
    19df:	8d 42 ff             	lea    -0x1(%rdx),%eax
    19e2:	83 f8 06             	cmp    $0x6,%eax
    19e5:	0f 86 36 01 00 00    	jbe    1b21 <riscv_dsp_convert_q15_f32+0x151>
    19eb:	89 d6                	mov    %edx,%esi
    19ed:	0f 28 1d 8c 07 00 00 	movaps 0x78c(%rip),%xmm3        # 2180 <_IO_stdin_used+0x180>
    19f4:	31 c0                	xor    %eax,%eax
    19f6:	66 0f ef e4          	pxor   %xmm4,%xmm4
    19fa:	c1 ee 03             	shr    $0x3,%esi
    19fd:	48 c1 e6 04          	shl    $0x4,%rsi
    1a01:	0f 1f 80 00 00 00 00 	nopl   0x0(%rax)
    1a08:	f3 0f 6f 04 07       	movdqu (%rdi,%rax,1),%xmm0
    1a0d:	66 0f 6f d4          	movdqa %xmm4,%xmm2
    1a11:	66 0f 65 d0          	pcmpgtw %xmm0,%xmm2
    1a15:	66 0f 6f c8          	movdqa %xmm0,%xmm1
    1a19:	66 0f 61 ca          	punpcklwd %xmm2,%xmm1
    1a1d:	66 0f 69 c2          	punpckhwd %xmm2,%xmm0
    1a21:	0f 5b c9             	cvtdq2ps %xmm1,%xmm1
    1a24:	0f 5b c0             	cvtdq2ps %xmm0,%xmm0
    1a27:	0f 59 cb             	mulps  %xmm3,%xmm1
    1a2a:	0f 59 c3             	mulps  %xmm3,%xmm0
    1a2d:	0f 11 0c 41          	movups %xmm1,(%rcx,%rax,2)
    1a31:	0f 11 44 41 10       	movups %xmm0,0x10(%rcx,%rax,2)
    1a36:	48 83 c0 10          	add    $0x10,%rax
    1a3a:	48 39 f0             	cmp    %rsi,%rax
    1a3d:	75 c9                	jne    1a08 <riscv_dsp_convert_q15_f32+0x38>
    1a3f:	89 d6                	mov    %edx,%esi
    1a41:	83 e6 f8             	and    $0xfffffff8,%esi
    1a44:	89 f0                	mov    %esi,%eax
    1a46:	48 8d 3c 47          	lea    (%rdi,%rax,2),%rdi
    1a4a:	48 8d 0c 81          	lea    (%rcx,%rax,4),%rcx
    1a4e:	89 d0                	mov    %edx,%eax
    1a50:	29 f0                	sub    %esi,%eax
    1a52:	39 f2                	cmp    %esi,%edx
    1a54:	0f 84 c6 00 00 00    	je     1b20 <riscv_dsp_convert_q15_f32+0x150>
    1a5a:	0f bf 17             	movswl (%rdi),%edx
    1a5d:	66 0f ef c9          	pxor   %xmm1,%xmm1
    1a61:	f3 0f 10 05 17 07 00 	movss  0x717(%rip),%xmm0        # 2180 <_IO_stdin_used+0x180>
    1a68:	00 
    1a69:	f3 0f 2a ca          	cvtsi2ss %edx,%xmm1
    1a6d:	f3 0f 59 c8          	mulss  %xmm0,%xmm1
    1a71:	f3 0f 11 09          	movss  %xmm1,(%rcx)
    1a75:	83 f8 01             	cmp    $0x1,%eax
    1a78:	0f 84 97 00 00 00    	je     1b15 <riscv_dsp_convert_q15_f32+0x145>
    1a7e:	0f bf 57 02          	movswl 0x2(%rdi),%edx
    1a82:	66 0f ef c9          	pxor   %xmm1,%xmm1
    1a86:	f3 0f 2a ca          	cvtsi2ss %edx,%xmm1
    1a8a:	f3 0f 59 c8          	mulss  %xmm0,%xmm1
    1a8e:	f3 0f 11 49 04       	movss  %xmm1,0x4(%rcx)
    1a93:	83 f8 02             	cmp    $0x2,%eax
    1a96:	74 7d                	je     1b15 <riscv_dsp_convert_q15_f32+0x145>
    1a98:	0f bf 57 04          	movswl 0x4(%rdi),%edx
    1a9c:	66 0f ef c9          	pxor   %xmm1,%xmm1
    1aa0:	f3 0f 2a ca          	cvtsi2ss %edx,%xmm1
    1aa4:	f3 0f 59 c8          	mulss  %xmm0,%xmm1
    1aa8:	f3 0f 11 49 08       	movss  %xmm1,0x8(%rcx)
    1aad:	83 f8 03             	cmp    $0x3,%eax
    1ab0:	74 63                	je     1b15 <riscv_dsp_convert_q15_f32+0x145>
    1ab2:	0f bf 57 06          	movswl 0x6(%rdi),%edx
    1ab6:	66 0f ef c9          	pxor   %xmm1,%xmm1
    1aba:	f3 0f 2a ca          	cvtsi2ss %edx,%xmm1
    1abe:	f3 0f 59 c8          	mulss  %xmm0,%xmm1
    1ac2:	f3 0f 11 49 0c       	movss  %xmm1,0xc(%rcx)
    1ac7:	83 f8 04             	cmp    $0x4,%eax
    1aca:	74 49                	je     1b15 <riscv_dsp_convert_q15_f32+0x145>
    1acc:	0f bf 57 08          	movswl 0x8(%rdi),%edx
    1ad0:	66 0f ef c9          	pxor   %xmm1,%xmm1
    1ad4:	f3 0f 2a ca          	cvtsi2ss %edx,%xmm1
    1ad8:	f3 0f 59 c8          	mulss  %xmm0,%xmm1
    1adc:	f3 0f 11 49 10       	movss  %xmm1,0x10(%rcx)
    1ae1:	83 f8 05             	cmp    $0x5,%eax
    1ae4:	74 2f                	je     1b15 <riscv_dsp_convert_q15_f32+0x145>
    1ae6:	0f bf 57 0a          	movswl 0xa(%rdi),%edx
    1aea:	66 0f ef c9          	pxor   %xmm1,%xmm1
    1aee:	f3 0f 2a ca          	cvtsi2ss %edx,%xmm1
    1af2:	f3 0f 59 c8          	mulss  %xmm0,%xmm1
    1af6:	f3 0f 11 49 14       	movss  %xmm1,0x14(%rcx)
    1afb:	83 f8 06             	cmp    $0x6,%eax
    1afe:	74 15                	je     1b15 <riscv_dsp_convert_q15_f32+0x145>
    1b00:	0f bf 47 0c          	movswl 0xc(%rdi),%eax
    1b04:	66 0f ef c9          	pxor   %xmm1,%xmm1
    1b08:	f3 0f 2a c8          	cvtsi2ss %eax,%xmm1
    1b0c:	f3 0f 59 c8          	mulss  %xmm0,%xmm1
    1b10:	f3 0f 11 49 18       	movss  %xmm1,0x18(%rcx)
    1b15:	c3                   	ret    
    1b16:	66 2e 0f 1f 84 00 00 	cs nopw 0x0(%rax,%rax,1)
    1b1d:	00 00 00 
    1b20:	c3                   	ret    
    1b21:	89 d0                	mov    %edx,%eax
    1b23:	e9 32 ff ff ff       	jmp    1a5a <riscv_dsp_convert_q15_f32+0x8a>
    1b28:	0f 1f 84 00 00 00 00 	nopl   0x0(%rax,%rax,1)
    1b2f:	00 

0000000000001b30 <riscv_dsp_upsplfir_q15>:
    1b30:	f3 0f 1e fa          	endbr64 
    1b34:	41 57                	push   %r15
    1b36:	48 89 f8             	mov    %rdi,%rax
    1b39:	41 56                	push   %r14
    1b3b:	41 55                	push   %r13
    1b3d:	41 54                	push   %r12
    1b3f:	55                   	push   %rbp
    1b40:	53                   	push   %rbx
    1b41:	8b 6f 04             	mov    0x4(%rdi),%ebp
    1b44:	48 89 d3             	mov    %rdx,%rbx
    1b47:	89 ca                	mov    %ecx,%edx
    1b49:	4c 8b 67 10          	mov    0x10(%rdi),%r12
    1b4d:	8d 4d ff             	lea    -0x1(%rbp),%ecx
    1b50:	89 4c 24 f4          	mov    %ecx,-0xc(%rsp)
    1b54:	49 8d 3c 4c          	lea    (%r12,%rcx,2),%rdi
    1b58:	85 d2                	test   %edx,%edx
    1b5a:	0f 84 8a 03 00 00    	je     1eea <riscv_dsp_upsplfir_q15+0x3ba>
    1b60:	44 8b 10             	mov    (%rax),%r10d
    1b63:	48 8b 40 08          	mov    0x8(%rax),%rax
    1b67:	4d 8d 5c 4c 02       	lea    0x2(%r12,%rcx,2),%r11
    1b6c:	45 8d 72 ff          	lea    -0x1(%r10),%r14d
    1b70:	48 89 44 24 c0       	mov    %rax,-0x40(%rsp)
    1b75:	4d 89 d0             	mov    %r10,%r8
    1b78:	89 d0                	mov    %edx,%eax
    1b7a:	44 89 74 24 d0       	mov    %r14d,-0x30(%rsp)
    1b7f:	4d 01 d2             	add    %r10,%r10
    1b82:	48 89 44 24 e8       	mov    %rax,-0x18(%rsp)
    1b87:	41 83 f8 01          	cmp    $0x1,%r8d
    1b8b:	0f 85 23 02 00 00    	jne    1db4 <riscv_dsp_upsplfir_q15+0x284>
    1b91:	48 8d 04 47          	lea    (%rdi,%rax,2),%rax
    1b95:	48 8b 4c 24 c0       	mov    -0x40(%rsp),%rcx
    1b9a:	4c 89 64 24 d8       	mov    %r12,-0x28(%rsp)
    1b9f:	4d 89 e5             	mov    %r12,%r13
    1ba2:	48 89 44 24 c8       	mov    %rax,-0x38(%rsp)
    1ba7:	49 63 c6             	movslq %r14d,%rax
    1baa:	48 8d 04 41          	lea    (%rcx,%rax,2),%rax
    1bae:	48 89 44 24 d0       	mov    %rax,-0x30(%rsp)
    1bb3:	0f 1f 44 00 00       	nopl   0x0(%rax,%rax,1)
    1bb8:	66 a5                	movsw  %ds:(%rsi),%es:(%rdi)
    1bba:	45 85 f6             	test   %r14d,%r14d
    1bbd:	0f 84 c5 01 00 00    	je     1d88 <riscv_dsp_upsplfir_q15+0x258>
    1bc3:	48 b8 00 00 00 00 02 	movabs $0x200000000,%rax
    1bca:	00 00 00 
    1bcd:	4c 8b 64 24 d0       	mov    -0x30(%rsp),%r12
    1bd2:	4c 8d 3c 03          	lea    (%rbx,%rax,1),%r15
    1bd6:	66 2e 0f 1f 84 00 00 	cs nopw 0x0(%rax,%rax,1)
    1bdd:	00 00 00 
    1be0:	4d 89 e0             	mov    %r12,%r8
    1be3:	4c 89 ea             	mov    %r13,%rdx
    1be6:	31 c9                	xor    %ecx,%ecx
    1be8:	85 ed                	test   %ebp,%ebp
    1bea:	74 39                	je     1c25 <riscv_dsp_upsplfir_q15+0xf5>
    1bec:	0f 1f 40 00          	nopl   0x0(%rax)
    1bf0:	41 0f bf 00          	movswl (%r8),%eax
    1bf4:	44 0f bf 0a          	movswl (%rdx),%r9d
    1bf8:	48 83 c2 02          	add    $0x2,%rdx
    1bfc:	4d 01 d0             	add    %r10,%r8
    1bff:	41 0f af c1          	imul   %r9d,%eax
    1c03:	48 98                	cltq   
    1c05:	48 01 c1             	add    %rax,%rcx
    1c08:	4c 39 da             	cmp    %r11,%rdx
    1c0b:	75 e3                	jne    1bf0 <riscv_dsp_upsplfir_q15+0xc0>
    1c0d:	b8 00 80 ff ff       	mov    $0xffff8000,%eax
    1c12:	48 c1 f9 0f          	sar    $0xf,%rcx
    1c16:	39 c1                	cmp    %eax,%ecx
    1c18:	0f 4c c8             	cmovl  %eax,%ecx
    1c1b:	b8 ff 7f 00 00       	mov    $0x7fff,%eax
    1c20:	39 c1                	cmp    %eax,%ecx
    1c22:	0f 4f c8             	cmovg  %eax,%ecx
    1c25:	48 83 c3 02          	add    $0x2,%rbx
    1c29:	49 83 ec 02          	sub    $0x2,%r12
    1c2d:	66 89 4b fe          	mov    %cx,-0x2(%rbx)
    1c31:	4c 39 fb             	cmp    %r15,%rbx
    1c34:	75 aa                	jne    1be0 <riscv_dsp_upsplfir_q15+0xb0>
    1c36:	85 ed                	test   %ebp,%ebp
    1c38:	0f 84 43 01 00 00    	je     1d81 <riscv_dsp_upsplfir_q15+0x251>
    1c3e:	48 8b 4c 24 c0       	mov    -0x40(%rsp),%rcx
    1c43:	4c 89 ea             	mov    %r13,%rdx
    1c46:	45 31 c0             	xor    %r8d,%r8d
    1c49:	0f 1f 80 00 00 00 00 	nopl   0x0(%rax)
    1c50:	0f bf 01             	movswl (%rcx),%eax
    1c53:	44 0f bf 0a          	movswl (%rdx),%r9d
    1c57:	48 83 c2 02          	add    $0x2,%rdx
    1c5b:	4c 01 d1             	add    %r10,%rcx
    1c5e:	41 0f af c1          	imul   %r9d,%eax
    1c62:	48 98                	cltq   
    1c64:	49 01 c0             	add    %rax,%r8
    1c67:	4c 39 da             	cmp    %r11,%rdx
    1c6a:	75 e4                	jne    1c50 <riscv_dsp_upsplfir_q15+0x120>
    1c6c:	49 c1 f8 0f          	sar    $0xf,%r8
    1c70:	b8 00 80 ff ff       	mov    $0xffff8000,%eax
    1c75:	ba ff 7f 00 00       	mov    $0x7fff,%edx
    1c7a:	41 39 c0             	cmp    %eax,%r8d
    1c7d:	41 0f 4d c0          	cmovge %r8d,%eax
    1c81:	39 d0                	cmp    %edx,%eax
    1c83:	0f 4f c2             	cmovg  %edx,%eax
    1c86:	66 41 89 07          	mov    %ax,(%r15)
    1c8a:	49 8d 5f 02          	lea    0x2(%r15),%rbx
    1c8e:	49 83 c5 02          	add    $0x2,%r13
    1c92:	49 83 c3 02          	add    $0x2,%r11
    1c96:	48 3b 7c 24 c8       	cmp    -0x38(%rsp),%rdi
    1c9b:	0f 85 17 ff ff ff    	jne    1bb8 <riscv_dsp_upsplfir_q15+0x88>
    1ca1:	4c 8b 64 24 d8       	mov    -0x28(%rsp),%r12
    1ca6:	48 8b 44 24 e8       	mov    -0x18(%rsp),%rax
    1cab:	49 8d 14 44          	lea    (%r12,%rax,2),%rdx
    1caf:	8b 5c 24 f4          	mov    -0xc(%rsp),%ebx
    1cb3:	89 de                	mov    %ebx,%esi
    1cb5:	85 db                	test   %ebx,%ebx
    1cb7:	0f 84 b9 00 00 00    	je     1d76 <riscv_dsp_upsplfir_q15+0x246>
    1cbd:	48 8d 7a 02          	lea    0x2(%rdx),%rdi
    1cc1:	4c 89 e1             	mov    %r12,%rcx
    1cc4:	8d 45 fe             	lea    -0x2(%rbp),%eax
    1cc7:	48 29 f9             	sub    %rdi,%rcx
    1cca:	48 83 f9 0c          	cmp    $0xc,%rcx
    1cce:	0f 86 bc 00 00 00    	jbe    1d90 <riscv_dsp_upsplfir_q15+0x260>
    1cd4:	83 f8 02             	cmp    $0x2,%eax
    1cd7:	0f 86 b3 00 00 00    	jbe    1d90 <riscv_dsp_upsplfir_q15+0x260>
    1cdd:	83 f8 06             	cmp    $0x6,%eax
    1ce0:	0f 86 0c 02 00 00    	jbe    1ef2 <riscv_dsp_upsplfir_q15+0x3c2>
    1ce6:	c1 eb 03             	shr    $0x3,%ebx
    1ce9:	31 c0                	xor    %eax,%eax
    1ceb:	89 d9                	mov    %ebx,%ecx
    1ced:	48 c1 e1 04          	shl    $0x4,%rcx
    1cf1:	f3 0f 6f 04 02       	movdqu (%rdx,%rax,1),%xmm0
    1cf6:	41 0f 11 04 04       	movups %xmm0,(%r12,%rax,1)
    1cfb:	48 83 c0 10          	add    $0x10,%rax
    1cff:	48 39 c8             	cmp    %rcx,%rax
    1d02:	75 ed                	jne    1cf1 <riscv_dsp_upsplfir_q15+0x1c1>
    1d04:	8b 5c 24 f4          	mov    -0xc(%rsp),%ebx
    1d08:	41 89 d8             	mov    %ebx,%r8d
    1d0b:	89 de                	mov    %ebx,%esi
    1d0d:	41 83 e0 f8          	and    $0xfffffff8,%r8d
    1d11:	44 89 c7             	mov    %r8d,%edi
    1d14:	44 29 c6             	sub    %r8d,%esi
    1d17:	48 8d 04 3f          	lea    (%rdi,%rdi,1),%rax
    1d1b:	48 8d 0c 02          	lea    (%rdx,%rax,1),%rcx
    1d1f:	4c 01 e0             	add    %r12,%rax
    1d22:	44 39 c3             	cmp    %r8d,%ebx
    1d25:	74 4f                	je     1d76 <riscv_dsp_upsplfir_q15+0x246>
    1d27:	44 29 c5             	sub    %r8d,%ebp
    1d2a:	44 8d 45 ff          	lea    -0x1(%rbp),%r8d
    1d2e:	83 ed 02             	sub    $0x2,%ebp
    1d31:	83 fd 02             	cmp    $0x2,%ebp
    1d34:	76 20                	jbe    1d56 <riscv_dsp_upsplfir_q15+0x226>
    1d36:	48 8b 14 7a          	mov    (%rdx,%rdi,2),%rdx
    1d3a:	49 89 14 7c          	mov    %rdx,(%r12,%rdi,2)
    1d3e:	44 89 c7             	mov    %r8d,%edi
    1d41:	83 e7 fc             	and    $0xfffffffc,%edi
    1d44:	89 fa                	mov    %edi,%edx
    1d46:	29 fe                	sub    %edi,%esi
    1d48:	48 01 d2             	add    %rdx,%rdx
    1d4b:	48 01 d1             	add    %rdx,%rcx
    1d4e:	48 01 d0             	add    %rdx,%rax
    1d51:	41 39 f8             	cmp    %edi,%r8d
    1d54:	74 20                	je     1d76 <riscv_dsp_upsplfir_q15+0x246>
    1d56:	0f b7 11             	movzwl (%rcx),%edx
    1d59:	66 89 10             	mov    %dx,(%rax)
    1d5c:	83 fe 01             	cmp    $0x1,%esi
    1d5f:	74 15                	je     1d76 <riscv_dsp_upsplfir_q15+0x246>
    1d61:	0f b7 51 02          	movzwl 0x2(%rcx),%edx
    1d65:	66 89 50 02          	mov    %dx,0x2(%rax)
    1d69:	83 fe 02             	cmp    $0x2,%esi
    1d6c:	74 08                	je     1d76 <riscv_dsp_upsplfir_q15+0x246>
    1d6e:	0f b7 51 04          	movzwl 0x4(%rcx),%edx
    1d72:	66 89 50 04          	mov    %dx,0x4(%rax)
    1d76:	5b                   	pop    %rbx
    1d77:	5d                   	pop    %rbp
    1d78:	41 5c                	pop    %r12
    1d7a:	41 5d                	pop    %r13
    1d7c:	41 5e                	pop    %r14
    1d7e:	41 5f                	pop    %r15
    1d80:	c3                   	ret    
    1d81:	31 c0                	xor    %eax,%eax
    1d83:	e9 fe fe ff ff       	jmp    1c86 <riscv_dsp_upsplfir_q15+0x156>
    1d88:	49 89 df             	mov    %rbx,%r15
    1d8b:	e9 a6 fe ff ff       	jmp    1c36 <riscv_dsp_upsplfir_q15+0x106>
    1d90:	89 c1                	mov    %eax,%ecx
    1d92:	31 c0                	xor    %eax,%eax
    1d94:	0f b7 34 42          	movzwl (%rdx,%rax,2),%esi
    1d98:	66 41 89 34 44       	mov    %si,(%r12,%rax,2)
    1d9d:	48 89 c6             	mov    %rax,%rsi
    1da0:	48 83 c0 01          	add    $0x1,%rax
    1da4:	48 39 f1             	cmp    %rsi,%rcx
    1da7:	75 eb                	jne    1d94 <riscv_dsp_upsplfir_q15+0x264>
    1da9:	5b                   	pop    %rbx
    1daa:	5d                   	pop    %rbp
    1dab:	41 5c                	pop    %r12
    1dad:	41 5d                	pop    %r13
    1daf:	41 5e                	pop    %r14
    1db1:	41 5f                	pop    %r15
    1db3:	c3                   	ret    
    1db4:	48 8d 04 46          	lea    (%rsi,%rax,2),%rax
    1db8:	48 8b 54 24 c0       	mov    -0x40(%rsp),%rdx
    1dbd:	4d 89 e5             	mov    %r12,%r13
    1dc0:	66 a5                	movsw  %ds:(%rsi),%es:(%rdi)
    1dc2:	48 89 44 24 e0       	mov    %rax,-0x20(%rsp)
    1dc7:	49 63 c6             	movslq %r14d,%rax
    1dca:	48 89 c1             	mov    %rax,%rcx
    1dcd:	48 8d 04 42          	lea    (%rdx,%rax,2),%rax
    1dd1:	48 89 44 24 c8       	mov    %rax,-0x38(%rsp)
    1dd6:	89 c8                	mov    %ecx,%eax
    1dd8:	48 01 c0             	add    %rax,%rax
    1ddb:	48 89 44 24 d8       	mov    %rax,-0x28(%rsp)
    1de0:	8b 44 24 d0          	mov    -0x30(%rsp),%eax
    1de4:	85 c0                	test   %eax,%eax
    1de6:	0f 84 eb 00 00 00    	je     1ed7 <riscv_dsp_upsplfir_q15+0x3a7>
    1dec:	48 8b 44 24 d8       	mov    -0x28(%rsp),%rax
    1df1:	4c 8b 74 24 c8       	mov    -0x38(%rsp),%r14
    1df6:	4c 8d 3c 03          	lea    (%rbx,%rax,1),%r15
    1dfa:	66 0f 1f 44 00 00    	nopw   0x0(%rax,%rax,1)
    1e00:	4c 89 f1             	mov    %r14,%rcx
    1e03:	85 ed                	test   %ebp,%ebp
    1e05:	0f 84 d7 00 00 00    	je     1ee2 <riscv_dsp_upsplfir_q15+0x3b2>
    1e0b:	4c 89 ea             	mov    %r13,%rdx
    1e0e:	45 31 c0             	xor    %r8d,%r8d
    1e11:	0f 1f 80 00 00 00 00 	nopl   0x0(%rax)
    1e18:	44 0f bf 09          	movswl (%rcx),%r9d
    1e1c:	0f bf 02             	movswl (%rdx),%eax
    1e1f:	48 83 c2 02          	add    $0x2,%rdx
    1e23:	4c 01 d1             	add    %r10,%rcx
    1e26:	41 0f af c1          	imul   %r9d,%eax
    1e2a:	48 98                	cltq   
    1e2c:	49 01 c0             	add    %rax,%r8
    1e2f:	4c 39 da             	cmp    %r11,%rdx
    1e32:	75 e4                	jne    1e18 <riscv_dsp_upsplfir_q15+0x2e8>
    1e34:	b8 00 80 ff ff       	mov    $0xffff8000,%eax
    1e39:	49 c1 f8 0f          	sar    $0xf,%r8
    1e3d:	41 39 c0             	cmp    %eax,%r8d
    1e40:	44 0f 4c c0          	cmovl  %eax,%r8d
    1e44:	b8 ff 7f 00 00       	mov    $0x7fff,%eax
    1e49:	41 39 c0             	cmp    %eax,%r8d
    1e4c:	44 0f 4f c0          	cmovg  %eax,%r8d
    1e50:	48 83 c3 02          	add    $0x2,%rbx
    1e54:	49 83 ee 02          	sub    $0x2,%r14
    1e58:	66 44 89 43 fe       	mov    %r8w,-0x2(%rbx)
    1e5d:	4c 39 fb             	cmp    %r15,%rbx
    1e60:	75 9e                	jne    1e00 <riscv_dsp_upsplfir_q15+0x2d0>
    1e62:	85 ed                	test   %ebp,%ebp
    1e64:	74 78                	je     1ede <riscv_dsp_upsplfir_q15+0x3ae>
    1e66:	48 8b 4c 24 c0       	mov    -0x40(%rsp),%rcx
    1e6b:	4c 89 ea             	mov    %r13,%rdx
    1e6e:	45 31 c0             	xor    %r8d,%r8d
    1e71:	0f 1f 80 00 00 00 00 	nopl   0x0(%rax)
    1e78:	44 0f bf 09          	movswl (%rcx),%r9d
    1e7c:	0f bf 02             	movswl (%rdx),%eax
    1e7f:	48 83 c2 02          	add    $0x2,%rdx
    1e83:	4c 01 d1             	add    %r10,%rcx
    1e86:	41 0f af c1          	imul   %r9d,%eax
    1e8a:	48 98                	cltq   
    1e8c:	49 01 c0             	add    %rax,%r8
    1e8f:	4c 39 da             	cmp    %r11,%rdx
    1e92:	75 e4                	jne    1e78 <riscv_dsp_upsplfir_q15+0x348>
    1e94:	49 c1 f8 0f          	sar    $0xf,%r8
    1e98:	b8 00 80 ff ff       	mov    $0xffff8000,%eax
    1e9d:	ba ff 7f 00 00       	mov    $0x7fff,%edx
    1ea2:	41 39 c0             	cmp    %eax,%r8d
    1ea5:	41 0f 4d c0          	cmovge %r8d,%eax
    1ea9:	39 d0                	cmp    %edx,%eax
    1eab:	0f 4f c2             	cmovg  %edx,%eax
    1eae:	66 41 89 07          	mov    %ax,(%r15)
    1eb2:	49 8d 5f 02          	lea    0x2(%r15),%rbx
    1eb6:	49 83 c5 02          	add    $0x2,%r13
    1eba:	49 83 c3 02          	add    $0x2,%r11
    1ebe:	48 3b 74 24 e0       	cmp    -0x20(%rsp),%rsi
    1ec3:	0f 84 dd fd ff ff    	je     1ca6 <riscv_dsp_upsplfir_q15+0x176>
    1ec9:	66 a5                	movsw  %ds:(%rsi),%es:(%rdi)
    1ecb:	8b 44 24 d0          	mov    -0x30(%rsp),%eax
    1ecf:	85 c0                	test   %eax,%eax
    1ed1:	0f 85 15 ff ff ff    	jne    1dec <riscv_dsp_upsplfir_q15+0x2bc>
    1ed7:	49 89 df             	mov    %rbx,%r15
    1eda:	85 ed                	test   %ebp,%ebp
    1edc:	75 88                	jne    1e66 <riscv_dsp_upsplfir_q15+0x336>
    1ede:	31 c0                	xor    %eax,%eax
    1ee0:	eb cc                	jmp    1eae <riscv_dsp_upsplfir_q15+0x37e>
    1ee2:	45 31 c0             	xor    %r8d,%r8d
    1ee5:	e9 66 ff ff ff       	jmp    1e50 <riscv_dsp_upsplfir_q15+0x320>
    1eea:	4c 89 e2             	mov    %r12,%rdx
    1eed:	e9 bd fd ff ff       	jmp    1caf <riscv_dsp_upsplfir_q15+0x17f>
    1ef2:	41 89 d8             	mov    %ebx,%r8d
    1ef5:	4c 89 e0             	mov    %r12,%rax
    1ef8:	48 89 d1             	mov    %rdx,%rcx
    1efb:	31 ff                	xor    %edi,%edi
    1efd:	e9 34 fe ff ff       	jmp    1d36 <riscv_dsp_upsplfir_q15+0x206>

Disassembly of section .fini:

0000000000001f04 <_fini>:
    1f04:	f3 0f 1e fa          	endbr64 
    1f08:	48 83 ec 08          	sub    $0x8,%rsp
    1f0c:	48 83 c4 08          	add    $0x8,%rsp
    1f10:	c3                   	ret    
