
t_win_hft95_f32:     file format elf64-x86-64


Disassembly of section .init:

0000000000001000 <_init>:
    1000:	f3 0f 1e fa          	endbr64 
    1004:	48 83 ec 08          	sub    $0x8,%rsp
    1008:	48 8b 05 d9 2f 00 00 	mov    0x2fd9(%rip),%rax        # 3fe8 <__gmon_start__@Base>
    100f:	48 85 c0             	test   %rax,%rax
    1012:	74 02                	je     1016 <_init+0x16>
    1014:	ff d0                	call   *%rax
    1016:	48 83 c4 08          	add    $0x8,%rsp
    101a:	c3                   	ret    

Disassembly of section .plt:

0000000000001020 <.plt>:
    1020:	ff 35 52 2f 00 00    	push   0x2f52(%rip)        # 3f78 <_GLOBAL_OFFSET_TABLE_+0x8>
    1026:	f2 ff 25 53 2f 00 00 	bnd jmp *0x2f53(%rip)        # 3f80 <_GLOBAL_OFFSET_TABLE_+0x10>
    102d:	0f 1f 00             	nopl   (%rax)
    1030:	f3 0f 1e fa          	endbr64 
    1034:	68 00 00 00 00       	push   $0x0
    1039:	f2 e9 e1 ff ff ff    	bnd jmp 1020 <_init+0x20>
    103f:	90                   	nop
    1040:	f3 0f 1e fa          	endbr64 
    1044:	68 01 00 00 00       	push   $0x1
    1049:	f2 e9 d1 ff ff ff    	bnd jmp 1020 <_init+0x20>
    104f:	90                   	nop
    1050:	f3 0f 1e fa          	endbr64 
    1054:	68 02 00 00 00       	push   $0x2
    1059:	f2 e9 c1 ff ff ff    	bnd jmp 1020 <_init+0x20>
    105f:	90                   	nop
    1060:	f3 0f 1e fa          	endbr64 
    1064:	68 03 00 00 00       	push   $0x3
    1069:	f2 e9 b1 ff ff ff    	bnd jmp 1020 <_init+0x20>
    106f:	90                   	nop
    1070:	f3 0f 1e fa          	endbr64 
    1074:	68 04 00 00 00       	push   $0x4
    1079:	f2 e9 a1 ff ff ff    	bnd jmp 1020 <_init+0x20>
    107f:	90                   	nop
    1080:	f3 0f 1e fa          	endbr64 
    1084:	68 05 00 00 00       	push   $0x5
    1089:	f2 e9 91 ff ff ff    	bnd jmp 1020 <_init+0x20>
    108f:	90                   	nop
    1090:	f3 0f 1e fa          	endbr64 
    1094:	68 06 00 00 00       	push   $0x6
    1099:	f2 e9 81 ff ff ff    	bnd jmp 1020 <_init+0x20>
    109f:	90                   	nop
    10a0:	f3 0f 1e fa          	endbr64 
    10a4:	68 07 00 00 00       	push   $0x7
    10a9:	f2 e9 71 ff ff ff    	bnd jmp 1020 <_init+0x20>
    10af:	90                   	nop
    10b0:	f3 0f 1e fa          	endbr64 
    10b4:	68 08 00 00 00       	push   $0x8
    10b9:	f2 e9 61 ff ff ff    	bnd jmp 1020 <_init+0x20>
    10bf:	90                   	nop
    10c0:	f3 0f 1e fa          	endbr64 
    10c4:	68 09 00 00 00       	push   $0x9
    10c9:	f2 e9 51 ff ff ff    	bnd jmp 1020 <_init+0x20>
    10cf:	90                   	nop

Disassembly of section .plt.got:

00000000000010d0 <__cxa_finalize@plt>:
    10d0:	f3 0f 1e fa          	endbr64 
    10d4:	f2 ff 25 1d 2f 00 00 	bnd jmp *0x2f1d(%rip)        # 3ff8 <__cxa_finalize@GLIBC_2.2.5>
    10db:	0f 1f 44 00 00       	nopl   0x0(%rax,%rax,1)

Disassembly of section .plt.sec:

00000000000010e0 <cosf@plt>:
    10e0:	f3 0f 1e fa          	endbr64 
    10e4:	f2 ff 25 9d 2e 00 00 	bnd jmp *0x2e9d(%rip)        # 3f88 <cosf@GLIBC_2.2.5>
    10eb:	0f 1f 44 00 00       	nopl   0x0(%rax,%rax,1)

00000000000010f0 <puts@plt>:
    10f0:	f3 0f 1e fa          	endbr64 
    10f4:	f2 ff 25 95 2e 00 00 	bnd jmp *0x2e95(%rip)        # 3f90 <puts@GLIBC_2.2.5>
    10fb:	0f 1f 44 00 00       	nopl   0x0(%rax,%rax,1)

0000000000001100 <fread@plt>:
    1100:	f3 0f 1e fa          	endbr64 
    1104:	f2 ff 25 8d 2e 00 00 	bnd jmp *0x2e8d(%rip)        # 3f98 <fread@GLIBC_2.2.5>
    110b:	0f 1f 44 00 00       	nopl   0x0(%rax,%rax,1)

0000000000001110 <fclose@plt>:
    1110:	f3 0f 1e fa          	endbr64 
    1114:	f2 ff 25 85 2e 00 00 	bnd jmp *0x2e85(%rip)        # 3fa0 <fclose@GLIBC_2.2.5>
    111b:	0f 1f 44 00 00       	nopl   0x0(%rax,%rax,1)

0000000000001120 <__stack_chk_fail@plt>:
    1120:	f3 0f 1e fa          	endbr64 
    1124:	f2 ff 25 7d 2e 00 00 	bnd jmp *0x2e7d(%rip)        # 3fa8 <__stack_chk_fail@GLIBC_2.4>
    112b:	0f 1f 44 00 00       	nopl   0x0(%rax,%rax,1)

0000000000001130 <log10f@plt>:
    1130:	f3 0f 1e fa          	endbr64 
    1134:	f2 ff 25 75 2e 00 00 	bnd jmp *0x2e75(%rip)        # 3fb0 <log10f@GLIBC_2.2.5>
    113b:	0f 1f 44 00 00       	nopl   0x0(%rax,%rax,1)

0000000000001140 <__printf_chk@plt>:
    1140:	f3 0f 1e fa          	endbr64 
    1144:	f2 ff 25 6d 2e 00 00 	bnd jmp *0x2e6d(%rip)        # 3fb8 <__printf_chk@GLIBC_2.3.4>
    114b:	0f 1f 44 00 00       	nopl   0x0(%rax,%rax,1)

0000000000001150 <fopen@plt>:
    1150:	f3 0f 1e fa          	endbr64 
    1154:	f2 ff 25 65 2e 00 00 	bnd jmp *0x2e65(%rip)        # 3fc0 <fopen@GLIBC_2.2.5>
    115b:	0f 1f 44 00 00       	nopl   0x0(%rax,%rax,1)

0000000000001160 <sqrt@plt>:
    1160:	f3 0f 1e fa          	endbr64 
    1164:	f2 ff 25 5d 2e 00 00 	bnd jmp *0x2e5d(%rip)        # 3fc8 <sqrt@GLIBC_2.2.5>
    116b:	0f 1f 44 00 00       	nopl   0x0(%rax,%rax,1)

0000000000001170 <__sprintf_chk@plt>:
    1170:	f3 0f 1e fa          	endbr64 
    1174:	f2 ff 25 55 2e 00 00 	bnd jmp *0x2e55(%rip)        # 3fd0 <__sprintf_chk@GLIBC_2.3.4>
    117b:	0f 1f 44 00 00       	nopl   0x0(%rax,%rax,1)

Disassembly of section .text:

0000000000001180 <main>:
    1180:	f3 0f 1e fa          	endbr64 
    1184:	55                   	push   %rbp
    1185:	48 89 e5             	mov    %rsp,%rbp
    1188:	41 56                	push   %r14
    118a:	41 55                	push   %r13
    118c:	41 54                	push   %r12
    118e:	53                   	push   %rbx
    118f:	48 83 ec 30          	sub    $0x30,%rsp
    1193:	64 48 8b 04 25 28 00 	mov    %fs:0x28,%rax
    119a:	00 00 
    119c:	48 89 45 d8          	mov    %rax,-0x28(%rbp)
    11a0:	31 c0                	xor    %eax,%eax
    11a2:	48 8d 84 24 00 c0 ff 	lea    -0x4000(%rsp),%rax
    11a9:	ff 
    11aa:	48 89 e3             	mov    %rsp,%rbx
    11ad:	48 39 c4             	cmp    %rax,%rsp
    11b0:	74 15                	je     11c7 <main+0x47>
    11b2:	48 81 ec 00 10 00 00 	sub    $0x1000,%rsp
    11b9:	48 83 8c 24 f8 0f 00 	orq    $0x0,0xff8(%rsp)
    11c0:	00 00 
    11c2:	48 39 c4             	cmp    %rax,%rsp
    11c5:	75 eb                	jne    11b2 <main+0x32>
    11c7:	49 89 e4             	mov    %rsp,%r12
    11ca:	48 8d 84 24 00 c0 ff 	lea    -0x4000(%rsp),%rax
    11d1:	ff 
    11d2:	48 39 c4             	cmp    %rax,%rsp
    11d5:	74 12                	je     11e9 <main+0x69>
    11d7:	48 81 ec 00 10 00 00 	sub    $0x1000,%rsp
    11de:	48 83 8c 24 f8 0f 00 	orq    $0x0,0xff8(%rsp)
    11e5:	00 00 
    11e7:	eb e9                	jmp    11d2 <main+0x52>
    11e9:	48 8d 7d d0          	lea    -0x30(%rbp),%rdi
    11ed:	48 c7 45 d0 00 00 00 	movq   $0x0,-0x30(%rbp)
    11f4:	00 
    11f5:	49 89 e5             	mov    %rsp,%r13
    11f8:	e8 c3 03 00 00       	call   15c0 <test_Fopen.constprop.0.isra.0>
    11fd:	4c 8b 75 d0          	mov    -0x30(%rbp),%r14
    1201:	ba ff 0f 00 00       	mov    $0xfff,%edx
    1206:	4c 89 ef             	mov    %r13,%rdi
    1209:	be 04 00 00 00       	mov    $0x4,%esi
    120e:	4c 89 f1             	mov    %r14,%rcx
    1211:	e8 ea fe ff ff       	call   1100 <fread@plt>
    1216:	4c 89 f7             	mov    %r14,%rdi
    1219:	e8 f2 fe ff ff       	call   1110 <fclose@plt>
    121e:	be ff 0f 00 00       	mov    $0xfff,%esi
    1223:	4c 89 e7             	mov    %r12,%rdi
    1226:	e8 35 04 00 00       	call   1660 <riscv_dsp_win_hft95_f32>
    122b:	31 c0                	xor    %eax,%eax
    122d:	66 0f ef c0          	pxor   %xmm0,%xmm0
    1231:	f3 0f 10 2d 07 0f 00 	movss  0xf07(%rip),%xmm5        # 2140 <_IO_stdin_used+0x140>
    1238:	00 
    1239:	0f 1f 80 00 00 00 00 	nopl   0x0(%rax)
    1240:	f3 41 0f 10 0c 04    	movss  (%r12,%rax,1),%xmm1
    1246:	f3 41 0f 5c 4c 05 00 	subss  0x0(%r13,%rax,1),%xmm1
    124d:	48 83 c0 04          	add    $0x4,%rax
    1251:	0f 54 cd             	andps  %xmm5,%xmm1
    1254:	f3 0f 5f c8          	maxss  %xmm0,%xmm1
    1258:	0f 28 c1             	movaps %xmm1,%xmm0
    125b:	48 3d fc 3f 00 00    	cmp    $0x3ffc,%rax
    1261:	75 dd                	jne    1240 <main+0xc0>
    1263:	66 0f ef c0          	pxor   %xmm0,%xmm0
    1267:	bf 01 00 00 00       	mov    $0x1,%edi
    126c:	b8 01 00 00 00       	mov    $0x1,%eax
    1271:	48 8d 35 c7 0d 00 00 	lea    0xdc7(%rip),%rsi        # 203f <_IO_stdin_used+0x3f>
    1278:	f3 0f 5a c1          	cvtss2sd %xmm1,%xmm0
    127c:	e8 bf fe ff ff       	call   1140 <__printf_chk@plt>
    1281:	66 0f ef db          	pxor   %xmm3,%xmm3
    1285:	66 45 0f ef c0       	pxor   %xmm8,%xmm8
    128a:	31 c0                	xor    %eax,%eax
    128c:	66 41 0f 28 f0       	movapd %xmm8,%xmm6
    1291:	0f 28 c3             	movaps %xmm3,%xmm0
    1294:	44 0f 28 cb          	movaps %xmm3,%xmm9
    1298:	0f 28 fb             	movaps %xmm3,%xmm7
    129b:	f3 0f 10 2d 9d 0e 00 	movss  0xe9d(%rip),%xmm5        # 2140 <_IO_stdin_used+0x140>
    12a2:	00 
    12a3:	0f 1f 44 00 00       	nopl   0x0(%rax,%rax,1)
    12a8:	f3 41 0f 10 0c 04    	movss  (%r12,%rax,1),%xmm1
    12ae:	f3 41 0f 10 54 05 00 	movss  0x0(%r13,%rax,1),%xmm2
    12b5:	66 0f 7e c9          	movd   %xmm1,%ecx
    12b9:	81 f9 00 00 c0 7f    	cmp    $0x7fc00000,%ecx
    12bf:	0f 84 63 01 00 00    	je     1428 <main+0x2a8>
    12c5:	0f 28 e2             	movaps %xmm2,%xmm4
    12c8:	f3 0f 5c ca          	subss  %xmm2,%xmm1
    12cc:	48 83 c0 04          	add    $0x4,%rax
    12d0:	f3 0f 5f e7          	maxss  %xmm7,%xmm4
    12d4:	0f 28 fc             	movaps %xmm4,%xmm7
    12d7:	0f 28 e2             	movaps %xmm2,%xmm4
    12da:	f3 41 0f 5d e1       	minss  %xmm9,%xmm4
    12df:	f3 0f 59 d2          	mulss  %xmm2,%xmm2
    12e3:	44 0f 28 cc          	movaps %xmm4,%xmm9
    12e7:	0f 28 e1             	movaps %xmm1,%xmm4
    12ea:	f3 0f 59 c9          	mulss  %xmm1,%xmm1
    12ee:	0f 54 e5             	andps  %xmm5,%xmm4
    12f1:	f3 0f 58 c4          	addss  %xmm4,%xmm0
    12f5:	f3 0f 5f e3          	maxss  %xmm3,%xmm4
    12f9:	f3 0f 5a d2          	cvtss2sd %xmm2,%xmm2
    12fd:	f2 44 0f 58 c2       	addsd  %xmm2,%xmm8
    1302:	0f 28 dc             	movaps %xmm4,%xmm3
    1305:	f3 0f 5a c9          	cvtss2sd %xmm1,%xmm1
    1309:	f2 0f 58 f1          	addsd  %xmm1,%xmm6
    130d:	48 3d fc 3f 00 00    	cmp    $0x3ffc,%rax
    1313:	75 93                	jne    12a8 <main+0x128>
    1315:	66 48 0f 7e f0       	movq   %xmm6,%rax
    131a:	f3 0f 11 65 bc       	movss  %xmm4,-0x44(%rbp)
    131f:	f3 44 0f 11 4d c0    	movss  %xmm9,-0x40(%rbp)
    1325:	f3 0f 11 7d c4       	movss  %xmm7,-0x3c(%rbp)
    132a:	f2 44 0f 11 45 c8    	movsd  %xmm8,-0x38(%rbp)
    1330:	3d 00 00 c0 7f       	cmp    $0x7fc00000,%eax
    1335:	0f 84 ed 00 00 00    	je     1428 <main+0x2a8>
    133b:	f3 0f 5e 05 ed 0d 00 	divss  0xded(%rip),%xmm0        # 2130 <_IO_stdin_used+0x130>
    1342:	00 
    1343:	f2 0f 11 75 b0       	movsd  %xmm6,-0x50(%rbp)
    1348:	66 41 0f 7e c4       	movd   %xmm0,%r12d
    134d:	66 0f 28 c6          	movapd %xmm6,%xmm0
    1351:	f2 0f 5e 05 f7 0d 00 	divsd  0xdf7(%rip),%xmm0        # 2150 <_IO_stdin_used+0x150>
    1358:	00 
    1359:	e8 02 fe ff ff       	call   1160 <sqrt@plt>
    135e:	f3 0f 10 7d c4       	movss  -0x3c(%rbp),%xmm7
    1363:	f3 44 0f 10 4d c0    	movss  -0x40(%rbp),%xmm9
    1369:	66 0f ef c9          	pxor   %xmm1,%xmm1
    136d:	66 0f ef ed          	pxor   %xmm5,%xmm5
    1371:	f2 44 0f 10 45 c8    	movsd  -0x38(%rbp),%xmm8
    1377:	f3 0f 10 5d bc       	movss  -0x44(%rbp),%xmm3
    137c:	f3 41 0f 5c f9       	subss  %xmm9,%xmm7
    1381:	f2 0f 5a c8          	cvtsd2ss %xmm0,%xmm1
    1385:	0f 28 f1             	movaps %xmm1,%xmm6
    1388:	f3 0f 5e f7          	divss  %xmm7,%xmm6
    138c:	66 41 0f 7e f5       	movd   %xmm6,%r13d
    1391:	f2 0f 10 75 b0       	movsd  -0x50(%rbp),%xmm6
    1396:	66 0f 2e f5          	ucomisd %xmm5,%xmm6
    139a:	0f 8a c3 00 00 00    	jp     1463 <main+0x2e3>
    13a0:	f3 0f 10 25 84 0d 00 	movss  0xd84(%rip),%xmm4        # 212c <_IO_stdin_used+0x12c>
    13a7:	00 
    13a8:	0f 85 b5 00 00 00    	jne    1463 <main+0x2e3>
    13ae:	48 8d 3d 9d 0c 00 00 	lea    0xc9d(%rip),%rdi        # 2052 <_IO_stdin_used+0x52>
    13b5:	f3 0f 11 5d c0       	movss  %xmm3,-0x40(%rbp)
    13ba:	f3 0f 11 65 c8       	movss  %xmm4,-0x38(%rbp)
    13bf:	f3 0f 11 4d c4       	movss  %xmm1,-0x3c(%rbp)
    13c4:	e8 27 fd ff ff       	call   10f0 <puts@plt>
    13c9:	f3 0f 10 65 c8       	movss  -0x38(%rbp),%xmm4
    13ce:	f3 0f 10 5d c0       	movss  -0x40(%rbp),%xmm3
    13d3:	66 41 0f 6e f5       	movd   %r13d,%xmm6
    13d8:	f3 0f 10 4d c4       	movss  -0x3c(%rbp),%xmm1
    13dd:	66 0f ef d2          	pxor   %xmm2,%xmm2
    13e1:	66 0f ef c0          	pxor   %xmm0,%xmm0
    13e5:	48 8d 35 ec 0c 00 00 	lea    0xcec(%rip),%rsi        # 20d8 <_IO_stdin_used+0xd8>
    13ec:	f3 0f 5a d6          	cvtss2sd %xmm6,%xmm2
    13f0:	bf 01 00 00 00       	mov    $0x1,%edi
    13f5:	f3 0f 5a e4          	cvtss2sd %xmm4,%xmm4
    13f9:	f3 0f 5a db          	cvtss2sd %xmm3,%xmm3
    13fd:	66 41 0f 6e f4       	movd   %r12d,%xmm6
    1402:	b8 05 00 00 00       	mov    $0x5,%eax
    1407:	f2 0f 11 55 c8       	movsd  %xmm2,-0x38(%rbp)
    140c:	f3 0f 5a c9          	cvtss2sd %xmm1,%xmm1
    1410:	f3 0f 5a c6          	cvtss2sd %xmm6,%xmm0
    1414:	e8 27 fd ff ff       	call   1140 <__printf_chk@plt>
    1419:	f2 0f 10 55 c8       	movsd  -0x38(%rbp),%xmm2
    141e:	66 0f 2f 15 32 0d 00 	comisd 0xd32(%rip),%xmm2        # 2158 <_IO_stdin_used+0x158>
    1425:	00 
    1426:	77 72                	ja     149a <main+0x31a>
    1428:	48 8d 15 38 0c 00 00 	lea    0xc38(%rip),%rdx        # 2067 <_IO_stdin_used+0x67>
    142f:	48 8d 35 54 0c 00 00 	lea    0xc54(%rip),%rsi        # 208a <_IO_stdin_used+0x8a>
    1436:	bf 01 00 00 00       	mov    $0x1,%edi
    143b:	31 c0                	xor    %eax,%eax
    143d:	e8 fe fc ff ff       	call   1140 <__printf_chk@plt>
    1442:	31 c0                	xor    %eax,%eax
    1444:	48 89 dc             	mov    %rbx,%rsp
    1447:	48 8b 55 d8          	mov    -0x28(%rbp),%rdx
    144b:	64 48 2b 14 25 28 00 	sub    %fs:0x28,%rdx
    1452:	00 00 
    1454:	75 66                	jne    14bc <main+0x33c>
    1456:	48 8d 65 e0          	lea    -0x20(%rbp),%rsp
    145a:	5b                   	pop    %rbx
    145b:	41 5c                	pop    %r12
    145d:	41 5d                	pop    %r13
    145f:	41 5e                	pop    %r14
    1461:	5d                   	pop    %rbp
    1462:	c3                   	ret    
    1463:	f2 44 0f 5e c6       	divsd  %xmm6,%xmm8
    1468:	66 0f ef c0          	pxor   %xmm0,%xmm0
    146c:	f3 0f 11 5d c4       	movss  %xmm3,-0x3c(%rbp)
    1471:	f3 0f 11 4d c8       	movss  %xmm1,-0x38(%rbp)
    1476:	f2 41 0f 5a c0       	cvtsd2ss %xmm8,%xmm0
    147b:	e8 b0 fc ff ff       	call   1130 <log10f@plt>
    1480:	f3 0f 10 5d c4       	movss  -0x3c(%rbp),%xmm3
    1485:	f3 0f 59 05 a7 0c 00 	mulss  0xca7(%rip),%xmm0        # 2134 <_IO_stdin_used+0x134>
    148c:	00 
    148d:	f3 0f 10 4d c8       	movss  -0x38(%rbp),%xmm1
    1492:	0f 28 e0             	movaps %xmm0,%xmm4
    1495:	e9 14 ff ff ff       	jmp    13ae <main+0x22e>
    149a:	48 8d 15 c6 0b 00 00 	lea    0xbc6(%rip),%rdx        # 2067 <_IO_stdin_used+0x67>
    14a1:	48 8d 35 d7 0b 00 00 	lea    0xbd7(%rip),%rsi        # 207f <_IO_stdin_used+0x7f>
    14a8:	bf 01 00 00 00       	mov    $0x1,%edi
    14ad:	31 c0                	xor    %eax,%eax
    14af:	e8 8c fc ff ff       	call   1140 <__printf_chk@plt>
    14b4:	83 c8 ff             	or     $0xffffffff,%eax
    14b7:	48 89 dc             	mov    %rbx,%rsp
    14ba:	eb 8b                	jmp    1447 <main+0x2c7>
    14bc:	e8 5f fc ff ff       	call   1120 <__stack_chk_fail@plt>
    14c1:	66 2e 0f 1f 84 00 00 	cs nopw 0x0(%rax,%rax,1)
    14c8:	00 00 00 
    14cb:	0f 1f 44 00 00       	nopl   0x0(%rax,%rax,1)

00000000000014d0 <_start>:
    14d0:	f3 0f 1e fa          	endbr64 
    14d4:	31 ed                	xor    %ebp,%ebp
    14d6:	49 89 d1             	mov    %rdx,%r9
    14d9:	5e                   	pop    %rsi
    14da:	48 89 e2             	mov    %rsp,%rdx
    14dd:	48 83 e4 f0          	and    $0xfffffffffffffff0,%rsp
    14e1:	50                   	push   %rax
    14e2:	54                   	push   %rsp
    14e3:	45 31 c0             	xor    %r8d,%r8d
    14e6:	31 c9                	xor    %ecx,%ecx
    14e8:	48 8d 3d 91 fc ff ff 	lea    -0x36f(%rip),%rdi        # 1180 <main>
    14ef:	ff 15 e3 2a 00 00    	call   *0x2ae3(%rip)        # 3fd8 <__libc_start_main@GLIBC_2.34>
    14f5:	f4                   	hlt    
    14f6:	66 2e 0f 1f 84 00 00 	cs nopw 0x0(%rax,%rax,1)
    14fd:	00 00 00 

0000000000001500 <deregister_tm_clones>:
    1500:	48 8d 3d 09 2b 00 00 	lea    0x2b09(%rip),%rdi        # 4010 <__TMC_END__>
    1507:	48 8d 05 02 2b 00 00 	lea    0x2b02(%rip),%rax        # 4010 <__TMC_END__>
    150e:	48 39 f8             	cmp    %rdi,%rax
    1511:	74 15                	je     1528 <deregister_tm_clones+0x28>
    1513:	48 8b 05 c6 2a 00 00 	mov    0x2ac6(%rip),%rax        # 3fe0 <_ITM_deregisterTMCloneTable@Base>
    151a:	48 85 c0             	test   %rax,%rax
    151d:	74 09                	je     1528 <deregister_tm_clones+0x28>
    151f:	ff e0                	jmp    *%rax
    1521:	0f 1f 80 00 00 00 00 	nopl   0x0(%rax)
    1528:	c3                   	ret    
    1529:	0f 1f 80 00 00 00 00 	nopl   0x0(%rax)

0000000000001530 <register_tm_clones>:
    1530:	48 8d 3d d9 2a 00 00 	lea    0x2ad9(%rip),%rdi        # 4010 <__TMC_END__>
    1537:	48 8d 35 d2 2a 00 00 	lea    0x2ad2(%rip),%rsi        # 4010 <__TMC_END__>
    153e:	48 29 fe             	sub    %rdi,%rsi
    1541:	48 89 f0             	mov    %rsi,%rax
    1544:	48 c1 ee 3f          	shr    $0x3f,%rsi
    1548:	48 c1 f8 03          	sar    $0x3,%rax
    154c:	48 01 c6             	add    %rax,%rsi
    154f:	48 d1 fe             	sar    %rsi
    1552:	74 14                	je     1568 <register_tm_clones+0x38>
    1554:	48 8b 05 95 2a 00 00 	mov    0x2a95(%rip),%rax        # 3ff0 <_ITM_registerTMCloneTable@Base>
    155b:	48 85 c0             	test   %rax,%rax
    155e:	74 08                	je     1568 <register_tm_clones+0x38>
    1560:	ff e0                	jmp    *%rax
    1562:	66 0f 1f 44 00 00    	nopw   0x0(%rax,%rax,1)
    1568:	c3                   	ret    
    1569:	0f 1f 80 00 00 00 00 	nopl   0x0(%rax)

0000000000001570 <__do_global_dtors_aux>:
    1570:	f3 0f 1e fa          	endbr64 
    1574:	80 3d 95 2a 00 00 00 	cmpb   $0x0,0x2a95(%rip)        # 4010 <__TMC_END__>
    157b:	75 2b                	jne    15a8 <__do_global_dtors_aux+0x38>
    157d:	55                   	push   %rbp
    157e:	48 83 3d 72 2a 00 00 	cmpq   $0x0,0x2a72(%rip)        # 3ff8 <__cxa_finalize@GLIBC_2.2.5>
    1585:	00 
    1586:	48 89 e5             	mov    %rsp,%rbp
    1589:	74 0c                	je     1597 <__do_global_dtors_aux+0x27>
    158b:	48 8b 3d 76 2a 00 00 	mov    0x2a76(%rip),%rdi        # 4008 <__dso_handle>
    1592:	e8 39 fb ff ff       	call   10d0 <__cxa_finalize@plt>
    1597:	e8 64 ff ff ff       	call   1500 <deregister_tm_clones>
    159c:	c6 05 6d 2a 00 00 01 	movb   $0x1,0x2a6d(%rip)        # 4010 <__TMC_END__>
    15a3:	5d                   	pop    %rbp
    15a4:	c3                   	ret    
    15a5:	0f 1f 00             	nopl   (%rax)
    15a8:	c3                   	ret    
    15a9:	0f 1f 80 00 00 00 00 	nopl   0x0(%rax)

00000000000015b0 <frame_dummy>:
    15b0:	f3 0f 1e fa          	endbr64 
    15b4:	e9 77 ff ff ff       	jmp    1530 <register_tm_clones>
    15b9:	0f 1f 80 00 00 00 00 	nopl   0x0(%rax)

00000000000015c0 <test_Fopen.constprop.0.isra.0>:
    15c0:	55                   	push   %rbp
    15c1:	4c 8d 0d 3c 0a 00 00 	lea    0xa3c(%rip),%r9        # 2004 <_IO_stdin_used+0x4>
    15c8:	4c 8d 05 c9 0a 00 00 	lea    0xac9(%rip),%r8        # 2098 <_IO_stdin_used+0x98>
    15cf:	ba 00 04 00 00       	mov    $0x400,%edx
    15d4:	53                   	push   %rbx
    15d5:	48 8d 0d 41 0a 00 00 	lea    0xa41(%rip),%rcx        # 201d <_IO_stdin_used+0x1d>
    15dc:	48 89 fb             	mov    %rdi,%rbx
    15df:	be 01 00 00 00       	mov    $0x1,%esi
    15e4:	48 81 ec 18 04 00 00 	sub    $0x418,%rsp
    15eb:	64 48 8b 04 25 28 00 	mov    %fs:0x28,%rax
    15f2:	00 00 
    15f4:	48 89 84 24 08 04 00 	mov    %rax,0x408(%rsp)
    15fb:	00 
    15fc:	31 c0                	xor    %eax,%eax
    15fe:	48 89 e5             	mov    %rsp,%rbp
    1601:	48 89 ef             	mov    %rbp,%rdi
    1604:	e8 67 fb ff ff       	call   1170 <__sprintf_chk@plt>
    1609:	48 8d 35 13 0a 00 00 	lea    0xa13(%rip),%rsi        # 2023 <_IO_stdin_used+0x23>
    1610:	48 89 ef             	mov    %rbp,%rdi
    1613:	e8 38 fb ff ff       	call   1150 <fopen@plt>
    1618:	48 89 03             	mov    %rax,(%rbx)
    161b:	48 85 c0             	test   %rax,%rax
    161e:	74 1d                	je     163d <test_Fopen.constprop.0.isra.0+0x7d>
    1620:	48 8b 84 24 08 04 00 	mov    0x408(%rsp),%rax
    1627:	00 
    1628:	64 48 2b 04 25 28 00 	sub    %fs:0x28,%rax
    162f:	00 00 
    1631:	75 24                	jne    1657 <test_Fopen.constprop.0.isra.0+0x97>
    1633:	48 81 c4 18 04 00 00 	add    $0x418,%rsp
    163a:	5b                   	pop    %rbx
    163b:	5d                   	pop    %rbp
    163c:	c3                   	ret    
    163d:	48 8d 15 c0 09 00 00 	lea    0x9c0(%rip),%rdx        # 2004 <_IO_stdin_used+0x4>
    1644:	48 8d 35 db 09 00 00 	lea    0x9db(%rip),%rsi        # 2026 <_IO_stdin_used+0x26>
    164b:	bf 01 00 00 00       	mov    $0x1,%edi
    1650:	e8 eb fa ff ff       	call   1140 <__printf_chk@plt>
    1655:	eb c9                	jmp    1620 <test_Fopen.constprop.0.isra.0+0x60>
    1657:	e8 c4 fa ff ff       	call   1120 <__stack_chk_fail@plt>
    165c:	0f 1f 40 00          	nopl   0x0(%rax)

0000000000001660 <riscv_dsp_win_hft95_f32>:
    1660:	f3 0f 1e fa          	endbr64 
    1664:	41 54                	push   %r12
    1666:	66 0f ef c0          	pxor   %xmm0,%xmm0
    166a:	55                   	push   %rbp
    166b:	89 f5                	mov    %esi,%ebp
    166d:	53                   	push   %rbx
    166e:	f3 48 0f 2a c5       	cvtsi2ss %rbp,%xmm0
    1673:	48 83 ec 20          	sub    $0x20,%rsp
    1677:	f3 0f 10 0d e1 0a 00 	movss  0xae1(%rip),%xmm1        # 2160 <_IO_stdin_used+0x160>
    167e:	00 
    167f:	f3 0f 5e c8          	divss  %xmm0,%xmm1
    1683:	f3 0f 11 4c 24 1c    	movss  %xmm1,0x1c(%rsp)
    1689:	85 f6                	test   %esi,%esi
    168b:	0f 84 f7 00 00 00    	je     1788 <riscv_dsp_win_hft95_f32+0x128>
    1691:	48 89 fb             	mov    %rdi,%rbx
    1694:	45 31 e4             	xor    %r12d,%r12d
    1697:	66 0f 1f 84 00 00 00 	nopw   0x0(%rax,%rax,1)
    169e:	00 00 
    16a0:	44 89 e0             	mov    %r12d,%eax
    16a3:	66 0f ef d2          	pxor   %xmm2,%xmm2
    16a7:	f3 48 0f 2a d0       	cvtsi2ss %rax,%xmm2
    16ac:	f3 0f 59 15 b0 0a 00 	mulss  0xab0(%rip),%xmm2        # 2164 <_IO_stdin_used+0x164>
    16b3:	00 
    16b4:	f3 0f 59 54 24 1c    	mulss  0x1c(%rsp),%xmm2
    16ba:	0f 28 c2             	movaps %xmm2,%xmm0
    16bd:	f3 0f 11 54 24 0c    	movss  %xmm2,0xc(%rsp)
    16c3:	e8 18 fa ff ff       	call   10e0 <cosf@plt>
    16c8:	f3 0f 10 54 24 0c    	movss  0xc(%rsp),%xmm2
    16ce:	f3 0f 11 44 24 18    	movss  %xmm0,0x18(%rsp)
    16d4:	0f 28 c2             	movaps %xmm2,%xmm0
    16d7:	f3 0f 58 c2          	addss  %xmm2,%xmm0
    16db:	e8 00 fa ff ff       	call   10e0 <cosf@plt>
    16e0:	f3 0f 10 54 24 0c    	movss  0xc(%rsp),%xmm2
    16e6:	f3 0f 11 44 24 14    	movss  %xmm0,0x14(%rsp)
    16ec:	f3 0f 10 05 74 0a 00 	movss  0xa74(%rip),%xmm0        # 2168 <_IO_stdin_used+0x168>
    16f3:	00 
    16f4:	f3 0f 11 54 24 10    	movss  %xmm2,0x10(%rsp)
    16fa:	f3 0f 59 c2          	mulss  %xmm2,%xmm0
    16fe:	e8 dd f9 ff ff       	call   10e0 <cosf@plt>
    1703:	f3 0f 10 54 24 10    	movss  0x10(%rsp),%xmm2
    1709:	f3 0f 11 44 24 0c    	movss  %xmm0,0xc(%rsp)
    170f:	f3 0f 10 05 55 0a 00 	movss  0xa55(%rip),%xmm0        # 216c <_IO_stdin_used+0x16c>
    1716:	00 
    1717:	f3 0f 59 c2          	mulss  %xmm2,%xmm0
    171b:	e8 c0 f9 ff ff       	call   10e0 <cosf@plt>
    1720:	f3 0f 10 64 24 14    	movss  0x14(%rsp),%xmm4
    1726:	f3 0f 10 4c 24 18    	movss  0x18(%rsp),%xmm1
    172c:	0f 28 d0             	movaps %xmm0,%xmm2
    172f:	f3 0f 10 05 41 0a 00 	movss  0xa41(%rip),%xmm0        # 2178 <_IO_stdin_used+0x178>
    1736:	00 
    1737:	f3 0f 10 5c 24 0c    	movss  0xc(%rsp),%xmm3
    173d:	f3 0f 59 0d 2b 0a 00 	mulss  0xa2b(%rip),%xmm1        # 2170 <_IO_stdin_used+0x170>
    1744:	00 
    1745:	f3 0f 59 c4          	mulss  %xmm4,%xmm0
    1749:	f3 0f 58 0d 23 0a 00 	addss  0xa23(%rip),%xmm1        # 2174 <_IO_stdin_used+0x174>
    1750:	00 
    1751:	f3 0f 58 c8          	addss  %xmm0,%xmm1
    1755:	f3 0f 10 05 1f 0a 00 	movss  0xa1f(%rip),%xmm0        # 217c <_IO_stdin_used+0x17c>
    175c:	00 
    175d:	f3 0f 59 c3          	mulss  %xmm3,%xmm0
    1761:	f3 0f 58 c8          	addss  %xmm0,%xmm1
    1765:	f3 0f 10 05 13 0a 00 	movss  0xa13(%rip),%xmm0        # 2180 <_IO_stdin_used+0x180>
    176c:	00 
    176d:	f3 0f 59 c2          	mulss  %xmm2,%xmm0
    1771:	f3 0f 58 c8          	addss  %xmm0,%xmm1
    1775:	f3 42 0f 11 0c a3    	movss  %xmm1,(%rbx,%r12,4)
    177b:	49 83 c4 01          	add    $0x1,%r12
    177f:	4c 39 e5             	cmp    %r12,%rbp
    1782:	0f 85 18 ff ff ff    	jne    16a0 <riscv_dsp_win_hft95_f32+0x40>
    1788:	48 83 c4 20          	add    $0x20,%rsp
    178c:	5b                   	pop    %rbx
    178d:	5d                   	pop    %rbp
    178e:	41 5c                	pop    %r12
    1790:	c3                   	ret    

Disassembly of section .fini:

0000000000001794 <_fini>:
    1794:	f3 0f 1e fa          	endbr64 
    1798:	48 83 ec 08          	sub    $0x8,%rsp
    179c:	48 83 c4 08          	add    $0x8,%rsp
    17a0:	c3                   	ret    
